ARM GAS  C:\Users\Administrator\AppData\Local\Temp\ccWboaAz.s 			page 1


   1              		.cpu cortex-m0
   2              		.fpu softvfp
   3              		.eabi_attribute 20, 1
   4              		.eabi_attribute 21, 1
   5              		.eabi_attribute 23, 3
   6              		.eabi_attribute 24, 1
   7              		.eabi_attribute 25, 1
   8              		.eabi_attribute 26, 1
   9              		.eabi_attribute 30, 4
  10              		.eabi_attribute 34, 0
  11              		.eabi_attribute 18, 4
  12              		.code	16
  13              		.file	"BLE_bts.c"
  14              		.text
  15              	.Ltext0:
  16              		.cfi_sections	.debug_frame
  17              		.section	.text.CyBle_BtsWriteEventHandler,"ax",%progbits
  18              		.align	1
  19              		.global	CyBle_BtsWriteEventHandler
  20              		.code	16
  21              		.thumb_func
  22              		.type	CyBle_BtsWriteEventHandler, %function
  23              	CyBle_BtsWriteEventHandler:
  24              	.LFB2:
  25              		.file 1 "Generated_Source\\PSoC4\\BLE_bts.c"
   1:Generated_Source\PSoC4/BLE_bts.c **** /***************************************************************************//**
   2:Generated_Source\PSoC4/BLE_bts.c **** * \file CYBLE_bts.c
   3:Generated_Source\PSoC4/BLE_bts.c **** * \version 3.10
   4:Generated_Source\PSoC4/BLE_bts.c **** * 
   5:Generated_Source\PSoC4/BLE_bts.c **** * \brief
   6:Generated_Source\PSoC4/BLE_bts.c **** *  Contains the source code for the Bootloader service.
   7:Generated_Source\PSoC4/BLE_bts.c **** * 
   8:Generated_Source\PSoC4/BLE_bts.c **** ********************************************************************************
   9:Generated_Source\PSoC4/BLE_bts.c **** * \copyright
  10:Generated_Source\PSoC4/BLE_bts.c **** * Copyright 2015-2016, Cypress Semiconductor Corporation.  All rights reserved.
  11:Generated_Source\PSoC4/BLE_bts.c **** * You may use this file only in accordance with the license, terms, conditions,
  12:Generated_Source\PSoC4/BLE_bts.c **** * disclaimers, and limitations in the end user license agreement accompanying
  13:Generated_Source\PSoC4/BLE_bts.c **** * the software package with which this file was provided.
  14:Generated_Source\PSoC4/BLE_bts.c **** *******************************************************************************/
  15:Generated_Source\PSoC4/BLE_bts.c **** 
  16:Generated_Source\PSoC4/BLE_bts.c **** #include "BLE_eventHandler.h"
  17:Generated_Source\PSoC4/BLE_bts.c **** 
  18:Generated_Source\PSoC4/BLE_bts.c **** uint8  cyBle_cmdReceivedFlag = 0u;
  19:Generated_Source\PSoC4/BLE_bts.c **** uint16 cyBle_cmdLength = 0u;
  20:Generated_Source\PSoC4/BLE_bts.c **** uint8  *cyBle_btsBuffPtr;
  21:Generated_Source\PSoC4/BLE_bts.c **** 
  22:Generated_Source\PSoC4/BLE_bts.c **** /* Generated code */
  23:Generated_Source\PSoC4/BLE_bts.c **** const CYBLE_BTSS_T cyBle_btss =
  24:Generated_Source\PSoC4/BLE_bts.c **** {
  25:Generated_Source\PSoC4/BLE_bts.c ****     0x0012u,    /* Handle of the BTS service */
  26:Generated_Source\PSoC4/BLE_bts.c ****     {
  27:Generated_Source\PSoC4/BLE_bts.c ****         
  28:Generated_Source\PSoC4/BLE_bts.c ****         /* Command characteristic */
  29:Generated_Source\PSoC4/BLE_bts.c ****         {
  30:Generated_Source\PSoC4/BLE_bts.c ****             0x0014u, /* Handle of the Packet characteristic */ 
  31:Generated_Source\PSoC4/BLE_bts.c ****             
  32:Generated_Source\PSoC4/BLE_bts.c ****             /* Array of Descriptors handles */
ARM GAS  C:\Users\Administrator\AppData\Local\Temp\ccWboaAz.s 			page 2


  33:Generated_Source\PSoC4/BLE_bts.c ****             {
  34:Generated_Source\PSoC4/BLE_bts.c ****                 0x0015u, /* Handle of the Client Characteristic Configuration descriptor */ 
  35:Generated_Source\PSoC4/BLE_bts.c ****             }, 
  36:Generated_Source\PSoC4/BLE_bts.c ****         }, 
  37:Generated_Source\PSoC4/BLE_bts.c ****     },
  38:Generated_Source\PSoC4/BLE_bts.c **** };
  39:Generated_Source\PSoC4/BLE_bts.c **** 
  40:Generated_Source\PSoC4/BLE_bts.c **** 
  41:Generated_Source\PSoC4/BLE_bts.c **** /******************************************************************************
  42:Generated_Source\PSoC4/BLE_bts.c **** * Function Name: CyBle_BtsWriteEventHandler
  43:Generated_Source\PSoC4/BLE_bts.c **** ***************************************************************************//**
  44:Generated_Source\PSoC4/BLE_bts.c **** * 
  45:Generated_Source\PSoC4/BLE_bts.c **** *  Handles a Write Request event for the Bootloader Service.
  46:Generated_Source\PSoC4/BLE_bts.c **** * 
  47:Generated_Source\PSoC4/BLE_bts.c **** *  \param CYBLE_GATTS_WRITE_REQ_PARAM_T * eventParam: The pointer to data that came
  48:Generated_Source\PSoC4/BLE_bts.c **** *                                              with a Write Request for BTS.
  49:Generated_Source\PSoC4/BLE_bts.c **** * 
  50:Generated_Source\PSoC4/BLE_bts.c **** * \return
  51:Generated_Source\PSoC4/BLE_bts.c **** *  Return a value of type CYBLE_GATT_ERR_CODE_T:
  52:Generated_Source\PSoC4/BLE_bts.c **** *   * CYBLE_GATT_ERR_NONE - A function finished successfully.
  53:Generated_Source\PSoC4/BLE_bts.c **** *   * CYBLE_GATT_ERR_INVALID_HANDLE - The Handle of the Bootloader
  54:Generated_Source\PSoC4/BLE_bts.c **** *                                     Characteristic's Client Configuration
  55:Generated_Source\PSoC4/BLE_bts.c **** *                                     Characteristic Descriptor is not valid.
  56:Generated_Source\PSoC4/BLE_bts.c **** *   * CYBLE_GATT_ERR_WRITE_NOT_PERMITTED - Write operation is not permitted on 
  57:Generated_Source\PSoC4/BLE_bts.c **** *                                          this attribute.
  58:Generated_Source\PSoC4/BLE_bts.c **** *   * CYBLE_GATT_ERR_UNLIKELY_ERROR - An Internal Stack error occurred.
  59:Generated_Source\PSoC4/BLE_bts.c **** *   * CYBLE_GATT_ERR_INVALID_OFFSET - Offset value is invalid.
  60:Generated_Source\PSoC4/BLE_bts.c **** *   * CYBLE_GATT_ERR_REQUEST_NOT_SUPPORTED - The notification property of the
  61:Generated_Source\PSoC4/BLE_bts.c **** *                                            Bootloader Characteristic's Client
  62:Generated_Source\PSoC4/BLE_bts.c **** *                                            Configuration Characteristic
  63:Generated_Source\PSoC4/BLE_bts.c **** *                                            Descriptor is disabled.
  64:Generated_Source\PSoC4/BLE_bts.c **** ******************************************************************************/
  65:Generated_Source\PSoC4/BLE_bts.c **** CYBLE_GATT_ERR_CODE_T CyBle_BtsWriteEventHandler(CYBLE_GATTS_WRITE_REQ_PARAM_T *eventParam)
  66:Generated_Source\PSoC4/BLE_bts.c **** {
  26              		.loc 1 66 0
  27              		.cfi_startproc
  28              	.LVL0:
  29 0000 13B5     		push	{r0, r1, r4, lr}
  30              		.cfi_def_cfa_offset 16
  31              		.cfi_offset 0, -16
  32              		.cfi_offset 1, -12
  33              		.cfi_offset 4, -8
  34              		.cfi_offset 14, -4
  67:Generated_Source\PSoC4/BLE_bts.c ****     CYBLE_GATT_ERR_CODE_T gattErr = CYBLE_GATT_ERR_NONE;
  68:Generated_Source\PSoC4/BLE_bts.c ****     
  69:Generated_Source\PSoC4/BLE_bts.c ****     /* Client Characteristic Configuration descriptor Write Request */
  70:Generated_Source\PSoC4/BLE_bts.c ****     if(eventParam->handleValPair.attrHandle == cyBle_btss.btServiceInfo[0u].btServiceCharDescriptor
  35              		.loc 1 70 0
  36 0002 8389     		ldrh	r3, [r0, #12]
  66:Generated_Source\PSoC4/BLE_bts.c ****     CYBLE_GATT_ERR_CODE_T gattErr = CYBLE_GATT_ERR_NONE;
  37              		.loc 1 66 0
  38 0004 021C     		mov	r2, r0
  39              		.loc 1 70 0
  40 0006 152B     		cmp	r3, #21
  41 0008 11D1     		bne	.L2
  71:Generated_Source\PSoC4/BLE_bts.c ****     {
  72:Generated_Source\PSoC4/BLE_bts.c ****         /* Verify that notification property is enabled for Bootloader Characteristic */
ARM GAS  C:\Users\Administrator\AppData\Local\Temp\ccWboaAz.s 			page 3


  73:Generated_Source\PSoC4/BLE_bts.c ****         if(CYBLE_IS_NOTIFICATION_SUPPORTED(cyBle_btss.btServiceInfo[0u].btServiceCharHandle))
  42              		.loc 1 73 0
  43 000a 6C33     		add	r3, r3, #108
  44 000c 1748     		ldr	r0, .L10
  45              	.LVL1:
  46 000e FF33     		add	r3, r3, #255
  47 0010 C358     		ldr	r3, [r0, r3]
  74:Generated_Source\PSoC4/BLE_bts.c ****         {   
  75:Generated_Source\PSoC4/BLE_bts.c ****             gattErr = CyBle_GattsWriteAttributeValue(&eventParam->handleValPair, 0u, 
  76:Generated_Source\PSoC4/BLE_bts.c ****                 &eventParam->connHandle, CYBLE_GATT_DB_PEER_INITIATED);
  77:Generated_Source\PSoC4/BLE_bts.c ****         }
  78:Generated_Source\PSoC4/BLE_bts.c ****         else
  79:Generated_Source\PSoC4/BLE_bts.c ****         {
  80:Generated_Source\PSoC4/BLE_bts.c ****             gattErr = CYBLE_GATT_ERR_REQUEST_NOT_SUPPORTED;
  48              		.loc 1 80 0
  49 0012 0621     		mov	r1, #6
  73:Generated_Source\PSoC4/BLE_bts.c ****         {   
  50              		.loc 1 73 0
  51 0014 0193     		str	r3, [sp, #4]
  52 0016 DB04     		lsl	r3, r3, #19
  53 0018 05D5     		bpl	.L3
  75:Generated_Source\PSoC4/BLE_bts.c ****                 &eventParam->connHandle, CYBLE_GATT_DB_PEER_INITIATED);
  54              		.loc 1 75 0
  55 001a 0021     		mov	r1, #0
  56 001c 101D     		add	r0, r2, #4
  57 001e 4023     		mov	r3, #64
  58 0020 FFF7FEFF 		bl	CyBle_GattsWriteAttributeValue
  59              	.LVL2:
  60 0024 011C     		mov	r1, r0
  61              	.LVL3:
  62              	.L3:
  81:Generated_Source\PSoC4/BLE_bts.c ****         }
  82:Generated_Source\PSoC4/BLE_bts.c **** 
  83:Generated_Source\PSoC4/BLE_bts.c ****         /* Indicate that request was handled */
  84:Generated_Source\PSoC4/BLE_bts.c ****         cyBle_eventHandlerFlag &= (uint8)~CYBLE_CALLBACK;
  63              		.loc 1 84 0
  64 0026 124A     		ldr	r2, .L10+4
  65 0028 0120     		mov	r0, #1
  66 002a 1378     		ldrb	r3, [r2]
  67 002c 19E0     		b	.L8
  68              	.LVL4:
  69              	.L2:
  67:Generated_Source\PSoC4/BLE_bts.c ****     
  70              		.loc 1 67 0
  71 002e 0021     		mov	r1, #0
  85:Generated_Source\PSoC4/BLE_bts.c ****     }
  86:Generated_Source\PSoC4/BLE_bts.c ****     else if(eventParam->handleValPair.attrHandle == cyBle_btss.btServiceInfo[0u].btServiceCharHandl
  72              		.loc 1 86 0
  73 0030 142B     		cmp	r3, #20
  74 0032 18D1     		bne	.L4
  87:Generated_Source\PSoC4/BLE_bts.c ****     {
  88:Generated_Source\PSoC4/BLE_bts.c ****         /* Write value to GATT database */
  89:Generated_Source\PSoC4/BLE_bts.c ****         gattErr = CyBle_GattsWriteAttributeValue(&eventParam->handleValPair, 0u, 
  75              		.loc 1 89 0
  76 0034 2C33     		add	r3, r3, #44
  77 0036 0430     		add	r0, r0, #4
  78              	.LVL5:
ARM GAS  C:\Users\Administrator\AppData\Local\Temp\ccWboaAz.s 			page 4


  79 0038 FFF7FEFF 		bl	CyBle_GattsWriteAttributeValue
  80              	.LVL6:
  90:Generated_Source\PSoC4/BLE_bts.c ****                 &eventParam->connHandle, CYBLE_GATT_DB_PEER_INITIATED);
  91:Generated_Source\PSoC4/BLE_bts.c ****         
  92:Generated_Source\PSoC4/BLE_bts.c ****         cyBle_btsBuffPtr = 
  93:Generated_Source\PSoC4/BLE_bts.c ****                 CYBLE_GATT_DB_ATTR_GET_ATTR_GEN_PTR(cyBle_btss.btServiceInfo[0u].btServiceCharHandl
  81              		.loc 1 93 0
  82 003c C623     		mov	r3, #198
  89:Generated_Source\PSoC4/BLE_bts.c ****                 &eventParam->connHandle, CYBLE_GATT_DB_PEER_INITIATED);
  83              		.loc 1 89 0
  84 003e 011C     		mov	r1, r0
  85              	.LVL7:
  94:Generated_Source\PSoC4/BLE_bts.c **** 
  95:Generated_Source\PSoC4/BLE_bts.c ****         /* Extract length of command data and add control bytes to data 
  96:Generated_Source\PSoC4/BLE_bts.c ****         * length to get command length.
  97:Generated_Source\PSoC4/BLE_bts.c ****         */
  98:Generated_Source\PSoC4/BLE_bts.c ****         cyBle_cmdLength = (((uint16)(((uint16) cyBle_btsBuffPtr[CYBLE_BTS_COMMAND_DATA_LEN_OFFSET +
  99:Generated_Source\PSoC4/BLE_bts.c ****                             (uint16) cyBle_btsBuffPtr[CYBLE_BTS_COMMAND_DATA_LEN_OFFSET]) +
 100:Generated_Source\PSoC4/BLE_bts.c ****                                 CYBLE_BTS_COMMAND_CONTROL_BYTES_NUM;
 101:Generated_Source\PSoC4/BLE_bts.c **** 
 102:Generated_Source\PSoC4/BLE_bts.c ****         /* Set flag for bootloader to know that command is received from host */
 103:Generated_Source\PSoC4/BLE_bts.c ****         cyBle_cmdReceivedFlag = 1u;
  86              		.loc 1 103 0
  87 0040 0120     		mov	r0, #1
  88              	.LVL8:
  93:Generated_Source\PSoC4/BLE_bts.c **** 
  89              		.loc 1 93 0
  90 0042 0A4A     		ldr	r2, .L10
  91 0044 5B00     		lsl	r3, r3, #1
  92 0046 D358     		ldr	r3, [r2, r3]
  98:Generated_Source\PSoC4/BLE_bts.c ****                             (uint16) cyBle_btsBuffPtr[CYBLE_BTS_COMMAND_DATA_LEN_OFFSET]) +
  93              		.loc 1 98 0
  94 0048 0A4C     		ldr	r4, .L10+8
  93:Generated_Source\PSoC4/BLE_bts.c **** 
  95              		.loc 1 93 0
  96 004a 5A68     		ldr	r2, [r3, #4]
  92:Generated_Source\PSoC4/BLE_bts.c ****                 CYBLE_GATT_DB_ATTR_GET_ATTR_GEN_PTR(cyBle_btss.btServiceInfo[0u].btServiceCharHandl
  97              		.loc 1 92 0
  98 004c 0A4B     		ldr	r3, .L10+12
  99              		.loc 1 103 0
 100 004e A070     		strb	r0, [r4, #2]
  92:Generated_Source\PSoC4/BLE_bts.c ****                 CYBLE_GATT_DB_ATTR_GET_ATTR_GEN_PTR(cyBle_btss.btServiceInfo[0u].btServiceCharHandl
 101              		.loc 1 92 0
 102 0050 1A60     		str	r2, [r3]
  98:Generated_Source\PSoC4/BLE_bts.c ****                             (uint16) cyBle_btsBuffPtr[CYBLE_BTS_COMMAND_DATA_LEN_OFFSET]) +
 103              		.loc 1 98 0
 104 0052 D378     		ldrb	r3, [r2, #3]
 105 0054 9278     		ldrb	r2, [r2, #2]
 106 0056 1B02     		lsl	r3, r3, #8
 107 0058 1343     		orr	r3, r2
 104:Generated_Source\PSoC4/BLE_bts.c **** 
 105:Generated_Source\PSoC4/BLE_bts.c ****         /* Indicate that request was handled */
 106:Generated_Source\PSoC4/BLE_bts.c ****         cyBle_eventHandlerFlag &= (uint8)~CYBLE_CALLBACK;
 108              		.loc 1 106 0
 109 005a 054A     		ldr	r2, .L10+4
  98:Generated_Source\PSoC4/BLE_bts.c ****                             (uint16) cyBle_btsBuffPtr[CYBLE_BTS_COMMAND_DATA_LEN_OFFSET]) +
 110              		.loc 1 98 0
ARM GAS  C:\Users\Administrator\AppData\Local\Temp\ccWboaAz.s 			page 5


 111 005c 0733     		add	r3, r3, #7
 112 005e 2380     		strh	r3, [r4]
 113              		.loc 1 106 0
 114 0060 1378     		ldrb	r3, [r2]
 115              	.LVL9:
 116              	.L8:
 117 0062 8343     		bic	r3, r0
 118 0064 1370     		strb	r3, [r2]
 119              	.L4:
 120              	.LVL10:
 107:Generated_Source\PSoC4/BLE_bts.c ****     }
 108:Generated_Source\PSoC4/BLE_bts.c ****     else
 109:Generated_Source\PSoC4/BLE_bts.c ****     {
 110:Generated_Source\PSoC4/BLE_bts.c ****     }
 111:Generated_Source\PSoC4/BLE_bts.c ****     
 112:Generated_Source\PSoC4/BLE_bts.c ****     return(gattErr);
 113:Generated_Source\PSoC4/BLE_bts.c **** }
 121              		.loc 1 113 0
 122 0066 081C     		mov	r0, r1
 123              		@ sp needed
 124 0068 16BD     		pop	{r1, r2, r4, pc}
 125              	.L11:
 126 006a C046     		.align	2
 127              	.L10:
 128 006c 00000000 		.word	cyBle_gattDB
 129 0070 00000000 		.word	cyBle_eventHandlerFlag
 130 0074 00000000 		.word	.LANCHOR0
 131 0078 00000000 		.word	cyBle_btsBuffPtr
 132              		.cfi_endproc
 133              	.LFE2:
 134              		.size	CyBle_BtsWriteEventHandler, .-CyBle_BtsWriteEventHandler
 135              		.section	.text.CyBle_BtssPrepareWriteRequestEventHandler,"ax",%progbits
 136              		.align	1
 137              		.global	CyBle_BtssPrepareWriteRequestEventHandler
 138              		.code	16
 139              		.thumb_func
 140              		.type	CyBle_BtssPrepareWriteRequestEventHandler, %function
 141              	CyBle_BtssPrepareWriteRequestEventHandler:
 142              	.LFB3:
 114:Generated_Source\PSoC4/BLE_bts.c **** 
 115:Generated_Source\PSoC4/BLE_bts.c **** 
 116:Generated_Source\PSoC4/BLE_bts.c **** /****************************************************************************** 
 117:Generated_Source\PSoC4/BLE_bts.c **** * Function Name: CyBle_BtssPrepareWriteRequestEventHandler
 118:Generated_Source\PSoC4/BLE_bts.c **** ***************************************************************************//**
 119:Generated_Source\PSoC4/BLE_bts.c **** * 
 120:Generated_Source\PSoC4/BLE_bts.c **** *  Handles a Prepare Write Request event for the Bootloader Service.
 121:Generated_Source\PSoC4/BLE_bts.c **** * 
 122:Generated_Source\PSoC4/BLE_bts.c **** *  \param CYBLE_GATTS_PREP_WRITE_REQ_PARAM_T *eventParam: The pointer to the data
 123:Generated_Source\PSoC4/BLE_bts.c **** *                                                  received with a Prepare Write
 124:Generated_Source\PSoC4/BLE_bts.c **** *                                                  Request event for the
 125:Generated_Source\PSoC4/BLE_bts.c **** *                                                  Bootloader service.
 126:Generated_Source\PSoC4/BLE_bts.c **** * 
 127:Generated_Source\PSoC4/BLE_bts.c **** * \return
 128:Generated_Source\PSoC4/BLE_bts.c **** *  None.
 129:Generated_Source\PSoC4/BLE_bts.c **** * 
 130:Generated_Source\PSoC4/BLE_bts.c **** ******************************************************************************/
 131:Generated_Source\PSoC4/BLE_bts.c **** void CyBle_BtssPrepareWriteRequestEventHandler(const CYBLE_GATTS_PREP_WRITE_REQ_PARAM_T *eventParam
ARM GAS  C:\Users\Administrator\AppData\Local\Temp\ccWboaAz.s 			page 6


 132:Generated_Source\PSoC4/BLE_bts.c **** {
 143              		.loc 1 132 0
 144              		.cfi_startproc
 145              	.LVL11:
 146 0000 08B5     		push	{r3, lr}
 147              		.cfi_def_cfa_offset 8
 148              		.cfi_offset 3, -8
 149              		.cfi_offset 14, -4
 133:Generated_Source\PSoC4/BLE_bts.c ****     if(eventParam->baseAddr[0u].handleValuePair.attrHandle == cyBle_btss.btServiceInfo[0u].btServic
 150              		.loc 1 133 0
 151 0002 4368     		ldr	r3, [r0, #4]
 152 0004 1B89     		ldrh	r3, [r3, #8]
 153 0006 142B     		cmp	r3, #20
 154 0008 0CD1     		bne	.L12
 134:Generated_Source\PSoC4/BLE_bts.c ****     {
 135:Generated_Source\PSoC4/BLE_bts.c ****         if(eventParam->currentPrepWriteReqCount == 1u)
 155              		.loc 1 135 0
 156 000a 007A     		ldrb	r0, [r0, #8]
 157              	.LVL12:
 158 000c 0128     		cmp	r0, #1
 159 000e 04D1     		bne	.L14
 136:Generated_Source\PSoC4/BLE_bts.c ****         {
 137:Generated_Source\PSoC4/BLE_bts.c ****             /* Send Prepare Write Response which identifies acknowledgement for
 138:Generated_Source\PSoC4/BLE_bts.c ****             *  long characteristic value write.
 139:Generated_Source\PSoC4/BLE_bts.c ****             */
 140:Generated_Source\PSoC4/BLE_bts.c ****             CyBle_GattsPrepWriteReqSupport(CYBLE_GATTS_PREP_WRITE_SUPPORT);
 160              		.loc 1 140 0
 161 0010 FFF7FEFF 		bl	CyBle_GattsPrepWriteReqSupport
 162              	.LVL13:
 141:Generated_Source\PSoC4/BLE_bts.c ****             
 142:Generated_Source\PSoC4/BLE_bts.c ****             cyBle_cmdLength = 0u;
 163              		.loc 1 142 0
 164 0014 0022     		mov	r2, #0
 165 0016 044B     		ldr	r3, .L15
 166 0018 1A80     		strh	r2, [r3]
 167              	.L14:
 143:Generated_Source\PSoC4/BLE_bts.c ****         }
 144:Generated_Source\PSoC4/BLE_bts.c **** 
 145:Generated_Source\PSoC4/BLE_bts.c ****         /* Indicate that request was handled */
 146:Generated_Source\PSoC4/BLE_bts.c ****         cyBle_eventHandlerFlag &= (uint8)~CYBLE_CALLBACK;
 168              		.loc 1 146 0
 169 001a 0121     		mov	r1, #1
 170 001c 034A     		ldr	r2, .L15+4
 171 001e 1378     		ldrb	r3, [r2]
 172 0020 8B43     		bic	r3, r1
 173 0022 1370     		strb	r3, [r2]
 174              	.L12:
 147:Generated_Source\PSoC4/BLE_bts.c ****     }
 148:Generated_Source\PSoC4/BLE_bts.c **** }
 175              		.loc 1 148 0
 176              		@ sp needed
 177 0024 08BD     		pop	{r3, pc}
 178              	.L16:
 179 0026 C046     		.align	2
 180              	.L15:
 181 0028 00000000 		.word	.LANCHOR0
 182 002c 00000000 		.word	cyBle_eventHandlerFlag
ARM GAS  C:\Users\Administrator\AppData\Local\Temp\ccWboaAz.s 			page 7


 183              		.cfi_endproc
 184              	.LFE3:
 185              		.size	CyBle_BtssPrepareWriteRequestEventHandler, .-CyBle_BtssPrepareWriteRequestEventHandler
 186              		.section	.text.CyBle_BtssExecuteWriteRequestEventHandler,"ax",%progbits
 187              		.align	1
 188              		.global	CyBle_BtssExecuteWriteRequestEventHandler
 189              		.code	16
 190              		.thumb_func
 191              		.type	CyBle_BtssExecuteWriteRequestEventHandler, %function
 192              	CyBle_BtssExecuteWriteRequestEventHandler:
 193              	.LFB4:
 149:Generated_Source\PSoC4/BLE_bts.c **** 
 150:Generated_Source\PSoC4/BLE_bts.c **** 
 151:Generated_Source\PSoC4/BLE_bts.c **** /****************************************************************************** 
 152:Generated_Source\PSoC4/BLE_bts.c **** * Function Name: CyBle_BtssExecuteWriteRequestEventHandler
 153:Generated_Source\PSoC4/BLE_bts.c **** ***************************************************************************//**
 154:Generated_Source\PSoC4/BLE_bts.c **** * 
 155:Generated_Source\PSoC4/BLE_bts.c **** *  Handles an Execute Write Request event for the Bootloader Service.
 156:Generated_Source\PSoC4/BLE_bts.c **** * 
 157:Generated_Source\PSoC4/BLE_bts.c **** *  \param CYBLE_GATTS_EXEC_WRITE_REQ_T *eventParam: The pointer to the data that came 
 158:Generated_Source\PSoC4/BLE_bts.c **** *                                            with a Write Request for the
 159:Generated_Source\PSoC4/BLE_bts.c **** *                                            Bootloader service.
 160:Generated_Source\PSoC4/BLE_bts.c **** * 
 161:Generated_Source\PSoC4/BLE_bts.c **** * \return
 162:Generated_Source\PSoC4/BLE_bts.c **** *  None.
 163:Generated_Source\PSoC4/BLE_bts.c **** * 
 164:Generated_Source\PSoC4/BLE_bts.c **** ******************************************************************************/
 165:Generated_Source\PSoC4/BLE_bts.c **** void CyBle_BtssExecuteWriteRequestEventHandler(CYBLE_GATTS_EXEC_WRITE_REQ_T *eventParam)
 166:Generated_Source\PSoC4/BLE_bts.c **** {
 194              		.loc 1 166 0
 195              		.cfi_startproc
 196              	.LVL14:
 167:Generated_Source\PSoC4/BLE_bts.c ****     if(eventParam->baseAddr[0u].handleValuePair.attrHandle == cyBle_btss.btServiceInfo[0u].btServic
 197              		.loc 1 167 0
 198 0000 4368     		ldr	r3, [r0, #4]
 199 0002 1A89     		ldrh	r2, [r3, #8]
 200 0004 142A     		cmp	r2, #20
 201 0006 1AD1     		bne	.L17
 168:Generated_Source\PSoC4/BLE_bts.c ****     {        
 169:Generated_Source\PSoC4/BLE_bts.c ****         /* Check the execWriteFlag before execute or cancel write long operation */
 170:Generated_Source\PSoC4/BLE_bts.c ****         if(eventParam->execWriteFlag == CYBLE_GATT_EXECUTE_WRITE_EXEC_FLAG)
 202              		.loc 1 170 0
 203 0008 427A     		ldrb	r2, [r0, #9]
 204 000a 012A     		cmp	r2, #1
 205 000c 12D1     		bne	.L19
 171:Generated_Source\PSoC4/BLE_bts.c ****         {
 172:Generated_Source\PSoC4/BLE_bts.c ****             cyBle_btsBuffPtr = eventParam->baseAddr[0u].handleValuePair.value.val;
 173:Generated_Source\PSoC4/BLE_bts.c ****             
 174:Generated_Source\PSoC4/BLE_bts.c ****             /* Extract length of command data and add control bytes to data 
 175:Generated_Source\PSoC4/BLE_bts.c ****             * length to get command length.
 176:Generated_Source\PSoC4/BLE_bts.c ****             */
 177:Generated_Source\PSoC4/BLE_bts.c ****             cyBle_cmdLength = (((uint16)(((uint16) cyBle_btsBuffPtr[CYBLE_BTS_COMMAND_DATA_LEN_OFFS
 178:Generated_Source\PSoC4/BLE_bts.c ****                                 (uint16) cyBle_btsBuffPtr[CYBLE_BTS_COMMAND_DATA_LEN_OFFSET]) +
 179:Generated_Source\PSoC4/BLE_bts.c ****                                 CYBLE_BTS_COMMAND_CONTROL_BYTES_NUM;
 180:Generated_Source\PSoC4/BLE_bts.c ****             
 181:Generated_Source\PSoC4/BLE_bts.c ****             if(cyBle_cmdLength > CYBLE_BTS_COMMAND_MAX_LENGTH)
 206              		.loc 1 181 0
ARM GAS  C:\Users\Administrator\AppData\Local\Temp\ccWboaAz.s 			page 8


 207 000e 0821     		mov	r1, #8
 172:Generated_Source\PSoC4/BLE_bts.c ****             
 208              		.loc 1 172 0
 209 0010 1A68     		ldr	r2, [r3]
 210 0012 0B4B     		ldr	r3, .L22
 211              		.loc 1 181 0
 212 0014 FF31     		add	r1, r1, #255
 172:Generated_Source\PSoC4/BLE_bts.c ****             
 213              		.loc 1 172 0
 214 0016 1A60     		str	r2, [r3]
 177:Generated_Source\PSoC4/BLE_bts.c ****                                 (uint16) cyBle_btsBuffPtr[CYBLE_BTS_COMMAND_DATA_LEN_OFFSET]) +
 215              		.loc 1 177 0
 216 0018 D378     		ldrb	r3, [r2, #3]
 217 001a 9278     		ldrb	r2, [r2, #2]
 218 001c 1B02     		lsl	r3, r3, #8
 219 001e 1343     		orr	r3, r2
 220 0020 0733     		add	r3, r3, #7
 221 0022 9BB2     		uxth	r3, r3
 222 0024 074A     		ldr	r2, .L22+4
 223              		.loc 1 181 0
 224 0026 8B42     		cmp	r3, r1
 225 0028 01D8     		bhi	.L20
 177:Generated_Source\PSoC4/BLE_bts.c ****                                 (uint16) cyBle_btsBuffPtr[CYBLE_BTS_COMMAND_DATA_LEN_OFFSET]) +
 226              		.loc 1 177 0
 227 002a 1380     		strh	r3, [r2]
 228 002c 00E0     		b	.L21
 229              	.L20:
 182:Generated_Source\PSoC4/BLE_bts.c ****             {
 183:Generated_Source\PSoC4/BLE_bts.c ****                 cyBle_cmdLength = CYBLE_BTS_COMMAND_MAX_LENGTH;
 230              		.loc 1 183 0
 231 002e 1180     		strh	r1, [r2]
 232              	.L21:
 184:Generated_Source\PSoC4/BLE_bts.c ****             }
 185:Generated_Source\PSoC4/BLE_bts.c **** 
 186:Generated_Source\PSoC4/BLE_bts.c ****             /* Set flag for bootloader to know that command is received from host */
 187:Generated_Source\PSoC4/BLE_bts.c ****             cyBle_cmdReceivedFlag = 1u;
 233              		.loc 1 187 0
 234 0030 0123     		mov	r3, #1
 235 0032 9370     		strb	r3, [r2, #2]
 236              	.L19:
 188:Generated_Source\PSoC4/BLE_bts.c ****         }
 189:Generated_Source\PSoC4/BLE_bts.c **** 
 190:Generated_Source\PSoC4/BLE_bts.c ****         /* Indicate that request was handled */
 191:Generated_Source\PSoC4/BLE_bts.c ****         cyBle_eventHandlerFlag &= (uint8)~CYBLE_CALLBACK;
 237              		.loc 1 191 0
 238 0034 0121     		mov	r1, #1
 239 0036 044A     		ldr	r2, .L22+8
 240 0038 1378     		ldrb	r3, [r2]
 241 003a 8B43     		bic	r3, r1
 242 003c 1370     		strb	r3, [r2]
 243              	.L17:
 192:Generated_Source\PSoC4/BLE_bts.c ****     }
 193:Generated_Source\PSoC4/BLE_bts.c **** }
 244              		.loc 1 193 0
 245              		@ sp needed
 246 003e 7047     		bx	lr
 247              	.L23:
ARM GAS  C:\Users\Administrator\AppData\Local\Temp\ccWboaAz.s 			page 9


 248              		.align	2
 249              	.L22:
 250 0040 00000000 		.word	cyBle_btsBuffPtr
 251 0044 00000000 		.word	.LANCHOR0
 252 0048 00000000 		.word	cyBle_eventHandlerFlag
 253              		.cfi_endproc
 254              	.LFE4:
 255              		.size	CyBle_BtssExecuteWriteRequestEventHandler, .-CyBle_BtssExecuteWriteRequestEventHandler
 256              		.section	.text.CyBLE_CyBtldrCommStart,"ax",%progbits
 257              		.align	1
 258              		.global	CyBLE_CyBtldrCommStart
 259              		.code	16
 260              		.thumb_func
 261              		.type	CyBLE_CyBtldrCommStart, %function
 262              	CyBLE_CyBtldrCommStart:
 263              	.LFB5:
 194:Generated_Source\PSoC4/BLE_bts.c **** 
 195:Generated_Source\PSoC4/BLE_bts.c **** 
 196:Generated_Source\PSoC4/BLE_bts.c **** /******************************************************************************
 197:Generated_Source\PSoC4/BLE_bts.c **** * Function Name: CyBtldrCommStart
 198:Generated_Source\PSoC4/BLE_bts.c **** ***************************************************************************//**
 199:Generated_Source\PSoC4/BLE_bts.c **** * 
 200:Generated_Source\PSoC4/BLE_bts.c **** *  This function does nothing but it is required for code consistency.
 201:Generated_Source\PSoC4/BLE_bts.c **** * 
 202:Generated_Source\PSoC4/BLE_bts.c **** *  None.
 203:Generated_Source\PSoC4/BLE_bts.c **** * 
 204:Generated_Source\PSoC4/BLE_bts.c **** * \return
 205:Generated_Source\PSoC4/BLE_bts.c **** *  None.
 206:Generated_Source\PSoC4/BLE_bts.c **** * 
 207:Generated_Source\PSoC4/BLE_bts.c **** ******************************************************************************/
 208:Generated_Source\PSoC4/BLE_bts.c **** void CyBLE_CyBtldrCommStart(void)
 209:Generated_Source\PSoC4/BLE_bts.c **** {
 264              		.loc 1 209 0
 265              		.cfi_startproc
 210:Generated_Source\PSoC4/BLE_bts.c **** }
 266              		.loc 1 210 0
 267              		@ sp needed
 268 0000 7047     		bx	lr
 269              		.cfi_endproc
 270              	.LFE5:
 271              		.size	CyBLE_CyBtldrCommStart, .-CyBLE_CyBtldrCommStart
 272              		.section	.text.CyBLE_CyBtldrCommStop,"ax",%progbits
 273              		.align	1
 274              		.global	CyBLE_CyBtldrCommStop
 275              		.code	16
 276              		.thumb_func
 277              		.type	CyBLE_CyBtldrCommStop, %function
 278              	CyBLE_CyBtldrCommStop:
 279              	.LFB6:
 211:Generated_Source\PSoC4/BLE_bts.c **** 
 212:Generated_Source\PSoC4/BLE_bts.c **** 
 213:Generated_Source\PSoC4/BLE_bts.c **** /******************************************************************************
 214:Generated_Source\PSoC4/BLE_bts.c **** * Function Name: CyBtldrCommStop
 215:Generated_Source\PSoC4/BLE_bts.c **** ***************************************************************************//**
 216:Generated_Source\PSoC4/BLE_bts.c **** * 
 217:Generated_Source\PSoC4/BLE_bts.c **** *  This function disconnects from the peer device and stops BLE component.
 218:Generated_Source\PSoC4/BLE_bts.c **** * 
ARM GAS  C:\Users\Administrator\AppData\Local\Temp\ccWboaAz.s 			page 10


 219:Generated_Source\PSoC4/BLE_bts.c **** *  None.
 220:Generated_Source\PSoC4/BLE_bts.c **** * 
 221:Generated_Source\PSoC4/BLE_bts.c **** * \return
 222:Generated_Source\PSoC4/BLE_bts.c **** *  None.
 223:Generated_Source\PSoC4/BLE_bts.c **** * 
 224:Generated_Source\PSoC4/BLE_bts.c **** ******************************************************************************/
 225:Generated_Source\PSoC4/BLE_bts.c **** void CyBLE_CyBtldrCommStop(void)
 226:Generated_Source\PSoC4/BLE_bts.c **** {
 280              		.loc 1 226 0
 281              		.cfi_startproc
 282 0000 08B5     		push	{r3, lr}
 283              		.cfi_def_cfa_offset 8
 284              		.cfi_offset 3, -8
 285              		.cfi_offset 14, -4
 227:Generated_Source\PSoC4/BLE_bts.c ****     /* Initiate disconnection from the peer device*/
 228:Generated_Source\PSoC4/BLE_bts.c ****     if(CyBle_GapDisconnect(cyBle_connHandle.bdHandle) == CYBLE_ERROR_OK)
 286              		.loc 1 228 0
 287 0002 084B     		ldr	r3, .L32
 288 0004 1878     		ldrb	r0, [r3]
 289 0006 FFF7FEFF 		bl	CyBle_GapDisconnect
 290              	.LVL15:
 291 000a 0028     		cmp	r0, #0
 292 000c 02D0     		beq	.L26
 293              	.L28:
 229:Generated_Source\PSoC4/BLE_bts.c ****     {
 230:Generated_Source\PSoC4/BLE_bts.c ****         /* Wait for disconnection event */
 231:Generated_Source\PSoC4/BLE_bts.c ****         while(CyBle_GetState() == CYBLE_STATE_CONNECTED)
 232:Generated_Source\PSoC4/BLE_bts.c ****         {
 233:Generated_Source\PSoC4/BLE_bts.c ****             /* Process BLE events */
 234:Generated_Source\PSoC4/BLE_bts.c ****             CyBle_ProcessEvents();
 235:Generated_Source\PSoC4/BLE_bts.c ****         }
 236:Generated_Source\PSoC4/BLE_bts.c ****     }
 237:Generated_Source\PSoC4/BLE_bts.c ****     /* Stop BLE component */
 238:Generated_Source\PSoC4/BLE_bts.c ****     CyBle_Stop();
 294              		.loc 1 238 0
 295 000e FFF7FEFF 		bl	CyBle_Stop
 296              	.LVL16:
 239:Generated_Source\PSoC4/BLE_bts.c **** }
 297              		.loc 1 239 0
 298              		@ sp needed
 299 0012 08BD     		pop	{r3, pc}
 300              	.L26:
 231:Generated_Source\PSoC4/BLE_bts.c ****         {
 301              		.loc 1 231 0
 302 0014 044B     		ldr	r3, .L32+4
 303 0016 1B78     		ldrb	r3, [r3]
 304 0018 022B     		cmp	r3, #2
 305 001a F8D1     		bne	.L28
 234:Generated_Source\PSoC4/BLE_bts.c ****         }
 306              		.loc 1 234 0
 307 001c FFF7FEFF 		bl	CyBle_ProcessEvents
 308              	.LVL17:
 309 0020 F8E7     		b	.L26
 310              	.L33:
 311 0022 C046     		.align	2
 312              	.L32:
 313 0024 00000000 		.word	cyBle_connHandle
ARM GAS  C:\Users\Administrator\AppData\Local\Temp\ccWboaAz.s 			page 11


 314 0028 00000000 		.word	cyBle_state
 315              		.cfi_endproc
 316              	.LFE6:
 317              		.size	CyBLE_CyBtldrCommStop, .-CyBLE_CyBtldrCommStop
 318              		.section	.text.CyBLE_CyBtldrCommReset,"ax",%progbits
 319              		.align	1
 320              		.global	CyBLE_CyBtldrCommReset
 321              		.code	16
 322              		.thumb_func
 323              		.type	CyBLE_CyBtldrCommReset, %function
 324              	CyBLE_CyBtldrCommReset:
 325              	.LFB7:
 240:Generated_Source\PSoC4/BLE_bts.c **** 
 241:Generated_Source\PSoC4/BLE_bts.c **** 
 242:Generated_Source\PSoC4/BLE_bts.c **** /******************************************************************************
 243:Generated_Source\PSoC4/BLE_bts.c **** * Function Name: CyBtldrCommReset
 244:Generated_Source\PSoC4/BLE_bts.c **** ***************************************************************************//**
 245:Generated_Source\PSoC4/BLE_bts.c **** * 
 246:Generated_Source\PSoC4/BLE_bts.c **** *  This function does nothing but it is required for code consistency.
 247:Generated_Source\PSoC4/BLE_bts.c **** * 
 248:Generated_Source\PSoC4/BLE_bts.c **** *  None.
 249:Generated_Source\PSoC4/BLE_bts.c **** * 
 250:Generated_Source\PSoC4/BLE_bts.c **** * \return
 251:Generated_Source\PSoC4/BLE_bts.c **** *  None.
 252:Generated_Source\PSoC4/BLE_bts.c **** * 
 253:Generated_Source\PSoC4/BLE_bts.c **** ******************************************************************************/
 254:Generated_Source\PSoC4/BLE_bts.c **** void CyBLE_CyBtldrCommReset(void)
 255:Generated_Source\PSoC4/BLE_bts.c **** {
 326              		.loc 1 255 0
 327              		.cfi_startproc
 256:Generated_Source\PSoC4/BLE_bts.c **** }
 328              		.loc 1 256 0
 329              		@ sp needed
 330 0000 7047     		bx	lr
 331              		.cfi_endproc
 332              	.LFE7:
 333              		.size	CyBLE_CyBtldrCommReset, .-CyBLE_CyBtldrCommReset
 334              		.section	.text.CyBLE_CyBtldrCommWrite,"ax",%progbits
 335              		.align	1
 336              		.global	CyBLE_CyBtldrCommWrite
 337              		.code	16
 338              		.thumb_func
 339              		.type	CyBLE_CyBtldrCommWrite, %function
 340              	CyBLE_CyBtldrCommWrite:
 341              	.LFB8:
 257:Generated_Source\PSoC4/BLE_bts.c **** 
 258:Generated_Source\PSoC4/BLE_bts.c **** 
 259:Generated_Source\PSoC4/BLE_bts.c **** /******************************************************************************
 260:Generated_Source\PSoC4/BLE_bts.c **** * Function Name: CyBtldrCommWrite
 261:Generated_Source\PSoC4/BLE_bts.c **** ***************************************************************************//**
 262:Generated_Source\PSoC4/BLE_bts.c **** * 
 263:Generated_Source\PSoC4/BLE_bts.c **** *  Requests that the provided size (number of bytes) should be written from the
 264:Generated_Source\PSoC4/BLE_bts.c **** *  input data buffer to the host device. This function in turn invokes the
 265:Generated_Source\PSoC4/BLE_bts.c **** *  CyBle_GattsNotification() API to sent the data. If a notification is
 266:Generated_Source\PSoC4/BLE_bts.c **** *  accepted, the function returns CYRET_SUCCESS. The timeOut parameter is ignored
 267:Generated_Source\PSoC4/BLE_bts.c **** *  in this case.
 268:Generated_Source\PSoC4/BLE_bts.c **** * 
ARM GAS  C:\Users\Administrator\AppData\Local\Temp\ccWboaAz.s 			page 12


 269:Generated_Source\PSoC4/BLE_bts.c **** *  \param data: The pointer to the buffer containing data to be written.
 270:Generated_Source\PSoC4/BLE_bts.c **** *  \param size: The number of bytes from the data buffer to write.
 271:Generated_Source\PSoC4/BLE_bts.c **** *  \param count: The pointer to where the BLE component will write the number 
 272:Generated_Source\PSoC4/BLE_bts.c **** *         of written bytes, generally the same as the size.
 273:Generated_Source\PSoC4/BLE_bts.c **** *  \param timeOut: Ignored. Used for consistency.
 274:Generated_Source\PSoC4/BLE_bts.c **** * 
 275:Generated_Source\PSoC4/BLE_bts.c **** * \return
 276:Generated_Source\PSoC4/BLE_bts.c **** *  The return value is of type cystatus:
 277:Generated_Source\PSoC4/BLE_bts.c **** *     * CYRET_SUCCESS - Indicates if a notification is successful.
 278:Generated_Source\PSoC4/BLE_bts.c **** *     * CYRET_LOCKED - Notifications are disabled.
 279:Generated_Source\PSoC4/BLE_bts.c **** *     * CYRET_UNKNOWN - Failed to send notification to the host.
 280:Generated_Source\PSoC4/BLE_bts.c **** * 
 281:Generated_Source\PSoC4/BLE_bts.c **** ******************************************************************************/
 282:Generated_Source\PSoC4/BLE_bts.c **** cystatus CyBLE_CyBtldrCommWrite(const uint8 data[], uint16 size, uint16 *count, uint8 timeOut)
 283:Generated_Source\PSoC4/BLE_bts.c **** {
 342              		.loc 1 283 0
 343              		.cfi_startproc
 344              	.LVL18:
 284:Generated_Source\PSoC4/BLE_bts.c ****     cystatus locStatus = CYRET_LOCKED;
 285:Generated_Source\PSoC4/BLE_bts.c ****     uint8 *btCmdCharacteristicPtr;
 286:Generated_Source\PSoC4/BLE_bts.c ****     CYBLE_GATTS_HANDLE_VALUE_NTF_T ntfParam;
 287:Generated_Source\PSoC4/BLE_bts.c **** 
 288:Generated_Source\PSoC4/BLE_bts.c ****     if(CYBLE_IS_NOTIFICATION_ENABLED(cyBle_btss.btServiceInfo[0u].btServiceCharDescriptors[0u]))
 345              		.loc 1 288 0
 346 0000 D023     		mov	r3, #208
 347              	.LVL19:
 283:Generated_Source\PSoC4/BLE_bts.c ****     cystatus locStatus = CYRET_LOCKED;
 348              		.loc 1 283 0
 349 0002 F0B5     		push	{r4, r5, r6, r7, lr}
 350              		.cfi_def_cfa_offset 20
 351              		.cfi_offset 4, -20
 352              		.cfi_offset 5, -16
 353              		.cfi_offset 6, -12
 354              		.cfi_offset 7, -8
 355              		.cfi_offset 14, -4
 356              		.loc 1 288 0
 357 0004 164E     		ldr	r6, .L40
 358 0006 5B00     		lsl	r3, r3, #1
 359 0008 F358     		ldr	r3, [r6, r3]
 283:Generated_Source\PSoC4/BLE_bts.c ****     cystatus locStatus = CYRET_LOCKED;
 360              		.loc 1 283 0
 361 000a 85B0     		sub	sp, sp, #20
 362              		.cfi_def_cfa_offset 40
 283:Generated_Source\PSoC4/BLE_bts.c ****     cystatus locStatus = CYRET_LOCKED;
 363              		.loc 1 283 0
 364 000c 071C     		mov	r7, r0
 365              		.loc 1 288 0
 366 000e 5868     		ldr	r0, [r3, #4]
 367              	.LVL20:
 283:Generated_Source\PSoC4/BLE_bts.c ****     cystatus locStatus = CYRET_LOCKED;
 368              		.loc 1 283 0
 369 0010 0C1C     		mov	r4, r1
 370 0012 151C     		mov	r5, r2
 371              		.loc 1 288 0
 372 0014 FFF7FEFF 		bl	CyBle_Get16ByPtr
 373              	.LVL21:
 374 0018 031C     		mov	r3, r0
ARM GAS  C:\Users\Administrator\AppData\Local\Temp\ccWboaAz.s 			page 13


 284:Generated_Source\PSoC4/BLE_bts.c ****     cystatus locStatus = CYRET_LOCKED;
 375              		.loc 1 284 0
 376 001a 0420     		mov	r0, #4
 377              		.loc 1 288 0
 378 001c DB07     		lsl	r3, r3, #31
 379 001e 1CD5     		bpl	.L36
 289:Generated_Source\PSoC4/BLE_bts.c ****     {
 290:Generated_Source\PSoC4/BLE_bts.c ****         /* Get pointer to Bootloader Characteristic value to store response there */
 291:Generated_Source\PSoC4/BLE_bts.c ****         btCmdCharacteristicPtr =
 380              		.loc 1 291 0
 381 0020 C623     		mov	r3, #198
 382 0022 5B00     		lsl	r3, r3, #1
 383 0024 F358     		ldr	r3, [r6, r3]
 292:Generated_Source\PSoC4/BLE_bts.c ****             CYBLE_GATT_DB_ATTR_GET_ATTR_GEN_PTR(cyBle_btss.btServiceInfo[0u].btServiceCharHandle);
 293:Generated_Source\PSoC4/BLE_bts.c ****         
 294:Generated_Source\PSoC4/BLE_bts.c ****         /* Prepare and send notification with the bootloader packet emulator
 295:Generated_Source\PSoC4/BLE_bts.c ****         * response if notifications are enabled.
 296:Generated_Source\PSoC4/BLE_bts.c ****         */
 297:Generated_Source\PSoC4/BLE_bts.c ****         (void)memcpy((void *)btCmdCharacteristicPtr, (const void *)data, size);
 384              		.loc 1 297 0
 385 0026 391C     		mov	r1, r7
 291:Generated_Source\PSoC4/BLE_bts.c ****             CYBLE_GATT_DB_ATTR_GET_ATTR_GEN_PTR(cyBle_btss.btServiceInfo[0u].btServiceCharHandle);
 386              		.loc 1 291 0
 387 0028 5E68     		ldr	r6, [r3, #4]
 388              	.LVL22:
 389              		.loc 1 297 0
 390 002a 221C     		mov	r2, r4
 391 002c 301C     		mov	r0, r6
 392 002e FFF7FEFF 		bl	memcpy
 393              	.LVL23:
 298:Generated_Source\PSoC4/BLE_bts.c **** 
 299:Generated_Source\PSoC4/BLE_bts.c ****         /* Fill notification parameters structure to be send with  
 300:Generated_Source\PSoC4/BLE_bts.c ****         * CyBle_GattsNotification().
 301:Generated_Source\PSoC4/BLE_bts.c ****         */
 302:Generated_Source\PSoC4/BLE_bts.c ****         ntfParam.value.len = size;
 303:Generated_Source\PSoC4/BLE_bts.c ****         ntfParam.value.val = btCmdCharacteristicPtr;
 304:Generated_Source\PSoC4/BLE_bts.c ****         ntfParam.attrHandle = cyBle_btss.btServiceInfo[0u].btServiceCharHandle;
 394              		.loc 1 304 0
 395 0032 1423     		mov	r3, #20
 305:Generated_Source\PSoC4/BLE_bts.c ****         
 306:Generated_Source\PSoC4/BLE_bts.c ****         if(CyBle_GattsNotification(cyBle_connHandle, &ntfParam) == CYBLE_ERROR_OK)
 396              		.loc 1 306 0
 397 0034 0B4A     		ldr	r2, .L40+4
 302:Generated_Source\PSoC4/BLE_bts.c ****         ntfParam.value.val = btCmdCharacteristicPtr;
 398              		.loc 1 302 0
 399 0036 01A9     		add	r1, sp, #4
 400              		.loc 1 306 0
 401 0038 5078     		ldrb	r0, [r2, #1]
 304:Generated_Source\PSoC4/BLE_bts.c ****         
 402              		.loc 1 304 0
 403 003a 0B81     		strh	r3, [r1, #8]
 404              		.loc 1 306 0
 405 003c 1378     		ldrb	r3, [r2]
 406 003e 0002     		lsl	r0, r0, #8
 407 0040 1843     		orr	r0, r3
 302:Generated_Source\PSoC4/BLE_bts.c ****         ntfParam.value.val = btCmdCharacteristicPtr;
 408              		.loc 1 302 0
ARM GAS  C:\Users\Administrator\AppData\Local\Temp\ccWboaAz.s 			page 14


 409 0042 8C80     		strh	r4, [r1, #4]
 303:Generated_Source\PSoC4/BLE_bts.c ****         ntfParam.attrHandle = cyBle_btss.btServiceInfo[0u].btServiceCharHandle;
 410              		.loc 1 303 0
 411 0044 0196     		str	r6, [sp, #4]
 412              		.loc 1 306 0
 413 0046 FFF7FEFF 		bl	CyBle_GattsNotification
 414              	.LVL24:
 415 004a 0028     		cmp	r0, #0
 416 004c 01D1     		bne	.L37
 307:Generated_Source\PSoC4/BLE_bts.c ****         {
 308:Generated_Source\PSoC4/BLE_bts.c ****             *count = size;
 417              		.loc 1 308 0
 418 004e 2C80     		strh	r4, [r5]
 419              	.LVL25:
 420 0050 03E0     		b	.L36
 421              	.LVL26:
 422              	.L37:
 309:Generated_Source\PSoC4/BLE_bts.c ****             locStatus = CYRET_SUCCESS;
 310:Generated_Source\PSoC4/BLE_bts.c ****         }
 311:Generated_Source\PSoC4/BLE_bts.c ****         else
 312:Generated_Source\PSoC4/BLE_bts.c ****         {
 313:Generated_Source\PSoC4/BLE_bts.c ****             *count = 0u;
 423              		.loc 1 313 0
 424 0052 0023     		mov	r3, #0
 314:Generated_Source\PSoC4/BLE_bts.c ****             locStatus = CYRET_UNKNOWN;
 425              		.loc 1 314 0
 426 0054 0120     		mov	r0, #1
 313:Generated_Source\PSoC4/BLE_bts.c ****             locStatus = CYRET_UNKNOWN;
 427              		.loc 1 313 0
 428 0056 2B80     		strh	r3, [r5]
 429              	.LVL27:
 430              		.loc 1 314 0
 431 0058 4042     		neg	r0, r0
 432              	.LVL28:
 433              	.L36:
 315:Generated_Source\PSoC4/BLE_bts.c ****         }
 316:Generated_Source\PSoC4/BLE_bts.c ****     }
 317:Generated_Source\PSoC4/BLE_bts.c **** 
 318:Generated_Source\PSoC4/BLE_bts.c ****     /* Unreferenced variable warning workaround */
 319:Generated_Source\PSoC4/BLE_bts.c ****     if(timeOut != 0u)
 320:Generated_Source\PSoC4/BLE_bts.c ****     {
 321:Generated_Source\PSoC4/BLE_bts.c ****     }
 322:Generated_Source\PSoC4/BLE_bts.c ****     
 323:Generated_Source\PSoC4/BLE_bts.c ****     return(locStatus);
 324:Generated_Source\PSoC4/BLE_bts.c **** }
 434              		.loc 1 324 0
 435 005a 05B0     		add	sp, sp, #20
 436              		@ sp needed
 437              	.LVL29:
 438              	.LVL30:
 439 005c F0BD     		pop	{r4, r5, r6, r7, pc}
 440              	.L41:
 441 005e C046     		.align	2
 442              	.L40:
 443 0060 00000000 		.word	cyBle_gattDB
 444 0064 00000000 		.word	cyBle_connHandle
 445              		.cfi_endproc
ARM GAS  C:\Users\Administrator\AppData\Local\Temp\ccWboaAz.s 			page 15


 446              	.LFE8:
 447              		.size	CyBLE_CyBtldrCommWrite, .-CyBLE_CyBtldrCommWrite
 448              		.section	.text.CyBLE_CyBtldrCommRead,"ax",%progbits
 449              		.align	1
 450              		.global	CyBLE_CyBtldrCommRead
 451              		.code	16
 452              		.thumb_func
 453              		.type	CyBLE_CyBtldrCommRead, %function
 454              	CyBLE_CyBtldrCommRead:
 455              	.LFB9:
 325:Generated_Source\PSoC4/BLE_bts.c **** 
 326:Generated_Source\PSoC4/BLE_bts.c **** 
 327:Generated_Source\PSoC4/BLE_bts.c **** /******************************************************************************
 328:Generated_Source\PSoC4/BLE_bts.c **** * Function Name: CyBtldrCommRead
 329:Generated_Source\PSoC4/BLE_bts.c **** ***************************************************************************//**
 330:Generated_Source\PSoC4/BLE_bts.c **** * 
 331:Generated_Source\PSoC4/BLE_bts.c **** *  Requests that the provided size (number of bytes) is read from the host device
 332:Generated_Source\PSoC4/BLE_bts.c **** *  and stored in the provided data buffer. Once the read is done, the "count" is
 333:Generated_Source\PSoC4/BLE_bts.c **** *  endorsed with the number of bytes written. The timeOut parameter is used to
 334:Generated_Source\PSoC4/BLE_bts.c **** *  provide an upper bound on the time that the function is allowed to operate. If
 335:Generated_Source\PSoC4/BLE_bts.c **** *  the read completes early, it should return success code as soon as possible.
 336:Generated_Source\PSoC4/BLE_bts.c **** *  If the read was not successful before the allocated time has expired, it
 337:Generated_Source\PSoC4/BLE_bts.c **** *  should return an error.
 338:Generated_Source\PSoC4/BLE_bts.c **** * 
 339:Generated_Source\PSoC4/BLE_bts.c **** *  \param uint8 *data: The pointer to the buffer to store data from the host controller.
 340:Generated_Source\PSoC4/BLE_bts.c **** *  \param uint16 size: The number of bytes to read into the data buffer.
 341:Generated_Source\PSoC4/BLE_bts.c **** *  \param uint16 *count: The pointer to where the BLE component will write the count of the
 342:Generated_Source\PSoC4/BLE_bts.c **** *                 number of read bytes.
 343:Generated_Source\PSoC4/BLE_bts.c **** *  \param uint8 timeOut: The amount of time (in units of 10 milliseconds) for which the
 344:Generated_Source\PSoC4/BLE_bts.c **** *                 BLE component should wait before indicating communications
 345:Generated_Source\PSoC4/BLE_bts.c **** *                 timed out.
 346:Generated_Source\PSoC4/BLE_bts.c **** * 
 347:Generated_Source\PSoC4/BLE_bts.c **** * \return
 348:Generated_Source\PSoC4/BLE_bts.c **** *  The return value is of type cystatus:
 349:Generated_Source\PSoC4/BLE_bts.c **** *     * CYRET_SUCCESS - A command was successfully read.
 350:Generated_Source\PSoC4/BLE_bts.c **** *     * CYRET_BAD_DATA - The size of the command exceeds the buffer.
 351:Generated_Source\PSoC4/BLE_bts.c **** *     * CYRET_TIMEOUT - The host controller did not respond to the read in 10 
 352:Generated_Source\PSoC4/BLE_bts.c **** *                       milliseconds * timeOut milliseconds.
 353:Generated_Source\PSoC4/BLE_bts.c **** * 
 354:Generated_Source\PSoC4/BLE_bts.c **** * \sideeffect
 355:Generated_Source\PSoC4/BLE_bts.c **** *  CyBle_ProcessEvents() is called as a part of this function.
 356:Generated_Source\PSoC4/BLE_bts.c **** * 
 357:Generated_Source\PSoC4/BLE_bts.c **** ******************************************************************************/
 358:Generated_Source\PSoC4/BLE_bts.c **** cystatus CyBLE_CyBtldrCommRead(uint8 data[], uint16 size, uint16 *count, uint8 timeOut)
 359:Generated_Source\PSoC4/BLE_bts.c **** {
 456              		.loc 1 359 0
 457              		.cfi_startproc
 458              	.LVL31:
 459 0000 F7B5     		push	{r0, r1, r2, r4, r5, r6, r7, lr}
 460              		.cfi_def_cfa_offset 32
 461              		.cfi_offset 0, -32
 462              		.cfi_offset 1, -28
 463              		.cfi_offset 2, -24
 464              		.cfi_offset 4, -20
 465              		.cfi_offset 5, -16
 466              		.cfi_offset 6, -12
 467              		.cfi_offset 7, -8
ARM GAS  C:\Users\Administrator\AppData\Local\Temp\ccWboaAz.s 			page 16


 468              		.cfi_offset 14, -4
 360:Generated_Source\PSoC4/BLE_bts.c ****     uint32 timeoutUs;
 361:Generated_Source\PSoC4/BLE_bts.c ****     cystatus locStatus = CYRET_TIMEOUT;
 362:Generated_Source\PSoC4/BLE_bts.c **** 
 363:Generated_Source\PSoC4/BLE_bts.c ****     /* Convert from 10ms units to 100us units */
 364:Generated_Source\PSoC4/BLE_bts.c ****     timeoutUs = ((uint32) 100u * timeOut);
 469              		.loc 1 364 0
 470 0002 6424     		mov	r4, #100
 359:Generated_Source\PSoC4/BLE_bts.c ****     uint32 timeoutUs;
 471              		.loc 1 359 0
 472 0004 071C     		mov	r7, r0
 473 0006 161C     		mov	r6, r2
 474              		.loc 1 364 0
 475 0008 5C43     		mul	r4, r3
 476              	.LVL32:
 359:Generated_Source\PSoC4/BLE_bts.c ****     uint32 timeoutUs;
 477              		.loc 1 359 0
 478 000a 0191     		str	r1, [sp, #4]
 479              	.LVL33:
 480              	.L43:
 365:Generated_Source\PSoC4/BLE_bts.c ****     
 366:Generated_Source\PSoC4/BLE_bts.c ****     while(0u != timeoutUs)
 481              		.loc 1 366 0
 482 000c 002C     		cmp	r4, #0
 483 000e 1BD0     		beq	.L48
 367:Generated_Source\PSoC4/BLE_bts.c ****     {
 368:Generated_Source\PSoC4/BLE_bts.c ****         /* Process BLE events */
 369:Generated_Source\PSoC4/BLE_bts.c ****         CyBle_ProcessEvents();
 484              		.loc 1 369 0
 485 0010 FFF7FEFF 		bl	CyBle_ProcessEvents
 486              	.LVL34:
 370:Generated_Source\PSoC4/BLE_bts.c ****         
 371:Generated_Source\PSoC4/BLE_bts.c ****         if(cyBle_cmdReceivedFlag == 1u)
 487              		.loc 1 371 0
 488 0014 0F4D     		ldr	r5, .L49
 489 0016 AB78     		ldrb	r3, [r5, #2]
 490 0018 012B     		cmp	r3, #1
 491 001a 10D1     		bne	.L44
 372:Generated_Source\PSoC4/BLE_bts.c ****         {
 373:Generated_Source\PSoC4/BLE_bts.c ****             /* Clear command receive flag */
 374:Generated_Source\PSoC4/BLE_bts.c ****             cyBle_cmdReceivedFlag = 0u;
 492              		.loc 1 374 0
 493 001c 0024     		mov	r4, #0
 494              	.LVL35:
 375:Generated_Source\PSoC4/BLE_bts.c **** 
 376:Generated_Source\PSoC4/BLE_bts.c ****             if(cyBle_cmdLength < size)
 495              		.loc 1 376 0
 496 001e 2A88     		ldrh	r2, [r5]
 497 0020 019B     		ldr	r3, [sp, #4]
 374:Generated_Source\PSoC4/BLE_bts.c **** 
 498              		.loc 1 374 0
 499 0022 AC70     		strb	r4, [r5, #2]
 500              		.loc 1 376 0
 501 0024 9A42     		cmp	r2, r3
 502 0026 07D2     		bcs	.L45
 377:Generated_Source\PSoC4/BLE_bts.c ****             {
 378:Generated_Source\PSoC4/BLE_bts.c ****                 (void)memcpy((void *) data, (const void *) cyBle_btsBuffPtr, cyBle_cmdLength);
ARM GAS  C:\Users\Administrator\AppData\Local\Temp\ccWboaAz.s 			page 17


 503              		.loc 1 378 0
 504 0028 0B4B     		ldr	r3, .L49+4
 505 002a 381C     		mov	r0, r7
 506 002c 1968     		ldr	r1, [r3]
 507 002e FFF7FEFF 		bl	memcpy
 508              	.LVL36:
 379:Generated_Source\PSoC4/BLE_bts.c **** 
 380:Generated_Source\PSoC4/BLE_bts.c ****                 /* Return actual received command length */
 381:Generated_Source\PSoC4/BLE_bts.c ****                 *count = cyBle_cmdLength;
 509              		.loc 1 381 0
 510 0032 2B88     		ldrh	r3, [r5]
 511 0034 3380     		strh	r3, [r6]
 512              	.LVL37:
 513 0036 08E0     		b	.L46
 514              	.LVL38:
 515              	.L45:
 382:Generated_Source\PSoC4/BLE_bts.c ****                 
 383:Generated_Source\PSoC4/BLE_bts.c ****                 locStatus = CYRET_SUCCESS;
 384:Generated_Source\PSoC4/BLE_bts.c ****             }
 385:Generated_Source\PSoC4/BLE_bts.c ****             else
 386:Generated_Source\PSoC4/BLE_bts.c ****             {
 387:Generated_Source\PSoC4/BLE_bts.c ****                 data = NULL;
 388:Generated_Source\PSoC4/BLE_bts.c ****                 *count = 0u;
 516              		.loc 1 388 0
 517 0038 3480     		strh	r4, [r6]
 518              	.LVL39:
 389:Generated_Source\PSoC4/BLE_bts.c ****                 locStatus = CYRET_BAD_DATA;
 519              		.loc 1 389 0
 520 003a 0624     		mov	r4, #6
 521 003c 05E0     		b	.L46
 522              	.LVL40:
 523              	.L44:
 390:Generated_Source\PSoC4/BLE_bts.c ****             }
 391:Generated_Source\PSoC4/BLE_bts.c ****             break;
 392:Generated_Source\PSoC4/BLE_bts.c ****         }
 393:Generated_Source\PSoC4/BLE_bts.c ****         /* Wait 100 us and update timeout counter */
 394:Generated_Source\PSoC4/BLE_bts.c ****         CyDelayUs(CYBLE_BTS_TIMEOUT_PERIOD);
 524              		.loc 1 394 0
 525 003e 6420     		mov	r0, #100
 526 0040 FFF7FEFF 		bl	CyDelayUs
 527              	.LVL41:
 395:Generated_Source\PSoC4/BLE_bts.c ****         timeoutUs -= CYBLE_BTS_TIMEOUT_PERIOD;
 528              		.loc 1 395 0
 529 0044 643C     		sub	r4, r4, #100
 530              	.LVL42:
 531 0046 E1E7     		b	.L43
 532              	.L48:
 361:Generated_Source\PSoC4/BLE_bts.c **** 
 533              		.loc 1 361 0
 534 0048 1034     		add	r4, r4, #16
 535              	.LVL43:
 536              	.L46:
 396:Generated_Source\PSoC4/BLE_bts.c ****     }
 397:Generated_Source\PSoC4/BLE_bts.c ****     
 398:Generated_Source\PSoC4/BLE_bts.c ****     /* Process BLE events */
 399:Generated_Source\PSoC4/BLE_bts.c ****     CyBle_ProcessEvents();
 537              		.loc 1 399 0
ARM GAS  C:\Users\Administrator\AppData\Local\Temp\ccWboaAz.s 			page 18


 538 004a FFF7FEFF 		bl	CyBle_ProcessEvents
 539              	.LVL44:
 400:Generated_Source\PSoC4/BLE_bts.c **** 
 401:Generated_Source\PSoC4/BLE_bts.c ****     return(locStatus);
 402:Generated_Source\PSoC4/BLE_bts.c **** }
 540              		.loc 1 402 0
 541              		@ sp needed
 542 004e 201C     		mov	r0, r4
 543              	.LVL45:
 544              	.LVL46:
 545 0050 FEBD     		pop	{r1, r2, r3, r4, r5, r6, r7, pc}
 546              	.L50:
 547 0052 C046     		.align	2
 548              	.L49:
 549 0054 00000000 		.word	.LANCHOR0
 550 0058 00000000 		.word	cyBle_btsBuffPtr
 551              		.cfi_endproc
 552              	.LFE9:
 553              		.size	CyBLE_CyBtldrCommRead, .-CyBLE_CyBtldrCommRead
 554              		.global	cyBle_btss
 555              		.comm	cyBle_btsBuffPtr,4,4
 556              		.global	cyBle_cmdLength
 557              		.global	cyBle_cmdReceivedFlag
 558              		.section	.rodata
 559              		.align	1
 560              		.type	cyBle_btss, %object
 561              		.size	cyBle_btss, 6
 562              	cyBle_btss:
 563 0000 1200     		.short	18
 564 0002 1400     		.short	20
 565 0004 1500     		.short	21
 566              		.bss
 567              		.align	1
 568              		.set	.LANCHOR0,. + 0
 569              		.type	cyBle_cmdLength, %object
 570              		.size	cyBle_cmdLength, 2
 571              	cyBle_cmdLength:
 572 0000 0000     		.space	2
 573              		.type	cyBle_cmdReceivedFlag, %object
 574              		.size	cyBle_cmdReceivedFlag, 1
 575              	cyBle_cmdReceivedFlag:
 576 0002 00       		.space	1
 577 0003 00       		.text
 578              	.Letext0:
 579              		.file 2 "Generated_Source\\PSoC4\\cytypes.h"
 580              		.file 3 "Generated_Source\\PSoC4\\BLE_Stack.h"
 581              		.file 4 "Generated_Source\\PSoC4\\BLE_StackGatt.h"
 582              		.file 5 "Generated_Source\\PSoC4\\BLE_StackGattServer.h"
 583              		.file 6 "Generated_Source\\PSoC4\\BLE_StackGattDb.h"
 584              		.file 7 "Generated_Source\\PSoC4\\BLE_bts.h"
 585              		.file 8 "Generated_Source\\PSoC4\\BLE_eventHandler.h"
 586              		.file 9 "Generated_Source\\PSoC4\\BLE.h"
 587              		.file 10 "Generated_Source\\PSoC4\\BLE_gatt.h"
 588              		.file 11 "Generated_Source\\PSoC4\\BLE_StackGap.h"
 589              		.file 12 "Generated_Source\\PSoC4\\CyLib.h"