ARM GAS  C:\Users\Administrator\AppData\Local\Temp\ccRPys7B.s 			page 1


   1              		.cpu cortex-m0
   2              		.fpu softvfp
   3              		.eabi_attribute 20, 1
   4              		.eabi_attribute 21, 1
   5              		.eabi_attribute 23, 3
   6              		.eabi_attribute 24, 1
   7              		.eabi_attribute 25, 1
   8              		.eabi_attribute 26, 1
   9              		.eabi_attribute 30, 4
  10              		.eabi_attribute 34, 0
  11              		.eabi_attribute 18, 4
  12              		.code	16
  13              		.file	"CustomInterface.c"
  14              		.text
  15              	.Ltext0:
  16              		.cfi_sections	.debug_frame
  17              		.section	.text.CyBtldrCommRead,"ax",%progbits
  18              		.align	1
  19              		.global	CyBtldrCommRead
  20              		.code	16
  21              		.thumb_func
  22              		.type	CyBtldrCommRead, %function
  23              	CyBtldrCommRead:
  24              	.LFB37:
  25              		.file 1 "CustomInterface.c"
   1:CustomInterface.c **** /*******************************************************************************
   2:CustomInterface.c **** * File Name: CustomInterface.c
   3:CustomInterface.c **** *
   4:CustomInterface.c **** * Version: 1.40
   5:CustomInterface.c **** *
   6:CustomInterface.c **** * Description:
   7:CustomInterface.c **** *  Provides an API that emulates Bootloader Host Tool application. The emulation
   8:CustomInterface.c **** *  implemented within custom bootloader interface API.
   9:CustomInterface.c **** *
  10:CustomInterface.c **** * Hardware Dependency:
  11:CustomInterface.c **** *  CY8CKIT-042 BLE
  12:CustomInterface.c **** *
  13:CustomInterface.c **** ********************************************************************************
  14:CustomInterface.c **** * Copyright 2015, Cypress Semiconductor Corporation. All rights reserved.
  15:CustomInterface.c **** * This software is owned by Cypress Semiconductor Corporation and is protected
  16:CustomInterface.c **** * by and subject to worldwide patent and copyright laws and treaties.
  17:CustomInterface.c **** * Therefore, you may use this software only as provided in the license agreement
  18:CustomInterface.c **** * accompanying the software package from which you obtained this software.
  19:CustomInterface.c **** * CYPRESS AND ITS SUPPLIERS MAKE NO WARRANTY OF ANY KIND, EXPRESS OR IMPLIED,
  20:CustomInterface.c **** * WITH REGARD TO THIS SOFTWARE, INCLUDING, BUT NOT LIMITED TO, NONINFRINGEMENT,
  21:CustomInterface.c **** * IMPLIED WARRANTIES OF MERCHANTABILITY AND FITNESS FOR A PARTICULAR PURPOSE.
  22:CustomInterface.c **** *******************************************************************************/
  23:CustomInterface.c **** 
  24:CustomInterface.c **** #include "CustomInterface.h"
  25:CustomInterface.c **** #include "w25qxx.h"
  26:CustomInterface.c **** 
  27:CustomInterface.c **** 
  28:CustomInterface.c **** extern uint8  metadata[CY_FLASH_SIZEOF_ROW];
  29:CustomInterface.c **** extern uint16 appFirstRowNum;
  30:CustomInterface.c **** 
  31:CustomInterface.c **** uint32 communicationState = CI_COMMUNICATION_STATE_IDLE;
  32:CustomInterface.c **** uint32 numOfRxedRows;
ARM GAS  C:\Users\Administrator\AppData\Local\Temp\ccRPys7B.s 			page 2


  33:CustomInterface.c **** uint16 numOfRows;
  34:CustomInterface.c **** uint16 rowIdx;
  35:CustomInterface.c **** 
  36:CustomInterface.c **** uint16 flashRowTotal;
  37:CustomInterface.c **** 
  38:CustomInterface.c **** 
  39:CustomInterface.c **** static uint16 CI_CalcExtMemAppChecksum(void);
  40:CustomInterface.c **** static cystatus CI_WritePacket(uint8 status, uint8 buffer[], uint16 size);
  41:CustomInterface.c **** 
  42:CustomInterface.c **** 
  43:CustomInterface.c **** /*******************************************************************************
  44:CustomInterface.c **** * Function Name: CyBtldrCommRead
  45:CustomInterface.c **** ********************************************************************************
  46:CustomInterface.c **** *
  47:CustomInterface.c **** * Summary:
  48:CustomInterface.c **** *
  49:CustomInterface.c **** *
  50:CustomInterface.c **** * Parameters:
  51:CustomInterface.c **** *  None
  52:CustomInterface.c **** *
  53:CustomInterface.c **** * Returns:
  54:CustomInterface.c **** *  None
  55:CustomInterface.c **** *
  56:CustomInterface.c **** *******************************************************************************/
  57:CustomInterface.c **** cystatus CyBtldrCommRead(uint8* buffer, uint16 size, uint16* count, uint8 timeOut)
  58:CustomInterface.c **** {
  26              		.loc 1 58 0
  27              		.cfi_startproc
  28              	.LVL0:
  29 0000 F0B5     		push	{r4, r5, r6, r7, lr}
  30              		.cfi_def_cfa_offset 20
  31              		.cfi_offset 4, -20
  32              		.cfi_offset 5, -16
  33              		.cfi_offset 6, -12
  34              		.cfi_offset 7, -8
  35              		.cfi_offset 14, -4
  59:CustomInterface.c ****     cystatus rspCode  = CYRET_UNKNOWN;
  60:CustomInterface.c ****     uint32 rspSize = 0u;
  61:CustomInterface.c ****     uint16 appExtMemChecksum;
  62:CustomInterface.c ****     
  63:CustomInterface.c ****     
  64:CustomInterface.c ****     buffer = buffer;
  65:CustomInterface.c ****     size = size;
  66:CustomInterface.c ****     timeOut = timeOut;
  67:CustomInterface.c **** 
  68:CustomInterface.c ****     if(CI_COMMUNICATION_STATE_IDLE == communicationState)
  36              		.loc 1 68 0
  37 0002 CB4B     		ldr	r3, .L26
  58:CustomInterface.c ****     cystatus rspCode  = CYRET_UNKNOWN;
  38              		.loc 1 58 0
  39 0004 C7B0     		sub	sp, sp, #284
  40              		.cfi_def_cfa_offset 304
  58:CustomInterface.c ****     cystatus rspCode  = CYRET_UNKNOWN;
  41              		.loc 1 58 0
  42 0006 0292     		str	r2, [sp, #8]
  43              		.loc 1 68 0
  44 0008 1A68     		ldr	r2, [r3]
ARM GAS  C:\Users\Administrator\AppData\Local\Temp\ccRPys7B.s 			page 3


  45              	.LVL1:
  58:CustomInterface.c ****     cystatus rspCode  = CYRET_UNKNOWN;
  46              		.loc 1 58 0
  47 000a 0190     		str	r0, [sp, #4]
  48              		.loc 1 68 0
  49 000c 0392     		str	r2, [sp, #12]
  50 000e 002A     		cmp	r2, #0
  51 0010 00D0     		beq	.LCB29
  52 0012 23E1     		b	.L2	@long jump
  53              	.LCB29:
  69:CustomInterface.c ****     {
  70:CustomInterface.c ****         /* Generate Enter Bootloader packet */
  71:CustomInterface.c ****         communicationState = CI_COMMUNICATION_STATE_ACTIVE;
  72:CustomInterface.c **** 
  73:CustomInterface.c ****         /* Read metadata section from external memory */
  74:CustomInterface.c ****         //(void) EMI_ReadData(EMI_MD_BASE_ADDR, CY_FLASH_SIZEOF_ROW , metadata);
  75:CustomInterface.c **** 		W25QXX_Read(metadata,W25X_IMAGE_METDATA_ADDR,CY_FLASH_SIZEOF_ROW);							//ÂÖàËØªÂá∫Â§ñÈÉ®Â≠òÊîæÁ
  54              		.loc 1 75 0
  55 0014 C821     		mov	r1, #200
  56 0016 C74C     		ldr	r4, .L26+4
  71:CustomInterface.c **** 
  57              		.loc 1 71 0
  58 0018 0132     		add	r2, r2, #1
  59              		.loc 1 75 0
  60 001a 8902     		lsl	r1, r1, #10
  71:CustomInterface.c **** 
  61              		.loc 1 71 0
  62 001c 1A60     		str	r2, [r3]
  63              		.loc 1 75 0
  64 001e 201C     		mov	r0, r4
  65              	.LVL2:
  66 0020 FF32     		add	r2, r2, #255
  67 0022 FFF7FEFF 		bl	W25QXX_Read
  68              	.LVL3:
  76:CustomInterface.c **** 		
  77:CustomInterface.c **** 		//Ëé∑ÂèñÂÖÉÊï∞ÊçÆÂå∫ÁöÑÈïúÂÉè‰ø°ÊÅØ ÈïúÂÉèÁöÑÁöÑÁ¨¨‰∏Ä‰∏™ROWÁöÑÂú∞ÂùÄÔºàËøòÊòØnumÂÄºÔºâ = È™åËØÅ‰
  78:CustomInterface.c ****         appFirstRowNum = ((uint16)((uint16)metadata[EMI_MD_APP_FIRST_ROW_NUM_ADDR + 1u] << 8u)) |
  69              		.loc 1 78 0
  70 0026 637C     		ldrb	r3, [r4, #17]
  71 0028 227C     		ldrb	r2, [r4, #16]
  72 002a 1B02     		lsl	r3, r3, #8
  73 002c 1343     		orr	r3, r2
  74 002e C24A     		ldr	r2, .L26+8
  79:CustomInterface.c ****                                         metadata[EMI_MD_APP_FIRST_ROW_NUM_ADDR];
  80:CustomInterface.c **** 		//ÊÄªÈïø
  81:CustomInterface.c ****         flashRowTotal = ((uint16)((uint16)metadata[EMI_MD_APP_SIZE_IN_ROWS_ADDR + 1u] << 8u)) |
  75              		.loc 1 81 0
  76 0030 C24E     		ldr	r6, .L26+12
  78:CustomInterface.c ****                                         metadata[EMI_MD_APP_FIRST_ROW_NUM_ADDR];
  77              		.loc 1 78 0
  78 0032 1380     		strh	r3, [r2]
  79              		.loc 1 81 0
  80 0034 637B     		ldrb	r3, [r4, #13]
  81 0036 227B     		ldrb	r2, [r4, #12]
  82 0038 1B02     		lsl	r3, r3, #8
  83 003a 1343     		orr	r3, r2
  84 003c 3380     		strh	r3, [r6]
ARM GAS  C:\Users\Administrator\AppData\Local\Temp\ccRPys7B.s 			page 4


  82:CustomInterface.c ****                                         metadata[EMI_MD_APP_SIZE_IN_ROWS_ADDR];
  83:CustomInterface.c **** 
  84:CustomInterface.c **** 		//Ê†°È™åÂíå
  85:CustomInterface.c ****         appExtMemChecksum = ((uint16)((uint16)metadata[EMI_MD_APP_EM_CHECKSUM_ADDR + 1u] << 8u)) |
  85              		.loc 1 85 0
  86 003e 637A     		ldrb	r3, [r4, #9]
  86:CustomInterface.c ****                                         metadata[EMI_MD_APP_EM_CHECKSUM_ADDR];
  87:CustomInterface.c **** 
  88:CustomInterface.c ****         DBG_PRINT_TEXT("\r\n");
  87              		.loc 1 88 0
  88 0040 BF4F     		ldr	r7, .L26+16
  85:CustomInterface.c ****                                         metadata[EMI_MD_APP_EM_CHECKSUM_ADDR];
  89              		.loc 1 85 0
  90 0042 227A     		ldrb	r2, [r4, #8]
  91 0044 1B02     		lsl	r3, r3, #8
  92 0046 1A43     		orr	r2, r3
  93              		.loc 1 88 0
  94 0048 381C     		mov	r0, r7
  85:CustomInterface.c ****                                         metadata[EMI_MD_APP_EM_CHECKSUM_ADDR];
  95              		.loc 1 85 0
  96 004a 0492     		str	r2, [sp, #16]
  97              	.LVL4:
  98              		.loc 1 88 0
  99 004c FFF7FEFF 		bl	puts
 100              	.LVL5:
  89:CustomInterface.c ****         DBG_PRINT_TEXT("BootloaderEmulator:\r\n");
 101              		.loc 1 89 0
 102 0050 BC48     		ldr	r0, .L26+20
 103 0052 FFF7FEFF 		bl	puts
 104              	.LVL6:
  90:CustomInterface.c ****         DBG_PRINT_TEXT("\tCyBtldrCommRead():\r\n");
 105              		.loc 1 90 0
 106 0056 BC48     		ldr	r0, .L26+24
 107 0058 FFF7FEFF 		bl	puts
 108              	.LVL7:
  91:CustomInterface.c **** 
  92:CustomInterface.c ****         DBG_PRINT_TEXT("\t\t\t Metadata: Application Image Status: 0x");
 109              		.loc 1 92 0
 110 005c BB48     		ldr	r0, .L26+28
 111 005e FFF7FEFF 		bl	printf
 112              	.LVL8:
  93:CustomInterface.c ****         DBG_PRINT_HEX(metadata[EMI_MD_APP_STATUS_ADDR]);
 113              		.loc 1 93 0
 114 0062 BB4D     		ldr	r5, .L26+32
 115 0064 2178     		ldrb	r1, [r4]
 116 0066 281C     		mov	r0, r5
 117 0068 FFF7FEFF 		bl	printf
 118              	.LVL9:
  94:CustomInterface.c ****         DBG_PRINT_TEXT("\r\n");
 119              		.loc 1 94 0
 120 006c 381C     		mov	r0, r7
 121 006e FFF7FEFF 		bl	puts
 122              	.LVL10:
  95:CustomInterface.c **** 
  96:CustomInterface.c ****         DBG_PRINT_TEXT("\t\t\t Metadata: Image Size (in flash rows): 0x");
 123              		.loc 1 96 0
 124 0072 B848     		ldr	r0, .L26+36
ARM GAS  C:\Users\Administrator\AppData\Local\Temp\ccRPys7B.s 			page 5


 125 0074 FFF7FEFF 		bl	printf
 126              	.LVL11:
  97:CustomInterface.c ****         DBG_PRINT_HEX(flashRowTotal);
 127              		.loc 1 97 0
 128 0078 3188     		ldrh	r1, [r6]
 129 007a 281C     		mov	r0, r5
 130 007c FFF7FEFF 		bl	printf
 131              	.LVL12:
  98:CustomInterface.c ****         DBG_PRINT_TEXT("\r\n");
 132              		.loc 1 98 0
 133 0080 381C     		mov	r0, r7
 134 0082 FFF7FEFF 		bl	puts
 135              	.LVL13:
  99:CustomInterface.c **** 
 100:CustomInterface.c ****         DBG_PRINT_TEXT("\t\t\t Metadata: Start of image in flash (row #): 0x");
 136              		.loc 1 100 0
 137 0086 B448     		ldr	r0, .L26+40
 138 0088 FFF7FEFF 		bl	printf
 139              	.LVL14:
 101:CustomInterface.c ****         DBG_PRINT_HEX(appFirstRowNum);
 140              		.loc 1 101 0
 141 008c AA4B     		ldr	r3, .L26+8
 142 008e 281C     		mov	r0, r5
 143 0090 1988     		ldrh	r1, [r3]
 144 0092 FFF7FEFF 		bl	printf
 145              	.LVL15:
 102:CustomInterface.c ****         DBG_PRINT_TEXT("\r\n");
 146              		.loc 1 102 0
 147 0096 381C     		mov	r0, r7
 148 0098 FFF7FEFF 		bl	puts
 149              	.LVL16:
 103:CustomInterface.c **** 
 104:CustomInterface.c ****         DBG_PRINT_TEXT("\t\t\t Metadata: Application checksum: 0x");
 150              		.loc 1 104 0
 151 009c AF48     		ldr	r0, .L26+44
 152 009e FFF7FEFF 		bl	printf
 153              	.LVL17:
 105:CustomInterface.c ****         DBG_PRINT_HEX(appExtMemChecksum);
 154              		.loc 1 105 0
 155 00a2 0499     		ldr	r1, [sp, #16]
 156 00a4 281C     		mov	r0, r5
 157 00a6 FFF7FEFF 		bl	printf
 158              	.LVL18:
 106:CustomInterface.c ****         DBG_PRINT_TEXT("\r\n");
 159              		.loc 1 106 0
 160 00aa 381C     		mov	r0, r7
 161 00ac FFF7FEFF 		bl	puts
 162              	.LVL19:
 107:CustomInterface.c ****         
 108:CustomInterface.c ****         DBG_PRINT_TEXT("\t\t\t Metadata: Encryption Enabled: 0x");
 163              		.loc 1 108 0
 164 00b0 AB48     		ldr	r0, .L26+48
 165 00b2 FFF7FEFF 		bl	printf
 166              	.LVL20:
 109:CustomInterface.c ****         DBG_PRINT_HEX(metadata[EMI_MD_ENCRYPTION_STATUS_ADDR]);
 167              		.loc 1 109 0
 168 00b6 2179     		ldrb	r1, [r4, #4]
ARM GAS  C:\Users\Administrator\AppData\Local\Temp\ccRPys7B.s 			page 6


 169 00b8 281C     		mov	r0, r5
 170 00ba FFF7FEFF 		bl	printf
 171              	.LVL21:
 110:CustomInterface.c ****         DBG_PRINT_TEXT("\r\n");
 172              		.loc 1 110 0
 173 00be 381C     		mov	r0, r7
 174 00c0 FFF7FEFF 		bl	puts
 175              	.LVL22:
 111:CustomInterface.c ****         encryptionEnabled = metadata[EMI_MD_ENCRYPTION_STATUS_ADDR];
 176              		.loc 1 111 0
 177 00c4 2279     		ldrb	r2, [r4, #4]
 178 00c6 A74B     		ldr	r3, .L26+52
 179              	.LBB11:
 180              	.LBB12:
 112:CustomInterface.c **** 
 113:CustomInterface.c ****         /* Check application checksum in the external memory */
 114:CustomInterface.c ****         if (CI_CalcExtMemAppChecksum() != appExtMemChecksum)
 115:CustomInterface.c ****         {
 116:CustomInterface.c ****             /* Mark application as invalid when checksum verification failed */
 117:CustomInterface.c ****             metadata[EMI_MD_APP_STATUS_ADDR] = EMI_MD_APP_STATUS_INVALID;
 118:CustomInterface.c ****         }
 119:CustomInterface.c **** 
 120:CustomInterface.c **** 
 121:CustomInterface.c ****         if(metadata[EMI_MD_APP_STATUS_ADDR] == EMI_MD_APP_STATUS_VALID)
 122:CustomInterface.c ****         {
 123:CustomInterface.c ****             /* Start copying bootloadable application from external memory */
 124:CustomInterface.c **** 
 125:CustomInterface.c ****             /* Generate Enter Bootloader Command */
 126:CustomInterface.c ****             buffer[CI_CMD_ADDR] = CI_COMMAND_ENTER;
 127:CustomInterface.c ****             *count = CI_COMMAND_ENTER_PACKET_SIZE;
 128:CustomInterface.c ****             rspSize = CI_COMMAND_ENTER_PACKET_DATA_SIZE;
 129:CustomInterface.c ****             rspCode = CYRET_SUCCESS;
 130:CustomInterface.c **** 
 131:CustomInterface.c ****             /* Perform custom interface initial initializations */
 132:CustomInterface.c ****             rowIdx = 0u;
 133:CustomInterface.c **** 
 134:CustomInterface.c ****             DBG_PRINT_TEXT("\r\n");
 135:CustomInterface.c ****             DBG_PRINT_TEXT("BootloaderEmulator:\r\n");
 136:CustomInterface.c ****             DBG_PRINT_TEXT("\tCyBtldrCommRead():\r\n");
 137:CustomInterface.c ****             DBG_PRINT_TEXT("\t\tApplication Status in External Memory: VALID\r\n");
 138:CustomInterface.c ****             DBG_PRINT_TEXT("\t\t\tCopy bootloadable application from external memory.\r\n");
 139:CustomInterface.c ****         }
 140:CustomInterface.c ****         else if (metadata[EMI_MD_APP_STATUS_ADDR] == EMI_MD_APP_STATUS_LOADED)
 141:CustomInterface.c ****         {
 142:CustomInterface.c **** 
 143:CustomInterface.c ****             /*******************************************************************
 144:CustomInterface.c ****             * If the bootloadable application in the internal flash is valid,
 145:CustomInterface.c ****             * schedule the specified application and perform software reset to
 146:CustomInterface.c ****             * launch the bootloadable application.
 147:CustomInterface.c ****             *
 148:CustomInterface.c ****             * If the bootloadable application in the internal flash is not
 149:CustomInterface.c ****             * valid, try to update bootloadable application from the external
 150:CustomInterface.c ****             * flash memory.
 151:CustomInterface.c ****             *******************************************************************/
 152:CustomInterface.c ****             if(CYRET_SUCCESS == Bootloader_ValidateBootloadable(Bootloader_EXIT_TO_BTLDB))
 153:CustomInterface.c ****             {
 154:CustomInterface.c ****                 (void) Bootloader_Exit(Bootloader_EXIT_TO_BTLDB);
ARM GAS  C:\Users\Administrator\AppData\Local\Temp\ccRPys7B.s 			page 7


 155:CustomInterface.c ****             }
 156:CustomInterface.c ****             else
 157:CustomInterface.c ****             {
 158:CustomInterface.c ****                 /* Start copying bootloadable application from external memory */
 159:CustomInterface.c **** 
 160:CustomInterface.c ****                 /* Generate Enter Bootloader Command */
 161:CustomInterface.c ****                 buffer[CI_CMD_ADDR] = CI_COMMAND_ENTER;
 162:CustomInterface.c ****                 *count = CI_COMMAND_ENTER_PACKET_SIZE;
 163:CustomInterface.c ****                 rspSize = CI_COMMAND_ENTER_PACKET_DATA_SIZE;
 164:CustomInterface.c ****                 rspCode = CYRET_SUCCESS;
 165:CustomInterface.c **** 
 166:CustomInterface.c ****                 /* Perform custom interface initial initializations */
 167:CustomInterface.c ****                 rowIdx = 0u;
 168:CustomInterface.c **** 
 169:CustomInterface.c ****                 DBG_PRINT_TEXT("\r\n");
 170:CustomInterface.c ****                 DBG_PRINT_TEXT("BootloaderEmulator:\r\n");
 171:CustomInterface.c ****                 DBG_PRINT_TEXT("\tCyBtldrCommRead():\r\n");
 172:CustomInterface.c ****                 DBG_PRINT_TEXT("\t\tApplication Status in External Memory: LOADED.\r\n");
 173:CustomInterface.c ****                 DBG_PRINT_TEXT("\t\tApplication in the internal FLASH: INVALID.\r\n");
 174:CustomInterface.c ****                 DBG_PRINT_TEXT("\t\t\tCopy bootloadable application from external memory.\r\n");
 175:CustomInterface.c ****             }
 176:CustomInterface.c **** 
 177:CustomInterface.c ****             DBG_PRINT_TEXT("\r\n");
 178:CustomInterface.c ****             DBG_PRINT_TEXT("BootloaderEmulator:\r\n");
 179:CustomInterface.c ****             DBG_PRINT_TEXT("\tCyBtldrCommRead():\r\n");
 180:CustomInterface.c ****             DBG_PRINT_TEXT("\t\tApplication status: LOADED\r\n");
 181:CustomInterface.c ****             DBG_PRINT_TEXT("\t\t\tSchedule bootloadable application and reset device.\r\n");
 182:CustomInterface.c **** 
 183:CustomInterface.c ****             DBG_PRINT_TEXT("\r\n");
 184:CustomInterface.c ****             DBG_PRINT_TEXT("\r\n");
 185:CustomInterface.c ****             DBG_PRINT_TEXT("=======================================================================
 186:CustomInterface.c ****             DBG_PRINT_TEXT("=    BLE_External_Memory_Bootloader Application Performs Software Reset
 187:CustomInterface.c ****             DBG_PRINT_TEXT("=======================================================================
 188:CustomInterface.c ****             DBG_PRINT_TEXT("\r\n");
 189:CustomInterface.c ****             DBG_PRINT_TEXT("\r\n");
 190:CustomInterface.c ****         }
 191:CustomInterface.c ****         else
 192:CustomInterface.c ****         {
 193:CustomInterface.c ****             /*******************************************************************
 194:CustomInterface.c ****             * The external memory metadata does not contain any information that
 195:CustomInterface.c ****             * application image is present in the external memory, or the
 196:CustomInterface.c ****             * application is invalid (checksum verification failed).
 197:CustomInterface.c ****             *
 198:CustomInterface.c ****             * Try to launch bootloadable application if it is valid. If the
 199:CustomInterface.c ****             * bootloadable application in invalid, halt device.
 200:CustomInterface.c ****             *******************************************************************/
 201:CustomInterface.c ****             if(CYRET_SUCCESS == Bootloader_ValidateBootloadable(Bootloader_MD_BTLDB_ACTIVE_0))
 202:CustomInterface.c ****             {
 203:CustomInterface.c ****                 (void) Bootloader_Exit(Bootloader_EXIT_TO_BTLDB);
 204:CustomInterface.c ****             }
 205:CustomInterface.c ****             else
 206:CustomInterface.c ****             {
 207:CustomInterface.c ****                 DBG_PRINT_TEXT("\r\n");
 208:CustomInterface.c ****                 DBG_PRINT_TEXT("BootloaderEmulator:\r\n");
 209:CustomInterface.c ****                 DBG_PRINT_TEXT("\tCyBtldrCommRead():\r\n");
 210:CustomInterface.c ****                 DBG_PRINT_TEXT("\t\tApplication Status in External Memory: UNKNOWN.\r\n");
 211:CustomInterface.c ****                 DBG_PRINT_TEXT("\t\tApplication status: INVALID.\r\n");
ARM GAS  C:\Users\Administrator\AppData\Local\Temp\ccRPys7B.s 			page 8


 212:CustomInterface.c ****                 DBG_PRINT_TEXT("\t\t\tHalt Device.\r\n");
 213:CustomInterface.c ****                 CyHalt(0x00u);
 214:CustomInterface.c ****             }
 215:CustomInterface.c ****         }
 216:CustomInterface.c ****     }
 217:CustomInterface.c ****     else
 218:CustomInterface.c ****     {
 219:CustomInterface.c ****         if (CI_COMMUNICATION_STATE_ACTIVE == communicationState)
 220:CustomInterface.c ****         {
 221:CustomInterface.c **** 
 222:CustomInterface.c ****             if (flashRowTotal >= rowIdx)
 223:CustomInterface.c ****             {
 224:CustomInterface.c ****                 /* Generate Program Row Command */
 225:CustomInterface.c ****                 uint16 appFirstRowNumInArray;
 226:CustomInterface.c **** 
 227:CustomInterface.c ****                 if (appFirstRowNum > CI_FLASH_ROWS_IN_ARRAY)
 228:CustomInterface.c ****                 {
 229:CustomInterface.c ****                     appFirstRowNumInArray = appFirstRowNum - (CI_FLASH_ROWS_IN_ARRAY + 1u);
 230:CustomInterface.c ****                 }
 231:CustomInterface.c ****                 else
 232:CustomInterface.c ****                 {
 233:CustomInterface.c ****                     appFirstRowNumInArray = appFirstRowNum;
 234:CustomInterface.c ****                 }
 235:CustomInterface.c **** 
 236:CustomInterface.c ****                 buffer[CI_CMD_ADDR      ] = CI_COMMAND_PROGRAM;
 237:CustomInterface.c ****                 buffer[CI_DATA_ADDR     ] = CY_FLASH_GET_MACRO_FROM_ROW(appFirstRowNum);
 238:CustomInterface.c ****                 buffer[CI_DATA_ADDR + 1u] = LO8(appFirstRowNumInArray);
 239:CustomInterface.c ****                 buffer[CI_DATA_ADDR + 2u] = HI8(appFirstRowNumInArray);
 240:CustomInterface.c ****                 //(void) EMI_ReadData(EMI_APP_ABS_ADDR(rowIdx), CY_FLASH_SIZEOF_ROW, (uint8 *) (buf
 241:CustomInterface.c **** 				W25QXX_Read((uint8 *) (buffer + CI_DATA_ADDR + 3u),W25X_APP_ABS_ADDR(rowIdx),CY_FLASH_SIZEOF_RO
 242:CustomInterface.c **** 				
 243:CustomInterface.c ****                 if((flashRowTotal - 1u)  == rowIdx)
 244:CustomInterface.c ****                 {
 245:CustomInterface.c ****                     /* Update metadata flash row */
 246:CustomInterface.c ****                     buffer[CI_DATA_ADDR     ] = CY_FLASH_GET_MACRO_FROM_ROW(CY_FLASH_NUMBER_ROWS - 
 247:CustomInterface.c ****                     buffer[CI_DATA_ADDR + 1u] = LO8(CY_FLASH_NUMBER_ROWS - 2u - CI_FLASH_ROWS_IN_AR
 248:CustomInterface.c ****                     buffer[CI_DATA_ADDR + 2u] = HI8(CY_FLASH_NUMBER_ROWS - 2u - CI_FLASH_ROWS_IN_AR
 249:CustomInterface.c ****                 }
 250:CustomInterface.c **** 
 251:CustomInterface.c ****                 *count  = CI_COMMAND_PROGRAM_PACKET_SIZE;
 252:CustomInterface.c ****                 rspSize = CI_COMMAND_PROGRAM_PACKET_DATA_SIZE;
 253:CustomInterface.c ****                 rspCode = CYRET_SUCCESS;
 254:CustomInterface.c ****                 rowIdx++;
 255:CustomInterface.c ****                 appFirstRowNum++;
 256:CustomInterface.c **** 
 257:CustomInterface.c ****                 DBG_PRINT_TEXT("\r\n");
 258:CustomInterface.c ****                 DBG_PRINT_TEXT("CustomInterface:\r\n");
 259:CustomInterface.c ****                 DBG_PRINT_TEXT("\tCyBtldrCommRead():\r\n");
 260:CustomInterface.c ****                 DBG_PRINT_TEXT("\t\tProgram Row:\r\n");
 261:CustomInterface.c **** 
 262:CustomInterface.c ****                 DBG_PRINT_TEXT("\t\t\t rowIdx: 0x");
 263:CustomInterface.c ****                 DBG_PRINT_HEX(rowIdx - 1u);
 264:CustomInterface.c ****                 DBG_PRINT_TEXT("\r\n");
 265:CustomInterface.c **** 
 266:CustomInterface.c ****                 DBG_PRINT_TEXT("\t\t\t appFirstRowNum: 0x");
 267:CustomInterface.c ****                 DBG_PRINT_HEX(appFirstRowNum - 1u);
 268:CustomInterface.c ****                 DBG_PRINT_TEXT("\r\n");
ARM GAS  C:\Users\Administrator\AppData\Local\Temp\ccRPys7B.s 			page 9


 269:CustomInterface.c ****             }
 270:CustomInterface.c ****             else
 271:CustomInterface.c ****             {
 272:CustomInterface.c ****                 /* Schedule Bootloadable application */
 273:CustomInterface.c **** 
 274:CustomInterface.c ****                 /* Mark bootloadable application as loaded */
 275:CustomInterface.c ****                 //(void) EMI_ReadData(EMI_MD_BASE_ADDR, CY_FLASH_SIZEOF_ROW , metadata);
 276:CustomInterface.c **** 				W25QXX_Read(metadata,W25X_IMAGE_METDATA_ADDR,CY_FLASH_SIZEOF_ROW);	
 277:CustomInterface.c ****                 metadata[EMI_MD_APP_STATUS_ADDR] = EMI_MD_APP_STATUS_LOADED;
 278:CustomInterface.c ****                 //(void) EMI_WriteData(EMI_MD_BASE_ADDR, CY_FLASH_SIZEOF_ROW , metadata);
 279:CustomInterface.c **** 				W25QXX_Write(metadata,W25X_IMAGE_METDATA_ADDR,CY_FLASH_SIZEOF_ROW);			//Êõ¥Êñ∞‰∏ãEXE_Mem‰ø°ÊÅØË
 280:CustomInterface.c **** 				
 281:CustomInterface.c ****                 /* Generate Exit Bootloader Command */
 282:CustomInterface.c ****                 buffer[CI_CMD_ADDR] = CI_COMMAND_EXIT;		//ËØªÂèñÈïúÂÉèÂÆåÊØï Ëøõ0x3BÊåá‰ª§
 283:CustomInterface.c ****                 *count = CI_COMMAND_EXIT_PACKET_SIZE;
 284:CustomInterface.c ****                 rspSize = CI_COMMAND_EXIT_PACKET_DATA_SIZE;
 285:CustomInterface.c ****                 rspCode = CYRET_SUCCESS;
 286:CustomInterface.c **** 
 287:CustomInterface.c ****                 DBG_PRINT_TEXT("\r\n");
 288:CustomInterface.c ****                 DBG_PRINT_TEXT("BootloaderEmulator:\r\n");
 289:CustomInterface.c ****                 DBG_PRINT_TEXT("\tCyBtldrCommRead():\r\n");
 290:CustomInterface.c ****                 DBG_PRINT_TEXT("\t\tExit Bootloader:\r\n");
 291:CustomInterface.c ****             }
 292:CustomInterface.c **** 
 293:CustomInterface.c ****         }
 294:CustomInterface.c ****     }
 295:CustomInterface.c **** 	//ÊúâÈÄö‰ø°ÁöÑ ÂõûÂ§çÂåÖÔºåÊâìÂç∞È™åËØÅ‰∏ã
 296:CustomInterface.c ****     CI_WritePacket(rspCode, buffer, rspSize);
 297:CustomInterface.c **** 
 298:CustomInterface.c ****     return (CYRET_SUCCESS);
 299:CustomInterface.c **** }
 300:CustomInterface.c **** 
 301:CustomInterface.c **** 
 302:CustomInterface.c **** /*******************************************************************************
 303:CustomInterface.c **** * Function Name: CyBtldrCommStart
 304:CustomInterface.c **** ********************************************************************************
 305:CustomInterface.c **** *
 306:CustomInterface.c **** * Summary:
 307:CustomInterface.c **** *
 308:CustomInterface.c **** *
 309:CustomInterface.c **** * Parameters:
 310:CustomInterface.c **** *  None
 311:CustomInterface.c **** *
 312:CustomInterface.c **** * Returns:
 313:CustomInterface.c **** *  None
 314:CustomInterface.c **** *
 315:CustomInterface.c **** *******************************************************************************/
 316:CustomInterface.c **** void CyBtldrCommStart(void)
 317:CustomInterface.c **** {
 318:CustomInterface.c ****     numOfRxedRows = 0u;
 319:CustomInterface.c ****     communicationState = CI_COMMUNICATION_STATE_IDLE;
 320:CustomInterface.c **** 
 321:CustomInterface.c **** 	//ÂàùÂßãÂåñÈÄö‰ø°Ê®°Âùó
 322:CustomInterface.c ****     //EMI_Start();
 323:CustomInterface.c **** 	W25QXX_Init();
 324:CustomInterface.c **** 	
 325:CustomInterface.c ****     DBG_PRINT_TEXT("\r\n");
ARM GAS  C:\Users\Administrator\AppData\Local\Temp\ccRPys7B.s 			page 10


 326:CustomInterface.c ****     DBG_PRINT_TEXT("W25QXX_Init in:\r\n");
 327:CustomInterface.c ****     DBG_PRINT_TEXT("\tCyBtldrCommStart():\r\n");
 328:CustomInterface.c ****     DBG_PRINT_TEXT("\r\n");
 329:CustomInterface.c **** 
 330:CustomInterface.c **** }
 331:CustomInterface.c **** 
 332:CustomInterface.c **** 
 333:CustomInterface.c **** /*******************************************************************************
 334:CustomInterface.c **** * Function Name: CyBtldrCommStop
 335:CustomInterface.c **** ********************************************************************************
 336:CustomInterface.c **** *
 337:CustomInterface.c **** * Summary: ÂÅúÊ≠¢/ÂÖ≥Èó≠Â§ñÈÉ®Â≠òÂÇ®Êé•Âè£
 338:CustomInterface.c **** *
 339:CustomInterface.c **** *
 340:CustomInterface.c **** * Parameters:
 341:CustomInterface.c **** *  None
 342:CustomInterface.c **** *
 343:CustomInterface.c **** * Returns:
 344:CustomInterface.c **** *  None
 345:CustomInterface.c **** *
 346:CustomInterface.c **** *******************************************************************************/
 347:CustomInterface.c **** void CyBtldrCommStop(void)
 348:CustomInterface.c **** {
 349:CustomInterface.c ****     DBG_PRINT_TEXT("\r\n");
 350:CustomInterface.c ****     DBG_PRINT_TEXT("CustomInterface:\r\n");
 351:CustomInterface.c ****     DBG_PRINT_TEXT("\tCyBtldrCommStop():\r\n");
 352:CustomInterface.c ****     DBG_PRINT_TEXT("\r\n");
 353:CustomInterface.c **** }
 354:CustomInterface.c **** 
 355:CustomInterface.c **** 
 356:CustomInterface.c **** /*******************************************************************************
 357:CustomInterface.c **** * Function Name: CyBtldrCommReset
 358:CustomInterface.c **** ********************************************************************************
 359:CustomInterface.c **** *
 360:CustomInterface.c **** * Summary:
 361:CustomInterface.c **** *
 362:CustomInterface.c **** *
 363:CustomInterface.c **** * Parameters:
 364:CustomInterface.c **** *  None
 365:CustomInterface.c **** *
 366:CustomInterface.c **** * Returns:
 367:CustomInterface.c **** *  None
 368:CustomInterface.c **** *
 369:CustomInterface.c **** *******************************************************************************/
 370:CustomInterface.c **** void CyBtldrCommReset(void)
 371:CustomInterface.c **** {
 372:CustomInterface.c ****     DBG_PRINT_TEXT("\r\n");
 373:CustomInterface.c ****     DBG_PRINT_TEXT("CustomInterface:\r\n");
 374:CustomInterface.c ****     DBG_PRINT_TEXT("\tCyBtldrCommReset():\r\n");
 375:CustomInterface.c ****     DBG_PRINT_TEXT("\r\n");
 376:CustomInterface.c **** }
 377:CustomInterface.c **** 
 378:CustomInterface.c **** 
 379:CustomInterface.c **** /*******************************************************************************
 380:CustomInterface.c **** * Function Name: CyBtldrCommWrite
 381:CustomInterface.c **** ********************************************************************************
 382:CustomInterface.c **** *
ARM GAS  C:\Users\Administrator\AppData\Local\Temp\ccRPys7B.s 			page 11


 383:CustomInterface.c **** * Summary:
 384:CustomInterface.c **** *
 385:CustomInterface.c **** *
 386:CustomInterface.c **** * Parameters:
 387:CustomInterface.c **** *  None
 388:CustomInterface.c **** *
 389:CustomInterface.c **** * Returns:
 390:CustomInterface.c **** *  None
 391:CustomInterface.c **** *
 392:CustomInterface.c **** *******************************************************************************/
 393:CustomInterface.c **** cystatus CyBtldrCommWrite(uint8* buffer, uint16 size, uint16* count, uint8 timeOut)
 394:CustomInterface.c **** {
 395:CustomInterface.c ****     buffer = buffer;
 396:CustomInterface.c ****     size = size;
 397:CustomInterface.c ****     count = count;
 398:CustomInterface.c ****     timeOut = timeOut;
 399:CustomInterface.c **** 
 400:CustomInterface.c ****     DBG_PRINT_TEXT("\r\n");
 401:CustomInterface.c ****     DBG_PRINT_TEXT("CustomInterface:\r\n");
 402:CustomInterface.c ****     DBG_PRINT_TEXT("\tCyBtldrCommWrite():\r\n");
 403:CustomInterface.c ****     DBG_PRINT_TEXT("\r\n");
 404:CustomInterface.c **** 
 405:CustomInterface.c ****     return (CYRET_SUCCESS);
 406:CustomInterface.c **** }
 407:CustomInterface.c **** 
 408:CustomInterface.c **** 
 409:CustomInterface.c **** /*******************************************************************************
 410:CustomInterface.c **** * Function Name: CI_CalcPacketChecksum
 411:CustomInterface.c **** ********************************************************************************
 412:CustomInterface.c **** *
 413:CustomInterface.c **** * Summary:
 414:CustomInterface.c **** *  This computes the 16 bit checksum for the provided number of bytes contained
 415:CustomInterface.c **** *  in the provided buffer
 416:CustomInterface.c **** *
 417:CustomInterface.c **** * Parameters:
 418:CustomInterface.c **** *  buffer:
 419:CustomInterface.c **** *     The buffer containing the data to compute the checksum for
 420:CustomInterface.c **** *  size:
 421:CustomInterface.c **** *     The number of bytes in the buffer to compute the checksum for
 422:CustomInterface.c **** *
 423:CustomInterface.c **** * Returns:
 424:CustomInterface.c **** *  16 bit checksum for the provided data
 425:CustomInterface.c **** *
 426:CustomInterface.c **** *******************************************************************************/
 427:CustomInterface.c **** static uint16 CI_CalcPacketChecksum(const uint8 buffer[], uint16 size)
 428:CustomInterface.c **** {
 429:CustomInterface.c ****     #if(0u != CI_PACKET_CHECKSUM_CRC)
 430:CustomInterface.c **** 
 431:CustomInterface.c ****         uint16 crc = CI_CRC_CCITT_INITIAL_VALUE;
 432:CustomInterface.c ****         uint16 tmp;
 433:CustomInterface.c ****         uint8  i;
 434:CustomInterface.c ****         uint16 tmpIndex = size;
 435:CustomInterface.c **** 
 436:CustomInterface.c ****         if(0u == size)
 437:CustomInterface.c ****         {
 438:CustomInterface.c ****             crc = ~crc;
 439:CustomInterface.c ****         }
ARM GAS  C:\Users\Administrator\AppData\Local\Temp\ccRPys7B.s 			page 12


 440:CustomInterface.c ****         else
 441:CustomInterface.c ****         {
 442:CustomInterface.c ****             do
 443:CustomInterface.c ****             {
 444:CustomInterface.c ****                 tmp = buffer[tmpIndex - size];
 445:CustomInterface.c **** 
 446:CustomInterface.c ****                 for (i = 0u; i < 8u; i++)
 447:CustomInterface.c ****                 {
 448:CustomInterface.c ****                     if (0u != ((crc & 0x0001u) ^ (tmp & 0x0001u)))
 449:CustomInterface.c ****                     {
 450:CustomInterface.c ****                         crc = (crc >> 1u) ^ CI_CRC_CCITT_POLYNOMIAL;
 451:CustomInterface.c ****                     }
 452:CustomInterface.c ****                     else
 453:CustomInterface.c ****                     {
 454:CustomInterface.c ****                         crc >>= 1u;
 455:CustomInterface.c ****                     }
 456:CustomInterface.c **** 
 457:CustomInterface.c ****                     tmp >>= 1u;
 458:CustomInterface.c ****                 }
 459:CustomInterface.c **** 
 460:CustomInterface.c ****                 size--;
 461:CustomInterface.c ****             }
 462:CustomInterface.c ****             while(0u != size);
 463:CustomInterface.c **** 
 464:CustomInterface.c ****             crc = ~crc;
 465:CustomInterface.c ****             tmp = crc;
 466:CustomInterface.c ****             crc = ( uint16 )(crc << 8u) | (tmp >> 8u);
 467:CustomInterface.c ****         }
 468:CustomInterface.c **** 
 469:CustomInterface.c ****         return(crc);
 470:CustomInterface.c **** 
 471:CustomInterface.c ****     #else
 472:CustomInterface.c **** 
 473:CustomInterface.c ****         uint16 sum = 0u;
 474:CustomInterface.c **** 
 475:CustomInterface.c ****         while (size > 0u)
 476:CustomInterface.c ****         {
 477:CustomInterface.c ****             sum += buffer[size - 1u];
 478:CustomInterface.c ****             size--;
 479:CustomInterface.c ****         }
 480:CustomInterface.c **** 
 481:CustomInterface.c ****         return(( uint16 )1u + ( uint16 )(~sum));
 482:CustomInterface.c **** 
 483:CustomInterface.c ****     #endif /* (0u != Bootloader_PACKET_CHECKSUM_CRC) */
 484:CustomInterface.c **** }
 485:CustomInterface.c **** 
 486:CustomInterface.c **** 
 487:CustomInterface.c **** /*******************************************************************************
 488:CustomInterface.c **** * Function Name: CI_WritePacket
 489:CustomInterface.c **** ********************************************************************************
 490:CustomInterface.c **** *
 491:CustomInterface.c **** * Summary:
 492:CustomInterface.c **** *  Creates a bootloader response packet and transmits it back to the bootloader
 493:CustomInterface.c **** *  host application over the already established communications protocol.
 494:CustomInterface.c **** *
 495:CustomInterface.c **** * Parameters:
 496:CustomInterface.c **** *  status:
ARM GAS  C:\Users\Administrator\AppData\Local\Temp\ccRPys7B.s 			page 13


 497:CustomInterface.c **** *      The status code to pass back as the second byte of the packet
 498:CustomInterface.c **** *  buffer:
 499:CustomInterface.c **** *      The buffer containing the data portion of the packet
 500:CustomInterface.c **** *  size:
 501:CustomInterface.c **** *      The number of bytes contained within the buffer to pass back
 502:CustomInterface.c **** *
 503:CustomInterface.c **** * Return:
 504:CustomInterface.c **** *   CYRET_SUCCESS if successful. Any other non-zero value if failure occurred.
 505:CustomInterface.c **** *
 506:CustomInterface.c **** *******************************************************************************/
 507:CustomInterface.c **** static cystatus CI_WritePacket(uint8 status, uint8 buffer[], uint16 size)
 508:CustomInterface.c **** {
 509:CustomInterface.c ****     uint16 CYDATA checksum;
 510:CustomInterface.c **** 
 511:CustomInterface.c ****     /* Start of packet. */
 512:CustomInterface.c ****     buffer[CI_SOP_ADDR]       = CI_SOP;
 513:CustomInterface.c ****     buffer[CI_SIZE_ADDR]      = LO8(size);
 514:CustomInterface.c ****     buffer[CI_SIZE_ADDR + 1u] = HI8(size);
 515:CustomInterface.c **** 
 516:CustomInterface.c ****     /* Compute checksum. */
 517:CustomInterface.c ****     checksum = CI_CalcPacketChecksum(buffer, size + CI_DATA_ADDR);
 518:CustomInterface.c **** 
 519:CustomInterface.c ****     buffer[CI_CHK_ADDR(size)]      = LO8(checksum);
 520:CustomInterface.c ****     buffer[CI_CHK_ADDR(1u + size)] = HI8(checksum);
 521:CustomInterface.c ****     buffer[CI_EOP_ADDR(size)]      = CI_EOP;
 522:CustomInterface.c **** 
 523:CustomInterface.c ****     DBG_PRINT_TEXT("\r\n");
 524:CustomInterface.c ****     DBG_PRINT_TEXT("CustomInterface:\r\n");
 525:CustomInterface.c ****     DBG_PRINT_TEXT("\tCI_WritePacket():\r\n");
 526:CustomInterface.c **** 
 527:CustomInterface.c ****     DBG_PRINT_TEXT("\t\t SOP:       0x");
 528:CustomInterface.c ****     DBG_PRINT_HEX(buffer[CI_SOP_ADDR]);
 529:CustomInterface.c ****     DBG_PRINT_TEXT("\r\n");
 530:CustomInterface.c **** 
 531:CustomInterface.c ****     DBG_PRINT_TEXT("\t\t CMD:       0x");
 532:CustomInterface.c ****     DBG_PRINT_HEX(buffer[CI_CMD_ADDR]);
 533:CustomInterface.c ****     DBG_PRINT_TEXT("\r\n");
 534:CustomInterface.c **** 
 535:CustomInterface.c ****     DBG_PRINT_TEXT("\t\t SIZE:      0x");
 536:CustomInterface.c ****     DBG_PRINT_HEX(size);
 537:CustomInterface.c ****     DBG_PRINT_TEXT("\r\n");
 538:CustomInterface.c **** 
 539:CustomInterface.c ****     if (buffer[CI_CMD_ADDR] == 0x39)
 540:CustomInterface.c ****     {
 541:CustomInterface.c ****         DBG_PRINT_TEXT("\t\t Flash Array: 0x");
 542:CustomInterface.c ****         DBG_PRINT_HEX(buffer[CI_DATA_ADDR ]);
 543:CustomInterface.c ****         DBG_PRINT_TEXT("\r\n");
 544:CustomInterface.c **** 
 545:CustomInterface.c ****         DBG_PRINT_TEXT("\t\t Flash Row: 0x");
 546:CustomInterface.c ****         DBG_PRINT_HEX(buffer[CI_DATA_ADDR + 2] << 8 | buffer[CI_DATA_ADDR + 1]);
 547:CustomInterface.c ****         DBG_PRINT_TEXT("\r\n");
 548:CustomInterface.c ****     }
 549:CustomInterface.c **** 
 550:CustomInterface.c ****     DBG_PRINT_TEXT("\t\t Checksum:  0x");
 551:CustomInterface.c ****     DBG_PRINT_HEX(checksum);
 552:CustomInterface.c ****     DBG_PRINT_TEXT("\r\n");
 553:CustomInterface.c **** 
ARM GAS  C:\Users\Administrator\AppData\Local\Temp\ccRPys7B.s 			page 14


 554:CustomInterface.c ****     DBG_PRINT_TEXT("\t\t EOP:       0x");
 555:CustomInterface.c ****     DBG_PRINT_HEX(buffer[CI_EOP_ADDR(size)]);
 556:CustomInterface.c ****     DBG_PRINT_TEXT("\r\n");
 557:CustomInterface.c **** 
 558:CustomInterface.c ****     DBG_PRINT_TEXT("\t\t Packet:    ");
 559:CustomInterface.c ****     DBG_PRINT_ARRAY(buffer, CI_EOP_ADDR(size) + 1u);
 560:CustomInterface.c ****     DBG_PRINT_TEXT("\r\n");
 561:CustomInterface.c **** 
 562:CustomInterface.c ****     return (CYRET_SUCCESS);
 563:CustomInterface.c **** }
 564:CustomInterface.c **** 
 565:CustomInterface.c **** 
 566:CustomInterface.c **** //ÂçáÁ∫ß‰πãÂâç ÁÆó‰∏ãÊ†°È™åÂíå
 567:CustomInterface.c **** static uint16 CI_CalcExtMemAppChecksum(void)
 568:CustomInterface.c **** {
 569:CustomInterface.c ****     uint8  extMemRow[CY_FLASH_SIZEOF_ROW];
 570:CustomInterface.c ****     uint16 extMemRowIdx;
 571:CustomInterface.c ****     uint16 extMemAppRowsTotal;
 572:CustomInterface.c ****     uint16 appExtMemChecksum = 0u;
 573:CustomInterface.c ****     uint16 size;
 574:CustomInterface.c **** 
 575:CustomInterface.c ****     /* Get total number of the written flash rows to the external memory */
 576:CustomInterface.c ****     //==(void) EMI_ReadData(EMI_MD_BASE_ADDR, CY_FLASH_SIZEOF_ROW , metadata);
 577:CustomInterface.c **** 	W25QXX_Read(metadata,W25X_IMAGE_METDATA_ADDR,CY_FLASH_SIZEOF_ROW);	
 181              		.loc 1 577 0
 182 00c8 C821     		mov	r1, #200
 183              	.LBE12:
 184              	.LBE11:
 111:CustomInterface.c ****         encryptionEnabled = metadata[EMI_MD_ENCRYPTION_STATUS_ADDR];
 185              		.loc 1 111 0
 186 00ca 1A70     		strb	r2, [r3]
 187              	.LVL23:
 188              	.LBB14:
 189              	.LBB13:
 190              		.loc 1 577 0
 191 00cc 8022     		mov	r2, #128
 192 00ce 201C     		mov	r0, r4
 193 00d0 5200     		lsl	r2, r2, #1
 194 00d2 8902     		lsl	r1, r1, #10
 195 00d4 FFF7FEFF 		bl	W25QXX_Read
 196              	.LVL24:
 578:CustomInterface.c **** 	
 579:CustomInterface.c **** 	// ‰ªéÂ§ñÈÉ®Â≠òÂÇ®‰∏≠ËØªÂèñËÆ∞ÂΩïÁöÑÈïúÂÉèÊï∞ÊçÆÂç†Áî®ÁöÑROWÊï∞
 580:CustomInterface.c ****     extMemAppRowsTotal = ((uint16)((uint16)metadata[EMI_MD_APP_SIZE_IN_ROWS_ADDR + 1u] << 8u)) |
 197              		.loc 1 580 0
 198 00d8 637B     		ldrb	r3, [r4, #13]
 199 00da 227B     		ldrb	r2, [r4, #12]
 200 00dc 1B02     		lsl	r3, r3, #8
 201 00de 1343     		orr	r3, r2
 202 00e0 A14A     		ldr	r2, .L26+56
 203 00e2 A24E     		ldr	r6, .L26+60
 204 00e4 9B18     		add	r3, r3, r2
 205 00e6 1B02     		lsl	r3, r3, #8
 572:CustomInterface.c ****     uint16 size;
 206              		.loc 1 572 0
 207 00e8 039D     		ldr	r5, [sp, #12]
 208 00ea 0593     		str	r3, [sp, #20]
ARM GAS  C:\Users\Administrator\AppData\Local\Temp\ccRPys7B.s 			page 15


 209              	.LVL25:
 210              	.L3:
 581:CustomInterface.c ****                                       metadata[EMI_MD_APP_SIZE_IN_ROWS_ADDR];
 582:CustomInterface.c **** 
 583:CustomInterface.c ****     for (extMemRowIdx = 0u; extMemRowIdx < extMemAppRowsTotal; extMemRowIdx++)
 211              		.loc 1 583 0
 212 00ec 059B     		ldr	r3, [sp, #20]
 213 00ee 9E42     		cmp	r6, r3
 214 00f0 12D0     		beq	.L24
 584:CustomInterface.c ****     {
 585:CustomInterface.c ****         //==(void) EMI_ReadData(EMI_APP_ABS_ADDR(extMemRowIdx), CY_FLASH_SIZEOF_ROW, extMemRow);
 586:CustomInterface.c **** 		W25QXX_Read(extMemRow,W25X_APP_ABS_ADDR(extMemRowIdx),CY_FLASH_SIZEOF_ROW);	
 215              		.loc 1 586 0
 216 00f2 8022     		mov	r2, #128
 217 00f4 06A8     		add	r0, sp, #24
 218 00f6 311C     		mov	r1, r6
 219 00f8 5200     		lsl	r2, r2, #1
 220 00fa FFF7FEFF 		bl	W25QXX_Read
 221              	.LVL26:
 587:CustomInterface.c ****         size = CY_FLASH_SIZEOF_ROW;
 222              		.loc 1 587 0
 223 00fe 8023     		mov	r3, #128
 224 0100 5B00     		lsl	r3, r3, #1
 225              	.LVL27:
 226              	.L4:
 588:CustomInterface.c ****         while (size > 0u)
 589:CustomInterface.c ****         {
 590:CustomInterface.c ****             size--;
 227              		.loc 1 590 0
 228 0102 013B     		sub	r3, r3, #1
 229              	.LVL28:
 230 0104 9BB2     		uxth	r3, r3
 231              	.LVL29:
 591:CustomInterface.c ****             appExtMemChecksum += extMemRow[size];
 232              		.loc 1 591 0
 233 0106 06AA     		add	r2, sp, #24
 234 0108 D25C     		ldrb	r2, [r2, r3]
 235 010a AD18     		add	r5, r5, r2
 236              	.LVL30:
 237 010c ADB2     		uxth	r5, r5
 238              	.LVL31:
 588:CustomInterface.c ****         while (size > 0u)
 239              		.loc 1 588 0
 240 010e 002B     		cmp	r3, #0
 241 0110 F7D1     		bne	.L4
 242 0112 0136     		add	r6, r6, #1
 243 0114 FF36     		add	r6, r6, #255
 244 0116 E9E7     		b	.L3
 245              	.LVL32:
 246              	.L24:
 592:CustomInterface.c ****         }
 593:CustomInterface.c ****     }
 594:CustomInterface.c **** 
 595:CustomInterface.c ****     appExtMemChecksum = ( uint16 )1u + ( uint16 )(~appExtMemChecksum);
 596:CustomInterface.c **** 
 597:CustomInterface.c ****     DBG_PRINT_TEXT("\r\n");
 247              		.loc 1 597 0
ARM GAS  C:\Users\Administrator\AppData\Local\Temp\ccRPys7B.s 			page 16


 248 0118 381C     		mov	r0, r7
 249 011a FFF7FEFF 		bl	puts
 250              	.LVL33:
 598:CustomInterface.c ****     DBG_PRINT_TEXT("CustomInterface:\r\n");
 251              		.loc 1 598 0
 252 011e 9448     		ldr	r0, .L26+64
 253 0120 FFF7FEFF 		bl	puts
 254              	.LVL34:
 599:CustomInterface.c ****     DBG_PRINT_TEXT("\tCI_CalcExtMemAppChecksum():\r\n");
 255              		.loc 1 599 0
 256 0124 9348     		ldr	r0, .L26+68
 257 0126 FFF7FEFF 		bl	puts
 258              	.LVL35:
 595:CustomInterface.c **** 
 259              		.loc 1 595 0
 260 012a 6D42     		neg	r5, r5
 261              	.LVL36:
 600:CustomInterface.c ****     DBG_PRINT_TEXT("\r\n");
 262              		.loc 1 600 0
 263 012c 381C     		mov	r0, r7
 264 012e FFF7FEFF 		bl	puts
 265              	.LVL37:
 595:CustomInterface.c **** 
 266              		.loc 1 595 0
 267 0132 ADB2     		uxth	r5, r5
 268              	.LVL38:
 601:CustomInterface.c **** 
 602:CustomInterface.c ****     DBG_PRINT_TEXT("\t\t Calculated checksum: 0x");
 269              		.loc 1 602 0
 270 0134 9048     		ldr	r0, .L26+72
 271 0136 FFF7FEFF 		bl	printf
 272              	.LVL39:
 603:CustomInterface.c ****     DBG_PRINT_HEX(appExtMemChecksum);
 273              		.loc 1 603 0
 274 013a 291C     		mov	r1, r5
 275 013c 8448     		ldr	r0, .L26+32
 276 013e FFF7FEFF 		bl	printf
 277              	.LVL40:
 604:CustomInterface.c ****     DBG_PRINT_TEXT("\r\n");
 278              		.loc 1 604 0
 279 0142 381C     		mov	r0, r7
 280 0144 FFF7FEFF 		bl	puts
 281              	.LVL41:
 282              	.LBE13:
 283              	.LBE14:
 114:CustomInterface.c ****         {
 284              		.loc 1 114 0
 285 0148 049B     		ldr	r3, [sp, #16]
 286 014a 9D42     		cmp	r5, r3
 287 014c 01D0     		beq	.L6
 117:CustomInterface.c ****         }
 288              		.loc 1 117 0
 289 014e 0023     		mov	r3, #0
 290 0150 2370     		strb	r3, [r4]
 291              	.L6:
 121:CustomInterface.c ****         {
 292              		.loc 1 121 0
ARM GAS  C:\Users\Administrator\AppData\Local\Temp\ccRPys7B.s 			page 17


 293 0152 2378     		ldrb	r3, [r4]
 294 0154 562B     		cmp	r3, #86
 295 0156 16D1     		bne	.L7
 132:CustomInterface.c **** 
 296              		.loc 1 132 0
 297 0158 0024     		mov	r4, #0
 126:CustomInterface.c ****             *count = CI_COMMAND_ENTER_PACKET_SIZE;
 298              		.loc 1 126 0
 299 015a 019A     		ldr	r2, [sp, #4]
 300 015c 1E3B     		sub	r3, r3, #30
 301 015e 5370     		strb	r3, [r2, #1]
 127:CustomInterface.c ****             rspSize = CI_COMMAND_ENTER_PACKET_DATA_SIZE;
 302              		.loc 1 127 0
 303 0160 029A     		ldr	r2, [sp, #8]
 304 0162 313B     		sub	r3, r3, #49
 305 0164 1380     		strh	r3, [r2]
 306              	.LVL42:
 132:CustomInterface.c **** 
 307              		.loc 1 132 0
 308 0166 854B     		ldr	r3, .L26+76
 134:CustomInterface.c ****             DBG_PRINT_TEXT("BootloaderEmulator:\r\n");
 309              		.loc 1 134 0
 310 0168 381C     		mov	r0, r7
 132:CustomInterface.c **** 
 311              		.loc 1 132 0
 312 016a 1C80     		strh	r4, [r3]
 134:CustomInterface.c ****             DBG_PRINT_TEXT("BootloaderEmulator:\r\n");
 313              		.loc 1 134 0
 314 016c FFF7FEFF 		bl	puts
 315              	.LVL43:
 135:CustomInterface.c ****             DBG_PRINT_TEXT("\tCyBtldrCommRead():\r\n");
 316              		.loc 1 135 0
 317 0170 7448     		ldr	r0, .L26+20
 318 0172 FFF7FEFF 		bl	puts
 319              	.LVL44:
 136:CustomInterface.c ****             DBG_PRINT_TEXT("\t\tApplication Status in External Memory: VALID\r\n");
 320              		.loc 1 136 0
 321 0176 7448     		ldr	r0, .L26+24
 322 0178 FFF7FEFF 		bl	puts
 323              	.LVL45:
 137:CustomInterface.c ****             DBG_PRINT_TEXT("\t\t\tCopy bootloadable application from external memory.\r\n");
 324              		.loc 1 137 0
 325 017c 8048     		ldr	r0, .L26+80
 326 017e FFF7FEFF 		bl	puts
 327              	.LVL46:
 138:CustomInterface.c ****         }
 328              		.loc 1 138 0
 329 0182 8048     		ldr	r0, .L26+84
 330 0184 3DE1     		b	.L21
 331              	.LVL47:
 332              	.L7:
 152:CustomInterface.c ****             {
 333              		.loc 1 152 0
 334 0186 0020     		mov	r0, #0
 140:CustomInterface.c ****         {
 335              		.loc 1 140 0
 336 0188 4C2B     		cmp	r3, #76
ARM GAS  C:\Users\Administrator\AppData\Local\Temp\ccRPys7B.s 			page 18


 337 018a 49D1     		bne	.L9
 152:CustomInterface.c ****             {
 338              		.loc 1 152 0
 339 018c FFF7FEFF 		bl	Bootloader_ValidateBootloadable
 340              	.LVL48:
 341 0190 6C4D     		ldr	r5, .L26+20
 342              	.LVL49:
 343 0192 6D4C     		ldr	r4, .L26+24
 344 0194 0028     		cmp	r0, #0
 345 0196 02D1     		bne	.L10
 154:CustomInterface.c ****             }
 346              		.loc 1 154 0
 347 0198 FFF7FEFF 		bl	Bootloader_Exit
 348              	.LVL50:
 349 019c 1AE0     		b	.L11
 350              	.L10:
 161:CustomInterface.c ****                 *count = CI_COMMAND_ENTER_PACKET_SIZE;
 351              		.loc 1 161 0
 352 019e 3823     		mov	r3, #56
 353 01a0 019A     		ldr	r2, [sp, #4]
 169:CustomInterface.c ****                 DBG_PRINT_TEXT("BootloaderEmulator:\r\n");
 354              		.loc 1 169 0
 355 01a2 381C     		mov	r0, r7
 161:CustomInterface.c ****                 *count = CI_COMMAND_ENTER_PACKET_SIZE;
 356              		.loc 1 161 0
 357 01a4 5370     		strb	r3, [r2, #1]
 162:CustomInterface.c ****                 rspSize = CI_COMMAND_ENTER_PACKET_DATA_SIZE;
 358              		.loc 1 162 0
 359 01a6 029A     		ldr	r2, [sp, #8]
 360 01a8 313B     		sub	r3, r3, #49
 361 01aa 1380     		strh	r3, [r2]
 362              	.LVL51:
 167:CustomInterface.c **** 
 363              		.loc 1 167 0
 364 01ac 0022     		mov	r2, #0
 365 01ae 734B     		ldr	r3, .L26+76
 366 01b0 1A80     		strh	r2, [r3]
 169:CustomInterface.c ****                 DBG_PRINT_TEXT("BootloaderEmulator:\r\n");
 367              		.loc 1 169 0
 368 01b2 FFF7FEFF 		bl	puts
 369              	.LVL52:
 170:CustomInterface.c ****                 DBG_PRINT_TEXT("\tCyBtldrCommRead():\r\n");
 370              		.loc 1 170 0
 371 01b6 281C     		mov	r0, r5
 372 01b8 FFF7FEFF 		bl	puts
 373              	.LVL53:
 171:CustomInterface.c ****                 DBG_PRINT_TEXT("\t\tApplication Status in External Memory: LOADED.\r\n");
 374              		.loc 1 171 0
 375 01bc 201C     		mov	r0, r4
 376 01be FFF7FEFF 		bl	puts
 377              	.LVL54:
 172:CustomInterface.c ****                 DBG_PRINT_TEXT("\t\tApplication in the internal FLASH: INVALID.\r\n");
 378              		.loc 1 172 0
 379 01c2 7148     		ldr	r0, .L26+88
 380 01c4 FFF7FEFF 		bl	puts
 381              	.LVL55:
 173:CustomInterface.c ****                 DBG_PRINT_TEXT("\t\t\tCopy bootloadable application from external memory.\r\n");
ARM GAS  C:\Users\Administrator\AppData\Local\Temp\ccRPys7B.s 			page 19


 382              		.loc 1 173 0
 383 01c8 7048     		ldr	r0, .L26+92
 384 01ca FFF7FEFF 		bl	puts
 385              	.LVL56:
 174:CustomInterface.c ****             }
 386              		.loc 1 174 0
 387 01ce 6D48     		ldr	r0, .L26+84
 388 01d0 FFF7FEFF 		bl	puts
 389              	.LVL57:
 390              	.L11:
 177:CustomInterface.c ****             DBG_PRINT_TEXT("BootloaderEmulator:\r\n");
 391              		.loc 1 177 0
 392 01d4 381C     		mov	r0, r7
 393 01d6 FFF7FEFF 		bl	puts
 394              	.LVL58:
 178:CustomInterface.c ****             DBG_PRINT_TEXT("\tCyBtldrCommRead():\r\n");
 395              		.loc 1 178 0
 396 01da 281C     		mov	r0, r5
 397 01dc FFF7FEFF 		bl	puts
 398              	.LVL59:
 179:CustomInterface.c ****             DBG_PRINT_TEXT("\t\tApplication status: LOADED\r\n");
 399              		.loc 1 179 0
 400 01e0 201C     		mov	r0, r4
 401 01e2 FFF7FEFF 		bl	puts
 402              	.LVL60:
 180:CustomInterface.c ****             DBG_PRINT_TEXT("\t\t\tSchedule bootloadable application and reset device.\r\n");
 403              		.loc 1 180 0
 404 01e6 6A48     		ldr	r0, .L26+96
 405 01e8 FFF7FEFF 		bl	puts
 406              	.LVL61:
 181:CustomInterface.c **** 
 407              		.loc 1 181 0
 408 01ec 6948     		ldr	r0, .L26+100
 409 01ee FFF7FEFF 		bl	puts
 410              	.LVL62:
 183:CustomInterface.c ****             DBG_PRINT_TEXT("\r\n");
 411              		.loc 1 183 0
 412 01f2 381C     		mov	r0, r7
 413 01f4 FFF7FEFF 		bl	puts
 414              	.LVL63:
 184:CustomInterface.c ****             DBG_PRINT_TEXT("=======================================================================
 415              		.loc 1 184 0
 416 01f8 381C     		mov	r0, r7
 417 01fa FFF7FEFF 		bl	puts
 418              	.LVL64:
 185:CustomInterface.c ****             DBG_PRINT_TEXT("=    BLE_External_Memory_Bootloader Application Performs Software Reset
 419              		.loc 1 185 0
 420 01fe 664C     		ldr	r4, .L26+104
 421 0200 201C     		mov	r0, r4
 422 0202 FFF7FEFF 		bl	puts
 423              	.LVL65:
 186:CustomInterface.c ****             DBG_PRINT_TEXT("=======================================================================
 424              		.loc 1 186 0
 425 0206 6548     		ldr	r0, .L26+108
 426 0208 FFF7FEFF 		bl	puts
 427              	.LVL66:
 187:CustomInterface.c ****             DBG_PRINT_TEXT("\r\n");
ARM GAS  C:\Users\Administrator\AppData\Local\Temp\ccRPys7B.s 			page 20


 428              		.loc 1 187 0
 429 020c 201C     		mov	r0, r4
 430 020e FFF7FEFF 		bl	puts
 431              	.LVL67:
 188:CustomInterface.c ****             DBG_PRINT_TEXT("\r\n");
 432              		.loc 1 188 0
 433 0212 381C     		mov	r0, r7
 434 0214 FFF7FEFF 		bl	puts
 435              	.LVL68:
 189:CustomInterface.c ****         }
 436              		.loc 1 189 0
 437 0218 381C     		mov	r0, r7
 438 021a FFF7FEFF 		bl	puts
 439              	.LVL69:
 440 021e 1BE0     		b	.L22
 441              	.LVL70:
 442              	.L9:
 201:CustomInterface.c ****             {
 443              		.loc 1 201 0
 444 0220 FFF7FEFF 		bl	Bootloader_ValidateBootloadable
 445              	.LVL71:
 446 0224 041E     		sub	r4, r0, #0
 447 0226 02D1     		bne	.L12
 203:CustomInterface.c ****             }
 448              		.loc 1 203 0
 449 0228 FFF7FEFF 		bl	Bootloader_Exit
 450              	.LVL72:
 451 022c EBE0     		b	.L8
 452              	.L12:
 207:CustomInterface.c ****                 DBG_PRINT_TEXT("BootloaderEmulator:\r\n");
 453              		.loc 1 207 0
 454 022e 381C     		mov	r0, r7
 455 0230 FFF7FEFF 		bl	puts
 456              	.LVL73:
 208:CustomInterface.c ****                 DBG_PRINT_TEXT("\tCyBtldrCommRead():\r\n");
 457              		.loc 1 208 0
 458 0234 4348     		ldr	r0, .L26+20
 459 0236 FFF7FEFF 		bl	puts
 460              	.LVL74:
 209:CustomInterface.c ****                 DBG_PRINT_TEXT("\t\tApplication Status in External Memory: UNKNOWN.\r\n");
 461              		.loc 1 209 0
 462 023a 4348     		ldr	r0, .L26+24
 463 023c FFF7FEFF 		bl	puts
 464              	.LVL75:
 210:CustomInterface.c ****                 DBG_PRINT_TEXT("\t\tApplication status: INVALID.\r\n");
 465              		.loc 1 210 0
 466 0240 5748     		ldr	r0, .L26+112
 467 0242 FFF7FEFF 		bl	puts
 468              	.LVL76:
 211:CustomInterface.c ****                 DBG_PRINT_TEXT("\t\t\tHalt Device.\r\n");
 469              		.loc 1 211 0
 470 0246 5748     		ldr	r0, .L26+116
 471 0248 FFF7FEFF 		bl	puts
 472              	.LVL77:
 212:CustomInterface.c ****                 CyHalt(0x00u);
 473              		.loc 1 212 0
 474 024c 5648     		ldr	r0, .L26+120
ARM GAS  C:\Users\Administrator\AppData\Local\Temp\ccRPys7B.s 			page 21


 475 024e FFF7FEFF 		bl	puts
 476              	.LVL78:
 213:CustomInterface.c ****             }
 477              		.loc 1 213 0
 478 0252 0020     		mov	r0, #0
 479 0254 FFF7FEFF 		bl	CyHalt
 480              	.LVL79:
 481              	.L22:
  60:CustomInterface.c ****     uint16 appExtMemChecksum;
 482              		.loc 1 60 0
 483 0258 0024     		mov	r4, #0
 484 025a D4E0     		b	.L8
 485              	.LVL80:
 486              	.L2:
 219:CustomInterface.c ****         {
 487              		.loc 1 219 0
 488 025c 039B     		ldr	r3, [sp, #12]
  60:CustomInterface.c ****     uint16 appExtMemChecksum;
 489              		.loc 1 60 0
 490 025e 0024     		mov	r4, #0
 219:CustomInterface.c ****         {
 491              		.loc 1 219 0
 492 0260 012B     		cmp	r3, #1
 493 0262 00D0     		beq	.LCB407
 494 0264 CFE0     		b	.L8	@long jump
 495              	.LCB407:
 222:CustomInterface.c ****             {
 496              		.loc 1 222 0
 497 0266 454B     		ldr	r3, .L26+76
 498 0268 344E     		ldr	r6, .L26+12
 499 026a 1A88     		ldrh	r2, [r3]
 500 026c 3188     		ldrh	r1, [r6]
 501 026e 344D     		ldr	r5, .L26+16
 502 0270 1F1C     		mov	r7, r3
 503 0272 9142     		cmp	r1, r2
 504 0274 00D2     		bcs	.LCB416
 505 0276 A3E0     		b	.L13	@long jump
 506              	.LCB416:
 507              	.LBB15:
 227:CustomInterface.c ****                 {
 508              		.loc 1 227 0
 509 0278 2F4A     		ldr	r2, .L26+8
 510 027a 1388     		ldrh	r3, [r2]
 511 027c 111C     		mov	r1, r2
 512 027e 4B4A     		ldr	r2, .L26+124
 513 0280 9342     		cmp	r3, r2
 514 0282 02D9     		bls	.L14
 229:CustomInterface.c ****                 }
 515              		.loc 1 229 0
 516 0284 4A48     		ldr	r0, .L26+128
 517              	.LVL81:
 518 0286 1B18     		add	r3, r3, r0
 519 0288 9BB2     		uxth	r3, r3
 520              	.LVL82:
 521              	.L14:
 236:CustomInterface.c ****                 buffer[CI_DATA_ADDR     ] = CY_FLASH_GET_MACRO_FROM_ROW(appFirstRowNum);
 522              		.loc 1 236 0
ARM GAS  C:\Users\Administrator\AppData\Local\Temp\ccRPys7B.s 			page 22


 523 028a 3920     		mov	r0, #57
 524 028c 019C     		ldr	r4, [sp, #4]
 525 028e 6070     		strb	r0, [r4, #1]
 237:CustomInterface.c ****                 buffer[CI_DATA_ADDR + 1u] = LO8(appFirstRowNumInArray);
 526              		.loc 1 237 0
 527 0290 0988     		ldrh	r1, [r1]
 238:CustomInterface.c ****                 buffer[CI_DATA_ADDR + 2u] = HI8(appFirstRowNumInArray);
 528              		.loc 1 238 0
 529 0292 6371     		strb	r3, [r4, #5]
 237:CustomInterface.c ****                 buffer[CI_DATA_ADDR + 1u] = LO8(appFirstRowNumInArray);
 530              		.loc 1 237 0
 531 0294 8A42     		cmp	r2, r1
 532 0296 9241     		sbc	r2, r2, r2
 533 0298 5242     		neg	r2, r2
 534 029a 2271     		strb	r2, [r4, #4]
 241:CustomInterface.c **** 				
 535              		.loc 1 241 0
 536 029c 8022     		mov	r2, #128
 239:CustomInterface.c ****                 //(void) EMI_ReadData(EMI_APP_ABS_ADDR(rowIdx), CY_FLASH_SIZEOF_ROW, (uint8 *) (buf
 537              		.loc 1 239 0
 538 029e 1B0A     		lsr	r3, r3, #8
 539              	.LVL83:
 540 02a0 A371     		strb	r3, [r4, #6]
 241:CustomInterface.c **** 				
 541              		.loc 1 241 0
 542 02a2 E01D     		add	r0, r4, #7
 543 02a4 354C     		ldr	r4, .L26+76
 544 02a6 304B     		ldr	r3, .L26+56
 545 02a8 2188     		ldrh	r1, [r4]
 546 02aa 5200     		lsl	r2, r2, #1
 547 02ac C918     		add	r1, r1, r3
 548 02ae 0902     		lsl	r1, r1, #8
 549 02b0 FFF7FEFF 		bl	W25QXX_Read
 550              	.LVL84:
 243:CustomInterface.c ****                 {
 551              		.loc 1 243 0
 552 02b4 3388     		ldrh	r3, [r6]
 553 02b6 2288     		ldrh	r2, [r4]
 554 02b8 013B     		sub	r3, r3, #1
 555 02ba 9342     		cmp	r3, r2
 556 02bc 06D1     		bne	.L15
 246:CustomInterface.c ****                     buffer[CI_DATA_ADDR + 1u] = LO8(CY_FLASH_NUMBER_ROWS - 2u - CI_FLASH_ROWS_IN_AR
 557              		.loc 1 246 0
 558 02be 0123     		mov	r3, #1
 559 02c0 019A     		ldr	r2, [sp, #4]
 247:CustomInterface.c ****                     buffer[CI_DATA_ADDR + 2u] = HI8(CY_FLASH_NUMBER_ROWS - 2u - CI_FLASH_ROWS_IN_AR
 560              		.loc 1 247 0
 561 02c2 0199     		ldr	r1, [sp, #4]
 246:CustomInterface.c ****                     buffer[CI_DATA_ADDR + 1u] = LO8(CY_FLASH_NUMBER_ROWS - 2u - CI_FLASH_ROWS_IN_AR
 562              		.loc 1 246 0
 563 02c4 1371     		strb	r3, [r2, #4]
 247:CustomInterface.c ****                     buffer[CI_DATA_ADDR + 2u] = HI8(CY_FLASH_NUMBER_ROWS - 2u - CI_FLASH_ROWS_IN_AR
 564              		.loc 1 247 0
 565 02c6 FF22     		mov	r2, #255
 248:CustomInterface.c ****                 }
 566              		.loc 1 248 0
 567 02c8 8B71     		strb	r3, [r1, #6]
ARM GAS  C:\Users\Administrator\AppData\Local\Temp\ccRPys7B.s 			page 23


 247:CustomInterface.c ****                     buffer[CI_DATA_ADDR + 2u] = HI8(CY_FLASH_NUMBER_ROWS - 2u - CI_FLASH_ROWS_IN_AR
 568              		.loc 1 247 0
 569 02ca 4A71     		strb	r2, [r1, #5]
 570              	.L15:
 251:CustomInterface.c ****                 rspSize = CI_COMMAND_PROGRAM_PACKET_DATA_SIZE;
 571              		.loc 1 251 0
 572 02cc 8523     		mov	r3, #133
 573 02ce 029A     		ldr	r2, [sp, #8]
 574 02d0 5B00     		lsl	r3, r3, #1
 575 02d2 1380     		strh	r3, [r2]
 576              	.LVL85:
 254:CustomInterface.c ****                 appFirstRowNum++;
 577              		.loc 1 254 0
 578 02d4 3B88     		ldrh	r3, [r7]
 255:CustomInterface.c **** 
 579              		.loc 1 255 0
 580 02d6 184C     		ldr	r4, .L26+8
 254:CustomInterface.c ****                 appFirstRowNum++;
 581              		.loc 1 254 0
 582 02d8 0133     		add	r3, r3, #1
 583 02da 3B80     		strh	r3, [r7]
 255:CustomInterface.c **** 
 584              		.loc 1 255 0
 585 02dc 2388     		ldrh	r3, [r4]
 257:CustomInterface.c ****                 DBG_PRINT_TEXT("CustomInterface:\r\n");
 586              		.loc 1 257 0
 587 02de 281C     		mov	r0, r5
 255:CustomInterface.c **** 
 588              		.loc 1 255 0
 589 02e0 0133     		add	r3, r3, #1
 590 02e2 2380     		strh	r3, [r4]
 257:CustomInterface.c ****                 DBG_PRINT_TEXT("CustomInterface:\r\n");
 591              		.loc 1 257 0
 592 02e4 FFF7FEFF 		bl	puts
 593              	.LVL86:
 258:CustomInterface.c ****                 DBG_PRINT_TEXT("\tCyBtldrCommRead():\r\n");
 594              		.loc 1 258 0
 595 02e8 2148     		ldr	r0, .L26+64
 596 02ea FFF7FEFF 		bl	puts
 597              	.LVL87:
 259:CustomInterface.c ****                 DBG_PRINT_TEXT("\t\tProgram Row:\r\n");
 598              		.loc 1 259 0
 599 02ee 1648     		ldr	r0, .L26+24
 600 02f0 FFF7FEFF 		bl	puts
 601              	.LVL88:
 260:CustomInterface.c **** 
 602              		.loc 1 260 0
 603 02f4 2F48     		ldr	r0, .L26+132
 604 02f6 FFF7FEFF 		bl	puts
 605              	.LVL89:
 262:CustomInterface.c ****                 DBG_PRINT_HEX(rowIdx - 1u);
 606              		.loc 1 262 0
 607 02fa 2F48     		ldr	r0, .L26+136
 608 02fc FFF7FEFF 		bl	printf
 609              	.LVL90:
 263:CustomInterface.c ****                 DBG_PRINT_TEXT("\r\n");
 610              		.loc 1 263 0
ARM GAS  C:\Users\Administrator\AppData\Local\Temp\ccRPys7B.s 			page 24


 611 0300 134E     		ldr	r6, .L26+32
 612 0302 3988     		ldrh	r1, [r7]
 613 0304 301C     		mov	r0, r6
 614 0306 0139     		sub	r1, r1, #1
 615 0308 FFF7FEFF 		bl	printf
 616              	.LVL91:
 264:CustomInterface.c **** 
 617              		.loc 1 264 0
 618 030c 281C     		mov	r0, r5
 619 030e FFF7FEFF 		bl	puts
 620              	.LVL92:
 266:CustomInterface.c ****                 DBG_PRINT_HEX(appFirstRowNum - 1u);
 621              		.loc 1 266 0
 622 0312 2A48     		ldr	r0, .L26+140
 623 0314 FFF7FEFF 		bl	printf
 624              	.LVL93:
 267:CustomInterface.c ****                 DBG_PRINT_TEXT("\r\n");
 625              		.loc 1 267 0
 626 0318 2188     		ldrh	r1, [r4]
 252:CustomInterface.c ****                 rspCode = CYRET_SUCCESS;
 627              		.loc 1 252 0
 628 031a 0424     		mov	r4, #4
 267:CustomInterface.c ****                 DBG_PRINT_TEXT("\r\n");
 629              		.loc 1 267 0
 630 031c 0139     		sub	r1, r1, #1
 631 031e 301C     		mov	r0, r6
 632 0320 FFF7FEFF 		bl	printf
 633              	.LVL94:
 268:CustomInterface.c ****             }
 634              		.loc 1 268 0
 635 0324 281C     		mov	r0, r5
 636 0326 FFF7FEFF 		bl	puts
 637              	.LVL95:
 252:CustomInterface.c ****                 rspCode = CYRET_SUCCESS;
 638              		.loc 1 252 0
 639 032a FF34     		add	r4, r4, #255
 640              	.LBE15:
 641 032c 6BE0     		b	.L8
 642              	.L27:
 643 032e C046     		.align	2
 644              	.L26:
 645 0330 00000000 		.word	.LANCHOR0
 646 0334 00000000 		.word	metadata
 647 0338 00000000 		.word	appFirstRowNum
 648 033c 00000000 		.word	flashRowTotal
 649 0340 00000000 		.word	.LC6
 650 0344 02000000 		.word	.LC8
 651 0348 17000000 		.word	.LC10
 652 034c 2C000000 		.word	.LC12
 653 0350 57000000 		.word	.LC14
 654 0354 5D000000 		.word	.LC16
 655 0358 8A000000 		.word	.LC18
 656 035c BC000000 		.word	.LC20
 657 0360 E3000000 		.word	.LC22
 658 0364 00000000 		.word	encryptionEnabled
 659 0368 21030000 		.word	801
 660 036c 00210300 		.word	205056
ARM GAS  C:\Users\Administrator\AppData\Local\Temp\ccRPys7B.s 			page 25


 661 0370 08010000 		.word	.LC25
 662 0374 1A010000 		.word	.LC27
 663 0378 38010000 		.word	.LC29
 664 037c 00000000 		.word	rowIdx
 665 0380 53010000 		.word	.LC32
 666 0384 83010000 		.word	.LC34
 667 0388 BB010000 		.word	.LC36
 668 038c ED010000 		.word	.LC38
 669 0390 1C020000 		.word	.LC40
 670 0394 3A020000 		.word	.LC42
 671 0398 72020000 		.word	.LC44
 672 039c C3020000 		.word	.LC46
 673 03a0 14030000 		.word	.LC48
 674 03a4 47030000 		.word	.LC50
 675 03a8 67030000 		.word	.LC52
 676 03ac FF010000 		.word	511
 677 03b0 00FEFFFF 		.word	-512
 678 03b4 78030000 		.word	.LC54
 679 03b8 88030000 		.word	.LC56
 680 03bc 97030000 		.word	.LC58
 681              	.LVL96:
 682              	.L13:
 276:CustomInterface.c ****                 metadata[EMI_MD_APP_STATUS_ADDR] = EMI_MD_APP_STATUS_LOADED;
 683              		.loc 1 276 0
 684 03c0 C821     		mov	r1, #200
 685 03c2 8022     		mov	r2, #128
 686 03c4 5A4E     		ldr	r6, .L28
 687 03c6 8902     		lsl	r1, r1, #10
 688 03c8 301C     		mov	r0, r6
 689              	.LVL97:
 690 03ca 5200     		lsl	r2, r2, #1
 691 03cc FFF7FEFF 		bl	W25QXX_Read
 692              	.LVL98:
 279:CustomInterface.c **** 				
 693              		.loc 1 279 0
 694 03d0 C821     		mov	r1, #200
 695 03d2 8022     		mov	r2, #128
 277:CustomInterface.c ****                 //(void) EMI_WriteData(EMI_MD_BASE_ADDR, CY_FLASH_SIZEOF_ROW , metadata);
 696              		.loc 1 277 0
 697 03d4 4C23     		mov	r3, #76
 279:CustomInterface.c **** 				
 698              		.loc 1 279 0
 699 03d6 8902     		lsl	r1, r1, #10
 700 03d8 301C     		mov	r0, r6
 701 03da 5200     		lsl	r2, r2, #1
 277:CustomInterface.c ****                 //(void) EMI_WriteData(EMI_MD_BASE_ADDR, CY_FLASH_SIZEOF_ROW , metadata);
 702              		.loc 1 277 0
 703 03dc 3370     		strb	r3, [r6]
 279:CustomInterface.c **** 				
 704              		.loc 1 279 0
 705 03de FFF7FEFF 		bl	W25QXX_Write
 706              	.LVL99:
 282:CustomInterface.c ****                 *count = CI_COMMAND_EXIT_PACKET_SIZE;
 707              		.loc 1 282 0
 708 03e2 3B23     		mov	r3, #59
 709 03e4 019A     		ldr	r2, [sp, #4]
 287:CustomInterface.c ****                 DBG_PRINT_TEXT("BootloaderEmulator:\r\n");
ARM GAS  C:\Users\Administrator\AppData\Local\Temp\ccRPys7B.s 			page 26


 710              		.loc 1 287 0
 711 03e6 281C     		mov	r0, r5
 282:CustomInterface.c ****                 *count = CI_COMMAND_EXIT_PACKET_SIZE;
 712              		.loc 1 282 0
 713 03e8 5370     		strb	r3, [r2, #1]
 283:CustomInterface.c ****                 rspSize = CI_COMMAND_EXIT_PACKET_DATA_SIZE;
 714              		.loc 1 283 0
 715 03ea 029A     		ldr	r2, [sp, #8]
 716 03ec 343B     		sub	r3, r3, #52
 717 03ee 1380     		strh	r3, [r2]
 718              	.LVL100:
 287:CustomInterface.c ****                 DBG_PRINT_TEXT("BootloaderEmulator:\r\n");
 719              		.loc 1 287 0
 720 03f0 FFF7FEFF 		bl	puts
 721              	.LVL101:
 288:CustomInterface.c ****                 DBG_PRINT_TEXT("\tCyBtldrCommRead():\r\n");
 722              		.loc 1 288 0
 723 03f4 4F48     		ldr	r0, .L28+4
 724 03f6 FFF7FEFF 		bl	puts
 725              	.LVL102:
 289:CustomInterface.c ****                 DBG_PRINT_TEXT("\t\tExit Bootloader:\r\n");
 726              		.loc 1 289 0
 727 03fa 4F48     		ldr	r0, .L28+8
 728 03fc FFF7FEFF 		bl	puts
 729              	.LVL103:
 290:CustomInterface.c ****             }
 730              		.loc 1 290 0
 731 0400 4E48     		ldr	r0, .L28+12
 732              	.L21:
 733 0402 FFF7FEFF 		bl	puts
 734              	.LVL104:
 735              	.L8:
 736              	.LBB16:
 737              	.LBB17:
 512:CustomInterface.c ****     buffer[CI_SIZE_ADDR]      = LO8(size);
 738              		.loc 1 512 0
 739 0406 0122     		mov	r2, #1
 740              	.LBB18:
 741              	.LBB19:
 473:CustomInterface.c **** 
 742              		.loc 1 473 0
 743 0408 0026     		mov	r6, #0
 744              	.LBE19:
 745              	.LBE18:
 512:CustomInterface.c ****     buffer[CI_SIZE_ADDR]      = LO8(size);
 746              		.loc 1 512 0
 747 040a 0199     		ldr	r1, [sp, #4]
 748              	.LBE17:
 749              	.LBE16:
 296:CustomInterface.c **** 
 750              		.loc 1 296 0
 751 040c A3B2     		uxth	r3, r4
 752              	.LVL105:
 753              	.LBB26:
 754              	.LBB25:
 512:CustomInterface.c ****     buffer[CI_SIZE_ADDR]      = LO8(size);
 755              		.loc 1 512 0
ARM GAS  C:\Users\Administrator\AppData\Local\Temp\ccRPys7B.s 			page 27


 756 040e 0A70     		strb	r2, [r1]
 514:CustomInterface.c **** 
 757              		.loc 1 514 0
 758 0410 1A0A     		lsr	r2, r3, #8
 517:CustomInterface.c **** 
 759              		.loc 1 517 0
 760 0412 0433     		add	r3, r3, #4
 513:CustomInterface.c ****     buffer[CI_SIZE_ADDR + 1u] = HI8(size);
 761              		.loc 1 513 0
 762 0414 8C70     		strb	r4, [r1, #2]
 514:CustomInterface.c **** 
 763              		.loc 1 514 0
 764 0416 CA70     		strb	r2, [r1, #3]
 517:CustomInterface.c **** 
 765              		.loc 1 517 0
 766 0418 9BB2     		uxth	r3, r3
 767              	.LVL106:
 768              	.L16:
 769              	.LBB22:
 770              	.LBB20:
 477:CustomInterface.c ****             size--;
 771              		.loc 1 477 0
 772 041a 019A     		ldr	r2, [sp, #4]
 773 041c D218     		add	r2, r2, r3
 774 041e 013A     		sub	r2, r2, #1
 775 0420 1278     		ldrb	r2, [r2]
 478:CustomInterface.c ****         }
 776              		.loc 1 478 0
 777 0422 013B     		sub	r3, r3, #1
 778              	.LVL107:
 477:CustomInterface.c ****             size--;
 779              		.loc 1 477 0
 780 0424 B618     		add	r6, r6, r2
 781              	.LVL108:
 478:CustomInterface.c ****         }
 782              		.loc 1 478 0
 783 0426 9BB2     		uxth	r3, r3
 477:CustomInterface.c ****             size--;
 784              		.loc 1 477 0
 785 0428 B6B2     		uxth	r6, r6
 786              	.LVL109:
 475:CustomInterface.c ****         {
 787              		.loc 1 475 0
 788 042a 002B     		cmp	r3, #0
 789 042c F5D1     		bne	.L16
 790              	.LBE20:
 791              	.LBE22:
 519:CustomInterface.c ****     buffer[CI_CHK_ADDR(1u + size)] = HI8(checksum);
 792              		.loc 1 519 0
 793 042e 019B     		ldr	r3, [sp, #4]
 794              	.LVL110:
 795              	.LBB23:
 796              	.LBB21:
 481:CustomInterface.c **** 
 797              		.loc 1 481 0
 798 0430 7642     		neg	r6, r6
 799              	.LVL111:
ARM GAS  C:\Users\Administrator\AppData\Local\Temp\ccRPys7B.s 			page 28


 800 0432 B6B2     		uxth	r6, r6
 801              	.LVL112:
 802              	.LBE21:
 803              	.LBE23:
 519:CustomInterface.c ****     buffer[CI_CHK_ADDR(1u + size)] = HI8(checksum);
 804              		.loc 1 519 0
 805 0434 1B19     		add	r3, r3, r4
 520:CustomInterface.c ****     buffer[CI_EOP_ADDR(size)]      = CI_EOP;
 806              		.loc 1 520 0
 807 0436 320A     		lsr	r2, r6, #8
 808 0438 5A71     		strb	r2, [r3, #5]
 521:CustomInterface.c **** 
 809              		.loc 1 521 0
 810 043a 019A     		ldr	r2, [sp, #4]
 519:CustomInterface.c ****     buffer[CI_CHK_ADDR(1u + size)] = HI8(checksum);
 811              		.loc 1 519 0
 812 043c 1E71     		strb	r6, [r3, #4]
 521:CustomInterface.c **** 
 813              		.loc 1 521 0
 814 043e A31D     		add	r3, r4, #6
 815 0440 D318     		add	r3, r2, r3
 816 0442 0293     		str	r3, [sp, #8]
 817              	.LVL113:
 818 0444 1723     		mov	r3, #23
 819 0446 029A     		ldr	r2, [sp, #8]
 523:CustomInterface.c ****     DBG_PRINT_TEXT("CustomInterface:\r\n");
 820              		.loc 1 523 0
 821 0448 3D4D     		ldr	r5, .L28+16
 521:CustomInterface.c **** 
 822              		.loc 1 521 0
 823 044a 1370     		strb	r3, [r2]
 523:CustomInterface.c ****     DBG_PRINT_TEXT("CustomInterface:\r\n");
 824              		.loc 1 523 0
 825 044c 281C     		mov	r0, r5
 826 044e FFF7FEFF 		bl	puts
 827              	.LVL114:
 524:CustomInterface.c ****     DBG_PRINT_TEXT("\tCI_WritePacket():\r\n");
 828              		.loc 1 524 0
 829 0452 3C48     		ldr	r0, .L28+20
 830 0454 FFF7FEFF 		bl	puts
 831              	.LVL115:
 525:CustomInterface.c **** 
 832              		.loc 1 525 0
 833 0458 3B48     		ldr	r0, .L28+24
 834 045a FFF7FEFF 		bl	puts
 835              	.LVL116:
 527:CustomInterface.c ****     DBG_PRINT_HEX(buffer[CI_SOP_ADDR]);
 836              		.loc 1 527 0
 837 045e 3B48     		ldr	r0, .L28+28
 838 0460 FFF7FEFF 		bl	printf
 839              	.LVL117:
 528:CustomInterface.c ****     DBG_PRINT_TEXT("\r\n");
 840              		.loc 1 528 0
 841 0464 019B     		ldr	r3, [sp, #4]
 842 0466 3A4F     		ldr	r7, .L28+32
 843 0468 1978     		ldrb	r1, [r3]
 844 046a 381C     		mov	r0, r7
ARM GAS  C:\Users\Administrator\AppData\Local\Temp\ccRPys7B.s 			page 29


 845 046c FFF7FEFF 		bl	printf
 846              	.LVL118:
 529:CustomInterface.c **** 
 847              		.loc 1 529 0
 848 0470 281C     		mov	r0, r5
 849 0472 FFF7FEFF 		bl	puts
 850              	.LVL119:
 531:CustomInterface.c ****     DBG_PRINT_HEX(buffer[CI_CMD_ADDR]);
 851              		.loc 1 531 0
 852 0476 3748     		ldr	r0, .L28+36
 853 0478 FFF7FEFF 		bl	printf
 854              	.LVL120:
 532:CustomInterface.c ****     DBG_PRINT_TEXT("\r\n");
 855              		.loc 1 532 0
 856 047c 019B     		ldr	r3, [sp, #4]
 857 047e 381C     		mov	r0, r7
 858 0480 5978     		ldrb	r1, [r3, #1]
 859 0482 FFF7FEFF 		bl	printf
 860              	.LVL121:
 533:CustomInterface.c **** 
 861              		.loc 1 533 0
 862 0486 281C     		mov	r0, r5
 863 0488 FFF7FEFF 		bl	puts
 864              	.LVL122:
 535:CustomInterface.c ****     DBG_PRINT_HEX(size);
 865              		.loc 1 535 0
 866 048c 3248     		ldr	r0, .L28+40
 867 048e FFF7FEFF 		bl	printf
 868              	.LVL123:
 536:CustomInterface.c ****     DBG_PRINT_TEXT("\r\n");
 869              		.loc 1 536 0
 870 0492 211C     		mov	r1, r4
 871 0494 381C     		mov	r0, r7
 872 0496 FFF7FEFF 		bl	printf
 873              	.LVL124:
 537:CustomInterface.c **** 
 874              		.loc 1 537 0
 875 049a 281C     		mov	r0, r5
 876 049c FFF7FEFF 		bl	puts
 877              	.LVL125:
 539:CustomInterface.c ****     {
 878              		.loc 1 539 0
 879 04a0 019B     		ldr	r3, [sp, #4]
 880 04a2 5B78     		ldrb	r3, [r3, #1]
 881 04a4 392B     		cmp	r3, #57
 882 04a6 18D1     		bne	.L17
 541:CustomInterface.c ****         DBG_PRINT_HEX(buffer[CI_DATA_ADDR ]);
 883              		.loc 1 541 0
 884 04a8 2C48     		ldr	r0, .L28+44
 885 04aa FFF7FEFF 		bl	printf
 886              	.LVL126:
 542:CustomInterface.c ****         DBG_PRINT_TEXT("\r\n");
 887              		.loc 1 542 0
 888 04ae 019B     		ldr	r3, [sp, #4]
 889 04b0 381C     		mov	r0, r7
 890 04b2 1979     		ldrb	r1, [r3, #4]
 891 04b4 FFF7FEFF 		bl	printf
ARM GAS  C:\Users\Administrator\AppData\Local\Temp\ccRPys7B.s 			page 30


 892              	.LVL127:
 543:CustomInterface.c **** 
 893              		.loc 1 543 0
 894 04b8 281C     		mov	r0, r5
 895 04ba FFF7FEFF 		bl	puts
 896              	.LVL128:
 545:CustomInterface.c ****         DBG_PRINT_HEX(buffer[CI_DATA_ADDR + 2] << 8 | buffer[CI_DATA_ADDR + 1]);
 897              		.loc 1 545 0
 898 04be 2848     		ldr	r0, .L28+48
 899 04c0 FFF7FEFF 		bl	printf
 900              	.LVL129:
 546:CustomInterface.c ****         DBG_PRINT_TEXT("\r\n");
 901              		.loc 1 546 0
 902 04c4 019B     		ldr	r3, [sp, #4]
 903 04c6 381C     		mov	r0, r7
 904 04c8 9979     		ldrb	r1, [r3, #6]
 905 04ca 5B79     		ldrb	r3, [r3, #5]
 906 04cc 0902     		lsl	r1, r1, #8
 907 04ce 1943     		orr	r1, r3
 908 04d0 FFF7FEFF 		bl	printf
 909              	.LVL130:
 547:CustomInterface.c ****     }
 910              		.loc 1 547 0
 911 04d4 281C     		mov	r0, r5
 912 04d6 FFF7FEFF 		bl	puts
 913              	.LVL131:
 914              	.L17:
 550:CustomInterface.c ****     DBG_PRINT_HEX(checksum);
 915              		.loc 1 550 0
 916 04da 2248     		ldr	r0, .L28+52
 917 04dc FFF7FEFF 		bl	printf
 918              	.LVL132:
 551:CustomInterface.c ****     DBG_PRINT_TEXT("\r\n");
 919              		.loc 1 551 0
 920 04e0 311C     		mov	r1, r6
 921 04e2 381C     		mov	r0, r7
 922 04e4 FFF7FEFF 		bl	printf
 923              	.LVL133:
 552:CustomInterface.c **** 
 924              		.loc 1 552 0
 925 04e8 281C     		mov	r0, r5
 926 04ea FFF7FEFF 		bl	puts
 927              	.LVL134:
 554:CustomInterface.c ****     DBG_PRINT_HEX(buffer[CI_EOP_ADDR(size)]);
 928              		.loc 1 554 0
 929 04ee 1E48     		ldr	r0, .L28+56
 930 04f0 FFF7FEFF 		bl	printf
 931              	.LVL135:
 555:CustomInterface.c ****     DBG_PRINT_TEXT("\r\n");
 932              		.loc 1 555 0
 933 04f4 029B     		ldr	r3, [sp, #8]
 934 04f6 381C     		mov	r0, r7
 935 04f8 1978     		ldrb	r1, [r3]
 936 04fa FFF7FEFF 		bl	printf
 937              	.LVL136:
 556:CustomInterface.c **** 
 938              		.loc 1 556 0
ARM GAS  C:\Users\Administrator\AppData\Local\Temp\ccRPys7B.s 			page 31


 939 04fe 281C     		mov	r0, r5
 940 0500 FFF7FEFF 		bl	puts
 941              	.LVL137:
 558:CustomInterface.c ****     DBG_PRINT_ARRAY(buffer, CI_EOP_ADDR(size) + 1u);
 942              		.loc 1 558 0
 943 0504 1948     		ldr	r0, .L28+60
 944 0506 FFF7FEFF 		bl	printf
 945              	.LVL138:
 946 050a 019E     		ldr	r6, [sp, #4]
 947              	.LVL139:
 948              	.L18:
 949 050c 019B     		ldr	r3, [sp, #4]
 950              	.LBB24:
 559:CustomInterface.c ****     DBG_PRINT_TEXT("\r\n");
 951              		.loc 1 559 0
 952 050e E21D     		add	r2, r4, #7
 953 0510 F31A     		sub	r3, r6, r3
 954 0512 9342     		cmp	r3, r2
 955 0514 05D2     		bcs	.L25
 956 0516 3178     		ldrb	r1, [r6]
 957 0518 1548     		ldr	r0, .L28+64
 958 051a FFF7FEFF 		bl	printf
 959              	.LVL140:
 960 051e 0136     		add	r6, r6, #1
 961              	.LVL141:
 962 0520 F4E7     		b	.L18
 963              	.L25:
 964              	.LBE24:
 560:CustomInterface.c **** 
 965              		.loc 1 560 0
 966 0522 281C     		mov	r0, r5
 967 0524 FFF7FEFF 		bl	puts
 968              	.LVL142:
 969              	.LBE25:
 970              	.LBE26:
 299:CustomInterface.c **** 
 971              		.loc 1 299 0
 972 0528 0020     		mov	r0, #0
 973 052a 47B0     		add	sp, sp, #284
 974              		@ sp needed
 975              	.LVL143:
 976              	.LVL144:
 977 052c F0BD     		pop	{r4, r5, r6, r7, pc}
 978              	.L29:
 979 052e C046     		.align	2
 980              	.L28:
 981 0530 00000000 		.word	metadata
 982 0534 02000000 		.word	.LC8
 983 0538 17000000 		.word	.LC10
 984 053c AE030000 		.word	.LC60
 985 0540 00000000 		.word	.LC6
 986 0544 08010000 		.word	.LC25
 987 0548 C2030000 		.word	.LC62
 988 054c D6030000 		.word	.LC64
 989 0550 57000000 		.word	.LC14
 990 0554 E7030000 		.word	.LC66
 991 0558 F8030000 		.word	.LC68
ARM GAS  C:\Users\Administrator\AppData\Local\Temp\ccRPys7B.s 			page 32


 992 055c 09040000 		.word	.LC70
 993 0560 1C040000 		.word	.LC72
 994 0564 2D040000 		.word	.LC74
 995 0568 3E040000 		.word	.LC76
 996 056c 4F040000 		.word	.LC78
 997 0570 5E040000 		.word	.LC80
 998              		.cfi_endproc
 999              	.LFE37:
 1000              		.size	CyBtldrCommRead, .-CyBtldrCommRead
 1001              		.section	.text.CyBtldrCommStart,"ax",%progbits
 1002              		.align	1
 1003              		.global	CyBtldrCommStart
 1004              		.code	16
 1005              		.thumb_func
 1006              		.type	CyBtldrCommStart, %function
 1007              	CyBtldrCommStart:
 1008              	.LFB38:
 317:CustomInterface.c ****     numOfRxedRows = 0u;
 1009              		.loc 1 317 0
 1010              		.cfi_startproc
 318:CustomInterface.c ****     communicationState = CI_COMMUNICATION_STATE_IDLE;
 1011              		.loc 1 318 0
 1012 0000 0023     		mov	r3, #0
 1013 0002 0A4A     		ldr	r2, .L31
 317:CustomInterface.c ****     numOfRxedRows = 0u;
 1014              		.loc 1 317 0
 1015 0004 10B5     		push	{r4, lr}
 1016              		.cfi_def_cfa_offset 8
 1017              		.cfi_offset 4, -8
 1018              		.cfi_offset 14, -4
 318:CustomInterface.c ****     communicationState = CI_COMMUNICATION_STATE_IDLE;
 1019              		.loc 1 318 0
 1020 0006 1360     		str	r3, [r2]
 319:CustomInterface.c **** 
 1021              		.loc 1 319 0
 1022 0008 094A     		ldr	r2, .L31+4
 330:CustomInterface.c **** 
 1023              		.loc 1 330 0
 1024              		@ sp needed
 319:CustomInterface.c **** 
 1025              		.loc 1 319 0
 1026 000a 1360     		str	r3, [r2]
 323:CustomInterface.c **** 	
 1027              		.loc 1 323 0
 1028 000c FFF7FEFF 		bl	W25QXX_Init
 1029              	.LVL145:
 325:CustomInterface.c ****     DBG_PRINT_TEXT("W25QXX_Init in:\r\n");
 1030              		.loc 1 325 0
 1031 0010 084C     		ldr	r4, .L31+8
 1032 0012 201C     		mov	r0, r4
 1033 0014 FFF7FEFF 		bl	puts
 1034              	.LVL146:
 326:CustomInterface.c ****     DBG_PRINT_TEXT("\tCyBtldrCommStart():\r\n");
 1035              		.loc 1 326 0
 1036 0018 0748     		ldr	r0, .L31+12
 1037 001a FFF7FEFF 		bl	puts
 1038              	.LVL147:
ARM GAS  C:\Users\Administrator\AppData\Local\Temp\ccRPys7B.s 			page 33


 327:CustomInterface.c ****     DBG_PRINT_TEXT("\r\n");
 1039              		.loc 1 327 0
 1040 001e 0748     		ldr	r0, .L31+16
 1041 0020 FFF7FEFF 		bl	puts
 1042              	.LVL148:
 328:CustomInterface.c **** 
 1043              		.loc 1 328 0
 1044 0024 201C     		mov	r0, r4
 1045 0026 FFF7FEFF 		bl	puts
 1046              	.LVL149:
 330:CustomInterface.c **** 
 1047              		.loc 1 330 0
 1048 002a 10BD     		pop	{r4, pc}
 1049              	.L32:
 1050              		.align	2
 1051              	.L31:
 1052 002c 00000000 		.word	numOfRxedRows
 1053 0030 00000000 		.word	.LANCHOR0
 1054 0034 00000000 		.word	.LC6
 1055 0038 64040000 		.word	.LC85
 1056 003c 75040000 		.word	.LC87
 1057              		.cfi_endproc
 1058              	.LFE38:
 1059              		.size	CyBtldrCommStart, .-CyBtldrCommStart
 1060              		.section	.text.CyBtldrCommStop,"ax",%progbits
 1061              		.align	1
 1062              		.global	CyBtldrCommStop
 1063              		.code	16
 1064              		.thumb_func
 1065              		.type	CyBtldrCommStop, %function
 1066              	CyBtldrCommStop:
 1067              	.LFB39:
 348:CustomInterface.c ****     DBG_PRINT_TEXT("\r\n");
 1068              		.loc 1 348 0
 1069              		.cfi_startproc
 1070 0000 10B5     		push	{r4, lr}
 1071              		.cfi_def_cfa_offset 8
 1072              		.cfi_offset 4, -8
 1073              		.cfi_offset 14, -4
 349:CustomInterface.c ****     DBG_PRINT_TEXT("CustomInterface:\r\n");
 1074              		.loc 1 349 0
 1075 0002 074C     		ldr	r4, .L34
 353:CustomInterface.c **** 
 1076              		.loc 1 353 0
 1077              		@ sp needed
 349:CustomInterface.c ****     DBG_PRINT_TEXT("CustomInterface:\r\n");
 1078              		.loc 1 349 0
 1079 0004 201C     		mov	r0, r4
 1080 0006 FFF7FEFF 		bl	puts
 1081              	.LVL150:
 350:CustomInterface.c ****     DBG_PRINT_TEXT("\tCyBtldrCommStop():\r\n");
 1082              		.loc 1 350 0
 1083 000a 0648     		ldr	r0, .L34+4
 1084 000c FFF7FEFF 		bl	puts
 1085              	.LVL151:
 351:CustomInterface.c ****     DBG_PRINT_TEXT("\r\n");
 1086              		.loc 1 351 0
ARM GAS  C:\Users\Administrator\AppData\Local\Temp\ccRPys7B.s 			page 34


 1087 0010 0548     		ldr	r0, .L34+8
 1088 0012 FFF7FEFF 		bl	puts
 1089              	.LVL152:
 352:CustomInterface.c **** }
 1090              		.loc 1 352 0
 1091 0016 201C     		mov	r0, r4
 1092 0018 FFF7FEFF 		bl	puts
 1093              	.LVL153:
 353:CustomInterface.c **** 
 1094              		.loc 1 353 0
 1095 001c 10BD     		pop	{r4, pc}
 1096              	.L35:
 1097 001e C046     		.align	2
 1098              	.L34:
 1099 0020 00000000 		.word	.LC6
 1100 0024 08010000 		.word	.LC25
 1101 0028 8B040000 		.word	.LC91
 1102              		.cfi_endproc
 1103              	.LFE39:
 1104              		.size	CyBtldrCommStop, .-CyBtldrCommStop
 1105              		.section	.text.CyBtldrCommReset,"ax",%progbits
 1106              		.align	1
 1107              		.global	CyBtldrCommReset
 1108              		.code	16
 1109              		.thumb_func
 1110              		.type	CyBtldrCommReset, %function
 1111              	CyBtldrCommReset:
 1112              	.LFB40:
 371:CustomInterface.c ****     DBG_PRINT_TEXT("\r\n");
 1113              		.loc 1 371 0
 1114              		.cfi_startproc
 1115 0000 10B5     		push	{r4, lr}
 1116              		.cfi_def_cfa_offset 8
 1117              		.cfi_offset 4, -8
 1118              		.cfi_offset 14, -4
 372:CustomInterface.c ****     DBG_PRINT_TEXT("CustomInterface:\r\n");
 1119              		.loc 1 372 0
 1120 0002 074C     		ldr	r4, .L37
 376:CustomInterface.c **** 
 1121              		.loc 1 376 0
 1122              		@ sp needed
 372:CustomInterface.c ****     DBG_PRINT_TEXT("CustomInterface:\r\n");
 1123              		.loc 1 372 0
 1124 0004 201C     		mov	r0, r4
 1125 0006 FFF7FEFF 		bl	puts
 1126              	.LVL154:
 373:CustomInterface.c ****     DBG_PRINT_TEXT("\tCyBtldrCommReset():\r\n");
 1127              		.loc 1 373 0
 1128 000a 0648     		ldr	r0, .L37+4
 1129 000c FFF7FEFF 		bl	puts
 1130              	.LVL155:
 374:CustomInterface.c ****     DBG_PRINT_TEXT("\r\n");
 1131              		.loc 1 374 0
 1132 0010 0548     		ldr	r0, .L37+8
 1133 0012 FFF7FEFF 		bl	puts
 1134              	.LVL156:
 375:CustomInterface.c **** }
ARM GAS  C:\Users\Administrator\AppData\Local\Temp\ccRPys7B.s 			page 35


 1135              		.loc 1 375 0
 1136 0016 201C     		mov	r0, r4
 1137 0018 FFF7FEFF 		bl	puts
 1138              	.LVL157:
 376:CustomInterface.c **** 
 1139              		.loc 1 376 0
 1140 001c 10BD     		pop	{r4, pc}
 1141              	.L38:
 1142 001e C046     		.align	2
 1143              	.L37:
 1144 0020 00000000 		.word	.LC6
 1145 0024 08010000 		.word	.LC25
 1146 0028 A0040000 		.word	.LC95
 1147              		.cfi_endproc
 1148              	.LFE40:
 1149              		.size	CyBtldrCommReset, .-CyBtldrCommReset
 1150              		.section	.text.CyBtldrCommWrite,"ax",%progbits
 1151              		.align	1
 1152              		.global	CyBtldrCommWrite
 1153              		.code	16
 1154              		.thumb_func
 1155              		.type	CyBtldrCommWrite, %function
 1156              	CyBtldrCommWrite:
 1157              	.LFB41:
 394:CustomInterface.c ****     buffer = buffer;
 1158              		.loc 1 394 0
 1159              		.cfi_startproc
 1160              	.LVL158:
 1161 0000 10B5     		push	{r4, lr}
 1162              		.cfi_def_cfa_offset 8
 1163              		.cfi_offset 4, -8
 1164              		.cfi_offset 14, -4
 400:CustomInterface.c ****     DBG_PRINT_TEXT("CustomInterface:\r\n");
 1165              		.loc 1 400 0
 1166 0002 074C     		ldr	r4, .L40
 406:CustomInterface.c **** 
 1167              		.loc 1 406 0
 1168              		@ sp needed
 400:CustomInterface.c ****     DBG_PRINT_TEXT("CustomInterface:\r\n");
 1169              		.loc 1 400 0
 1170 0004 201C     		mov	r0, r4
 1171              	.LVL159:
 1172 0006 FFF7FEFF 		bl	puts
 1173              	.LVL160:
 401:CustomInterface.c ****     DBG_PRINT_TEXT("\tCyBtldrCommWrite():\r\n");
 1174              		.loc 1 401 0
 1175 000a 0648     		ldr	r0, .L40+4
 1176 000c FFF7FEFF 		bl	puts
 1177              	.LVL161:
 402:CustomInterface.c ****     DBG_PRINT_TEXT("\r\n");
 1178              		.loc 1 402 0
 1179 0010 0548     		ldr	r0, .L40+8
 1180 0012 FFF7FEFF 		bl	puts
 1181              	.LVL162:
 403:CustomInterface.c **** 
 1182              		.loc 1 403 0
 1183 0016 201C     		mov	r0, r4
ARM GAS  C:\Users\Administrator\AppData\Local\Temp\ccRPys7B.s 			page 36


 1184 0018 FFF7FEFF 		bl	puts
 1185              	.LVL163:
 406:CustomInterface.c **** 
 1186              		.loc 1 406 0
 1187 001c 0020     		mov	r0, #0
 1188 001e 10BD     		pop	{r4, pc}
 1189              	.L41:
 1190              		.align	2
 1191              	.L40:
 1192 0020 00000000 		.word	.LC6
 1193 0024 08010000 		.word	.LC25
 1194 0028 B6040000 		.word	.LC99
 1195              		.cfi_endproc
 1196              	.LFE41:
 1197              		.size	CyBtldrCommWrite, .-CyBtldrCommWrite
 1198              		.comm	flashRowTotal,2,2
 1199              		.comm	rowIdx,2,2
 1200              		.comm	numOfRows,2,2
 1201              		.comm	numOfRxedRows,4,4
 1202              		.global	communicationState
 1203              		.section	.rodata.str1.1,"aMS",%progbits,1
 1204              	.LC6:
 1205 0000 0D00     		.ascii	"\015\000"
 1206              	.LC8:
 1207 0002 426F6F74 		.ascii	"BootloaderEmulator:\015\000"
 1207      6C6F6164 
 1207      6572456D 
 1207      756C6174 
 1207      6F723A0D 
 1208              	.LC10:
 1209 0017 09437942 		.ascii	"\011CyBtldrCommRead():\015\000"
 1209      746C6472 
 1209      436F6D6D 
 1209      52656164 
 1209      28293A0D 
 1210              	.LC12:
 1211 002c 09090920 		.ascii	"\011\011\011 Metadata: Application Image Status: 0x"
 1211      4D657461 
 1211      64617461 
 1211      3A204170 
 1211      706C6963 
 1212 0056 00       		.ascii	"\000"
 1213              	.LC14:
 1214 0057 25303858 		.ascii	"%08X \000"
 1214      2000
 1215              	.LC16:
 1216 005d 09090920 		.ascii	"\011\011\011 Metadata: Image Size (in flash rows): "
 1216      4D657461 
 1216      64617461 
 1216      3A20496D 
 1216      61676520 
 1217 0087 307800   		.ascii	"0x\000"
 1218              	.LC18:
 1219 008a 09090920 		.ascii	"\011\011\011 Metadata: Start of image in flash (row"
 1219      4D657461 
 1219      64617461 
 1219      3A205374 
ARM GAS  C:\Users\Administrator\AppData\Local\Temp\ccRPys7B.s 			page 37


 1219      61727420 
 1220 00b4 2023293A 		.ascii	" #): 0x\000"
 1220      20307800 
 1221              	.LC20:
 1222 00bc 09090920 		.ascii	"\011\011\011 Metadata: Application checksum: 0x\000"
 1222      4D657461 
 1222      64617461 
 1222      3A204170 
 1222      706C6963 
 1223              	.LC22:
 1224 00e3 09090920 		.ascii	"\011\011\011 Metadata: Encryption Enabled: 0x\000"
 1224      4D657461 
 1224      64617461 
 1224      3A20456E 
 1224      63727970 
 1225              	.LC25:
 1226 0108 43757374 		.ascii	"CustomInterface:\015\000"
 1226      6F6D496E 
 1226      74657266 
 1226      6163653A 
 1226      0D00
 1227              	.LC27:
 1228 011a 0943495F 		.ascii	"\011CI_CalcExtMemAppChecksum():\015\000"
 1228      43616C63 
 1228      4578744D 
 1228      656D4170 
 1228      70436865 
 1229              	.LC29:
 1230 0138 09092043 		.ascii	"\011\011 Calculated checksum: 0x\000"
 1230      616C6375 
 1230      6C617465 
 1230      64206368 
 1230      65636B73 
 1231              	.LC32:
 1232 0153 09094170 		.ascii	"\011\011Application Status in External Memory: VALI"
 1232      706C6963 
 1232      6174696F 
 1232      6E205374 
 1232      61747573 
 1233 0180 440D00   		.ascii	"D\015\000"
 1234              	.LC34:
 1235 0183 09090943 		.ascii	"\011\011\011Copy bootloadable application from exte"
 1235      6F707920 
 1235      626F6F74 
 1235      6C6F6164 
 1235      61626C65 
 1236 01ad 726E616C 		.ascii	"rnal memory.\015\000"
 1236      206D656D 
 1236      6F72792E 
 1236      0D00
 1237              	.LC36:
 1238 01bb 09094170 		.ascii	"\011\011Application Status in External Memory: LOAD"
 1238      706C6963 
 1238      6174696F 
 1238      6E205374 
 1238      61747573 
 1239 01e8 45442E0D 		.ascii	"ED.\015\000"
ARM GAS  C:\Users\Administrator\AppData\Local\Temp\ccRPys7B.s 			page 38


 1239      00
 1240              	.LC38:
 1241 01ed 09094170 		.ascii	"\011\011Application in the internal FLASH: INVALID."
 1241      706C6963 
 1241      6174696F 
 1241      6E20696E 
 1241      20746865 
 1242 021a 0D00     		.ascii	"\015\000"
 1243              	.LC40:
 1244 021c 09094170 		.ascii	"\011\011Application status: LOADED\015\000"
 1244      706C6963 
 1244      6174696F 
 1244      6E207374 
 1244      61747573 
 1245              	.LC42:
 1246 023a 09090953 		.ascii	"\011\011\011Schedule bootloadable application and r"
 1246      63686564 
 1246      756C6520 
 1246      626F6F74 
 1246      6C6F6164 
 1247 0264 65736574 		.ascii	"eset device.\015\000"
 1247      20646576 
 1247      6963652E 
 1247      0D00
 1248              	.LC44:
 1249 0272 3D3D3D3D 		.ascii	"==================================================="
 1249      3D3D3D3D 
 1249      3D3D3D3D 
 1249      3D3D3D3D 
 1249      3D3D3D3D 
 1250 02a5 3D3D3D3D 		.ascii	"============================\015\000"
 1250      3D3D3D3D 
 1250      3D3D3D3D 
 1250      3D3D3D3D 
 1250      3D3D3D3D 
 1251              	.LC46:
 1252 02c3 3D202020 		.ascii	"=    BLE_External_Memory_Bootloader Application Per"
 1252      20424C45 
 1252      5F457874 
 1252      65726E61 
 1252      6C5F4D65 
 1253 02f6 666F726D 		.ascii	"forms Software Reset       =\015\000"
 1253      7320536F 
 1253      66747761 
 1253      72652052 
 1253      65736574 
 1254              	.LC48:
 1255 0314 09094170 		.ascii	"\011\011Application Status in External Memory: UNKN"
 1255      706C6963 
 1255      6174696F 
 1255      6E205374 
 1255      61747573 
 1256 0341 4F574E2E 		.ascii	"OWN.\015\000"
 1256      0D00
 1257              	.LC50:
 1258 0347 09094170 		.ascii	"\011\011Application status: INVALID.\015\000"
 1258      706C6963 
ARM GAS  C:\Users\Administrator\AppData\Local\Temp\ccRPys7B.s 			page 39


 1258      6174696F 
 1258      6E207374 
 1258      61747573 
 1259              	.LC52:
 1260 0367 09090948 		.ascii	"\011\011\011Halt Device.\015\000"
 1260      616C7420 
 1260      44657669 
 1260      63652E0D 
 1260      00
 1261              	.LC54:
 1262 0378 09095072 		.ascii	"\011\011Program Row:\015\000"
 1262      6F677261 
 1262      6D20526F 
 1262      773A0D00 
 1263              	.LC56:
 1264 0388 09090920 		.ascii	"\011\011\011 rowIdx: 0x\000"
 1264      726F7749 
 1264      64783A20 
 1264      307800
 1265              	.LC58:
 1266 0397 09090920 		.ascii	"\011\011\011 appFirstRowNum: 0x\000"
 1266      61707046 
 1266      69727374 
 1266      526F774E 
 1266      756D3A20 
 1267              	.LC60:
 1268 03ae 09094578 		.ascii	"\011\011Exit Bootloader:\015\000"
 1268      69742042 
 1268      6F6F746C 
 1268      6F616465 
 1268      723A0D00 
 1269              	.LC62:
 1270 03c2 0943495F 		.ascii	"\011CI_WritePacket():\015\000"
 1270      57726974 
 1270      65506163 
 1270      6B657428 
 1270      293A0D00 
 1271              	.LC64:
 1272 03d6 09092053 		.ascii	"\011\011 SOP:       0x\000"
 1272      4F503A20 
 1272      20202020 
 1272      20203078 
 1272      00
 1273              	.LC66:
 1274 03e7 09092043 		.ascii	"\011\011 CMD:       0x\000"
 1274      4D443A20 
 1274      20202020 
 1274      20203078 
 1274      00
 1275              	.LC68:
 1276 03f8 09092053 		.ascii	"\011\011 SIZE:      0x\000"
 1276      495A453A 
 1276      20202020 
 1276      20203078 
 1276      00
 1277              	.LC70:
 1278 0409 09092046 		.ascii	"\011\011 Flash Array: 0x\000"
ARM GAS  C:\Users\Administrator\AppData\Local\Temp\ccRPys7B.s 			page 40


 1278      6C617368 
 1278      20417272 
 1278      61793A20 
 1278      307800
 1279              	.LC72:
 1280 041c 09092046 		.ascii	"\011\011 Flash Row: 0x\000"
 1280      6C617368 
 1280      20526F77 
 1280      3A203078 
 1280      00
 1281              	.LC74:
 1282 042d 09092043 		.ascii	"\011\011 Checksum:  0x\000"
 1282      6865636B 
 1282      73756D3A 
 1282      20203078 
 1282      00
 1283              	.LC76:
 1284 043e 09092045 		.ascii	"\011\011 EOP:       0x\000"
 1284      4F503A20 
 1284      20202020 
 1284      20203078 
 1284      00
 1285              	.LC78:
 1286 044f 09092050 		.ascii	"\011\011 Packet:    \000"
 1286      61636B65 
 1286      743A2020 
 1286      202000
 1287              	.LC80:
 1288 045e 25303258 		.ascii	"%02X \000"
 1288      2000
 1289              	.LC85:
 1290 0464 57323551 		.ascii	"W25QXX_Init in:\015\000"
 1290      58585F49 
 1290      6E697420 
 1290      696E3A0D 
 1290      00
 1291              	.LC87:
 1292 0475 09437942 		.ascii	"\011CyBtldrCommStart():\015\000"
 1292      746C6472 
 1292      436F6D6D 
 1292      53746172 
 1292      7428293A 
 1293              	.LC91:
 1294 048b 09437942 		.ascii	"\011CyBtldrCommStop():\015\000"
 1294      746C6472 
 1294      436F6D6D 
 1294      53746F70 
 1294      28293A0D 
 1295              	.LC95:
 1296 04a0 09437942 		.ascii	"\011CyBtldrCommReset():\015\000"
 1296      746C6472 
 1296      436F6D6D 
 1296      52657365 
 1296      7428293A 
 1297              	.LC99:
 1298 04b6 09437942 		.ascii	"\011CyBtldrCommWrite():\015\000"
 1298      746C6472 
ARM GAS  C:\Users\Administrator\AppData\Local\Temp\ccRPys7B.s 			page 41


 1298      436F6D6D 
 1298      57726974 
 1298      6528293A 
 1299              		.bss
 1300              		.align	2
 1301              		.set	.LANCHOR0,. + 0
 1302              		.type	communicationState, %object
 1303              		.size	communicationState, 4
 1304              	communicationState:
 1305 0000 00000000 		.space	4
 1306              		.text
 1307              	.Letext0:
 1308              		.file 2 "c:\\program files (x86)\\cypress\\psoc creator\\4.0\\psoc creator\\import\\gnu\\arm\\4.9.
 1309              		.file 3 "c:\\program files (x86)\\cypress\\psoc creator\\4.0\\psoc creator\\import\\gnu\\arm\\4.9.
 1310              		.file 4 "Generated_Source\\PSoC4/cytypes.h"
 1311              		.file 5 "CustomInterface.h"
 1312              		.file 6 "c:\\program files (x86)\\cypress\\psoc creator\\4.0\\psoc creator\\import\\gnu\\arm\\4.9.
 1313              		.file 7 "Generated_Source\\PSoC4/Bootloader.h"
 1314              		.file 8 ".\\DEV\\W25Qxx/w25qxx.h"
 1315              		.file 9 "Generated_Source\\PSoC4/CyLib.h"
 1316              		.file 10 "Generated_Source\\PSoC4/BLE_Stack.h"
 1317              		.file 11 "<built-in>"