ARM GAS  C:\Users\Administrator\AppData\Local\Temp\cc5DEr5V.s 			page 1


   1              		.cpu cortex-m0
   2              		.fpu softvfp
   3              		.eabi_attribute 20, 1
   4              		.eabi_attribute 21, 1
   5              		.eabi_attribute 23, 3
   6              		.eabi_attribute 24, 1
   7              		.eabi_attribute 25, 1
   8              		.eabi_attribute 26, 1
   9              		.eabi_attribute 30, 4
  10              		.eabi_attribute 34, 0
  11              		.eabi_attribute 18, 4
  12              		.code	16
  13              		.file	"main.c"
  14              		.text
  15              	.Ltext0:
  16              		.cfi_sections	.debug_frame
  17              		.section	.text.PrintLauchApp,"ax",%progbits
  18              		.align	1
  19              		.code	16
  20              		.thumb_func
  21              		.type	PrintLauchApp, %function
  22              	PrintLauchApp:
  23              	.LFB39:
  24              		.file 1 "main.c"
   1:main.c        **** //*************************************************************************************************
   2:main.c        **** // File name		: main.c
   3:main.c        **** // Description		: 门禁系统的OTA引导程序
   4:main.c        **** // Author			: Keno
   5:main.c        **** // Date				: 2016.8.8
   6:main.c        **** // Version			: V02
   7:main.c        **** //-------------------------------------------------------------------------------------------------
   8:main.c        **** // Info				: 
   9:main.c        **** //*************************************************************************************************
  10:main.c        **** #include "main.h"
  11:main.c        **** 
  12:main.c        **** 
  13:main.c        **** //*************************************************************************************************
  14:main.c        **** // Function name	: PrintStartProject
  15:main.c        **** // Description		: BootLoader工程启动时打印的Logo
  16:main.c        **** // Parameter		: none
  17:main.c        **** // Return			: none
  18:main.c        **** //-------------------------------------------------------------------------------------------------
  19:main.c        **** // Info				: 
  20:main.c        **** //*************************************************************************************************
  21:main.c        **** static void PrintStartProject(void)
  22:main.c        **** {
  23:main.c        ****     UART_PutString("\r\n");
  24:main.c        ****     UART_PutString("\r\n");
  25:main.c        ****     UART_PutString("===============================================================================
  26:main.c        ****     UART_PutString("=  BLE_OTA_External_Memory_Bootloader Application Started\r\n");
  27:main.c        ****     UART_PutString("=  Version: 1.40\r\n");    
  28:main.c        ****     DBG_PRINTF    ("=  Compile Date and Time : %s %s\r\n", __DATE__,__TIME__);
  29:main.c        ****     UART_PutString("===============================================================================
  30:main.c        ****     UART_PutString("\r\n"); 
  31:main.c        ****     UART_PutString("\r\n");
  32:main.c        **** }
  33:main.c        **** 
ARM GAS  C:\Users\Administrator\AppData\Local\Temp\cc5DEr5V.s 			page 2


  34:main.c        **** //*************************************************************************************************
  35:main.c        **** // Function name	: PrintUpdateImage
  36:main.c        **** // Description		: BootLoader工程执行更新Image程序
  37:main.c        **** // Parameter		: none
  38:main.c        **** // Return			: none
  39:main.c        **** //-------------------------------------------------------------------------------------------------
  40:main.c        **** // Info				: 
  41:main.c        **** //*************************************************************************************************
  42:main.c        **** static void PrintUpdateImage(void)
  43:main.c        **** {
  44:main.c        ****     UART_PutString("\r\n");
  45:main.c        ****     UART_PutString("===============================================================================
  46:main.c        ****     UART_PutString("=  Start Update Image!\r\n");
  47:main.c        **** 	DBG_PRINTF    ("=  Compile Date and Time : %s %s\r\n", __DATE__,__TIME__);
  48:main.c        ****     UART_PutString("===============================================================================
  49:main.c        ****     UART_PutString("\r\n");
  50:main.c        **** }
  51:main.c        **** 
  52:main.c        **** //*************************************************************************************************
  53:main.c        **** // Function name	: PrintLauchApp
  54:main.c        **** // Description		: BootLoader工程执行启动App程序
  55:main.c        **** // Parameter		: none
  56:main.c        **** // Return			: none
  57:main.c        **** //-------------------------------------------------------------------------------------------------
  58:main.c        **** // Info				: 
  59:main.c        **** //*************************************************************************************************
  60:main.c        **** static void PrintLauchApp(void)
  61:main.c        **** {
  25              		.loc 1 61 0
  26              		.cfi_startproc
  27 0000 38B5     		push	{r3, r4, r5, lr}
  28              		.cfi_def_cfa_offset 16
  29              		.cfi_offset 3, -16
  30              		.cfi_offset 4, -12
  31              		.cfi_offset 5, -8
  32              		.cfi_offset 14, -4
  62:main.c        ****     UART_PutString("\r\n");
  33              		.loc 1 62 0
  34 0002 0B4C     		ldr	r4, .L2
  63:main.c        ****     UART_PutString("===============================================================================
  64:main.c        ****     UART_PutString("=  Start_Lauch App\r\n");
  65:main.c        **** 	DBG_PRINTF    ("=  Compile Date and Time : %s %s\r\n", __DATE__,__TIME__);
  66:main.c        ****     UART_PutString("===============================================================================
  67:main.c        ****     UART_PutString("\r\n"); 
  68:main.c        **** }
  35              		.loc 1 68 0
  36              		@ sp needed
  62:main.c        ****     UART_PutString("\r\n");
  37              		.loc 1 62 0
  38 0004 201C     		mov	r0, r4
  39 0006 FFF7FEFF 		bl	UART_PutString
  40              	.LVL0:
  63:main.c        ****     UART_PutString("===============================================================================
  41              		.loc 1 63 0
  42 000a 0A4D     		ldr	r5, .L2+4
  43 000c 281C     		mov	r0, r5
  44 000e FFF7FEFF 		bl	UART_PutString
ARM GAS  C:\Users\Administrator\AppData\Local\Temp\cc5DEr5V.s 			page 3


  45              	.LVL1:
  64:main.c        **** 	DBG_PRINTF    ("=  Compile Date and Time : %s %s\r\n", __DATE__,__TIME__);
  46              		.loc 1 64 0
  47 0012 0948     		ldr	r0, .L2+8
  48 0014 FFF7FEFF 		bl	UART_PutString
  49              	.LVL2:
  65:main.c        ****     UART_PutString("===============================================================================
  50              		.loc 1 65 0
  51 0018 0849     		ldr	r1, .L2+12
  52 001a 094A     		ldr	r2, .L2+16
  53 001c 0948     		ldr	r0, .L2+20
  54 001e FFF7FEFF 		bl	printf
  55              	.LVL3:
  66:main.c        ****     UART_PutString("\r\n"); 
  56              		.loc 1 66 0
  57 0022 281C     		mov	r0, r5
  58 0024 FFF7FEFF 		bl	UART_PutString
  59              	.LVL4:
  67:main.c        **** }
  60              		.loc 1 67 0
  61 0028 201C     		mov	r0, r4
  62 002a FFF7FEFF 		bl	UART_PutString
  63              	.LVL5:
  64              		.loc 1 68 0
  65 002e 38BD     		pop	{r3, r4, r5, pc}
  66              	.L3:
  67              		.align	2
  68              	.L2:
  69 0030 00000000 		.word	.LC0
  70 0034 03000000 		.word	.LC2
  71 0038 55000000 		.word	.LC4
  72 003c 8D000000 		.word	.LC8
  73 0040 99000000 		.word	.LC10
  74 0044 6A000000 		.word	.LC6
  75              		.cfi_endproc
  76              	.LFE39:
  77              		.size	PrintLauchApp, .-PrintLauchApp
  78              		.section	.text.BleSend,"ax",%progbits
  79              		.align	1
  80              		.global	BleSend
  81              		.code	16
  82              		.thumb_func
  83              		.type	BleSend, %function
  84              	BleSend:
  85              	.LFB40:
  69:main.c        **** 
  70:main.c        **** //*************************************************************************************************
  71:main.c        **** // Function name	: Protocol_BleSend
  72:main.c        **** // Description		: 蓝牙发送指定长度的数据包
  73:main.c        **** // Parameter		: data		: 数据
  74:main.c        **** //					: length	: 长度
  75:main.c        **** // Return			: none
  76:main.c        **** //-------------------------------------------------------------------------------------------------
  77:main.c        **** // Info				: 
  78:main.c        **** //*************************************************************************************************
  79:main.c        **** int BleSend(uint8 *data, uint16 length)
  80:main.c        **** {	
ARM GAS  C:\Users\Administrator\AppData\Local\Temp\cc5DEr5V.s 			page 4


  86              		.loc 1 80 0
  87              		.cfi_startproc
  88              	.LVL6:
  89 0000 F0B5     		push	{r4, r5, r6, r7, lr}
  90              		.cfi_def_cfa_offset 20
  91              		.cfi_offset 4, -20
  92              		.cfi_offset 5, -16
  93              		.cfi_offset 6, -12
  94              		.cfi_offset 7, -8
  95              		.cfi_offset 14, -4
  96 0002 051C     		mov	r5, r0
  97 0004 0C1C     		mov	r4, r1
  98              	.LVL7:
  99 0006 85B0     		sub	sp, sp, #20
 100              		.cfi_def_cfa_offset 40
 101              	.LVL8:
 102              	.L5:
  81:main.c        **** 	uint8 *ptr = data;
  82:main.c        **** 	uint16 sign_len = (uint16)length;				// 整个包的长度										//
  83:main.c        **** 	uint16 active_len = 0;							// 单次需要发送的数据长度，不大于CYBLE_MTU_LEN(20)	//
  84:main.c        **** 	CYBLE_API_RESULT_T ret = CYBLE_ERROR_OK;
  85:main.c        **** 	CYBLE_GATTS_HANDLE_VALUE_IND_T locationParam;   // 蓝牙传输数据格式包								//
  86:main.c        **** 	
  87:main.c        **** 	while (sign_len > 0) 
 103              		.loc 1 87 0
 104 0008 002C     		cmp	r4, #0
 105 000a 1BD0     		beq	.L11
  88:main.c        **** 	{
  89:main.c        **** 		// 获取当前序包的包长度																			//
  90:main.c        **** 		active_len = sign_len > CYBLE_MTU_LEN? CYBLE_MTU_LEN: sign_len;
 106              		.loc 1 90 0
 107 000c 231C     		add	r3, r4, #0
 108 000e 142C     		cmp	r4, #20
 109 0010 00D9     		bls	.L6
 110 0012 1423     		mov	r3, #20
 111              	.L6:
  91:main.c        **** 		
  92:main.c        **** 		// 填充需要传送的数据       																	//
  93:main.c        **** 	    locationParam.attrHandle = CYBLE_LOCK_SERVICE_UP_CHARACTERISTIC_CHAR_HANDLE;
 112              		.loc 1 93 0
 113 0014 1022     		mov	r2, #16
 114 0016 01A9     		add	r1, sp, #4
 115 0018 0A81     		strh	r2, [r1, #8]
  94:main.c        **** 	    locationParam.value.actualLen = active_len;
  95:main.c        **** 	    locationParam.value.len = active_len;
  96:main.c        **** 	    locationParam.value.val = ptr;
  97:main.c        **** 		ret = CyBle_GattsNotification(cyBle_connHandle, &locationParam);
 116              		.loc 1 97 0
 117 001a 0E4A     		ldr	r2, .L12
  94:main.c        **** 	    locationParam.value.actualLen = active_len;
 118              		.loc 1 94 0
 119 001c CB80     		strh	r3, [r1, #6]
 120              		.loc 1 97 0
 121 001e 5078     		ldrb	r0, [r2, #1]
  95:main.c        **** 	    locationParam.value.val = ptr;
 122              		.loc 1 95 0
 123 0020 8B80     		strh	r3, [r1, #4]
ARM GAS  C:\Users\Administrator\AppData\Local\Temp\cc5DEr5V.s 			page 5


  90:main.c        **** 		
 124              		.loc 1 90 0
 125 0022 9EB2     		uxth	r6, r3
 126              	.LVL9:
 127              		.loc 1 97 0
 128 0024 1378     		ldrb	r3, [r2]
 129              	.LVL10:
 130 0026 0002     		lsl	r0, r0, #8
 131 0028 1843     		orr	r0, r3
  96:main.c        **** 		ret = CyBle_GattsNotification(cyBle_connHandle, &locationParam);
 132              		.loc 1 96 0
 133 002a 0195     		str	r5, [sp, #4]
 134              		.loc 1 97 0
 135 002c FFF7FEFF 		bl	CyBle_GattsNotification
 136              	.LVL11:
 137 0030 071E     		sub	r7, r0, #0
 138              	.LVL12:
  98:main.c        **** 		
  99:main.c        **** 		if (ret != CYBLE_ERROR_OK)
 139              		.loc 1 99 0
 140 0032 03D0     		beq	.L7
 100:main.c        **** 		{
 101:main.c        **** 			DBG_PRINTF("AppProtocol_Send--->send error\n");
 141              		.loc 1 101 0
 142 0034 0848     		ldr	r0, .L12+4
 143              	.LVL13:
 144 0036 FFF7FEFF 		bl	puts
 145              	.LVL14:
 102:main.c        **** 			break;
 146              		.loc 1 102 0
 147 003a 04E0     		b	.L8
 148              	.LVL15:
 149              	.L7:
 103:main.c        **** 		}
 104:main.c        **** 		
 105:main.c        **** 		sign_len -= active_len;						// 发完一次，总长度减去一个包的长度					//
 150              		.loc 1 105 0
 151 003c A41B     		sub	r4, r4, r6
 152              	.LVL16:
 153 003e A4B2     		uxth	r4, r4
 154              	.LVL17:
 106:main.c        **** 		ptr += active_len;							// 发完一次，数据指针往前移动一个包的长度			//
 155              		.loc 1 106 0
 156 0040 AD19     		add	r5, r5, r6
 157              	.LVL18:
 158 0042 E1E7     		b	.L5
 159              	.LVL19:
 160              	.L11:
 161 0044 271C     		mov	r7, r4
 162              	.LVL20:
 163              	.L8:
 107:main.c        **** 	}
 108:main.c        **** 
 109:main.c        **** 	DBG_PRINTF("AppProtocol_Send--->sent finish.\n");
 164              		.loc 1 109 0
 165 0046 0548     		ldr	r0, .L12+8
 166 0048 FFF7FEFF 		bl	puts
ARM GAS  C:\Users\Administrator\AppData\Local\Temp\cc5DEr5V.s 			page 6


 167              	.LVL21:
 110:main.c        **** 	return ret;
 111:main.c        **** }
 168              		.loc 1 111 0
 169 004c 381C     		mov	r0, r7
 170 004e 05B0     		add	sp, sp, #20
 171              		@ sp needed
 172              	.LVL22:
 173              	.LVL23:
 174              	.LVL24:
 175 0050 F0BD     		pop	{r4, r5, r6, r7, pc}
 176              	.L13:
 177 0052 C046     		.align	2
 178              	.L12:
 179 0054 00000000 		.word	cyBle_connHandle
 180 0058 A2000000 		.word	.LC13
 181 005c C1000000 		.word	.LC15
 182              		.cfi_endproc
 183              	.LFE40:
 184              		.size	BleSend, .-BleSend
 185              		.section	.text.BleRecv,"ax",%progbits
 186              		.align	1
 187              		.global	BleRecv
 188              		.code	16
 189              		.thumb_func
 190              		.type	BleRecv, %function
 191              	BleRecv:
 192              	.LFB41:
 112:main.c        **** 
 113:main.c        **** //*************************************************************************************************
 114:main.c        **** // Function name	: BleRecv
 115:main.c        **** // Description		: 蓝牙分组接收APP传来数据
 116:main.c        **** // Parameter		: uint8  *cmd	APP传来的数据存放于该数组
 117:main.c        **** //					: uint16 len	长度
 118:main.c        **** // Return			: always TRUE
 119:main.c        **** //-------------------------------------------------------------------------------------------------
 120:main.c        **** // Info				: 
 121:main.c        **** //*************************************************************************************************
 122:main.c        **** void BleRecv(uint8 *cmd, uint16 len)
 123:main.c        **** {
 193              		.loc 1 123 0
 194              		.cfi_startproc
 195              	.LVL25:
 196 0000 38B5     		push	{r3, r4, r5, lr}
 197              		.cfi_def_cfa_offset 16
 198              		.cfi_offset 3, -16
 199              		.cfi_offset 4, -12
 200              		.cfi_offset 5, -8
 201              		.cfi_offset 14, -4
 202              		.loc 1 123 0
 203 0002 051C     		mov	r5, r0
 204 0004 0C1C     		mov	r4, r1
 124:main.c        **** 	DBG_PRINTF("%s\n", __FUNCTION__);
 205              		.loc 1 124 0
 206 0006 0448     		ldr	r0, .L15
 207              	.LVL26:
 208 0008 FFF7FEFF 		bl	puts
ARM GAS  C:\Users\Administrator\AppData\Local\Temp\cc5DEr5V.s 			page 7


 209              	.LVL27:
 125:main.c        **** 	BleSend(cmd, len);								// 收到什么回传什么，防止被优化						//
 210              		.loc 1 125 0
 211 000c 281C     		mov	r0, r5
 212 000e 211C     		mov	r1, r4
 213 0010 FFF7FEFF 		bl	BleSend
 214              	.LVL28:
 126:main.c        **** }
 215              		.loc 1 126 0
 216              		@ sp needed
 217              	.LVL29:
 218 0014 38BD     		pop	{r3, r4, r5, pc}
 219              	.L16:
 220 0016 C046     		.align	2
 221              	.L15:
 222 0018 00000000 		.word	.LANCHOR0
 223              		.cfi_endproc
 224              	.LFE41:
 225              		.size	BleRecv, .-BleRecv
 226              		.section	.text.AppCallback,"ax",%progbits
 227              		.align	1
 228              		.global	AppCallback
 229              		.code	16
 230              		.thumb_func
 231              		.type	AppCallback, %function
 232              	AppCallback:
 233              	.LFB42:
 127:main.c        **** 
 128:main.c        **** //*************************************************************************************************
 129:main.c        **** // Function name	: AppCallback
 130:main.c        **** // Description		: 蓝牙的回调函数
 131:main.c        **** // Parameter		: event
 132:main.c        **** //					: eventParam
 133:main.c        **** // Return			: none
 134:main.c        **** //-------------------------------------------------------------------------------------------------
 135:main.c        **** // Info				: 
 136:main.c        **** //*************************************************************************************************
 137:main.c        **** void AppCallback(uint32 event, void* eventParam)
 138:main.c        **** {
 234              		.loc 1 138 0
 235              		.cfi_startproc
 236              	.LVL30:
 237 0000 1FB5     		push	{r0, r1, r2, r3, r4, lr}
 238              		.cfi_def_cfa_offset 24
 239              		.cfi_offset 0, -24
 240              		.cfi_offset 1, -20
 241              		.cfi_offset 2, -16
 242              		.cfi_offset 3, -12
 243              		.cfi_offset 4, -8
 244              		.cfi_offset 14, -4
 245              		.loc 1 138 0
 246 0002 031C     		mov	r3, r0
 247 0004 0C1C     		mov	r4, r1
 139:main.c        ****     CYBLE_API_RESULT_T apiResult;
 140:main.c        ****     CYBLE_GAP_AUTH_INFO_T *authInfo;
 141:main.c        ****     CYBLE_BLESS_PWR_IN_DB_T bleSsPowerLevel;
 142:main.c        **** 	CYBLE_GATTS_WRITE_CMD_REQ_PARAM_T *locationWCRP = (CYBLE_GATTS_WRITE_CMD_REQ_PARAM_T *)eventParam;
ARM GAS  C:\Users\Administrator\AppData\Local\Temp\cc5DEr5V.s 			page 8


 143:main.c        **** 	
 144:main.c        ****     switch (event)
 248              		.loc 1 144 0
 249 0006 2828     		cmp	r0, #40
 250 0008 00D1     		bne	.LCB226
 251 000a 85E0     		b	.L19	@long jump
 252              	.LCB226:
 253 000c 30D8     		bhi	.L20
 254 000e 2228     		cmp	r0, #34
 255 0010 6DD0     		beq	.L21
 256 0012 16D8     		bhi	.L22
 257 0014 0328     		cmp	r0, #3
 258 0016 65D0     		beq	.L23
 259 0018 07D8     		bhi	.L24
 260 001a 0128     		cmp	r0, #1
 261 001c 50D0     		beq	.L25
 262 001e 0228     		cmp	r0, #2
 263 0020 00D0     		beq	.LCB240
 264 0022 B2E0     		b	.L18	@long jump
 265              	.LCB240:
 145:main.c        **** 	{
 146:main.c        ****         /**********************************************************
 147:main.c        ****         *                       General Events
 148:main.c        ****         ***********************************************************/
 149:main.c        **** 		case CYBLE_EVT_STACK_ON: /* This event received when component is Started */
 150:main.c        **** 			/* Set Tx Power Level for advertising and connection channels */
 151:main.c        ****             bleSsPowerLevel.blePwrLevelInDbm = CYBLE_LL_PWR_LVL_NEG_12_DBM;
 152:main.c        ****             bleSsPowerLevel.bleSsChId = CYBLE_LL_ADV_CH_TYPE;
 153:main.c        ****             (void) CyBle_SetTxPowerLevel (&bleSsPowerLevel);
 154:main.c        **** 			
 155:main.c        **** 
 156:main.c        **** 			/* Enter into discoverable mode so that remote can search it. */
 157:main.c        ****             apiResult = CyBle_GappStartAdvertisement(CYBLE_ADVERTISING_FAST);
 158:main.c        ****             if(apiResult != CYBLE_ERROR_OK)
 159:main.c        ****             {
 160:main.c        ****                 DBG_PRINTF("StartAdvertisement API Error: %d \r\n", apiResult);
 161:main.c        ****             }
 162:main.c        **** 			DBG_PRINTF("\r\n");
 163:main.c        ****             break;
 164:main.c        **** 		case CYBLE_EVT_TIMEOUT: 
 165:main.c        ****             DBG_PRINTF("CYBLE_EVT_TIMEOUT: %x \r\n", *(CYBLE_TO_REASON_CODE_T *)eventParam);
 266              		.loc 1 165 0
 267 0024 0978     		ldrb	r1, [r1]
 268              	.LVL31:
 269 0026 5B48     		ldr	r0, .L62
 270              	.LVL32:
 271 0028 B1E0     		b	.L59
 272              	.LVL33:
 273              	.L24:
 144:main.c        **** 	{
 274              		.loc 1 144 0
 275 002a 0428     		cmp	r0, #4
 276 002c 5CD0     		beq	.L27
 277 002e 2128     		cmp	r0, #33
 278 0030 00D0     		beq	.LCB256
 279 0032 AAE0     		b	.L18	@long jump
 280              	.LCB256:
ARM GAS  C:\Users\Administrator\AppData\Local\Temp\cc5DEr5V.s 			page 9


 166:main.c        **** 			break;
 167:main.c        **** 		case CYBLE_EVT_HARDWARE_ERROR:    /* This event indicates that some internal HW error has occurre
 168:main.c        ****             DBG_PRINTF("Hardware Error \r\n");
 169:main.c        **** 			break;
 170:main.c        ****         case CYBLE_EVT_HCI_STATUS:
 171:main.c        ****             DBG_PRINTF("CYBLE_EVT_HCI_STATUS: %x \r\n", *(uint8 *)eventParam);
 172:main.c        **** 			break;
 173:main.c        **** 
 174:main.c        ****         /**********************************************************
 175:main.c        ****         *                       GAP Events
 176:main.c        ****         ***********************************************************/
 177:main.c        ****         case CYBLE_EVT_GAP_AUTH_REQ:
 178:main.c        ****             DBG_PRINTF("CYBLE_EVT_AUTH_REQ: security=%x, bonding=%x, ekeySize=%x, err=%x \r\n", 
 281              		.loc 1 178 0
 282 0034 E078     		ldrb	r0, [r4, #3]
 283              	.LVL34:
 284 0036 0978     		ldrb	r1, [r1]
 285              	.LVL35:
 286 0038 6278     		ldrb	r2, [r4, #1]
 287 003a A378     		ldrb	r3, [r4, #2]
 288              	.LVL36:
 289 003c 0090     		str	r0, [sp]
 290 003e 5648     		ldr	r0, .L62+4
 291 0040 5AE0     		b	.L61
 292              	.LVL37:
 293              	.L22:
 144:main.c        **** 	{
 294              		.loc 1 144 0
 295 0042 2528     		cmp	r0, #37
 296 0044 5BD0     		beq	.L29
 297 0046 0BD8     		bhi	.L30
 298 0048 2328     		cmp	r0, #35
 299 004a 52D0     		beq	.L31
 300 004c 2428     		cmp	r0, #36
 301 004e 00D0     		beq	.LCB281
 302 0050 9BE0     		b	.L18	@long jump
 303              	.LCB281:
 304              	.LVL38:
 179:main.c        ****                 (*(CYBLE_GAP_AUTH_INFO_T *)eventParam).security, 
 180:main.c        ****                 (*(CYBLE_GAP_AUTH_INFO_T *)eventParam).bonding, 
 181:main.c        ****                 (*(CYBLE_GAP_AUTH_INFO_T *)eventParam).ekeySize, 
 182:main.c        ****                 (*(CYBLE_GAP_AUTH_INFO_T *)eventParam).authErr);
 183:main.c        ****             break;
 184:main.c        ****         case CYBLE_EVT_GAP_PASSKEY_ENTRY_REQUEST:
 185:main.c        ****             DBG_PRINTF("CYBLE_EVT_PASSKEY_ENTRY_REQUEST \r\n");
 186:main.c        ****             break;
 187:main.c        ****         case CYBLE_EVT_GAP_PASSKEY_DISPLAY_REQUEST:
 188:main.c        ****             DBG_PRINTF("CYBLE_EVT_PASSKEY_DISPLAY_REQUEST %6.6ld \r\n", *(uint32 *)eventParam);
 189:main.c        ****             break;
 190:main.c        ****         case CYBLE_EVT_GAP_AUTH_COMPLETE:
 191:main.c        ****             authInfo = (CYBLE_GAP_AUTH_INFO_T *)eventParam;
 192:main.c        ****             (void)authInfo;
 193:main.c        ****             DBG_PRINTF("AUTH_COMPLETE: security:%x, bonding:%x, ekeySize:%x, authErr %x \r\n", 
 305              		.loc 1 193 0
 306 0052 E078     		ldrb	r0, [r4, #3]
 307              	.LVL39:
 308 0054 0978     		ldrb	r1, [r1]
ARM GAS  C:\Users\Administrator\AppData\Local\Temp\cc5DEr5V.s 			page 10


 309              	.LVL40:
 310 0056 6278     		ldrb	r2, [r4, #1]
 311 0058 A378     		ldrb	r3, [r4, #2]
 312              	.LVL41:
 313 005a 0090     		str	r0, [sp]
 314 005c 4F48     		ldr	r0, .L62+8
 315 005e 4BE0     		b	.L61
 316              	.LVL42:
 317              	.L30:
 144:main.c        **** 	{
 318              		.loc 1 144 0
 319 0060 2628     		cmp	r0, #38
 320 0062 4FD0     		beq	.L33
 321 0064 2728     		cmp	r0, #39
 322 0066 00D0     		beq	.LCB305
 323 0068 8FE0     		b	.L18	@long jump
 324              	.LCB305:
 194:main.c        ****                                     authInfo->security, authInfo->bonding, authInfo->ekeySize, auth
 195:main.c        ****             break;
 196:main.c        ****         case CYBLE_EVT_GAP_AUTH_FAILED:
 197:main.c        ****             DBG_PRINTF("CYBLE_EVT_AUTH_FAILED: %x \r\n", *(uint8 *)eventParam);
 198:main.c        ****             break;
 199:main.c        ****         case CYBLE_EVT_GAPP_ADVERTISEMENT_START_STOP:
 200:main.c        ****             DBG_PRINTF("CYBLE_EVT_GAPP_ADVERTISEMENT_START_STOP, state: %x\r\n", CyBle_GetState());
 201:main.c        ****             if(CYBLE_STATE_DISCONNECTED == CyBle_GetState())
 202:main.c        ****             {   
 203:main.c        ****                 /* Fast and slow advertising period complete, go to low power  
 204:main.c        ****                  * mode (Hibernate mode) and wait for an external
 205:main.c        ****                  * user event to wake up the device again */
 206:main.c        ****                 DBG_PRINTF("Hibernate \r\n");
 207:main.c        ****             #if (DEBUG_UART_ENABLED == ENABLED)
 208:main.c        ****             	//while((UART_DEB_SpiUartGetTxBufferSize() + UART_DEB_GET_TX_FIFO_SR_VALID) != 0);
 209:main.c        ****             #endif /* (DEBUG_UART_ENABLED == ENABLED) */
 210:main.c        ****             }
 211:main.c        ****             break;
 212:main.c        ****         case CYBLE_EVT_GAP_DEVICE_CONNECTED:
 213:main.c        ****             DBG_PRINTF("CYBLE_EVT_GAP_DEVICE_CONNECTED: %x \r\n", *(uint8 *)eventParam);
 325              		.loc 1 213 0
 326 006a 0978     		ldrb	r1, [r1]
 327              	.LVL43:
 328 006c 4C48     		ldr	r0, .L62+12
 329              	.LVL44:
 330 006e 8EE0     		b	.L59
 331              	.LVL45:
 332              	.L20:
 144:main.c        **** 	{
 333              		.loc 1 144 0
 334 0070 4C28     		cmp	r0, #76
 335 0072 67D0     		beq	.L35
 336 0074 10D8     		bhi	.L36
 337 0076 2C28     		cmp	r0, #44
 338 0078 5BD0     		beq	.L37
 339 007a 07D8     		bhi	.L38
 340 007c 2928     		cmp	r0, #41
 341 007e 55D0     		beq	.L39
 342 0080 2A28     		cmp	r0, #42
 343 0082 00D0     		beq	.LCB329
ARM GAS  C:\Users\Administrator\AppData\Local\Temp\cc5DEr5V.s 			page 11


 344 0084 81E0     		b	.L18	@long jump
 345              	.LCB329:
 214:main.c        ****             break;
 215:main.c        ****         case CYBLE_EVT_GAP_DEVICE_DISCONNECTED:
 216:main.c        ****             DBG_PRINTF("CYBLE_EVT_GAP_DEVICE_DISCONNECTED\r\n");
 217:main.c        ****             /* Put the device to discoverable mode so that remote can search it. */
 218:main.c        ****             apiResult = CyBle_GappStartAdvertisement(CYBLE_ADVERTISING_FAST);
 219:main.c        ****             if(apiResult != CYBLE_ERROR_OK)
 220:main.c        ****             {
 221:main.c        ****                 DBG_PRINTF("StartAdvertisement API Error: %x \r\n", apiResult);
 222:main.c        ****             }
 223:main.c        ****             break;
 224:main.c        ****         case CYBLE_EVT_GAP_ENCRYPT_CHANGE:
 225:main.c        ****             DBG_PRINTF("ENCRYPT_CHANGE: %x \r\n", *(uint8 *)eventParam);
 226:main.c        ****             break;
 227:main.c        ****         case CYBLE_EVT_GAPC_CONNECTION_UPDATE_COMPLETE:
 228:main.c        ****             DBG_PRINTF("CYBLE_EVT_CONNECTION_UPDATE_COMPLETE: %x \r\n", *(uint8 *)eventParam);
 346              		.loc 1 228 0
 347 0086 0978     		ldrb	r1, [r1]
 348              	.LVL46:
 349 0088 4648     		ldr	r0, .L62+16
 350              	.LVL47:
 351 008a 80E0     		b	.L59
 352              	.LVL48:
 353              	.L38:
 144:main.c        **** 	{
 354              		.loc 1 144 0
 355 008c 4128     		cmp	r0, #65
 356 008e 52D0     		beq	.L41
 229:main.c        ****             break;
 230:main.c        ****         case CYBLE_EVT_GAP_KEYINFO_EXCHNGE_CMPLT:
 231:main.c        ****             DBG_PRINTF("CYBLE_EVT_GAP_KEYINFO_EXCHNGE_CMPLT \r\n");
 232:main.c        ****             break;
 233:main.c        **** 
 234:main.c        ****         /**********************************************************
 235:main.c        ****         *                       GATT Events
 236:main.c        ****         ***********************************************************/
 237:main.c        ****         case CYBLE_EVT_GATT_CONNECT_IND:
 238:main.c        ****             DBG_PRINTF("CYBLE_EVT_GATT_CONNECT_IND: %x, %x \r\n", cyBle_connHandle.attId, cyBle_con
 239:main.c        ****             break;
 240:main.c        ****         case CYBLE_EVT_GATT_DISCONNECT_IND:
 241:main.c        ****             DBG_PRINTF("CYBLE_EVT_GATT_DISCONNECT_IND \r\n");
 357              		.loc 1 241 0
 358 0090 4548     		ldr	r0, .L62+20
 359              	.LVL49:
 144:main.c        **** 	{
 360              		.loc 1 144 0
 361 0092 422B     		cmp	r3, #66
 362 0094 76D0     		beq	.L60
 363 0096 78E0     		b	.L18
 364              	.LVL50:
 365              	.L36:
 366 0098 FA28     		cmp	r0, #250
 367 009a 72D0     		beq	.L43
 368 009c 06D8     		bhi	.L44
 369 009e 4E28     		cmp	r0, #78
 370 00a0 58D0     		beq	.L45
ARM GAS  C:\Users\Administrator\AppData\Local\Temp\cc5DEr5V.s 			page 12


 371 00a2 5728     		cmp	r0, #87
 372 00a4 71D1     		bne	.L18
 242:main.c        ****             break;
 243:main.c        ****         case CYBLE_EVT_GATTS_WRITE_REQ:
 244:main.c        ****             DBG_PRINTF("CYBLE_EVT_GATT_WRITE_REQ: %x = ",((CYBLE_GATTS_WRITE_REQ_PARAM_T *)eventPar
 245:main.c        ****             (void)CyBle_GattsWriteRsp(((CYBLE_GATTS_WRITE_REQ_PARAM_T *)eventParam)->connHandle);
 246:main.c        ****             break;
 247:main.c        **** 		case CYBLE_EVT_GATTS_WRITE_CMD_REQ:
 248:main.c        **** 			DBG_PRINTF("CYBLE_EVT_GATT_WRITE_CMD_REQ: = 0x%03xu \n",((CYBLE_GATTS_WRITE_CMD_REQ_PARAM_T *)ev
 249:main.c        **** 			//该属性的句柄值:
 250:main.c        **** 			DBG_PRINTF("locationWCRP->handleValPair.value.attrHandle =0x%03xu\n",locationWCRP->handleValPair
 251:main.c        **** 			//数据长度:
 252:main.c        **** 			DBG_PRINTF("locationWCRP->handleValPair.value.len = %d\n",locationWCRP->handleValPair.value.len)
 253:main.c        **** 			//数据actualen长度:
 254:main.c        **** 			DBG_PRINTF("locationWCRP->handleValPair.value.actualLen = 0x%x\n",locationWCRP->handleValPair.va
 255:main.c        **** 			//数据内容:
 256:main.c        **** 			BleRecv(locationWCRP->handleValPair.value.val, locationWCRP->handleValPair.value.len);
 257:main.c        ****             break;
 258:main.c        ****         case CYBLE_EVT_GATTS_INDICATION_ENABLED:
 259:main.c        ****             DBG_PRINTF("CYBLE_EVT_GATTS_INDICATION_ENABLED \r\n");
 260:main.c        ****             break;
 261:main.c        ****         case CYBLE_EVT_GATTS_INDICATION_DISABLED:
 262:main.c        ****             DBG_PRINTF("CYBLE_EVT_GATTS_INDICATION_DISABLED \r\n");
 263:main.c        ****             break;
 264:main.c        ****         case CYBLE_EVT_GATTS_READ_CHAR_VAL_ACCESS_REQ:
 265:main.c        ****             /* Triggered on server side when client sends read request and when
 266:main.c        ****             * characteristic has CYBLE_GATT_DB_ATTR_CHAR_VAL_RD_EVENT property set.
 267:main.c        ****             * This event could be ignored by application unless it need to response
 268:main.c        ****             * by error response which needs to be set in gattErrorCode field of
 269:main.c        ****             * event parameter. */
 270:main.c        ****             DBG_PRINTF("CYBLE_EVT_GATTS_READ_CHAR_VAL_ACCESS_REQ: handle: %x \r\n", 
 373              		.loc 1 270 0
 374 00a6 4988     		ldrh	r1, [r1, #2]
 375              	.LVL51:
 376 00a8 4048     		ldr	r0, .L62+24
 377              	.LVL52:
 378 00aa 70E0     		b	.L59
 379              	.LVL53:
 380              	.L44:
 144:main.c        **** 	{
 381              		.loc 1 144 0
 382 00ac 8222     		mov	r2, #130
 383 00ae 5200     		lsl	r2, r2, #1
 384 00b0 9042     		cmp	r0, r2
 385 00b2 64D0     		beq	.L47
 386 00b4 0622     		mov	r2, #6
 387 00b6 FF32     		add	r2, r2, #255
 262:main.c        ****             break;
 388              		.loc 1 262 0
 389 00b8 3D48     		ldr	r0, .L62+28
 390              	.LVL54:
 144:main.c        **** 	{
 391              		.loc 1 144 0
 392 00ba 9342     		cmp	r3, r2
 393 00bc 62D0     		beq	.L60
 394 00be 64E0     		b	.L18
 395              	.LVL55:
ARM GAS  C:\Users\Administrator\AppData\Local\Temp\cc5DEr5V.s 			page 13


 396              	.L25:
 151:main.c        ****             bleSsPowerLevel.bleSsChId = CYBLE_LL_ADV_CH_TYPE;
 397              		.loc 1 151 0
 398 00c0 0223     		mov	r3, #2
 152:main.c        ****             (void) CyBle_SetTxPowerLevel (&bleSsPowerLevel);
 399              		.loc 1 152 0
 400 00c2 0024     		mov	r4, #0
 151:main.c        ****             bleSsPowerLevel.bleSsChId = CYBLE_LL_ADV_CH_TYPE;
 401              		.loc 1 151 0
 402 00c4 03A8     		add	r0, sp, #12
 403              	.LVL56:
 404 00c6 0370     		strb	r3, [r0]
 152:main.c        ****             (void) CyBle_SetTxPowerLevel (&bleSsPowerLevel);
 405              		.loc 1 152 0
 406 00c8 4470     		strb	r4, [r0, #1]
 153:main.c        **** 			
 407              		.loc 1 153 0
 408 00ca FFF7FEFF 		bl	CyBle_SetTxPowerLevel
 409              	.LVL57:
 157:main.c        ****             if(apiResult != CYBLE_ERROR_OK)
 410              		.loc 1 157 0
 411 00ce 201C     		mov	r0, r4
 412 00d0 FFF7FEFF 		bl	CyBle_GappStartAdvertisement
 413              	.LVL58:
 414 00d4 011E     		sub	r1, r0, #0
 415              	.LVL59:
 158:main.c        ****             {
 416              		.loc 1 158 0
 417 00d6 A142     		cmp	r1, r4
 418 00d8 02D0     		beq	.L49
 160:main.c        ****             }
 419              		.loc 1 160 0
 420 00da 3648     		ldr	r0, .L62+32
 421              	.LVL60:
 422 00dc FFF7FEFF 		bl	printf
 423              	.LVL61:
 424              	.L49:
 162:main.c        ****             break;
 425              		.loc 1 162 0
 426 00e0 3548     		ldr	r0, .L62+36
 427 00e2 4FE0     		b	.L60
 428              	.LVL62:
 429              	.L23:
 168:main.c        **** 			break;
 430              		.loc 1 168 0
 431 00e4 3548     		ldr	r0, .L62+40
 432              	.LVL63:
 433 00e6 4DE0     		b	.L60
 434              	.LVL64:
 435              	.L27:
 171:main.c        **** 			break;
 436              		.loc 1 171 0
 437 00e8 0978     		ldrb	r1, [r1]
 438              	.LVL65:
 439 00ea 3548     		ldr	r0, .L62+44
 440              	.LVL66:
 441 00ec 4FE0     		b	.L59
ARM GAS  C:\Users\Administrator\AppData\Local\Temp\cc5DEr5V.s 			page 14


 442              	.LVL67:
 443              	.L21:
 185:main.c        ****             break;
 444              		.loc 1 185 0
 445 00ee 3548     		ldr	r0, .L62+48
 446              	.LVL68:
 447 00f0 48E0     		b	.L60
 448              	.LVL69:
 449              	.L31:
 188:main.c        ****             break;
 450              		.loc 1 188 0
 451 00f2 3548     		ldr	r0, .L62+52
 452              	.LVL70:
 453 00f4 0968     		ldr	r1, [r1]
 454              	.LVL71:
 455 00f6 4AE0     		b	.L59
 456              	.LVL72:
 457              	.L61:
 193:main.c        ****                                     authInfo->security, authInfo->bonding, authInfo->ekeySize, auth
 458              		.loc 1 193 0
 459 00f8 FFF7FEFF 		bl	printf
 460              	.LVL73:
 195:main.c        ****         case CYBLE_EVT_GAP_AUTH_FAILED:
 461              		.loc 1 195 0
 462 00fc 49E0     		b	.L17
 463              	.LVL74:
 464              	.L29:
 197:main.c        ****             break;
 465              		.loc 1 197 0
 466 00fe 0978     		ldrb	r1, [r1]
 467              	.LVL75:
 468 0100 3248     		ldr	r0, .L62+56
 469              	.LVL76:
 470 0102 44E0     		b	.L59
 471              	.LVL77:
 472              	.L33:
 200:main.c        ****             if(CYBLE_STATE_DISCONNECTED == CyBle_GetState())
 473              		.loc 1 200 0
 474 0104 324C     		ldr	r4, .L62+60
 475 0106 3348     		ldr	r0, .L62+64
 476              	.LVL78:
 477 0108 2178     		ldrb	r1, [r4]
 478              	.LVL79:
 479 010a FFF7FEFF 		bl	printf
 480              	.LVL80:
 201:main.c        ****             {   
 481              		.loc 1 201 0
 482 010e 2378     		ldrb	r3, [r4]
 206:main.c        ****             #if (DEBUG_UART_ENABLED == ENABLED)
 483              		.loc 1 206 0
 484 0110 3148     		ldr	r0, .L62+68
 201:main.c        ****             {   
 485              		.loc 1 201 0
 486 0112 042B     		cmp	r3, #4
 487 0114 3DD1     		bne	.L17
 488 0116 35E0     		b	.L60
 489              	.LVL81:
ARM GAS  C:\Users\Administrator\AppData\Local\Temp\cc5DEr5V.s 			page 15


 490              	.L19:
 216:main.c        ****             /* Put the device to discoverable mode so that remote can search it. */
 491              		.loc 1 216 0
 492 0118 3048     		ldr	r0, .L62+72
 493              	.LVL82:
 494 011a FFF7FEFF 		bl	puts
 495              	.LVL83:
 218:main.c        ****             if(apiResult != CYBLE_ERROR_OK)
 496              		.loc 1 218 0
 497 011e 0020     		mov	r0, #0
 498 0120 FFF7FEFF 		bl	CyBle_GappStartAdvertisement
 499              	.LVL84:
 500 0124 011E     		sub	r1, r0, #0
 501              	.LVL85:
 221:main.c        ****             }
 502              		.loc 1 221 0
 503 0126 2E48     		ldr	r0, .L62+76
 219:main.c        ****             {
 504              		.loc 1 219 0
 505 0128 33D0     		beq	.L17
 506 012a 30E0     		b	.L59
 507              	.LVL86:
 508              	.L39:
 225:main.c        ****             break;
 509              		.loc 1 225 0
 510 012c 0978     		ldrb	r1, [r1]
 511              	.LVL87:
 512 012e 2D48     		ldr	r0, .L62+80
 513              	.LVL88:
 514 0130 2DE0     		b	.L59
 515              	.LVL89:
 516              	.L37:
 231:main.c        ****             break;
 517              		.loc 1 231 0
 518 0132 2D48     		ldr	r0, .L62+84
 519              	.LVL90:
 520 0134 26E0     		b	.L60
 521              	.LVL91:
 522              	.L41:
 238:main.c        ****             break;
 523              		.loc 1 238 0
 524 0136 2D4B     		ldr	r3, .L62+88
 525 0138 2D48     		ldr	r0, .L62+92
 526              	.LVL92:
 527 013a 5978     		ldrb	r1, [r3, #1]
 528              	.LVL93:
 529 013c 1A78     		ldrb	r2, [r3]
 530 013e FFF7FEFF 		bl	printf
 531              	.LVL94:
 239:main.c        ****         case CYBLE_EVT_GATT_DISCONNECT_IND:
 532              		.loc 1 239 0
 533 0142 26E0     		b	.L17
 534              	.LVL95:
 535              	.L35:
 244:main.c        ****             (void)CyBle_GattsWriteRsp(((CYBLE_GATTS_WRITE_REQ_PARAM_T *)eventParam)->connHandle);
 536              		.loc 1 244 0
 537 0144 8989     		ldrh	r1, [r1, #12]
ARM GAS  C:\Users\Administrator\AppData\Local\Temp\cc5DEr5V.s 			page 16


 538              	.LVL96:
 539 0146 2B48     		ldr	r0, .L62+96
 540              	.LVL97:
 541 0148 FFF7FEFF 		bl	printf
 542              	.LVL98:
 245:main.c        ****             break;
 543              		.loc 1 245 0
 544 014c 2068     		ldr	r0, [r4]
 545 014e FFF7FEFF 		bl	CyBle_GattsWriteRsp
 546              	.LVL99:
 246:main.c        **** 		case CYBLE_EVT_GATTS_WRITE_CMD_REQ:
 547              		.loc 1 246 0
 548 0152 1EE0     		b	.L17
 549              	.LVL100:
 550              	.L45:
 248:main.c        **** 			//该属性的句柄值:
 551              		.loc 1 248 0
 552 0154 8989     		ldrh	r1, [r1, #12]
 553              	.LVL101:
 554 0156 2848     		ldr	r0, .L62+100
 555              	.LVL102:
 556 0158 FFF7FEFF 		bl	printf
 557              	.LVL103:
 250:main.c        **** 			//数据长度:
 558              		.loc 1 250 0
 559 015c A189     		ldrh	r1, [r4, #12]
 560 015e 2748     		ldr	r0, .L62+104
 561 0160 FFF7FEFF 		bl	printf
 562              	.LVL104:
 252:main.c        **** 			//数据actualen长度:
 563              		.loc 1 252 0
 564 0164 2189     		ldrh	r1, [r4, #8]
 565 0166 2648     		ldr	r0, .L62+108
 566 0168 FFF7FEFF 		bl	printf
 567              	.LVL105:
 254:main.c        **** 			//数据内容:
 568              		.loc 1 254 0
 569 016c 6189     		ldrh	r1, [r4, #10]
 570 016e 2548     		ldr	r0, .L62+112
 571 0170 FFF7FEFF 		bl	printf
 572              	.LVL106:
 256:main.c        ****             break;
 573              		.loc 1 256 0
 574 0174 2189     		ldrh	r1, [r4, #8]
 575 0176 6068     		ldr	r0, [r4, #4]
 576 0178 FFF7FEFF 		bl	BleRecv
 577              	.LVL107:
 257:main.c        ****         case CYBLE_EVT_GATTS_INDICATION_ENABLED:
 578              		.loc 1 257 0
 579 017c 09E0     		b	.L17
 580              	.LVL108:
 581              	.L47:
 259:main.c        ****             break;
 582              		.loc 1 259 0
 583 017e 2248     		ldr	r0, .L62+116
 584              	.LVL109:
 585 0180 00E0     		b	.L60
ARM GAS  C:\Users\Administrator\AppData\Local\Temp\cc5DEr5V.s 			page 17


 586              	.LVL110:
 587              	.L43:
 271:main.c        ****                 ((CYBLE_GATTS_CHAR_VAL_READ_REQ_T *)eventParam)->attrHandle);
 272:main.c        ****             break;
 273:main.c        **** 
 274:main.c        ****         /**********************************************************
 275:main.c        ****         *                       Other Events
 276:main.c        ****         ***********************************************************/
 277:main.c        ****         case CYBLE_EVT_PENDING_FLASH_WRITE:
 278:main.c        ****             /* Inform application that flash write is pending. Stack internal data 
 279:main.c        ****             * structures are modified and require to be stored in Flash using 
 280:main.c        ****             * CyBle_StoreBondingData() */
 281:main.c        ****             DBG_PRINTF("CYBLE_EVT_PENDING_FLASH_WRITE\r\n");
 588              		.loc 1 281 0
 589 0182 2248     		ldr	r0, .L62+120
 590              	.LVL111:
 591              	.L60:
 592 0184 FFF7FEFF 		bl	puts
 593              	.LVL112:
 282:main.c        ****             break;
 594              		.loc 1 282 0
 595 0188 03E0     		b	.L17
 596              	.LVL113:
 597              	.L18:
 283:main.c        **** 
 284:main.c        **** 		default:
 285:main.c        ****             DBG_PRINTF("OTHER event: %lx \r\n", event);
 598              		.loc 1 285 0
 599 018a 191C     		mov	r1, r3
 600              	.LVL114:
 601 018c 2048     		ldr	r0, .L62+124
 602              	.LVL115:
 603              	.L59:
 604 018e FFF7FEFF 		bl	printf
 605              	.LVL116:
 606              	.L17:
 286:main.c        **** 			break;
 287:main.c        **** 	}
 288:main.c        **** }
 607              		.loc 1 288 0
 608              		@ sp needed
 609 0192 1FBD     		pop	{r0, r1, r2, r3, r4, pc}
 610              	.L63:
 611              		.align	2
 612              	.L62:
 613 0194 08010000 		.word	.LC22
 614 0198 4E010000 		.word	.LC28
 615 019c E0010000 		.word	.LC34
 616 01a0 81020000 		.word	.LC43
 617 01a4 04030000 		.word	.LC51
 618 01a8 7C030000 		.word	.LC58
 619 01ac C8040000 		.word	.LC74
 620 01b0 A2040000 		.word	.LC72
 621 01b4 E2000000 		.word	.LC18
 622 01b8 06010000 		.word	.LC20
 623 01bc 21010000 		.word	.LC24
 624 01c0 32010000 		.word	.LC26
ARM GAS  C:\Users\Administrator\AppData\Local\Temp\cc5DEr5V.s 			page 18


 625 01c4 92010000 		.word	.LC30
 626 01c8 B4010000 		.word	.LC32
 627 01cc 23020000 		.word	.LC36
 628 01d0 00000000 		.word	cyBle_state
 629 01d4 40020000 		.word	.LC38
 630 01d8 75020000 		.word	.LC41
 631 01dc A7020000 		.word	.LC45
 632 01e0 CA020000 		.word	.LC47
 633 01e4 EE020000 		.word	.LC49
 634 01e8 30030000 		.word	.LC53
 635 01ec 00000000 		.word	cyBle_connHandle
 636 01f0 56030000 		.word	.LC55
 637 01f4 9C030000 		.word	.LC60
 638 01f8 BC030000 		.word	.LC62
 639 01fc E6030000 		.word	.LC64
 640 0200 1D040000 		.word	.LC66
 641 0204 49040000 		.word	.LC68
 642 0208 7D040000 		.word	.LC70
 643 020c 00050000 		.word	.LC76
 644 0210 1F050000 		.word	.LC78
 645              		.cfi_endproc
 646              	.LFE42:
 647              		.size	AppCallback, .-AppCallback
 648              		.section	.text.metadatacheckSum,"ax",%progbits
 649              		.align	1
 650              		.global	metadatacheckSum
 651              		.code	16
 652              		.thumb_func
 653              		.type	metadatacheckSum, %function
 654              	metadatacheckSum:
 655              	.LFB43:
 289:main.c        **** 
 290:main.c        **** //*************************************************************************************************
 291:main.c        **** // Function name	: metadatacheckSum
 292:main.c        **** // Description		: 蓝牙的回调函数
 293:main.c        **** // Parameter		: event
 294:main.c        **** //					: eventParam
 295:main.c        **** // Return			: none
 296:main.c        **** //-------------------------------------------------------------------------------------------------
 297:main.c        **** // Info				: 
 298:main.c        **** //*************************************************************************************************
 299:main.c        **** uint16 metadatacheckSum(const uint8 buffer[], uint16 Rowcnt)
 300:main.c        **** {
 656              		.loc 1 300 0
 657              		.cfi_startproc
 658              	.LVL117:
 659 0000 70B5     		push	{r4, r5, r6, lr}
 660              		.cfi_def_cfa_offset 16
 661              		.cfi_offset 4, -16
 662              		.cfi_offset 5, -12
 663              		.cfi_offset 6, -8
 664              		.cfi_offset 14, -4
 301:main.c        **** 	uint16 sum = 0u;
 302:main.c        **** 	
 303:main.c        **** 	#if 0
 304:main.c        **** 	while (size > 0u)
 305:main.c        **** 	{
ARM GAS  C:\Users\Administrator\AppData\Local\Temp\cc5DEr5V.s 			page 19


 306:main.c        **** 	    sum += buffer[size - 1u];
 307:main.c        **** 	    size--;
 308:main.c        **** 	}
 309:main.c        **** 	return(( uint16 )1u + ( uint16 )(~sum));
 310:main.c        **** 	#endif
 311:main.c        **** 	
 312:main.c        **** 	uint16 extMemRowIdx;
 313:main.c        ****     uint16 extMemAppRowsTotal = Rowcnt;
 314:main.c        **** 	const uint8  *extMemRow = buffer;
 315:main.c        **** 	uint16 size;
 316:main.c        **** 	
 317:main.c        **** 	for (extMemRowIdx = 0u; extMemRowIdx < extMemAppRowsTotal; extMemRowIdx++)
 665              		.loc 1 317 0
 666 0002 0024     		mov	r4, #0
 301:main.c        **** 	uint16 sum = 0u;
 667              		.loc 1 301 0
 668 0004 231C     		mov	r3, r4
 669              	.LVL118:
 670              	.L65:
 671              		.loc 1 317 0 discriminator 1
 672 0006 A2B2     		uxth	r2, r4
 673 0008 8A42     		cmp	r2, r1
 674 000a 0CD2     		bcs	.L68
 318:main.c        ****     {
 319:main.c        ****         extMemRow = buffer + (extMemRowIdx * CY_FLASH_SIZEOF_ROW);
 320:main.c        ****         size = CY_FLASH_SIZEOF_ROW;
 675              		.loc 1 320 0
 676 000c 8022     		mov	r2, #128
 677 000e 2602     		lsl	r6, r4, #8
 678              	.LVL119:
 679 0010 5200     		lsl	r2, r2, #1
 680              	.LVL120:
 681              	.L66:
 321:main.c        ****         while (size > 0u)
 322:main.c        ****         {
 323:main.c        ****             size--;
 682              		.loc 1 323 0
 683 0012 013A     		sub	r2, r2, #1
 684              	.LVL121:
 685 0014 92B2     		uxth	r2, r2
 686              	.LVL122:
 324:main.c        ****             sum += extMemRow[size];
 687              		.loc 1 324 0
 688 0016 8518     		add	r5, r0, r2
 689 0018 AD5D     		ldrb	r5, [r5, r6]
 690 001a 5B19     		add	r3, r3, r5
 691              	.LVL123:
 692 001c 9BB2     		uxth	r3, r3
 693              	.LVL124:
 321:main.c        ****         while (size > 0u)
 694              		.loc 1 321 0
 695 001e 002A     		cmp	r2, #0
 696 0020 F7D1     		bne	.L66
 697              	.LVL125:
 698 0022 0134     		add	r4, r4, #1
 699              	.LVL126:
 700 0024 EFE7     		b	.L65
ARM GAS  C:\Users\Administrator\AppData\Local\Temp\cc5DEr5V.s 			page 20


 701              	.LVL127:
 702              	.L68:
 325:main.c        ****         }
 326:main.c        ****     }
 327:main.c        **** 	return(( uint16 )1u + ( uint16 )(~sum));
 703              		.loc 1 327 0
 704 0026 5842     		neg	r0, r3
 705              	.LVL128:
 706 0028 80B2     		uxth	r0, r0
 328:main.c        **** }
 707              		.loc 1 328 0
 708              		@ sp needed
 709              	.LVL129:
 710 002a 70BD     		pop	{r4, r5, r6, pc}
 711              		.cfi_endproc
 712              	.LFE43:
 713              		.size	metadatacheckSum, .-metadatacheckSum
 714              		.section	.text.startup.main,"ax",%progbits
 715              		.align	1
 716              		.global	main
 717              		.code	16
 718              		.thumb_func
 719              		.type	main, %function
 720              	main:
 721              	.LFB44:
 329:main.c        **** 
 330:main.c        **** //*************************************************************************************************
 331:main.c        **** // Function name	: main
 332:main.c        **** // Description		: 主函数
 333:main.c        **** // Parameter		: none
 334:main.c        **** // Return			: none
 335:main.c        **** //-------------------------------------------------------------------------------------------------
 336:main.c        **** // Info				: 
 337:main.c        **** //*************************************************************************************************
 338:main.c        **** int main(void)
 339:main.c        **** {   
 722              		.loc 1 339 0
 723              		.cfi_startproc
 724 0000 F8B5     		push	{r3, r4, r5, r6, r7, lr}
 725              		.cfi_def_cfa_offset 24
 726              		.cfi_offset 3, -24
 727              		.cfi_offset 4, -20
 728              		.cfi_offset 5, -16
 729              		.cfi_offset 6, -12
 730              		.cfi_offset 7, -8
 731              		.cfi_offset 14, -4
 340:main.c        **** 	W25QXX_Init();
 732              		.loc 1 340 0
 733 0002 FFF7FEFF 		bl	W25QXX_Init
 734              	.LVL130:
 341:main.c        ****     CyGlobalIntEnable;
 735              		.loc 1 341 0
 736              	@ 341 "main.c" 1
 737 0006 62B6     		CPSIE   i
 738              	@ 0 "" 2
 739              		.code	16
 740              	.LBB6:
ARM GAS  C:\Users\Administrator\AppData\Local\Temp\cc5DEr5V.s 			page 21


 741              	.LBB7:
  23:main.c        ****     UART_PutString("\r\n");
 742              		.loc 1 23 0
 743 0008 224C     		ldr	r4, .L72
 744 000a 201C     		mov	r0, r4
 745 000c FFF7FEFF 		bl	UART_PutString
 746              	.LVL131:
  24:main.c        ****     UART_PutString("===============================================================================
 747              		.loc 1 24 0
 748 0010 201C     		mov	r0, r4
 749 0012 FFF7FEFF 		bl	UART_PutString
 750              	.LVL132:
  25:main.c        ****     UART_PutString("=  BLE_OTA_External_Memory_Bootloader Application Started\r\n");
 751              		.loc 1 25 0
 752 0016 204D     		ldr	r5, .L72+4
 753 0018 281C     		mov	r0, r5
 754 001a FFF7FEFF 		bl	UART_PutString
 755              	.LVL133:
  26:main.c        ****     UART_PutString("=  Version: 1.40\r\n");    
 756              		.loc 1 26 0
 757 001e 1F48     		ldr	r0, .L72+8
 758 0020 FFF7FEFF 		bl	UART_PutString
 759              	.LVL134:
  27:main.c        ****     DBG_PRINTF    ("=  Compile Date and Time : %s %s\r\n", __DATE__,__TIME__);
 760              		.loc 1 27 0
 761 0024 1E48     		ldr	r0, .L72+12
 762 0026 FFF7FEFF 		bl	UART_PutString
 763              	.LVL135:
  28:main.c        ****     UART_PutString("===============================================================================
 764              		.loc 1 28 0
 765 002a 1E4F     		ldr	r7, .L72+16
 766 002c 1E4E     		ldr	r6, .L72+20
 767 002e 1F4A     		ldr	r2, .L72+24
 768 0030 311C     		mov	r1, r6
 769 0032 381C     		mov	r0, r7
 770 0034 FFF7FEFF 		bl	printf
 771              	.LVL136:
  29:main.c        ****     UART_PutString("\r\n"); 
 772              		.loc 1 29 0
 773 0038 281C     		mov	r0, r5
 774 003a FFF7FEFF 		bl	UART_PutString
 775              	.LVL137:
  30:main.c        ****     UART_PutString("\r\n");
 776              		.loc 1 30 0
 777 003e 201C     		mov	r0, r4
 778 0040 FFF7FEFF 		bl	UART_PutString
 779              	.LVL138:
  31:main.c        **** }
 780              		.loc 1 31 0
 781 0044 201C     		mov	r0, r4
 782 0046 FFF7FEFF 		bl	UART_PutString
 783              	.LVL139:
 784              	.LBE7:
 785              	.LBE6:
 342:main.c        ****     PrintStartProject();
 343:main.c        **** 	CyBle_Start(AppCallback);
 786              		.loc 1 343 0
ARM GAS  C:\Users\Administrator\AppData\Local\Temp\cc5DEr5V.s 			page 22


 787 004a 1948     		ldr	r0, .L72+28
 788 004c FFF7FEFF 		bl	CyBle_Start
 789              	.LVL140:
 344:main.c        **** 	
 345:main.c        **** 	#if 0
 346:main.c        **** 	UpdateImage();
 347:main.c        **** 	#endif
 348:main.c        **** 	
 349:main.c        **** 	#if 1
 350:main.c        **** 	if (Bootloader_GET_RUN_TYPE  == Bootloader_SCHEDULE_BTLDR)
 790              		.loc 1 350 0
 791 0050 184B     		ldr	r3, .L72+32
 792 0052 1B68     		ldr	r3, [r3]
 793 0054 402B     		cmp	r3, #64
 794 0056 17D1     		bne	.L70
 795              	.LBB8:
 796              	.LBB9:
  44:main.c        ****     UART_PutString("===============================================================================
 797              		.loc 1 44 0
 798 0058 201C     		mov	r0, r4
 799 005a FFF7FEFF 		bl	UART_PutString
 800              	.LVL141:
  45:main.c        ****     UART_PutString("=  Start Update Image!\r\n");
 801              		.loc 1 45 0
 802 005e 281C     		mov	r0, r5
 803 0060 FFF7FEFF 		bl	UART_PutString
 804              	.LVL142:
  46:main.c        **** 	DBG_PRINTF    ("=  Compile Date and Time : %s %s\r\n", __DATE__,__TIME__);
 805              		.loc 1 46 0
 806 0064 1448     		ldr	r0, .L72+36
 807 0066 FFF7FEFF 		bl	UART_PutString
 808              	.LVL143:
  47:main.c        ****     UART_PutString("===============================================================================
 809              		.loc 1 47 0
 810 006a 311C     		mov	r1, r6
 811 006c 0F4A     		ldr	r2, .L72+24
 812 006e 381C     		mov	r0, r7
 813 0070 FFF7FEFF 		bl	printf
 814              	.LVL144:
  48:main.c        ****     UART_PutString("\r\n");
 815              		.loc 1 48 0
 816 0074 281C     		mov	r0, r5
 817 0076 FFF7FEFF 		bl	UART_PutString
 818              	.LVL145:
  49:main.c        **** }
 819              		.loc 1 49 0
 820 007a 201C     		mov	r0, r4
 821 007c FFF7FEFF 		bl	UART_PutString
 822              	.LVL146:
 823              	.LBE9:
 824              	.LBE8:
 351:main.c        **** 	{
 352:main.c        **** 		PrintUpdateImage();
 353:main.c        **** 		if (UpdateImage() == FALSE)
 825              		.loc 1 353 0
 826 0080 FFF7FEFF 		bl	UpdateImage
 827              	.LVL147:
ARM GAS  C:\Users\Administrator\AppData\Local\Temp\cc5DEr5V.s 			page 23


 828 0084 0028     		cmp	r0, #0
 829 0086 03D1     		bne	.L71
 830              	.L70:
 354:main.c        **** 		{
 355:main.c        **** 			PrintLauchApp();
 831              		.loc 1 355 0
 832 0088 FFF7FEFF 		bl	PrintLauchApp
 833              	.LVL148:
 356:main.c        **** 			LaunchApp();
 834              		.loc 1 356 0
 835 008c FFF7FEFF 		bl	LaunchApp
 836              	.LVL149:
 837              	.L71:
 357:main.c        **** 		}
 358:main.c        **** 	}
 359:main.c        **** 	else
 360:main.c        **** 	{	
 361:main.c        **** 		PrintLauchApp();
 362:main.c        **** 		LaunchApp();
 363:main.c        ****     }
 364:main.c        **** 	#endif
 365:main.c        **** 	
 366:main.c        **** 	for(;;)
 367:main.c        ****     {
 368:main.c        **** 	
 369:main.c        ****     }
 838              		.loc 1 369 0 discriminator 2
 839 0090 FEE7     		b	.L71
 840              	.L73:
 841 0092 C046     		.align	2
 842              	.L72:
 843 0094 00000000 		.word	.LC0
 844 0098 03000000 		.word	.LC2
 845 009c 33050000 		.word	.LC82
 846 00a0 6F050000 		.word	.LC84
 847 00a4 6A000000 		.word	.LC6
 848 00a8 8D000000 		.word	.LC8
 849 00ac 99000000 		.word	.LC10
 850 00b0 00000000 		.word	AppCallback
 851 00b4 00000000 		.word	cyBtldrRunType
 852 00b8 82050000 		.word	.LC91
 853              		.cfi_endproc
 854              	.LFE44:
 855              		.size	main, .-main
 856              		.section	.rodata
 857              		.set	.LANCHOR0,. + 0
 858              		.type	__FUNCTION__.7775, %object
 859              		.size	__FUNCTION__.7775, 8
 860              	__FUNCTION__.7775:
 861 0000 426C6552 		.ascii	"BleRecv\000"
 861      65637600 
 862              		.section	.rodata.str1.1,"aMS",%progbits,1
 863              	.LC0:
 864 0000 0D0A00   		.ascii	"\015\012\000"
 865              	.LC2:
 866 0003 3D3D3D3D 		.ascii	"==================================================="
 866      3D3D3D3D 
ARM GAS  C:\Users\Administrator\AppData\Local\Temp\cc5DEr5V.s 			page 24


 866      3D3D3D3D 
 866      3D3D3D3D 
 866      3D3D3D3D 
 867 0036 3D3D3D3D 		.ascii	"============================\015\012\000"
 867      3D3D3D3D 
 867      3D3D3D3D 
 867      3D3D3D3D 
 867      3D3D3D3D 
 868              	.LC4:
 869 0055 3D202053 		.ascii	"=  Start_Lauch App\015\012\000"
 869      74617274 
 869      5F4C6175 
 869      63682041 
 869      70700D0A 
 870              	.LC6:
 871 006a 3D202043 		.ascii	"=  Compile Date and Time : %s %s\015\012\000"
 871      6F6D7069 
 871      6C652044 
 871      61746520 
 871      616E6420 
 872              	.LC8:
 873 008d 4D617220 		.ascii	"Mar 14 2018\000"
 873      31342032 
 873      30313800 
 874              	.LC10:
 875 0099 31373A32 		.ascii	"17:21:23\000"
 875      313A3233 
 875      00
 876              	.LC13:
 877 00a2 41707050 		.ascii	"AppProtocol_Send--->send error\000"
 877      726F746F 
 877      636F6C5F 
 877      53656E64 
 877      2D2D2D3E 
 878              	.LC15:
 879 00c1 41707050 		.ascii	"AppProtocol_Send--->sent finish.\000"
 879      726F746F 
 879      636F6C5F 
 879      53656E64 
 879      2D2D2D3E 
 880              	.LC18:
 881 00e2 53746172 		.ascii	"StartAdvertisement API Error: %d \015\012\000"
 881      74416476 
 881      65727469 
 881      73656D65 
 881      6E742041 
 882              	.LC20:
 883 0106 0D00     		.ascii	"\015\000"
 884              	.LC22:
 885 0108 4359424C 		.ascii	"CYBLE_EVT_TIMEOUT: %x \015\012\000"
 885      455F4556 
 885      545F5449 
 885      4D454F55 
 885      543A2025 
 886              	.LC24:
 887 0121 48617264 		.ascii	"Hardware Error \015\000"
 887      77617265 
ARM GAS  C:\Users\Administrator\AppData\Local\Temp\cc5DEr5V.s 			page 25


 887      20457272 
 887      6F72200D 
 887      00
 888              	.LC26:
 889 0132 4359424C 		.ascii	"CYBLE_EVT_HCI_STATUS: %x \015\012\000"
 889      455F4556 
 889      545F4843 
 889      495F5354 
 889      41545553 
 890              	.LC28:
 891 014e 4359424C 		.ascii	"CYBLE_EVT_AUTH_REQ: security=%x, bonding=%x, ekeySi"
 891      455F4556 
 891      545F4155 
 891      54485F52 
 891      45513A20 
 892 0181 7A653D25 		.ascii	"ze=%x, err=%x \015\012\000"
 892      782C2065 
 892      72723D25 
 892      78200D0A 
 892      00
 893              	.LC30:
 894 0192 4359424C 		.ascii	"CYBLE_EVT_PASSKEY_ENTRY_REQUEST \015\000"
 894      455F4556 
 894      545F5041 
 894      53534B45 
 894      595F454E 
 895              	.LC32:
 896 01b4 4359424C 		.ascii	"CYBLE_EVT_PASSKEY_DISPLAY_REQUEST %6.6ld \015\012\000"
 896      455F4556 
 896      545F5041 
 896      53534B45 
 896      595F4449 
 897              	.LC34:
 898 01e0 41555448 		.ascii	"AUTH_COMPLETE: security:%x, bonding:%x, ekeySize:%x"
 898      5F434F4D 
 898      504C4554 
 898      453A2073 
 898      65637572 
 899 0213 2C206175 		.ascii	", authErr %x \015\012\000"
 899      74684572 
 899      72202578 
 899      200D0A00 
 900              	.LC36:
 901 0223 4359424C 		.ascii	"CYBLE_EVT_AUTH_FAILED: %x \015\012\000"
 901      455F4556 
 901      545F4155 
 901      54485F46 
 901      41494C45 
 902              	.LC38:
 903 0240 4359424C 		.ascii	"CYBLE_EVT_GAPP_ADVERTISEMENT_START_STOP, state: %x\015"
 903      455F4556 
 903      545F4741 
 903      50505F41 
 903      44564552 
 904 0273 0A00     		.ascii	"\012\000"
 905              	.LC41:
 906 0275 48696265 		.ascii	"Hibernate \015\000"
ARM GAS  C:\Users\Administrator\AppData\Local\Temp\cc5DEr5V.s 			page 26


 906      726E6174 
 906      65200D00 
 907              	.LC43:
 908 0281 4359424C 		.ascii	"CYBLE_EVT_GAP_DEVICE_CONNECTED: %x \015\012\000"
 908      455F4556 
 908      545F4741 
 908      505F4445 
 908      56494345 
 909              	.LC45:
 910 02a7 4359424C 		.ascii	"CYBLE_EVT_GAP_DEVICE_DISCONNECTED\015\000"
 910      455F4556 
 910      545F4741 
 910      505F4445 
 910      56494345 
 911              	.LC47:
 912 02ca 53746172 		.ascii	"StartAdvertisement API Error: %x \015\012\000"
 912      74416476 
 912      65727469 
 912      73656D65 
 912      6E742041 
 913              	.LC49:
 914 02ee 454E4352 		.ascii	"ENCRYPT_CHANGE: %x \015\012\000"
 914      5950545F 
 914      4348414E 
 914      47453A20 
 914      2578200D 
 915              	.LC51:
 916 0304 4359424C 		.ascii	"CYBLE_EVT_CONNECTION_UPDATE_COMPLETE: %x \015\012\000"
 916      455F4556 
 916      545F434F 
 916      4E4E4543 
 916      54494F4E 
 917              	.LC53:
 918 0330 4359424C 		.ascii	"CYBLE_EVT_GAP_KEYINFO_EXCHNGE_CMPLT \015\000"
 918      455F4556 
 918      545F4741 
 918      505F4B45 
 918      59494E46 
 919              	.LC55:
 920 0356 4359424C 		.ascii	"CYBLE_EVT_GATT_CONNECT_IND: %x, %x \015\012\000"
 920      455F4556 
 920      545F4741 
 920      54545F43 
 920      4F4E4E45 
 921              	.LC58:
 922 037c 4359424C 		.ascii	"CYBLE_EVT_GATT_DISCONNECT_IND \015\000"
 922      455F4556 
 922      545F4741 
 922      54545F44 
 922      4953434F 
 923              	.LC60:
 924 039c 4359424C 		.ascii	"CYBLE_EVT_GATT_WRITE_REQ: %x = \000"
 924      455F4556 
 924      545F4741 
 924      54545F57 
 924      52495445 
 925              	.LC62:
ARM GAS  C:\Users\Administrator\AppData\Local\Temp\cc5DEr5V.s 			page 27


 926 03bc 4359424C 		.ascii	"CYBLE_EVT_GATT_WRITE_CMD_REQ: = 0x%03xu \012\000"
 926      455F4556 
 926      545F4741 
 926      54545F57 
 926      52495445 
 927              	.LC64:
 928 03e6 6C6F6361 		.ascii	"locationWCRP->handleValPair.value.attrHandle =0x%03"
 928      74696F6E 
 928      57435250 
 928      2D3E6861 
 928      6E646C65 
 929 0419 78750A00 		.ascii	"xu\012\000"
 930              	.LC66:
 931 041d 6C6F6361 		.ascii	"locationWCRP->handleValPair.value.len = %d\012\000"
 931      74696F6E 
 931      57435250 
 931      2D3E6861 
 931      6E646C65 
 932              	.LC68:
 933 0449 6C6F6361 		.ascii	"locationWCRP->handleValPair.value.actualLen = 0x%x\012"
 933      74696F6E 
 933      57435250 
 933      2D3E6861 
 933      6E646C65 
 934 047c 00       		.ascii	"\000"
 935              	.LC70:
 936 047d 4359424C 		.ascii	"CYBLE_EVT_GATTS_INDICATION_ENABLED \015\000"
 936      455F4556 
 936      545F4741 
 936      5454535F 
 936      494E4449 
 937              	.LC72:
 938 04a2 4359424C 		.ascii	"CYBLE_EVT_GATTS_INDICATION_DISABLED \015\000"
 938      455F4556 
 938      545F4741 
 938      5454535F 
 938      494E4449 
 939              	.LC74:
 940 04c8 4359424C 		.ascii	"CYBLE_EVT_GATTS_READ_CHAR_VAL_ACCESS_REQ: handle: %"
 940      455F4556 
 940      545F4741 
 940      5454535F 
 940      52454144 
 941 04fb 78200D0A 		.ascii	"x \015\012\000"
 941      00
 942              	.LC76:
 943 0500 4359424C 		.ascii	"CYBLE_EVT_PENDING_FLASH_WRITE\015\000"
 943      455F4556 
 943      545F5045 
 943      4E44494E 
 943      475F464C 
 944              	.LC78:
 945 051f 4F544845 		.ascii	"OTHER event: %lx \015\012\000"
 945      52206576 
 945      656E743A 
 945      20256C78 
 945      200D0A00 
ARM GAS  C:\Users\Administrator\AppData\Local\Temp\cc5DEr5V.s 			page 28


 946              	.LC82:
 947 0533 3D202042 		.ascii	"=  BLE_OTA_External_Memory_Bootloader Application S"
 947      4C455F4F 
 947      54415F45 
 947      78746572 
 947      6E616C5F 
 948 0566 74617274 		.ascii	"tarted\015\012\000"
 948      65640D0A 
 948      00
 949              	.LC84:
 950 056f 3D202056 		.ascii	"=  Version: 1.40\015\012\000"
 950      65727369 
 950      6F6E3A20 
 950      312E3430 
 950      0D0A00
 951              	.LC91:
 952 0582 3D202053 		.ascii	"=  Start Update Image!\015\012\000"
 952      74617274 
 952      20557064 
 952      61746520 
 952      496D6167 
 953              		.text
 954              	.Letext0:
 955              		.file 2 "Generated_Source\\PSoC4/cytypes.h"
 956              		.file 3 "Generated_Source\\PSoC4/BLE_Stack.h"
 957              		.file 4 "Generated_Source\\PSoC4/BLE_StackHostMain.h"
 958              		.file 5 "Generated_Source\\PSoC4/BLE_StackGap.h"
 959              		.file 6 "Generated_Source\\PSoC4/BLE_StackGatt.h"
 960              		.file 7 "Generated_Source\\PSoC4/BLE_StackGattServer.h"
 961              		.file 8 "Generated_Source\\PSoC4/BLE.h"
 962              		.file 9 "Generated_Source\\PSoC4/BLE_eventHandler.h"
 963              		.file 10 "OTAMandatory.h"
 964              		.file 11 "c:\\program files (x86)\\cypress\\psoc creator\\4.0\\psoc creator\\import\\gnu\\arm\\4.9
 965              		.file 12 ".\\Code\\W25Qxx/w25qxx.h"
 966              		.file 13 ".\\Code\\BOOT/boot.h"
 967              		.file 14 "Generated_Source\\PSoC4/UART.h"
 968              		.file 15 "<built-in>"