ARM GAS  C:\Users\zhiantec\AppData\Local\Temp\ccAwAEyq.s 			page 1


   1              		.cpu cortex-m0
   2              		.fpu softvfp
   3              		.eabi_attribute 20, 1
   4              		.eabi_attribute 21, 1
   5              		.eabi_attribute 23, 3
   6              		.eabi_attribute 24, 1
   7              		.eabi_attribute 25, 1
   8              		.eabi_attribute 26, 1
   9              		.eabi_attribute 30, 4
  10              		.eabi_attribute 34, 0
  11              		.eabi_attribute 18, 4
  12              		.code	16
  13              		.file	"aes.c"
  14              		.text
  15              	.Ltext0:
  16              		.cfi_sections	.debug_frame
  17              		.section	.text.KeyExpansion,"ax",%progbits
  18              		.align	1
  19              		.code	16
  20              		.thumb_func
  21              		.type	KeyExpansion, %function
  22              	KeyExpansion:
  23              	.LFB65:
  24              		.file 1 "Code\\Common\\crypt\\aes.c"
   1:Code\Common\crypt/aes.c **** /*
   2:Code\Common\crypt/aes.c **** 
   3:Code\Common\crypt/aes.c **** This is an implementation of the AES128 algorithm, specifically ECB.
   4:Code\Common\crypt/aes.c **** 
   5:Code\Common\crypt/aes.c **** The implementation is verified against the test vectors in:
   6:Code\Common\crypt/aes.c ****   National Institute of Standards and Technology Special Publication 800-38A 2001 ED
   7:Code\Common\crypt/aes.c **** 
   8:Code\Common\crypt/aes.c **** ECB-AES128
   9:Code\Common\crypt/aes.c **** ----------
  10:Code\Common\crypt/aes.c **** 
  11:Code\Common\crypt/aes.c ****   plain-text:
  12:Code\Common\crypt/aes.c ****     6bc1bee22e409f96e93d7e117393172a
  13:Code\Common\crypt/aes.c ****     ae2d8a571e03ac9c9eb76fac45af8e51
  14:Code\Common\crypt/aes.c ****     30c81c46a35ce411e5fbc1191a0a52ef
  15:Code\Common\crypt/aes.c ****     f69f2445df4f9b17ad2b417be66c3710
  16:Code\Common\crypt/aes.c **** 
  17:Code\Common\crypt/aes.c ****   key:
  18:Code\Common\crypt/aes.c ****     2b7e151628aed2a6abf7158809cf4f3c
  19:Code\Common\crypt/aes.c **** 
  20:Code\Common\crypt/aes.c ****   resulting cipher
  21:Code\Common\crypt/aes.c ****     3ad77bb40d7a3660a89ecaf32466ef97 
  22:Code\Common\crypt/aes.c ****     f5d3d58503b9699de785895a96fdbaaf 
  23:Code\Common\crypt/aes.c ****     43b1cd7f598ece23881b00e3ed030688 
  24:Code\Common\crypt/aes.c ****     7b0c785e27e8ad3f8223207104725dd4 
  25:Code\Common\crypt/aes.c **** 
  26:Code\Common\crypt/aes.c **** 
  27:Code\Common\crypt/aes.c **** NOTE:   String length must be evenly divisible by 16byte (str_len % 16 == 0)
  28:Code\Common\crypt/aes.c ****         You should pad the end of the string with zeros if this is not the case.
  29:Code\Common\crypt/aes.c **** 
  30:Code\Common\crypt/aes.c **** */
  31:Code\Common\crypt/aes.c **** 
  32:Code\Common\crypt/aes.c **** 
  33:Code\Common\crypt/aes.c **** /*****************************************************************************/
ARM GAS  C:\Users\zhiantec\AppData\Local\Temp\ccAwAEyq.s 			page 2


  34:Code\Common\crypt/aes.c **** /* Includes:                                                                 */
  35:Code\Common\crypt/aes.c **** /*****************************************************************************/
  36:Code\Common\crypt/aes.c **** //#include "aes.h"
  37:Code\Common\crypt/aes.c **** #include <string.h>
  38:Code\Common\crypt/aes.c **** #include <project.h>
  39:Code\Common\crypt/aes.c **** #include "common.h"
  40:Code\Common\crypt/aes.c **** 
  41:Code\Common\crypt/aes.c **** 
  42:Code\Common\crypt/aes.c **** /*****************************************************************************/
  43:Code\Common\crypt/aes.c **** /* Defines:                                                                  */
  44:Code\Common\crypt/aes.c **** /*****************************************************************************/
  45:Code\Common\crypt/aes.c **** // The number of columns comprising a state in AES. This is a constant in AES. Value=4
  46:Code\Common\crypt/aes.c **** #define Nb 		4
  47:Code\Common\crypt/aes.c **** // The number of 32 bit words in a key.
  48:Code\Common\crypt/aes.c **** #define Nk 		4
  49:Code\Common\crypt/aes.c **** // Key length in bytes [128 bit]
  50:Code\Common\crypt/aes.c **** #define KEYLEN 	16
  51:Code\Common\crypt/aes.c **** // The number of rounds in AES Cipher.
  52:Code\Common\crypt/aes.c **** #define Nr 		10
  53:Code\Common\crypt/aes.c **** 
  54:Code\Common\crypt/aes.c **** // jcallan@github points out that declaring Multiply as a function 
  55:Code\Common\crypt/aes.c **** // reduces code size considerably with the Keil ARM compiler.
  56:Code\Common\crypt/aes.c **** // See this link for more information: https://github.com/kokke/tiny-AES128-C/pull/3
  57:Code\Common\crypt/aes.c **** #ifndef MULTIPLY_AS_A_FUNCTION
  58:Code\Common\crypt/aes.c ****   #define MULTIPLY_AS_A_FUNCTION 0
  59:Code\Common\crypt/aes.c **** #endif
  60:Code\Common\crypt/aes.c **** 
  61:Code\Common\crypt/aes.c **** 
  62:Code\Common\crypt/aes.c **** /*****************************************************************************/
  63:Code\Common\crypt/aes.c **** /* Private variables:                                                        */
  64:Code\Common\crypt/aes.c **** /*****************************************************************************/
  65:Code\Common\crypt/aes.c **** // state - array holding the intermediate results during decryption.
  66:Code\Common\crypt/aes.c **** typedef uint8_t state_t[4][4];
  67:Code\Common\crypt/aes.c **** static state_t* state;
  68:Code\Common\crypt/aes.c **** 
  69:Code\Common\crypt/aes.c **** // The array that stores the round keys.
  70:Code\Common\crypt/aes.c **** static uint8_t RoundKey[176];
  71:Code\Common\crypt/aes.c **** 
  72:Code\Common\crypt/aes.c **** // The Key input to the AES Program
  73:Code\Common\crypt/aes.c **** static const uint8_t* Key;
  74:Code\Common\crypt/aes.c **** 
  75:Code\Common\crypt/aes.c **** // The lookup-tables are marked const so they can be placed in read-only storage instead of RAM
  76:Code\Common\crypt/aes.c **** // The numbers below can be computed dynamically trading ROM for RAM - 
  77:Code\Common\crypt/aes.c **** // This can be useful in (embedded) bootloader applications, where ROM is often limited.
  78:Code\Common\crypt/aes.c **** static const uint8_t sbox[256] =   {
  79:Code\Common\crypt/aes.c ****   //0     1    2      3     4    5     6     7      8    9     A      B    C     D     E     F
  80:Code\Common\crypt/aes.c ****   0x63, 0x7c, 0x77, 0x7b, 0xf2, 0x6b, 0x6f, 0xc5, 0x30, 0x01, 0x67, 0x2b, 0xfe, 0xd7, 0xab, 0x76,
  81:Code\Common\crypt/aes.c ****   0xca, 0x82, 0xc9, 0x7d, 0xfa, 0x59, 0x47, 0xf0, 0xad, 0xd4, 0xa2, 0xaf, 0x9c, 0xa4, 0x72, 0xc0,
  82:Code\Common\crypt/aes.c ****   0xb7, 0xfd, 0x93, 0x26, 0x36, 0x3f, 0xf7, 0xcc, 0x34, 0xa5, 0xe5, 0xf1, 0x71, 0xd8, 0x31, 0x15,
  83:Code\Common\crypt/aes.c ****   0x04, 0xc7, 0x23, 0xc3, 0x18, 0x96, 0x05, 0x9a, 0x07, 0x12, 0x80, 0xe2, 0xeb, 0x27, 0xb2, 0x75,
  84:Code\Common\crypt/aes.c ****   0x09, 0x83, 0x2c, 0x1a, 0x1b, 0x6e, 0x5a, 0xa0, 0x52, 0x3b, 0xd6, 0xb3, 0x29, 0xe3, 0x2f, 0x84,
  85:Code\Common\crypt/aes.c ****   0x53, 0xd1, 0x00, 0xed, 0x20, 0xfc, 0xb1, 0x5b, 0x6a, 0xcb, 0xbe, 0x39, 0x4a, 0x4c, 0x58, 0xcf,
  86:Code\Common\crypt/aes.c ****   0xd0, 0xef, 0xaa, 0xfb, 0x43, 0x4d, 0x33, 0x85, 0x45, 0xf9, 0x02, 0x7f, 0x50, 0x3c, 0x9f, 0xa8,
  87:Code\Common\crypt/aes.c ****   0x51, 0xa3, 0x40, 0x8f, 0x92, 0x9d, 0x38, 0xf5, 0xbc, 0xb6, 0xda, 0x21, 0x10, 0xff, 0xf3, 0xd2,
  88:Code\Common\crypt/aes.c ****   0xcd, 0x0c, 0x13, 0xec, 0x5f, 0x97, 0x44, 0x17, 0xc4, 0xa7, 0x7e, 0x3d, 0x64, 0x5d, 0x19, 0x73,
  89:Code\Common\crypt/aes.c ****   0x60, 0x81, 0x4f, 0xdc, 0x22, 0x2a, 0x90, 0x88, 0x46, 0xee, 0xb8, 0x14, 0xde, 0x5e, 0x0b, 0xdb,
  90:Code\Common\crypt/aes.c ****   0xe0, 0x32, 0x3a, 0x0a, 0x49, 0x06, 0x24, 0x5c, 0xc2, 0xd3, 0xac, 0x62, 0x91, 0x95, 0xe4, 0x79,
ARM GAS  C:\Users\zhiantec\AppData\Local\Temp\ccAwAEyq.s 			page 3


  91:Code\Common\crypt/aes.c ****   0xe7, 0xc8, 0x37, 0x6d, 0x8d, 0xd5, 0x4e, 0xa9, 0x6c, 0x56, 0xf4, 0xea, 0x65, 0x7a, 0xae, 0x08,
  92:Code\Common\crypt/aes.c ****   0xba, 0x78, 0x25, 0x2e, 0x1c, 0xa6, 0xb4, 0xc6, 0xe8, 0xdd, 0x74, 0x1f, 0x4b, 0xbd, 0x8b, 0x8a,
  93:Code\Common\crypt/aes.c ****   0x70, 0x3e, 0xb5, 0x66, 0x48, 0x03, 0xf6, 0x0e, 0x61, 0x35, 0x57, 0xb9, 0x86, 0xc1, 0x1d, 0x9e,
  94:Code\Common\crypt/aes.c ****   0xe1, 0xf8, 0x98, 0x11, 0x69, 0xd9, 0x8e, 0x94, 0x9b, 0x1e, 0x87, 0xe9, 0xce, 0x55, 0x28, 0xdf,
  95:Code\Common\crypt/aes.c ****   0x8c, 0xa1, 0x89, 0x0d, 0xbf, 0xe6, 0x42, 0x68, 0x41, 0x99, 0x2d, 0x0f, 0xb0, 0x54, 0xbb, 0x16 };
  96:Code\Common\crypt/aes.c **** 
  97:Code\Common\crypt/aes.c **** static const uint8_t rsbox[256] =
  98:Code\Common\crypt/aes.c **** { 0x52, 0x09, 0x6a, 0xd5, 0x30, 0x36, 0xa5, 0x38, 0xbf, 0x40, 0xa3, 0x9e, 0x81, 0xf3, 0xd7, 0xfb,
  99:Code\Common\crypt/aes.c ****   0x7c, 0xe3, 0x39, 0x82, 0x9b, 0x2f, 0xff, 0x87, 0x34, 0x8e, 0x43, 0x44, 0xc4, 0xde, 0xe9, 0xcb,
 100:Code\Common\crypt/aes.c ****   0x54, 0x7b, 0x94, 0x32, 0xa6, 0xc2, 0x23, 0x3d, 0xee, 0x4c, 0x95, 0x0b, 0x42, 0xfa, 0xc3, 0x4e,
 101:Code\Common\crypt/aes.c ****   0x08, 0x2e, 0xa1, 0x66, 0x28, 0xd9, 0x24, 0xb2, 0x76, 0x5b, 0xa2, 0x49, 0x6d, 0x8b, 0xd1, 0x25,
 102:Code\Common\crypt/aes.c ****   0x72, 0xf8, 0xf6, 0x64, 0x86, 0x68, 0x98, 0x16, 0xd4, 0xa4, 0x5c, 0xcc, 0x5d, 0x65, 0xb6, 0x92,
 103:Code\Common\crypt/aes.c ****   0x6c, 0x70, 0x48, 0x50, 0xfd, 0xed, 0xb9, 0xda, 0x5e, 0x15, 0x46, 0x57, 0xa7, 0x8d, 0x9d, 0x84,
 104:Code\Common\crypt/aes.c ****   0x90, 0xd8, 0xab, 0x00, 0x8c, 0xbc, 0xd3, 0x0a, 0xf7, 0xe4, 0x58, 0x05, 0xb8, 0xb3, 0x45, 0x06,
 105:Code\Common\crypt/aes.c ****   0xd0, 0x2c, 0x1e, 0x8f, 0xca, 0x3f, 0x0f, 0x02, 0xc1, 0xaf, 0xbd, 0x03, 0x01, 0x13, 0x8a, 0x6b,
 106:Code\Common\crypt/aes.c ****   0x3a, 0x91, 0x11, 0x41, 0x4f, 0x67, 0xdc, 0xea, 0x97, 0xf2, 0xcf, 0xce, 0xf0, 0xb4, 0xe6, 0x73,
 107:Code\Common\crypt/aes.c ****   0x96, 0xac, 0x74, 0x22, 0xe7, 0xad, 0x35, 0x85, 0xe2, 0xf9, 0x37, 0xe8, 0x1c, 0x75, 0xdf, 0x6e,
 108:Code\Common\crypt/aes.c ****   0x47, 0xf1, 0x1a, 0x71, 0x1d, 0x29, 0xc5, 0x89, 0x6f, 0xb7, 0x62, 0x0e, 0xaa, 0x18, 0xbe, 0x1b,
 109:Code\Common\crypt/aes.c ****   0xfc, 0x56, 0x3e, 0x4b, 0xc6, 0xd2, 0x79, 0x20, 0x9a, 0xdb, 0xc0, 0xfe, 0x78, 0xcd, 0x5a, 0xf4,
 110:Code\Common\crypt/aes.c ****   0x1f, 0xdd, 0xa8, 0x33, 0x88, 0x07, 0xc7, 0x31, 0xb1, 0x12, 0x10, 0x59, 0x27, 0x80, 0xec, 0x5f,
 111:Code\Common\crypt/aes.c ****   0x60, 0x51, 0x7f, 0xa9, 0x19, 0xb5, 0x4a, 0x0d, 0x2d, 0xe5, 0x7a, 0x9f, 0x93, 0xc9, 0x9c, 0xef,
 112:Code\Common\crypt/aes.c ****   0xa0, 0xe0, 0x3b, 0x4d, 0xae, 0x2a, 0xf5, 0xb0, 0xc8, 0xeb, 0xbb, 0x3c, 0x83, 0x53, 0x99, 0x61,
 113:Code\Common\crypt/aes.c ****   0x17, 0x2b, 0x04, 0x7e, 0xba, 0x77, 0xd6, 0x26, 0xe1, 0x69, 0x14, 0x63, 0x55, 0x21, 0x0c, 0x7d };
 114:Code\Common\crypt/aes.c **** 
 115:Code\Common\crypt/aes.c **** 
 116:Code\Common\crypt/aes.c **** // The round constant word array, Rcon[i], contains the values given by 
 117:Code\Common\crypt/aes.c **** // x to th e power (i-1) being powers of x (x is denoted as {02}) in the field GF(2^8)
 118:Code\Common\crypt/aes.c **** // Note that i starts at 1, not 0).
 119:Code\Common\crypt/aes.c **** #if 0
 120:Code\Common\crypt/aes.c **** static const uint8_t Rcon[255] = {
 121:Code\Common\crypt/aes.c ****   0x8d, 0x01, 0x02, 0x04, 0x08, 0x10, 0x20, 0x40, 0x80, 0x1b, 0x36, 0x6c, 0xd8, 0xab, 0x4d, 0x9a, 
 122:Code\Common\crypt/aes.c ****   0x2f, 0x5e, 0xbc, 0x63, 0xc6, 0x97, 0x35, 0x6a, 0xd4, 0xb3, 0x7d, 0xfa, 0xef, 0xc5, 0x91, 0x39, 
 123:Code\Common\crypt/aes.c ****   0x72, 0xe4, 0xd3, 0xbd, 0x61, 0xc2, 0x9f, 0x25, 0x4a, 0x94, 0x33, 0x66, 0xcc, 0x83, 0x1d, 0x3a, 
 124:Code\Common\crypt/aes.c ****   0x74, 0xe8, 0xcb, 0x8d, 0x01, 0x02, 0x04, 0x08, 0x10, 0x20, 0x40, 0x80, 0x1b, 0x36, 0x6c, 0xd8, 
 125:Code\Common\crypt/aes.c ****   0xab, 0x4d, 0x9a, 0x2f, 0x5e, 0xbc, 0x63, 0xc6, 0x97, 0x35, 0x6a, 0xd4, 0xb3, 0x7d, 0xfa, 0xef, 
 126:Code\Common\crypt/aes.c ****   0xc5, 0x91, 0x39, 0x72, 0xe4, 0xd3, 0xbd, 0x61, 0xc2, 0x9f, 0x25, 0x4a, 0x94, 0x33, 0x66, 0xcc, 
 127:Code\Common\crypt/aes.c ****   0x83, 0x1d, 0x3a, 0x74, 0xe8, 0xcb, 0x8d, 0x01, 0x02, 0x04, 0x08, 0x10, 0x20, 0x40, 0x80, 0x1b, 
 128:Code\Common\crypt/aes.c ****   0x36, 0x6c, 0xd8, 0xab, 0x4d, 0x9a, 0x2f, 0x5e, 0xbc, 0x63, 0xc6, 0x97, 0x35, 0x6a, 0xd4, 0xb3, 
 129:Code\Common\crypt/aes.c ****   0x7d, 0xfa, 0xef, 0xc5, 0x91, 0x39, 0x72, 0xe4, 0xd3, 0xbd, 0x61, 0xc2, 0x9f, 0x25, 0x4a, 0x94, 
 130:Code\Common\crypt/aes.c ****   0x33, 0x66, 0xcc, 0x83, 0x1d, 0x3a, 0x74, 0xe8, 0xcb, 0x8d, 0x01, 0x02, 0x04, 0x08, 0x10, 0x20, 
 131:Code\Common\crypt/aes.c ****   0x40, 0x80, 0x1b, 0x36, 0x6c, 0xd8, 0xab, 0x4d, 0x9a, 0x2f, 0x5e, 0xbc, 0x63, 0xc6, 0x97, 0x35, 
 132:Code\Common\crypt/aes.c ****   0x6a, 0xd4, 0xb3, 0x7d, 0xfa, 0xef, 0xc5, 0x91, 0x39, 0x72, 0xe4, 0xd3, 0xbd, 0x61, 0xc2, 0x9f, 
 133:Code\Common\crypt/aes.c ****   0x25, 0x4a, 0x94, 0x33, 0x66, 0xcc, 0x83, 0x1d, 0x3a, 0x74, 0xe8, 0xcb, 0x8d, 0x01, 0x02, 0x04, 
 134:Code\Common\crypt/aes.c ****   0x08, 0x10, 0x20, 0x40, 0x80, 0x1b, 0x36, 0x6c, 0xd8, 0xab, 0x4d, 0x9a, 0x2f, 0x5e, 0xbc, 0x63, 
 135:Code\Common\crypt/aes.c ****   0xc6, 0x97, 0x35, 0x6a, 0xd4, 0xb3, 0x7d, 0xfa, 0xef, 0xc5, 0x91, 0x39, 0x72, 0xe4, 0xd3, 0xbd, 
 136:Code\Common\crypt/aes.c ****   0x61, 0xc2, 0x9f, 0x25, 0x4a, 0x94, 0x33, 0x66, 0xcc, 0x83, 0x1d, 0x3a, 0x74, 0xe8, 0xcb  
 137:Code\Common\crypt/aes.c **** };
 138:Code\Common\crypt/aes.c **** #endif
 139:Code\Common\crypt/aes.c **** 
 140:Code\Common\crypt/aes.c **** #if 1
 141:Code\Common\crypt/aes.c **** static const uint8 Rcon[16] =     
 142:Code\Common\crypt/aes.c **** { 0xef, 0x3a, 0x19,  0x3d, 0xca, 0x0b, 0x36, 0x89, 0xa8, 0x61, 0xf6, 0x6c, 0xd8, 0xab, 0x4d, 0x9a};
 143:Code\Common\crypt/aes.c **** #endif
 144:Code\Common\crypt/aes.c **** 
 145:Code\Common\crypt/aes.c **** 
 146:Code\Common\crypt/aes.c **** /*****************************************************************************/
 147:Code\Common\crypt/aes.c **** /* Private functions:                                                        */
ARM GAS  C:\Users\zhiantec\AppData\Local\Temp\ccAwAEyq.s 			page 4


 148:Code\Common\crypt/aes.c **** /*****************************************************************************/
 149:Code\Common\crypt/aes.c **** static uint8_t getSBoxValue(uint8_t num)
 150:Code\Common\crypt/aes.c **** {
 151:Code\Common\crypt/aes.c ****   return sbox[num];
 152:Code\Common\crypt/aes.c **** }
 153:Code\Common\crypt/aes.c **** 
 154:Code\Common\crypt/aes.c **** static uint8_t getSBoxInvert(uint8_t num)
 155:Code\Common\crypt/aes.c **** {
 156:Code\Common\crypt/aes.c ****   return rsbox[num];
 157:Code\Common\crypt/aes.c **** }
 158:Code\Common\crypt/aes.c **** 
 159:Code\Common\crypt/aes.c **** // This function produces Nb(Nr+1) round keys. The round keys are used in each round to decrypt the
 160:Code\Common\crypt/aes.c **** static void KeyExpansion(void)
 161:Code\Common\crypt/aes.c **** {
  25              		.loc 1 161 0
  26              		.cfi_startproc
  27              	.LVL0:
 162:Code\Common\crypt/aes.c ****   uint32_t i, j, k;
 163:Code\Common\crypt/aes.c ****   uint8_t tempa[4]; // Used for the column/row operations
 164:Code\Common\crypt/aes.c ****   
 165:Code\Common\crypt/aes.c ****   // The first round key is the key itself.
 166:Code\Common\crypt/aes.c ****   for (i = 0; i < Nk; ++i)
 167:Code\Common\crypt/aes.c ****   {
 168:Code\Common\crypt/aes.c ****     RoundKey[(i * 4) + 0] = Key[(i * 4) + 0];
  28              		.loc 1 168 0
  29 0000 264B     		ldr	r3, .L8
 161:Code\Common\crypt/aes.c ****   uint32_t i, j, k;
  30              		.loc 1 161 0
  31 0002 F0B5     		push	{r4, r5, r6, r7, lr}
  32              		.cfi_def_cfa_offset 20
  33              		.cfi_offset 4, -20
  34              		.cfi_offset 5, -16
  35              		.cfi_offset 6, -12
  36              		.cfi_offset 7, -8
  37              		.cfi_offset 14, -4
  38              		.loc 1 168 0
  39 0004 1A68     		ldr	r2, [r3]
  40 0006 0533     		add	r3, r3, #5
  41 0008 101C     		mov	r0, r2
  42 000a 191C     		mov	r1, r3
 161:Code\Common\crypt/aes.c ****   uint32_t i, j, k;
  43              		.loc 1 161 0
  44 000c 85B0     		sub	sp, sp, #20
  45              		.cfi_def_cfa_offset 40
  46 000e 1030     		add	r0, r0, #16
  47              	.LVL1:
  48              	.L2:
  49              		.loc 1 168 0 discriminator 3
  50 0010 1578     		ldrb	r5, [r2]
  51 0012 4C1E     		sub	r4, r1, #1
  52 0014 2570     		strb	r5, [r4]
 169:Code\Common\crypt/aes.c ****     RoundKey[(i * 4) + 1] = Key[(i * 4) + 1];
  53              		.loc 1 169 0 discriminator 3
  54 0016 5478     		ldrb	r4, [r2, #1]
  55 0018 0C70     		strb	r4, [r1]
 170:Code\Common\crypt/aes.c ****     RoundKey[(i * 4) + 2] = Key[(i * 4) + 2];
  56              		.loc 1 170 0 discriminator 3
ARM GAS  C:\Users\zhiantec\AppData\Local\Temp\ccAwAEyq.s 			page 5


  57 001a 9478     		ldrb	r4, [r2, #2]
  58 001c 4C70     		strb	r4, [r1, #1]
 171:Code\Common\crypt/aes.c ****     RoundKey[(i * 4) + 3] = Key[(i * 4) + 3];
  59              		.loc 1 171 0 discriminator 3
  60 001e D478     		ldrb	r4, [r2, #3]
  61 0020 0432     		add	r2, r2, #4
  62 0022 8C70     		strb	r4, [r1, #2]
  63 0024 0431     		add	r1, r1, #4
 166:Code\Common\crypt/aes.c ****   {
  64              		.loc 1 166 0 discriminator 3
  65 0026 8242     		cmp	r2, r0
  66 0028 F2D1     		bne	.L2
  67 002a 2824     		mov	r4, #40
  68              	.L3:
  69 002c 2C21     		mov	r1, #44
 168:Code\Common\crypt/aes.c ****     RoundKey[(i * 4) + 1] = Key[(i * 4) + 1];
  70              		.loc 1 168 0
  71 002e 0020     		mov	r0, #0
  72 0030 091B     		sub	r1, r1, r4
  73              	.LVL2:
  74              	.L4:
  75 0032 1D1C     		mov	r5, r3
  76 0034 0B35     		add	r5, r5, #11
 172:Code\Common\crypt/aes.c ****   }
 173:Code\Common\crypt/aes.c **** 
 174:Code\Common\crypt/aes.c ****   // All other round keys are found from the previous round keys.
 175:Code\Common\crypt/aes.c ****   for (; (i < (Nb * (Nr + 1))); ++i)
 176:Code\Common\crypt/aes.c ****   {
 177:Code\Common\crypt/aes.c ****     for (j = 0; j < 4; ++j)
 178:Code\Common\crypt/aes.c ****     {
 179:Code\Common\crypt/aes.c ****       tempa[j] = RoundKey[(i-1) * 4 + j];
  77              		.loc 1 179 0 discriminator 3
  78 0036 2D5C     		ldrb	r5, [r5, r0]
  79 0038 03AA     		add	r2, sp, #12
  80 003a 8554     		strb	r5, [r0, r2]
 177:Code\Common\crypt/aes.c ****     {
  81              		.loc 1 177 0 discriminator 3
  82 003c 0130     		add	r0, r0, #1
  83              	.LVL3:
  84 003e 0428     		cmp	r0, #4
  85 0040 F7D1     		bne	.L4
 180:Code\Common\crypt/aes.c ****     }
 181:Code\Common\crypt/aes.c ****     if (i % Nk == 0)
  86              		.loc 1 181 0
  87 0042 8807     		lsl	r0, r1, #30
  88 0044 12D1     		bne	.L5
  89              	.LVL4:
  90              	.LBB14:
  91              	.LBB15:
 151:Code\Common\crypt/aes.c **** }
  92              		.loc 1 151 0
  93 0046 1648     		ldr	r0, .L8+4
  94 0048 5578     		ldrb	r5, [r2, #1]
  95              	.LBE15:
  96              	.LBE14:
 182:Code\Common\crypt/aes.c ****     {
 183:Code\Common\crypt/aes.c ****       // This function rotates the 4 bytes in a word to the left once.
ARM GAS  C:\Users\zhiantec\AppData\Local\Temp\ccAwAEyq.s 			page 6


 184:Code\Common\crypt/aes.c ****       // [a0,a1,a2,a3] becomes [a1,a2,a3,a0]
 185:Code\Common\crypt/aes.c **** 
 186:Code\Common\crypt/aes.c ****       // Function RotWord()
 187:Code\Common\crypt/aes.c ****       {
 188:Code\Common\crypt/aes.c ****         k = tempa[0];
 189:Code\Common\crypt/aes.c ****         tempa[0] = tempa[1];
 190:Code\Common\crypt/aes.c ****         tempa[1] = tempa[2];
 191:Code\Common\crypt/aes.c ****         tempa[2] = tempa[3];
  97              		.loc 1 191 0
  98 004a D778     		ldrb	r7, [r2, #3]
  99              	.LBB18:
 100              	.LBB16:
 151:Code\Common\crypt/aes.c **** }
 101              		.loc 1 151 0
 102 004c 455D     		ldrb	r5, [r0, r5]
 103              	.LBE16:
 104              	.LBE18:
 188:Code\Common\crypt/aes.c ****         tempa[0] = tempa[1];
 105              		.loc 1 188 0
 106 004e 1678     		ldrb	r6, [r2]
 107              	.LVL5:
 108              	.LBB19:
 109              	.LBB17:
 151:Code\Common\crypt/aes.c **** }
 110              		.loc 1 151 0
 111 0050 0195     		str	r5, [sp, #4]
 112              	.LVL6:
 113              	.LBE17:
 114              	.LBE19:
 115              	.LBB20:
 116              	.LBB21:
 117 0052 9578     		ldrb	r5, [r2, #2]
 118              	.LBE21:
 119              	.LBE20:
 192:Code\Common\crypt/aes.c ****         tempa[3] = k;
 193:Code\Common\crypt/aes.c ****       }
 194:Code\Common\crypt/aes.c **** 
 195:Code\Common\crypt/aes.c ****       // SubWord() is a function that takes a four-byte input word and 
 196:Code\Common\crypt/aes.c ****       // applies the S-box to each of the four bytes to produce an output word.
 197:Code\Common\crypt/aes.c **** 
 198:Code\Common\crypt/aes.c ****       // Function Subword()
 199:Code\Common\crypt/aes.c ****       {
 200:Code\Common\crypt/aes.c ****         tempa[0] = getSBoxValue(tempa[0]);
 201:Code\Common\crypt/aes.c ****         tempa[1] = getSBoxValue(tempa[1]);
 202:Code\Common\crypt/aes.c ****         tempa[2] = getSBoxValue(tempa[2]);
 120              		.loc 1 202 0
 121 0054 C75D     		ldrb	r7, [r0, r7]
 201:Code\Common\crypt/aes.c ****         tempa[2] = getSBoxValue(tempa[2]);
 122              		.loc 1 201 0
 123 0056 455D     		ldrb	r5, [r0, r5]
 203:Code\Common\crypt/aes.c ****         tempa[3] = getSBoxValue(tempa[3]);
 124              		.loc 1 203 0
 125 0058 805D     		ldrb	r0, [r0, r6]
 204:Code\Common\crypt/aes.c ****       }
 205:Code\Common\crypt/aes.c **** 
 206:Code\Common\crypt/aes.c ****       tempa[0] =  tempa[0] ^ Rcon[i/Nk];
 126              		.loc 1 206 0
ARM GAS  C:\Users\zhiantec\AppData\Local\Temp\ccAwAEyq.s 			page 7


 127 005a 8908     		lsr	r1, r1, #2
 128              	.LVL7:
 203:Code\Common\crypt/aes.c ****         tempa[3] = getSBoxValue(tempa[3]);
 129              		.loc 1 203 0
 130 005c D070     		strb	r0, [r2, #3]
 131              		.loc 1 206 0
 132 005e 1148     		ldr	r0, .L8+8
 201:Code\Common\crypt/aes.c ****         tempa[2] = getSBoxValue(tempa[2]);
 133              		.loc 1 201 0
 134 0060 5570     		strb	r5, [r2, #1]
 135              	.LVL8:
 136              		.loc 1 206 0
 137 0062 415C     		ldrb	r1, [r0, r1]
 138 0064 0198     		ldr	r0, [sp, #4]
 202:Code\Common\crypt/aes.c ****         tempa[3] = getSBoxValue(tempa[3]);
 139              		.loc 1 202 0
 140 0066 9770     		strb	r7, [r2, #2]
 141              	.LVL9:
 142              		.loc 1 206 0
 143 0068 4140     		eor	r1, r0
 144 006a 1170     		strb	r1, [r2]
 145              	.LVL10:
 146              	.L5:
 147 006c 591E     		sub	r1, r3, #1
 207:Code\Common\crypt/aes.c ****     }
 208:Code\Common\crypt/aes.c ****     else if (Nk > 6 && i % Nk == 4)
 209:Code\Common\crypt/aes.c ****     {
 210:Code\Common\crypt/aes.c ****       // Function Subword()
 211:Code\Common\crypt/aes.c ****       {
 212:Code\Common\crypt/aes.c ****         tempa[0] = getSBoxValue(tempa[0]);
 213:Code\Common\crypt/aes.c ****         tempa[1] = getSBoxValue(tempa[1]);
 214:Code\Common\crypt/aes.c ****         tempa[2] = getSBoxValue(tempa[2]);
 215:Code\Common\crypt/aes.c ****         tempa[3] = getSBoxValue(tempa[3]);
 216:Code\Common\crypt/aes.c ****       }
 217:Code\Common\crypt/aes.c ****     }
 218:Code\Common\crypt/aes.c ****     RoundKey[i * 4 + 0] = RoundKey[(i - Nk) * 4 + 0] ^ tempa[0];
 148              		.loc 1 218 0
 149 006e 0878     		ldrb	r0, [r1]
 150 0070 1178     		ldrb	r1, [r2]
 151 0072 013C     		sub	r4, r4, #1
 152              	.LVL11:
 153 0074 4140     		eor	r1, r0
 154 0076 D973     		strb	r1, [r3, #15]
 219:Code\Common\crypt/aes.c ****     RoundKey[i * 4 + 1] = RoundKey[(i - Nk) * 4 + 1] ^ tempa[1];
 155              		.loc 1 219 0
 156 0078 5178     		ldrb	r1, [r2, #1]
 157 007a 1878     		ldrb	r0, [r3]
 158 007c 4140     		eor	r1, r0
 159 007e 1974     		strb	r1, [r3, #16]
 220:Code\Common\crypt/aes.c ****     RoundKey[i * 4 + 2] = RoundKey[(i - Nk) * 4 + 2] ^ tempa[2];
 160              		.loc 1 220 0
 161 0080 9178     		ldrb	r1, [r2, #2]
 162 0082 5878     		ldrb	r0, [r3, #1]
 163 0084 4140     		eor	r1, r0
 164 0086 5974     		strb	r1, [r3, #17]
 221:Code\Common\crypt/aes.c ****     RoundKey[i * 4 + 3] = RoundKey[(i - Nk) * 4 + 3] ^ tempa[3];
 165              		.loc 1 221 0
ARM GAS  C:\Users\zhiantec\AppData\Local\Temp\ccAwAEyq.s 			page 8


 166 0088 D278     		ldrb	r2, [r2, #3]
 167 008a 9978     		ldrb	r1, [r3, #2]
 168 008c 0433     		add	r3, r3, #4
 169 008e 4A40     		eor	r2, r1
 170 0090 9A73     		strb	r2, [r3, #14]
 171              	.LVL12:
 175:Code\Common\crypt/aes.c ****   {
 172              		.loc 1 175 0
 173 0092 002C     		cmp	r4, #0
 174 0094 CAD1     		bne	.L3
 222:Code\Common\crypt/aes.c ****   }
 223:Code\Common\crypt/aes.c **** }
 175              		.loc 1 223 0
 176 0096 05B0     		add	sp, sp, #20
 177              		@ sp needed
 178 0098 F0BD     		pop	{r4, r5, r6, r7, pc}
 179              	.L9:
 180 009a C046     		.align	2
 181              	.L8:
 182 009c 00000000 		.word	.LANCHOR0
 183 00a0 00000000 		.word	.LANCHOR1
 184 00a4 00010000 		.word	.LANCHOR2
 185              		.cfi_endproc
 186              	.LFE65:
 187              		.size	KeyExpansion, .-KeyExpansion
 188              		.section	.text.AddRoundKey,"ax",%progbits
 189              		.align	1
 190              		.code	16
 191              		.thumb_func
 192              		.type	AddRoundKey, %function
 193              	AddRoundKey:
 194              	.LFB66:
 224:Code\Common\crypt/aes.c **** 
 225:Code\Common\crypt/aes.c **** // This function adds the round key to state.
 226:Code\Common\crypt/aes.c **** // The round key is added to the state by an XOR function.
 227:Code\Common\crypt/aes.c **** static void AddRoundKey(uint8_t round)
 228:Code\Common\crypt/aes.c **** {
 195              		.loc 1 228 0
 196              		.cfi_startproc
 197              	.LVL13:
 198 0000 F0B5     		push	{r4, r5, r6, r7, lr}
 199              		.cfi_def_cfa_offset 20
 200              		.cfi_offset 4, -20
 201              		.cfi_offset 5, -16
 202              		.cfi_offset 6, -12
 203              		.cfi_offset 7, -8
 204              		.cfi_offset 14, -4
 229:Code\Common\crypt/aes.c ****   uint8_t i,j;
 230:Code\Common\crypt/aes.c ****   for(i=0;i<4;++i)
 231:Code\Common\crypt/aes.c ****   {
 232:Code\Common\crypt/aes.c ****     for(j = 0; j < 4; ++j)
 233:Code\Common\crypt/aes.c ****     {
 234:Code\Common\crypt/aes.c ****       (*state)[i][j] ^= RoundKey[round * Nb * 4 + i * Nb + j];
 205              		.loc 1 234 0
 206 0002 0024     		mov	r4, #0
 207 0004 094B     		ldr	r3, .L14
 208 0006 0001     		lsl	r0, r0, #4
ARM GAS  C:\Users\zhiantec\AppData\Local\Temp\ccAwAEyq.s 			page 9


 209              	.LVL14:
 210 0008 5D6B     		ldr	r5, [r3, #52]
 211              	.LVL15:
 212              	.L11:
 213 000a 0949     		ldr	r1, .L14+4
 214 000c 2318     		add	r3, r4, r0
 215 000e 0431     		add	r1, r1, #4
 216 0010 C918     		add	r1, r1, r3
 228:Code\Common\crypt/aes.c ****   uint8_t i,j;
 217              		.loc 1 228 0
 218 0012 0023     		mov	r3, #0
 219              	.LVL16:
 220              	.L12:
 221 0014 2A19     		add	r2, r5, r4
 222              		.loc 1 234 0 discriminator 3
 223 0016 CF5C     		ldrb	r7, [r1, r3]
 224 0018 D65C     		ldrb	r6, [r2, r3]
 225 001a 7E40     		eor	r6, r7
 226 001c D654     		strb	r6, [r2, r3]
 227              	.LVL17:
 228 001e 0133     		add	r3, r3, #1
 229              	.LVL18:
 232:Code\Common\crypt/aes.c ****     {
 230              		.loc 1 232 0 discriminator 3
 231 0020 042B     		cmp	r3, #4
 232 0022 F7D1     		bne	.L12
 233 0024 0434     		add	r4, r4, #4
 230:Code\Common\crypt/aes.c ****   {
 234              		.loc 1 230 0 discriminator 2
 235 0026 102C     		cmp	r4, #16
 236 0028 EFD1     		bne	.L11
 235:Code\Common\crypt/aes.c ****     }
 236:Code\Common\crypt/aes.c ****   }
 237:Code\Common\crypt/aes.c **** }
 237              		.loc 1 237 0
 238              		@ sp needed
 239 002a F0BD     		pop	{r4, r5, r6, r7, pc}
 240              	.L15:
 241              		.align	2
 242              	.L14:
 243 002c 80000000 		.word	.LANCHOR3
 244 0030 00000000 		.word	.LANCHOR0
 245              		.cfi_endproc
 246              	.LFE66:
 247              		.size	AddRoundKey, .-AddRoundKey
 248              		.section	.text.SubBytes,"ax",%progbits
 249              		.align	1
 250              		.code	16
 251              		.thumb_func
 252              		.type	SubBytes, %function
 253              	SubBytes:
 254              	.LFB67:
 238:Code\Common\crypt/aes.c **** 
 239:Code\Common\crypt/aes.c **** // The SubBytes Function Substitutes the values in the
 240:Code\Common\crypt/aes.c **** // state matrix with values in an S-box.
 241:Code\Common\crypt/aes.c **** static void SubBytes(void)
 242:Code\Common\crypt/aes.c **** {
ARM GAS  C:\Users\zhiantec\AppData\Local\Temp\ccAwAEyq.s 			page 10


 255              		.loc 1 242 0
 256              		.cfi_startproc
 257              	.LVL19:
 243:Code\Common\crypt/aes.c ****   uint8_t i, j;
 244:Code\Common\crypt/aes.c ****   for(i = 0; i < 4; ++i)
 245:Code\Common\crypt/aes.c ****   {
 246:Code\Common\crypt/aes.c ****     for(j = 0; j < 4; ++j)
 247:Code\Common\crypt/aes.c ****     {
 248:Code\Common\crypt/aes.c ****       (*state)[j][i] = getSBoxValue((*state)[j][i]);
 258              		.loc 1 248 0
 259 0000 074B     		ldr	r3, .L20
 242:Code\Common\crypt/aes.c ****   uint8_t i, j;
 260              		.loc 1 242 0
 261 0002 10B5     		push	{r4, lr}
 262              		.cfi_def_cfa_offset 8
 263              		.cfi_offset 4, -8
 264              		.cfi_offset 14, -4
 265              		.loc 1 248 0
 266 0004 5B6B     		ldr	r3, [r3, #52]
 267 0006 191D     		add	r1, r3, #4
 268              	.LVL20:
 269              	.L17:
 242:Code\Common\crypt/aes.c ****   uint8_t i, j;
 270              		.loc 1 242 0
 271 0008 0022     		mov	r2, #0
 272              	.LVL21:
 273              	.L18:
 274              	.LBB22:
 275              	.LBB23:
 151:Code\Common\crypt/aes.c **** }
 276              		.loc 1 151 0 discriminator 3
 277 000a 985C     		ldrb	r0, [r3, r2]
 278              	.LBE23:
 279              	.LBE22:
 280              		.loc 1 248 0 discriminator 3
 281 000c 054C     		ldr	r4, .L20+4
 282 000e 205C     		ldrb	r0, [r4, r0]
 283 0010 9854     		strb	r0, [r3, r2]
 284              	.LVL22:
 285 0012 0432     		add	r2, r2, #4
 246:Code\Common\crypt/aes.c ****     {
 286              		.loc 1 246 0 discriminator 3
 287 0014 102A     		cmp	r2, #16
 288 0016 F8D1     		bne	.L18
 289              	.LVL23:
 290 0018 0133     		add	r3, r3, #1
 291              	.LVL24:
 244:Code\Common\crypt/aes.c ****   {
 292              		.loc 1 244 0 discriminator 2
 293 001a 8B42     		cmp	r3, r1
 294 001c F4D1     		bne	.L17
 249:Code\Common\crypt/aes.c ****     }
 250:Code\Common\crypt/aes.c ****   }
 251:Code\Common\crypt/aes.c **** }
 295              		.loc 1 251 0
 296              		@ sp needed
 297 001e 10BD     		pop	{r4, pc}
ARM GAS  C:\Users\zhiantec\AppData\Local\Temp\ccAwAEyq.s 			page 11


 298              	.L21:
 299              		.align	2
 300              	.L20:
 301 0020 80000000 		.word	.LANCHOR3
 302 0024 00000000 		.word	.LANCHOR1
 303              		.cfi_endproc
 304              	.LFE67:
 305              		.size	SubBytes, .-SubBytes
 306              		.section	.text.ShiftRows,"ax",%progbits
 307              		.align	1
 308              		.code	16
 309              		.thumb_func
 310              		.type	ShiftRows, %function
 311              	ShiftRows:
 312              	.LFB68:
 252:Code\Common\crypt/aes.c **** 
 253:Code\Common\crypt/aes.c **** // The ShiftRows() function shifts the rows in the state to the left.
 254:Code\Common\crypt/aes.c **** // Each row is shifted with different offset.
 255:Code\Common\crypt/aes.c **** // Offset = Row number. So the first row is not shifted.
 256:Code\Common\crypt/aes.c **** static void ShiftRows(void)
 257:Code\Common\crypt/aes.c **** {
 313              		.loc 1 257 0
 314              		.cfi_startproc
 258:Code\Common\crypt/aes.c ****   uint8_t temp;
 259:Code\Common\crypt/aes.c **** 
 260:Code\Common\crypt/aes.c ****   // Rotate first row 1 columns to left  
 261:Code\Common\crypt/aes.c ****   temp           = (*state)[0][1];
 315              		.loc 1 261 0
 316 0000 0D4B     		ldr	r3, .L23
 262:Code\Common\crypt/aes.c ****   (*state)[0][1] = (*state)[1][1];
 263:Code\Common\crypt/aes.c ****   (*state)[1][1] = (*state)[2][1];
 264:Code\Common\crypt/aes.c ****   (*state)[2][1] = (*state)[3][1];
 265:Code\Common\crypt/aes.c ****   (*state)[3][1] = temp;
 266:Code\Common\crypt/aes.c **** 
 267:Code\Common\crypt/aes.c ****   // Rotate second row 2 columns to left  
 268:Code\Common\crypt/aes.c ****   temp           = (*state)[0][2];
 269:Code\Common\crypt/aes.c ****   (*state)[0][2] = (*state)[2][2];
 270:Code\Common\crypt/aes.c ****   (*state)[2][2] = temp;
 271:Code\Common\crypt/aes.c **** 
 272:Code\Common\crypt/aes.c ****   temp       = (*state)[1][2];
 273:Code\Common\crypt/aes.c ****   (*state)[1][2] = (*state)[3][2];
 274:Code\Common\crypt/aes.c ****   (*state)[3][2] = temp;
 275:Code\Common\crypt/aes.c **** 
 276:Code\Common\crypt/aes.c ****   // Rotate third row 3 columns to left
 277:Code\Common\crypt/aes.c ****   temp       = (*state)[0][3];
 278:Code\Common\crypt/aes.c ****   (*state)[0][3] = (*state)[3][3];
 279:Code\Common\crypt/aes.c ****   (*state)[3][3] = (*state)[2][3];
 280:Code\Common\crypt/aes.c ****   (*state)[2][3] = (*state)[1][3];
 281:Code\Common\crypt/aes.c ****   (*state)[1][3] = temp;
 282:Code\Common\crypt/aes.c **** }
 317              		.loc 1 282 0
 318              		@ sp needed
 261:Code\Common\crypt/aes.c ****   (*state)[0][1] = (*state)[1][1];
 319              		.loc 1 261 0
 320 0002 5B6B     		ldr	r3, [r3, #52]
 262:Code\Common\crypt/aes.c ****   (*state)[0][1] = (*state)[1][1];
 321              		.loc 1 262 0
ARM GAS  C:\Users\zhiantec\AppData\Local\Temp\ccAwAEyq.s 			page 12


 322 0004 5979     		ldrb	r1, [r3, #5]
 261:Code\Common\crypt/aes.c ****   (*state)[0][1] = (*state)[1][1];
 323              		.loc 1 261 0
 324 0006 5A78     		ldrb	r2, [r3, #1]
 325              	.LVL25:
 262:Code\Common\crypt/aes.c ****   (*state)[0][1] = (*state)[1][1];
 326              		.loc 1 262 0
 327 0008 5970     		strb	r1, [r3, #1]
 263:Code\Common\crypt/aes.c ****   (*state)[2][1] = (*state)[3][1];
 328              		.loc 1 263 0
 329 000a 597A     		ldrb	r1, [r3, #9]
 330 000c 5971     		strb	r1, [r3, #5]
 264:Code\Common\crypt/aes.c ****   (*state)[3][1] = temp;
 331              		.loc 1 264 0
 332 000e 597B     		ldrb	r1, [r3, #13]
 265:Code\Common\crypt/aes.c **** 
 333              		.loc 1 265 0
 334 0010 5A73     		strb	r2, [r3, #13]
 264:Code\Common\crypt/aes.c ****   (*state)[3][1] = temp;
 335              		.loc 1 264 0
 336 0012 5972     		strb	r1, [r3, #9]
 269:Code\Common\crypt/aes.c ****   (*state)[2][2] = temp;
 337              		.loc 1 269 0
 338 0014 997A     		ldrb	r1, [r3, #10]
 268:Code\Common\crypt/aes.c ****   (*state)[0][2] = (*state)[2][2];
 339              		.loc 1 268 0
 340 0016 9A78     		ldrb	r2, [r3, #2]
 341              	.LVL26:
 269:Code\Common\crypt/aes.c ****   (*state)[2][2] = temp;
 342              		.loc 1 269 0
 343 0018 9970     		strb	r1, [r3, #2]
 273:Code\Common\crypt/aes.c ****   (*state)[3][2] = temp;
 344              		.loc 1 273 0
 345 001a 997B     		ldrb	r1, [r3, #14]
 270:Code\Common\crypt/aes.c **** 
 346              		.loc 1 270 0
 347 001c 9A72     		strb	r2, [r3, #10]
 272:Code\Common\crypt/aes.c ****   (*state)[1][2] = (*state)[3][2];
 348              		.loc 1 272 0
 349 001e 9A79     		ldrb	r2, [r3, #6]
 350              	.LVL27:
 273:Code\Common\crypt/aes.c ****   (*state)[3][2] = temp;
 351              		.loc 1 273 0
 352 0020 9971     		strb	r1, [r3, #6]
 278:Code\Common\crypt/aes.c ****   (*state)[3][3] = (*state)[2][3];
 353              		.loc 1 278 0
 354 0022 D97B     		ldrb	r1, [r3, #15]
 274:Code\Common\crypt/aes.c **** 
 355              		.loc 1 274 0
 356 0024 9A73     		strb	r2, [r3, #14]
 277:Code\Common\crypt/aes.c ****   (*state)[0][3] = (*state)[3][3];
 357              		.loc 1 277 0
 358 0026 DA78     		ldrb	r2, [r3, #3]
 359              	.LVL28:
 278:Code\Common\crypt/aes.c ****   (*state)[3][3] = (*state)[2][3];
 360              		.loc 1 278 0
 361 0028 D970     		strb	r1, [r3, #3]
ARM GAS  C:\Users\zhiantec\AppData\Local\Temp\ccAwAEyq.s 			page 13


 279:Code\Common\crypt/aes.c ****   (*state)[2][3] = (*state)[1][3];
 362              		.loc 1 279 0
 363 002a D97A     		ldrb	r1, [r3, #11]
 364 002c D973     		strb	r1, [r3, #15]
 280:Code\Common\crypt/aes.c ****   (*state)[1][3] = temp;
 365              		.loc 1 280 0
 366 002e D979     		ldrb	r1, [r3, #7]
 281:Code\Common\crypt/aes.c **** }
 367              		.loc 1 281 0
 368 0030 DA71     		strb	r2, [r3, #7]
 280:Code\Common\crypt/aes.c ****   (*state)[1][3] = temp;
 369              		.loc 1 280 0
 370 0032 D972     		strb	r1, [r3, #11]
 371              		.loc 1 282 0
 372 0034 7047     		bx	lr
 373              	.L24:
 374 0036 C046     		.align	2
 375              	.L23:
 376 0038 80000000 		.word	.LANCHOR3
 377              		.cfi_endproc
 378              	.LFE68:
 379              		.size	ShiftRows, .-ShiftRows
 380              		.section	.text.xtime,"ax",%progbits
 381              		.align	1
 382              		.code	16
 383              		.thumb_func
 384              		.type	xtime, %function
 385              	xtime:
 386              	.LFB69:
 283:Code\Common\crypt/aes.c **** 
 284:Code\Common\crypt/aes.c **** static uint8_t xtime(uint8_t x)
 285:Code\Common\crypt/aes.c **** {
 387              		.loc 1 285 0
 388              		.cfi_startproc
 389              	.LVL29:
 286:Code\Common\crypt/aes.c ****   return ((x<<1) ^ (((x>>7) & 1) * 0x1b));
 390              		.loc 1 286 0
 391 0000 1B23     		mov	r3, #27
 392 0002 C209     		lsr	r2, r0, #7
 393 0004 5343     		mul	r3, r2
 394 0006 4000     		lsl	r0, r0, #1
 395              	.LVL30:
 396 0008 5840     		eor	r0, r3
 397 000a C0B2     		uxtb	r0, r0
 287:Code\Common\crypt/aes.c **** }
 398              		.loc 1 287 0
 399              		@ sp needed
 400 000c 7047     		bx	lr
 401              		.cfi_endproc
 402              	.LFE69:
 403              		.size	xtime, .-xtime
 404              		.section	.text.InvSubBytes,"ax",%progbits
 405              		.align	1
 406              		.code	16
 407              		.thumb_func
 408              		.type	InvSubBytes, %function
 409              	InvSubBytes:
ARM GAS  C:\Users\zhiantec\AppData\Local\Temp\ccAwAEyq.s 			page 14


 410              	.LFB72:
 288:Code\Common\crypt/aes.c **** 
 289:Code\Common\crypt/aes.c **** // MixColumns function mixes the columns of the state matrix
 290:Code\Common\crypt/aes.c **** static void MixColumns(void)
 291:Code\Common\crypt/aes.c **** {
 292:Code\Common\crypt/aes.c ****   uint8_t i;
 293:Code\Common\crypt/aes.c ****   uint8_t Tmp,Tm,t;
 294:Code\Common\crypt/aes.c ****   for(i = 0; i < 4; ++i)
 295:Code\Common\crypt/aes.c ****   {  
 296:Code\Common\crypt/aes.c ****     t   = (*state)[i][0];
 297:Code\Common\crypt/aes.c ****     Tmp = (*state)[i][0] ^ (*state)[i][1] ^ (*state)[i][2] ^ (*state)[i][3] ;
 298:Code\Common\crypt/aes.c ****     Tm  = (*state)[i][0] ^ (*state)[i][1] ; Tm = xtime(Tm);  (*state)[i][0] ^= Tm ^ Tmp ;
 299:Code\Common\crypt/aes.c ****     Tm  = (*state)[i][1] ^ (*state)[i][2] ; Tm = xtime(Tm);  (*state)[i][1] ^= Tm ^ Tmp ;
 300:Code\Common\crypt/aes.c ****     Tm  = (*state)[i][2] ^ (*state)[i][3] ; Tm = xtime(Tm);  (*state)[i][2] ^= Tm ^ Tmp ;
 301:Code\Common\crypt/aes.c ****     Tm  = (*state)[i][3] ^ t ;        Tm = xtime(Tm);  (*state)[i][3] ^= Tm ^ Tmp ;
 302:Code\Common\crypt/aes.c ****   }
 303:Code\Common\crypt/aes.c **** }
 304:Code\Common\crypt/aes.c **** 
 305:Code\Common\crypt/aes.c **** // Multiply is used to multiply numbers in the field GF(2^8)
 306:Code\Common\crypt/aes.c **** #if MULTIPLY_AS_A_FUNCTION
 307:Code\Common\crypt/aes.c **** static uint8_t Multiply(uint8_t x, uint8_t y)
 308:Code\Common\crypt/aes.c **** {
 309:Code\Common\crypt/aes.c ****   return (((y & 1) * x) ^
 310:Code\Common\crypt/aes.c ****        ((y>>1 & 1) * xtime(x)) ^
 311:Code\Common\crypt/aes.c ****        ((y>>2 & 1) * xtime(xtime(x))) ^
 312:Code\Common\crypt/aes.c ****        ((y>>3 & 1) * xtime(xtime(xtime(x)))) ^
 313:Code\Common\crypt/aes.c ****        ((y>>4 & 1) * xtime(xtime(xtime(xtime(x))))));
 314:Code\Common\crypt/aes.c ****   }
 315:Code\Common\crypt/aes.c **** #else
 316:Code\Common\crypt/aes.c **** #define Multiply(x, y)                                \
 317:Code\Common\crypt/aes.c ****       (  ((y & 1) * x) ^                              \
 318:Code\Common\crypt/aes.c ****       ((y>>1 & 1) * xtime(x)) ^                       \
 319:Code\Common\crypt/aes.c ****       ((y>>2 & 1) * xtime(xtime(x))) ^                \
 320:Code\Common\crypt/aes.c ****       ((y>>3 & 1) * xtime(xtime(xtime(x)))) ^         \
 321:Code\Common\crypt/aes.c ****       ((y>>4 & 1) * xtime(xtime(xtime(xtime(x))))))   \
 322:Code\Common\crypt/aes.c **** 
 323:Code\Common\crypt/aes.c **** #endif
 324:Code\Common\crypt/aes.c **** 
 325:Code\Common\crypt/aes.c **** // MixColumns function mixes the columns of the state matrix.
 326:Code\Common\crypt/aes.c **** // The method used to multiply may be difficult to understand for the inexperienced.
 327:Code\Common\crypt/aes.c **** // Please use the references to gain more information.
 328:Code\Common\crypt/aes.c **** static void InvMixColumns(void)
 329:Code\Common\crypt/aes.c **** {
 330:Code\Common\crypt/aes.c ****   int i;
 331:Code\Common\crypt/aes.c ****   uint8_t a,b,c,d;
 332:Code\Common\crypt/aes.c ****   for(i=0;i<4;++i)
 333:Code\Common\crypt/aes.c ****   { 
 334:Code\Common\crypt/aes.c ****     a = (*state)[i][0];
 335:Code\Common\crypt/aes.c ****     b = (*state)[i][1];
 336:Code\Common\crypt/aes.c ****     c = (*state)[i][2];
 337:Code\Common\crypt/aes.c ****     d = (*state)[i][3];
 338:Code\Common\crypt/aes.c **** 
 339:Code\Common\crypt/aes.c ****     (*state)[i][0] = Multiply(a, 0x0e) ^ Multiply(b, 0x0b) ^ Multiply(c, 0x0d) ^ Multiply(d, 0x09);
 340:Code\Common\crypt/aes.c ****     (*state)[i][1] = Multiply(a, 0x09) ^ Multiply(b, 0x0e) ^ Multiply(c, 0x0b) ^ Multiply(d, 0x0d);
 341:Code\Common\crypt/aes.c ****     (*state)[i][2] = Multiply(a, 0x0d) ^ Multiply(b, 0x09) ^ Multiply(c, 0x0e) ^ Multiply(d, 0x0b);
 342:Code\Common\crypt/aes.c ****     (*state)[i][3] = Multiply(a, 0x0b) ^ Multiply(b, 0x0d) ^ Multiply(c, 0x09) ^ Multiply(d, 0x0e);
 343:Code\Common\crypt/aes.c ****   }
ARM GAS  C:\Users\zhiantec\AppData\Local\Temp\ccAwAEyq.s 			page 15


 344:Code\Common\crypt/aes.c **** }
 345:Code\Common\crypt/aes.c **** 
 346:Code\Common\crypt/aes.c **** 
 347:Code\Common\crypt/aes.c **** // The SubBytes Function Substitutes the values in the
 348:Code\Common\crypt/aes.c **** // state matrix with values in an S-box.
 349:Code\Common\crypt/aes.c **** static void InvSubBytes(void)
 350:Code\Common\crypt/aes.c **** {
 411              		.loc 1 350 0
 412              		.cfi_startproc
 413              	.LVL31:
 351:Code\Common\crypt/aes.c ****   uint8_t i,j;
 352:Code\Common\crypt/aes.c ****   for(i=0;i<4;++i)
 353:Code\Common\crypt/aes.c ****   {
 354:Code\Common\crypt/aes.c ****     for(j=0;j<4;++j)
 355:Code\Common\crypt/aes.c ****     {
 356:Code\Common\crypt/aes.c ****       (*state)[j][i] = getSBoxInvert((*state)[j][i]);
 414              		.loc 1 356 0
 415 0000 084B     		ldr	r3, .L30
 350:Code\Common\crypt/aes.c ****   uint8_t i,j;
 416              		.loc 1 350 0
 417 0002 10B5     		push	{r4, lr}
 418              		.cfi_def_cfa_offset 8
 419              		.cfi_offset 4, -8
 420              		.cfi_offset 14, -4
 421              		.loc 1 356 0
 422 0004 5B6B     		ldr	r3, [r3, #52]
 423 0006 181D     		add	r0, r3, #4
 424              	.LVL32:
 425              	.L27:
 350:Code\Common\crypt/aes.c ****   uint8_t i,j;
 426              		.loc 1 350 0
 427 0008 0022     		mov	r2, #0
 428              	.LVL33:
 429              	.L28:
 430              	.LBB24:
 431              	.LBB25:
 156:Code\Common\crypt/aes.c **** }
 432              		.loc 1 156 0 discriminator 3
 433 000a 995C     		ldrb	r1, [r3, r2]
 434 000c 064C     		ldr	r4, .L30+4
 435 000e 6118     		add	r1, r4, r1
 436              	.LBE25:
 437              	.LBE24:
 438              		.loc 1 356 0 discriminator 3
 439 0010 097C     		ldrb	r1, [r1, #16]
 440 0012 9954     		strb	r1, [r3, r2]
 441              	.LVL34:
 442 0014 0432     		add	r2, r2, #4
 354:Code\Common\crypt/aes.c ****     {
 443              		.loc 1 354 0 discriminator 3
 444 0016 102A     		cmp	r2, #16
 445 0018 F7D1     		bne	.L28
 446              	.LVL35:
 447 001a 0133     		add	r3, r3, #1
 448              	.LVL36:
 352:Code\Common\crypt/aes.c ****   {
 449              		.loc 1 352 0 discriminator 2
ARM GAS  C:\Users\zhiantec\AppData\Local\Temp\ccAwAEyq.s 			page 16


 450 001c 8342     		cmp	r3, r0
 451 001e F3D1     		bne	.L27
 357:Code\Common\crypt/aes.c ****     }
 358:Code\Common\crypt/aes.c ****   }
 359:Code\Common\crypt/aes.c **** }
 452              		.loc 1 359 0
 453              		@ sp needed
 454 0020 10BD     		pop	{r4, pc}
 455              	.L31:
 456 0022 C046     		.align	2
 457              	.L30:
 458 0024 80000000 		.word	.LANCHOR3
 459 0028 00010000 		.word	.LANCHOR2
 460              		.cfi_endproc
 461              	.LFE72:
 462              		.size	InvSubBytes, .-InvSubBytes
 463              		.section	.text.InvShiftRows,"ax",%progbits
 464              		.align	1
 465              		.code	16
 466              		.thumb_func
 467              		.type	InvShiftRows, %function
 468              	InvShiftRows:
 469              	.LFB73:
 360:Code\Common\crypt/aes.c **** 
 361:Code\Common\crypt/aes.c **** static void InvShiftRows(void)
 362:Code\Common\crypt/aes.c **** {
 470              		.loc 1 362 0
 471              		.cfi_startproc
 363:Code\Common\crypt/aes.c ****   uint8_t temp;
 364:Code\Common\crypt/aes.c **** 
 365:Code\Common\crypt/aes.c ****   // Rotate first row 1 columns to right  
 366:Code\Common\crypt/aes.c ****   temp=(*state)[3][1];
 472              		.loc 1 366 0
 473 0000 0D4B     		ldr	r3, .L33
 367:Code\Common\crypt/aes.c ****   (*state)[3][1]=(*state)[2][1];
 368:Code\Common\crypt/aes.c ****   (*state)[2][1]=(*state)[1][1];
 369:Code\Common\crypt/aes.c ****   (*state)[1][1]=(*state)[0][1];
 370:Code\Common\crypt/aes.c ****   (*state)[0][1]=temp;
 371:Code\Common\crypt/aes.c **** 
 372:Code\Common\crypt/aes.c ****   // Rotate second row 2 columns to right 
 373:Code\Common\crypt/aes.c ****   temp=(*state)[0][2];
 374:Code\Common\crypt/aes.c ****   (*state)[0][2]=(*state)[2][2];
 375:Code\Common\crypt/aes.c ****   (*state)[2][2]=temp;
 376:Code\Common\crypt/aes.c **** 
 377:Code\Common\crypt/aes.c ****   temp=(*state)[1][2];
 378:Code\Common\crypt/aes.c ****   (*state)[1][2]=(*state)[3][2];
 379:Code\Common\crypt/aes.c ****   (*state)[3][2]=temp;
 380:Code\Common\crypt/aes.c **** 
 381:Code\Common\crypt/aes.c ****   // Rotate third row 3 columns to right
 382:Code\Common\crypt/aes.c ****   temp=(*state)[0][3];
 383:Code\Common\crypt/aes.c ****   (*state)[0][3]=(*state)[1][3];
 384:Code\Common\crypt/aes.c ****   (*state)[1][3]=(*state)[2][3];
 385:Code\Common\crypt/aes.c ****   (*state)[2][3]=(*state)[3][3];
 386:Code\Common\crypt/aes.c ****   (*state)[3][3]=temp;
 387:Code\Common\crypt/aes.c **** }
 474              		.loc 1 387 0
 475              		@ sp needed
ARM GAS  C:\Users\zhiantec\AppData\Local\Temp\ccAwAEyq.s 			page 17


 366:Code\Common\crypt/aes.c ****   (*state)[3][1]=(*state)[2][1];
 476              		.loc 1 366 0
 477 0002 5B6B     		ldr	r3, [r3, #52]
 367:Code\Common\crypt/aes.c ****   (*state)[3][1]=(*state)[2][1];
 478              		.loc 1 367 0
 479 0004 597A     		ldrb	r1, [r3, #9]
 366:Code\Common\crypt/aes.c ****   (*state)[3][1]=(*state)[2][1];
 480              		.loc 1 366 0
 481 0006 5A7B     		ldrb	r2, [r3, #13]
 482              	.LVL37:
 367:Code\Common\crypt/aes.c ****   (*state)[3][1]=(*state)[2][1];
 483              		.loc 1 367 0
 484 0008 5973     		strb	r1, [r3, #13]
 368:Code\Common\crypt/aes.c ****   (*state)[1][1]=(*state)[0][1];
 485              		.loc 1 368 0
 486 000a 5979     		ldrb	r1, [r3, #5]
 487 000c 5972     		strb	r1, [r3, #9]
 369:Code\Common\crypt/aes.c ****   (*state)[0][1]=temp;
 488              		.loc 1 369 0
 489 000e 5978     		ldrb	r1, [r3, #1]
 370:Code\Common\crypt/aes.c **** 
 490              		.loc 1 370 0
 491 0010 5A70     		strb	r2, [r3, #1]
 369:Code\Common\crypt/aes.c ****   (*state)[0][1]=temp;
 492              		.loc 1 369 0
 493 0012 5971     		strb	r1, [r3, #5]
 374:Code\Common\crypt/aes.c ****   (*state)[2][2]=temp;
 494              		.loc 1 374 0
 495 0014 997A     		ldrb	r1, [r3, #10]
 373:Code\Common\crypt/aes.c ****   (*state)[0][2]=(*state)[2][2];
 496              		.loc 1 373 0
 497 0016 9A78     		ldrb	r2, [r3, #2]
 498              	.LVL38:
 374:Code\Common\crypt/aes.c ****   (*state)[2][2]=temp;
 499              		.loc 1 374 0
 500 0018 9970     		strb	r1, [r3, #2]
 378:Code\Common\crypt/aes.c ****   (*state)[3][2]=temp;
 501              		.loc 1 378 0
 502 001a 997B     		ldrb	r1, [r3, #14]
 375:Code\Common\crypt/aes.c **** 
 503              		.loc 1 375 0
 504 001c 9A72     		strb	r2, [r3, #10]
 377:Code\Common\crypt/aes.c ****   (*state)[1][2]=(*state)[3][2];
 505              		.loc 1 377 0
 506 001e 9A79     		ldrb	r2, [r3, #6]
 507              	.LVL39:
 378:Code\Common\crypt/aes.c ****   (*state)[3][2]=temp;
 508              		.loc 1 378 0
 509 0020 9971     		strb	r1, [r3, #6]
 383:Code\Common\crypt/aes.c ****   (*state)[1][3]=(*state)[2][3];
 510              		.loc 1 383 0
 511 0022 D979     		ldrb	r1, [r3, #7]
 379:Code\Common\crypt/aes.c **** 
 512              		.loc 1 379 0
 513 0024 9A73     		strb	r2, [r3, #14]
 382:Code\Common\crypt/aes.c ****   (*state)[0][3]=(*state)[1][3];
 514              		.loc 1 382 0
ARM GAS  C:\Users\zhiantec\AppData\Local\Temp\ccAwAEyq.s 			page 18


 515 0026 DA78     		ldrb	r2, [r3, #3]
 516              	.LVL40:
 383:Code\Common\crypt/aes.c ****   (*state)[1][3]=(*state)[2][3];
 517              		.loc 1 383 0
 518 0028 D970     		strb	r1, [r3, #3]
 384:Code\Common\crypt/aes.c ****   (*state)[2][3]=(*state)[3][3];
 519              		.loc 1 384 0
 520 002a D97A     		ldrb	r1, [r3, #11]
 521 002c D971     		strb	r1, [r3, #7]
 385:Code\Common\crypt/aes.c ****   (*state)[3][3]=temp;
 522              		.loc 1 385 0
 523 002e D97B     		ldrb	r1, [r3, #15]
 386:Code\Common\crypt/aes.c **** }
 524              		.loc 1 386 0
 525 0030 DA73     		strb	r2, [r3, #15]
 385:Code\Common\crypt/aes.c ****   (*state)[3][3]=temp;
 526              		.loc 1 385 0
 527 0032 D972     		strb	r1, [r3, #11]
 528              		.loc 1 387 0
 529 0034 7047     		bx	lr
 530              	.L34:
 531 0036 C046     		.align	2
 532              	.L33:
 533 0038 80000000 		.word	.LANCHOR3
 534              		.cfi_endproc
 535              	.LFE73:
 536              		.size	InvShiftRows, .-InvShiftRows
 537              		.section	.text.AES128_ECB_encrypt,"ax",%progbits
 538              		.align	1
 539              		.global	AES128_ECB_encrypt
 540              		.code	16
 541              		.thumb_func
 542              		.type	AES128_ECB_encrypt, %function
 543              	AES128_ECB_encrypt:
 544              	.LFB77:
 388:Code\Common\crypt/aes.c **** 
 389:Code\Common\crypt/aes.c **** 
 390:Code\Common\crypt/aes.c **** // Cipher is the main function that encrypts the PlainText.
 391:Code\Common\crypt/aes.c **** static void Cipher(void)
 392:Code\Common\crypt/aes.c **** {
 393:Code\Common\crypt/aes.c ****   uint8_t round = 0;
 394:Code\Common\crypt/aes.c **** 
 395:Code\Common\crypt/aes.c ****   // Add the First round key to the state before starting the rounds.
 396:Code\Common\crypt/aes.c ****   AddRoundKey(0); 
 397:Code\Common\crypt/aes.c ****   
 398:Code\Common\crypt/aes.c ****   // There will be Nr rounds.
 399:Code\Common\crypt/aes.c ****   // The first Nr-1 rounds are identical.
 400:Code\Common\crypt/aes.c ****   // These Nr-1 rounds are executed in the loop below.
 401:Code\Common\crypt/aes.c ****   for(round = 1; round < Nr; ++round)
 402:Code\Common\crypt/aes.c ****   {
 403:Code\Common\crypt/aes.c ****     SubBytes();
 404:Code\Common\crypt/aes.c ****     ShiftRows();
 405:Code\Common\crypt/aes.c ****     MixColumns();
 406:Code\Common\crypt/aes.c ****     AddRoundKey(round);
 407:Code\Common\crypt/aes.c ****   }
 408:Code\Common\crypt/aes.c ****   
 409:Code\Common\crypt/aes.c ****   // The last round is given below.
ARM GAS  C:\Users\zhiantec\AppData\Local\Temp\ccAwAEyq.s 			page 19


 410:Code\Common\crypt/aes.c ****   // The MixColumns function is not here in the last round.
 411:Code\Common\crypt/aes.c ****   SubBytes();
 412:Code\Common\crypt/aes.c ****   ShiftRows();
 413:Code\Common\crypt/aes.c ****   AddRoundKey(Nr);
 414:Code\Common\crypt/aes.c **** }
 415:Code\Common\crypt/aes.c **** 
 416:Code\Common\crypt/aes.c **** static void InvCipher(void)
 417:Code\Common\crypt/aes.c **** {
 418:Code\Common\crypt/aes.c ****   uint8_t round=0;
 419:Code\Common\crypt/aes.c **** 
 420:Code\Common\crypt/aes.c ****   // Add the First round key to the state before starting the rounds.
 421:Code\Common\crypt/aes.c ****   AddRoundKey(Nr); 
 422:Code\Common\crypt/aes.c **** 
 423:Code\Common\crypt/aes.c ****   // There will be Nr rounds.
 424:Code\Common\crypt/aes.c ****   // The first Nr-1 rounds are identical.
 425:Code\Common\crypt/aes.c ****   // These Nr-1 rounds are executed in the loop below.
 426:Code\Common\crypt/aes.c ****   for(round=Nr-1;round>0;round--)
 427:Code\Common\crypt/aes.c ****   {
 428:Code\Common\crypt/aes.c ****     InvShiftRows();
 429:Code\Common\crypt/aes.c ****     InvSubBytes();
 430:Code\Common\crypt/aes.c ****     AddRoundKey(round);
 431:Code\Common\crypt/aes.c ****     InvMixColumns();
 432:Code\Common\crypt/aes.c ****   }
 433:Code\Common\crypt/aes.c ****   
 434:Code\Common\crypt/aes.c ****   // The last round is given below.
 435:Code\Common\crypt/aes.c ****   // The MixColumns function is not here in the last round.
 436:Code\Common\crypt/aes.c ****   InvShiftRows();
 437:Code\Common\crypt/aes.c ****   InvSubBytes();
 438:Code\Common\crypt/aes.c ****   AddRoundKey(0);
 439:Code\Common\crypt/aes.c **** }
 440:Code\Common\crypt/aes.c **** 
 441:Code\Common\crypt/aes.c **** static void BlockCopy(uint8_t* output, uint8_t* input)
 442:Code\Common\crypt/aes.c **** {
 443:Code\Common\crypt/aes.c ****   uint8_t i;
 444:Code\Common\crypt/aes.c ****   for (i = 0; i < KEYLEN; ++i)
 445:Code\Common\crypt/aes.c ****   {
 446:Code\Common\crypt/aes.c ****     output[i] = input[i];
 447:Code\Common\crypt/aes.c ****   }
 448:Code\Common\crypt/aes.c **** }
 449:Code\Common\crypt/aes.c **** 
 450:Code\Common\crypt/aes.c **** /*****************************************************************************/
 451:Code\Common\crypt/aes.c **** /* Public functions:                                                         */
 452:Code\Common\crypt/aes.c **** /*****************************************************************************/
 453:Code\Common\crypt/aes.c **** void AES128_ECB_encrypt(uint8_t* input, const uint8_t* key)
 454:Code\Common\crypt/aes.c **** {
 545              		.loc 1 454 0
 546              		.cfi_startproc
 547              	.LVL41:
 548 0000 F0B5     		push	{r4, r5, r6, r7, lr}
 549              		.cfi_def_cfa_offset 20
 550              		.cfi_offset 4, -20
 551              		.cfi_offset 5, -16
 552              		.cfi_offset 6, -12
 553              		.cfi_offset 7, -8
 554              		.cfi_offset 14, -4
 455:Code\Common\crypt/aes.c ****   // Copy input to output, and work in-memory on output
 456:Code\Common\crypt/aes.c **** //BlockCopy(output, input);
ARM GAS  C:\Users\zhiantec\AppData\Local\Temp\ccAwAEyq.s 			page 20


 457:Code\Common\crypt/aes.c ****   state = (state_t*)input;
 555              		.loc 1 457 0
 556 0002 2C4B     		ldr	r3, .L38
 454:Code\Common\crypt/aes.c ****   // Copy input to output, and work in-memory on output
 557              		.loc 1 454 0
 558 0004 87B0     		sub	sp, sp, #28
 559              		.cfi_def_cfa_offset 48
 560              		.loc 1 457 0
 561 0006 5863     		str	r0, [r3, #52]
 458:Code\Common\crypt/aes.c **** 
 459:Code\Common\crypt/aes.c ****   Key = key;
 562              		.loc 1 459 0
 563 0008 2B4B     		ldr	r3, .L38+4
 454:Code\Common\crypt/aes.c ****   // Copy input to output, and work in-memory on output
 564              		.loc 1 454 0
 565 000a 071C     		mov	r7, r0
 566              		.loc 1 459 0
 567 000c 1960     		str	r1, [r3]
 460:Code\Common\crypt/aes.c ****   KeyExpansion();
 568              		.loc 1 460 0
 569 000e FFF7FEFF 		bl	KeyExpansion
 570              	.LVL42:
 571              	.LBB30:
 572              	.LBB31:
 396:Code\Common\crypt/aes.c ****   
 573              		.loc 1 396 0
 574 0012 0020     		mov	r0, #0
 575 0014 FFF7FEFF 		bl	AddRoundKey
 576              	.LVL43:
 401:Code\Common\crypt/aes.c ****   {
 577              		.loc 1 401 0
 578 0018 0125     		mov	r5, #1
 579              	.LVL44:
 580              	.L37:
 403:Code\Common\crypt/aes.c ****     ShiftRows();
 581              		.loc 1 403 0
 582 001a FFF7FEFF 		bl	SubBytes
 583              	.LVL45:
 404:Code\Common\crypt/aes.c ****     MixColumns();
 584              		.loc 1 404 0
 585 001e FFF7FEFF 		bl	ShiftRows
 586              	.LVL46:
 587 0022 3B1C     		mov	r3, r7
 588 0024 3C1C     		mov	r4, r7
 589 0026 1033     		add	r3, r3, #16
 590 0028 0593     		str	r3, [sp, #20]
 591              	.LVL47:
 592              	.L36:
 593              	.LBB32:
 594              	.LBB33:
 296:Code\Common\crypt/aes.c ****     Tmp = (*state)[i][0] ^ (*state)[i][1] ^ (*state)[i][2] ^ (*state)[i][3] ;
 595              		.loc 1 296 0
 596 002a 2378     		ldrb	r3, [r4]
 597 002c 0093     		str	r3, [sp]
 598              	.LVL48:
 297:Code\Common\crypt/aes.c ****     Tm  = (*state)[i][0] ^ (*state)[i][1] ; Tm = xtime(Tm);  (*state)[i][0] ^= Tm ^ Tmp ;
 599              		.loc 1 297 0
ARM GAS  C:\Users\zhiantec\AppData\Local\Temp\ccAwAEyq.s 			page 21


 600 002e 0098     		ldr	r0, [sp]
 601 0030 6378     		ldrb	r3, [r4, #1]
 602 0032 5840     		eor	r0, r3
 603 0034 0193     		str	r3, [sp, #4]
 604 0036 E378     		ldrb	r3, [r4, #3]
 605 0038 0293     		str	r3, [sp, #8]
 606 003a A378     		ldrb	r3, [r4, #2]
 607 003c 0393     		str	r3, [sp, #12]
 608 003e 039A     		ldr	r2, [sp, #12]
 609 0040 029B     		ldr	r3, [sp, #8]
 610 0042 5340     		eor	r3, r2
 611 0044 1E1C     		mov	r6, r3
 612 0046 0493     		str	r3, [sp, #16]
 613 0048 4640     		eor	r6, r0
 614              	.LVL49:
 298:Code\Common\crypt/aes.c ****     Tm  = (*state)[i][1] ^ (*state)[i][2] ; Tm = xtime(Tm);  (*state)[i][1] ^= Tm ^ Tmp ;
 615              		.loc 1 298 0
 616 004a FFF7FEFF 		bl	xtime
 617              	.LVL50:
 618 004e 009B     		ldr	r3, [sp]
 619 0050 5840     		eor	r0, r3
 620              	.LVL51:
 621 0052 7040     		eor	r0, r6
 622 0054 2070     		strb	r0, [r4]
 299:Code\Common\crypt/aes.c ****     Tm  = (*state)[i][2] ^ (*state)[i][3] ; Tm = xtime(Tm);  (*state)[i][2] ^= Tm ^ Tmp ;
 623              		.loc 1 299 0
 624 0056 039B     		ldr	r3, [sp, #12]
 625 0058 0198     		ldr	r0, [sp, #4]
 626 005a 5840     		eor	r0, r3
 627              	.LVL52:
 628 005c FFF7FEFF 		bl	xtime
 629              	.LVL53:
 630 0060 019B     		ldr	r3, [sp, #4]
 631 0062 5840     		eor	r0, r3
 632              	.LVL54:
 300:Code\Common\crypt/aes.c ****     Tm  = (*state)[i][3] ^ t ;        Tm = xtime(Tm);  (*state)[i][3] ^= Tm ^ Tmp ;
 633              		.loc 1 300 0
 634 0064 6B46     		mov	r3, sp
 299:Code\Common\crypt/aes.c ****     Tm  = (*state)[i][2] ^ (*state)[i][3] ; Tm = xtime(Tm);  (*state)[i][2] ^= Tm ^ Tmp ;
 635              		.loc 1 299 0
 636 0066 7040     		eor	r0, r6
 637 0068 6070     		strb	r0, [r4, #1]
 300:Code\Common\crypt/aes.c ****     Tm  = (*state)[i][3] ^ t ;        Tm = xtime(Tm);  (*state)[i][3] ^= Tm ^ Tmp ;
 638              		.loc 1 300 0
 639 006a 187C     		ldrb	r0, [r3, #16]
 640              	.LVL55:
 641 006c FFF7FEFF 		bl	xtime
 642              	.LVL56:
 643 0070 039B     		ldr	r3, [sp, #12]
 644 0072 5840     		eor	r0, r3
 645              	.LVL57:
 646 0074 7040     		eor	r0, r6
 647 0076 A070     		strb	r0, [r4, #2]
 301:Code\Common\crypt/aes.c ****   }
 648              		.loc 1 301 0
 649 0078 029B     		ldr	r3, [sp, #8]
 650 007a 0098     		ldr	r0, [sp]
ARM GAS  C:\Users\zhiantec\AppData\Local\Temp\ccAwAEyq.s 			page 22


 651 007c 5840     		eor	r0, r3
 652              	.LVL58:
 653 007e FFF7FEFF 		bl	xtime
 654              	.LVL59:
 655 0082 029B     		ldr	r3, [sp, #8]
 656 0084 5840     		eor	r0, r3
 657              	.LVL60:
 658 0086 4640     		eor	r6, r0
 659              	.LVL61:
 294:Code\Common\crypt/aes.c ****   {  
 660              		.loc 1 294 0
 661 0088 059B     		ldr	r3, [sp, #20]
 301:Code\Common\crypt/aes.c ****   }
 662              		.loc 1 301 0
 663 008a E670     		strb	r6, [r4, #3]
 664 008c 0434     		add	r4, r4, #4
 294:Code\Common\crypt/aes.c ****   {  
 665              		.loc 1 294 0
 666 008e 9C42     		cmp	r4, r3
 667 0090 CBD1     		bne	.L36
 668              	.LBE33:
 669              	.LBE32:
 406:Code\Common\crypt/aes.c ****   }
 670              		.loc 1 406 0
 671 0092 281C     		mov	r0, r5
 401:Code\Common\crypt/aes.c ****   {
 672              		.loc 1 401 0
 673 0094 0135     		add	r5, r5, #1
 674              	.LVL62:
 675 0096 EDB2     		uxtb	r5, r5
 406:Code\Common\crypt/aes.c ****   }
 676              		.loc 1 406 0
 677 0098 FFF7FEFF 		bl	AddRoundKey
 678              	.LVL63:
 401:Code\Common\crypt/aes.c ****   {
 679              		.loc 1 401 0
 680 009c 0A2D     		cmp	r5, #10
 681 009e BCD1     		bne	.L37
 411:Code\Common\crypt/aes.c ****   ShiftRows();
 682              		.loc 1 411 0
 683 00a0 FFF7FEFF 		bl	SubBytes
 684              	.LVL64:
 412:Code\Common\crypt/aes.c ****   AddRoundKey(Nr);
 685              		.loc 1 412 0
 686 00a4 FFF7FEFF 		bl	ShiftRows
 687              	.LVL65:
 413:Code\Common\crypt/aes.c **** }
 688              		.loc 1 413 0
 689 00a8 281C     		mov	r0, r5
 690 00aa FFF7FEFF 		bl	AddRoundKey
 691              	.LVL66:
 692              	.LBE31:
 693              	.LBE30:
 461:Code\Common\crypt/aes.c **** 
 462:Code\Common\crypt/aes.c ****   // The next function call encrypts the PlainText with the Key using AES algorithm.
 463:Code\Common\crypt/aes.c ****   Cipher();
 464:Code\Common\crypt/aes.c **** }
ARM GAS  C:\Users\zhiantec\AppData\Local\Temp\ccAwAEyq.s 			page 23


 694              		.loc 1 464 0
 695 00ae 07B0     		add	sp, sp, #28
 696              	.LVL67:
 697              		@ sp needed
 698              	.LVL68:
 699              	.LVL69:
 700 00b0 F0BD     		pop	{r4, r5, r6, r7, pc}
 701              	.L39:
 702 00b2 C046     		.align	2
 703              	.L38:
 704 00b4 80000000 		.word	.LANCHOR3
 705 00b8 00000000 		.word	.LANCHOR0
 706              		.cfi_endproc
 707              	.LFE77:
 708              		.size	AES128_ECB_encrypt, .-AES128_ECB_encrypt
 709              		.section	.text.AES128_ECB_decrypt,"ax",%progbits
 710              		.align	1
 711              		.global	AES128_ECB_decrypt
 712              		.code	16
 713              		.thumb_func
 714              		.type	AES128_ECB_decrypt, %function
 715              	AES128_ECB_decrypt:
 716              	.LFB78:
 465:Code\Common\crypt/aes.c **** 
 466:Code\Common\crypt/aes.c **** void AES128_ECB_decrypt(uint8_t* input, const uint8_t* key, uint8_t *output)
 467:Code\Common\crypt/aes.c **** {
 717              		.loc 1 467 0
 718              		.cfi_startproc
 719              	.LVL70:
 720 0000 0023     		mov	r3, #0
 721 0002 F0B5     		push	{r4, r5, r6, r7, lr}
 722              		.cfi_def_cfa_offset 20
 723              		.cfi_offset 4, -20
 724              		.cfi_offset 5, -16
 725              		.cfi_offset 6, -12
 726              		.cfi_offset 7, -8
 727              		.cfi_offset 14, -4
 728 0004 93B0     		sub	sp, sp, #76
 729              		.cfi_def_cfa_offset 96
 730              	.LVL71:
 731              		.loc 1 467 0
 732 0006 0492     		str	r2, [sp, #16]
 733              	.LVL72:
 734              	.L41:
 735              	.LBB40:
 736              	.LBB41:
 446:Code\Common\crypt/aes.c ****   }
 737              		.loc 1 446 0
 738 0008 C25C     		ldrb	r2, [r0, r3]
 739 000a 049C     		ldr	r4, [sp, #16]
 740 000c E254     		strb	r2, [r4, r3]
 741              	.LVL73:
 742 000e 0133     		add	r3, r3, #1
 743              	.LVL74:
 444:Code\Common\crypt/aes.c ****   {
 744              		.loc 1 444 0
 745 0010 102B     		cmp	r3, #16
ARM GAS  C:\Users\zhiantec\AppData\Local\Temp\ccAwAEyq.s 			page 24


 746 0012 F9D1     		bne	.L41
 747              	.LBE41:
 748              	.LBE40:
 468:Code\Common\crypt/aes.c ****   // Copy input to output, and work in-memory on output
 469:Code\Common\crypt/aes.c ****   BlockCopy(output, input);
 470:Code\Common\crypt/aes.c ****   state = (state_t*)output;
 749              		.loc 1 470 0
 750 0014 594B     		ldr	r3, .L44
 751 0016 5C63     		str	r4, [r3, #52]
 471:Code\Common\crypt/aes.c **** 
 472:Code\Common\crypt/aes.c ****   // The KeyExpansion routine must be called before encryption.
 473:Code\Common\crypt/aes.c ****   Key = key;
 752              		.loc 1 473 0
 753 0018 594B     		ldr	r3, .L44+4
 754 001a 1960     		str	r1, [r3]
 474:Code\Common\crypt/aes.c ****   KeyExpansion();
 755              		.loc 1 474 0
 756 001c FFF7FEFF 		bl	KeyExpansion
 757              	.LVL75:
 758              	.LBB42:
 759              	.LBB43:
 421:Code\Common\crypt/aes.c **** 
 760              		.loc 1 421 0
 761 0020 0A20     		mov	r0, #10
 762 0022 FFF7FEFF 		bl	AddRoundKey
 763              	.LVL76:
 426:Code\Common\crypt/aes.c ****   {
 764              		.loc 1 426 0
 765 0026 0923     		mov	r3, #9
 766 0028 0093     		str	r3, [sp]
 767              	.LVL77:
 768              	.L43:
 428:Code\Common\crypt/aes.c ****     InvSubBytes();
 769              		.loc 1 428 0
 770 002a FFF7FEFF 		bl	InvShiftRows
 771              	.LVL78:
 429:Code\Common\crypt/aes.c ****     AddRoundKey(round);
 772              		.loc 1 429 0
 773 002e FFF7FEFF 		bl	InvSubBytes
 774              	.LVL79:
 430:Code\Common\crypt/aes.c ****     InvMixColumns();
 775              		.loc 1 430 0
 776 0032 0098     		ldr	r0, [sp]
 777 0034 FFF7FEFF 		bl	AddRoundKey
 778              	.LVL80:
 779 0038 049C     		ldr	r4, [sp, #16]
 780 003a 231C     		mov	r3, r4
 781 003c 1033     		add	r3, r3, #16
 782 003e 1193     		str	r3, [sp, #68]
 783              	.LVL81:
 784              	.L42:
 785              	.LBB44:
 786              	.LBB45:
 334:Code\Common\crypt/aes.c ****     b = (*state)[i][1];
 787              		.loc 1 334 0
 788 0040 2378     		ldrb	r3, [r4]
 337:Code\Common\crypt/aes.c **** 
ARM GAS  C:\Users\zhiantec\AppData\Local\Temp\ccAwAEyq.s 			page 25


 789              		.loc 1 337 0
 790 0042 E678     		ldrb	r6, [r4, #3]
 334:Code\Common\crypt/aes.c ****     b = (*state)[i][1];
 791              		.loc 1 334 0
 792 0044 0193     		str	r3, [sp, #4]
 793              	.LVL82:
 335:Code\Common\crypt/aes.c ****     c = (*state)[i][2];
 794              		.loc 1 335 0
 795 0046 6378     		ldrb	r3, [r4, #1]
 339:Code\Common\crypt/aes.c ****     (*state)[i][1] = Multiply(a, 0x09) ^ Multiply(b, 0x0e) ^ Multiply(c, 0x0b) ^ Multiply(d, 0x0d);
 796              		.loc 1 339 0
 797 0048 0198     		ldr	r0, [sp, #4]
 335:Code\Common\crypt/aes.c ****     c = (*state)[i][2];
 798              		.loc 1 335 0
 799 004a 0293     		str	r3, [sp, #8]
 800              	.LVL83:
 336:Code\Common\crypt/aes.c ****     d = (*state)[i][3];
 801              		.loc 1 336 0
 802 004c A378     		ldrb	r3, [r4, #2]
 803 004e 0393     		str	r3, [sp, #12]
 804              	.LVL84:
 339:Code\Common\crypt/aes.c ****     (*state)[i][1] = Multiply(a, 0x09) ^ Multiply(b, 0x0e) ^ Multiply(c, 0x0b) ^ Multiply(d, 0x0d);
 805              		.loc 1 339 0
 806 0050 FFF7FEFF 		bl	xtime
 807              	.LVL85:
 808 0054 0590     		str	r0, [sp, #20]
 809 0056 FFF7FEFF 		bl	xtime
 810              	.LVL86:
 811 005a 0690     		str	r0, [sp, #24]
 812 005c FFF7FEFF 		bl	xtime
 813              	.LVL87:
 814 0060 0E90     		str	r0, [sp, #56]
 815 0062 0298     		ldr	r0, [sp, #8]
 816 0064 FFF7FEFF 		bl	xtime
 817              	.LVL88:
 818 0068 051C     		mov	r5, r0
 819 006a FFF7FEFF 		bl	xtime
 820              	.LVL89:
 821 006e 0790     		str	r0, [sp, #28]
 822 0070 FFF7FEFF 		bl	xtime
 823              	.LVL90:
 824 0074 0F90     		str	r0, [sp, #60]
 825 0076 0398     		ldr	r0, [sp, #12]
 826 0078 FFF7FEFF 		bl	xtime
 827              	.LVL91:
 828 007c 0890     		str	r0, [sp, #32]
 829 007e FFF7FEFF 		bl	xtime
 830              	.LVL92:
 831 0082 071C     		mov	r7, r0
 832 0084 FFF7FEFF 		bl	xtime
 833              	.LVL93:
 834 0088 1090     		str	r0, [sp, #64]
 835 008a 301C     		mov	r0, r6
 836 008c FFF7FEFF 		bl	xtime
 837              	.LVL94:
 838 0090 0990     		str	r0, [sp, #36]
 839 0092 FFF7FEFF 		bl	xtime
ARM GAS  C:\Users\zhiantec\AppData\Local\Temp\ccAwAEyq.s 			page 26


 840              	.LVL95:
 841 0096 0A90     		str	r0, [sp, #40]
 842 0098 FFF7FEFF 		bl	xtime
 843              	.LVL96:
 844 009c 3822     		mov	r2, #56
 845 009e 6B46     		mov	r3, sp
 846 00a0 9B18     		add	r3, r3, r2
 847 00a2 1B78     		ldrb	r3, [r3]
 848 00a4 0432     		add	r2, r2, #4
 849 00a6 0B93     		str	r3, [sp, #44]
 850 00a8 6B46     		mov	r3, sp
 851 00aa 9B18     		add	r3, r3, r2
 852 00ac 1B78     		ldrb	r3, [r3]
 853 00ae 0699     		ldr	r1, [sp, #24]
 854 00b0 0C93     		str	r3, [sp, #48]
 855 00b2 0C9A     		ldr	r2, [sp, #48]
 856 00b4 0B9B     		ldr	r3, [sp, #44]
 857 00b6 5340     		eor	r3, r2
 858 00b8 0D93     		str	r3, [sp, #52]
 859 00ba 4022     		mov	r2, #64
 860 00bc 6B46     		mov	r3, sp
 861 00be 9B18     		add	r3, r3, r2
 862 00c0 059A     		ldr	r2, [sp, #20]
 863 00c2 1B78     		ldrb	r3, [r3]
 864 00c4 5140     		eor	r1, r2
 865 00c6 0D9A     		ldr	r2, [sp, #52]
 866 00c8 5140     		eor	r1, r2
 867 00ca 029A     		ldr	r2, [sp, #8]
 868 00cc 5940     		eor	r1, r3
 869 00ce 6A40     		eor	r2, r5
 870 00d0 4A40     		eor	r2, r1
 871 00d2 0399     		ldr	r1, [sp, #12]
 872 00d4 7940     		eor	r1, r7
 873 00d6 4A40     		eor	r2, r1
 874 00d8 311C     		mov	r1, r6
 875 00da 4140     		eor	r1, r0
 876 00dc 5140     		eor	r1, r2
 877 00de 2170     		strb	r1, [r4]
 878 00e0 0C9A     		ldr	r2, [sp, #48]
 340:Code\Common\crypt/aes.c ****     (*state)[i][2] = Multiply(a, 0x0d) ^ Multiply(b, 0x09) ^ Multiply(c, 0x0e) ^ Multiply(d, 0x0b);
 879              		.loc 1 340 0
 880 00e2 0799     		ldr	r1, [sp, #28]
 881 00e4 C0B2     		uxtb	r0, r0
 882 00e6 5A40     		eor	r2, r3
 883 00e8 4240     		eor	r2, r0
 884 00ea 4D40     		eor	r5, r1
 885 00ec 5540     		eor	r5, r2
 886 00ee 0199     		ldr	r1, [sp, #4]
 887 00f0 0E9A     		ldr	r2, [sp, #56]
 888 00f2 4A40     		eor	r2, r1
 889 00f4 5540     		eor	r5, r2
 890 00f6 0899     		ldr	r1, [sp, #32]
 891 00f8 039A     		ldr	r2, [sp, #12]
 892 00fa 5140     		eor	r1, r2
 893 00fc 0B9A     		ldr	r2, [sp, #44]
 894 00fe 4D40     		eor	r5, r1
 895 0100 5340     		eor	r3, r2
ARM GAS  C:\Users\zhiantec\AppData\Local\Temp\ccAwAEyq.s 			page 27


 341:Code\Common\crypt/aes.c ****     (*state)[i][3] = Multiply(a, 0x0b) ^ Multiply(b, 0x0d) ^ Multiply(c, 0x09) ^ Multiply(d, 0x0e);
 896              		.loc 1 341 0
 897 0102 089A     		ldr	r2, [sp, #32]
 898 0104 4340     		eor	r3, r0
 899 0106 5740     		eor	r7, r2
 900 0108 5F40     		eor	r7, r3
 901 010a 069A     		ldr	r2, [sp, #24]
 902 010c 019B     		ldr	r3, [sp, #4]
 340:Code\Common\crypt/aes.c ****     (*state)[i][2] = Multiply(a, 0x0d) ^ Multiply(b, 0x09) ^ Multiply(c, 0x0e) ^ Multiply(d, 0x0b);
 903              		.loc 1 340 0
 904 010e 0A99     		ldr	r1, [sp, #40]
 341:Code\Common\crypt/aes.c ****     (*state)[i][3] = Multiply(a, 0x0b) ^ Multiply(b, 0x0d) ^ Multiply(c, 0x09) ^ Multiply(d, 0x0e);
 905              		.loc 1 341 0
 906 0110 5A40     		eor	r2, r3
 907 0112 5740     		eor	r7, r2
 908 0114 0F9B     		ldr	r3, [sp, #60]
 909 0116 029A     		ldr	r2, [sp, #8]
 340:Code\Common\crypt/aes.c ****     (*state)[i][2] = Multiply(a, 0x0d) ^ Multiply(b, 0x09) ^ Multiply(c, 0x0e) ^ Multiply(d, 0x0b);
 910              		.loc 1 340 0
 911 0118 7140     		eor	r1, r6
 341:Code\Common\crypt/aes.c ****     (*state)[i][3] = Multiply(a, 0x0b) ^ Multiply(b, 0x0d) ^ Multiply(c, 0x09) ^ Multiply(d, 0x0e);
 912              		.loc 1 341 0
 913 011a 5340     		eor	r3, r2
 914 011c 099A     		ldr	r2, [sp, #36]
 915 011e 5F40     		eor	r7, r3
 916 0120 7240     		eor	r2, r6
 342:Code\Common\crypt/aes.c ****   }
 917              		.loc 1 342 0
 918 0122 099B     		ldr	r3, [sp, #36]
 919 0124 0A9E     		ldr	r6, [sp, #40]
 920              	.LVL97:
 341:Code\Common\crypt/aes.c ****     (*state)[i][3] = Multiply(a, 0x0b) ^ Multiply(b, 0x0d) ^ Multiply(c, 0x09) ^ Multiply(d, 0x0e);
 921              		.loc 1 341 0
 922 0126 5740     		eor	r7, r2
 342:Code\Common\crypt/aes.c ****   }
 923              		.loc 1 342 0
 924 0128 5E40     		eor	r6, r3
 925 012a 0D9B     		ldr	r3, [sp, #52]
 926 012c 029A     		ldr	r2, [sp, #8]
 927 012e 5E40     		eor	r6, r3
 928 0130 7040     		eor	r0, r6
 929 0132 019B     		ldr	r3, [sp, #4]
 930 0134 059E     		ldr	r6, [sp, #20]
 340:Code\Common\crypt/aes.c ****     (*state)[i][2] = Multiply(a, 0x0d) ^ Multiply(b, 0x09) ^ Multiply(c, 0x0e) ^ Multiply(d, 0x0b);
 931              		.loc 1 340 0
 932 0136 4D40     		eor	r5, r1
 342:Code\Common\crypt/aes.c ****   }
 933              		.loc 1 342 0
 934 0138 5E40     		eor	r6, r3
 935 013a 079B     		ldr	r3, [sp, #28]
 936 013c 7040     		eor	r0, r6
 937 013e 5340     		eor	r3, r2
 938 0140 5840     		eor	r0, r3
 939 0142 109E     		ldr	r6, [sp, #64]
 940 0144 039B     		ldr	r3, [sp, #12]
 340:Code\Common\crypt/aes.c ****     (*state)[i][2] = Multiply(a, 0x0d) ^ Multiply(b, 0x09) ^ Multiply(c, 0x0e) ^ Multiply(d, 0x0b);
 941              		.loc 1 340 0
ARM GAS  C:\Users\zhiantec\AppData\Local\Temp\ccAwAEyq.s 			page 28


 942 0146 6570     		strb	r5, [r4, #1]
 342:Code\Common\crypt/aes.c ****   }
 943              		.loc 1 342 0
 944 0148 5E40     		eor	r6, r3
 945 014a 7040     		eor	r0, r6
 332:Code\Common\crypt/aes.c ****   { 
 946              		.loc 1 332 0
 947 014c 119B     		ldr	r3, [sp, #68]
 341:Code\Common\crypt/aes.c ****     (*state)[i][3] = Multiply(a, 0x0b) ^ Multiply(b, 0x0d) ^ Multiply(c, 0x09) ^ Multiply(d, 0x0e);
 948              		.loc 1 341 0
 949 014e A770     		strb	r7, [r4, #2]
 342:Code\Common\crypt/aes.c ****   }
 950              		.loc 1 342 0
 951 0150 E070     		strb	r0, [r4, #3]
 952 0152 0434     		add	r4, r4, #4
 332:Code\Common\crypt/aes.c ****   { 
 953              		.loc 1 332 0
 954 0154 9C42     		cmp	r4, r3
 955 0156 00D0     		beq	.LCB837
 956 0158 72E7     		b	.L42	@long jump
 957              	.LCB837:
 958              	.LBE45:
 959              	.LBE44:
 426:Code\Common\crypt/aes.c ****   {
 960              		.loc 1 426 0
 961 015a 009B     		ldr	r3, [sp]
 962 015c 013B     		sub	r3, r3, #1
 963 015e DBB2     		uxtb	r3, r3
 964 0160 0093     		str	r3, [sp]
 965              	.LVL98:
 966 0162 002B     		cmp	r3, #0
 967 0164 00D0     		beq	.LCB847
 968 0166 60E7     		b	.L43	@long jump
 969              	.LCB847:
 436:Code\Common\crypt/aes.c ****   InvSubBytes();
 970              		.loc 1 436 0
 971 0168 FFF7FEFF 		bl	InvShiftRows
 972              	.LVL99:
 437:Code\Common\crypt/aes.c ****   AddRoundKey(0);
 973              		.loc 1 437 0
 974 016c FFF7FEFF 		bl	InvSubBytes
 975              	.LVL100:
 438:Code\Common\crypt/aes.c **** }
 976              		.loc 1 438 0
 977 0170 0098     		ldr	r0, [sp]
 978 0172 FFF7FEFF 		bl	AddRoundKey
 979              	.LVL101:
 980              	.LBE43:
 981              	.LBE42:
 475:Code\Common\crypt/aes.c **** 
 476:Code\Common\crypt/aes.c ****   InvCipher();
 477:Code\Common\crypt/aes.c **** }
 982              		.loc 1 477 0
 983 0176 13B0     		add	sp, sp, #76
 984              	.LVL102:
 985              		@ sp needed
 986 0178 F0BD     		pop	{r4, r5, r6, r7, pc}
ARM GAS  C:\Users\zhiantec\AppData\Local\Temp\ccAwAEyq.s 			page 29


 987              	.L45:
 988 017a C046     		.align	2
 989              	.L44:
 990 017c 80000000 		.word	.LANCHOR3
 991 0180 00000000 		.word	.LANCHOR0
 992              		.cfi_endproc
 993              	.LFE78:
 994              		.size	AES128_ECB_decrypt, .-AES128_ECB_decrypt
 995              		.section	.rodata
 996              		.set	.LANCHOR1,. + 0
 997              		.set	.LANCHOR2,. + 256
 998              		.type	sbox, %object
 999              		.size	sbox, 256
 1000              	sbox:
 1001 0000 63       		.byte	99
 1002 0001 7C       		.byte	124
 1003 0002 77       		.byte	119
 1004 0003 7B       		.byte	123
 1005 0004 F2       		.byte	-14
 1006 0005 6B       		.byte	107
 1007 0006 6F       		.byte	111
 1008 0007 C5       		.byte	-59
 1009 0008 30       		.byte	48
 1010 0009 01       		.byte	1
 1011 000a 67       		.byte	103
 1012 000b 2B       		.byte	43
 1013 000c FE       		.byte	-2
 1014 000d D7       		.byte	-41
 1015 000e AB       		.byte	-85
 1016 000f 76       		.byte	118
 1017 0010 CA       		.byte	-54
 1018 0011 82       		.byte	-126
 1019 0012 C9       		.byte	-55
 1020 0013 7D       		.byte	125
 1021 0014 FA       		.byte	-6
 1022 0015 59       		.byte	89
 1023 0016 47       		.byte	71
 1024 0017 F0       		.byte	-16
 1025 0018 AD       		.byte	-83
 1026 0019 D4       		.byte	-44
 1027 001a A2       		.byte	-94
 1028 001b AF       		.byte	-81
 1029 001c 9C       		.byte	-100
 1030 001d A4       		.byte	-92
 1031 001e 72       		.byte	114
 1032 001f C0       		.byte	-64
 1033 0020 B7       		.byte	-73
 1034 0021 FD       		.byte	-3
 1035 0022 93       		.byte	-109
 1036 0023 26       		.byte	38
 1037 0024 36       		.byte	54
 1038 0025 3F       		.byte	63
 1039 0026 F7       		.byte	-9
 1040 0027 CC       		.byte	-52
 1041 0028 34       		.byte	52
 1042 0029 A5       		.byte	-91
 1043 002a E5       		.byte	-27
ARM GAS  C:\Users\zhiantec\AppData\Local\Temp\ccAwAEyq.s 			page 30


 1044 002b F1       		.byte	-15
 1045 002c 71       		.byte	113
 1046 002d D8       		.byte	-40
 1047 002e 31       		.byte	49
 1048 002f 15       		.byte	21
 1049 0030 04       		.byte	4
 1050 0031 C7       		.byte	-57
 1051 0032 23       		.byte	35
 1052 0033 C3       		.byte	-61
 1053 0034 18       		.byte	24
 1054 0035 96       		.byte	-106
 1055 0036 05       		.byte	5
 1056 0037 9A       		.byte	-102
 1057 0038 07       		.byte	7
 1058 0039 12       		.byte	18
 1059 003a 80       		.byte	-128
 1060 003b E2       		.byte	-30
 1061 003c EB       		.byte	-21
 1062 003d 27       		.byte	39
 1063 003e B2       		.byte	-78
 1064 003f 75       		.byte	117
 1065 0040 09       		.byte	9
 1066 0041 83       		.byte	-125
 1067 0042 2C       		.byte	44
 1068 0043 1A       		.byte	26
 1069 0044 1B       		.byte	27
 1070 0045 6E       		.byte	110
 1071 0046 5A       		.byte	90
 1072 0047 A0       		.byte	-96
 1073 0048 52       		.byte	82
 1074 0049 3B       		.byte	59
 1075 004a D6       		.byte	-42
 1076 004b B3       		.byte	-77
 1077 004c 29       		.byte	41
 1078 004d E3       		.byte	-29
 1079 004e 2F       		.byte	47
 1080 004f 84       		.byte	-124
 1081 0050 53       		.byte	83
 1082 0051 D1       		.byte	-47
 1083 0052 00       		.byte	0
 1084 0053 ED       		.byte	-19
 1085 0054 20       		.byte	32
 1086 0055 FC       		.byte	-4
 1087 0056 B1       		.byte	-79
 1088 0057 5B       		.byte	91
 1089 0058 6A       		.byte	106
 1090 0059 CB       		.byte	-53
 1091 005a BE       		.byte	-66
 1092 005b 39       		.byte	57
 1093 005c 4A       		.byte	74
 1094 005d 4C       		.byte	76
 1095 005e 58       		.byte	88
 1096 005f CF       		.byte	-49
 1097 0060 D0       		.byte	-48
 1098 0061 EF       		.byte	-17
 1099 0062 AA       		.byte	-86
 1100 0063 FB       		.byte	-5
ARM GAS  C:\Users\zhiantec\AppData\Local\Temp\ccAwAEyq.s 			page 31


 1101 0064 43       		.byte	67
 1102 0065 4D       		.byte	77
 1103 0066 33       		.byte	51
 1104 0067 85       		.byte	-123
 1105 0068 45       		.byte	69
 1106 0069 F9       		.byte	-7
 1107 006a 02       		.byte	2
 1108 006b 7F       		.byte	127
 1109 006c 50       		.byte	80
 1110 006d 3C       		.byte	60
 1111 006e 9F       		.byte	-97
 1112 006f A8       		.byte	-88
 1113 0070 51       		.byte	81
 1114 0071 A3       		.byte	-93
 1115 0072 40       		.byte	64
 1116 0073 8F       		.byte	-113
 1117 0074 92       		.byte	-110
 1118 0075 9D       		.byte	-99
 1119 0076 38       		.byte	56
 1120 0077 F5       		.byte	-11
 1121 0078 BC       		.byte	-68
 1122 0079 B6       		.byte	-74
 1123 007a DA       		.byte	-38
 1124 007b 21       		.byte	33
 1125 007c 10       		.byte	16
 1126 007d FF       		.byte	-1
 1127 007e F3       		.byte	-13
 1128 007f D2       		.byte	-46
 1129 0080 CD       		.byte	-51
 1130 0081 0C       		.byte	12
 1131 0082 13       		.byte	19
 1132 0083 EC       		.byte	-20
 1133 0084 5F       		.byte	95
 1134 0085 97       		.byte	-105
 1135 0086 44       		.byte	68
 1136 0087 17       		.byte	23
 1137 0088 C4       		.byte	-60
 1138 0089 A7       		.byte	-89
 1139 008a 7E       		.byte	126
 1140 008b 3D       		.byte	61
 1141 008c 64       		.byte	100
 1142 008d 5D       		.byte	93
 1143 008e 19       		.byte	25
 1144 008f 73       		.byte	115
 1145 0090 60       		.byte	96
 1146 0091 81       		.byte	-127
 1147 0092 4F       		.byte	79
 1148 0093 DC       		.byte	-36
 1149 0094 22       		.byte	34
 1150 0095 2A       		.byte	42
 1151 0096 90       		.byte	-112
 1152 0097 88       		.byte	-120
 1153 0098 46       		.byte	70
 1154 0099 EE       		.byte	-18
 1155 009a B8       		.byte	-72
 1156 009b 14       		.byte	20
 1157 009c DE       		.byte	-34
ARM GAS  C:\Users\zhiantec\AppData\Local\Temp\ccAwAEyq.s 			page 32


 1158 009d 5E       		.byte	94
 1159 009e 0B       		.byte	11
 1160 009f DB       		.byte	-37
 1161 00a0 E0       		.byte	-32
 1162 00a1 32       		.byte	50
 1163 00a2 3A       		.byte	58
 1164 00a3 0A       		.byte	10
 1165 00a4 49       		.byte	73
 1166 00a5 06       		.byte	6
 1167 00a6 24       		.byte	36
 1168 00a7 5C       		.byte	92
 1169 00a8 C2       		.byte	-62
 1170 00a9 D3       		.byte	-45
 1171 00aa AC       		.byte	-84
 1172 00ab 62       		.byte	98
 1173 00ac 91       		.byte	-111
 1174 00ad 95       		.byte	-107
 1175 00ae E4       		.byte	-28
 1176 00af 79       		.byte	121
 1177 00b0 E7       		.byte	-25
 1178 00b1 C8       		.byte	-56
 1179 00b2 37       		.byte	55
 1180 00b3 6D       		.byte	109
 1181 00b4 8D       		.byte	-115
 1182 00b5 D5       		.byte	-43
 1183 00b6 4E       		.byte	78
 1184 00b7 A9       		.byte	-87
 1185 00b8 6C       		.byte	108
 1186 00b9 56       		.byte	86
 1187 00ba F4       		.byte	-12
 1188 00bb EA       		.byte	-22
 1189 00bc 65       		.byte	101
 1190 00bd 7A       		.byte	122
 1191 00be AE       		.byte	-82
 1192 00bf 08       		.byte	8
 1193 00c0 BA       		.byte	-70
 1194 00c1 78       		.byte	120
 1195 00c2 25       		.byte	37
 1196 00c3 2E       		.byte	46
 1197 00c4 1C       		.byte	28
 1198 00c5 A6       		.byte	-90
 1199 00c6 B4       		.byte	-76
 1200 00c7 C6       		.byte	-58
 1201 00c8 E8       		.byte	-24
 1202 00c9 DD       		.byte	-35
 1203 00ca 74       		.byte	116
 1204 00cb 1F       		.byte	31
 1205 00cc 4B       		.byte	75
 1206 00cd BD       		.byte	-67
 1207 00ce 8B       		.byte	-117
 1208 00cf 8A       		.byte	-118
 1209 00d0 70       		.byte	112
 1210 00d1 3E       		.byte	62
 1211 00d2 B5       		.byte	-75
 1212 00d3 66       		.byte	102
 1213 00d4 48       		.byte	72
 1214 00d5 03       		.byte	3
ARM GAS  C:\Users\zhiantec\AppData\Local\Temp\ccAwAEyq.s 			page 33


 1215 00d6 F6       		.byte	-10
 1216 00d7 0E       		.byte	14
 1217 00d8 61       		.byte	97
 1218 00d9 35       		.byte	53
 1219 00da 57       		.byte	87
 1220 00db B9       		.byte	-71
 1221 00dc 86       		.byte	-122
 1222 00dd C1       		.byte	-63
 1223 00de 1D       		.byte	29
 1224 00df 9E       		.byte	-98
 1225 00e0 E1       		.byte	-31
 1226 00e1 F8       		.byte	-8
 1227 00e2 98       		.byte	-104
 1228 00e3 11       		.byte	17
 1229 00e4 69       		.byte	105
 1230 00e5 D9       		.byte	-39
 1231 00e6 8E       		.byte	-114
 1232 00e7 94       		.byte	-108
 1233 00e8 9B       		.byte	-101
 1234 00e9 1E       		.byte	30
 1235 00ea 87       		.byte	-121
 1236 00eb E9       		.byte	-23
 1237 00ec CE       		.byte	-50
 1238 00ed 55       		.byte	85
 1239 00ee 28       		.byte	40
 1240 00ef DF       		.byte	-33
 1241 00f0 8C       		.byte	-116
 1242 00f1 A1       		.byte	-95
 1243 00f2 89       		.byte	-119
 1244 00f3 0D       		.byte	13
 1245 00f4 BF       		.byte	-65
 1246 00f5 E6       		.byte	-26
 1247 00f6 42       		.byte	66
 1248 00f7 68       		.byte	104
 1249 00f8 41       		.byte	65
 1250 00f9 99       		.byte	-103
 1251 00fa 2D       		.byte	45
 1252 00fb 0F       		.byte	15
 1253 00fc B0       		.byte	-80
 1254 00fd 54       		.byte	84
 1255 00fe BB       		.byte	-69
 1256 00ff 16       		.byte	22
 1257              		.type	Rcon, %object
 1258              		.size	Rcon, 16
 1259              	Rcon:
 1260 0100 EF       		.byte	-17
 1261 0101 3A       		.byte	58
 1262 0102 19       		.byte	25
 1263 0103 3D       		.byte	61
 1264 0104 CA       		.byte	-54
 1265 0105 0B       		.byte	11
 1266 0106 36       		.byte	54
 1267 0107 89       		.byte	-119
 1268 0108 A8       		.byte	-88
 1269 0109 61       		.byte	97
 1270 010a F6       		.byte	-10
 1271 010b 6C       		.byte	108
ARM GAS  C:\Users\zhiantec\AppData\Local\Temp\ccAwAEyq.s 			page 34


 1272 010c D8       		.byte	-40
 1273 010d AB       		.byte	-85
 1274 010e 4D       		.byte	77
 1275 010f 9A       		.byte	-102
 1276              		.type	rsbox, %object
 1277              		.size	rsbox, 256
 1278              	rsbox:
 1279 0110 52       		.byte	82
 1280 0111 09       		.byte	9
 1281 0112 6A       		.byte	106
 1282 0113 D5       		.byte	-43
 1283 0114 30       		.byte	48
 1284 0115 36       		.byte	54
 1285 0116 A5       		.byte	-91
 1286 0117 38       		.byte	56
 1287 0118 BF       		.byte	-65
 1288 0119 40       		.byte	64
 1289 011a A3       		.byte	-93
 1290 011b 9E       		.byte	-98
 1291 011c 81       		.byte	-127
 1292 011d F3       		.byte	-13
 1293 011e D7       		.byte	-41
 1294 011f FB       		.byte	-5
 1295 0120 7C       		.byte	124
 1296 0121 E3       		.byte	-29
 1297 0122 39       		.byte	57
 1298 0123 82       		.byte	-126
 1299 0124 9B       		.byte	-101
 1300 0125 2F       		.byte	47
 1301 0126 FF       		.byte	-1
 1302 0127 87       		.byte	-121
 1303 0128 34       		.byte	52
 1304 0129 8E       		.byte	-114
 1305 012a 43       		.byte	67
 1306 012b 44       		.byte	68
 1307 012c C4       		.byte	-60
 1308 012d DE       		.byte	-34
 1309 012e E9       		.byte	-23
 1310 012f CB       		.byte	-53
 1311 0130 54       		.byte	84
 1312 0131 7B       		.byte	123
 1313 0132 94       		.byte	-108
 1314 0133 32       		.byte	50
 1315 0134 A6       		.byte	-90
 1316 0135 C2       		.byte	-62
 1317 0136 23       		.byte	35
 1318 0137 3D       		.byte	61
 1319 0138 EE       		.byte	-18
 1320 0139 4C       		.byte	76
 1321 013a 95       		.byte	-107
 1322 013b 0B       		.byte	11
 1323 013c 42       		.byte	66
 1324 013d FA       		.byte	-6
 1325 013e C3       		.byte	-61
 1326 013f 4E       		.byte	78
 1327 0140 08       		.byte	8
 1328 0141 2E       		.byte	46
ARM GAS  C:\Users\zhiantec\AppData\Local\Temp\ccAwAEyq.s 			page 35


 1329 0142 A1       		.byte	-95
 1330 0143 66       		.byte	102
 1331 0144 28       		.byte	40
 1332 0145 D9       		.byte	-39
 1333 0146 24       		.byte	36
 1334 0147 B2       		.byte	-78
 1335 0148 76       		.byte	118
 1336 0149 5B       		.byte	91
 1337 014a A2       		.byte	-94
 1338 014b 49       		.byte	73
 1339 014c 6D       		.byte	109
 1340 014d 8B       		.byte	-117
 1341 014e D1       		.byte	-47
 1342 014f 25       		.byte	37
 1343 0150 72       		.byte	114
 1344 0151 F8       		.byte	-8
 1345 0152 F6       		.byte	-10
 1346 0153 64       		.byte	100
 1347 0154 86       		.byte	-122
 1348 0155 68       		.byte	104
 1349 0156 98       		.byte	-104
 1350 0157 16       		.byte	22
 1351 0158 D4       		.byte	-44
 1352 0159 A4       		.byte	-92
 1353 015a 5C       		.byte	92
 1354 015b CC       		.byte	-52
 1355 015c 5D       		.byte	93
 1356 015d 65       		.byte	101
 1357 015e B6       		.byte	-74
 1358 015f 92       		.byte	-110
 1359 0160 6C       		.byte	108
 1360 0161 70       		.byte	112
 1361 0162 48       		.byte	72
 1362 0163 50       		.byte	80
 1363 0164 FD       		.byte	-3
 1364 0165 ED       		.byte	-19
 1365 0166 B9       		.byte	-71
 1366 0167 DA       		.byte	-38
 1367 0168 5E       		.byte	94
 1368 0169 15       		.byte	21
 1369 016a 46       		.byte	70
 1370 016b 57       		.byte	87
 1371 016c A7       		.byte	-89
 1372 016d 8D       		.byte	-115
 1373 016e 9D       		.byte	-99
 1374 016f 84       		.byte	-124
 1375 0170 90       		.byte	-112
 1376 0171 D8       		.byte	-40
 1377 0172 AB       		.byte	-85
 1378 0173 00       		.byte	0
 1379 0174 8C       		.byte	-116
 1380 0175 BC       		.byte	-68
 1381 0176 D3       		.byte	-45
 1382 0177 0A       		.byte	10
 1383 0178 F7       		.byte	-9
 1384 0179 E4       		.byte	-28
 1385 017a 58       		.byte	88
ARM GAS  C:\Users\zhiantec\AppData\Local\Temp\ccAwAEyq.s 			page 36


 1386 017b 05       		.byte	5
 1387 017c B8       		.byte	-72
 1388 017d B3       		.byte	-77
 1389 017e 45       		.byte	69
 1390 017f 06       		.byte	6
 1391 0180 D0       		.byte	-48
 1392 0181 2C       		.byte	44
 1393 0182 1E       		.byte	30
 1394 0183 8F       		.byte	-113
 1395 0184 CA       		.byte	-54
 1396 0185 3F       		.byte	63
 1397 0186 0F       		.byte	15
 1398 0187 02       		.byte	2
 1399 0188 C1       		.byte	-63
 1400 0189 AF       		.byte	-81
 1401 018a BD       		.byte	-67
 1402 018b 03       		.byte	3
 1403 018c 01       		.byte	1
 1404 018d 13       		.byte	19
 1405 018e 8A       		.byte	-118
 1406 018f 6B       		.byte	107
 1407 0190 3A       		.byte	58
 1408 0191 91       		.byte	-111
 1409 0192 11       		.byte	17
 1410 0193 41       		.byte	65
 1411 0194 4F       		.byte	79
 1412 0195 67       		.byte	103
 1413 0196 DC       		.byte	-36
 1414 0197 EA       		.byte	-22
 1415 0198 97       		.byte	-105
 1416 0199 F2       		.byte	-14
 1417 019a CF       		.byte	-49
 1418 019b CE       		.byte	-50
 1419 019c F0       		.byte	-16
 1420 019d B4       		.byte	-76
 1421 019e E6       		.byte	-26
 1422 019f 73       		.byte	115
 1423 01a0 96       		.byte	-106
 1424 01a1 AC       		.byte	-84
 1425 01a2 74       		.byte	116
 1426 01a3 22       		.byte	34
 1427 01a4 E7       		.byte	-25
 1428 01a5 AD       		.byte	-83
 1429 01a6 35       		.byte	53
 1430 01a7 85       		.byte	-123
 1431 01a8 E2       		.byte	-30
 1432 01a9 F9       		.byte	-7
 1433 01aa 37       		.byte	55
 1434 01ab E8       		.byte	-24
 1435 01ac 1C       		.byte	28
 1436 01ad 75       		.byte	117
 1437 01ae DF       		.byte	-33
 1438 01af 6E       		.byte	110
 1439 01b0 47       		.byte	71
 1440 01b1 F1       		.byte	-15
 1441 01b2 1A       		.byte	26
 1442 01b3 71       		.byte	113
ARM GAS  C:\Users\zhiantec\AppData\Local\Temp\ccAwAEyq.s 			page 37


 1443 01b4 1D       		.byte	29
 1444 01b5 29       		.byte	41
 1445 01b6 C5       		.byte	-59
 1446 01b7 89       		.byte	-119
 1447 01b8 6F       		.byte	111
 1448 01b9 B7       		.byte	-73
 1449 01ba 62       		.byte	98
 1450 01bb 0E       		.byte	14
 1451 01bc AA       		.byte	-86
 1452 01bd 18       		.byte	24
 1453 01be BE       		.byte	-66
 1454 01bf 1B       		.byte	27
 1455 01c0 FC       		.byte	-4
 1456 01c1 56       		.byte	86
 1457 01c2 3E       		.byte	62
 1458 01c3 4B       		.byte	75
 1459 01c4 C6       		.byte	-58
 1460 01c5 D2       		.byte	-46
 1461 01c6 79       		.byte	121
 1462 01c7 20       		.byte	32
 1463 01c8 9A       		.byte	-102
 1464 01c9 DB       		.byte	-37
 1465 01ca C0       		.byte	-64
 1466 01cb FE       		.byte	-2
 1467 01cc 78       		.byte	120
 1468 01cd CD       		.byte	-51
 1469 01ce 5A       		.byte	90
 1470 01cf F4       		.byte	-12
 1471 01d0 1F       		.byte	31
 1472 01d1 DD       		.byte	-35
 1473 01d2 A8       		.byte	-88
 1474 01d3 33       		.byte	51
 1475 01d4 88       		.byte	-120
 1476 01d5 07       		.byte	7
 1477 01d6 C7       		.byte	-57
 1478 01d7 31       		.byte	49
 1479 01d8 B1       		.byte	-79
 1480 01d9 12       		.byte	18
 1481 01da 10       		.byte	16
 1482 01db 59       		.byte	89
 1483 01dc 27       		.byte	39
 1484 01dd 80       		.byte	-128
 1485 01de EC       		.byte	-20
 1486 01df 5F       		.byte	95
 1487 01e0 60       		.byte	96
 1488 01e1 51       		.byte	81
 1489 01e2 7F       		.byte	127
 1490 01e3 A9       		.byte	-87
 1491 01e4 19       		.byte	25
 1492 01e5 B5       		.byte	-75
 1493 01e6 4A       		.byte	74
 1494 01e7 0D       		.byte	13
 1495 01e8 2D       		.byte	45
 1496 01e9 E5       		.byte	-27
 1497 01ea 7A       		.byte	122
 1498 01eb 9F       		.byte	-97
 1499 01ec 93       		.byte	-109
ARM GAS  C:\Users\zhiantec\AppData\Local\Temp\ccAwAEyq.s 			page 38


 1500 01ed C9       		.byte	-55
 1501 01ee 9C       		.byte	-100
 1502 01ef EF       		.byte	-17
 1503 01f0 A0       		.byte	-96
 1504 01f1 E0       		.byte	-32
 1505 01f2 3B       		.byte	59
 1506 01f3 4D       		.byte	77
 1507 01f4 AE       		.byte	-82
 1508 01f5 2A       		.byte	42
 1509 01f6 F5       		.byte	-11
 1510 01f7 B0       		.byte	-80
 1511 01f8 C8       		.byte	-56
 1512 01f9 EB       		.byte	-21
 1513 01fa BB       		.byte	-69
 1514 01fb 3C       		.byte	60
 1515 01fc 83       		.byte	-125
 1516 01fd 53       		.byte	83
 1517 01fe 99       		.byte	-103
 1518 01ff 61       		.byte	97
 1519 0200 17       		.byte	23
 1520 0201 2B       		.byte	43
 1521 0202 04       		.byte	4
 1522 0203 7E       		.byte	126
 1523 0204 BA       		.byte	-70
 1524 0205 77       		.byte	119
 1525 0206 D6       		.byte	-42
 1526 0207 26       		.byte	38
 1527 0208 E1       		.byte	-31
 1528 0209 69       		.byte	105
 1529 020a 14       		.byte	20
 1530 020b 63       		.byte	99
 1531 020c 55       		.byte	85
 1532 020d 21       		.byte	33
 1533 020e 0C       		.byte	12
 1534 020f 7D       		.byte	125
 1535              		.bss
 1536              		.align	2
 1537              		.set	.LANCHOR0,. + 0
 1538              		.set	.LANCHOR3,. + 128
 1539              		.type	Key, %object
 1540              		.size	Key, 4
 1541              	Key:
 1542 0000 00000000 		.space	4
 1543              		.type	RoundKey, %object
 1544              		.size	RoundKey, 176
 1545              	RoundKey:
 1546 0004 00000000 		.space	176
 1546      00000000 
 1546      00000000 
 1546      00000000 
 1546      00000000 
 1547              		.type	state, %object
 1548              		.size	state, 4
 1549              	state:
 1550 00b4 00000000 		.space	4
 1551              		.text
 1552              	.Letext0:
ARM GAS  C:\Users\zhiantec\AppData\Local\Temp\ccAwAEyq.s 			page 39


 1553              		.file 2 "c:\\program files (x86)\\cypress\\psoc creator\\4.0\\psoc creator\\import\\gnu\\arm\\4.9.
 1554              		.file 3 "c:\\program files (x86)\\cypress\\psoc creator\\4.0\\psoc creator\\import\\gnu\\arm\\4.9.
 1555              		.file 4 "Generated_Source\\PSoC4/cytypes.h"