ARM GAS  C:\Users\Administrator\AppData\Local\Temp\ccdqdZXg.s 			page 1


   1              		.cpu cortex-m0
   2              		.fpu softvfp
   3              		.eabi_attribute 20, 1
   4              		.eabi_attribute 21, 1
   5              		.eabi_attribute 23, 3
   6              		.eabi_attribute 24, 1
   7              		.eabi_attribute 25, 1
   8              		.eabi_attribute 26, 1
   9              		.eabi_attribute 30, 4
  10              		.eabi_attribute 34, 0
  11              		.eabi_attribute 18, 4
  12              		.code	16
  13              		.file	"Bluetooth.c"
  14              		.text
  15              	.Ltext0:
  16              		.cfi_sections	.debug_frame
  17              		.section	.text.BleSend,"ax",%progbits
  18              		.align	1
  19              		.global	BleSend
  20              		.code	16
  21              		.thumb_func
  22              		.type	BleSend, %function
  23              	BleSend:
  24              	.LFB63:
  25              		.file 1 "Code\\Device\\BLE\\Bluetooth.c"
   1:Code\Device\BLE/Bluetooth.c **** //*************************************************************************************************
   2:Code\Device\BLE/Bluetooth.c **** // File name		: Bluetooth.c
   3:Code\Device\BLE/Bluetooth.c **** // Description		: 蓝牙接收发送的相关函数
   4:Code\Device\BLE/Bluetooth.c **** // Author			: Keno
   5:Code\Device\BLE/Bluetooth.c **** // Date				: 2016.8.8
   6:Code\Device\BLE/Bluetooth.c **** // Version			: V02
   7:Code\Device\BLE/Bluetooth.c **** //-------------------------------------------------------------------------------------------------
   8:Code\Device\BLE/Bluetooth.c **** // Info				: 
   9:Code\Device\BLE/Bluetooth.c **** //*************************************************************************************************
  10:Code\Device\BLE/Bluetooth.c **** #include "Bluetooth.h"
  11:Code\Device\BLE/Bluetooth.c **** 
  12:Code\Device\BLE/Bluetooth.c **** 
  13:Code\Device\BLE/Bluetooth.c **** 
  14:Code\Device\BLE/Bluetooth.c **** //*************************************************************************************************
  15:Code\Device\BLE/Bluetooth.c **** // Function name	: Protocol_BleSend
  16:Code\Device\BLE/Bluetooth.c **** // Description		: 蓝牙发送指定长度的数据包
  17:Code\Device\BLE/Bluetooth.c **** // Parameter		: data		: 数据
  18:Code\Device\BLE/Bluetooth.c **** //					: length	: 长度
  19:Code\Device\BLE/Bluetooth.c **** // Return			: none
  20:Code\Device\BLE/Bluetooth.c **** //-------------------------------------------------------------------------------------------------
  21:Code\Device\BLE/Bluetooth.c **** // Info				: 
  22:Code\Device\BLE/Bluetooth.c **** //*************************************************************************************************
  23:Code\Device\BLE/Bluetooth.c **** int BleSend(uint8 *data, uint16 length)
  24:Code\Device\BLE/Bluetooth.c **** {	
  26              		.loc 1 24 0
  27              		.cfi_startproc
  28              	.LVL0:
  29 0000 7FB5     		push	{r0, r1, r2, r3, r4, r5, r6, lr}
  30              		.cfi_def_cfa_offset 32
  31              		.cfi_offset 0, -32
  32              		.cfi_offset 1, -28
  33              		.cfi_offset 2, -24
ARM GAS  C:\Users\Administrator\AppData\Local\Temp\ccdqdZXg.s 			page 2


  34              		.cfi_offset 3, -20
  35              		.cfi_offset 4, -16
  36              		.cfi_offset 5, -12
  37              		.cfi_offset 6, -8
  38              		.cfi_offset 14, -4
  39 0002 051C     		mov	r5, r0
  40 0004 0C1C     		mov	r4, r1
  41              	.LVL1:
  42              	.L2:
  25:Code\Device\BLE/Bluetooth.c **** 	uint8 *ptr = data;
  26:Code\Device\BLE/Bluetooth.c **** 	uint16 sign_len = (uint16)length;				// 整个包的长度										//
  27:Code\Device\BLE/Bluetooth.c **** 	uint16 active_len = 0;							// 单次需要发送的数据长度，不大于CYBLE_MTU_LEN(20)	//
  28:Code\Device\BLE/Bluetooth.c **** 	CYBLE_API_RESULT_T ret = CYBLE_ERROR_OK;
  29:Code\Device\BLE/Bluetooth.c **** 	CYBLE_GATTS_HANDLE_VALUE_IND_T locationParam;   // 蓝牙传输数据格式包								//
  30:Code\Device\BLE/Bluetooth.c **** 	
  31:Code\Device\BLE/Bluetooth.c **** 	while (sign_len > 0) 
  43              		.loc 1 31 0
  44 0006 002C     		cmp	r4, #0
  45 0008 17D0     		beq	.L7
  32:Code\Device\BLE/Bluetooth.c **** 	{
  33:Code\Device\BLE/Bluetooth.c **** 		// 获取当前序包的包长度																			//
  34:Code\Device\BLE/Bluetooth.c **** 		active_len = sign_len > CYBLE_MTU_LEN? CYBLE_MTU_LEN: sign_len;	
  46              		.loc 1 34 0
  47 000a 231C     		add	r3, r4, #0
  48 000c 142C     		cmp	r4, #20
  49 000e 00D9     		bls	.L3
  50 0010 1423     		mov	r3, #20
  51              	.L3:
  35:Code\Device\BLE/Bluetooth.c **** 		
  36:Code\Device\BLE/Bluetooth.c **** 		// 填充需要传送的数据       																	//
  37:Code\Device\BLE/Bluetooth.c **** 	    locationParam.attrHandle = CYBLE_LOCK_SERVICE_UP_CHARACTERISTIC_CHAR_HANDLE;
  52              		.loc 1 37 0
  53 0012 1022     		mov	r2, #16
  54 0014 01A9     		add	r1, sp, #4
  55 0016 0A81     		strh	r2, [r1, #8]
  38:Code\Device\BLE/Bluetooth.c **** 	    locationParam.value.actualLen = active_len;
  39:Code\Device\BLE/Bluetooth.c **** 	    locationParam.value.len = active_len;
  40:Code\Device\BLE/Bluetooth.c **** 	    locationParam.value.val = ptr;
  41:Code\Device\BLE/Bluetooth.c **** 		ret = CyBle_GattsNotification(cyBle_connHandle,&locationParam);
  56              		.loc 1 41 0
  57 0018 094A     		ldr	r2, .L8
  34:Code\Device\BLE/Bluetooth.c **** 		
  58              		.loc 1 34 0
  59 001a 9EB2     		uxth	r6, r3
  60              	.LVL2:
  61              		.loc 1 41 0
  62 001c 5078     		ldrb	r0, [r2, #1]
  38:Code\Device\BLE/Bluetooth.c **** 	    locationParam.value.actualLen = active_len;
  63              		.loc 1 38 0
  64 001e CB80     		strh	r3, [r1, #6]
  39:Code\Device\BLE/Bluetooth.c **** 	    locationParam.value.val = ptr;
  65              		.loc 1 39 0
  66 0020 8B80     		strh	r3, [r1, #4]
  67              		.loc 1 41 0
  68 0022 1378     		ldrb	r3, [r2]
  69              	.LVL3:
  70 0024 0002     		lsl	r0, r0, #8
ARM GAS  C:\Users\Administrator\AppData\Local\Temp\ccdqdZXg.s 			page 3


  71 0026 1843     		orr	r0, r3
  40:Code\Device\BLE/Bluetooth.c **** 		ret = CyBle_GattsNotification(cyBle_connHandle,&locationParam);
  72              		.loc 1 40 0
  73 0028 0195     		str	r5, [sp, #4]
  74              		.loc 1 41 0
  75 002a FFF7FEFF 		bl	CyBle_GattsNotification
  76              	.LVL4:
  42:Code\Device\BLE/Bluetooth.c **** 		
  43:Code\Device\BLE/Bluetooth.c **** 		if (ret != CYBLE_ERROR_OK)
  77              		.loc 1 43 0
  78 002e 0028     		cmp	r0, #0
  79 0030 04D1     		bne	.L4
  44:Code\Device\BLE/Bluetooth.c **** 		{
  45:Code\Device\BLE/Bluetooth.c **** 			DBG_PRINTF("AppProtocol_Send--->send error\n");
  46:Code\Device\BLE/Bluetooth.c **** 			break;
  47:Code\Device\BLE/Bluetooth.c **** 		}
  48:Code\Device\BLE/Bluetooth.c **** 		
  49:Code\Device\BLE/Bluetooth.c **** 		sign_len -= active_len;						// 发完一次，总长度减去一个包的长度					//
  80              		.loc 1 49 0
  81 0032 A41B     		sub	r4, r4, r6
  82              	.LVL5:
  83 0034 A4B2     		uxth	r4, r4
  84              	.LVL6:
  50:Code\Device\BLE/Bluetooth.c **** 		ptr += active_len;							// 发完一次，数据指针往前移动一个包的长度			//
  85              		.loc 1 50 0
  86 0036 AD19     		add	r5, r5, r6
  87              	.LVL7:
  88 0038 E5E7     		b	.L2
  89              	.LVL8:
  90              	.L7:
  91 003a 201C     		mov	r0, r4
  92              	.LVL9:
  93              	.L4:
  51:Code\Device\BLE/Bluetooth.c **** 	}
  52:Code\Device\BLE/Bluetooth.c **** 
  53:Code\Device\BLE/Bluetooth.c **** 	DBG_PRINTF("AppProtocol_Send--->sent finish.\n");
  54:Code\Device\BLE/Bluetooth.c **** 	return ret;
  55:Code\Device\BLE/Bluetooth.c **** }
  94              		.loc 1 55 0
  95 003c 04B0     		add	sp, sp, #16
  96              		@ sp needed
  97              	.LVL10:
  98              	.LVL11:
  99 003e 70BD     		pop	{r4, r5, r6, pc}
 100              	.L9:
 101              		.align	2
 102              	.L8:
 103 0040 00000000 		.word	cyBle_connHandle
 104              		.cfi_endproc
 105              	.LFE63:
 106              		.size	BleSend, .-BleSend
 107              		.section	.text.BleRecv,"ax",%progbits
 108              		.align	1
 109              		.global	BleRecv
 110              		.code	16
 111              		.thumb_func
 112              		.type	BleRecv, %function
ARM GAS  C:\Users\Administrator\AppData\Local\Temp\ccdqdZXg.s 			page 4


 113              	BleRecv:
 114              	.LFB64:
  56:Code\Device\BLE/Bluetooth.c **** 
  57:Code\Device\BLE/Bluetooth.c **** //*************************************************************************************************
  58:Code\Device\BLE/Bluetooth.c **** // Function name	: BleRecv
  59:Code\Device\BLE/Bluetooth.c **** // Description		: 蓝牙分组接收APP传来数据并组合成完整命令包
  60:Code\Device\BLE/Bluetooth.c **** // Parameter		: uint8  *cmd	APP传来的数据存放于该数组
  61:Code\Device\BLE/Bluetooth.c **** //					: uint16 len	长度
  62:Code\Device\BLE/Bluetooth.c **** // Return			: always TRUE
  63:Code\Device\BLE/Bluetooth.c **** //-------------------------------------------------------------------------------------------------
  64:Code\Device\BLE/Bluetooth.c **** // Info				: 
  65:Code\Device\BLE/Bluetooth.c **** //*************************************************************************************************
  66:Code\Device\BLE/Bluetooth.c **** uint8 BleRecv(uint8 *cmd, uint16 len)
  67:Code\Device\BLE/Bluetooth.c **** {
 115              		.loc 1 67 0
 116              		.cfi_startproc
 117              	.LVL12:
 118 0000 F8B5     		push	{r3, r4, r5, r6, r7, lr}
 119              		.cfi_def_cfa_offset 24
 120              		.cfi_offset 3, -24
 121              		.cfi_offset 4, -20
 122              		.cfi_offset 5, -16
 123              		.cfi_offset 6, -12
 124              		.cfi_offset 7, -8
 125              		.cfi_offset 14, -4
  68:Code\Device\BLE/Bluetooth.c **** 	DBG_PRINTF("%s\n", __FUNCTION__);
  69:Code\Device\BLE/Bluetooth.c **** 	
  70:Code\Device\BLE/Bluetooth.c **** 	if (CurrentDataNum == 0)
 126              		.loc 1 70 0
 127 0002 194D     		ldr	r5, .L17
  67:Code\Device\BLE/Bluetooth.c **** 	DBG_PRINTF("%s\n", __FUNCTION__);
 128              		.loc 1 67 0
 129 0004 061C     		mov	r6, r0
 130              		.loc 1 70 0
 131 0006 2F78     		ldrb	r7, [r5]
  67:Code\Device\BLE/Bluetooth.c **** 	DBG_PRINTF("%s\n", __FUNCTION__);
 132              		.loc 1 67 0
 133 0008 0C1C     		mov	r4, r1
 134              		.loc 1 70 0
 135 000a 002F     		cmp	r7, #0
 136 000c 1ED1     		bne	.L11
  71:Code\Device\BLE/Bluetooth.c **** 	{
  72:Code\Device\BLE/Bluetooth.c **** 		if ((cmd[0] != HEAD_BYTE1) || (cmd[1] != HEAD_BYTE2))
 137              		.loc 1 72 0
 138 000e 0378     		ldrb	r3, [r0]
 139 0010 EF2B     		cmp	r3, #239
 140 0012 27D1     		bne	.L13
 141              		.loc 1 72 0 is_stmt 0 discriminator 1
 142 0014 4378     		ldrb	r3, [r0, #1]
 143 0016 3A2B     		cmp	r3, #58
 144 0018 24D1     		bne	.L13
  73:Code\Device\BLE/Bluetooth.c **** 		{
  74:Code\Device\BLE/Bluetooth.c **** 			return TRUE;
  75:Code\Device\BLE/Bluetooth.c **** 		}
  76:Code\Device\BLE/Bluetooth.c **** 		else
  77:Code\Device\BLE/Bluetooth.c **** 		{
  78:Code\Device\BLE/Bluetooth.c **** 			memcpy(BleCmdBuf, cmd, len);
ARM GAS  C:\Users\Administrator\AppData\Local\Temp\ccdqdZXg.s 			page 5


 145              		.loc 1 78 0 is_stmt 1
 146 001a 221C     		mov	r2, r4
 147 001c 1348     		ldr	r0, .L17+4
 148              	.LVL13:
 149 001e 311C     		mov	r1, r6
 150              	.LVL14:
 151 0020 FFF7FEFF 		bl	memcpy
 152              	.LVL15:
  79:Code\Device\BLE/Bluetooth.c **** 			CurrentDataNum = len;
  80:Code\Device\BLE/Bluetooth.c **** 			CurrentCommandPktTotalSize = (cmd[2] << 8) + cmd[3] + 4;
 153              		.loc 1 80 0
 154 0024 F378     		ldrb	r3, [r6, #3]
  79:Code\Device\BLE/Bluetooth.c **** 			CurrentDataNum = len;
 155              		.loc 1 79 0
 156 0026 2C70     		strb	r4, [r5]
 157 0028 1A1D     		add	r2, r3, #4
 158              		.loc 1 80 0
 159 002a B378     		ldrb	r3, [r6, #2]
  81:Code\Device\BLE/Bluetooth.c ****             if(CurrentDataNum < CurrentCommandPktTotalSize)
 160              		.loc 1 81 0
 161 002c E4B2     		uxtb	r4, r4
  80:Code\Device\BLE/Bluetooth.c ****             if(CurrentDataNum < CurrentCommandPktTotalSize)
 162              		.loc 1 80 0
 163 002e 1B02     		lsl	r3, r3, #8
 164 0030 D318     		add	r3, r2, r3
 165 0032 0F4A     		ldr	r2, .L17+8
 166 0034 9BB2     		uxth	r3, r3
 167 0036 1380     		strh	r3, [r2]
 168              	.L16:
 169              		.loc 1 81 0
 170 0038 9C42     		cmp	r4, r3
 171 003a 13D3     		bcc	.L13
  82:Code\Device\BLE/Bluetooth.c ****             {
  83:Code\Device\BLE/Bluetooth.c ****                 return TRUE;
  84:Code\Device\BLE/Bluetooth.c ****             }
  85:Code\Device\BLE/Bluetooth.c ****             else
  86:Code\Device\BLE/Bluetooth.c ****             {
  87:Code\Device\BLE/Bluetooth.c ****                 CurrentDataNum = 0;
 172              		.loc 1 87 0
 173 003c 0023     		mov	r3, #0
  88:Code\Device\BLE/Bluetooth.c ****                 CurrentCommandPktTotalSize = 0;
 174              		.loc 1 88 0
 175 003e 0C4A     		ldr	r2, .L17+8
  87:Code\Device\BLE/Bluetooth.c ****                 CurrentCommandPktTotalSize = 0;
 176              		.loc 1 87 0
 177 0040 2B70     		strb	r3, [r5]
 178              		.loc 1 88 0
 179 0042 1380     		strh	r3, [r2]
  89:Code\Device\BLE/Bluetooth.c ****                 BleCmdValidFlag = 1;
 180              		.loc 1 89 0
 181 0044 0122     		mov	r2, #1
 182 0046 0B4B     		ldr	r3, .L17+12
 183 0048 1A70     		strb	r2, [r3]
  90:Code\Device\BLE/Bluetooth.c ****                 return TRUE;
 184              		.loc 1 90 0
 185 004a 0BE0     		b	.L13
 186              	.LVL16:
ARM GAS  C:\Users\Administrator\AppData\Local\Temp\ccdqdZXg.s 			page 6


 187              	.L11:
  91:Code\Device\BLE/Bluetooth.c ****             }
  92:Code\Device\BLE/Bluetooth.c **** 		}
  93:Code\Device\BLE/Bluetooth.c **** 	}
  94:Code\Device\BLE/Bluetooth.c **** 	else
  95:Code\Device\BLE/Bluetooth.c **** 	{
  96:Code\Device\BLE/Bluetooth.c **** 		memcpy(BleCmdBuf + CurrentDataNum, cmd, len);
 188              		.loc 1 96 0
 189 004c 0748     		ldr	r0, .L17+4
 190              	.LVL17:
 191 004e 221C     		mov	r2, r4
 192 0050 3818     		add	r0, r7, r0
 193 0052 311C     		mov	r1, r6
 194              	.LVL18:
 195 0054 FFF7FEFF 		bl	memcpy
 196              	.LVL19:
  97:Code\Device\BLE/Bluetooth.c **** 		CurrentDataNum += len;
 197              		.loc 1 97 0
 198 0058 3C19     		add	r4, r7, r4
  98:Code\Device\BLE/Bluetooth.c **** 		if (CurrentDataNum < CurrentCommandPktTotalSize)
 199              		.loc 1 98 0
 200 005a 054B     		ldr	r3, .L17+8
  97:Code\Device\BLE/Bluetooth.c **** 		CurrentDataNum += len;
 201              		.loc 1 97 0
 202 005c E4B2     		uxtb	r4, r4
 203 005e 2C70     		strb	r4, [r5]
 204              		.loc 1 98 0
 205 0060 1B88     		ldrh	r3, [r3]
 206 0062 E9E7     		b	.L16
 207              	.L13:
  99:Code\Device\BLE/Bluetooth.c **** 		{
 100:Code\Device\BLE/Bluetooth.c **** 			return TRUE;
 101:Code\Device\BLE/Bluetooth.c **** 		}
 102:Code\Device\BLE/Bluetooth.c **** 		else
 103:Code\Device\BLE/Bluetooth.c **** 		{
 104:Code\Device\BLE/Bluetooth.c **** 			CurrentDataNum = 0;
 105:Code\Device\BLE/Bluetooth.c **** 			CurrentCommandPktTotalSize = 0;
 106:Code\Device\BLE/Bluetooth.c **** 			BleCmdValidFlag = 1;
 107:Code\Device\BLE/Bluetooth.c **** 			return TRUE;
 108:Code\Device\BLE/Bluetooth.c **** 		}
 109:Code\Device\BLE/Bluetooth.c **** 	}
 110:Code\Device\BLE/Bluetooth.c **** }
 208              		.loc 1 110 0
 209 0064 0120     		mov	r0, #1
 210              		@ sp needed
 211              	.LVL20:
 212 0066 F8BD     		pop	{r3, r4, r5, r6, r7, pc}
 213              	.L18:
 214              		.align	2
 215              	.L17:
 216 0068 00000000 		.word	CurrentDataNum
 217 006c 00000000 		.word	BleCmdBuf
 218 0070 00000000 		.word	CurrentCommandPktTotalSize
 219 0074 00000000 		.word	BleCmdValidFlag
 220              		.cfi_endproc
 221              	.LFE64:
 222              		.size	BleRecv, .-BleRecv
ARM GAS  C:\Users\Administrator\AppData\Local\Temp\ccdqdZXg.s 			page 7


 223              		.comm	ADCResultCenter,1,1
 224              		.text
 225              	.Letext0:
 226              		.file 2 "c:\\program files (x86)\\cypress\\psoc creator\\4.0\\psoc creator\\import\\gnu\\arm\\4.9.
 227              		.file 3 "c:\\program files (x86)\\cypress\\psoc creator\\4.0\\psoc creator\\import\\gnu\\arm\\4.9.
 228              		.file 4 "Generated_Source\\PSoC4/cytypes.h"
 229              		.file 5 "./OTAMandatory.h"
 230              		.file 6 ".\\Code\\Device\\FM175XX\\LPCD/lpcd_api.h"
 231              		.file 7 "Code\\Device\\BLE\\Bluetooth.h"