ARM GAS  C:\Users\Administrator\AppData\Local\Temp\cc58sU4R.s 			page 1


   1              		.cpu cortex-m0
   2              		.fpu softvfp
   3              		.eabi_attribute 20, 1
   4              		.eabi_attribute 21, 1
   5              		.eabi_attribute 23, 3
   6              		.eabi_attribute 24, 1
   7              		.eabi_attribute 25, 1
   8              		.eabi_attribute 26, 1
   9              		.eabi_attribute 30, 4
  10              		.eabi_attribute 34, 0
  11              		.eabi_attribute 18, 4
  12              		.code	16
  13              		.file	"card.c"
  14              		.text
  15              	.Ltext0:
  16              		.cfi_sections	.debug_frame
  17              		.section	.text.CardBlock_Wr,"ax",%progbits
  18              		.align	1
  19              		.global	CardBlock_Wr
  20              		.code	16
  21              		.thumb_func
  22              		.type	CardBlock_Wr, %function
  23              	CardBlock_Wr:
  24              	.LFB65:
  25              		.file 1 "Code\\Device\\FM175XX\\card.c"
   1:Code\Device\FM175XX/card.c **** //*************************************************************************************************
   2:Code\Device\FM175XX/card.c **** // File name		: card.c
   3:Code\Device\FM175XX/card.c **** // Description		: 刷卡的相关函数
   4:Code\Device\FM175XX/card.c **** // Author			: Keno
   5:Code\Device\FM175XX/card.c **** // Date				: 2016.8.8
   6:Code\Device\FM175XX/card.c **** // Version			: V02
   7:Code\Device\FM175XX/card.c **** //-------------------------------------------------------------------------------------------------
   8:Code\Device\FM175XX/card.c **** // Info				: 
   9:Code\Device\FM175XX/card.c **** //*************************************************************************************************
  10:Code\Device\FM175XX/card.c **** #include "card.h"
  11:Code\Device\FM175XX/card.c **** #include <stdint.h>
  12:Code\Device\FM175XX/card.c **** #include <string.h>
  13:Code\Device\FM175XX/card.c **** #include "common.h"
  14:Code\Device\FM175XX/card.c **** #include "fm175xx.h"
  15:Code\Device\FM175XX/card.c **** #include "user_data.h"
  16:Code\Device\FM175XX/card.c **** 
  17:Code\Device\FM175XX/card.c **** #include "type_a.h"
  18:Code\Device\FM175XX/card.c **** #include "type_b.h"
  19:Code\Device\FM175XX/card.c **** #include "mifare_card.h"
  20:Code\Device\FM175XX/card.c **** #include "crypt.h"
  21:Code\Device\FM175XX/card.c **** 
  22:Code\Device\FM175XX/card.c **** 
  23:Code\Device\FM175XX/card.c **** //******************************************* 外部函数声明 **********************************
  24:Code\Device\FM175XX/card.c **** extern void ble_heartbeat(void);
  25:Code\Device\FM175XX/card.c **** extern uint32 mem_var;
  26:Code\Device\FM175XX/card.c **** 
  27:Code\Device\FM175XX/card.c **** //*************************************************************************************************
  28:Code\Device\FM175XX/card.c **** // Function name	: detect_nfc_card
  29:Code\Device\FM175XX/card.c **** // Description		: 检测是否有卡
  30:Code\Device\FM175XX/card.c **** // Parameter		: card_id	: 返回卡的UID
  31:Code\Device\FM175XX/card.c **** //					: sz		: UID的长度
  32:Code\Device\FM175XX/card.c **** // Return			: none
ARM GAS  C:\Users\Administrator\AppData\Local\Temp\cc58sU4R.s 			page 2


  33:Code\Device\FM175XX/card.c **** //-------------------------------------------------------------------------------------------------
  34:Code\Device\FM175XX/card.c **** // Info				: 专属读取eja IC卡
  35:Code\Device\FM175XX/card.c **** //*************************************************************************************************
  36:Code\Device\FM175XX/card.c **** #if card_scan 
  37:Code\Device\FM175XX/card.c **** uint8 detect_nfc_card(uint8 *card_id, uint16 sz)
  38:Code\Device\FM175XX/card.c **** {
  39:Code\Device\FM175XX/card.c **** 	if (CardRead(card_id) == 1)
  40:Code\Device\FM175XX/card.c **** 	{
  41:Code\Device\FM175XX/card.c **** 		return RET_OK;
  42:Code\Device\FM175XX/card.c **** 	}
  43:Code\Device\FM175XX/card.c **** 	if(1 == nfc_detect_type_b(card_id, 8))
  44:Code\Device\FM175XX/card.c **** 	{
  45:Code\Device\FM175XX/card.c **** 		return RET_OK;
  46:Code\Device\FM175XX/card.c **** 	}
  47:Code\Device\FM175XX/card.c **** 	return RET_ERR;
  48:Code\Device\FM175XX/card.c **** }
  49:Code\Device\FM175XX/card.c **** #else	//备份
  50:Code\Device\FM175XX/card.c **** uint8 detect_nfc_card(uint8 *card_id, uint16 sz)
  51:Code\Device\FM175XX/card.c **** {
  52:Code\Device\FM175XX/card.c **** 	if (nfc_detect_type_a(card_id, sz) != 0)
  53:Code\Device\FM175XX/card.c **** 	{
  54:Code\Device\FM175XX/card.c **** 		return RET_OK;
  55:Code\Device\FM175XX/card.c **** 	}
  56:Code\Device\FM175XX/card.c **** 	if (nfc_detect_type_b(card_id, sz) != 0)
  57:Code\Device\FM175XX/card.c **** 	{
  58:Code\Device\FM175XX/card.c **** 		return RET_OK;
  59:Code\Device\FM175XX/card.c **** 	}
  60:Code\Device\FM175XX/card.c **** 	return RET_ERR;
  61:Code\Device\FM175XX/card.c **** }
  62:Code\Device\FM175XX/card.c **** #endif
  63:Code\Device\FM175XX/card.c **** 
  64:Code\Device\FM175XX/card.c **** 
  65:Code\Device\FM175XX/card.c **** //*************************************************************************************************
  66:Code\Device\FM175XX/card.c **** // Function name	: detect_nfc_card_continus
  67:Code\Device\FM175XX/card.c **** // Description		: 循环打开40次
  68:Code\Device\FM175XX/card.c **** // Parameter		: card_id	: 返回卡的UID
  69:Code\Device\FM175XX/card.c **** //					: sz		: UID的长度
  70:Code\Device\FM175XX/card.c **** // Return			: none
  71:Code\Device\FM175XX/card.c **** //-------------------------------------------------------------------------------------------------
  72:Code\Device\FM175XX/card.c **** // Info				: 
  73:Code\Device\FM175XX/card.c **** //*************************************************************************************************
  74:Code\Device\FM175XX/card.c **** uint8 detect_nfc_card_continus(uint8 *card_id, uint16 sz)
  75:Code\Device\FM175XX/card.c **** {
  76:Code\Device\FM175XX/card.c **** 	uint32 loop = 0;
  77:Code\Device\FM175XX/card.c **** 	for (loop = 0; loop < 40; loop++)
  78:Code\Device\FM175XX/card.c **** 	{
  79:Code\Device\FM175XX/card.c **** 		if (detect_nfc_card(card_id, sz) == RET_OK)
  80:Code\Device\FM175XX/card.c **** 		{
  81:Code\Device\FM175XX/card.c **** 			DBG_PRINTF("detect_nfc_card_continus--->uuid:\n");
  82:Code\Device\FM175XX/card.c **** 			DBG_SOFT_PrintfHex(card_id, 8,16);
  83:Code\Device\FM175XX/card.c **** 			return RET_OK;
  84:Code\Device\FM175XX/card.c **** 		}
  85:Code\Device\FM175XX/card.c **** 		ble_heartbeat();
  86:Code\Device\FM175XX/card.c **** 	}
  87:Code\Device\FM175XX/card.c **** 	return RET_ERR;
  88:Code\Device\FM175XX/card.c **** }
  89:Code\Device\FM175XX/card.c **** 
ARM GAS  C:\Users\Administrator\AppData\Local\Temp\cc58sU4R.s 			page 3


  90:Code\Device\FM175XX/card.c **** 
  91:Code\Device\FM175XX/card.c **** #if 0
  92:Code\Device\FM175XX/card.c **** //*************************************************************************************************
  93:Code\Device\FM175XX/card.c **** // Function name	: detect_nfc_card_a
  94:Code\Device\FM175XX/card.c **** // Description		: 检测是否有A卡
  95:Code\Device\FM175XX/card.c **** // Parameter		: card_id	: 返回卡的UID
  96:Code\Device\FM175XX/card.c **** //					: sz		: UID的长度
  97:Code\Device\FM175XX/card.c **** // Return			: none
  98:Code\Device\FM175XX/card.c **** //-------------------------------------------------------------------------------------------------
  99:Code\Device\FM175XX/card.c **** // Info				: 
 100:Code\Device\FM175XX/card.c **** //*************************************************************************************************
 101:Code\Device\FM175XX/card.c **** uint8 Read_nfc_cardbyone_a(uint8 *card_id)
 102:Code\Device\FM175XX/card.c **** {
 103:Code\Device\FM175XX/card.c **** 	uint8 card_id_a[CARD_UID_LEN] = {0};
 104:Code\Device\FM175XX/card.c **** 	//一次读取
 105:Code\Device\FM175XX/card.c **** 	if ((nfc_detect_type_a((uint8 *)card_id_a, CARD_UID_LEN)) != 0)
 106:Code\Device\FM175XX/card.c **** 	{
 107:Code\Device\FM175XX/card.c **** 	// 滤除不准确的卡ID
 108:Code\Device\FM175XX/card.c **** 		if((card_id_a[0] == 0) && (card_id_a[1] == 0) &&(card_id_a[2] == 0) && (card_id_a[3] == 0))
 109:Code\Device\FM175XX/card.c **** 	{
 110:Code\Device\FM175XX/card.c **** 		return RET_ERR;
 111:Code\Device\FM175XX/card.c **** 	}
 112:Code\Device\FM175XX/card.c **** 		memcpy(card_id,card_id_a,CARD_UID_LEN);
 113:Code\Device\FM175XX/card.c **** 	return RET_OK;
 114:Code\Device\FM175XX/card.c **** 	}
 115:Code\Device\FM175XX/card.c **** }
 116:Code\Device\FM175XX/card.c **** 
 117:Code\Device\FM175XX/card.c **** //*************************************************************************************************
 118:Code\Device\FM175XX/card.c **** // Function name	: detect_nfc_card_a
 119:Code\Device\FM175XX/card.c **** // Description		: 检测是否有B卡--身份证
 120:Code\Device\FM175XX/card.c **** // Parameter		: card_id	: 返回卡的UID
 121:Code\Device\FM175XX/card.c **** //					: sz		: UID的长度
 122:Code\Device\FM175XX/card.c **** // Return			: none
 123:Code\Device\FM175XX/card.c **** //-------------------------------------------------------------------------------------------------
 124:Code\Device\FM175XX/card.c **** // Info				: 
 125:Code\Device\FM175XX/card.c **** //*************************************************************************************************
 126:Code\Device\FM175XX/card.c **** uint8 Read_nfc_cardbyone_b(uint8 *card_id)
 127:Code\Device\FM175XX/card.c **** {
 128:Code\Device\FM175XX/card.c **** 
 129:Code\Device\FM175XX/card.c **** 	//一次读取
 130:Code\Device\FM175XX/card.c **** 	if ((nfc_detect_type_b((uint8 *)card_id, CARD_UID_LEN)) != 0)
 131:Code\Device\FM175XX/card.c **** 	{
 132:Code\Device\FM175XX/card.c **** 		// 滤除不准确的卡ID
 133:Code\Device\FM175XX/card.c **** 		if((card_id[0] == 0) && (card_id[1] == 0) &&(card_id[2] == 0) && (card_id[3] == 0))
 134:Code\Device\FM175XX/card.c **** 		{
 135:Code\Device\FM175XX/card.c **** 			return RET_ERR;
 136:Code\Device\FM175XX/card.c **** 		}
 137:Code\Device\FM175XX/card.c **** 		#if 1
 138:Code\Device\FM175XX/card.c **** 		// 滤除不准确的卡ID
 139:Code\Device\FM175XX/card.c **** 		if((card_id[4] == 0) && (card_id[5] == 0) &&(card_id[6] == 0) && (card_id[7] == 0))
 140:Code\Device\FM175XX/card.c **** 		{
 141:Code\Device\FM175XX/card.c **** 			return RET_ERR;
 142:Code\Device\FM175XX/card.c **** 		}
 143:Code\Device\FM175XX/card.c **** 		#endif
 144:Code\Device\FM175XX/card.c **** 		return RET_OK;
 145:Code\Device\FM175XX/card.c **** 	}
 146:Code\Device\FM175XX/card.c **** }
ARM GAS  C:\Users\Administrator\AppData\Local\Temp\cc58sU4R.s 			page 4


 147:Code\Device\FM175XX/card.c **** #endif
 148:Code\Device\FM175XX/card.c **** 
 149:Code\Device\FM175XX/card.c **** #if 0
 150:Code\Device\FM175XX/card.c **** //*************************************************************************************************
 151:Code\Device\FM175XX/card.c **** // Function name	: Read_nfc_card2
 152:Code\Device\FM175XX/card.c **** // Description		: 检测是否有卡
 153:Code\Device\FM175XX/card.c **** // Parameter		: card_id	: 返回卡的UID
 154:Code\Device\FM175XX/card.c **** //					: sz		: UID的长度
 155:Code\Device\FM175XX/card.c **** // Return			: none
 156:Code\Device\FM175XX/card.c **** //-------------------------------------------------------------------------------------------------
 157:Code\Device\FM175XX/card.c **** // Info				: a卡天线读取两遍，b卡天线读两遍
 158:Code\Device\FM175XX/card.c **** //*************************************************************************************************
 159:Code\Device\FM175XX/card.c **** uint8 Read_nfc_card2(uint8 *card_id)
 160:Code\Device\FM175XX/card.c **** {
 161:Code\Device\FM175XX/card.c **** 	uint8 card_id0[8] = {0};
 162:Code\Device\FM175XX/card.c **** 	uint8 card_id1[8] = {0};
 163:Code\Device\FM175XX/card.c **** 	
 164:Code\Device\FM175XX/card.c **** 	uint8 card_id2[8] = {0};
 165:Code\Device\FM175XX/card.c **** 	uint8 card_id3[8] = {0};
 166:Code\Device\FM175XX/card.c **** 	
 167:Code\Device\FM175XX/card.c **** 	// 读取a卡
 168:Code\Device\FM175XX/card.c **** 	if(RET_OK == Read_nfc_cardbyone_a(card_id0))
 169:Code\Device\FM175XX/card.c **** 	{
 170:Code\Device\FM175XX/card.c **** 		if(RET_OK == Read_nfc_cardbyone_a(card_id1))
 171:Code\Device\FM175XX/card.c **** 		{
 172:Code\Device\FM175XX/card.c **** 			//只是读出三个不含4个0的数据
 173:Code\Device\FM175XX/card.c **** 			if(0 == memcmp(card_id0, card_id1,8))
 174:Code\Device\FM175XX/card.c **** 			{
 175:Code\Device\FM175XX/card.c **** 				{
 176:Code\Device\FM175XX/card.c **** 					memcpy(card_id,card_id0,8);
 177:Code\Device\FM175XX/card.c **** 					return RET_OK;
 178:Code\Device\FM175XX/card.c **** 				}
 179:Code\Device\FM175XX/card.c **** 			}
 180:Code\Device\FM175XX/card.c **** 			else
 181:Code\Device\FM175XX/card.c **** 			{	//不一样 丢弃
 182:Code\Device\FM175XX/card.c **** 				return RET_ERR;
 183:Code\Device\FM175XX/card.c **** 			}
 184:Code\Device\FM175XX/card.c **** 		}
 185:Code\Device\FM175XX/card.c **** 	}	
 186:Code\Device\FM175XX/card.c **** 	
 187:Code\Device\FM175XX/card.c **** 	//读取b卡
 188:Code\Device\FM175XX/card.c **** 	if(RET_OK == Read_nfc_cardbyone_b(card_id2))
 189:Code\Device\FM175XX/card.c **** 	{
 190:Code\Device\FM175XX/card.c **** 		if(RET_OK == Read_nfc_cardbyone_b(card_id3))
 191:Code\Device\FM175XX/card.c **** 		{
 192:Code\Device\FM175XX/card.c **** 			//只是读出三个不含4个0的数据
 193:Code\Device\FM175XX/card.c **** 			if(0 == memcmp(card_id2, card_id3,8))
 194:Code\Device\FM175XX/card.c **** 			{
 195:Code\Device\FM175XX/card.c **** 				{
 196:Code\Device\FM175XX/card.c **** 					memcpy(card_id,card_id2,8);
 197:Code\Device\FM175XX/card.c **** 					return RET_OK;
 198:Code\Device\FM175XX/card.c **** 				}
 199:Code\Device\FM175XX/card.c **** 			}
 200:Code\Device\FM175XX/card.c **** 			else
 201:Code\Device\FM175XX/card.c **** 			{	//不一样 丢弃
 202:Code\Device\FM175XX/card.c **** 				return RET_ERR;
 203:Code\Device\FM175XX/card.c **** 			}
ARM GAS  C:\Users\Administrator\AppData\Local\Temp\cc58sU4R.s 			page 5


 204:Code\Device\FM175XX/card.c **** 		}
 205:Code\Device\FM175XX/card.c **** 	}	
 206:Code\Device\FM175XX/card.c **** 	return RET_ERR;		
 207:Code\Device\FM175XX/card.c **** }
 208:Code\Device\FM175XX/card.c **** 
 209:Code\Device\FM175XX/card.c **** 
 210:Code\Device\FM175XX/card.c **** int CardScan_b(uint8 card_id[])
 211:Code\Device\FM175XX/card.c **** {
 212:Code\Device\FM175XX/card.c **** 	uint8_t statues;
 213:Code\Device\FM175XX/card.c ****     uint32_t rec_len;
 214:Code\Device\FM175XX/card.c ****     uint8_t cardFlag = 0;
 215:Code\Device\FM175XX/card.c ****     uint8_t pupi[4];
 216:Code\Device\FM175XX/card.c ****     uint8_t buff[12];
 217:Code\Device\FM175XX/card.c **** 	
 218:Code\Device\FM175XX/card.c **** 	statues = TypeB_WUP(&rec_len,buff,pupi);                            /* 寻卡                     
 219:Code\Device\FM175XX/card.c ****     if ( statues == TRUE )
 220:Code\Device\FM175XX/card.c ****     {
 221:Code\Device\FM175XX/card.c ****         statues = TypeB_Select(pupi,&rec_len,buff);
 222:Code\Device\FM175XX/card.c ****     }
 223:Code\Device\FM175XX/card.c **** 	
 224:Code\Device\FM175XX/card.c ****     if ( statues == TRUE )
 225:Code\Device\FM175XX/card.c ****     {
 226:Code\Device\FM175XX/card.c ****         cardFlag = 1;
 227:Code\Device\FM175XX/card.c ****         statues = TypeB_GetUID(&rec_len,&buff[0]);
 228:Code\Device\FM175XX/card.c ****         if(statues == TRUE)
 229:Code\Device\FM175XX/card.c ****         {
 230:Code\Device\FM175XX/card.c ****             memcpy(card_id, buff, 8);
 231:Code\Device\FM175XX/card.c ****         }
 232:Code\Device\FM175XX/card.c ****     }	
 233:Code\Device\FM175XX/card.c **** 	return cardFlag;
 234:Code\Device\FM175XX/card.c **** }
 235:Code\Device\FM175XX/card.c **** #endif
 236:Code\Device\FM175XX/card.c **** 
 237:Code\Device\FM175XX/card.c **** //=================================================================================================
 238:Code\Device\FM175XX/card.c **** 
 239:Code\Device\FM175XX/card.c **** //*************************************************************************************************
 240:Code\Device\FM175XX/card.c **** // Function name	: CardBlock_Wr
 241:Code\Device\FM175XX/card.c **** // Description		: 写入卡指定扇区的数据
 242:Code\Device\FM175XX/card.c **** // Parameter		: block_addr	: 卡的扇区号
 243:Code\Device\FM175XX/card.c **** // 					: pdata			: 数据
 244:Code\Device\FM175XX/card.c **** // Return			: none
 245:Code\Device\FM175XX/card.c **** //-------------------------------------------------------------------------------------------------
 246:Code\Device\FM175XX/card.c **** // Info				: 
 247:Code\Device\FM175XX/card.c **** //*************************************************************************************************
 248:Code\Device\FM175XX/card.c **** void CardBlock_Wr(uint8 block_addr, uint8 *pdata)
 249:Code\Device\FM175XX/card.c **** {
  26              		.loc 1 249 0
  27              		.cfi_startproc
  28              	.LVL0:
  29 0000 70B5     		push	{r4, r5, r6, lr}
  30              		.cfi_def_cfa_offset 16
  31              		.cfi_offset 4, -16
  32              		.cfi_offset 5, -12
  33              		.cfi_offset 6, -8
  34              		.cfi_offset 14, -4
  35 0002 041C     		mov	r4, r0
  36 0004 86B0     		sub	sp, sp, #24
ARM GAS  C:\Users\Administrator\AppData\Local\Temp\cc58sU4R.s 			page 6


  37              		.cfi_def_cfa_offset 40
 250:Code\Device\FM175XX/card.c **** 	uint8 statues;
 251:Code\Device\FM175XX/card.c **** 	uint8 blockAddr;
 252:Code\Device\FM175XX/card.c **** 	uint8 key[6]= {0xff,0xff,0xfe,0xef,0xfa,0xaf};   
  38              		.loc 1 252 0
  39 0006 0622     		mov	r2, #6
 249:Code\Device\FM175XX/card.c **** 	uint8 statues;
  40              		.loc 1 249 0
  41 0008 0E1C     		mov	r6, r1
  42              		.loc 1 252 0
  43 000a 6846     		mov	r0, sp
  44              	.LVL1:
  45 000c 1149     		ldr	r1, .L7
  46              	.LVL2:
  47 000e FFF7FEFF 		bl	memcpy
  48              	.LVL3:
 253:Code\Device\FM175XX/card.c **** 	uint8 blockData[16];
 254:Code\Device\FM175XX/card.c **** 	uint8 i;
 255:Code\Device\FM175XX/card.c **** 	
 256:Code\Device\FM175XX/card.c **** 	#if 0
 257:Code\Device\FM175XX/card.c **** 	FM175X_SoftReset( );
 258:Code\Device\FM175XX/card.c **** 	Set_Rf( 3 );                                                /* 打开双天线                  */
 259:Code\Device\FM175XX/card.c **** 	Pcd_ConfigISOType( 0 );                                     /* ISO14443寄存器初始化        *
 260:Code\Device\FM175XX/card.c **** 	statues = TypeA_CardActive( picc_atqa,picc_uid,picc_sak );  /* 激活A卡片                   */
 261:Code\Device\FM175XX/card.c **** 	if ( statues == TRUE ) 
 262:Code\Device\FM175XX/card.c **** 	{
 263:Code\Device\FM175XX/card.c **** 		DBG_SOFT_PutStr("\nCardUID:");
 264:Code\Device\FM175XX/card.c **** 		DBG_SOFT_PrintfHex(picc_uid,8,16);
 265:Code\Device\FM175XX/card.c **** 
 266:Code\Device\FM175XX/card.c **** 	}
 267:Code\Device\FM175XX/card.c **** 	else 
 268:Code\Device\FM175XX/card.c **** 	{
 269:Code\Device\FM175XX/card.c **** 		//DBG_SOFT_PutStr("No Card!\r\n");
 270:Code\Device\FM175XX/card.c **** 		TypeA_Halt( 0 );  	 					 				/* 卡片睡眠 					*/
 271:Code\Device\FM175XX/card.c **** 		return;
 272:Code\Device\FM175XX/card.c **** 	}
 273:Code\Device\FM175XX/card.c **** 	#endif
 274:Code\Device\FM175XX/card.c **** 	
 275:Code\Device\FM175XX/card.c **** 	// 先读0区块
 276:Code\Device\FM175XX/card.c **** 	blockAddr = block_addr;
 277:Code\Device\FM175XX/card.c **** 	statues = Mifare_Auth(0x00,blockAddr>>2,key,picc_uid);      /* 密钥认证                    */
  49              		.loc 1 277 0
  50 0012 A108     		lsr	r1, r4, #2
  51 0014 0020     		mov	r0, #0
  52 0016 6A46     		mov	r2, sp
  53 0018 0F4B     		ldr	r3, .L7+4
  54 001a FFF7FEFF 		bl	Mifare_Auth
  55              	.LVL4:
 278:Code\Device\FM175XX/card.c **** 	if(statues  == TRUE)
  56              		.loc 1 278 0
  57 001e 0128     		cmp	r0, #1
  58 0020 03D0     		beq	.L2
  59              	.L4:
 279:Code\Device\FM175XX/card.c **** 	{
 280:Code\Device\FM175XX/card.c **** 		DBG_SOFT_PutStr("Auth OK!\r\n");
 281:Code\Device\FM175XX/card.c **** 	}
 282:Code\Device\FM175XX/card.c **** 	else
ARM GAS  C:\Users\Administrator\AppData\Local\Temp\cc58sU4R.s 			page 7


 283:Code\Device\FM175XX/card.c **** 	{
 284:Code\Device\FM175XX/card.c **** 		TypeA_Halt( 0 );  	 					 				/* 卡片睡眠 					*/
  60              		.loc 1 284 0
  61 0022 0020     		mov	r0, #0
  62              	.LVL5:
  63 0024 FFF7FEFF 		bl	TypeA_Halt
  64              	.LVL6:
  65 0028 11E0     		b	.L1
  66              	.LVL7:
  67              	.L2:
 285:Code\Device\FM175XX/card.c **** 		DBG_SOFT_PutStr("Auth Err!\r\n");
 286:Code\Device\FM175XX/card.c **** 		return ;
 287:Code\Device\FM175XX/card.c **** 	}	
 288:Code\Device\FM175XX/card.c **** 	statues = Mifare_Blockread(blockAddr,blockData);            /* 第一步 读块         		   */
  68              		.loc 1 288 0
  69 002a 02AD     		add	r5, sp, #8
  70 002c 201C     		mov	r0, r4
  71              	.LVL8:
  72 002e 291C     		mov	r1, r5
  73 0030 FFF7FEFF 		bl	Mifare_Blockread
  74              	.LVL9:
 289:Code\Device\FM175XX/card.c **** 	if(statues  == TRUE)
  75              		.loc 1 289 0
  76 0034 0128     		cmp	r0, #1
  77 0036 F4D1     		bne	.L4
  78 0038 0023     		mov	r3, #0
  79              	.L5:
  80              	.LVL10:
  81 003a EB54     		strb	r3, [r5, r3]
  82              	.LVL11:
  83 003c 0133     		add	r3, r3, #1
  84              	.LVL12:
 290:Code\Device\FM175XX/card.c **** 	{
 291:Code\Device\FM175XX/card.c **** 		DBG_SOFT_PutStr("Read OK!\r\n");
 292:Code\Device\FM175XX/card.c **** 		DBG_SOFT_PrintfHex(blockData,16,16);
 293:Code\Device\FM175XX/card.c **** 	}
 294:Code\Device\FM175XX/card.c **** 	else
 295:Code\Device\FM175XX/card.c **** 	{
 296:Code\Device\FM175XX/card.c **** 		TypeA_Halt( 0 );  	 					 				/* 卡片睡眠 					*/
 297:Code\Device\FM175XX/card.c **** 		DBG_SOFT_PutStr("Read Err!\r\n");
 298:Code\Device\FM175XX/card.c **** 		return ;
 299:Code\Device\FM175XX/card.c **** 	}
 300:Code\Device\FM175XX/card.c **** 	for(i = 0; i < 16; i++)
  85              		.loc 1 300 0 discriminator 3
  86 003e 102B     		cmp	r3, #16
  87 0040 FBD1     		bne	.L5
 301:Code\Device\FM175XX/card.c **** 	{
 302:Code\Device\FM175XX/card.c **** 		blockData[i] = i;
 303:Code\Device\FM175XX/card.c **** 	}
 304:Code\Device\FM175XX/card.c **** 	
 305:Code\Device\FM175XX/card.c **** 	#if 1
 306:Code\Device\FM175XX/card.c **** 	// blockAddr = 0x01;
 307:Code\Device\FM175XX/card.c **** 	statues = Mifare_Blockwrite(blockAddr,pdata);				/* 第二步 写块	 			  */
  88              		.loc 1 307 0
  89 0042 201C     		mov	r0, r4
  90              	.LVL13:
  91 0044 311C     		mov	r1, r6
ARM GAS  C:\Users\Administrator\AppData\Local\Temp\cc58sU4R.s 			page 8


  92 0046 FFF7FEFF 		bl	Mifare_Blockwrite
  93              	.LVL14:
 308:Code\Device\FM175XX/card.c **** 	if(statues  == TRUE)
  94              		.loc 1 308 0
  95 004a 0128     		cmp	r0, #1
  96 004c E9D1     		bne	.L4
  97              	.LVL15:
  98              	.L1:
 309:Code\Device\FM175XX/card.c **** 	{
 310:Code\Device\FM175XX/card.c **** 		DBG_SOFT_PutStr("Write OK!\r\n");
 311:Code\Device\FM175XX/card.c **** 	}
 312:Code\Device\FM175XX/card.c **** 	else
 313:Code\Device\FM175XX/card.c **** 	{
 314:Code\Device\FM175XX/card.c **** 		TypeA_Halt( 0 );  	 					 				/* 卡片睡眠 					*/
 315:Code\Device\FM175XX/card.c **** 		DBG_SOFT_PutStr("Write Err!\r\n");
 316:Code\Device\FM175XX/card.c **** 		return ;
 317:Code\Device\FM175XX/card.c **** 	}
 318:Code\Device\FM175XX/card.c **** 	#endif
 319:Code\Device\FM175XX/card.c **** 	
 320:Code\Device\FM175XX/card.c **** 	#if 0
 321:Code\Device\FM175XX/card.c **** 	// 写完后 再读出来
 322:Code\Device\FM175XX/card.c **** 	statues = Mifare_Blockread(blockAddr,blockData);            /* 第三步 读块      		  */
 323:Code\Device\FM175XX/card.c **** 	TypeA_Halt( 0 );  	 					 					/* 卡片睡眠 					*/
 324:Code\Device\FM175XX/card.c **** 	if(statues  == TRUE)
 325:Code\Device\FM175XX/card.c **** 	{
 326:Code\Device\FM175XX/card.c **** 		DBG_SOFT_PutStr("Read OK!\r\n");
 327:Code\Device\FM175XX/card.c **** 		DBG_SOFT_PrintfHex(blockData,16,16);
 328:Code\Device\FM175XX/card.c **** 	}
 329:Code\Device\FM175XX/card.c **** 	else
 330:Code\Device\FM175XX/card.c **** 	{
 331:Code\Device\FM175XX/card.c **** 		DBG_SOFT_PutStr("Read Err!\r\n");
 332:Code\Device\FM175XX/card.c **** 		return ;
 333:Code\Device\FM175XX/card.c **** 	}
 334:Code\Device\FM175XX/card.c **** 	#endif
 335:Code\Device\FM175XX/card.c **** }
  99              		.loc 1 335 0
 100 004e 06B0     		add	sp, sp, #24
 101              		@ sp needed
 102              	.LVL16:
 103              	.LVL17:
 104 0050 70BD     		pop	{r4, r5, r6, pc}
 105              	.L8:
 106 0052 C046     		.align	2
 107              	.L7:
 108 0054 00000000 		.word	.LANCHOR0
 109 0058 00000000 		.word	picc_uid
 110              		.cfi_endproc
 111              	.LFE65:
 112              		.size	CardBlock_Wr, .-CardBlock_Wr
 113              		.section	.text.CardBlock_Rd,"ax",%progbits
 114              		.align	1
 115              		.global	CardBlock_Rd
 116              		.code	16
 117              		.thumb_func
 118              		.type	CardBlock_Rd, %function
 119              	CardBlock_Rd:
 120              	.LFB66:
ARM GAS  C:\Users\Administrator\AppData\Local\Temp\cc58sU4R.s 			page 9


 336:Code\Device\FM175XX/card.c **** 
 337:Code\Device\FM175XX/card.c **** 
 338:Code\Device\FM175XX/card.c **** //*************************************************************************************************
 339:Code\Device\FM175XX/card.c **** // Function name	: CardBlock_Rd
 340:Code\Device\FM175XX/card.c **** // Description		: 读出卡指定扇区的数据
 341:Code\Device\FM175XX/card.c **** // Parameter		: block_addr	: 卡的扇区号
 342:Code\Device\FM175XX/card.c **** // 					: pdata			: 数据
 343:Code\Device\FM175XX/card.c **** // Return			: none
 344:Code\Device\FM175XX/card.c **** //-------------------------------------------------------------------------------------------------
 345:Code\Device\FM175XX/card.c **** // Info				: 
 346:Code\Device\FM175XX/card.c **** //*************************************************************************************************
 347:Code\Device\FM175XX/card.c **** int CardBlock_Rd(uint8 block_addr, uint8 *pdata)
 348:Code\Device\FM175XX/card.c **** {
 121              		.loc 1 348 0
 122              		.cfi_startproc
 123              	.LVL18:
 124 0000 30B5     		push	{r4, r5, lr}
 125              		.cfi_def_cfa_offset 12
 126              		.cfi_offset 4, -12
 127              		.cfi_offset 5, -8
 128              		.cfi_offset 14, -4
 129 0002 041C     		mov	r4, r0
 130 0004 87B0     		sub	sp, sp, #28
 131              		.cfi_def_cfa_offset 40
 349:Code\Device\FM175XX/card.c **** 	uint8 statues;
 350:Code\Device\FM175XX/card.c **** 	uint8 blockAddr;
 351:Code\Device\FM175XX/card.c **** 	uint8 key[6]= {0xff,0xff,0xfe,0xef,0xfa,0xaf};   
 132              		.loc 1 351 0
 133 0006 0622     		mov	r2, #6
 348:Code\Device\FM175XX/card.c **** 	uint8 statues;
 134              		.loc 1 348 0
 135 0008 0D1C     		mov	r5, r1
 136              		.loc 1 351 0
 137 000a 6846     		mov	r0, sp
 138              	.LVL19:
 139 000c 0F49     		ldr	r1, .L14
 140              	.LVL20:
 141 000e FFF7FEFF 		bl	memcpy
 142              	.LVL21:
 352:Code\Device\FM175XX/card.c **** 	uint8 blockData[16];
 353:Code\Device\FM175XX/card.c **** 
 354:Code\Device\FM175XX/card.c **** 	
 355:Code\Device\FM175XX/card.c **** #if 0	
 356:Code\Device\FM175XX/card.c **** 	Set_Rf( 3 );                                                /* 打开双天线                  */
 357:Code\Device\FM175XX/card.c **** 	Pcd_ConfigISOType( 0 );                                     /* ISO14443寄存器初始化        *
 358:Code\Device\FM175XX/card.c **** 	statues = TypeA_CardActive( picc_atqa,picc_uid,picc_sak );  /* 激活A卡片                   */
 359:Code\Device\FM175XX/card.c **** 	if ( statues == TRUE ) 
 360:Code\Device\FM175XX/card.c **** 	{
 361:Code\Device\FM175XX/card.c **** 		DBG_SOFT_PutStr("\nCardBlock_Rd CardUID:");
 362:Code\Device\FM175XX/card.c **** 		DBG_SOFT_PrintfHex(picc_uid,8,16);
 363:Code\Device\FM175XX/card.c **** 
 364:Code\Device\FM175XX/card.c **** 	}
 365:Code\Device\FM175XX/card.c **** 	else 
 366:Code\Device\FM175XX/card.c **** 	{
 367:Code\Device\FM175XX/card.c **** 		//DBG_SOFT_PutStr("No Card!\r\n");
 368:Code\Device\FM175XX/card.c **** 		TypeA_Halt( 0 );  	 					 				/* 卡片睡眠 					*/
 369:Code\Device\FM175XX/card.c **** 		return 0;
ARM GAS  C:\Users\Administrator\AppData\Local\Temp\cc58sU4R.s 			page 10


 370:Code\Device\FM175XX/card.c **** 	}
 371:Code\Device\FM175XX/card.c **** #endif	
 372:Code\Device\FM175XX/card.c **** 
 373:Code\Device\FM175XX/card.c **** 	blockAddr = block_addr; 
 374:Code\Device\FM175XX/card.c **** 	statues = Mifare_Auth(0x00,blockAddr>>2,key,picc_uid);      /* 密钥认证                    */
 143              		.loc 1 374 0
 144 0012 A108     		lsr	r1, r4, #2
 145 0014 0020     		mov	r0, #0
 146 0016 6A46     		mov	r2, sp
 147 0018 0D4B     		ldr	r3, .L14+4
 148 001a FFF7FEFF 		bl	Mifare_Auth
 149              	.LVL22:
 375:Code\Device\FM175XX/card.c **** 	if(statues  == TRUE)
 150              		.loc 1 375 0
 151 001e 0128     		cmp	r0, #1
 152 0020 04D0     		beq	.L10
 376:Code\Device\FM175XX/card.c **** 	{
 377:Code\Device\FM175XX/card.c **** 		//DBG_SOFT_PutStr("Auth OK!\r\n");
 378:Code\Device\FM175XX/card.c **** 	}
 379:Code\Device\FM175XX/card.c **** 	else
 380:Code\Device\FM175XX/card.c **** 	{
 381:Code\Device\FM175XX/card.c **** 		TypeA_Halt( 0 ); 										/* 卡片睡眠 				   */									
 153              		.loc 1 381 0
 154 0022 0020     		mov	r0, #0
 155              	.LVL23:
 156 0024 FFF7FEFF 		bl	TypeA_Halt
 157              	.LVL24:
 382:Code\Device\FM175XX/card.c **** 		DBG_SOFT_PutStr("Auth Err!\r\n");     
 383:Code\Device\FM175XX/card.c **** 		return 0;
 158              		.loc 1 383 0
 159 0028 0020     		mov	r0, #0
 160 002a 0DE0     		b	.L11
 161              	.LVL25:
 162              	.L10:
 163              	.LBB4:
 164              	.LBB5:
 384:Code\Device\FM175XX/card.c **** 	}	
 385:Code\Device\FM175XX/card.c **** 	statues = Mifare_Blockread(blockAddr,blockData);            /* 第一步 读块         		   */
 165              		.loc 1 385 0
 166 002c 201C     		mov	r0, r4
 167              	.LVL26:
 168 002e 02A9     		add	r1, sp, #8
 169 0030 FFF7FEFF 		bl	Mifare_Blockread
 170              	.LVL27:
 171 0034 041C     		mov	r4, r0
 172              	.LVL28:
 386:Code\Device\FM175XX/card.c **** 	//TypeA_Halt( 0 );  											/* 卡片睡眠 				   */
 387:Code\Device\FM175XX/card.c **** 	if(statues  == TRUE)
 388:Code\Device\FM175XX/card.c **** 	{
 389:Code\Device\FM175XX/card.c **** 		memcpy(pdata,blockData,16);
 390:Code\Device\FM175XX/card.c **** 		//DBG_SOFT_PutStr("Read OK!\r\n");
 391:Code\Device\FM175XX/card.c **** 		//DBG_SOFT_PrintfHex(blockData,16,16);
 392:Code\Device\FM175XX/card.c **** 		return 1;
 393:Code\Device\FM175XX/card.c **** 	}
 394:Code\Device\FM175XX/card.c **** 	else
 395:Code\Device\FM175XX/card.c **** 	{
 396:Code\Device\FM175XX/card.c **** 		DBG_SOFT_PutStr("Read Err!\r\n");     
ARM GAS  C:\Users\Administrator\AppData\Local\Temp\cc58sU4R.s 			page 11


 397:Code\Device\FM175XX/card.c **** 		return 0;
 173              		.loc 1 397 0
 174 0036 0020     		mov	r0, #0
 387:Code\Device\FM175XX/card.c **** 	{
 175              		.loc 1 387 0
 176 0038 012C     		cmp	r4, #1
 177 003a 05D1     		bne	.L11
 389:Code\Device\FM175XX/card.c **** 		//DBG_SOFT_PutStr("Read OK!\r\n");
 178              		.loc 1 389 0
 179 003c 281C     		mov	r0, r5
 180 003e 02A9     		add	r1, sp, #8
 181 0040 1022     		mov	r2, #16
 182 0042 FFF7FEFF 		bl	memcpy
 183              	.LVL29:
 392:Code\Device\FM175XX/card.c **** 	}
 184              		.loc 1 392 0
 185 0046 201C     		mov	r0, r4
 186              	.LVL30:
 187              	.L11:
 188              	.LBE5:
 189              	.LBE4:
 398:Code\Device\FM175XX/card.c **** 	}
 399:Code\Device\FM175XX/card.c **** 	
 400:Code\Device\FM175XX/card.c **** }
 190              		.loc 1 400 0
 191 0048 07B0     		add	sp, sp, #28
 192              		@ sp needed
 193              	.LVL31:
 194 004a 30BD     		pop	{r4, r5, pc}
 195              	.L15:
 196              		.align	2
 197              	.L14:
 198 004c 00000000 		.word	.LANCHOR0
 199 0050 00000000 		.word	picc_uid
 200              		.cfi_endproc
 201              	.LFE66:
 202              		.size	CardBlock_Rd, .-CardBlock_Rd
 203              		.section	.text.IsCardLegality,"ax",%progbits
 204              		.align	1
 205              		.global	IsCardLegality
 206              		.code	16
 207              		.thumb_func
 208              		.type	IsCardLegality, %function
 209              	IsCardLegality:
 210              	.LFB67:
 401:Code\Device\FM175XX/card.c **** 
 402:Code\Device\FM175XX/card.c **** //*************************************************************************************************
 403:Code\Device\FM175XX/card.c **** // Function name	: IsCardLegality
 404:Code\Device\FM175XX/card.c **** // Description		: 检测卡 合法性
 405:Code\Device\FM175XX/card.c **** // Parameter		: card_id	: 卡的UID
 406:Code\Device\FM175XX/card.c **** // Return			: 是否成功
 407:Code\Device\FM175XX/card.c **** //-------------------------------------------------------------------------------------------------
 408:Code\Device\FM175XX/card.c **** // Info				: 
 409:Code\Device\FM175XX/card.c **** //*************************************************************************************************
 410:Code\Device\FM175XX/card.c **** int IsCardLegality(uint8 uid[])
 411:Code\Device\FM175XX/card.c **** {
 211              		.loc 1 411 0
ARM GAS  C:\Users\Administrator\AppData\Local\Temp\cc58sU4R.s 			page 12


 212              		.cfi_startproc
 213              	.LVL32:
 214 0000 70B5     		push	{r4, r5, r6, lr}
 215              		.cfi_def_cfa_offset 16
 216              		.cfi_offset 4, -16
 217              		.cfi_offset 5, -12
 218              		.cfi_offset 6, -8
 219              		.cfi_offset 14, -4
 412:Code\Device\FM175XX/card.c **** 	uint8 uid_buf1[16] = {0x00,0x00,0x00,0x00,0x3a,0x3a,0x3a,0x3a,0x3a,0x3a,0x3a,0x3a,0x3a,0x3a,0x3a,0
 220              		.loc 1 412 0
 221 0002 1024     		mov	r4, #16
 222 0004 164D     		ldr	r5, .L17
 411:Code\Device\FM175XX/card.c **** 	uint8 uid_buf1[16] = {0x00,0x00,0x00,0x00,0x3a,0x3a,0x3a,0x3a,0x3a,0x3a,0x3a,0x3a,0x3a,0x3a,0x3a,0
 223              		.loc 1 411 0
 224 0006 8EB0     		sub	sp, sp, #56
 225              		.cfi_def_cfa_offset 72
 411:Code\Device\FM175XX/card.c **** 	uint8 uid_buf1[16] = {0x00,0x00,0x00,0x00,0x3a,0x3a,0x3a,0x3a,0x3a,0x3a,0x3a,0x3a,0x3a,0x3a,0x3a,0
 226              		.loc 1 411 0
 227 0008 061C     		mov	r6, r0
 228              		.loc 1 412 0
 229 000a A91D     		add	r1, r5, #6
 230 000c 221C     		mov	r2, r4
 231 000e 02A8     		add	r0, sp, #8
 232              	.LVL33:
 233 0010 FFF7FEFF 		bl	memcpy
 234              	.LVL34:
 413:Code\Device\FM175XX/card.c **** 	uint8 crypt_buf[16] = {0x6f,0x35,0x4a,0x6c,0x58,0xed,0xbd,0xd8,0x19,0x5f,0xd5,0xb8,0x90,0xaf,0xbf,
 235              		.loc 1 413 0
 236 0014 291C     		mov	r1, r5
 414:Code\Device\FM175XX/card.c **** 	uint8 tmp_buf[16] = {0};
 415:Code\Device\FM175XX/card.c **** 	
 416:Code\Device\FM175XX/card.c **** 	memcpy(uid_buf1, uid, 4);
 237              		.loc 1 416 0
 238 0016 0425     		mov	r5, #4
 413:Code\Device\FM175XX/card.c **** 	uint8 crypt_buf[16] = {0x6f,0x35,0x4a,0x6c,0x58,0xed,0xbd,0xd8,0x19,0x5f,0xd5,0xb8,0x90,0xaf,0xbf,
 239              		.loc 1 413 0
 240 0018 221C     		mov	r2, r4
 241 001a 1631     		add	r1, r1, #22
 242 001c 06A8     		add	r0, sp, #24
 243 001e FFF7FEFF 		bl	memcpy
 244              	.LVL35:
 414:Code\Device\FM175XX/card.c **** 	uint8 tmp_buf[16] = {0};
 245              		.loc 1 414 0
 246 0022 221C     		mov	r2, r4
 247 0024 0AA8     		add	r0, sp, #40
 248 0026 0021     		mov	r1, #0
 249 0028 FFF7FEFF 		bl	memset
 250              	.LVL36:
 251              		.loc 1 416 0
 252 002c 311C     		mov	r1, r6
 253 002e 2A1C     		mov	r2, r5
 254 0030 02A8     		add	r0, sp, #8
 255 0032 FFF7FEFF 		bl	memcpy
 256              	.LVL37:
 417:Code\Device\FM175XX/card.c **** 	do_crypt(crypt_buf, uid_buf1, uid_buf1, 16, 1);
 257              		.loc 1 417 0
 258 0036 0123     		mov	r3, #1
ARM GAS  C:\Users\Administrator\AppData\Local\Temp\cc58sU4R.s 			page 13


 259 0038 02A9     		add	r1, sp, #8
 260 003a 0A1C     		mov	r2, r1
 261 003c 0093     		str	r3, [sp]
 262 003e 06A8     		add	r0, sp, #24
 263 0040 231C     		mov	r3, r4
 264 0042 FFF7FEFF 		bl	do_crypt
 265              	.LVL38:
 418:Code\Device\FM175XX/card.c **** 	//DBG_SOFT_PutStr("IsCardLegality -> crypt_data:\n");
 419:Code\Device\FM175XX/card.c **** 	//DBG_SOFT_PrintfHex(uid_buf1,16,16);
 420:Code\Device\FM175XX/card.c **** 	
 421:Code\Device\FM175XX/card.c **** 	CardBlock_Rd(VALID_BLK, tmp_buf);
 266              		.loc 1 421 0
 267 0046 0AA9     		add	r1, sp, #40
 268 0048 281C     		mov	r0, r5
 269 004a FFF7FEFF 		bl	CardBlock_Rd
 270              	.LVL39:
 422:Code\Device\FM175XX/card.c **** 	
 423:Code\Device\FM175XX/card.c **** 	//DBG_SOFT_PutStr("IsCardLegality -> CardBlock_Rd:\n");
 424:Code\Device\FM175XX/card.c **** 	//DBG_SOFT_PrintfHex(tmp_buf,16,16);
 425:Code\Device\FM175XX/card.c **** 	
 426:Code\Device\FM175XX/card.c **** 	if(0 == memcmp(tmp_buf, uid_buf1,16))
 271              		.loc 1 426 0
 272 004e 0AA8     		add	r0, sp, #40
 273 0050 02A9     		add	r1, sp, #8
 274 0052 221C     		mov	r2, r4
 275 0054 FFF7FEFF 		bl	memcmp
 276              	.LVL40:
 277 0058 4342     		neg	r3, r0
 278 005a 5841     		adc	r0, r0, r3
 427:Code\Device\FM175XX/card.c **** 	{
 428:Code\Device\FM175XX/card.c **** 		//DBG_SOFT_PutStr("memcmp ok!\n");
 429:Code\Device\FM175XX/card.c **** 		return 1;
 430:Code\Device\FM175XX/card.c **** 	}
 431:Code\Device\FM175XX/card.c **** 	else
 432:Code\Device\FM175XX/card.c **** 	{
 433:Code\Device\FM175XX/card.c **** 		//DBG_SOFT_PutStr("memcmp err!\n");
 434:Code\Device\FM175XX/card.c **** 		return 0;
 435:Code\Device\FM175XX/card.c **** 	}
 436:Code\Device\FM175XX/card.c **** 
 437:Code\Device\FM175XX/card.c **** }
 279              		.loc 1 437 0
 280 005c 0EB0     		add	sp, sp, #56
 281              		@ sp needed
 282              	.LVL41:
 283 005e 70BD     		pop	{r4, r5, r6, pc}
 284              	.L18:
 285              		.align	2
 286              	.L17:
 287 0060 00000000 		.word	.LANCHOR0
 288              		.cfi_endproc
 289              	.LFE67:
 290              		.size	IsCardLegality, .-IsCardLegality
 291              		.section	.text.CardInfoUpdate,"ax",%progbits
 292              		.align	1
 293              		.global	CardInfoUpdate
 294              		.code	16
 295              		.thumb_func
ARM GAS  C:\Users\Administrator\AppData\Local\Temp\cc58sU4R.s 			page 14


 296              		.type	CardInfoUpdate, %function
 297              	CardInfoUpdate:
 298              	.LFB68:
 438:Code\Device\FM175XX/card.c **** 
 439:Code\Device\FM175XX/card.c **** 
 440:Code\Device\FM175XX/card.c **** //*************************************************************************************************
 441:Code\Device\FM175XX/card.c **** // Function name	: CardInfoUpdate
 442:Code\Device\FM175XX/card.c **** // Description		: 更新卡的信息
 443:Code\Device\FM175XX/card.c **** // Parameter		: none
 444:Code\Device\FM175XX/card.c **** // Return			: 是否成功
 445:Code\Device\FM175XX/card.c **** //-------------------------------------------------------------------------------------------------
 446:Code\Device\FM175XX/card.c **** // Info				: TIMESTAMP_BLK: 时间戳(0-3)+内存变量初值(8-11)+内存变量当前值(12-15)
 447:Code\Device\FM175XX/card.c **** //*************************************************************************************************
 448:Code\Device\FM175XX/card.c **** int CardInfoUpdate(void)
 449:Code\Device\FM175XX/card.c **** {
 299              		.loc 1 449 0
 300              		.cfi_startproc
 301 0000 30B5     		push	{r4, r5, lr}
 302              		.cfi_def_cfa_offset 12
 303              		.cfi_offset 4, -12
 304              		.cfi_offset 5, -8
 305              		.cfi_offset 14, -4
 306 0002 85B0     		sub	sp, sp, #20
 307              		.cfi_def_cfa_offset 32
 450:Code\Device\FM175XX/card.c **** 	uint8 tmp_buf[16] = {0};
 308              		.loc 1 450 0
 309 0004 0021     		mov	r1, #0
 310 0006 1022     		mov	r2, #16
 311 0008 6846     		mov	r0, sp
 312 000a FFF7FEFF 		bl	memset
 313              	.LVL42:
 451:Code\Device\FM175XX/card.c **** 	uint32 timer;
 452:Code\Device\FM175XX/card.c **** 	uint32 IC_curvar;
 453:Code\Device\FM175XX/card.c **** 
 454:Code\Device\FM175XX/card.c **** 	
 455:Code\Device\FM175XX/card.c **** 	CardBlock_Rd(TIMESTAMP_BLK, tmp_buf);								// 先读出原值
 314              		.loc 1 455 0
 315 000e 0520     		mov	r0, #5
 316 0010 6946     		mov	r1, sp
 317 0012 FFF7FEFF 		bl	CardBlock_Rd
 318              	.LVL43:
 456:Code\Device\FM175XX/card.c **** 	DBG_SOFT_PutStr("Step1 CardBlock_Rd TIMESTAMP_BLK:\n");
 457:Code\Device\FM175XX/card.c **** 	DBG_SOFT_PrintfHex(tmp_buf,16,16);
 458:Code\Device\FM175XX/card.c **** 	
 459:Code\Device\FM175XX/card.c **** 	if(mem_var == 0)													// 首次刷卡开门
 319              		.loc 1 459 0
 320 0016 304D     		ldr	r5, .L26
 321 0018 2B68     		ldr	r3, [r5]
 322 001a 2C1C     		mov	r4, r5
 323 001c 002B     		cmp	r3, #0
 324 001e 1BD1     		bne	.L20
 460:Code\Device\FM175XX/card.c **** 	{		
 461:Code\Device\FM175XX/card.c **** 		memcpy(tmp_buf+8, tmp_buf+12,4);								// 上电复位 备份初始mem变量值
 325              		.loc 1 461 0
 326 0020 039B     		ldr	r3, [sp, #12]
 327 0022 0293     		str	r3, [sp, #8]
 462:Code\Device\FM175XX/card.c **** 		DBG_SOFT_PutStr("mem_var = 0!\n");
ARM GAS  C:\Users\Administrator\AppData\Local\Temp\cc58sU4R.s 			page 15


 463:Code\Device\FM175XX/card.c **** 		//1.写入时间戳		
 464:Code\Device\FM175XX/card.c **** 		timer = (uint32)RTC_GetUnixTime();
 328              		.loc 1 464 0
 329 0024 FFF7FEFF 		bl	RTC_GetUnixTime
 330              	.LVL44:
 465:Code\Device\FM175XX/card.c **** 		LONG2BYTE(timer, tmp_buf);
 331              		.loc 1 465 0
 332 0028 6A46     		mov	r2, sp
 466:Code\Device\FM175XX/card.c **** 		
 467:Code\Device\FM175XX/card.c **** 		//2.写入当前内存变量
 468:Code\Device\FM175XX/card.c **** 		mem_var++;
 469:Code\Device\FM175XX/card.c **** 		LONG2BYTE(mem_var, tmp_buf+12);
 333              		.loc 1 469 0
 334 002a 6946     		mov	r1, sp
 465:Code\Device\FM175XX/card.c **** 		LONG2BYTE(timer, tmp_buf);
 335              		.loc 1 465 0
 336 002c 030E     		lsr	r3, r0, #24
 337 002e 1370     		strb	r3, [r2]
 338 0030 030C     		lsr	r3, r0, #16
 339 0032 5370     		strb	r3, [r2, #1]
 340 0034 030A     		lsr	r3, r0, #8
 341 0036 9370     		strb	r3, [r2, #2]
 468:Code\Device\FM175XX/card.c **** 		LONG2BYTE(mem_var, tmp_buf+12);
 342              		.loc 1 468 0
 343 0038 2B68     		ldr	r3, [r5]
 465:Code\Device\FM175XX/card.c **** 		LONG2BYTE(timer, tmp_buf);
 344              		.loc 1 465 0
 345 003a D070     		strb	r0, [r2, #3]
 468:Code\Device\FM175XX/card.c **** 		LONG2BYTE(mem_var, tmp_buf+12);
 346              		.loc 1 468 0
 347 003c 0133     		add	r3, r3, #1
 348              		.loc 1 469 0
 349 003e 1A0E     		lsr	r2, r3, #24
 350 0040 0A73     		strb	r2, [r1, #12]
 351 0042 1A0C     		lsr	r2, r3, #16
 352 0044 4A73     		strb	r2, [r1, #13]
 470:Code\Device\FM175XX/card.c **** 		
 471:Code\Device\FM175XX/card.c **** 		CardBlock_Wr(TIMESTAMP_BLK, tmp_buf);
 353              		.loc 1 471 0
 354 0046 0520     		mov	r0, #5
 355              	.LVL45:
 469:Code\Device\FM175XX/card.c **** 		
 356              		.loc 1 469 0
 357 0048 1A0A     		lsr	r2, r3, #8
 358 004a 8A73     		strb	r2, [r1, #14]
 468:Code\Device\FM175XX/card.c **** 		LONG2BYTE(mem_var, tmp_buf+12);
 359              		.loc 1 468 0
 360 004c 2B60     		str	r3, [r5]
 469:Code\Device\FM175XX/card.c **** 		
 361              		.loc 1 469 0
 362 004e CB73     		strb	r3, [r1, #15]
 363              		.loc 1 471 0
 364 0050 FFF7FEFF 		bl	CardBlock_Wr
 365              	.LVL46:
 472:Code\Device\FM175XX/card.c **** 		return 1;
 366              		.loc 1 472 0
 367 0054 0122     		mov	r2, #1
ARM GAS  C:\Users\Administrator\AppData\Local\Temp\cc58sU4R.s 			page 16


 368 0056 3CE0     		b	.L21
 369              	.L20:
 473:Code\Device\FM175XX/card.c **** 	}
 474:Code\Device\FM175XX/card.c **** 	else																// 非首次刷卡开门
 475:Code\Device\FM175XX/card.c **** 	{
 476:Code\Device\FM175XX/card.c **** 		DBG_SOFT_PutStr("mem_var = ");
 477:Code\Device\FM175XX/card.c **** 		DBG_SOFT_PrintfHex((uint8 *)&mem_var,1,16);
 478:Code\Device\FM175XX/card.c **** 		IC_curvar = BYTE2LONG(tmp_buf[12],tmp_buf[13],tmp_buf[14],tmp_buf[15]);
 370              		.loc 1 478 0
 371 0058 6A46     		mov	r2, sp
 372 005a 127B     		ldrb	r2, [r2, #12]
 373 005c 1106     		lsl	r1, r2, #24
 374 005e 6A46     		mov	r2, sp
 375 0060 527B     		ldrb	r2, [r2, #13]
 376 0062 1204     		lsl	r2, r2, #16
 377 0064 0A43     		orr	r2, r1
 378 0066 6946     		mov	r1, sp
 379 0068 C97B     		ldrb	r1, [r1, #15]
 380 006a 0A43     		orr	r2, r1
 381 006c 6946     		mov	r1, sp
 382 006e 897B     		ldrb	r1, [r1, #14]
 383 0070 0902     		lsl	r1, r1, #8
 384 0072 0A43     		orr	r2, r1
 385              	.LVL47:
 479:Code\Device\FM175XX/card.c **** 		if(mem_var == IC_curvar)										// 内存变量 = IC变量
 386              		.loc 1 479 0
 387 0074 9342     		cmp	r3, r2
 388 0076 0BD1     		bne	.L22
 480:Code\Device\FM175XX/card.c **** 		{
 481:Code\Device\FM175XX/card.c **** 			DBG_SOFT_PutStr("mem_var = IC_curvar Branch\n");
 482:Code\Device\FM175XX/card.c **** 			mem_var++;
 483:Code\Device\FM175XX/card.c **** 			IC_curvar = mem_var;
 484:Code\Device\FM175XX/card.c **** 			LONG2BYTE(IC_curvar, tmp_buf+12);
 389              		.loc 1 484 0
 390 0078 6946     		mov	r1, sp
 482:Code\Device\FM175XX/card.c **** 			IC_curvar = mem_var;
 391              		.loc 1 482 0
 392 007a 0133     		add	r3, r3, #1
 393              		.loc 1 484 0
 394 007c 1A0E     		lsr	r2, r3, #24
 395              	.LVL48:
 396 007e 0A73     		strb	r2, [r1, #12]
 397              	.LVL49:
 398 0080 1A0C     		lsr	r2, r3, #16
 399 0082 4A73     		strb	r2, [r1, #13]
 400 0084 1A0A     		lsr	r2, r3, #8
 482:Code\Device\FM175XX/card.c **** 			IC_curvar = mem_var;
 401              		.loc 1 482 0
 402 0086 2B60     		str	r3, [r5]
 403              	.LVL50:
 404              		.loc 1 484 0
 405 0088 8A73     		strb	r2, [r1, #14]
 406 008a CB73     		strb	r3, [r1, #15]
 485:Code\Device\FM175XX/card.c **** 			CardBlock_Wr(TIMESTAMP_BLK, tmp_buf);			
 407              		.loc 1 485 0
 408 008c 0520     		mov	r0, #5
 409 008e 09E0     		b	.L25
ARM GAS  C:\Users\Administrator\AppData\Local\Temp\cc58sU4R.s 			page 17


 410              	.LVL51:
 411              	.L22:
 486:Code\Device\FM175XX/card.c **** 		}
 487:Code\Device\FM175XX/card.c **** 		else if(mem_var == IC_curvar + 1)								// 内存变量 = IC变量 + 1
 488:Code\Device\FM175XX/card.c **** 		{
 489:Code\Device\FM175XX/card.c **** 			DBG_SOFT_PutStr("mem_var = IC_curvar+1 Branch\n");
 490:Code\Device\FM175XX/card.c **** 			LONG2BYTE(mem_var, tmp_buf+12);
 491:Code\Device\FM175XX/card.c **** 			CardBlock_Wr(TIMESTAMP_BLK, tmp_buf);	
 492:Code\Device\FM175XX/card.c **** 		}
 493:Code\Device\FM175XX/card.c **** 		else															// 内存变量没有写入就拿开了 以及其他情况处理
 494:Code\Device\FM175XX/card.c **** 		{
 495:Code\Device\FM175XX/card.c **** 			DBG_SOFT_PutStr("Other Branch\n");
 496:Code\Device\FM175XX/card.c **** 			LONG2BYTE(mem_var, tmp_buf+12);								// 直接先写入mem_var值 后面再读出比对
 412              		.loc 1 496 0
 413 0090 6A46     		mov	r2, sp
 414              	.LVL52:
 415 0092 180C     		lsr	r0, r3, #16
 416 0094 190A     		lsr	r1, r3, #8
 417              	.LVL53:
 418 0096 5073     		strb	r0, [r2, #13]
 419              	.LVL54:
 420 0098 9173     		strb	r1, [r2, #14]
 497:Code\Device\FM175XX/card.c **** 			CardBlock_Wr(TIMESTAMP_BLK, tmp_buf);	
 421              		.loc 1 497 0
 422 009a 0520     		mov	r0, #5
 423 009c 6946     		mov	r1, sp
 424 009e 1D0E     		lsr	r5, r3, #24
 496:Code\Device\FM175XX/card.c **** 			CardBlock_Wr(TIMESTAMP_BLK, tmp_buf);	
 425              		.loc 1 496 0
 426 00a0 1573     		strb	r5, [r2, #12]
 427 00a2 D373     		strb	r3, [r2, #15]
 428              	.L25:
 429              		.loc 1 497 0
 430 00a4 FFF7FEFF 		bl	CardBlock_Wr
 431              	.LVL55:
 498:Code\Device\FM175XX/card.c **** 		}
 499:Code\Device\FM175XX/card.c **** 		
 500:Code\Device\FM175XX/card.c **** 		CardBlock_Rd(TIMESTAMP_BLK, tmp_buf);							// 读出IC内存变量
 432              		.loc 1 500 0
 433 00a8 0520     		mov	r0, #5
 434 00aa 6946     		mov	r1, sp
 435 00ac FFF7FEFF 		bl	CardBlock_Rd
 436              	.LVL56:
 501:Code\Device\FM175XX/card.c **** 		IC_curvar = BYTE2LONG(tmp_buf[12],tmp_buf[13],tmp_buf[14],tmp_buf[15]);
 437              		.loc 1 501 0
 438 00b0 6B46     		mov	r3, sp
 439 00b2 187B     		ldrb	r0, [r3, #12]
 440 00b4 5B7B     		ldrb	r3, [r3, #13]
 441 00b6 0006     		lsl	r0, r0, #24
 442 00b8 1B04     		lsl	r3, r3, #16
 443 00ba 1843     		orr	r0, r3
 444 00bc 6B46     		mov	r3, sp
 445 00be DB7B     		ldrb	r3, [r3, #15]
 446 00c0 1843     		orr	r0, r3
 447 00c2 6B46     		mov	r3, sp
 448 00c4 9B7B     		ldrb	r3, [r3, #14]
 449 00c6 1B02     		lsl	r3, r3, #8
ARM GAS  C:\Users\Administrator\AppData\Local\Temp\cc58sU4R.s 			page 18


 450 00c8 1843     		orr	r0, r3
 502:Code\Device\FM175XX/card.c **** 			
 503:Code\Device\FM175XX/card.c **** 		DBG_SOFT_PutStr("Step2 CardBlock_Rd TIMESTAMP_BLK:\n");
 504:Code\Device\FM175XX/card.c **** 		DBG_SOFT_PrintfHex(tmp_buf,16,16);
 505:Code\Device\FM175XX/card.c **** 		
 506:Code\Device\FM175XX/card.c **** 		DBG_SOFT_PutStr("RD Back IC_curvar = ");
 507:Code\Device\FM175XX/card.c **** 		DBG_SOFT_PrintfHex((uint8 *)&IC_curvar,1,16);
 508:Code\Device\FM175XX/card.c **** 		DBG_SOFT_PutStr("Cur mem_var = ");
 509:Code\Device\FM175XX/card.c **** 		DBG_SOFT_PrintfHex((uint8 *)&mem_var,1,16);
 510:Code\Device\FM175XX/card.c **** 		
 511:Code\Device\FM175XX/card.c **** 		if(IC_curvar == mem_var)
 451              		.loc 1 511 0
 452 00ca 2368     		ldr	r3, [r4]
 453 00cc C01A     		sub	r0, r0, r3
 472:Code\Device\FM175XX/card.c **** 	}
 454              		.loc 1 472 0
 455 00ce 4242     		neg	r2, r0
 456 00d0 4241     		adc	r2, r2, r0
 457              	.LVL57:
 458              	.L21:
 512:Code\Device\FM175XX/card.c **** 		{
 513:Code\Device\FM175XX/card.c **** 			return 1;
 514:Code\Device\FM175XX/card.c **** 		}
 515:Code\Device\FM175XX/card.c **** 		else
 516:Code\Device\FM175XX/card.c **** 		{
 517:Code\Device\FM175XX/card.c **** 			return 0;
 518:Code\Device\FM175XX/card.c **** 		}
 519:Code\Device\FM175XX/card.c **** 	}	
 520:Code\Device\FM175XX/card.c **** }
 459              		.loc 1 520 0
 460 00d2 101C     		mov	r0, r2
 461 00d4 05B0     		add	sp, sp, #20
 462              		@ sp needed
 463 00d6 30BD     		pop	{r4, r5, pc}
 464              	.L27:
 465              		.align	2
 466              	.L26:
 467 00d8 00000000 		.word	mem_var
 468              		.cfi_endproc
 469              	.LFE68:
 470              		.size	CardInfoUpdate, .-CardInfoUpdate
 471              		.section	.text.CardScan,"ax",%progbits
 472              		.align	1
 473              		.global	CardScan
 474              		.code	16
 475              		.thumb_func
 476              		.type	CardScan, %function
 477              	CardScan:
 478              	.LFB69:
 521:Code\Device\FM175XX/card.c **** 
 522:Code\Device\FM175XX/card.c **** #if 0
 523:Code\Device\FM175XX/card.c **** //*************************************************************************************************
 524:Code\Device\FM175XX/card.c **** // Function name	: CardRegister
 525:Code\Device\FM175XX/card.c **** // Description		: 检测卡 有效性
 526:Code\Device\FM175XX/card.c **** // Parameter		: none
 527:Code\Device\FM175XX/card.c **** // Return			: 是否成功
 528:Code\Device\FM175XX/card.c **** //-------------------------------------------------------------------------------------------------
ARM GAS  C:\Users\Administrator\AppData\Local\Temp\cc58sU4R.s 			page 19


 529:Code\Device\FM175XX/card.c **** // Info				: no use
 530:Code\Device\FM175XX/card.c **** //*************************************************************************************************
 531:Code\Device\FM175XX/card.c **** void CardRegister(uint8 uid[], uint8 timedate[])
 532:Code\Device\FM175XX/card.c **** {
 533:Code\Device\FM175XX/card.c **** 	uint8 statues;
 534:Code\Device\FM175XX/card.c **** 	uint8 uid_buf1[16] = {0x00,0x00,0x00,0x00,0x3a,0x3a,0x3a,0x3a,0x3a,0x3a,0x3a,0x3a,0x3a,0x3a,0x3a,0
 535:Code\Device\FM175XX/card.c **** 	uint8 crypt_buf[16] = {0x6f,0x35,0x4a,0x6c,0x58,0xed,0xbd,0xd8,0x19,0x5f,0xd5,0xb8,0x90,0xaf,0xbf,
 536:Code\Device\FM175XX/card.c **** 	uint8 tmp_buf[16] = {0};
 537:Code\Device\FM175XX/card.c **** 	
 538:Code\Device\FM175XX/card.c **** 	uint8 blockcrypt_buf[16] = {0xff,0xff,0xfe,0xef,0xfa,0xaf};					// 数据块加密密码
 539:Code\Device\FM175XX/card.c **** 	
 540:Code\Device\FM175XX/card.c **** 	memcpy(uid_buf1, uid, 4);
 541:Code\Device\FM175XX/card.c **** 	do_crypt(crypt_buf, uid_buf1, uid_buf1, 16, 1);								// 合法性加密1
 542:Code\Device\FM175XX/card.c **** 	do_crypt(blockcrypt_buf, uid_buf1, uid_buf1, 16, 1);						// 块存储加密2
 543:Code\Device\FM175XX/card.c **** 	
 544:Code\Device\FM175XX/card.c **** 	
 545:Code\Device\FM175XX/card.c **** 	#if 1
 546:Code\Device\FM175XX/card.c **** 	FM175X_SoftReset( );
 547:Code\Device\FM175XX/card.c **** 	Set_Rf( 3 );                                                				// 打开双天线                
 548:Code\Device\FM175XX/card.c **** 	Pcd_ConfigISOType( 0 );                                     				// ISO14443寄存器初始化     
 549:Code\Device\FM175XX/card.c **** 	statues = TypeA_CardActive( picc_atqa,picc_uid,picc_sak );  				// 激活A卡片                  
 550:Code\Device\FM175XX/card.c **** 	if ( statues == TRUE ) 
 551:Code\Device\FM175XX/card.c **** 	{
 552:Code\Device\FM175XX/card.c **** 		DBG_SOFT_PutStr("\nCardUID:");
 553:Code\Device\FM175XX/card.c **** 		DBG_SOFT_PrintfHex(picc_uid,8,16);
 554:Code\Device\FM175XX/card.c **** 	}
 555:Code\Device\FM175XX/card.c **** 	else 
 556:Code\Device\FM175XX/card.c **** 	{
 557:Code\Device\FM175XX/card.c **** 		//DBG_SOFT_PutStr("No Card!\r\n");
 558:Code\Device\FM175XX/card.c **** 		TypeA_Halt( 0 );  	 					 								// 卡片睡眠 					*/
 559:Code\Device\FM175XX/card.c **** 		return;
 560:Code\Device\FM175XX/card.c **** 	}
 561:Code\Device\FM175XX/card.c **** 	#endif
 562:Code\Device\FM175XX/card.c **** 	CardBlock_Wr(VALID_BLK, uid_buf1);											// 存入合法性验证区块 4
 563:Code\Device\FM175XX/card.c **** 	
 564:Code\Device\FM175XX/card.c **** 	//..填入有效期值
 565:Code\Device\FM175XX/card.c **** 	memset(tmp_buf, 0, 16);
 566:Code\Device\FM175XX/card.c **** 	memcpy(tmp_buf+4, timedate, 4);												// 注册只需要写入有效期
 567:Code\Device\FM175XX/card.c **** 	CardBlock_Wr(TIMESTAMP_BLK, tmp_buf);										// 存入有效期验证区块 5
 568:Code\Device\FM175XX/card.c **** }
 569:Code\Device\FM175XX/card.c **** #endif
 570:Code\Device\FM175XX/card.c **** 
 571:Code\Device\FM175XX/card.c **** //*************************************************************************************************
 572:Code\Device\FM175XX/card.c **** // Function name	: CardScan
 573:Code\Device\FM175XX/card.c **** // Description		: 读出卡指定扇区的数据
 574:Code\Device\FM175XX/card.c **** // Parameter		: uid: 扫描到卡 读取卡uid
 575:Code\Device\FM175XX/card.c **** // Return			: none
 576:Code\Device\FM175XX/card.c **** //-------------------------------------------------------------------------------------------------
 577:Code\Device\FM175XX/card.c **** // Info				: 
 578:Code\Device\FM175XX/card.c **** //*************************************************************************************************
 579:Code\Device\FM175XX/card.c **** int CardScan(uint8 uid[])
 580:Code\Device\FM175XX/card.c **** {
 479              		.loc 1 580 0
 480              		.cfi_startproc
 481              	.LVL58:
 482 0000 38B5     		push	{r3, r4, r5, lr}
 483              		.cfi_def_cfa_offset 16
ARM GAS  C:\Users\Administrator\AppData\Local\Temp\cc58sU4R.s 			page 20


 484              		.cfi_offset 3, -16
 485              		.cfi_offset 4, -12
 486              		.cfi_offset 5, -8
 487              		.cfi_offset 14, -4
 488              		.loc 1 580 0
 489 0002 051C     		mov	r5, r0
 581:Code\Device\FM175XX/card.c **** 	uint8 statues = 0;
 582:Code\Device\FM175XX/card.c **** 	//uint8 key[6]= {0xFF,0xFF,0xFF,0xFF,0xFF,0xFF};   
 583:Code\Device\FM175XX/card.c **** 
 584:Code\Device\FM175XX/card.c **** 	
 585:Code\Device\FM175XX/card.c **** 	FM175X_SoftReset( );  
 490              		.loc 1 585 0
 491 0004 FFF7FEFF 		bl	FM175X_SoftReset
 492              	.LVL59:
 586:Code\Device\FM175XX/card.c **** 	Set_Rf( 3 );                                                /* 打开双天线                  */
 493              		.loc 1 586 0
 494 0008 0320     		mov	r0, #3
 495 000a FFF7FEFF 		bl	Set_Rf
 496              	.LVL60:
 587:Code\Device\FM175XX/card.c **** 	Pcd_ConfigISOType( 0 );                                     /* ISO14443寄存器初始化        *
 497              		.loc 1 587 0
 498 000e 0020     		mov	r0, #0
 499 0010 FFF7FEFF 		bl	Pcd_ConfigISOType
 500              	.LVL61:
 588:Code\Device\FM175XX/card.c **** 	statues = TypeA_CardActive( picc_atqa,picc_uid,picc_sak );  /* 激活A卡片                   */
 501              		.loc 1 588 0
 502 0014 114C     		ldr	r4, .L37
 503 0016 1248     		ldr	r0, .L37+4
 504 0018 211C     		mov	r1, r4
 505 001a 124A     		ldr	r2, .L37+8
 506 001c FFF7FEFF 		bl	TypeA_CardActive
 507              	.LVL62:
 589:Code\Device\FM175XX/card.c **** 	if ( statues == TRUE ) 
 508              		.loc 1 589 0
 509 0020 0128     		cmp	r0, #1
 510 0022 03D0     		beq	.L29
 511              	.LVL63:
 512              	.L31:
 590:Code\Device\FM175XX/card.c **** 	{
 591:Code\Device\FM175XX/card.c **** 		DBG_SOFT_PutStr("\nScaned Card:");	
 592:Code\Device\FM175XX/card.c **** 		DBG_SOFT_PrintfHex(picc_uid,8,16);
 593:Code\Device\FM175XX/card.c **** 	}
 594:Code\Device\FM175XX/card.c **** 	else
 595:Code\Device\FM175XX/card.c **** 	{
 596:Code\Device\FM175XX/card.c **** 		TypeA_Halt( 0 );  	 					 				/* 卡片睡眠 					*/
 513              		.loc 1 596 0
 514 0024 0020     		mov	r0, #0
 515 0026 FFF7FEFF 		bl	TypeA_Halt
 516              	.LVL64:
 517 002a 14E0     		b	.L36
 518              	.LVL65:
 519              	.L29:
 597:Code\Device\FM175XX/card.c **** 		//DBG_SOFT_PutStr("\nScaned Card Failed\n");
 598:Code\Device\FM175XX/card.c **** 		return 0;
 599:Code\Device\FM175XX/card.c **** 	}
 600:Code\Device\FM175XX/card.c **** 	
 601:Code\Device\FM175XX/card.c **** 	if(0 == IsCardLegality(picc_uid))							/* 验证合法性					*/
ARM GAS  C:\Users\Administrator\AppData\Local\Temp\cc58sU4R.s 			page 21


 520              		.loc 1 601 0
 521 002c 201C     		mov	r0, r4
 522              	.LVL66:
 523 002e FFF7FEFF 		bl	IsCardLegality
 524              	.LVL67:
 525 0032 0028     		cmp	r0, #0
 526 0034 F6D0     		beq	.L31
 602:Code\Device\FM175XX/card.c **** 	{
 603:Code\Device\FM175XX/card.c **** 		TypeA_Halt( 0 );  	 					 				/* 卡片睡眠 					*/
 604:Code\Device\FM175XX/card.c **** 		return 0;
 605:Code\Device\FM175XX/card.c **** 	}
 606:Code\Device\FM175XX/card.c **** 	memcpy(uid, picc_uid, 4);									/* 合法性通过 上报UID			*/
 527              		.loc 1 606 0
 528 0036 211C     		mov	r1, r4
 529 0038 0422     		mov	r2, #4
 530 003a 281C     		mov	r0, r5
 531 003c FFF7FEFF 		bl	memcpy
 532              	.LVL68:
 607:Code\Device\FM175XX/card.c **** 	DBG_SOFT_PutStr("\nScaned Card: IsCardLegality 1 OK!\n");
 608:Code\Device\FM175XX/card.c **** 	
 609:Code\Device\FM175XX/card.c **** 	if(1 == CardInfoUpdate())									/* 读写 IC内部信息				*/
 533              		.loc 1 609 0
 534 0040 FFF7FEFF 		bl	CardInfoUpdate
 535              	.LVL69:
 536 0044 041C     		mov	r4, r0
 610:Code\Device\FM175XX/card.c **** 	{
 611:Code\Device\FM175XX/card.c **** 		DBG_SOFT_PutStr("CardInfoUpdate OK!\n");
 612:Code\Device\FM175XX/card.c **** 		Set_Rf( 0 );    										/* 关闭双天线					*/
 537              		.loc 1 612 0
 538 0046 0020     		mov	r0, #0
 609:Code\Device\FM175XX/card.c **** 	{
 539              		.loc 1 609 0
 540 0048 012C     		cmp	r4, #1
 541 004a 02D1     		bne	.L32
 542              		.loc 1 612 0
 543 004c FFF7FEFF 		bl	Set_Rf
 544              	.LVL70:
 613:Code\Device\FM175XX/card.c **** 		return 1;
 545              		.loc 1 613 0
 546 0050 02E0     		b	.L30
 547              	.L32:
 614:Code\Device\FM175XX/card.c **** 	}
 615:Code\Device\FM175XX/card.c **** 	else
 616:Code\Device\FM175XX/card.c **** 	{
 617:Code\Device\FM175XX/card.c **** 		DBG_SOFT_PutStr("CardInfoUpdate ERR!\n");
 618:Code\Device\FM175XX/card.c **** 		Set_Rf( 0 );    										/* 关闭双天线					*/
 548              		.loc 1 618 0
 549 0052 FFF7FEFF 		bl	Set_Rf
 550              	.LVL71:
 551              	.L36:
 619:Code\Device\FM175XX/card.c **** 		return 0;
 552              		.loc 1 619 0
 553 0056 0024     		mov	r4, #0
 554              	.L30:
 620:Code\Device\FM175XX/card.c **** 	}
 621:Code\Device\FM175XX/card.c **** 
 622:Code\Device\FM175XX/card.c **** }
ARM GAS  C:\Users\Administrator\AppData\Local\Temp\cc58sU4R.s 			page 22


 555              		.loc 1 622 0
 556 0058 201C     		mov	r0, r4
 557              		@ sp needed
 558              	.LVL72:
 559 005a 38BD     		pop	{r3, r4, r5, pc}
 560              	.L38:
 561              		.align	2
 562              	.L37:
 563 005c 00000000 		.word	picc_uid
 564 0060 00000000 		.word	picc_atqa
 565 0064 00000000 		.word	picc_sak
 566              		.cfi_endproc
 567              	.LFE69:
 568              		.size	CardScan, .-CardScan
 569              		.section	.text.CardRead,"ax",%progbits
 570              		.align	1
 571              		.global	CardRead
 572              		.code	16
 573              		.thumb_func
 574              		.type	CardRead, %function
 575              	CardRead:
 576              	.LFB70:
 623:Code\Device\FM175XX/card.c **** 
 624:Code\Device\FM175XX/card.c **** //*************************************************************************************************
 625:Code\Device\FM175XX/card.c **** // Function name	: CardRead
 626:Code\Device\FM175XX/card.c **** // Description		: 录入卡片的UID
 627:Code\Device\FM175XX/card.c **** // Parameter		: uid: 扫描到卡 读取卡uid
 628:Code\Device\FM175XX/card.c **** // Return			: 0/1
 629:Code\Device\FM175XX/card.c **** //-------------------------------------------------------------------------------------------------
 630:Code\Device\FM175XX/card.c **** // Info				: 适用于03指令使用
 631:Code\Device\FM175XX/card.c **** //*************************************************************************************************
 632:Code\Device\FM175XX/card.c **** int CardRead(uint8 uid[])
 633:Code\Device\FM175XX/card.c **** {
 577              		.loc 1 633 0
 578              		.cfi_startproc
 579              	.LVL73:
 580 0000 70B5     		push	{r4, r5, r6, lr}
 581              		.cfi_def_cfa_offset 16
 582              		.cfi_offset 4, -16
 583              		.cfi_offset 5, -12
 584              		.cfi_offset 6, -8
 585              		.cfi_offset 14, -4
 586              		.loc 1 633 0
 587 0002 061C     		mov	r6, r0
 634:Code\Device\FM175XX/card.c **** 	uint8 statues = 0;
 635:Code\Device\FM175XX/card.c **** 
 636:Code\Device\FM175XX/card.c **** 	
 637:Code\Device\FM175XX/card.c **** 	FM175X_SoftReset( );  
 588              		.loc 1 637 0
 589 0004 FFF7FEFF 		bl	FM175X_SoftReset
 590              	.LVL74:
 638:Code\Device\FM175XX/card.c **** 	Set_Rf( 3 );                                                /* 打开双天线                  */
 591              		.loc 1 638 0
 592 0008 0320     		mov	r0, #3
 593 000a FFF7FEFF 		bl	Set_Rf
 594              	.LVL75:
 639:Code\Device\FM175XX/card.c **** 	Pcd_ConfigISOType( 0 );                                     /* ISO14443寄存器初始化        *
ARM GAS  C:\Users\Administrator\AppData\Local\Temp\cc58sU4R.s 			page 23


 595              		.loc 1 639 0
 596 000e 0020     		mov	r0, #0
 597 0010 FFF7FEFF 		bl	Pcd_ConfigISOType
 598              	.LVL76:
 640:Code\Device\FM175XX/card.c **** 	statues = TypeA_CardActive( picc_atqa,picc_uid,picc_sak );  /* 激活A卡片                   */
 599              		.loc 1 640 0
 600 0014 0E4D     		ldr	r5, .L46
 601 0016 0F48     		ldr	r0, .L46+4
 602 0018 291C     		mov	r1, r5
 603 001a 0F4A     		ldr	r2, .L46+8
 604 001c FFF7FEFF 		bl	TypeA_CardActive
 605              	.LVL77:
 606 0020 041E     		sub	r4, r0, #0
 607              	.LVL78:
 641:Code\Device\FM175XX/card.c **** 	if ( statues == TRUE ) 
 608              		.loc 1 641 0
 609 0022 012C     		cmp	r4, #1
 610 0024 04D0     		beq	.L40
 611              	.LVL79:
 612              	.L42:
 642:Code\Device\FM175XX/card.c **** 	{
 643:Code\Device\FM175XX/card.c **** 		DBG_SOFT_PutStr("\nCardRead Card uid:");	
 644:Code\Device\FM175XX/card.c **** 		DBG_SOFT_PrintfHex(picc_uid,8,16);
 645:Code\Device\FM175XX/card.c **** 	}
 646:Code\Device\FM175XX/card.c **** 	else
 647:Code\Device\FM175XX/card.c **** 	{
 648:Code\Device\FM175XX/card.c **** 		TypeA_Halt( 0 );  	 					 				/* 卡片睡眠 					*/
 613              		.loc 1 648 0
 614 0026 0020     		mov	r0, #0
 615 0028 FFF7FEFF 		bl	TypeA_Halt
 616              	.LVL80:
 649:Code\Device\FM175XX/card.c **** 		//DBG_SOFT_PutStr("\nScaned Card Failed\n");
 650:Code\Device\FM175XX/card.c **** 		
 651:Code\Device\FM175XX/card.c **** 		return 0;
 617              		.loc 1 651 0
 618 002c 0020     		mov	r0, #0
 619 002e 0DE0     		b	.L41
 620              	.LVL81:
 621              	.L40:
 652:Code\Device\FM175XX/card.c **** 	}
 653:Code\Device\FM175XX/card.c **** 	
 654:Code\Device\FM175XX/card.c **** 	if(0 == IsCardLegality(picc_uid))							/* 验证合法性					*/
 622              		.loc 1 654 0
 623 0030 281C     		mov	r0, r5
 624              	.LVL82:
 625 0032 FFF7FEFF 		bl	IsCardLegality
 626              	.LVL83:
 627 0036 0028     		cmp	r0, #0
 628 0038 F5D0     		beq	.L42
 629              	.LVL84:
 630              	.LBB8:
 631              	.LBB9:
 655:Code\Device\FM175XX/card.c **** 	{
 656:Code\Device\FM175XX/card.c **** 		TypeA_Halt( 0 );  	 					 				/* 卡片睡眠 					*/
 657:Code\Device\FM175XX/card.c **** 		return 0;
 658:Code\Device\FM175XX/card.c **** 	}
 659:Code\Device\FM175XX/card.c **** 	memcpy(uid, picc_uid, 4);									/* 合法性通过 上报UID			*/
ARM GAS  C:\Users\Administrator\AppData\Local\Temp\cc58sU4R.s 			page 24


 632              		.loc 1 659 0
 633 003a 291C     		mov	r1, r5
 634 003c 0422     		mov	r2, #4
 635 003e 301C     		mov	r0, r6
 636 0040 FFF7FEFF 		bl	memcpy
 637              	.LVL85:
 660:Code\Device\FM175XX/card.c **** 	Set_Rf( 0 );    											/* 关闭双天线					*/
 638              		.loc 1 660 0
 639 0044 0020     		mov	r0, #0
 640 0046 FFF7FEFF 		bl	Set_Rf
 641              	.LVL86:
 642 004a 201C     		mov	r0, r4
 643              	.LVL87:
 644              	.L41:
 645              	.LBE9:
 646              	.LBE8:
 661:Code\Device\FM175XX/card.c **** 	DBG_SOFT_PutStr("\nCardRead Scaned Card: IsCardLegality 1 OK!\n");
 662:Code\Device\FM175XX/card.c **** 	return 1;
 663:Code\Device\FM175XX/card.c **** }
 647              		.loc 1 663 0
 648              		@ sp needed
 649              	.LVL88:
 650 004c 70BD     		pop	{r4, r5, r6, pc}
 651              	.L47:
 652 004e C046     		.align	2
 653              	.L46:
 654 0050 00000000 		.word	picc_uid
 655 0054 00000000 		.word	picc_atqa
 656 0058 00000000 		.word	picc_sak
 657              		.cfi_endproc
 658              	.LFE70:
 659              		.size	CardRead, .-CardRead
 660              		.section	.text.detect_nfc_card,"ax",%progbits
 661              		.align	1
 662              		.global	detect_nfc_card
 663              		.code	16
 664              		.thumb_func
 665              		.type	detect_nfc_card, %function
 666              	detect_nfc_card:
 667              	.LFB63:
  38:Code\Device\FM175XX/card.c **** 	if (CardRead(card_id) == 1)
 668              		.loc 1 38 0
 669              		.cfi_startproc
 670              	.LVL89:
 671 0000 10B5     		push	{r4, lr}
 672              		.cfi_def_cfa_offset 8
 673              		.cfi_offset 4, -8
 674              		.cfi_offset 14, -4
  38:Code\Device\FM175XX/card.c **** 	if (CardRead(card_id) == 1)
 675              		.loc 1 38 0
 676 0002 041C     		mov	r4, r0
  39:Code\Device\FM175XX/card.c **** 	{
 677              		.loc 1 39 0
 678 0004 FFF7FEFF 		bl	CardRead
 679              	.LVL90:
 680 0008 031C     		mov	r3, r0
  41:Code\Device\FM175XX/card.c **** 	}
ARM GAS  C:\Users\Administrator\AppData\Local\Temp\cc58sU4R.s 			page 25


 681              		.loc 1 41 0
 682 000a 0120     		mov	r0, #1
  39:Code\Device\FM175XX/card.c **** 	{
 683              		.loc 1 39 0
 684 000c 8342     		cmp	r3, r0
 685 000e 07D0     		beq	.L49
 686              	.LVL91:
 687              	.LBB12:
 688              	.LBB13:
  43:Code\Device\FM175XX/card.c **** 	{
 689              		.loc 1 43 0
 690 0010 201C     		mov	r0, r4
 691 0012 0821     		mov	r1, #8
 692 0014 FFF7FEFF 		bl	nfc_detect_type_b
 693              	.LVL92:
 694 0018 0138     		sub	r0, r0, #1
 695 001a 4342     		neg	r3, r0
 696 001c 5841     		adc	r0, r0, r3
 697              	.LBE13:
 698              	.LBE12:
  41:Code\Device\FM175XX/card.c **** 	}
 699              		.loc 1 41 0
 700 001e C0B2     		uxtb	r0, r0
 701              	.LVL93:
 702              	.L49:
  48:Code\Device\FM175XX/card.c **** #else	//备份
 703              		.loc 1 48 0
 704              		@ sp needed
 705              	.LVL94:
 706 0020 10BD     		pop	{r4, pc}
 707              		.cfi_endproc
 708              	.LFE63:
 709              		.size	detect_nfc_card, .-detect_nfc_card
 710              		.section	.text.detect_nfc_card_continus,"ax",%progbits
 711              		.align	1
 712              		.global	detect_nfc_card_continus
 713              		.code	16
 714              		.thumb_func
 715              		.type	detect_nfc_card_continus, %function
 716              	detect_nfc_card_continus:
 717              	.LFB64:
  75:Code\Device\FM175XX/card.c **** 	uint32 loop = 0;
 718              		.loc 1 75 0
 719              		.cfi_startproc
 720              	.LVL95:
 721 0000 70B5     		push	{r4, r5, r6, lr}
 722              		.cfi_def_cfa_offset 16
 723              		.cfi_offset 4, -16
 724              		.cfi_offset 5, -12
 725              		.cfi_offset 6, -8
 726              		.cfi_offset 14, -4
  75:Code\Device\FM175XX/card.c **** 	uint32 loop = 0;
 727              		.loc 1 75 0
 728 0002 051C     		mov	r5, r0
 729 0004 0E1C     		mov	r6, r1
 730 0006 2824     		mov	r4, #40
 731              	.LVL96:
ARM GAS  C:\Users\Administrator\AppData\Local\Temp\cc58sU4R.s 			page 26


 732              	.L54:
  79:Code\Device\FM175XX/card.c **** 		{
 733              		.loc 1 79 0
 734 0008 281C     		mov	r0, r5
 735 000a 311C     		mov	r1, r6
 736 000c FFF7FEFF 		bl	detect_nfc_card
 737              	.LVL97:
 738 0010 0128     		cmp	r0, #1
 739 0012 05D0     		beq	.L53
 740 0014 013C     		sub	r4, r4, #1
 741              	.LVL98:
  85:Code\Device\FM175XX/card.c **** 	}
 742              		.loc 1 85 0 discriminator 2
 743 0016 FFF7FEFF 		bl	ble_heartbeat
 744              	.LVL99:
  77:Code\Device\FM175XX/card.c **** 	{
 745              		.loc 1 77 0 discriminator 2
 746 001a 002C     		cmp	r4, #0
 747 001c F4D1     		bne	.L54
  87:Code\Device\FM175XX/card.c **** }
 748              		.loc 1 87 0
 749 001e 201C     		mov	r0, r4
 750              	.L53:
  88:Code\Device\FM175XX/card.c **** 
 751              		.loc 1 88 0
 752              		@ sp needed
 753              	.LVL100:
 754 0020 70BD     		pop	{r4, r5, r6, pc}
 755              		.cfi_endproc
 756              	.LFE64:
 757              		.size	detect_nfc_card_continus, .-detect_nfc_card_continus
 758              		.comm	picc_sak,3,1
 759              		.comm	picc_uid,15,1
 760              		.comm	picc_atqa,2,1
 761              		.comm	ADCResultCenter,1,1
 762              		.section	.rodata
 763              		.set	.LANCHOR0,. + 0
 764              	.LC0:
 765 0000 FF       		.byte	-1
 766 0001 FF       		.byte	-1
 767 0002 FE       		.byte	-2
 768 0003 EF       		.byte	-17
 769 0004 FA       		.byte	-6
 770 0005 AF       		.byte	-81
 771              	.LC1:
 772 0006 00       		.byte	0
 773 0007 00       		.byte	0
 774 0008 00       		.byte	0
 775 0009 00       		.byte	0
 776 000a 3A       		.byte	58
 777 000b 3A       		.byte	58
 778 000c 3A       		.byte	58
 779 000d 3A       		.byte	58
 780 000e 3A       		.byte	58
 781 000f 3A       		.byte	58
 782 0010 3A       		.byte	58
 783 0011 3A       		.byte	58
ARM GAS  C:\Users\Administrator\AppData\Local\Temp\cc58sU4R.s 			page 27


 784 0012 3A       		.byte	58
 785 0013 3A       		.byte	58
 786 0014 3A       		.byte	58
 787 0015 3A       		.byte	58
 788              	.LC2:
 789 0016 6F       		.byte	111
 790 0017 35       		.byte	53
 791 0018 4A       		.byte	74
 792 0019 6C       		.byte	108
 793 001a 58       		.byte	88
 794 001b ED       		.byte	-19
 795 001c BD       		.byte	-67
 796 001d D8       		.byte	-40
 797 001e 19       		.byte	25
 798 001f 5F       		.byte	95
 799 0020 D5       		.byte	-43
 800 0021 B8       		.byte	-72
 801 0022 90       		.byte	-112
 802 0023 AF       		.byte	-81
 803 0024 BF       		.byte	-65
 804 0025 38       		.byte	56
 805              		.text
 806              	.Letext0:
 807              		.file 2 "c:\\program files (x86)\\cypress\\psoc creator\\4.0\\psoc creator\\import\\gnu\\arm\\4.9.
 808              		.file 3 "c:\\program files (x86)\\cypress\\psoc creator\\4.0\\psoc creator\\import\\gnu\\arm\\4.9.
 809              		.file 4 "Generated_Source\\PSoC4/cytypes.h"
 810              		.file 5 "c:\\program files (x86)\\cypress\\psoc creator\\4.0\\psoc creator\\import\\gnu\\arm\\4.9.
 811              		.file 6 ".\\Code\\Device\\FM175XX\\LPCD/lpcd_api.h"
 812              		.file 7 ".\\Code\\Device\\FM175XX\\IOS14443/type_a.h"
 813              		.file 8 ".\\Code\\Device\\FM175XX\\IOS14443/mifare_card.h"
 814              		.file 9 ".\\Code\\Common\\crypt/crypt.h"
 815              		.file 10 "c:\\program files (x86)\\cypress\\psoc creator\\4.0\\psoc creator\\import\\gnu\\arm\\4.9
 816              		.file 11 "Generated_Source\\PSoC4/RTC.h"
 817              		.file 12 "Code\\Device\\FM175XX\\fm175xx.h"