ARM GAS  C:\Users\Administrator\AppData\Local\Temp\ccX9Bf8z.s 			page 1


   1              		.cpu cortex-m0
   2              		.fpu softvfp
   3              		.eabi_attribute 20, 1
   4              		.eabi_attribute 21, 1
   5              		.eabi_attribute 23, 3
   6              		.eabi_attribute 24, 1
   7              		.eabi_attribute 25, 1
   8              		.eabi_attribute 26, 1
   9              		.eabi_attribute 30, 4
  10              		.eabi_attribute 34, 0
  11              		.eabi_attribute 18, 4
  12              		.code	16
  13              		.file	"CmdProtocol.c"
  14              		.text
  15              	.Ltext0:
  16              		.cfi_sections	.debug_frame
  17              		.global	__aeabi_uidiv
  18              		.global	__aeabi_uidivmod
  19              		.section	.text.Protocol_CmdGetPreSever,"ax",%progbits
  20              		.align	1
  21              		.code	16
  22              		.thumb_func
  23              		.type	Protocol_CmdGetPreSever, %function
  24              	Protocol_CmdGetPreSever:
  25              	.LFB73:
  26              		.file 1 "Code\\UserApp\\Protocol\\CmdProtocol.c"
   1:Code\UserApp\Protocol/CmdProtocol.c **** //*************************************************************************************************
   2:Code\UserApp\Protocol/CmdProtocol.c **** // File name		: x33AppProtocol.c
   3:Code\UserApp\Protocol/CmdProtocol.c **** // Description		: è“ç‰™åè®®ç›¸å…³å‡½æ•°
   4:Code\UserApp\Protocol/CmdProtocol.c **** // Author			: Keno
   5:Code\UserApp\Protocol/CmdProtocol.c **** // Date				: 2016.8.8
   6:Code\UserApp\Protocol/CmdProtocol.c **** // Version			: V02
   7:Code\UserApp\Protocol/CmdProtocol.c **** //-------------------------------------------------------------------------------------------------
   8:Code\UserApp\Protocol/CmdProtocol.c **** // Info				: 
   9:Code\UserApp\Protocol/CmdProtocol.c **** //*************************************************************************************************
  10:Code\UserApp\Protocol/CmdProtocol.c **** #include "CmdProtocol.h"
  11:Code\UserApp\Protocol/CmdProtocol.c **** 
  12:Code\UserApp\Protocol/CmdProtocol.c **** 
  13:Code\UserApp\Protocol/CmdProtocol.c **** 
  14:Code\UserApp\Protocol/CmdProtocol.c **** //******************************************* å¤–éƒ¨å˜é‡å£°æ˜ **********************************
  15:Code\UserApp\Protocol/CmdProtocol.c **** extern uint8 system_version;
  16:Code\UserApp\Protocol/CmdProtocol.c **** 
  17:Code\UserApp\Protocol/CmdProtocol.c **** extern volatile uint8 Mac_Addr[6];
  18:Code\UserApp\Protocol/CmdProtocol.c **** 
  19:Code\UserApp\Protocol/CmdProtocol.c **** extern uint8 domain[200];
  20:Code\UserApp\Protocol/CmdProtocol.c **** extern uint8 pre_ip[200];
  21:Code\UserApp\Protocol/CmdProtocol.c **** extern uint8 pre_port[5];
  22:Code\UserApp\Protocol/CmdProtocol.c **** extern uint8 update_ip[16];
  23:Code\UserApp\Protocol/CmdProtocol.c **** extern uint8 update_port[5];
  24:Code\UserApp\Protocol/CmdProtocol.c **** extern uint8 update_flag;
  25:Code\UserApp\Protocol/CmdProtocol.c **** extern uint16 update_version;
  26:Code\UserApp\Protocol/CmdProtocol.c **** extern uint16 update_page;
  27:Code\UserApp\Protocol/CmdProtocol.c **** #if 0
  28:Code\UserApp\Protocol/CmdProtocol.c **** extern uint16 update_offset;
  29:Code\UserApp\Protocol/CmdProtocol.c **** extern uint16 Image_size;
  30:Code\UserApp\Protocol/CmdProtocol.c **** #endif
  31:Code\UserApp\Protocol/CmdProtocol.c **** 
ARM GAS  C:\Users\Administrator\AppData\Local\Temp\ccX9Bf8z.s 			page 2


  32:Code\UserApp\Protocol/CmdProtocol.c **** extern uint32 update_offset;
  33:Code\UserApp\Protocol/CmdProtocol.c **** extern uint32 Image_size;
  34:Code\UserApp\Protocol/CmdProtocol.c **** 
  35:Code\UserApp\Protocol/CmdProtocol.c **** extern uint8 SendMacFlag;
  36:Code\UserApp\Protocol/CmdProtocol.c **** extern uint8 gprs_state;
  37:Code\UserApp\Protocol/CmdProtocol.c **** 
  38:Code\UserApp\Protocol/CmdProtocol.c **** extern uint8 GPRSCmdParseFlag1;
  39:Code\UserApp\Protocol/CmdProtocol.c **** extern uint8 GPRSCmdParseFlag2;
  40:Code\UserApp\Protocol/CmdProtocol.c **** extern volatile uint8 GPRSCmd_buf1[DATABUF_SIZE];
  41:Code\UserApp\Protocol/CmdProtocol.c **** extern volatile uint8 GPRSCmd_buf2[DATABUF_SIZE];
  42:Code\UserApp\Protocol/CmdProtocol.c **** 
  43:Code\UserApp\Protocol/CmdProtocol.c **** extern volatile uint8  RecvType;
  44:Code\UserApp\Protocol/CmdProtocol.c **** extern volatile uint8  CmdRev_buf[DATABUF_SIZE];
  45:Code\UserApp\Protocol/CmdProtocol.c **** extern volatile uint16 Cmd_Baglen;
  46:Code\UserApp\Protocol/CmdProtocol.c **** extern volatile uint8  Cmd_Revsta;
  47:Code\UserApp\Protocol/CmdProtocol.c **** extern volatile uint16 Cmd_index;
  48:Code\UserApp\Protocol/CmdProtocol.c **** 
  49:Code\UserApp\Protocol/CmdProtocol.c **** extern uint32 cur_time;
  50:Code\UserApp\Protocol/CmdProtocol.c **** extern uint32 next_network_time;
  51:Code\UserApp\Protocol/CmdProtocol.c **** extern uint32 next_heartbeat_time;
  52:Code\UserApp\Protocol/CmdProtocol.c **** extern uint32 next_gprs_operation_time;
  53:Code\UserApp\Protocol/CmdProtocol.c **** extern uint32 next_gprs_upload_time;									// ä¸‹ä¸€æ¬¡GPRSä¸»åŠ¨ä¸ŠæŠ¥æ—¶é—´				//
  54:Code\UserApp\Protocol/CmdProtocol.c **** extern uint32 next_allupload_time;		
  55:Code\UserApp\Protocol/CmdProtocol.c **** extern uint8  uploadpolling_stop;										// è½®è®­ä¸ŠæŠ¥å¼€é—¨ä¿¡æ¯ åœæ­¢ä½				//
  56:Code\UserApp\Protocol/CmdProtocol.c **** 
  57:Code\UserApp\Protocol/CmdProtocol.c **** 
  58:Code\UserApp\Protocol/CmdProtocol.c **** extern uint8  update_timeout_count;
  59:Code\UserApp\Protocol/CmdProtocol.c **** extern volatile uint32 update_timeout_time;
  60:Code\UserApp\Protocol/CmdProtocol.c **** extern volatile uint32 wait_timeout;
  61:Code\UserApp\Protocol/CmdProtocol.c **** extern uint8  gprs_operation_ErrCount;
  62:Code\UserApp\Protocol/CmdProtocol.c **** extern uint8  heartbeat_SendCount;
  63:Code\UserApp\Protocol/CmdProtocol.c **** 
  64:Code\UserApp\Protocol/CmdProtocol.c **** extern uint8  Card_ErrCount;
  65:Code\UserApp\Protocol/CmdProtocol.c **** extern uint8  flag_reboot;
  66:Code\UserApp\Protocol/CmdProtocol.c **** extern uint8  stop_reboot;
  67:Code\UserApp\Protocol/CmdProtocol.c **** 
  68:Code\UserApp\Protocol/CmdProtocol.c **** extern uint8  LED_State;
  69:Code\UserApp\Protocol/CmdProtocol.c **** 
  70:Code\UserApp\Protocol/CmdProtocol.c **** 
  71:Code\UserApp\Protocol/CmdProtocol.c **** //********************************************* å˜é‡å£°æ˜ **************************************
  72:Code\UserApp\Protocol/CmdProtocol.c **** uint16 UploadQty;
  73:Code\UserApp\Protocol/CmdProtocol.c **** uint16 UploadStartnum;
  74:Code\UserApp\Protocol/CmdProtocol.c **** 
  75:Code\UserApp\Protocol/CmdProtocol.c **** 
  76:Code\UserApp\Protocol/CmdProtocol.c **** 
  77:Code\UserApp\Protocol/CmdProtocol.c **** //******************************************* å¤–éƒ¨å‡½æ•°å£°æ˜ **********************************
  78:Code\UserApp\Protocol/CmdProtocol.c **** extern void delay_with_ble(uint32 ms);
  79:Code\UserApp\Protocol/CmdProtocol.c **** extern void ble_heartbeat(void);
  80:Code\UserApp\Protocol/CmdProtocol.c **** extern void Led_RedON(void);
  81:Code\UserApp\Protocol/CmdProtocol.c **** extern void Led_GreenON(void);
  82:Code\UserApp\Protocol/CmdProtocol.c **** extern void Led_SetState(uint8 Sta);
  83:Code\UserApp\Protocol/CmdProtocol.c **** extern void DoorOpen(void);
  84:Code\UserApp\Protocol/CmdProtocol.c **** extern void DoorClose(void);
  85:Code\UserApp\Protocol/CmdProtocol.c **** extern void Updatealarm_check(void);
  86:Code\UserApp\Protocol/CmdProtocol.c **** 
  87:Code\UserApp\Protocol/CmdProtocol.c **** 
  88:Code\UserApp\Protocol/CmdProtocol.c **** int Endpoint_exchange(uint8 card_data[])
ARM GAS  C:\Users\Administrator\AppData\Local\Temp\ccX9Bf8z.s 			page 3


  89:Code\UserApp\Protocol/CmdProtocol.c **** {
  90:Code\UserApp\Protocol/CmdProtocol.c **** 	uint8 databuf[8] = {0};
  91:Code\UserApp\Protocol/CmdProtocol.c **** 
  92:Code\UserApp\Protocol/CmdProtocol.c **** 	DBG_SOFT_PutStr("Endpoint_exchange1:\n");
  93:Code\UserApp\Protocol/CmdProtocol.c **** 	DBG_SOFT_PrintfHex(card_data,8,16);
  94:Code\UserApp\Protocol/CmdProtocol.c **** 	
  95:Code\UserApp\Protocol/CmdProtocol.c **** 	// å¦‚æœæ˜¯Aå¡ å‰/åé¢4Bæ˜¯0 è½¬æ¢ä½ç½® 
  96:Code\UserApp\Protocol/CmdProtocol.c **** 	if((card_data[4] == 0 && card_data[5] == 0 
  97:Code\UserApp\Protocol/CmdProtocol.c **** 	 && card_data[6] == 0 && card_data[7] == 0) ||
  98:Code\UserApp\Protocol/CmdProtocol.c **** 	   (card_data[0] == 0 && card_data[1] == 0 
  99:Code\UserApp\Protocol/CmdProtocol.c **** 	 && card_data[2] == 0 && card_data[3] == 0))
 100:Code\UserApp\Protocol/CmdProtocol.c **** 	{
 101:Code\UserApp\Protocol/CmdProtocol.c **** 		memcpy(databuf+4, card_data, 4);						// å‰4ä¸ªUIDæ‹·è´åˆ°åå››ä¸ª 
 102:Code\UserApp\Protocol/CmdProtocol.c **** 		memcpy(databuf, card_data+4, 4);						// å4ä¸ªUIDæ‹·è´åˆ°å‰å››ä¸ª 
 103:Code\UserApp\Protocol/CmdProtocol.c **** 		
 104:Code\UserApp\Protocol/CmdProtocol.c **** 		memcpy(card_data,databuf,8);							// å…¨éƒ¨è€ƒå›
 105:Code\UserApp\Protocol/CmdProtocol.c **** 	}
 106:Code\UserApp\Protocol/CmdProtocol.c **** 	DBG_SOFT_PutStr("Endpoint_exchange2:\n");
 107:Code\UserApp\Protocol/CmdProtocol.c **** 	DBG_SOFT_PrintfHex(card_data,8,16);
 108:Code\UserApp\Protocol/CmdProtocol.c **** 	return 0;
 109:Code\UserApp\Protocol/CmdProtocol.c **** }
 110:Code\UserApp\Protocol/CmdProtocol.c **** 
 111:Code\UserApp\Protocol/CmdProtocol.c **** 
 112:Code\UserApp\Protocol/CmdProtocol.c **** 
 113:Code\UserApp\Protocol/CmdProtocol.c **** //*************************************************************************************************
 114:Code\UserApp\Protocol/CmdProtocol.c **** // Function name	: Cmd_Protocol_ParaInit
 115:Code\UserApp\Protocol/CmdProtocol.c **** // Description		: å‘½ä»¤ç›¸å…³å‚æ•°åˆå§‹åŒ–
 116:Code\UserApp\Protocol/CmdProtocol.c **** // Parameter		: none
 117:Code\UserApp\Protocol/CmdProtocol.c **** // Return			: none
 118:Code\UserApp\Protocol/CmdProtocol.c **** //-------------------------------------------------------------------------------------------------
 119:Code\UserApp\Protocol/CmdProtocol.c **** // Info				: 
 120:Code\UserApp\Protocol/CmdProtocol.c **** //*************************************************************************************************
 121:Code\UserApp\Protocol/CmdProtocol.c **** void Cmd_Protocol_ParaInit(void)
 122:Code\UserApp\Protocol/CmdProtocol.c **** {
 123:Code\UserApp\Protocol/CmdProtocol.c **** 	RecvType = 0;
 124:Code\UserApp\Protocol/CmdProtocol.c **** 	Cmd_Baglen = 0;
 125:Code\UserApp\Protocol/CmdProtocol.c **** 	Cmd_Revsta = 0;
 126:Code\UserApp\Protocol/CmdProtocol.c **** 	Cmd_index = 0;
 127:Code\UserApp\Protocol/CmdProtocol.c **** 	GPRSCmdParseFlag1 = RESET;
 128:Code\UserApp\Protocol/CmdProtocol.c **** 	GPRSCmdParseFlag2 = RESET;
 129:Code\UserApp\Protocol/CmdProtocol.c **** 	memset((char *)CmdRev_buf, 0, sizeof(CmdRev_buf));
 130:Code\UserApp\Protocol/CmdProtocol.c **** 	memset((char *)GPRSCmd_buf1, 0, sizeof(GPRSCmd_buf1));
 131:Code\UserApp\Protocol/CmdProtocol.c **** 	memset((char *)GPRSCmd_buf2, 0, sizeof(GPRSCmd_buf2));
 132:Code\UserApp\Protocol/CmdProtocol.c **** }
 133:Code\UserApp\Protocol/CmdProtocol.c **** 
 134:Code\UserApp\Protocol/CmdProtocol.c **** //===ã€å¼€å§‹ã€‘===================== ä¸šåŠ¡å±‚ä¸»åŠ¨ä¸ŠæŠ¥æœåŠ¡å™¨æŒ‡ä»¤ =======================
 135:Code\UserApp\Protocol/CmdProtocol.c **** 
 136:Code\UserApp\Protocol/CmdProtocol.c **** //*************************************************************************************************
 137:Code\UserApp\Protocol/CmdProtocol.c **** // Function name	: send_get_forntserviceip
 138:Code\UserApp\Protocol/CmdProtocol.c **** // Description		: è·å–æœåŠ¡å™¨åœ°å€  0x01
 139:Code\UserApp\Protocol/CmdProtocol.c **** // Parameter		: none
 140:Code\UserApp\Protocol/CmdProtocol.c **** // Return			: none
 141:Code\UserApp\Protocol/CmdProtocol.c **** //-------------------------------------------------------------------------------------------------
 142:Code\UserApp\Protocol/CmdProtocol.c **** // è¯´æ˜				: 
 143:Code\UserApp\Protocol/CmdProtocol.c **** //*************************************************************************************************
 144:Code\UserApp\Protocol/CmdProtocol.c **** uint8_t send_get_pre_service_ip(void)
 145:Code\UserApp\Protocol/CmdProtocol.c **** {
ARM GAS  C:\Users\Administrator\AppData\Local\Temp\ccX9Bf8z.s 			page 4


 146:Code\UserApp\Protocol/CmdProtocol.c **** 	uint8 uart_buf[96];
 147:Code\UserApp\Protocol/CmdProtocol.c **** 	uint8 time_arr[4];
 148:Code\UserApp\Protocol/CmdProtocol.c **** 	uint32_t time_tmp;
 149:Code\UserApp\Protocol/CmdProtocol.c **** 	uint16_t TempCrc = 0;
 150:Code\UserApp\Protocol/CmdProtocol.c **** 	uint16_t cnt = 0;
 151:Code\UserApp\Protocol/CmdProtocol.c **** 	uint16_t i = 0;
 152:Code\UserApp\Protocol/CmdProtocol.c **** 	uint16_t pack_len = 0x0F;
 153:Code\UserApp\Protocol/CmdProtocol.c **** 	
 154:Code\UserApp\Protocol/CmdProtocol.c **** 	uart_buf[cnt++] = 0xef;
 155:Code\UserApp\Protocol/CmdProtocol.c **** 	uart_buf[cnt++] = 0x3a;
 156:Code\UserApp\Protocol/CmdProtocol.c **** 	uart_buf[cnt++] = (pack_len >> 8) & 0xFF;					// åŒ…é•¿åº¦é«˜å­—èŠ‚							//
 157:Code\UserApp\Protocol/CmdProtocol.c **** 	uart_buf[cnt++] = pack_len & 0xFF;							// åŒ…é•¿åº¦ä½å­—èŠ‚							//
 158:Code\UserApp\Protocol/CmdProtocol.c **** 	uart_buf[cnt++] = 0x01;
 159:Code\UserApp\Protocol/CmdProtocol.c **** 	uart_buf[cnt++] = 0x01;
 160:Code\UserApp\Protocol/CmdProtocol.c **** 	uart_buf[cnt++] = 0x01;
 161:Code\UserApp\Protocol/CmdProtocol.c **** 	
 162:Code\UserApp\Protocol/CmdProtocol.c **** 	for(i = 0; i < 6; i++)										// MACåœ°å€								//
 163:Code\UserApp\Protocol/CmdProtocol.c **** 	{
 164:Code\UserApp\Protocol/CmdProtocol.c **** 		uart_buf[cnt++] = Mac_Addr[i];
 165:Code\UserApp\Protocol/CmdProtocol.c **** 	}
 166:Code\UserApp\Protocol/CmdProtocol.c **** 	
 167:Code\UserApp\Protocol/CmdProtocol.c **** 	time_tmp = (uint32)RTC_GetUnixTime();						// æ—¶é—´æˆ³								//
 168:Code\UserApp\Protocol/CmdProtocol.c **** 	LONG2BYTE(time_tmp, time_arr);
 169:Code\UserApp\Protocol/CmdProtocol.c **** 	uart_buf[cnt++] = time_arr[0];
 170:Code\UserApp\Protocol/CmdProtocol.c **** 	uart_buf[cnt++] = time_arr[1];
 171:Code\UserApp\Protocol/CmdProtocol.c **** 	uart_buf[cnt++] = time_arr[2];
 172:Code\UserApp\Protocol/CmdProtocol.c **** 	uart_buf[cnt++] = time_arr[3];
 173:Code\UserApp\Protocol/CmdProtocol.c **** 	
 174:Code\UserApp\Protocol/CmdProtocol.c **** 	TempCrc = MyCrc16Check(uart_buf, pack_len + 0x02);			// CRCæ ¡éªŒ								//
 175:Code\UserApp\Protocol/CmdProtocol.c **** 	uart_buf[cnt++] = (TempCrc >> 8) & 0xFF;
 176:Code\UserApp\Protocol/CmdProtocol.c **** 	uart_buf[cnt++] = TempCrc & 0xFF;
 177:Code\UserApp\Protocol/CmdProtocol.c **** 	
 178:Code\UserApp\Protocol/CmdProtocol.c **** 	GPRS_SendHexDataToServer((uint8_t *)uart_buf, ((uart_buf[2] << 8) + uart_buf[3] + 4));
 179:Code\UserApp\Protocol/CmdProtocol.c **** 	return 0;
 180:Code\UserApp\Protocol/CmdProtocol.c **** }
 181:Code\UserApp\Protocol/CmdProtocol.c **** 
 182:Code\UserApp\Protocol/CmdProtocol.c **** //*************************************************************************************************
 183:Code\UserApp\Protocol/CmdProtocol.c **** // Function name	: send_send_mac_and_get_blekey
 184:Code\UserApp\Protocol/CmdProtocol.c **** // Description		: ç”³æŠ¥macå’Œè·å–blekey  0x02
 185:Code\UserApp\Protocol/CmdProtocol.c **** // Parameter		: none
 186:Code\UserApp\Protocol/CmdProtocol.c **** // Return			: none
 187:Code\UserApp\Protocol/CmdProtocol.c **** //-------------------------------------------------------------------------------------------------
 188:Code\UserApp\Protocol/CmdProtocol.c **** // è¯´æ˜				: 
 189:Code\UserApp\Protocol/CmdProtocol.c **** //*************************************************************************************************
 190:Code\UserApp\Protocol/CmdProtocol.c **** uint8_t send_send_mac_and_get_blekey(void)
 191:Code\UserApp\Protocol/CmdProtocol.c **** {
 192:Code\UserApp\Protocol/CmdProtocol.c **** 	uint8 ver;
 193:Code\UserApp\Protocol/CmdProtocol.c **** 	uint8 uart_buf[96];
 194:Code\UserApp\Protocol/CmdProtocol.c **** 	uint8 time_arr[4];
 195:Code\UserApp\Protocol/CmdProtocol.c **** 	uint32_t time_tmp;
 196:Code\UserApp\Protocol/CmdProtocol.c **** 	uint16_t TempCrc = 0;
 197:Code\UserApp\Protocol/CmdProtocol.c **** 	uint16_t cnt = 0;
 198:Code\UserApp\Protocol/CmdProtocol.c **** 	uint16_t i = 0;
 199:Code\UserApp\Protocol/CmdProtocol.c **** 	uint16_t pack_len = 0x11;
 200:Code\UserApp\Protocol/CmdProtocol.c ****     
 201:Code\UserApp\Protocol/CmdProtocol.c **** 	uart_buf[cnt++] = 0xef;
 202:Code\UserApp\Protocol/CmdProtocol.c **** 	uart_buf[cnt++] = 0x3a;
ARM GAS  C:\Users\Administrator\AppData\Local\Temp\ccX9Bf8z.s 			page 5


 203:Code\UserApp\Protocol/CmdProtocol.c **** 	uart_buf[cnt++] = (pack_len >> 8) & 0xFF;					// åŒ…é•¿åº¦é«˜å­—èŠ‚							//
 204:Code\UserApp\Protocol/CmdProtocol.c **** 	uart_buf[cnt++] = pack_len & 0xFF;							// åŒ…é•¿åº¦ä½å­—èŠ‚							//
 205:Code\UserApp\Protocol/CmdProtocol.c **** 	uart_buf[cnt++] = 0x01;
 206:Code\UserApp\Protocol/CmdProtocol.c **** 	uart_buf[cnt++] = 0x01;
 207:Code\UserApp\Protocol/CmdProtocol.c **** 	uart_buf[cnt++] = 0x02;
 208:Code\UserApp\Protocol/CmdProtocol.c **** 	
 209:Code\UserApp\Protocol/CmdProtocol.c **** 	for(i = 0; i < 6; i++)										// MACåœ°å€								//
 210:Code\UserApp\Protocol/CmdProtocol.c **** 	{
 211:Code\UserApp\Protocol/CmdProtocol.c **** 		uart_buf[cnt++] = Mac_Addr[i];
 212:Code\UserApp\Protocol/CmdProtocol.c **** 	}
 213:Code\UserApp\Protocol/CmdProtocol.c **** 
 214:Code\UserApp\Protocol/CmdProtocol.c **** 	ver = system_version;										// å›ºä»¶ç‰ˆæœ¬å·							//
 215:Code\UserApp\Protocol/CmdProtocol.c **** 	uart_buf[cnt++] = (ver >> 8) & 0xFF;
 216:Code\UserApp\Protocol/CmdProtocol.c **** 	uart_buf[cnt++] = ver & 0xFF;
 217:Code\UserApp\Protocol/CmdProtocol.c **** 	    
 218:Code\UserApp\Protocol/CmdProtocol.c **** 	time_tmp = (uint32)RTC_GetUnixTime();						// æ—¶é—´æˆ³								//
 219:Code\UserApp\Protocol/CmdProtocol.c **** 	LONG2BYTE(time_tmp, time_arr);
 220:Code\UserApp\Protocol/CmdProtocol.c **** 	uart_buf[cnt++] = time_arr[0];
 221:Code\UserApp\Protocol/CmdProtocol.c **** 	uart_buf[cnt++] = time_arr[1];
 222:Code\UserApp\Protocol/CmdProtocol.c **** 	uart_buf[cnt++] = time_arr[2];
 223:Code\UserApp\Protocol/CmdProtocol.c **** 	uart_buf[cnt++] = time_arr[3];
 224:Code\UserApp\Protocol/CmdProtocol.c **** 	
 225:Code\UserApp\Protocol/CmdProtocol.c **** 	TempCrc = MyCrc16Check(uart_buf, pack_len + 0x02);			// CRCæ ¡éªŒ								//
 226:Code\UserApp\Protocol/CmdProtocol.c **** 	uart_buf[cnt++] = (TempCrc >> 8) & 0xFF;
 227:Code\UserApp\Protocol/CmdProtocol.c **** 	uart_buf[cnt++] = TempCrc & 0xFF;
 228:Code\UserApp\Protocol/CmdProtocol.c **** 	
 229:Code\UserApp\Protocol/CmdProtocol.c **** 	GPRS_SendHexDataToServer((uint8_t *)uart_buf, ((uart_buf[2] << 8) + uart_buf[3] + 4));
 230:Code\UserApp\Protocol/CmdProtocol.c **** 	return 0;
 231:Code\UserApp\Protocol/CmdProtocol.c **** }
 232:Code\UserApp\Protocol/CmdProtocol.c **** 
 233:Code\UserApp\Protocol/CmdProtocol.c **** 
 234:Code\UserApp\Protocol/CmdProtocol.c **** //*************************************************************************************************
 235:Code\UserApp\Protocol/CmdProtocol.c **** // Function name	: send_upload_open_info
 236:Code\UserApp\Protocol/CmdProtocol.c **** // Description		: å¼€é—¨ä¿¡æ¯ä¸ŠæŠ¥  0x07
 237:Code\UserApp\Protocol/CmdProtocol.c **** // Parameter		: open_info	: å¼€é—¨ä¿¡æ¯
 238:Code\UserApp\Protocol/CmdProtocol.c **** //					: uidlen	: UIDé•¿åº¦
 239:Code\UserApp\Protocol/CmdProtocol.c **** //					: open_mode	: å¼€é—¨æ–¹å¼
 240:Code\UserApp\Protocol/CmdProtocol.c **** // Return			: none
 241:Code\UserApp\Protocol/CmdProtocol.c **** //-------------------------------------------------------------------------------------------------
 242:Code\UserApp\Protocol/CmdProtocol.c **** // è¯´æ˜				: 
 243:Code\UserApp\Protocol/CmdProtocol.c **** //*************************************************************************************************
 244:Code\UserApp\Protocol/CmdProtocol.c **** uint8_t send_upload_open_info(open_door_t* open_info, uint8_t uidlen, uint8_t open_mode)
 245:Code\UserApp\Protocol/CmdProtocol.c **** {
 246:Code\UserApp\Protocol/CmdProtocol.c **** 	uint8 uart_buf[96];
 247:Code\UserApp\Protocol/CmdProtocol.c **** 	uint8 time_arr[4];
 248:Code\UserApp\Protocol/CmdProtocol.c **** 	uint32_t time_tmp;
 249:Code\UserApp\Protocol/CmdProtocol.c **** 	uint16_t TempCrc = 0;
 250:Code\UserApp\Protocol/CmdProtocol.c **** 	uint16_t cnt = 0;
 251:Code\UserApp\Protocol/CmdProtocol.c **** 	uint16_t i = 0;
 252:Code\UserApp\Protocol/CmdProtocol.c **** 	open_door_t *pstr = open_info;
 253:Code\UserApp\Protocol/CmdProtocol.c ****     uint16_t pack_len = 0x1c;
 254:Code\UserApp\Protocol/CmdProtocol.c **** 		
 255:Code\UserApp\Protocol/CmdProtocol.c **** 	uart_buf[cnt++] = 0xef;
 256:Code\UserApp\Protocol/CmdProtocol.c **** 	uart_buf[cnt++] = 0x3a;
 257:Code\UserApp\Protocol/CmdProtocol.c **** 	uart_buf[cnt++] = (pack_len >> 8) & 0xFF;					// åŒ…é•¿åº¦é«˜å­—èŠ‚							//
 258:Code\UserApp\Protocol/CmdProtocol.c **** 	uart_buf[cnt++] = pack_len & 0xFF;							// åŒ…é•¿åº¦ä½å­—èŠ‚							//
 259:Code\UserApp\Protocol/CmdProtocol.c **** 	uart_buf[cnt++] = 0x01;
ARM GAS  C:\Users\Administrator\AppData\Local\Temp\ccX9Bf8z.s 			page 6


 260:Code\UserApp\Protocol/CmdProtocol.c **** 	uart_buf[cnt++] = 0x01;
 261:Code\UserApp\Protocol/CmdProtocol.c **** 	uart_buf[cnt++] = 0x07;
 262:Code\UserApp\Protocol/CmdProtocol.c **** 	
 263:Code\UserApp\Protocol/CmdProtocol.c **** 	for(i = 0; i < 6; i++)										// MACåœ°å€								//
 264:Code\UserApp\Protocol/CmdProtocol.c **** 	{
 265:Code\UserApp\Protocol/CmdProtocol.c **** 		uart_buf[cnt++] = Mac_Addr[i];
 266:Code\UserApp\Protocol/CmdProtocol.c **** 	}
 267:Code\UserApp\Protocol/CmdProtocol.c **** 	
 268:Code\UserApp\Protocol/CmdProtocol.c **** 	Endpoint_exchange(pstr->card_uid);							// Aå¡æ•°æ®ä½ç½®è½¬æ¢ @ 18-1-17			//
 269:Code\UserApp\Protocol/CmdProtocol.c **** 	{
 270:Code\UserApp\Protocol/CmdProtocol.c **** 		for(i = 0; i < uidlen; i++)								// Bå¡ä¸å˜								//
 271:Code\UserApp\Protocol/CmdProtocol.c **** 		{
 272:Code\UserApp\Protocol/CmdProtocol.c **** 			uart_buf[cnt++] = pstr->card_uid[i];
 273:Code\UserApp\Protocol/CmdProtocol.c **** 		}
 274:Code\UserApp\Protocol/CmdProtocol.c **** 	}
 275:Code\UserApp\Protocol/CmdProtocol.c **** 	
 276:Code\UserApp\Protocol/CmdProtocol.c **** 	uart_buf[cnt++] = open_mode;								// å¼€é—¨æ–¹å¼								//
 277:Code\UserApp\Protocol/CmdProtocol.c **** 	
 278:Code\UserApp\Protocol/CmdProtocol.c **** 	uart_buf[cnt++] = pstr->open_time[0];						// å¼€é—¨æ—¶é—´								//
 279:Code\UserApp\Protocol/CmdProtocol.c **** 	uart_buf[cnt++] = pstr->open_time[1];
 280:Code\UserApp\Protocol/CmdProtocol.c **** 	uart_buf[cnt++] = pstr->open_time[2];
 281:Code\UserApp\Protocol/CmdProtocol.c **** 	uart_buf[cnt++] = pstr->open_time[3];
 282:Code\UserApp\Protocol/CmdProtocol.c **** 	
 283:Code\UserApp\Protocol/CmdProtocol.c **** 	time_tmp = (uint32)RTC_GetUnixTime();						// æ—¶é—´æˆ³								//
 284:Code\UserApp\Protocol/CmdProtocol.c **** 	LONG2BYTE(time_tmp, time_arr);
 285:Code\UserApp\Protocol/CmdProtocol.c **** 	uart_buf[cnt++] = time_arr[0];
 286:Code\UserApp\Protocol/CmdProtocol.c **** 	uart_buf[cnt++] = time_arr[1];
 287:Code\UserApp\Protocol/CmdProtocol.c **** 	uart_buf[cnt++] = time_arr[2];
 288:Code\UserApp\Protocol/CmdProtocol.c **** 	uart_buf[cnt++] = time_arr[3];
 289:Code\UserApp\Protocol/CmdProtocol.c **** 	
 290:Code\UserApp\Protocol/CmdProtocol.c **** 	TempCrc = MyCrc16Check(uart_buf, pack_len + 0x02);			// CRCæ ¡éªŒ								//
 291:Code\UserApp\Protocol/CmdProtocol.c **** 	uart_buf[cnt++] = (TempCrc >> 8) & 0xFF;
 292:Code\UserApp\Protocol/CmdProtocol.c **** 	uart_buf[cnt++] = TempCrc & 0xFF;
 293:Code\UserApp\Protocol/CmdProtocol.c **** 	
 294:Code\UserApp\Protocol/CmdProtocol.c **** 	cur_time = (uint32)RTC_GetUnixTime();
 295:Code\UserApp\Protocol/CmdProtocol.c **** 	if ((cur_time + 300) > next_heartbeat_time)					// ä¸‹ä¸€æ¬¡å¿ƒè·³åœ¨5minä»¥å†…					//
 296:Code\UserApp\Protocol/CmdProtocol.c **** 	{
 297:Code\UserApp\Protocol/CmdProtocol.c **** 		next_heartbeat_time = cur_time + 300;
 298:Code\UserApp\Protocol/CmdProtocol.c **** 	}
 299:Code\UserApp\Protocol/CmdProtocol.c **** 	
 300:Code\UserApp\Protocol/CmdProtocol.c **** 	if ((cur_time + 60) > next_gprs_upload_time)				// ä¸‹æ¬¡è½®è¯¢ä¸ŠæŠ¥çš„æ—¶é—´å»¶é•¿1min æ‰¾ç©ºé—²
 301:Code\UserApp\Protocol/CmdProtocol.c **** 	{
 302:Code\UserApp\Protocol/CmdProtocol.c **** 		next_gprs_upload_time = cur_time + 60;
 303:Code\UserApp\Protocol/CmdProtocol.c **** 	}
 304:Code\UserApp\Protocol/CmdProtocol.c **** 	#if 0
 305:Code\UserApp\Protocol/CmdProtocol.c **** 	if ((cur_time + 15) > next_allupload_time)					// ä¸‹æ¬¡ç«‹å³å¼€é—¨ä¸ŠæŠ¥çš„æ—¶é—´å»¶é•¿15s æ‰¾ç©
 306:Code\UserApp\Protocol/CmdProtocol.c **** 	{
 307:Code\UserApp\Protocol/CmdProtocol.c **** 		next_allupload_time = cur_time + 15;
 308:Code\UserApp\Protocol/CmdProtocol.c **** 	}
 309:Code\UserApp\Protocol/CmdProtocol.c **** 	#endif
 310:Code\UserApp\Protocol/CmdProtocol.c **** 	GPRS_SendHexDataToServer((uint8_t *)uart_buf, ((uart_buf[2] << 8) + uart_buf[3] + 4));
 311:Code\UserApp\Protocol/CmdProtocol.c **** 	
 312:Code\UserApp\Protocol/CmdProtocol.c **** 	uploadpolling_stop = 0;
 313:Code\UserApp\Protocol/CmdProtocol.c **** 	return 0;
 314:Code\UserApp\Protocol/CmdProtocol.c **** }
 315:Code\UserApp\Protocol/CmdProtocol.c **** 
 316:Code\UserApp\Protocol/CmdProtocol.c **** //*************************************************************************************************
ARM GAS  C:\Users\Administrator\AppData\Local\Temp\ccX9Bf8z.s 			page 7


 317:Code\UserApp\Protocol/CmdProtocol.c **** // Function name	: send_heartbeat
 318:Code\UserApp\Protocol/CmdProtocol.c **** // Description		: å¿ƒè·³åŒ…  0x08
 319:Code\UserApp\Protocol/CmdProtocol.c **** // Parameter		: lock_state	: é”å…·çŠ¶æ€
 320:Code\UserApp\Protocol/CmdProtocol.c **** // Return			: none
 321:Code\UserApp\Protocol/CmdProtocol.c **** //-------------------------------------------------------------------------------------------------
 322:Code\UserApp\Protocol/CmdProtocol.c **** // è¯´æ˜				: 
 323:Code\UserApp\Protocol/CmdProtocol.c **** //*************************************************************************************************
 324:Code\UserApp\Protocol/CmdProtocol.c **** uint8_t send_heartbeat(uint8_t lock_state)
 325:Code\UserApp\Protocol/CmdProtocol.c **** {
 326:Code\UserApp\Protocol/CmdProtocol.c **** 	uint8 uart_buf[96];
 327:Code\UserApp\Protocol/CmdProtocol.c **** 	uint8 time_arr[4];
 328:Code\UserApp\Protocol/CmdProtocol.c **** 	uint32_t time_tmp;
 329:Code\UserApp\Protocol/CmdProtocol.c **** 	uint16_t TempCrc = 0;
 330:Code\UserApp\Protocol/CmdProtocol.c **** 	uint16_t cnt = 0;
 331:Code\UserApp\Protocol/CmdProtocol.c **** 	uint16_t i = 0;
 332:Code\UserApp\Protocol/CmdProtocol.c **** 	uint16_t pack_len = 0x10;
 333:Code\UserApp\Protocol/CmdProtocol.c **** 
 334:Code\UserApp\Protocol/CmdProtocol.c **** 		
 335:Code\UserApp\Protocol/CmdProtocol.c **** 	uart_buf[cnt++] = 0xef;
 336:Code\UserApp\Protocol/CmdProtocol.c **** 	uart_buf[cnt++] = 0x3a;
 337:Code\UserApp\Protocol/CmdProtocol.c **** 	uart_buf[cnt++] = (pack_len >> 8) & 0xFF;					// åŒ…é•¿åº¦é«˜å­—èŠ‚							//
 338:Code\UserApp\Protocol/CmdProtocol.c **** 	uart_buf[cnt++] = pack_len & 0xFF;							// åŒ…é•¿åº¦ä½å­—èŠ‚							//
 339:Code\UserApp\Protocol/CmdProtocol.c **** 	uart_buf[cnt++] = 0x01;
 340:Code\UserApp\Protocol/CmdProtocol.c **** 	uart_buf[cnt++] = 0x01;
 341:Code\UserApp\Protocol/CmdProtocol.c **** 	uart_buf[cnt++] = 0x08;
 342:Code\UserApp\Protocol/CmdProtocol.c **** 	
 343:Code\UserApp\Protocol/CmdProtocol.c **** 	for(i = 0; i < 6; i++)										// MACåœ°å€								//
 344:Code\UserApp\Protocol/CmdProtocol.c **** 	{
 345:Code\UserApp\Protocol/CmdProtocol.c **** 		uart_buf[cnt++] = Mac_Addr[i];
 346:Code\UserApp\Protocol/CmdProtocol.c **** 	}
 347:Code\UserApp\Protocol/CmdProtocol.c **** 	
 348:Code\UserApp\Protocol/CmdProtocol.c **** 	uart_buf[cnt++] = lock_state;								// é”å…·çŠ¶æ€								//
 349:Code\UserApp\Protocol/CmdProtocol.c **** 	#if DEF_RSSI
 350:Code\UserApp\Protocol/CmdProtocol.c **** 	Rssi = GPRS_QueryRssi();
 351:Code\UserApp\Protocol/CmdProtocol.c **** 	uart_buf[cnt++] = Rssi;										// GPRSæ¨¡å—ä¿¡å·å¼ºåº¦	@10.31.9.00			//
 352:Code\UserApp\Protocol/CmdProtocol.c **** 	#endif
 353:Code\UserApp\Protocol/CmdProtocol.c **** 	
 354:Code\UserApp\Protocol/CmdProtocol.c **** 	time_tmp = (uint32)RTC_GetUnixTime();						// æ—¶é—´æˆ³								//
 355:Code\UserApp\Protocol/CmdProtocol.c **** 	LONG2BYTE(time_tmp, time_arr);
 356:Code\UserApp\Protocol/CmdProtocol.c **** 	uart_buf[cnt++] = time_arr[0];
 357:Code\UserApp\Protocol/CmdProtocol.c **** 	uart_buf[cnt++] = time_arr[1];
 358:Code\UserApp\Protocol/CmdProtocol.c **** 	uart_buf[cnt++] = time_arr[2];
 359:Code\UserApp\Protocol/CmdProtocol.c **** 	uart_buf[cnt++] = time_arr[3];
 360:Code\UserApp\Protocol/CmdProtocol.c **** 	
 361:Code\UserApp\Protocol/CmdProtocol.c **** 	TempCrc = MyCrc16Check(uart_buf, pack_len + 0x02);			// CRCæ ¡éªŒ								//
 362:Code\UserApp\Protocol/CmdProtocol.c **** 	uart_buf[cnt++] = (TempCrc >> 8) & 0xFF;
 363:Code\UserApp\Protocol/CmdProtocol.c **** 	uart_buf[cnt++] = TempCrc & 0xFF;
 364:Code\UserApp\Protocol/CmdProtocol.c **** 	//DBG_SOFT_PutStr("\nsend_heartbeat:\n");
 365:Code\UserApp\Protocol/CmdProtocol.c **** 	//DBG_SOFT_PrintfHex(uart_buf,32,16);
 366:Code\UserApp\Protocol/CmdProtocol.c **** 	GPRS_SendHexDataToServer((uint8_t *)uart_buf, ((uart_buf[2] << 8) + uart_buf[3] + 4));
 367:Code\UserApp\Protocol/CmdProtocol.c **** 	
 368:Code\UserApp\Protocol/CmdProtocol.c ****     return 0;
 369:Code\UserApp\Protocol/CmdProtocol.c **** }
 370:Code\UserApp\Protocol/CmdProtocol.c **** 
 371:Code\UserApp\Protocol/CmdProtocol.c **** //*************************************************************************************************
 372:Code\UserApp\Protocol/CmdProtocol.c **** // Function name	: send_timeadjust
 373:Code\UserApp\Protocol/CmdProtocol.c **** // Description		: æ—¶é—´æ ¡å‡†  0x0A
ARM GAS  C:\Users\Administrator\AppData\Local\Temp\ccX9Bf8z.s 			page 8


 374:Code\UserApp\Protocol/CmdProtocol.c **** // Parameter		: none
 375:Code\UserApp\Protocol/CmdProtocol.c **** // Return			: none
 376:Code\UserApp\Protocol/CmdProtocol.c **** //-------------------------------------------------------------------------------------------------
 377:Code\UserApp\Protocol/CmdProtocol.c **** // è¯´æ˜				: 
 378:Code\UserApp\Protocol/CmdProtocol.c **** //*************************************************************************************************
 379:Code\UserApp\Protocol/CmdProtocol.c **** uint8_t send_time_adjust(void)
 380:Code\UserApp\Protocol/CmdProtocol.c **** {
 381:Code\UserApp\Protocol/CmdProtocol.c **** 	uint8 uart_buf[96];
 382:Code\UserApp\Protocol/CmdProtocol.c **** 	uint16_t TempCrc = 0;
 383:Code\UserApp\Protocol/CmdProtocol.c **** 	uint16_t cnt = 0;
 384:Code\UserApp\Protocol/CmdProtocol.c **** 	uint16_t i = 0;
 385:Code\UserApp\Protocol/CmdProtocol.c **** 	uint16_t pack_len = 0x0D;
 386:Code\UserApp\Protocol/CmdProtocol.c **** 	
 387:Code\UserApp\Protocol/CmdProtocol.c **** 	uart_buf[cnt++] = 0xef;
 388:Code\UserApp\Protocol/CmdProtocol.c **** 	uart_buf[cnt++] = 0x3a;
 389:Code\UserApp\Protocol/CmdProtocol.c **** 	uart_buf[cnt++] = (pack_len >> 8) & 0xFF;					// åŒ…é•¿åº¦é«˜å­—èŠ‚							//
 390:Code\UserApp\Protocol/CmdProtocol.c **** 	uart_buf[cnt++] = pack_len & 0xFF;							// åŒ…é•¿åº¦ä½å­—èŠ‚							//
 391:Code\UserApp\Protocol/CmdProtocol.c **** 	uart_buf[cnt++] = 0x01;
 392:Code\UserApp\Protocol/CmdProtocol.c **** 	uart_buf[cnt++] = 0x01;
 393:Code\UserApp\Protocol/CmdProtocol.c **** 	uart_buf[cnt++] = 0x0A;
 394:Code\UserApp\Protocol/CmdProtocol.c **** 	
 395:Code\UserApp\Protocol/CmdProtocol.c **** 	for(i = 0; i < 6; i++)										// MACåœ°å€								//
 396:Code\UserApp\Protocol/CmdProtocol.c **** 	{
 397:Code\UserApp\Protocol/CmdProtocol.c **** 		uart_buf[cnt++] = Mac_Addr[i];
 398:Code\UserApp\Protocol/CmdProtocol.c **** 	}
 399:Code\UserApp\Protocol/CmdProtocol.c **** 	
 400:Code\UserApp\Protocol/CmdProtocol.c **** 	uart_buf[cnt++] = 0xff;										// æ—¶é—´æˆ³								//
 401:Code\UserApp\Protocol/CmdProtocol.c **** 	uart_buf[cnt++] = 0xff;
 402:Code\UserApp\Protocol/CmdProtocol.c **** 	uart_buf[cnt++] = 0xff;
 403:Code\UserApp\Protocol/CmdProtocol.c **** 	uart_buf[cnt++] = 0xff;
 404:Code\UserApp\Protocol/CmdProtocol.c **** 	
 405:Code\UserApp\Protocol/CmdProtocol.c **** 	TempCrc = MyCrc16Check(uart_buf, pack_len + 0x02);			// CRCæ ¡éªŒ								//
 406:Code\UserApp\Protocol/CmdProtocol.c **** 	uart_buf[cnt++] = (TempCrc >> 8) & 0xFF;
 407:Code\UserApp\Protocol/CmdProtocol.c **** 	uart_buf[cnt++] = TempCrc & 0xFF;
 408:Code\UserApp\Protocol/CmdProtocol.c **** 	
 409:Code\UserApp\Protocol/CmdProtocol.c **** 	cur_time = (uint32)RTC_GetUnixTime();
 410:Code\UserApp\Protocol/CmdProtocol.c **** 	if ((cur_time + 300) > next_heartbeat_time)					// ä¸‹ä¸€æ¬¡å¿ƒè·³åœ¨5minä»¥å†…					//
 411:Code\UserApp\Protocol/CmdProtocol.c **** 	{
 412:Code\UserApp\Protocol/CmdProtocol.c **** 		next_heartbeat_time = cur_time + 300;
 413:Code\UserApp\Protocol/CmdProtocol.c **** 	}
 414:Code\UserApp\Protocol/CmdProtocol.c **** 	GPRS_SendHexDataToServer((uint8_t *)uart_buf, ((uart_buf[2] << 8) + uart_buf[3] + 4));
 415:Code\UserApp\Protocol/CmdProtocol.c **** 	return 0;
 416:Code\UserApp\Protocol/CmdProtocol.c **** }
 417:Code\UserApp\Protocol/CmdProtocol.c **** 
 418:Code\UserApp\Protocol/CmdProtocol.c **** //*************************************************************************************************
 419:Code\UserApp\Protocol/CmdProtocol.c **** // Function name	: send_alarminfo
 420:Code\UserApp\Protocol/CmdProtocol.c **** // Description		: æŠ¥è­¦ä¿¡æ¯ä¸Šä¼   0x0B
 421:Code\UserApp\Protocol/CmdProtocol.c **** // Parameter		: none
 422:Code\UserApp\Protocol/CmdProtocol.c **** // Return			: none
 423:Code\UserApp\Protocol/CmdProtocol.c **** //-------------------------------------------------------------------------------------------------
 424:Code\UserApp\Protocol/CmdProtocol.c **** // è¯´æ˜				: 
 425:Code\UserApp\Protocol/CmdProtocol.c **** //*************************************************************************************************
 426:Code\UserApp\Protocol/CmdProtocol.c **** uint8_t send_alarm_info(uint8_t alarm_mode)
 427:Code\UserApp\Protocol/CmdProtocol.c **** {
 428:Code\UserApp\Protocol/CmdProtocol.c **** 	uint8 uart_buf[96];
 429:Code\UserApp\Protocol/CmdProtocol.c **** 	uint8 time_arr[4];
 430:Code\UserApp\Protocol/CmdProtocol.c **** 	uint32_t time_tmp;
ARM GAS  C:\Users\Administrator\AppData\Local\Temp\ccX9Bf8z.s 			page 9


 431:Code\UserApp\Protocol/CmdProtocol.c **** 	uint16_t TempCrc = 0;
 432:Code\UserApp\Protocol/CmdProtocol.c **** 	uint16_t cnt = 0;
 433:Code\UserApp\Protocol/CmdProtocol.c **** 	uint16_t i = 0;
 434:Code\UserApp\Protocol/CmdProtocol.c **** 	uint16_t pack_len = 0x10;
 435:Code\UserApp\Protocol/CmdProtocol.c **** 	
 436:Code\UserApp\Protocol/CmdProtocol.c **** 	uart_buf[cnt++] = 0xef;
 437:Code\UserApp\Protocol/CmdProtocol.c **** 	uart_buf[cnt++] = 0x3a;
 438:Code\UserApp\Protocol/CmdProtocol.c **** 	uart_buf[cnt++] = (pack_len >> 8) & 0xFF;					// åŒ…é•¿åº¦é«˜å­—èŠ‚							//
 439:Code\UserApp\Protocol/CmdProtocol.c **** 	uart_buf[cnt++] = pack_len & 0xFF;							// åŒ…é•¿åº¦ä½å­—èŠ‚							//
 440:Code\UserApp\Protocol/CmdProtocol.c **** 	uart_buf[cnt++] = 0x01;
 441:Code\UserApp\Protocol/CmdProtocol.c **** 	uart_buf[cnt++] = 0x01;
 442:Code\UserApp\Protocol/CmdProtocol.c **** 	uart_buf[cnt++] = 0x0B;
 443:Code\UserApp\Protocol/CmdProtocol.c **** 	
 444:Code\UserApp\Protocol/CmdProtocol.c **** 	for(i = 0; i < 6; i++)										// MACåœ°å€								//
 445:Code\UserApp\Protocol/CmdProtocol.c **** 	{
 446:Code\UserApp\Protocol/CmdProtocol.c **** 		uart_buf[cnt++] = Mac_Addr[i];
 447:Code\UserApp\Protocol/CmdProtocol.c **** 	}
 448:Code\UserApp\Protocol/CmdProtocol.c **** 	
 449:Code\UserApp\Protocol/CmdProtocol.c **** 	uart_buf[cnt++] = alarm_mode;								// æŠ¥è­¦ç±»å‹								//
 450:Code\UserApp\Protocol/CmdProtocol.c **** 	
 451:Code\UserApp\Protocol/CmdProtocol.c **** 	time_tmp = (uint32)RTC_GetUnixTime();						// æ—¶é—´æˆ³								//
 452:Code\UserApp\Protocol/CmdProtocol.c **** 	LONG2BYTE(time_tmp, time_arr);
 453:Code\UserApp\Protocol/CmdProtocol.c **** 	uart_buf[cnt++] = time_arr[0];
 454:Code\UserApp\Protocol/CmdProtocol.c **** 	uart_buf[cnt++] = time_arr[1];
 455:Code\UserApp\Protocol/CmdProtocol.c **** 	uart_buf[cnt++] = time_arr[2];
 456:Code\UserApp\Protocol/CmdProtocol.c **** 	uart_buf[cnt++] = time_arr[3];
 457:Code\UserApp\Protocol/CmdProtocol.c **** 	
 458:Code\UserApp\Protocol/CmdProtocol.c **** 	TempCrc = MyCrc16Check(uart_buf, pack_len + 0x02);			// CRCæ ¡éªŒ								//
 459:Code\UserApp\Protocol/CmdProtocol.c **** 	uart_buf[cnt++] = (TempCrc >> 8) & 0xFF;
 460:Code\UserApp\Protocol/CmdProtocol.c **** 	uart_buf[cnt++] = TempCrc & 0xFF;
 461:Code\UserApp\Protocol/CmdProtocol.c **** 	
 462:Code\UserApp\Protocol/CmdProtocol.c **** 	cur_time = (uint32)RTC_GetUnixTime();
 463:Code\UserApp\Protocol/CmdProtocol.c **** 	if ((cur_time + 300) > next_heartbeat_time)					// ä¸‹ä¸€æ¬¡å¿ƒè·³åœ¨5minä»¥å†…					//
 464:Code\UserApp\Protocol/CmdProtocol.c **** 	{
 465:Code\UserApp\Protocol/CmdProtocol.c **** 		next_heartbeat_time = cur_time + 300;
 466:Code\UserApp\Protocol/CmdProtocol.c **** 	}
 467:Code\UserApp\Protocol/CmdProtocol.c **** 	GPRS_SendHexDataToServer((uint8_t *)uart_buf, ((uart_buf[2] << 8) + uart_buf[3] + 4));
 468:Code\UserApp\Protocol/CmdProtocol.c **** 	return 0;
 469:Code\UserApp\Protocol/CmdProtocol.c **** }
 470:Code\UserApp\Protocol/CmdProtocol.c **** 
 471:Code\UserApp\Protocol/CmdProtocol.c **** 
 472:Code\UserApp\Protocol/CmdProtocol.c **** //*************************************************************************************************
 473:Code\UserApp\Protocol/CmdProtocol.c **** // Function name	: send_update_req(uint16 page)
 474:Code\UserApp\Protocol/CmdProtocol.c **** // Description		: è¯·æ±‚ä¸‹å‘å‡çº§åŒ…  0x0F
 475:Code\UserApp\Protocol/CmdProtocol.c **** // Parameter		: none
 476:Code\UserApp\Protocol/CmdProtocol.c **** // Return			: none
 477:Code\UserApp\Protocol/CmdProtocol.c **** //-------------------------------------------------------------------------------------------------
 478:Code\UserApp\Protocol/CmdProtocol.c **** // è¯´æ˜				: 
 479:Code\UserApp\Protocol/CmdProtocol.c **** //*************************************************************************************************
 480:Code\UserApp\Protocol/CmdProtocol.c **** uint8_t send_update_req(uint16 page)
 481:Code\UserApp\Protocol/CmdProtocol.c **** {
 482:Code\UserApp\Protocol/CmdProtocol.c **** 	uint8 uart_buf[96];
 483:Code\UserApp\Protocol/CmdProtocol.c **** 	uint8 time_arr[4];
 484:Code\UserApp\Protocol/CmdProtocol.c **** 	uint32_t time_tmp;
 485:Code\UserApp\Protocol/CmdProtocol.c **** 	uint16_t TempCrc = 0;
 486:Code\UserApp\Protocol/CmdProtocol.c **** 	uint16_t cnt = 0;
 487:Code\UserApp\Protocol/CmdProtocol.c **** 	uint16_t i = 0;
ARM GAS  C:\Users\Administrator\AppData\Local\Temp\ccX9Bf8z.s 			page 10


 488:Code\UserApp\Protocol/CmdProtocol.c **** 	uint16_t pack_len = 0x13;
 489:Code\UserApp\Protocol/CmdProtocol.c **** 	
 490:Code\UserApp\Protocol/CmdProtocol.c **** 	uart_buf[cnt++] = 0xef;
 491:Code\UserApp\Protocol/CmdProtocol.c **** 	uart_buf[cnt++] = 0x3a;
 492:Code\UserApp\Protocol/CmdProtocol.c **** 	uart_buf[cnt++] = (pack_len >> 8) & 0xFF;					// åŒ…é•¿åº¦é«˜å­—èŠ‚							//
 493:Code\UserApp\Protocol/CmdProtocol.c **** 	uart_buf[cnt++] = pack_len & 0xFF;							// åŒ…é•¿åº¦ä½å­—èŠ‚							//
 494:Code\UserApp\Protocol/CmdProtocol.c **** 	uart_buf[cnt++] = 0x01;
 495:Code\UserApp\Protocol/CmdProtocol.c **** 	uart_buf[cnt++] = 0x01;
 496:Code\UserApp\Protocol/CmdProtocol.c **** 	uart_buf[cnt++] = 0x0F;
 497:Code\UserApp\Protocol/CmdProtocol.c **** 	
 498:Code\UserApp\Protocol/CmdProtocol.c **** 	for(i = 0; i < 6; i++)										// MACåœ°å€								//
 499:Code\UserApp\Protocol/CmdProtocol.c **** 	{
 500:Code\UserApp\Protocol/CmdProtocol.c **** 		uart_buf[cnt++] = Mac_Addr[i];
 501:Code\UserApp\Protocol/CmdProtocol.c **** 	}
 502:Code\UserApp\Protocol/CmdProtocol.c **** 	
 503:Code\UserApp\Protocol/CmdProtocol.c **** 	uart_buf[cnt++] = (page >> 8) & 0xFF;						// ç»„å·
 504:Code\UserApp\Protocol/CmdProtocol.c **** 	uart_buf[cnt++] = page & 0xFF;	
 505:Code\UserApp\Protocol/CmdProtocol.c **** 	
 506:Code\UserApp\Protocol/CmdProtocol.c **** 	uart_buf[cnt++] = (update_version>> 8) & 0xFF;				// å‡çº§ç‰ˆæœ¬
 507:Code\UserApp\Protocol/CmdProtocol.c **** 	uart_buf[cnt++] = update_version & 0xFF;								
 508:Code\UserApp\Protocol/CmdProtocol.c **** 		
 509:Code\UserApp\Protocol/CmdProtocol.c **** 	time_tmp = (uint32)RTC_GetUnixTime();						// æ—¶é—´æˆ³								//
 510:Code\UserApp\Protocol/CmdProtocol.c **** 	LONG2BYTE(time_tmp, time_arr);
 511:Code\UserApp\Protocol/CmdProtocol.c **** 	uart_buf[cnt++] = time_arr[0];
 512:Code\UserApp\Protocol/CmdProtocol.c **** 	uart_buf[cnt++] = time_arr[1];
 513:Code\UserApp\Protocol/CmdProtocol.c **** 	uart_buf[cnt++] = time_arr[2];
 514:Code\UserApp\Protocol/CmdProtocol.c **** 	uart_buf[cnt++] = time_arr[3];
 515:Code\UserApp\Protocol/CmdProtocol.c **** 
 516:Code\UserApp\Protocol/CmdProtocol.c **** 	TempCrc = MyCrc16Check(uart_buf, pack_len + 0x02);			// CRCæ ¡éªŒ								//
 517:Code\UserApp\Protocol/CmdProtocol.c **** 	uart_buf[cnt++] = (TempCrc >> 8) & 0xFF;
 518:Code\UserApp\Protocol/CmdProtocol.c **** 	uart_buf[cnt++] = TempCrc & 0xFF;
 519:Code\UserApp\Protocol/CmdProtocol.c **** 	GPRS_SendHexDataToServer((uint8_t *)uart_buf, ((uart_buf[2] << 8) + uart_buf[3] + 4));
 520:Code\UserApp\Protocol/CmdProtocol.c **** 	
 521:Code\UserApp\Protocol/CmdProtocol.c **** 	return 0;
 522:Code\UserApp\Protocol/CmdProtocol.c **** }
 523:Code\UserApp\Protocol/CmdProtocol.c **** 
 524:Code\UserApp\Protocol/CmdProtocol.c **** //*************************************************************************************************
 525:Code\UserApp\Protocol/CmdProtocol.c **** // Function name	: Protocol_SendAckPacket
 526:Code\UserApp\Protocol/CmdProtocol.c **** // Description		: å‘APP(è“ç‰™)å‘é€æ ‡å‡†åº”ç­”åŒ…
 527:Code\UserApp\Protocol/CmdProtocol.c **** // Parameter		: uint8 CommChanle		ä¿¡é“
 528:Code\UserApp\Protocol/CmdProtocol.c **** //                  : uint8 cPackType       0-å‘é€åŒ…ï¼Œ1-åº”ç­”åŒ…
 529:Code\UserApp\Protocol/CmdProtocol.c **** //                  : uint8 cCmd           	å‘½ä»¤ç 
 530:Code\UserApp\Protocol/CmdProtocol.c **** //				    : uint8 *UserData		å¾…å‘é€çš„ç”¨æˆ·æ•°æ®(å†…å®¹)
 531:Code\UserApp\Protocol/CmdProtocol.c **** //				    : uint16 UserDataLen	å¾…å‘é€çš„ç”¨æˆ·æ•°æ®é•¿åº¦ï¼ˆä¸åŒ…å«åº”ç­”ç ï¼‰
 532:Code\UserApp\Protocol/CmdProtocol.c **** // Return			: none
 533:Code\UserApp\Protocol/CmdProtocol.c **** //-------------------------------------------------------------------------------------------------
 534:Code\UserApp\Protocol/CmdProtocol.c **** // Info				: 
 535:Code\UserApp\Protocol/CmdProtocol.c **** //*************************************************************************************************
 536:Code\UserApp\Protocol/CmdProtocol.c **** void Protocol_SendAckPacket(uint8 CommChanle, uint8 cPackType, uint8 cCmd, uint8 *UserData, uint16 
 537:Code\UserApp\Protocol/CmdProtocol.c **** {
 538:Code\UserApp\Protocol/CmdProtocol.c **** 	uint8 AppResponseBuf[256] = {0};
 539:Code\UserApp\Protocol/CmdProtocol.c **** 	uint8 i;
 540:Code\UserApp\Protocol/CmdProtocol.c **** 	uint16 NoPtr;
 541:Code\UserApp\Protocol/CmdProtocol.c **** 	uint16 TempCrc;
 542:Code\UserApp\Protocol/CmdProtocol.c **** 	uint16 nPacketLen;
 543:Code\UserApp\Protocol/CmdProtocol.c **** 	
 544:Code\UserApp\Protocol/CmdProtocol.c **** 	NoPtr = 0;
ARM GAS  C:\Users\Administrator\AppData\Local\Temp\ccX9Bf8z.s 			page 11


 545:Code\UserApp\Protocol/CmdProtocol.c **** 	nPacketLen = UserDataLen + 5;
 546:Code\UserApp\Protocol/CmdProtocol.c **** 	memset(AppResponseBuf, 0, sizeof(AppResponseBuf));
 547:Code\UserApp\Protocol/CmdProtocol.c **** 	AppResponseBuf[NoPtr++] = HEAD_BYTE1;
 548:Code\UserApp\Protocol/CmdProtocol.c **** 	AppResponseBuf[NoPtr++] = HEAD_BYTE2;
 549:Code\UserApp\Protocol/CmdProtocol.c **** 	AppResponseBuf[NoPtr++] = (nPacketLen >> 8) & 0xff;
 550:Code\UserApp\Protocol/CmdProtocol.c **** 	AppResponseBuf[NoPtr++] = nPacketLen & 0xff;
 551:Code\UserApp\Protocol/CmdProtocol.c **** 	AppResponseBuf[NoPtr++] = CommChanle | (cPackType << 4);
 552:Code\UserApp\Protocol/CmdProtocol.c **** 	AppResponseBuf[NoPtr++] = PROTOCOL_VER; 
 553:Code\UserApp\Protocol/CmdProtocol.c **** 	AppResponseBuf[NoPtr++] = cCmd;
 554:Code\UserApp\Protocol/CmdProtocol.c **** 
 555:Code\UserApp\Protocol/CmdProtocol.c **** 	#ifdef	AES_ENCRY
 556:Code\UserApp\Protocol/CmdProtocol.c **** 
 557:Code\UserApp\Protocol/CmdProtocol.c **** 	#else
 558:Code\UserApp\Protocol/CmdProtocol.c **** 
 559:Code\UserApp\Protocol/CmdProtocol.c **** 	#endif
 560:Code\UserApp\Protocol/CmdProtocol.c **** 
 561:Code\UserApp\Protocol/CmdProtocol.c **** 	if (UserDataLen)
 562:Code\UserApp\Protocol/CmdProtocol.c **** 	{
 563:Code\UserApp\Protocol/CmdProtocol.c **** 		for (i = 0; i < UserDataLen; i++)
 564:Code\UserApp\Protocol/CmdProtocol.c **** 		{
 565:Code\UserApp\Protocol/CmdProtocol.c **** 			AppResponseBuf[NoPtr++] = *(UserData + i);
 566:Code\UserApp\Protocol/CmdProtocol.c **** 		}
 567:Code\UserApp\Protocol/CmdProtocol.c **** 	}
 568:Code\UserApp\Protocol/CmdProtocol.c **** 	
 569:Code\UserApp\Protocol/CmdProtocol.c **** 	TempCrc = MyCrc16Check(AppResponseBuf, NoPtr);
 570:Code\UserApp\Protocol/CmdProtocol.c **** 
 571:Code\UserApp\Protocol/CmdProtocol.c **** 	AppResponseBuf[NoPtr++] = (TempCrc >> 8) & 0xFF;
 572:Code\UserApp\Protocol/CmdProtocol.c **** 	AppResponseBuf[NoPtr++] = TempCrc & 0xFF;
 573:Code\UserApp\Protocol/CmdProtocol.c **** 	
 574:Code\UserApp\Protocol/CmdProtocol.c **** 	DBG_SOFT_PutStr("\r\n AppResponseBuf:\r\n");
 575:Code\UserApp\Protocol/CmdProtocol.c **** 	DBG_SOFT_PrintfHex(AppResponseBuf,64,16);
 576:Code\UserApp\Protocol/CmdProtocol.c **** 	
 577:Code\UserApp\Protocol/CmdProtocol.c **** 	if (CommChanle == 0x02)                          			// è“ç‰™é€šé“								//
 578:Code\UserApp\Protocol/CmdProtocol.c **** 	{
 579:Code\UserApp\Protocol/CmdProtocol.c **** 		BleSend(AppResponseBuf, NoPtr);
 580:Code\UserApp\Protocol/CmdProtocol.c ****         #if 0
 581:Code\UserApp\Protocol/CmdProtocol.c **** 		for (i = 0; i < 100; i++)
 582:Code\UserApp\Protocol/CmdProtocol.c ****         {
 583:Code\UserApp\Protocol/CmdProtocol.c ****             ble_heartbeat();
 584:Code\UserApp\Protocol/CmdProtocol.c ****         }
 585:Code\UserApp\Protocol/CmdProtocol.c **** 		#endif
 586:Code\UserApp\Protocol/CmdProtocol.c **** 	}
 587:Code\UserApp\Protocol/CmdProtocol.c **** 	else if(CommChanle == 0x01)                     			// GPRSé€šé“								//
 588:Code\UserApp\Protocol/CmdProtocol.c **** 	{
 589:Code\UserApp\Protocol/CmdProtocol.c **** 		cur_time = (uint32)RTC_GetUnixTime();
 590:Code\UserApp\Protocol/CmdProtocol.c **** 		if ((cur_time + 300) > next_heartbeat_time)				// ä¸‹ä¸€æ¬¡å¿ƒè·³åœ¨5minä»¥å†…					//
 591:Code\UserApp\Protocol/CmdProtocol.c **** 		{
 592:Code\UserApp\Protocol/CmdProtocol.c **** 			next_heartbeat_time = cur_time + 300;
 593:Code\UserApp\Protocol/CmdProtocol.c **** 		}
 594:Code\UserApp\Protocol/CmdProtocol.c **** 	    GPRS_SendHexDataToServer(AppResponseBuf, NoPtr);
 595:Code\UserApp\Protocol/CmdProtocol.c **** 	}
 596:Code\UserApp\Protocol/CmdProtocol.c **** }
 597:Code\UserApp\Protocol/CmdProtocol.c **** 
 598:Code\UserApp\Protocol/CmdProtocol.c **** //===ã€ç»“æŸã€‘===================== ä¸šåŠ¡å±‚ä¸»åŠ¨ä¸ŠæŠ¥æœåŠ¡å™¨æŒ‡ä»¤ =======================
 599:Code\UserApp\Protocol/CmdProtocol.c **** 
 600:Code\UserApp\Protocol/CmdProtocol.c **** 
 601:Code\UserApp\Protocol/CmdProtocol.c **** 
ARM GAS  C:\Users\Administrator\AppData\Local\Temp\ccX9Bf8z.s 			page 12


 602:Code\UserApp\Protocol/CmdProtocol.c **** 
 603:Code\UserApp\Protocol/CmdProtocol.c **** //===ã€å¼€å§‹ã€‘=================== ä¸šåŠ¡å±‚å¤„ç†æ¥æ”¶åˆ°çš„æœåŠ¡å™¨/è“ç‰™æŒ‡ä»¤ ============
 604:Code\UserApp\Protocol/CmdProtocol.c **** 
 605:Code\UserApp\Protocol/CmdProtocol.c **** //*************************************************************************************************
 606:Code\UserApp\Protocol/CmdProtocol.c **** // Function name	: Protocol_CmdGetPreSever
 607:Code\UserApp\Protocol/CmdProtocol.c **** // Description		: ä»ä¸­å¿ƒæœåŠ¡å™¨è·å–å…·ä½“è¦é“¾æ¥çš„å‰ç½®æœåŠ¡å™¨åŸŸåæˆ–IP
 608:Code\UserApp\Protocol/CmdProtocol.c **** // Parameter		: uint8* RecBuf	å‘½ä»¤åŒ…æŒ‡é’ˆ
 609:Code\UserApp\Protocol/CmdProtocol.c **** // Return			: none
 610:Code\UserApp\Protocol/CmdProtocol.c **** //-------------------------------------------------------------------------------------------------
 611:Code\UserApp\Protocol/CmdProtocol.c **** // Info				: 0x01å‘½ä»¤ï¼ŒæœåŠ¡å™¨åº”ç­”
 612:Code\UserApp\Protocol/CmdProtocol.c **** //*************************************************************************************************
 613:Code\UserApp\Protocol/CmdProtocol.c **** static void Protocol_CmdGetPreSever(uint8* RecBuf)
 614:Code\UserApp\Protocol/CmdProtocol.c **** {
  27              		.loc 1 614 0
  28              		.cfi_startproc
  29              	.LVL0:
 615:Code\UserApp\Protocol/CmdProtocol.c **** 	uint8 *pstr = RecBuf;
 616:Code\UserApp\Protocol/CmdProtocol.c **** 	uint8 port_tmp[2];
 617:Code\UserApp\Protocol/CmdProtocol.c **** 	uint8 port_str[5];
 618:Code\UserApp\Protocol/CmdProtocol.c **** 	uint16 port_hex;
 619:Code\UserApp\Protocol/CmdProtocol.c **** 
 620:Code\UserApp\Protocol/CmdProtocol.c **** 	// è·å–å‰ç½®æœåŠ¡å™¨åœ°å€å’Œç«¯å£çš„åº”ç­”ä¿¡æ¯																//
 621:Code\UserApp\Protocol/CmdProtocol.c **** 	pstr += 13;
 622:Code\UserApp\Protocol/CmdProtocol.c **** 	memcpy(domain, pstr, 200);									// 200 å­—èŠ‚IPæˆ–åŸŸå						//
  30              		.loc 1 622 0
  31 0000 011C     		mov	r1, r0
 614:Code\UserApp\Protocol/CmdProtocol.c **** 	uint8 *pstr = RecBuf;
  32              		.loc 1 614 0
  33 0002 70B5     		push	{r4, r5, r6, lr}
  34              		.cfi_def_cfa_offset 16
  35              		.cfi_offset 4, -16
  36              		.cfi_offset 5, -12
  37              		.cfi_offset 6, -8
  38              		.cfi_offset 14, -4
 614:Code\UserApp\Protocol/CmdProtocol.c **** 	uint8 *pstr = RecBuf;
  39              		.loc 1 614 0
  40 0004 061C     		mov	r6, r0
  41              		.loc 1 622 0
  42 0006 224D     		ldr	r5, .L2
  43 0008 C822     		mov	r2, #200
  44 000a 281C     		mov	r0, r5
  45              	.LVL1:
  46 000c 0D31     		add	r1, r1, #13
  47              	.LVL2:
  48 000e FFF7FEFF 		bl	memcpy
  49              	.LVL3:
 623:Code\UserApp\Protocol/CmdProtocol.c **** 	pstr += 200;
 624:Code\UserApp\Protocol/CmdProtocol.c **** 	memcpy(port_tmp, pstr, 2);									// ç«¯å£å·								//
  50              		.loc 1 624 0
  51 0012 331C     		mov	r3, r6
 625:Code\UserApp\Protocol/CmdProtocol.c **** 
 626:Code\UserApp\Protocol/CmdProtocol.c **** 	//port_hex = BYTE2WORD(port_tmp[0], port_tmp[1]);
 627:Code\UserApp\Protocol/CmdProtocol.c **** 	#if 0
 628:Code\UserApp\Protocol/CmdProtocol.c **** 	port_str[0]= port_tmp[0]/0x10 + '0';
 629:Code\UserApp\Protocol/CmdProtocol.c **** 	port_str[1]= port_tmp[0]%0x10 + '0';	
 630:Code\UserApp\Protocol/CmdProtocol.c **** 	port_str[2]= port_tmp[1]/0x10 + '0';
 631:Code\UserApp\Protocol/CmdProtocol.c **** 	port_str[3]= port_tmp[1]%0x10 + '0';
ARM GAS  C:\Users\Administrator\AppData\Local\Temp\ccX9Bf8z.s 			page 13


 632:Code\UserApp\Protocol/CmdProtocol.c **** 	#endif
 633:Code\UserApp\Protocol/CmdProtocol.c **** 
 634:Code\UserApp\Protocol/CmdProtocol.c **** 	port_hex = (port_tmp[0]<<8) + port_tmp[1];
 635:Code\UserApp\Protocol/CmdProtocol.c **** 	port_str[0] = port_hex/1000 + '0';
  52              		.loc 1 635 0
  53 0014 FA21     		mov	r1, #250
 624:Code\UserApp\Protocol/CmdProtocol.c **** 
  54              		.loc 1 624 0
  55 0016 D533     		add	r3, r3, #213
  56              	.LVL4:
 634:Code\UserApp\Protocol/CmdProtocol.c **** 	port_str[0] = port_hex/1000 + '0';
  57              		.loc 1 634 0
  58 0018 1C78     		ldrb	r4, [r3]
 624:Code\UserApp\Protocol/CmdProtocol.c **** 
  59              		.loc 1 624 0
  60 001a D636     		add	r6, r6, #214
  61              	.LVL5:
 634:Code\UserApp\Protocol/CmdProtocol.c **** 	port_str[0] = port_hex/1000 + '0';
  62              		.loc 1 634 0
  63 001c 3378     		ldrb	r3, [r6]
  64              	.LVL6:
  65 001e 2402     		lsl	r4, r4, #8
  66 0020 1C19     		add	r4, r3, r4
  67 0022 A4B2     		uxth	r4, r4
  68              	.LVL7:
  69              		.loc 1 635 0
  70 0024 201C     		mov	r0, r4
  71 0026 8900     		lsl	r1, r1, #2
  72 0028 FFF7FEFF 		bl	__aeabi_uidiv
  73              	.LVL8:
 636:Code\UserApp\Protocol/CmdProtocol.c **** 	port_str[1] = port_hex%1000/100 + '0';	
  74              		.loc 1 636 0
  75 002c FA21     		mov	r1, #250
 637:Code\UserApp\Protocol/CmdProtocol.c **** 	port_str[2] = port_hex%100/10 + '0';
 638:Code\UserApp\Protocol/CmdProtocol.c **** 	port_str[3] = port_hex%10 + '0';
 639:Code\UserApp\Protocol/CmdProtocol.c **** 	port_str[4] = '\0';
 640:Code\UserApp\Protocol/CmdProtocol.c **** 	
 641:Code\UserApp\Protocol/CmdProtocol.c **** 	memcpy(pre_port, port_str, 5);
  76              		.loc 1 641 0
  77 002e 194E     		ldr	r6, .L2+4
  78              	.LVL9:
 635:Code\UserApp\Protocol/CmdProtocol.c **** 	port_str[1] = port_hex%1000/100 + '0';	
  79              		.loc 1 635 0
  80 0030 3030     		add	r0, r0, #48
  81              		.loc 1 641 0
  82 0032 3070     		strb	r0, [r6]
 636:Code\UserApp\Protocol/CmdProtocol.c **** 	port_str[1] = port_hex%1000/100 + '0';	
  83              		.loc 1 636 0
  84 0034 8900     		lsl	r1, r1, #2
  85 0036 201C     		mov	r0, r4
  86 0038 FFF7FEFF 		bl	__aeabi_uidivmod
  87              	.LVL10:
  88 003c 88B2     		uxth	r0, r1
  89 003e 6421     		mov	r1, #100
  90 0040 FFF7FEFF 		bl	__aeabi_uidiv
  91              	.LVL11:
  92 0044 3030     		add	r0, r0, #48
ARM GAS  C:\Users\Administrator\AppData\Local\Temp\ccX9Bf8z.s 			page 14


  93              		.loc 1 641 0
  94 0046 7070     		strb	r0, [r6, #1]
 637:Code\UserApp\Protocol/CmdProtocol.c **** 	port_str[2] = port_hex%100/10 + '0';
  95              		.loc 1 637 0
  96 0048 6421     		mov	r1, #100
  97 004a 201C     		mov	r0, r4
  98 004c FFF7FEFF 		bl	__aeabi_uidivmod
  99              	.LVL12:
 100 0050 88B2     		uxth	r0, r1
 101 0052 0A21     		mov	r1, #10
 102 0054 FFF7FEFF 		bl	__aeabi_uidiv
 103              	.LVL13:
 104 0058 3030     		add	r0, r0, #48
 105              		.loc 1 641 0
 106 005a B070     		strb	r0, [r6, #2]
 638:Code\UserApp\Protocol/CmdProtocol.c **** 	port_str[4] = '\0';
 107              		.loc 1 638 0
 108 005c 0A21     		mov	r1, #10
 109 005e 201C     		mov	r0, r4
 110 0060 FFF7FEFF 		bl	__aeabi_uidivmod
 111              	.LVL14:
 112              		.loc 1 641 0
 113 0064 0024     		mov	r4, #0
 114              	.LVL15:
 638:Code\UserApp\Protocol/CmdProtocol.c **** 	port_str[4] = '\0';
 115              		.loc 1 638 0
 116 0066 3031     		add	r1, r1, #48
 117              		.loc 1 641 0
 118 0068 F170     		strb	r1, [r6, #3]
 119 006a 3471     		strb	r4, [r6, #4]
 642:Code\UserApp\Protocol/CmdProtocol.c **** 	memcpy((char *)pre_ip, (char *)domain, strlen((char *)domain));
 120              		.loc 1 642 0
 121 006c 281C     		mov	r0, r5
 122 006e FFF7FEFF 		bl	strlen
 123              	.LVL16:
 124 0072 291C     		mov	r1, r5
 125 0074 021C     		mov	r2, r0
 126 0076 0848     		ldr	r0, .L2+8
 127 0078 FFF7FEFF 		bl	memcpy
 128              	.LVL17:
 643:Code\UserApp\Protocol/CmdProtocol.c **** 	//len = strlen((char *)domain);
 644:Code\UserApp\Protocol/CmdProtocol.c **** 
 645:Code\UserApp\Protocol/CmdProtocol.c **** 	#if DBG_SOFT_ENNABLE
 646:Code\UserApp\Protocol/CmdProtocol.c **** 	DBG_SOFT_PutString("\nPre_domain:");	
 647:Code\UserApp\Protocol/CmdProtocol.c **** 	DBG_SOFT_PutArray(domain, strlen((char *)domain));
 648:Code\UserApp\Protocol/CmdProtocol.c **** 	DBG_SOFT_PutString("\nPre_PORT:");
 649:Code\UserApp\Protocol/CmdProtocol.c **** 	DBG_SOFT_PutArray(port_str, 4);
 650:Code\UserApp\Protocol/CmdProtocol.c **** 	DBG_SOFT_PutString("\n");
 651:Code\UserApp\Protocol/CmdProtocol.c **** 	#endif
 652:Code\UserApp\Protocol/CmdProtocol.c **** 	
 653:Code\UserApp\Protocol/CmdProtocol.c **** 	//===ã€å¼€å§‹ã€‘=== è®¾å¤‡å±‚çš„å¤„ç† ==========================================================
 654:Code\UserApp\Protocol/CmdProtocol.c **** 	gprs_state = GET_PRE_IP;
 129              		.loc 1 654 0
 130 007c 0222     		mov	r2, #2
 131 007e 074B     		ldr	r3, .L2+12
 655:Code\UserApp\Protocol/CmdProtocol.c **** 	gprs_operation_ErrCount = 0;
 656:Code\UserApp\Protocol/CmdProtocol.c **** 	next_gprs_operation_time = cur_time;
ARM GAS  C:\Users\Administrator\AppData\Local\Temp\ccX9Bf8z.s 			page 15


 657:Code\UserApp\Protocol/CmdProtocol.c **** 	//===ã€ç»“æŸã€‘=== è®¾å¤‡å±‚çš„å¤„ç† ==========================================================
 658:Code\UserApp\Protocol/CmdProtocol.c **** 
 659:Code\UserApp\Protocol/CmdProtocol.c **** 	DBG_PRINTF("leaving %s\n", __FUNCTION__);
 660:Code\UserApp\Protocol/CmdProtocol.c **** }
 132              		.loc 1 660 0
 133              		@ sp needed
 654:Code\UserApp\Protocol/CmdProtocol.c **** 	gprs_operation_ErrCount = 0;
 134              		.loc 1 654 0
 135 0080 1A70     		strb	r2, [r3]
 655:Code\UserApp\Protocol/CmdProtocol.c **** 	gprs_operation_ErrCount = 0;
 136              		.loc 1 655 0
 137 0082 074B     		ldr	r3, .L2+16
 138 0084 1C70     		strb	r4, [r3]
 656:Code\UserApp\Protocol/CmdProtocol.c **** 	//===ã€ç»“æŸã€‘=== è®¾å¤‡å±‚çš„å¤„ç† ==========================================================
 139              		.loc 1 656 0
 140 0086 074B     		ldr	r3, .L2+20
 141 0088 1A68     		ldr	r2, [r3]
 142 008a 074B     		ldr	r3, .L2+24
 143 008c 1A60     		str	r2, [r3]
 144              		.loc 1 660 0
 145 008e 70BD     		pop	{r4, r5, r6, pc}
 146              	.L3:
 147              		.align	2
 148              	.L2:
 149 0090 00000000 		.word	domain
 150 0094 00000000 		.word	pre_port
 151 0098 00000000 		.word	pre_ip
 152 009c 00000000 		.word	gprs_state
 153 00a0 00000000 		.word	gprs_operation_ErrCount
 154 00a4 00000000 		.word	cur_time
 155 00a8 00000000 		.word	next_gprs_operation_time
 156              		.cfi_endproc
 157              	.LFE73:
 158              		.size	Protocol_CmdGetPreSever, .-Protocol_CmdGetPreSever
 159              		.section	.text.Protocol_CmdSendOpenInfo,"ax",%progbits
 160              		.align	1
 161              		.code	16
 162              		.thumb_func
 163              		.type	Protocol_CmdSendOpenInfo, %function
 164              	Protocol_CmdSendOpenInfo:
 165              	.LFB79:
 661:Code\UserApp\Protocol/CmdProtocol.c **** 
 662:Code\UserApp\Protocol/CmdProtocol.c **** //*************************************************************************************************
 663:Code\UserApp\Protocol/CmdProtocol.c **** // Function name	: Protocol_CmdGetMacAndKey
 664:Code\UserApp\Protocol/CmdProtocol.c **** // Description		: æ™ºèƒ½é—¨ç¦å‘æœåŠ¡å™¨ç”³æŠ¥MAC ç å¹¶è·å–è“ç‰™å¯†é’¥æŒ‡ä»¤ï¼ˆæ™ºèƒ½é—¨ç¦â†
 665:Code\UserApp\Protocol/CmdProtocol.c **** // Parameter		: uint8* RecBuf	å‘½ä»¤åŒ…æŒ‡é’ˆ
 666:Code\UserApp\Protocol/CmdProtocol.c **** // Return			: none
 667:Code\UserApp\Protocol/CmdProtocol.c **** //-------------------------------------------------------------------------------------------------
 668:Code\UserApp\Protocol/CmdProtocol.c **** // Info				: 0x02å‘½ä»¤ï¼ŒæœåŠ¡å™¨åº”ç­”
 669:Code\UserApp\Protocol/CmdProtocol.c **** //*************************************************************************************************
 670:Code\UserApp\Protocol/CmdProtocol.c **** static void Protocol_CmdGetMacAndKey(uint8* RecBuf)
 671:Code\UserApp\Protocol/CmdProtocol.c **** {
 672:Code\UserApp\Protocol/CmdProtocol.c **** 	uint8 ble_key[6];
 673:Code\UserApp\Protocol/CmdProtocol.c **** 	uint8 *pstr = RecBuf;
 674:Code\UserApp\Protocol/CmdProtocol.c **** 	
 675:Code\UserApp\Protocol/CmdProtocol.c **** 	// è·å–MACåœ°å€å’Œè“ç‰™é’¥åŒ™å‘½ä»¤çš„åº”ç­”åŒ…																//
 676:Code\UserApp\Protocol/CmdProtocol.c **** 	pstr += 13;
ARM GAS  C:\Users\Administrator\AppData\Local\Temp\ccX9Bf8z.s 			page 16


 677:Code\UserApp\Protocol/CmdProtocol.c **** 	#if 0
 678:Code\UserApp\Protocol/CmdProtocol.c **** 	uint8 ptime[4] = {0};
 679:Code\UserApp\Protocol/CmdProtocol.c **** 	memcpy(ptime, pstr, 4);										// æ—¶é—´æˆ³								//
 680:Code\UserApp\Protocol/CmdProtocol.c **** 	cur_time = BYTE2LONG(ptime[0], ptime[1], ptime[2], ptime[3]);
 681:Code\UserApp\Protocol/CmdProtocol.c **** 	RTC_SetUnixTime(cur_time);
 682:Code\UserApp\Protocol/CmdProtocol.c **** 	#endif
 683:Code\UserApp\Protocol/CmdProtocol.c **** 	
 684:Code\UserApp\Protocol/CmdProtocol.c **** 	pstr += 4;
 685:Code\UserApp\Protocol/CmdProtocol.c **** 	memcpy(ble_key, pstr, 6);									// 6å­—èŠ‚è“ç‰™å¯†é’¥						//
 686:Code\UserApp\Protocol/CmdProtocol.c **** 	
 687:Code\UserApp\Protocol/CmdProtocol.c **** 	//===ã€å¼€å§‹ã€‘=== è®¾å¤‡å±‚çš„å¤„ç† ==========================================================
 688:Code\UserApp\Protocol/CmdProtocol.c **** 	SendMacFlag = 1;
 689:Code\UserApp\Protocol/CmdProtocol.c **** 	gprs_state = NORMAL_COMM;
 690:Code\UserApp\Protocol/CmdProtocol.c **** 	gprs_operation_ErrCount = 0;
 691:Code\UserApp\Protocol/CmdProtocol.c **** 	next_gprs_operation_time = cur_time;
 692:Code\UserApp\Protocol/CmdProtocol.c **** 	//===ã€ç»“æŸã€‘=== è®¾å¤‡å±‚çš„å¤„ç† ==========================================================
 693:Code\UserApp\Protocol/CmdProtocol.c **** 	
 694:Code\UserApp\Protocol/CmdProtocol.c **** 	DBG_PRINTF("leaving %s\n", __FUNCTION__);
 695:Code\UserApp\Protocol/CmdProtocol.c **** }
 696:Code\UserApp\Protocol/CmdProtocol.c **** 
 697:Code\UserApp\Protocol/CmdProtocol.c **** //*************************************************************************************************
 698:Code\UserApp\Protocol/CmdProtocol.c **** // Function name	: Protocol_CmdReadUID
 699:Code\UserApp\Protocol/CmdProtocol.c **** // Description		: å¹³å° --> ä»æ™ºèƒ½é—¨ç¦è¯»å–ä¸€æ¡UID æŒ‡ä»¤ 
 700:Code\UserApp\Protocol/CmdProtocol.c **** // Parameter		: uint8* RecBuf	å‘½ä»¤åŒ…æŒ‡é’ˆ
 701:Code\UserApp\Protocol/CmdProtocol.c **** // Return			: none
 702:Code\UserApp\Protocol/CmdProtocol.c **** //-------------------------------------------------------------------------------------------------
 703:Code\UserApp\Protocol/CmdProtocol.c **** // Info				: 0x03å‘½ä»¤ï¼ŒæœåŠ¡å™¨å‘é€
 704:Code\UserApp\Protocol/CmdProtocol.c **** //*************************************************************************************************
 705:Code\UserApp\Protocol/CmdProtocol.c **** static void Protocol_CmdReadUID(uint8* RecBuf)
 706:Code\UserApp\Protocol/CmdProtocol.c **** {
 707:Code\UserApp\Protocol/CmdProtocol.c **** 	uint8 ret;
 708:Code\UserApp\Protocol/CmdProtocol.c **** 	uint8 DataBuf[64];
 709:Code\UserApp\Protocol/CmdProtocol.c **** 	uint8 *pT = DataBuf;
 710:Code\UserApp\Protocol/CmdProtocol.c **** 	uint8 pUID[8] = {0};
 711:Code\UserApp\Protocol/CmdProtocol.c **** 	uint8 comm_chanle = RecBuf[4];								// å–å‡ºä¿¡é“å€¼							//
 712:Code\UserApp\Protocol/CmdProtocol.c **** 	uint16 nCmdPackLen;
 713:Code\UserApp\Protocol/CmdProtocol.c **** 
 714:Code\UserApp\Protocol/CmdProtocol.c **** 	nCmdPackLen= (RecBuf[2]<<8) + RecBuf[3] + 4;
 715:Code\UserApp\Protocol/CmdProtocol.c **** 	 
 716:Code\UserApp\Protocol/CmdProtocol.c **** 	memset(pT, 0, sizeof(DataBuf));
 717:Code\UserApp\Protocol/CmdProtocol.c **** 	
 718:Code\UserApp\Protocol/CmdProtocol.c **** 	//if (0 != memcmp((uint8 *)Mac_Addr, pMAC, BD_ADDR_LEN))
 719:Code\UserApp\Protocol/CmdProtocol.c **** 	
 720:Code\UserApp\Protocol/CmdProtocol.c **** 	memcpy(pT, RecBuf + 7, 6);			  						// å–å‡ºMACåœ°å€ï¼Œç†è®ºåº”åŠ ä¸ŠMACæ ¡éªŒ		//
 721:Code\UserApp\Protocol/CmdProtocol.c **** 	pT += 6;
 722:Code\UserApp\Protocol/CmdProtocol.c **** 	
 723:Code\UserApp\Protocol/CmdProtocol.c **** 	//===ã€å¼€å§‹ã€‘=== è®¾å¤‡å±‚çš„å¤„ç† ==========================================================
 724:Code\UserApp\Protocol/CmdProtocol.c **** 	VoicePlay((uint8)Sound_PleasePutCard);						// ä»è®¾å¤‡è¯»å–ä¸€å¼ uid == PUID			//
 725:Code\UserApp\Protocol/CmdProtocol.c **** 	wait_timeout = 20000;
 726:Code\UserApp\Protocol/CmdProtocol.c **** 	ret = RET_ERR;
 727:Code\UserApp\Protocol/CmdProtocol.c **** 	DBG_SOFT_PutStr("\nProtocol_CmdReadUID\n");
 728:Code\UserApp\Protocol/CmdProtocol.c **** 	while (wait_timeout > 0)
 729:Code\UserApp\Protocol/CmdProtocol.c **** 	{
 730:Code\UserApp\Protocol/CmdProtocol.c **** 		ret = detect_nfc_card(pUID, CARD_UID_LEN);
 731:Code\UserApp\Protocol/CmdProtocol.c **** 		// æ»¤é™¤ä¸å‡†ç¡®çš„å¡ID
 732:Code\UserApp\Protocol/CmdProtocol.c **** 		if((pUID[0] == 0) && (pUID[1] == 0) &&(pUID[2] == 0) && (pUID[3] == 0))
 733:Code\UserApp\Protocol/CmdProtocol.c **** 		{
ARM GAS  C:\Users\Administrator\AppData\Local\Temp\ccX9Bf8z.s 			page 17


 734:Code\UserApp\Protocol/CmdProtocol.c **** 			continue;
 735:Code\UserApp\Protocol/CmdProtocol.c **** 		}
 736:Code\UserApp\Protocol/CmdProtocol.c **** 		if (ret == RET_OK)
 737:Code\UserApp\Protocol/CmdProtocol.c **** 		{
 738:Code\UserApp\Protocol/CmdProtocol.c **** 			VoicePlay((uint8)Sound_ReadCardSuccess);
 739:Code\UserApp\Protocol/CmdProtocol.c **** 			break;
 740:Code\UserApp\Protocol/CmdProtocol.c **** 		}
 741:Code\UserApp\Protocol/CmdProtocol.c **** 	}
 742:Code\UserApp\Protocol/CmdProtocol.c **** 	if(wait_timeout == 0)										// è¶…æ—¶æ’­æŠ¥
 743:Code\UserApp\Protocol/CmdProtocol.c **** 	{	
 744:Code\UserApp\Protocol/CmdProtocol.c **** 		memset(pUID,0xFF,7);									// è¶…æ—¶UID æ›¿ä»£å€¼ FFFFFFFFFFFFFF03
 745:Code\UserApp\Protocol/CmdProtocol.c **** 		pUID[7] = 0x03;
 746:Code\UserApp\Protocol/CmdProtocol.c **** 		VoicePlay((uint8)Sound_TIMEOUT);
 747:Code\UserApp\Protocol/CmdProtocol.c **** 	}
 748:Code\UserApp\Protocol/CmdProtocol.c **** 	
 749:Code\UserApp\Protocol/CmdProtocol.c **** 	//===ã€ç»“æŸã€‘=== è®¾å¤‡å±‚çš„å¤„ç† ==========================================================
 750:Code\UserApp\Protocol/CmdProtocol.c **** 	
 751:Code\UserApp\Protocol/CmdProtocol.c **** 	Endpoint_exchange(pUID);									// Aå¡æ•°æ®ä½ç½®è½¬æ¢ @ 18-1-17			//
 752:Code\UserApp\Protocol/CmdProtocol.c **** 	
 753:Code\UserApp\Protocol/CmdProtocol.c **** 	memcpy(pT, pUID, 8);										// å¤åˆ¶è¯»åˆ°çš„å¡UID						//
 754:Code\UserApp\Protocol/CmdProtocol.c **** 	pT += 8;
 755:Code\UserApp\Protocol/CmdProtocol.c **** 
 756:Code\UserApp\Protocol/CmdProtocol.c **** 	memcpy(pT, RecBuf + nCmdPackLen - 6, 4);					// æ‹·è´æ—¶é—´æˆ³							//
 757:Code\UserApp\Protocol/CmdProtocol.c **** 	pT += 4;
 758:Code\UserApp\Protocol/CmdProtocol.c **** 	
 759:Code\UserApp\Protocol/CmdProtocol.c **** 	if (ret == RET_ERR)											// æ²¡è¯»åˆ°å¡ï¼Œå›ä¼ ç»“æœç å¤±è´¥				//
 760:Code\UserApp\Protocol/CmdProtocol.c **** 	{
 761:Code\UserApp\Protocol/CmdProtocol.c **** 		*pT = RT_Timeout_ERR;									// è¶…æ—¶ä¸ŠæŠ¥								//
 762:Code\UserApp\Protocol/CmdProtocol.c **** 	}
 763:Code\UserApp\Protocol/CmdProtocol.c **** 	else
 764:Code\UserApp\Protocol/CmdProtocol.c **** 	{
 765:Code\UserApp\Protocol/CmdProtocol.c **** 		*pT = RT_SUCC;
 766:Code\UserApp\Protocol/CmdProtocol.c **** 	}
 767:Code\UserApp\Protocol/CmdProtocol.c **** 	
 768:Code\UserApp\Protocol/CmdProtocol.c **** 	Protocol_SendAckPacket(comm_chanle, PACK_RESP, RecBuf[6], DataBuf, 19);
 769:Code\UserApp\Protocol/CmdProtocol.c **** 	
 770:Code\UserApp\Protocol/CmdProtocol.c **** 	DBG_PRINTF("leaving %s\n", __FUNCTION__);
 771:Code\UserApp\Protocol/CmdProtocol.c **** }
 772:Code\UserApp\Protocol/CmdProtocol.c **** 
 773:Code\UserApp\Protocol/CmdProtocol.c **** //*************************************************************************************************
 774:Code\UserApp\Protocol/CmdProtocol.c **** // Function name	: Protocol_CmdWriteUID
 775:Code\UserApp\Protocol/CmdProtocol.c **** // Description		: å¹³å° --> å†™ä¸€æ¡UIDå’Œæœ‰æ•ˆæœŸåˆ°æ™ºèƒ½é—¨ç¦æŒ‡ä»¤
 776:Code\UserApp\Protocol/CmdProtocol.c **** // Parameter		: uint8* GPRSCmdBuf	å‘½ä»¤åŒ…æŒ‡é’ˆ
 777:Code\UserApp\Protocol/CmdProtocol.c **** // Return			: none
 778:Code\UserApp\Protocol/CmdProtocol.c **** //-------------------------------------------------------------------------------------------------
 779:Code\UserApp\Protocol/CmdProtocol.c **** // Info				: 0x04å‘½ä»¤ï¼ŒæœåŠ¡å™¨å‘é€
 780:Code\UserApp\Protocol/CmdProtocol.c **** //*************************************************************************************************
 781:Code\UserApp\Protocol/CmdProtocol.c **** static void Protocol_CmdWriteUID(uint8* RecBuf)
 782:Code\UserApp\Protocol/CmdProtocol.c **** {
 783:Code\UserApp\Protocol/CmdProtocol.c **** 	uint8 DataBuf[64];
 784:Code\UserApp\Protocol/CmdProtocol.c **** 	uint8 *pT = DataBuf;
 785:Code\UserApp\Protocol/CmdProtocol.c **** 	uint8 pUID[8];
 786:Code\UserApp\Protocol/CmdProtocol.c **** 	uint8 pTime[4];
 787:Code\UserApp\Protocol/CmdProtocol.c **** 	uint8 comm_chanle = RecBuf[4];								// å–å‡ºä¿¡é“å€¼							//
 788:Code\UserApp\Protocol/CmdProtocol.c **** 	user_info_t user_info;
 789:Code\UserApp\Protocol/CmdProtocol.c **** 	uint16 nCmdPackLen;
 790:Code\UserApp\Protocol/CmdProtocol.c **** 	
ARM GAS  C:\Users\Administrator\AppData\Local\Temp\ccX9Bf8z.s 			page 18


 791:Code\UserApp\Protocol/CmdProtocol.c ****     nCmdPackLen= (RecBuf[2] << 8) + RecBuf[3] + 4;
 792:Code\UserApp\Protocol/CmdProtocol.c ****     
 793:Code\UserApp\Protocol/CmdProtocol.c **** 	memset(pT, 0, sizeof(DataBuf));
 794:Code\UserApp\Protocol/CmdProtocol.c **** 	memcpy(pT, RecBuf + 7, 6);									// å–å‡ºMACåœ°å€ï¼Œç†è®ºåº”åŠ ä¸ŠMACæ ¡éªŒ		//
 795:Code\UserApp\Protocol/CmdProtocol.c **** 	pT += 6;
 796:Code\UserApp\Protocol/CmdProtocol.c **** 	
 797:Code\UserApp\Protocol/CmdProtocol.c **** 	memcpy(pT, RecBuf + 13, 8);									// å–å‡ºuid								//
 798:Code\UserApp\Protocol/CmdProtocol.c **** 	memcpy(pUID, RecBuf + 13, 8);
 799:Code\UserApp\Protocol/CmdProtocol.c **** 	pT += 8;
 800:Code\UserApp\Protocol/CmdProtocol.c **** 	
 801:Code\UserApp\Protocol/CmdProtocol.c **** 	memcpy(pT, RecBuf + 21, 4);									// å–å‡ºæœ‰æ•ˆæ—¥æœŸ							//
 802:Code\UserApp\Protocol/CmdProtocol.c **** 	memcpy(pTime, RecBuf + 21, 4);	
 803:Code\UserApp\Protocol/CmdProtocol.c **** 	pT += 4;
 804:Code\UserApp\Protocol/CmdProtocol.c **** 	memcpy(pT, RecBuf + nCmdPackLen - 6, 4);					// æ—¶é—´æˆ³								//
 805:Code\UserApp\Protocol/CmdProtocol.c **** 	pT += 4;
 806:Code\UserApp\Protocol/CmdProtocol.c ****     
 807:Code\UserApp\Protocol/CmdProtocol.c **** 	//===ã€å¼€å§‹ã€‘=== è®¾å¤‡å±‚çš„å¤„ç† ==========================================================
 808:Code\UserApp\Protocol/CmdProtocol.c **** 	Endpoint_exchange(pUID);									// Aå¡æ•°æ®ä½ç½®è½¬æ¢ @ 18-1-17			//
 809:Code\UserApp\Protocol/CmdProtocol.c **** 	
 810:Code\UserApp\Protocol/CmdProtocol.c **** 	memcpy(user_info.card_uid, pUID, 8);
 811:Code\UserApp\Protocol/CmdProtocol.c **** 	memcpy(user_info.valid_time, pTime, 4);
 812:Code\UserApp\Protocol/CmdProtocol.c **** 	if (TRUE == UserData_Add_User(&user_info))
 813:Code\UserApp\Protocol/CmdProtocol.c **** 	{
 814:Code\UserApp\Protocol/CmdProtocol.c **** 		VoicePlay((uint8)Sound_REG_SUCCESS);
 815:Code\UserApp\Protocol/CmdProtocol.c **** 		*pT = RT_SUCC;
 816:Code\UserApp\Protocol/CmdProtocol.c **** 	}
 817:Code\UserApp\Protocol/CmdProtocol.c **** 	else
 818:Code\UserApp\Protocol/CmdProtocol.c **** 	{
 819:Code\UserApp\Protocol/CmdProtocol.c **** 		VoicePlay((uint8)Sound_REG_FAILURE);
 820:Code\UserApp\Protocol/CmdProtocol.c **** 		*pT = RT_FAIL;
 821:Code\UserApp\Protocol/CmdProtocol.c **** 	}
 822:Code\UserApp\Protocol/CmdProtocol.c **** 	//===ã€ç»“æŸã€‘=== è®¾å¤‡å±‚çš„å¤„ç† ==========================================================
 823:Code\UserApp\Protocol/CmdProtocol.c **** 	
 824:Code\UserApp\Protocol/CmdProtocol.c **** 	Protocol_SendAckPacket(comm_chanle, PACK_RESP, RecBuf[6], DataBuf, 23);
 825:Code\UserApp\Protocol/CmdProtocol.c **** 	
 826:Code\UserApp\Protocol/CmdProtocol.c **** 	#if DBG_SOFT_ENNABLE
 827:Code\UserApp\Protocol/CmdProtocol.c **** 	test_Flash();
 828:Code\UserApp\Protocol/CmdProtocol.c **** 	#endif
 829:Code\UserApp\Protocol/CmdProtocol.c **** 	
 830:Code\UserApp\Protocol/CmdProtocol.c **** 	DBG_PRINTF("leaving %s\n", __FUNCTION__);
 831:Code\UserApp\Protocol/CmdProtocol.c **** }
 832:Code\UserApp\Protocol/CmdProtocol.c **** 
 833:Code\UserApp\Protocol/CmdProtocol.c **** //*************************************************************************************************
 834:Code\UserApp\Protocol/CmdProtocol.c **** // Function name	: Protocol_CmdDelUID
 835:Code\UserApp\Protocol/CmdProtocol.c **** // Description		: å¹³å° -->ä»æ™ºèƒ½é—¨ç¦åˆ é™¤ä¸€æ¡UID æŒ‡ä»¤
 836:Code\UserApp\Protocol/CmdProtocol.c **** // Parameter		: uint8* RecBuf	å‘½ä»¤åŒ…æŒ‡é’ˆ
 837:Code\UserApp\Protocol/CmdProtocol.c **** // Return			: none
 838:Code\UserApp\Protocol/CmdProtocol.c **** //-------------------------------------------------------------------------------------------------
 839:Code\UserApp\Protocol/CmdProtocol.c **** // Info				: 0x05å‘½ä»¤ï¼ŒæœåŠ¡å™¨å‘é€
 840:Code\UserApp\Protocol/CmdProtocol.c **** //*************************************************************************************************
 841:Code\UserApp\Protocol/CmdProtocol.c **** static void Protocol_CmdDelUID(uint8* RecBuf)
 842:Code\UserApp\Protocol/CmdProtocol.c **** {
 843:Code\UserApp\Protocol/CmdProtocol.c **** 	uint8 ret = 0;
 844:Code\UserApp\Protocol/CmdProtocol.c **** 	uint8 DataBuf[64];
 845:Code\UserApp\Protocol/CmdProtocol.c **** 	uint8 *pT = DataBuf;
 846:Code\UserApp\Protocol/CmdProtocol.c **** 	uint8 pUID[8];
 847:Code\UserApp\Protocol/CmdProtocol.c **** 	uint8 comm_chanle = RecBuf[4];								// å–å‡ºä¿¡é“å€¼							//
ARM GAS  C:\Users\Administrator\AppData\Local\Temp\ccX9Bf8z.s 			page 19


 848:Code\UserApp\Protocol/CmdProtocol.c **** 	uint16 nCmdPackLen;
 849:Code\UserApp\Protocol/CmdProtocol.c **** 
 850:Code\UserApp\Protocol/CmdProtocol.c **** 	nCmdPackLen= (RecBuf[2]<<8) + RecBuf[3] + 4;
 851:Code\UserApp\Protocol/CmdProtocol.c **** 	 
 852:Code\UserApp\Protocol/CmdProtocol.c **** 	memset(pT, 0, sizeof(DataBuf));
 853:Code\UserApp\Protocol/CmdProtocol.c **** 	memcpy(pT, RecBuf + 7, 6);									// å–å‡ºMACåœ°å€ï¼Œç†è®ºåº”åŠ ä¸ŠMACæ ¡éªŒ		//
 854:Code\UserApp\Protocol/CmdProtocol.c **** 	pT += 6;
 855:Code\UserApp\Protocol/CmdProtocol.c **** 
 856:Code\UserApp\Protocol/CmdProtocol.c **** 	memcpy(pT, RecBuf + 13, 8);									// å–å‡ºuid								//
 857:Code\UserApp\Protocol/CmdProtocol.c **** 	memcpy(pUID, RecBuf + 13, 8);
 858:Code\UserApp\Protocol/CmdProtocol.c **** 	pT += 8;
 859:Code\UserApp\Protocol/CmdProtocol.c **** 
 860:Code\UserApp\Protocol/CmdProtocol.c **** 	memcpy(pT, RecBuf + nCmdPackLen - 6, 4);					// æ—¶é—´æˆ³								//
 861:Code\UserApp\Protocol/CmdProtocol.c **** 	pT += 4;
 862:Code\UserApp\Protocol/CmdProtocol.c ****  	
 863:Code\UserApp\Protocol/CmdProtocol.c **** 	//===ã€å¼€å§‹ã€‘=== è®¾å¤‡å±‚çš„å¤„ç† ==========================================================
 864:Code\UserApp\Protocol/CmdProtocol.c **** 	Endpoint_exchange(pUID);									// Aå¡æ•°æ®ä½ç½®è½¬æ¢ @ 18-1-17			//
 865:Code\UserApp\Protocol/CmdProtocol.c **** 	
 866:Code\UserApp\Protocol/CmdProtocol.c **** 	ret = UserData_DEL_User(pUID);
 867:Code\UserApp\Protocol/CmdProtocol.c **** 	if (TRUE == ret)
 868:Code\UserApp\Protocol/CmdProtocol.c **** 	{
 869:Code\UserApp\Protocol/CmdProtocol.c **** 		VoicePlay((uint8)Sound_DELETE_SUCCESS);
 870:Code\UserApp\Protocol/CmdProtocol.c **** 		*pT = RT_SUCC;
 871:Code\UserApp\Protocol/CmdProtocol.c **** 	}
 872:Code\UserApp\Protocol/CmdProtocol.c **** 	else if(RT_Invalid_ERR == ret)
 873:Code\UserApp\Protocol/CmdProtocol.c **** 	{
 874:Code\UserApp\Protocol/CmdProtocol.c **** 		VoicePlay((uint8)Sound_DELETE_FAILURE);
 875:Code\UserApp\Protocol/CmdProtocol.c **** 		*pT = RT_Invalid_ERR;
 876:Code\UserApp\Protocol/CmdProtocol.c **** 	}
 877:Code\UserApp\Protocol/CmdProtocol.c **** 	else if(FALSE == ret)
 878:Code\UserApp\Protocol/CmdProtocol.c **** 	{
 879:Code\UserApp\Protocol/CmdProtocol.c **** 		VoicePlay((uint8)Sound_DELETE_FAILURE);
 880:Code\UserApp\Protocol/CmdProtocol.c **** 		*pT = RT_FAIL;
 881:Code\UserApp\Protocol/CmdProtocol.c **** 	}
 882:Code\UserApp\Protocol/CmdProtocol.c **** 	
 883:Code\UserApp\Protocol/CmdProtocol.c **** 	
 884:Code\UserApp\Protocol/CmdProtocol.c **** 	//===ã€ç»“æŸã€‘=== è®¾å¤‡å±‚çš„å¤„ç† ==========================================================
 885:Code\UserApp\Protocol/CmdProtocol.c **** 	
 886:Code\UserApp\Protocol/CmdProtocol.c **** 	Protocol_SendAckPacket(comm_chanle, PACK_RESP, RecBuf[6], DataBuf, 19);	
 887:Code\UserApp\Protocol/CmdProtocol.c **** 	
 888:Code\UserApp\Protocol/CmdProtocol.c **** 	#if DBG_SOFT_ENNABLE
 889:Code\UserApp\Protocol/CmdProtocol.c **** 	test_Flash();
 890:Code\UserApp\Protocol/CmdProtocol.c **** 	#endif
 891:Code\UserApp\Protocol/CmdProtocol.c **** 	
 892:Code\UserApp\Protocol/CmdProtocol.c **** 	DBG_PRINTF("leaving %s\n", __FUNCTION__);
 893:Code\UserApp\Protocol/CmdProtocol.c **** }  
 894:Code\UserApp\Protocol/CmdProtocol.c **** 
 895:Code\UserApp\Protocol/CmdProtocol.c **** //*************************************************************************************************
 896:Code\UserApp\Protocol/CmdProtocol.c **** // Function name	: Protocol_CmdOpenDoor
 897:Code\UserApp\Protocol/CmdProtocol.c **** // Description		: APP(æˆ–å¹³å°)é€šè¿‡é¢„å®šçš„ä¿¡é“å‘æ™ºèƒ½é—¨ç¦å‘å‡ºå¼€é—¨å‘½ä»¤ï¼Œæ™ºèƒ½é—¨ç
 898:Code\UserApp\Protocol/CmdProtocol.c **** // Parameter		: uint8* RecBuf	å‘½ä»¤åŒ…æŒ‡é’ˆ
 899:Code\UserApp\Protocol/CmdProtocol.c **** // Return			: none
 900:Code\UserApp\Protocol/CmdProtocol.c **** //-------------------------------------------------------------------------------------------------
 901:Code\UserApp\Protocol/CmdProtocol.c **** // Info				: 0x06å‘½ä»¤ï¼ŒæœåŠ¡å™¨å‘é€
 902:Code\UserApp\Protocol/CmdProtocol.c **** //*************************************************************************************************
 903:Code\UserApp\Protocol/CmdProtocol.c **** static void Protocol_CmdOpenDoor(uint8* RecBuf)
 904:Code\UserApp\Protocol/CmdProtocol.c **** {
ARM GAS  C:\Users\Administrator\AppData\Local\Temp\ccX9Bf8z.s 			page 20


 905:Code\UserApp\Protocol/CmdProtocol.c **** 	uint8 ret = 0;
 906:Code\UserApp\Protocol/CmdProtocol.c **** 	uint8 RetCode = RT_SUCC;
 907:Code\UserApp\Protocol/CmdProtocol.c **** 	uint8 DataBuf[256];
 908:Code\UserApp\Protocol/CmdProtocol.c **** 	uint8 pUID[8];
 909:Code\UserApp\Protocol/CmdProtocol.c **** 	uint8 pMAC[6];
 910:Code\UserApp\Protocol/CmdProtocol.c **** 	uint8 pTime[4];
 911:Code\UserApp\Protocol/CmdProtocol.c **** 	uint8 OpenType;  
 912:Code\UserApp\Protocol/CmdProtocol.c **** 	uint8 *pT=DataBuf;
 913:Code\UserApp\Protocol/CmdProtocol.c **** 	uint8 comm_chanle = RecBuf[4];								// å–å‡ºä¿¡é“å€¼							//
 914:Code\UserApp\Protocol/CmdProtocol.c **** 	uint16 nCmdPackLen;
 915:Code\UserApp\Protocol/CmdProtocol.c **** 	user_info_t user_info;
 916:Code\UserApp\Protocol/CmdProtocol.c **** 	open_door_t openInfo;
 917:Code\UserApp\Protocol/CmdProtocol.c **** 
 918:Code\UserApp\Protocol/CmdProtocol.c ****     nCmdPackLen= (RecBuf[2] << 8) + RecBuf[3] + 4;
 919:Code\UserApp\Protocol/CmdProtocol.c **** 	
 920:Code\UserApp\Protocol/CmdProtocol.c **** 	memset(&openInfo, 0, sizeof(open_door_t));
 921:Code\UserApp\Protocol/CmdProtocol.c ****     memset(pT, 0, sizeof(DataBuf));
 922:Code\UserApp\Protocol/CmdProtocol.c ****     
 923:Code\UserApp\Protocol/CmdProtocol.c **** 	memcpy(pT, RecBuf + 7, 6);									// å–å‡ºMACåœ°å€ï¼Œç†è®ºåº”åŠ ä¸ŠMACæ ¡éªŒ		//
 924:Code\UserApp\Protocol/CmdProtocol.c ****     memcpy(pMAC, RecBuf + 7, 6);
 925:Code\UserApp\Protocol/CmdProtocol.c **** 	pT += 6;
 926:Code\UserApp\Protocol/CmdProtocol.c **** 	
 927:Code\UserApp\Protocol/CmdProtocol.c **** 	memcpy(pT, RecBuf + 13, 8);									// å–å‡ºuid								//
 928:Code\UserApp\Protocol/CmdProtocol.c **** 	memcpy(pUID, RecBuf + 13,8);
 929:Code\UserApp\Protocol/CmdProtocol.c ****     pT += 8;
 930:Code\UserApp\Protocol/CmdProtocol.c **** 	
 931:Code\UserApp\Protocol/CmdProtocol.c ****     *pT = *(RecBuf + 13 + 8);									// å¼€é—¨æ–¹å¼								//
 932:Code\UserApp\Protocol/CmdProtocol.c **** 	OpenType = *(RecBuf + 13 + 8);
 933:Code\UserApp\Protocol/CmdProtocol.c **** 	pT += 1;
 934:Code\UserApp\Protocol/CmdProtocol.c **** 	
 935:Code\UserApp\Protocol/CmdProtocol.c ****     memcpy(pT, RecBuf + nCmdPackLen - 6, 4);					// æ—¶é—´æˆ³								//
 936:Code\UserApp\Protocol/CmdProtocol.c ****     memcpy(pTime, RecBuf + nCmdPackLen - 6, 4);
 937:Code\UserApp\Protocol/CmdProtocol.c **** 	pT += 4;
 938:Code\UserApp\Protocol/CmdProtocol.c **** 	
 939:Code\UserApp\Protocol/CmdProtocol.c **** 	//===ã€å¼€å§‹ã€‘=== è®¾å¤‡å±‚çš„å¤„ç† ==========================================================
 940:Code\UserApp\Protocol/CmdProtocol.c **** 	Endpoint_exchange(pUID);									// Aå¡æ•°æ®ä½ç½®è½¬æ¢ @ 18-1-17			//
 941:Code\UserApp\Protocol/CmdProtocol.c **** 	
 942:Code\UserApp\Protocol/CmdProtocol.c **** 	memcpy(user_info.card_uid, pUID, 8);
 943:Code\UserApp\Protocol/CmdProtocol.c **** 	memcpy(user_info.valid_time, pTime, 4);
 944:Code\UserApp\Protocol/CmdProtocol.c **** 	
 945:Code\UserApp\Protocol/CmdProtocol.c **** 	if (0 != memcmp((uint8 *)Mac_Addr, pMAC, BD_ADDR_LEN))
 946:Code\UserApp\Protocol/CmdProtocol.c **** 	{
 947:Code\UserApp\Protocol/CmdProtocol.c **** 		RetCode = RT_FAIL;										// ä¸¢å¼ƒï¼Ÿ
 948:Code\UserApp\Protocol/CmdProtocol.c **** 	}
 949:Code\UserApp\Protocol/CmdProtocol.c **** 	else
 950:Code\UserApp\Protocol/CmdProtocol.c **** 	{ 
 951:Code\UserApp\Protocol/CmdProtocol.c **** 		
 952:Code\UserApp\Protocol/CmdProtocol.c **** 		ret = UserData_Judge_If_Open(&user_info);
 953:Code\UserApp\Protocol/CmdProtocol.c **** 		if (RT_UID_ERR == ret)
 954:Code\UserApp\Protocol/CmdProtocol.c **** 		{
 955:Code\UserApp\Protocol/CmdProtocol.c **** 			RetCode = RT_UID_ERR;
 956:Code\UserApp\Protocol/CmdProtocol.c **** 		}
 957:Code\UserApp\Protocol/CmdProtocol.c **** 		else if(RT_ValidTime_ERR == ret)
 958:Code\UserApp\Protocol/CmdProtocol.c **** 		{
 959:Code\UserApp\Protocol/CmdProtocol.c **** 			RetCode = RT_ValidTime_ERR;
 960:Code\UserApp\Protocol/CmdProtocol.c **** 		}
 961:Code\UserApp\Protocol/CmdProtocol.c **** 		else if (TRUE == ret)
ARM GAS  C:\Users\Administrator\AppData\Local\Temp\ccX9Bf8z.s 			page 21


 962:Code\UserApp\Protocol/CmdProtocol.c **** 		{
 963:Code\UserApp\Protocol/CmdProtocol.c **** 			RetCode = RT_SUCC;
 964:Code\UserApp\Protocol/CmdProtocol.c **** 		}
 965:Code\UserApp\Protocol/CmdProtocol.c **** 	}
 966:Code\UserApp\Protocol/CmdProtocol.c **** 	*pT = RetCode;
 967:Code\UserApp\Protocol/CmdProtocol.c **** 	//===ã€ç»“æŸã€‘=== è®¾å¤‡å±‚çš„å¤„ç† ==========================================================
 968:Code\UserApp\Protocol/CmdProtocol.c **** 	
 969:Code\UserApp\Protocol/CmdProtocol.c **** 	Protocol_SendAckPacket(comm_chanle, PACK_RESP, RecBuf[6], DataBuf, 20);
 970:Code\UserApp\Protocol/CmdProtocol.c **** 		
 971:Code\UserApp\Protocol/CmdProtocol.c **** 	if (RetCode == RT_SUCC)
 972:Code\UserApp\Protocol/CmdProtocol.c **** 	{
 973:Code\UserApp\Protocol/CmdProtocol.c **** 		//===ã€å¼€å§‹ã€‘=== è®¾å¤‡å±‚çš„å¤„ç† =========================================================
 974:Code\UserApp\Protocol/CmdProtocol.c **** 	    Led_GreenON();
 975:Code\UserApp\Protocol/CmdProtocol.c **** 		VoicePlay((uint8)Sound_VERIFY_SUCCESS);
 976:Code\UserApp\Protocol/CmdProtocol.c ****         DoorOpen();
 977:Code\UserApp\Protocol/CmdProtocol.c **** 		delay_with_ble(2000);
 978:Code\UserApp\Protocol/CmdProtocol.c **** 		DoorClose();
 979:Code\UserApp\Protocol/CmdProtocol.c **** 		Led_SetState(LED_State);
 980:Code\UserApp\Protocol/CmdProtocol.c **** 		
 981:Code\UserApp\Protocol/CmdProtocol.c **** 		memcpy(openInfo.card_uid, pUID, CARD_UID_LEN);
 982:Code\UserApp\Protocol/CmdProtocol.c **** 		memcpy(openInfo.open_time, pTime, 4);
 983:Code\UserApp\Protocol/CmdProtocol.c **** 		memset(pTime, 0, 4);
 984:Code\UserApp\Protocol/CmdProtocol.c **** 		memcpy(openInfo.send_time, pTime, 4);
 985:Code\UserApp\Protocol/CmdProtocol.c **** 		Write_OpenInfo(&openInfo, OpenType);
 986:Code\UserApp\Protocol/CmdProtocol.c **** 		//===ã€ç»“æŸã€‘=== è®¾å¤‡å±‚çš„å¤„ç† =========================================================
 987:Code\UserApp\Protocol/CmdProtocol.c **** 		#if 0
 988:Code\UserApp\Protocol/CmdProtocol.c **** 		cur_time = (uint32)RTC_GetUnixTime();
 989:Code\UserApp\Protocol/CmdProtocol.c **** 		if ((cur_time + 300) > next_heartbeat_time)					// ä¸‹ä¸€æ¬¡å¿ƒè·³åœ¨30ç§’ä»¥å†…				//
 990:Code\UserApp\Protocol/CmdProtocol.c **** 		{
 991:Code\UserApp\Protocol/CmdProtocol.c **** 			next_heartbeat_time = cur_time + 300;
 992:Code\UserApp\Protocol/CmdProtocol.c **** 		}
 993:Code\UserApp\Protocol/CmdProtocol.c **** 		#endif
 994:Code\UserApp\Protocol/CmdProtocol.c **** 		if (gprs_state == NORMAL_COMM)
 995:Code\UserApp\Protocol/CmdProtocol.c **** 		{
 996:Code\UserApp\Protocol/CmdProtocol.c **** 			cur_time = (uint32)RTC_GetUnixTime();
 997:Code\UserApp\Protocol/CmdProtocol.c **** 			if(cur_time > next_allupload_time)
 998:Code\UserApp\Protocol/CmdProtocol.c **** 			{
 999:Code\UserApp\Protocol/CmdProtocol.c **** 				next_allupload_time = cur_time + 15;
1000:Code\UserApp\Protocol/CmdProtocol.c **** 				send_upload_open_info(&openInfo, CARD_UID_LEN, OpenType);
1001:Code\UserApp\Protocol/CmdProtocol.c **** 			}
1002:Code\UserApp\Protocol/CmdProtocol.c **** 		}
1003:Code\UserApp\Protocol/CmdProtocol.c **** 	}
1004:Code\UserApp\Protocol/CmdProtocol.c **** 	else
1005:Code\UserApp\Protocol/CmdProtocol.c **** 	{
1006:Code\UserApp\Protocol/CmdProtocol.c **** 		Card_ErrCount++;
1007:Code\UserApp\Protocol/CmdProtocol.c **** 		Led_RedON();
1008:Code\UserApp\Protocol/CmdProtocol.c **** 		VoicePlay(Sound_VERIFY_FAILURE);
1009:Code\UserApp\Protocol/CmdProtocol.c **** 		delay_with_ble(800);
1010:Code\UserApp\Protocol/CmdProtocol.c **** 	}
1011:Code\UserApp\Protocol/CmdProtocol.c **** 		
1012:Code\UserApp\Protocol/CmdProtocol.c **** 	DBG_PRINTF("leaving %s\n", __FUNCTION__);
1013:Code\UserApp\Protocol/CmdProtocol.c **** }
1014:Code\UserApp\Protocol/CmdProtocol.c **** 
1015:Code\UserApp\Protocol/CmdProtocol.c **** //*************************************************************************************************
1016:Code\UserApp\Protocol/CmdProtocol.c **** // Function name	: Protocol_CmdSendOpenInfo
1017:Code\UserApp\Protocol/CmdProtocol.c **** // Description		: å¼€é—¨ä¿¡æ¯ä¸ŠæŠ¥åˆ°æœåŠ¡å™¨æŒ‡ä»¤ï¼ˆæ™ºèƒ½é—¨ç¦â†’æœåŠ¡å™¨ï¼‰
1018:Code\UserApp\Protocol/CmdProtocol.c **** // Parameter		: uint8* RecBuf	å‘½ä»¤åŒ…æŒ‡é’ˆ
ARM GAS  C:\Users\Administrator\AppData\Local\Temp\ccX9Bf8z.s 			page 22


1019:Code\UserApp\Protocol/CmdProtocol.c **** // Return			: none
1020:Code\UserApp\Protocol/CmdProtocol.c **** //-------------------------------------------------------------------------------------------------
1021:Code\UserApp\Protocol/CmdProtocol.c **** // Info				: 0x07å‘½ä»¤ï¼ŒæœåŠ¡å™¨åº”ç­”
1022:Code\UserApp\Protocol/CmdProtocol.c **** //*************************************************************************************************
1023:Code\UserApp\Protocol/CmdProtocol.c **** static void Protocol_CmdSendOpenInfo(uint8* RecBuf)
1024:Code\UserApp\Protocol/CmdProtocol.c **** {
 166              		.loc 1 1024 0
 167              		.cfi_startproc
 168              	.LVL18:
 169 0000 13B5     		push	{r0, r1, r4, lr}
 170              		.cfi_def_cfa_offset 16
 171              		.cfi_offset 0, -16
 172              		.cfi_offset 1, -12
 173              		.cfi_offset 4, -8
 174              		.cfi_offset 14, -4
1025:Code\UserApp\Protocol/CmdProtocol.c **** 	//===ã€å¼€å§‹ã€‘=== è®¾å¤‡å±‚çš„å¤„ç† ==========================================================
1026:Code\UserApp\Protocol/CmdProtocol.c **** 	uint8 opentime[4] = {0};
1027:Code\UserApp\Protocol/CmdProtocol.c **** 	uint8 pTime[4] = {0};
1028:Code\UserApp\Protocol/CmdProtocol.c **** 	uint8 ret_code = 0;
1029:Code\UserApp\Protocol/CmdProtocol.c **** 	
1030:Code\UserApp\Protocol/CmdProtocol.c **** 	memcpy(opentime, RecBuf + 22, 4);								// å¼€é—¨æ—¶é—´							//
 175              		.loc 1 1030 0
 176 0002 011C     		mov	r1, r0
1024:Code\UserApp\Protocol/CmdProtocol.c **** 	//===ã€å¼€å§‹ã€‘=== è®¾å¤‡å±‚çš„å¤„ç† ==========================================================
 177              		.loc 1 1024 0
 178 0004 041C     		mov	r4, r0
 179              		.loc 1 1030 0
 180 0006 1631     		add	r1, r1, #22
 181 0008 0422     		mov	r2, #4
 182 000a 6846     		mov	r0, sp
 183              	.LVL19:
 184 000c FFF7FEFF 		bl	memcpy
 185              	.LVL20:
1031:Code\UserApp\Protocol/CmdProtocol.c **** 	memcpy(pTime, RecBuf + 26, 4);									// æ—¶é—´æˆ³ -- è®°ä½œå‘é€æ—¶é—´ 			//
 186              		.loc 1 1031 0
 187 0010 211C     		mov	r1, r4
 188 0012 01A8     		add	r0, sp, #4
 189 0014 1A31     		add	r1, r1, #26
 190 0016 0422     		mov	r2, #4
 191 0018 FFF7FEFF 		bl	memcpy
 192              	.LVL21:
1032:Code\UserApp\Protocol/CmdProtocol.c **** 	ret_code =  RecBuf[30];											// ç»“æœç 							//
1033:Code\UserApp\Protocol/CmdProtocol.c **** 	
1034:Code\UserApp\Protocol/CmdProtocol.c **** 	if(ret_code == 0x01)
 193              		.loc 1 1034 0
 194 001c A37F     		ldrb	r3, [r4, #30]
 195 001e 012B     		cmp	r3, #1
 196 0020 03D1     		bne	.L5
1035:Code\UserApp\Protocol/CmdProtocol.c **** 		FindAndSet_UploadTime_UploadFlag(opentime, pTime);
 197              		.loc 1 1035 0
 198 0022 6846     		mov	r0, sp
 199 0024 01A9     		add	r1, sp, #4
 200 0026 FFF7FEFF 		bl	FindAndSet_UploadTime_UploadFlag
 201              	.LVL22:
 202              	.L5:
1036:Code\UserApp\Protocol/CmdProtocol.c **** 	else
1037:Code\UserApp\Protocol/CmdProtocol.c **** 	{	
ARM GAS  C:\Users\Administrator\AppData\Local\Temp\ccX9Bf8z.s 			page 23


1038:Code\UserApp\Protocol/CmdProtocol.c **** 		//Fail_openinfo
1039:Code\UserApp\Protocol/CmdProtocol.c **** 		DBG_SOFT_PutStr("\r\n 07 reponse err:\r\n");
1040:Code\UserApp\Protocol/CmdProtocol.c **** 		DBG_SOFT_PrintfHex(&ret_code,1,16);		
1041:Code\UserApp\Protocol/CmdProtocol.c **** 	}	
1042:Code\UserApp\Protocol/CmdProtocol.c **** 	//===ã€ç»“æŸã€‘=== è®¾å¤‡å±‚çš„å¤„ç† ==========================================================
1043:Code\UserApp\Protocol/CmdProtocol.c **** 	
1044:Code\UserApp\Protocol/CmdProtocol.c **** 	#if DBG_SOFT_ENNABLE
1045:Code\UserApp\Protocol/CmdProtocol.c **** 	test_Flash();
1046:Code\UserApp\Protocol/CmdProtocol.c **** 	#endif
1047:Code\UserApp\Protocol/CmdProtocol.c **** 	
1048:Code\UserApp\Protocol/CmdProtocol.c **** 	next_allupload_time = (uint32)RTC_GetUnixTime(); 				// æ¢å¤å»¶æ—¶ä¸ŠæŠ¥çš„æ—¶å»¶				//
 203              		.loc 1 1048 0
 204 002a FFF7FEFF 		bl	RTC_GetUnixTime
 205              	.LVL23:
 206 002e 014B     		ldr	r3, .L7
1049:Code\UserApp\Protocol/CmdProtocol.c **** 	
1050:Code\UserApp\Protocol/CmdProtocol.c **** 	DBG_PRINTF("leaving %s\n", __FUNCTION__);
1051:Code\UserApp\Protocol/CmdProtocol.c **** } 
 207              		.loc 1 1051 0
 208              		@ sp needed
1048:Code\UserApp\Protocol/CmdProtocol.c **** 	
 209              		.loc 1 1048 0
 210 0030 1860     		str	r0, [r3]
 211              	.LVL24:
 212              		.loc 1 1051 0
 213 0032 13BD     		pop	{r0, r1, r4, pc}
 214              	.L8:
 215              		.align	2
 216              	.L7:
 217 0034 00000000 		.word	next_allupload_time
 218              		.cfi_endproc
 219              	.LFE79:
 220              		.size	Protocol_CmdSendOpenInfo, .-Protocol_CmdSendOpenInfo
 221              		.section	.text.Protocol_CmdTimeCheck,"ax",%progbits
 222              		.align	1
 223              		.code	16
 224              		.thumb_func
 225              		.type	Protocol_CmdTimeCheck, %function
 226              	Protocol_CmdTimeCheck:
 227              	.LFB82:
1052:Code\UserApp\Protocol/CmdProtocol.c **** 
1053:Code\UserApp\Protocol/CmdProtocol.c **** //*************************************************************************************************
1054:Code\UserApp\Protocol/CmdProtocol.c **** // Function name	: Protocol_CmdPluse
1055:Code\UserApp\Protocol/CmdProtocol.c **** // Description		: å¿ƒè·³åŒ…ç»™æœåŠ¡å™¨ï¼ˆæ™ºèƒ½é—¨ç¦â†’æœåŠ¡å™¨ï¼‰
1056:Code\UserApp\Protocol/CmdProtocol.c **** // Parameter		: uint8* RecBuf	å‘½ä»¤åŒ…æŒ‡é’ˆ
1057:Code\UserApp\Protocol/CmdProtocol.c **** // Return			: none
1058:Code\UserApp\Protocol/CmdProtocol.c **** //-------------------------------------------------------------------------------------------------
1059:Code\UserApp\Protocol/CmdProtocol.c **** // Info				: 0x08å‘½ä»¤ï¼ŒæœåŠ¡å™¨åº”ç­”
1060:Code\UserApp\Protocol/CmdProtocol.c **** //*************************************************************************************************
1061:Code\UserApp\Protocol/CmdProtocol.c **** static void Protocol_CmdPluse(uint8* RecBuf)
1062:Code\UserApp\Protocol/CmdProtocol.c **** {
1063:Code\UserApp\Protocol/CmdProtocol.c **** 	uint8 ret;
1064:Code\UserApp\Protocol/CmdProtocol.c **** 	uint8 *pstr = RecBuf;
1065:Code\UserApp\Protocol/CmdProtocol.c **** 	uint8 arr_adjtime[4] = {0};
1066:Code\UserApp\Protocol/CmdProtocol.c **** 	uint16 nCmdPackLen = (RecBuf[2] << 8) + RecBuf[3] + 4;
1067:Code\UserApp\Protocol/CmdProtocol.c **** 	
1068:Code\UserApp\Protocol/CmdProtocol.c **** 	//===ã€å¼€å§‹ã€‘=== è®¾å¤‡å±‚çš„å¤„ç† ==========================================================
ARM GAS  C:\Users\Administrator\AppData\Local\Temp\ccX9Bf8z.s 			page 24


1069:Code\UserApp\Protocol/CmdProtocol.c **** 	heartbeat_SendCount = 0;										// æ”¶åˆ°ï¼Œé”™è¯¯æ¬¡æ•°æ¸…é›¶				//
1070:Code\UserApp\Protocol/CmdProtocol.c **** 	ret = *(pstr + nCmdPackLen - 3);
1071:Code\UserApp\Protocol/CmdProtocol.c **** 	if (ret == RT_SUCC)
1072:Code\UserApp\Protocol/CmdProtocol.c **** 	{
1073:Code\UserApp\Protocol/CmdProtocol.c **** 		pstr += 17;
1074:Code\UserApp\Protocol/CmdProtocol.c **** 		memcpy(arr_adjtime, pstr, 4);
1075:Code\UserApp\Protocol/CmdProtocol.c **** 		SetSysRTCTime(arr_adjtime);
1076:Code\UserApp\Protocol/CmdProtocol.c **** 		cur_time = (uint32)RTC_GetUnixTime();						// æ›´æ–°æ—¶é—´							//
1077:Code\UserApp\Protocol/CmdProtocol.c **** 		next_heartbeat_time = cur_time + 300;
1078:Code\UserApp\Protocol/CmdProtocol.c **** 	}
1079:Code\UserApp\Protocol/CmdProtocol.c **** 	Updatealarm_check();
1080:Code\UserApp\Protocol/CmdProtocol.c **** 	
1081:Code\UserApp\Protocol/CmdProtocol.c **** 	//===ã€ç»“æŸã€‘=== è®¾å¤‡å±‚çš„å¤„ç† ==========================================================
1082:Code\UserApp\Protocol/CmdProtocol.c **** 	
1083:Code\UserApp\Protocol/CmdProtocol.c **** 	
1084:Code\UserApp\Protocol/CmdProtocol.c **** 	DBG_PRINTF("leaving %s\n", __FUNCTION__);
1085:Code\UserApp\Protocol/CmdProtocol.c **** }  
1086:Code\UserApp\Protocol/CmdProtocol.c **** 
1087:Code\UserApp\Protocol/CmdProtocol.c **** //*************************************************************************************************
1088:Code\UserApp\Protocol/CmdProtocol.c **** // Function name	: Protocol_CmdClearUID
1089:Code\UserApp\Protocol/CmdProtocol.c **** // Description		: æ¸…ç©ºæ™ºèƒ½é—¨ç¦æ‰€æœ‰UID å’Œæœ‰æ•ˆæœŸæŒ‡ä»¤
1090:Code\UserApp\Protocol/CmdProtocol.c **** // Parameter		: uint8* RecBuf	å‘½ä»¤åŒ…æŒ‡é’ˆ
1091:Code\UserApp\Protocol/CmdProtocol.c **** // Return			: none
1092:Code\UserApp\Protocol/CmdProtocol.c **** //-------------------------------------------------------------------------------------------------
1093:Code\UserApp\Protocol/CmdProtocol.c **** // Info				: 0x09å‘½ä»¤ï¼ŒæœåŠ¡å™¨å‘é€
1094:Code\UserApp\Protocol/CmdProtocol.c **** //*************************************************************************************************
1095:Code\UserApp\Protocol/CmdProtocol.c **** static void Protocol_CmdClearUID(uint8* RecBuf)
1096:Code\UserApp\Protocol/CmdProtocol.c **** {
1097:Code\UserApp\Protocol/CmdProtocol.c **** 	uint8 RetCode = RT_SUCC;
1098:Code\UserApp\Protocol/CmdProtocol.c **** 	uint8 DataBuf[64];
1099:Code\UserApp\Protocol/CmdProtocol.c **** 	uint8 *pT = DataBuf;
1100:Code\UserApp\Protocol/CmdProtocol.c **** 	uint8 comm_chanle = RecBuf[4];								// å–å‡ºä¿¡é“å€¼							//
1101:Code\UserApp\Protocol/CmdProtocol.c **** 		 
1102:Code\UserApp\Protocol/CmdProtocol.c **** 	memset(pT, 0, sizeof(DataBuf));
1103:Code\UserApp\Protocol/CmdProtocol.c **** 	memcpy(pT, RecBuf + 7, 10);									// å–å‡ºMACåœ°å€å’Œæ—¶é—´æˆ³					//
1104:Code\UserApp\Protocol/CmdProtocol.c **** 	pT += 10;
1105:Code\UserApp\Protocol/CmdProtocol.c **** 
1106:Code\UserApp\Protocol/CmdProtocol.c **** 	//===ã€å¼€å§‹ã€‘=== è®¾å¤‡å±‚çš„å¤„ç† ==========================================================
1107:Code\UserApp\Protocol/CmdProtocol.c **** 	if (TRUE == UserData_CLR_User())
1108:Code\UserApp\Protocol/CmdProtocol.c **** 	{
1109:Code\UserApp\Protocol/CmdProtocol.c **** 		RetCode = RT_SUCC;
1110:Code\UserApp\Protocol/CmdProtocol.c **** 		VoicePlay((uint8)Sound_EMPTY_SUCCESS);
1111:Code\UserApp\Protocol/CmdProtocol.c **** 	}
1112:Code\UserApp\Protocol/CmdProtocol.c **** 	else
1113:Code\UserApp\Protocol/CmdProtocol.c **** 	{
1114:Code\UserApp\Protocol/CmdProtocol.c **** 		RetCode = RT_FAIL;
1115:Code\UserApp\Protocol/CmdProtocol.c **** 		VoicePlay((uint8)Sound_EMPTY_FAILURE);
1116:Code\UserApp\Protocol/CmdProtocol.c **** 	}
1117:Code\UserApp\Protocol/CmdProtocol.c **** 	//===ã€ç»“æŸã€‘=== è®¾å¤‡å±‚çš„å¤„ç† ==========================================================
1118:Code\UserApp\Protocol/CmdProtocol.c **** 
1119:Code\UserApp\Protocol/CmdProtocol.c **** 	*pT = RetCode;
1120:Code\UserApp\Protocol/CmdProtocol.c **** 	Protocol_SendAckPacket(comm_chanle, PACK_RESP, RecBuf[6], DataBuf, 11);
1121:Code\UserApp\Protocol/CmdProtocol.c **** 	
1122:Code\UserApp\Protocol/CmdProtocol.c **** 	#if DBG_SOFT_ENNABLE
1123:Code\UserApp\Protocol/CmdProtocol.c **** 	Clear_AllOPeninfo();
1124:Code\UserApp\Protocol/CmdProtocol.c **** 	#endif
1125:Code\UserApp\Protocol/CmdProtocol.c **** 	
ARM GAS  C:\Users\Administrator\AppData\Local\Temp\ccX9Bf8z.s 			page 25


1126:Code\UserApp\Protocol/CmdProtocol.c **** 	DBG_PRINTF("leaving %s\n", __FUNCTION__);
1127:Code\UserApp\Protocol/CmdProtocol.c **** }  
1128:Code\UserApp\Protocol/CmdProtocol.c **** 
1129:Code\UserApp\Protocol/CmdProtocol.c **** //*************************************************************************************************
1130:Code\UserApp\Protocol/CmdProtocol.c **** // Function name	: Protocol_CmdTimeCheck
1131:Code\UserApp\Protocol/CmdProtocol.c **** // Description		: æ—¶é—´æ ¡å‡†è¯·æ±‚ï¼ˆæ™ºèƒ½é—¨ç¦â†’æœåŠ¡å™¨ï¼‰
1132:Code\UserApp\Protocol/CmdProtocol.c **** // Parameter		: uint8* RecBuf	å‘½ä»¤åŒ…æŒ‡é’ˆ
1133:Code\UserApp\Protocol/CmdProtocol.c **** // Return			: none
1134:Code\UserApp\Protocol/CmdProtocol.c **** //-------------------------------------------------------------------------------------------------
1135:Code\UserApp\Protocol/CmdProtocol.c **** // Info				: 0x0Aå‘½ä»¤ï¼ŒæœåŠ¡å™¨åº”ç­”
1136:Code\UserApp\Protocol/CmdProtocol.c **** //*************************************************************************************************
1137:Code\UserApp\Protocol/CmdProtocol.c **** static void Protocol_CmdTimeCheck(uint8* RecBuf)
1138:Code\UserApp\Protocol/CmdProtocol.c **** {	
 228              		.loc 1 1138 0
 229              		.cfi_startproc
 230              	.LVL25:
 231 0000 07B5     		push	{r0, r1, r2, lr}
 232              		.cfi_def_cfa_offset 16
 233              		.cfi_offset 0, -16
 234              		.cfi_offset 1, -12
 235              		.cfi_offset 2, -8
 236              		.cfi_offset 14, -4
1139:Code\UserApp\Protocol/CmdProtocol.c **** 	uint8 *pstr = RecBuf;
1140:Code\UserApp\Protocol/CmdProtocol.c **** 	uint8 arr_adjtime[4] = {0};
1141:Code\UserApp\Protocol/CmdProtocol.c **** 	
1142:Code\UserApp\Protocol/CmdProtocol.c **** 	//===ã€å¼€å§‹ã€‘=== è®¾å¤‡å±‚çš„å¤„ç† ==========================================================
1143:Code\UserApp\Protocol/CmdProtocol.c **** 	pstr += 17;
1144:Code\UserApp\Protocol/CmdProtocol.c **** 	memcpy(arr_adjtime, pstr, 4);
 237              		.loc 1 1144 0
 238 0002 011C     		mov	r1, r0
 239 0004 0422     		mov	r2, #4
 240 0006 1131     		add	r1, r1, #17
 241              	.LVL26:
 242 0008 01A8     		add	r0, sp, #4
 243              	.LVL27:
 244 000a FFF7FEFF 		bl	memcpy
 245              	.LVL28:
1145:Code\UserApp\Protocol/CmdProtocol.c **** 	SetSysRTCTime(arr_adjtime);
 246              		.loc 1 1145 0
 247 000e 01A8     		add	r0, sp, #4
 248 0010 FFF7FEFF 		bl	SetSysRTCTime
 249              	.LVL29:
1146:Code\UserApp\Protocol/CmdProtocol.c **** 	cur_time = (uint32)RTC_GetUnixTime();
 250              		.loc 1 1146 0
 251 0014 FFF7FEFF 		bl	RTC_GetUnixTime
 252              	.LVL30:
 253 0018 014B     		ldr	r3, .L10
1147:Code\UserApp\Protocol/CmdProtocol.c **** 	//===ã€ç»“æŸã€‘=== è®¾å¤‡å±‚çš„å¤„ç† ==========================================================
1148:Code\UserApp\Protocol/CmdProtocol.c ****  
1149:Code\UserApp\Protocol/CmdProtocol.c **** 	DBG_PRINTF("leaving %s\n", __FUNCTION__);
1150:Code\UserApp\Protocol/CmdProtocol.c **** }  
 254              		.loc 1 1150 0
 255              		@ sp needed
1146:Code\UserApp\Protocol/CmdProtocol.c **** 	cur_time = (uint32)RTC_GetUnixTime();
 256              		.loc 1 1146 0
 257 001a 1860     		str	r0, [r3]
 258              		.loc 1 1150 0
ARM GAS  C:\Users\Administrator\AppData\Local\Temp\ccX9Bf8z.s 			page 26


 259 001c 07BD     		pop	{r0, r1, r2, pc}
 260              	.L11:
 261 001e C046     		.align	2
 262              	.L10:
 263 0020 00000000 		.word	cur_time
 264              		.cfi_endproc
 265              	.LFE82:
 266              		.size	Protocol_CmdTimeCheck, .-Protocol_CmdTimeCheck
 267              		.section	.text.Protocol_CmdPluse,"ax",%progbits
 268              		.align	1
 269              		.code	16
 270              		.thumb_func
 271              		.type	Protocol_CmdPluse, %function
 272              	Protocol_CmdPluse:
 273              	.LFB80:
1062:Code\UserApp\Protocol/CmdProtocol.c **** 	uint8 ret;
 274              		.loc 1 1062 0
 275              		.cfi_startproc
 276              	.LVL31:
 277 0000 07B5     		push	{r0, r1, r2, lr}
 278              		.cfi_def_cfa_offset 16
 279              		.cfi_offset 0, -16
 280              		.cfi_offset 1, -12
 281              		.cfi_offset 2, -8
 282              		.cfi_offset 14, -4
1065:Code\UserApp\Protocol/CmdProtocol.c **** 	uint16 nCmdPackLen = (RecBuf[2] << 8) + RecBuf[3] + 4;
 283              		.loc 1 1065 0
 284 0002 0021     		mov	r1, #0
1066:Code\UserApp\Protocol/CmdProtocol.c **** 	
 285              		.loc 1 1066 0
 286 0004 C378     		ldrb	r3, [r0, #3]
1065:Code\UserApp\Protocol/CmdProtocol.c **** 	uint16 nCmdPackLen = (RecBuf[2] << 8) + RecBuf[3] + 4;
 287              		.loc 1 1065 0
 288 0006 0191     		str	r1, [sp, #4]
 289 0008 1A1D     		add	r2, r3, #4
1066:Code\UserApp\Protocol/CmdProtocol.c **** 	
 290              		.loc 1 1066 0
 291 000a 8378     		ldrb	r3, [r0, #2]
 292 000c 1B02     		lsl	r3, r3, #8
 293 000e D318     		add	r3, r2, r3
 294 0010 9BB2     		uxth	r3, r3
 295              	.LVL32:
1069:Code\UserApp\Protocol/CmdProtocol.c **** 	ret = *(pstr + nCmdPackLen - 3);
 296              		.loc 1 1069 0
 297 0012 0D4A     		ldr	r2, .L14
1070:Code\UserApp\Protocol/CmdProtocol.c **** 	if (ret == RT_SUCC)
 298              		.loc 1 1070 0
 299 0014 C318     		add	r3, r0, r3
 300              	.LVL33:
1069:Code\UserApp\Protocol/CmdProtocol.c **** 	ret = *(pstr + nCmdPackLen - 3);
 301              		.loc 1 1069 0
 302 0016 1170     		strb	r1, [r2]
 303              	.LVL34:
1070:Code\UserApp\Protocol/CmdProtocol.c **** 	if (ret == RT_SUCC)
 304              		.loc 1 1070 0
 305 0018 033B     		sub	r3, r3, #3
1071:Code\UserApp\Protocol/CmdProtocol.c **** 	{
ARM GAS  C:\Users\Administrator\AppData\Local\Temp\ccX9Bf8z.s 			page 27


 306              		.loc 1 1071 0
 307 001a 1B78     		ldrb	r3, [r3]
 308 001c 012B     		cmp	r3, #1
 309 001e 10D1     		bne	.L13
 310              	.LVL35:
1074:Code\UserApp\Protocol/CmdProtocol.c **** 		SetSysRTCTime(arr_adjtime);
 311              		.loc 1 1074 0
 312 0020 011C     		mov	r1, r0
 313 0022 0422     		mov	r2, #4
 314 0024 1131     		add	r1, r1, #17
 315              	.LVL36:
 316 0026 01A8     		add	r0, sp, #4
 317              	.LVL37:
 318 0028 FFF7FEFF 		bl	memcpy
 319              	.LVL38:
1075:Code\UserApp\Protocol/CmdProtocol.c **** 		cur_time = (uint32)RTC_GetUnixTime();						// æ›´æ–°æ—¶é—´							//
 320              		.loc 1 1075 0
 321 002c 01A8     		add	r0, sp, #4
 322 002e FFF7FEFF 		bl	SetSysRTCTime
 323              	.LVL39:
1076:Code\UserApp\Protocol/CmdProtocol.c **** 		next_heartbeat_time = cur_time + 300;
 324              		.loc 1 1076 0
 325 0032 FFF7FEFF 		bl	RTC_GetUnixTime
 326              	.LVL40:
 327 0036 054B     		ldr	r3, .L14+4
 328 0038 1860     		str	r0, [r3]
1077:Code\UserApp\Protocol/CmdProtocol.c **** 	}
 329              		.loc 1 1077 0
 330 003a 2D30     		add	r0, r0, #45
 331 003c 044B     		ldr	r3, .L14+8
 332 003e FF30     		add	r0, r0, #255
 333 0040 1860     		str	r0, [r3]
 334              	.LVL41:
 335              	.L13:
1079:Code\UserApp\Protocol/CmdProtocol.c **** 	
 336              		.loc 1 1079 0
 337 0042 FFF7FEFF 		bl	Updatealarm_check
 338              	.LVL42:
1085:Code\UserApp\Protocol/CmdProtocol.c **** 
 339              		.loc 1 1085 0
 340              		@ sp needed
 341 0046 07BD     		pop	{r0, r1, r2, pc}
 342              	.L15:
 343              		.align	2
 344              	.L14:
 345 0048 00000000 		.word	heartbeat_SendCount
 346 004c 00000000 		.word	cur_time
 347 0050 00000000 		.word	next_heartbeat_time
 348              		.cfi_endproc
 349              	.LFE80:
 350              		.size	Protocol_CmdPluse, .-Protocol_CmdPluse
 351              		.section	.text.Protocol_CmdManufac,"ax",%progbits
 352              		.align	1
 353              		.code	16
 354              		.thumb_func
 355              		.type	Protocol_CmdManufac, %function
 356              	Protocol_CmdManufac:
ARM GAS  C:\Users\Administrator\AppData\Local\Temp\ccX9Bf8z.s 			page 28


 357              	.LFB89:
1151:Code\UserApp\Protocol/CmdProtocol.c **** 
1152:Code\UserApp\Protocol/CmdProtocol.c **** //*************************************************************************************************
1153:Code\UserApp\Protocol/CmdProtocol.c **** // Function name	: Protocol_CmdSendWarnInfo
1154:Code\UserApp\Protocol/CmdProtocol.c **** // Description		: æŠ¥è­¦ä¿¡æ¯ä¸ŠæŠ¥åˆ°æœåŠ¡å™¨æŒ‡ä»¤ï¼ˆæ™ºèƒ½é—¨ç¦â†’æœåŠ¡å™¨ï¼‰
1155:Code\UserApp\Protocol/CmdProtocol.c **** // Parameter		: uint8* RecBuf	å‘½ä»¤åŒ…æŒ‡é’ˆ
1156:Code\UserApp\Protocol/CmdProtocol.c **** // Return			: none
1157:Code\UserApp\Protocol/CmdProtocol.c **** //-------------------------------------------------------------------------------------------------
1158:Code\UserApp\Protocol/CmdProtocol.c **** // Info				: 0x0Bå‘½ä»¤ï¼ŒæœåŠ¡å™¨åº”ç­”
1159:Code\UserApp\Protocol/CmdProtocol.c **** //*************************************************************************************************
1160:Code\UserApp\Protocol/CmdProtocol.c **** static void Protocol_CmdSendWarnInfo(uint8* RecBuf)
1161:Code\UserApp\Protocol/CmdProtocol.c **** {
1162:Code\UserApp\Protocol/CmdProtocol.c **** 	uint8 *pstr = RecBuf;
1163:Code\UserApp\Protocol/CmdProtocol.c **** 	uint8 nCmdPackLen= (RecBuf[2] << 8) + RecBuf[3] + 4;
1164:Code\UserApp\Protocol/CmdProtocol.c **** 
1165:Code\UserApp\Protocol/CmdProtocol.c **** 	//===ã€å¼€å§‹ã€‘=== è®¾å¤‡å±‚çš„å¤„ç† ==========================================================
1166:Code\UserApp\Protocol/CmdProtocol.c **** 	//
1167:Code\UserApp\Protocol/CmdProtocol.c **** 	//æ£€æŸ¥æŠ¥è­¦çš„åº”ç­”åŒ…æ˜¯å¦æˆåŠŸ,å¦‚å¤±è´¥éœ€é‡æ–°ä¸ŠæŠ¥ï¼Œæš‚æ—¶ä¸åš
1168:Code\UserApp\Protocol/CmdProtocol.c **** 	//
1169:Code\UserApp\Protocol/CmdProtocol.c **** 	//===ã€å¼€å§‹ã€‘=== è®¾å¤‡å±‚çš„å¤„ç† ==========================================================
1170:Code\UserApp\Protocol/CmdProtocol.c **** 		
1171:Code\UserApp\Protocol/CmdProtocol.c **** 	DBG_PRINTF("leaving %s\n", __FUNCTION__);
1172:Code\UserApp\Protocol/CmdProtocol.c **** }  
1173:Code\UserApp\Protocol/CmdProtocol.c **** 
1174:Code\UserApp\Protocol/CmdProtocol.c **** //*************************************************************************************************
1175:Code\UserApp\Protocol/CmdProtocol.c **** // Function name	: Protocol_CmdReadInfo
1176:Code\UserApp\Protocol/CmdProtocol.c **** // Description		: è¯»å–ç»™å®šæ—¶é—´èŒƒå›´å†…å¼€é—¨æ—¥å¿—æŒ‡ä»¤
1177:Code\UserApp\Protocol/CmdProtocol.c **** // Parameter		: uint8* RecBuf	å‘½ä»¤åŒ…æŒ‡é’ˆ
1178:Code\UserApp\Protocol/CmdProtocol.c **** // Return			: none
1179:Code\UserApp\Protocol/CmdProtocol.c **** //-------------------------------------------------------------------------------------------------
1180:Code\UserApp\Protocol/CmdProtocol.c **** // Info				: 0x0Cå‘½ä»¤ï¼ŒæœåŠ¡å™¨å‘é€
1181:Code\UserApp\Protocol/CmdProtocol.c **** //uint16 UploadQty;
1182:Code\UserApp\Protocol/CmdProtocol.c **** //uint16 UploadStartnum;
1183:Code\UserApp\Protocol/CmdProtocol.c **** //*************************************************************************************************
1184:Code\UserApp\Protocol/CmdProtocol.c **** static void Protocol_CmdReadInfo(uint8* RecBuf)
1185:Code\UserApp\Protocol/CmdProtocol.c **** {
1186:Code\UserApp\Protocol/CmdProtocol.c **** 	uint8 i;
1187:Code\UserApp\Protocol/CmdProtocol.c **** 	uint8 RetCode = RT_SUCC;
1188:Code\UserApp\Protocol/CmdProtocol.c **** 	uint8 DataBuf[256];
1189:Code\UserApp\Protocol/CmdProtocol.c **** 	uint8 *pT = DataBuf;
1190:Code\UserApp\Protocol/CmdProtocol.c **** 	uint8 comm_chanle = RecBuf[4];								// å–å‡ºä¿¡é“å€¼							//
1191:Code\UserApp\Protocol/CmdProtocol.c **** 	uint8 data_openinfo[256];
1192:Code\UserApp\Protocol/CmdProtocol.c **** 	uint8  start_t[4];
1193:Code\UserApp\Protocol/CmdProtocol.c **** 	uint8  end_t[4];
1194:Code\UserApp\Protocol/CmdProtocol.c **** 	uint32 start_time;
1195:Code\UserApp\Protocol/CmdProtocol.c **** 	uint32 end_time;
1196:Code\UserApp\Protocol/CmdProtocol.c **** 	uint16 app_group = 0;
1197:Code\UserApp\Protocol/CmdProtocol.c **** 	uint16 nCmdPackLen = (RecBuf[2] << 8) + RecBuf[3] + 4;
1198:Code\UserApp\Protocol/CmdProtocol.c **** 	uint16 tUploadQty;											// å­˜æ”¾æœ¬æ¬¡å‘é€çš„é•¿åº¦					//
1199:Code\UserApp\Protocol/CmdProtocol.c **** 	uint8 cmd;
1200:Code\UserApp\Protocol/CmdProtocol.c **** 	
1201:Code\UserApp\Protocol/CmdProtocol.c ****     memset(pT, 0, sizeof(DataBuf));
1202:Code\UserApp\Protocol/CmdProtocol.c **** 	cmd = RecBuf[6];
1203:Code\UserApp\Protocol/CmdProtocol.c **** 	memcpy(pT, RecBuf + 7, 6);								// å–å‡ºMACåœ°å€å’Œæ—¶é—´æˆ³					//
1204:Code\UserApp\Protocol/CmdProtocol.c ****     pT += 6;
1205:Code\UserApp\Protocol/CmdProtocol.c **** 	
1206:Code\UserApp\Protocol/CmdProtocol.c **** 	//===ã€å¼€å§‹ã€‘=== è®¾å¤‡å±‚çš„å¤„ç† ==========================================================
ARM GAS  C:\Users\Administrator\AppData\Local\Temp\ccX9Bf8z.s 			page 29


1207:Code\UserApp\Protocol/CmdProtocol.c **** 	app_group = (RecBuf[21] << 8) + RecBuf[22];					// ç»„å·									//
1208:Code\UserApp\Protocol/CmdProtocol.c **** 	
1209:Code\UserApp\Protocol/CmdProtocol.c **** 	if (app_group == 1)
1210:Code\UserApp\Protocol/CmdProtocol.c **** 	{
1211:Code\UserApp\Protocol/CmdProtocol.c **** 		memcpy(start_t, RecBuf + 13, 4);           				// å–å§‹æœ«æ—¶é—´							//
1212:Code\UserApp\Protocol/CmdProtocol.c **** 		memcpy(end_t, RecBuf + 13 + 4, 4);
1213:Code\UserApp\Protocol/CmdProtocol.c **** 		start_time = BYTE2LONG(start_t[0], start_t[1], start_t[2], start_t[3]);
1214:Code\UserApp\Protocol/CmdProtocol.c **** 		end_time = BYTE2LONG(end_t[0], end_t[1], end_t[2], end_t[3]);
1215:Code\UserApp\Protocol/CmdProtocol.c **** 		
1216:Code\UserApp\Protocol/CmdProtocol.c **** 		if(start_time > end_time)
1217:Code\UserApp\Protocol/CmdProtocol.c **** 		{
1218:Code\UserApp\Protocol/CmdProtocol.c **** 			RetCode = RT_StartOrEnd_ERR;
1219:Code\UserApp\Protocol/CmdProtocol.c **** 		}
1220:Code\UserApp\Protocol/CmdProtocol.c **** 		
1221:Code\UserApp\Protocol/CmdProtocol.c **** 		UploadQty = Find_Open_ValidQty(start_time, end_time);
1222:Code\UserApp\Protocol/CmdProtocol.c **** 		if (UploadQty > 0)
1223:Code\UserApp\Protocol/CmdProtocol.c **** 		{
1224:Code\UserApp\Protocol/CmdProtocol.c **** 			UploadStartnum = Find_Open_StartNum(start_time);
1225:Code\UserApp\Protocol/CmdProtocol.c **** 		}
1226:Code\UserApp\Protocol/CmdProtocol.c **** 	}
1227:Code\UserApp\Protocol/CmdProtocol.c **** 	
1228:Code\UserApp\Protocol/CmdProtocol.c **** 	if (UploadQty <= OPENDATA_UPPAGE_LEN)
1229:Code\UserApp\Protocol/CmdProtocol.c **** 	{
1230:Code\UserApp\Protocol/CmdProtocol.c **** 		*pT++ = 0;												// ç»„å·									//
1231:Code\UserApp\Protocol/CmdProtocol.c **** 		*pT++ = 0;
1232:Code\UserApp\Protocol/CmdProtocol.c **** 		
1233:Code\UserApp\Protocol/CmdProtocol.c **** 		tUploadQty = UploadQty;
1234:Code\UserApp\Protocol/CmdProtocol.c **** 		memcpy(pT, &tUploadQty, 1);								// æœ¬æ¬¡å‘é€æ•°é‡							//
1235:Code\UserApp\Protocol/CmdProtocol.c **** 		pT += 1;
1236:Code\UserApp\Protocol/CmdProtocol.c **** 		
1237:Code\UserApp\Protocol/CmdProtocol.c **** 		for (i = 0; i < tUploadQty; i++)
1238:Code\UserApp\Protocol/CmdProtocol.c **** 		{
1239:Code\UserApp\Protocol/CmdProtocol.c **** 		    Get_Open_Info(UploadStartnum + i, 1, data_openinfo);
1240:Code\UserApp\Protocol/CmdProtocol.c **** 		    memcpy(pT, data_openinfo, 16);
1241:Code\UserApp\Protocol/CmdProtocol.c **** 		    pT += 16;
1242:Code\UserApp\Protocol/CmdProtocol.c **** 			*pT++ = Read_Open_Type(UploadStartnum + i);			// å¼€é—¨æ–¹å¼								//
1243:Code\UserApp\Protocol/CmdProtocol.c **** 		}
1244:Code\UserApp\Protocol/CmdProtocol.c **** 		UploadQty = 0;
1245:Code\UserApp\Protocol/CmdProtocol.c **** 		UploadStartnum = 0;
1246:Code\UserApp\Protocol/CmdProtocol.c **** 	}
1247:Code\UserApp\Protocol/CmdProtocol.c **** 	else
1248:Code\UserApp\Protocol/CmdProtocol.c **** 	{
1249:Code\UserApp\Protocol/CmdProtocol.c **** 		*pT++ = RecBuf[21];										// ç»„å·									//
1250:Code\UserApp\Protocol/CmdProtocol.c **** 		*pT++ = RecBuf[22];
1251:Code\UserApp\Protocol/CmdProtocol.c **** 		
1252:Code\UserApp\Protocol/CmdProtocol.c **** 		tUploadQty = OPENDATA_UPPAGE_LEN;
1253:Code\UserApp\Protocol/CmdProtocol.c **** 		*pT++ = OPENDATA_UPPAGE_LEN;							// æœ¬æ¬¡å‘é€æ•°é‡							//
1254:Code\UserApp\Protocol/CmdProtocol.c **** 		
1255:Code\UserApp\Protocol/CmdProtocol.c **** 		for (i = 0; i < OPENDATA_UPPAGE_LEN; i++)
1256:Code\UserApp\Protocol/CmdProtocol.c **** 		{
1257:Code\UserApp\Protocol/CmdProtocol.c **** 		    Get_Open_Info(UploadStartnum + i, 1, data_openinfo);
1258:Code\UserApp\Protocol/CmdProtocol.c **** 		    memcpy(pT, data_openinfo, 16);
1259:Code\UserApp\Protocol/CmdProtocol.c **** 		    pT += 16;
1260:Code\UserApp\Protocol/CmdProtocol.c **** 			*pT++ = Read_Open_Type(UploadStartnum + i);			// å¼€é—¨æ–¹å¼								//
1261:Code\UserApp\Protocol/CmdProtocol.c **** 		}
1262:Code\UserApp\Protocol/CmdProtocol.c **** 		UploadQty -= tUploadQty;
1263:Code\UserApp\Protocol/CmdProtocol.c **** 		UploadStartnum += tUploadQty;
ARM GAS  C:\Users\Administrator\AppData\Local\Temp\ccX9Bf8z.s 			page 30


1264:Code\UserApp\Protocol/CmdProtocol.c **** 	}
1265:Code\UserApp\Protocol/CmdProtocol.c **** 	
1266:Code\UserApp\Protocol/CmdProtocol.c **** 	memcpy(pT, RecBuf + nCmdPackLen - 6, 4);					// æ—¶é—´æˆ³								//
1267:Code\UserApp\Protocol/CmdProtocol.c **** 	pT += 4;        
1268:Code\UserApp\Protocol/CmdProtocol.c **** 
1269:Code\UserApp\Protocol/CmdProtocol.c **** 	*pT = RetCode;												// ç»“æœç 								//
1270:Code\UserApp\Protocol/CmdProtocol.c **** 	
1271:Code\UserApp\Protocol/CmdProtocol.c **** 	Protocol_SendAckPacket(comm_chanle, PACK_RESP, cmd, DataBuf, 14 + (tUploadQty * (1 + sizeof(open_d
1272:Code\UserApp\Protocol/CmdProtocol.c **** 	
1273:Code\UserApp\Protocol/CmdProtocol.c **** 	#if DBG_SOFT_ENNABLE
1274:Code\UserApp\Protocol/CmdProtocol.c **** 	test_Flash();
1275:Code\UserApp\Protocol/CmdProtocol.c **** 	#endif
1276:Code\UserApp\Protocol/CmdProtocol.c **** 	
1277:Code\UserApp\Protocol/CmdProtocol.c **** 	DBG_PRINTF("leaving %s\n", __FUNCTION__);
1278:Code\UserApp\Protocol/CmdProtocol.c **** }
1279:Code\UserApp\Protocol/CmdProtocol.c **** 
1280:Code\UserApp\Protocol/CmdProtocol.c **** //*************************************************************************************************
1281:Code\UserApp\Protocol/CmdProtocol.c **** // Function name	: Protocol_CmdRemoteUpdate
1282:Code\UserApp\Protocol/CmdProtocol.c **** // Description		: æœåŠ¡å™¨å‘æ™ºèƒ½é—¨ç¦å‘é€è¿œç¨‹å‡çº§æŒ‡ä»¤ï¼ˆæœåŠ¡å™¨â†’æ™ºèƒ½é—¨ç¦ï¼‰
1283:Code\UserApp\Protocol/CmdProtocol.c **** // Parameter		: uint8* RecBuf	å‘½ä»¤åŒ…æŒ‡é’ˆ
1284:Code\UserApp\Protocol/CmdProtocol.c **** // Return			: none
1285:Code\UserApp\Protocol/CmdProtocol.c **** //-------------------------------------------------------------------------------------------------
1286:Code\UserApp\Protocol/CmdProtocol.c **** // Info				: 0x0Då‘½ä»¤ï¼ŒæœåŠ¡å™¨å‘é€
1287:Code\UserApp\Protocol/CmdProtocol.c **** //*************************************************************************************************
1288:Code\UserApp\Protocol/CmdProtocol.c **** static void Protocol_CmdRemoteUpdate(uint8* RecBuf)
1289:Code\UserApp\Protocol/CmdProtocol.c **** {
1290:Code\UserApp\Protocol/CmdProtocol.c **** 	uint8 RetCode = RT_SUCC;
1291:Code\UserApp\Protocol/CmdProtocol.c **** 	uint8 DataBuf[64];
1292:Code\UserApp\Protocol/CmdProtocol.c **** 	uint8 *pT = DataBuf;
1293:Code\UserApp\Protocol/CmdProtocol.c **** 	uint8 comm_chanle = RecBuf[4];								// å–å‡ºä¿¡é“å€¼							//
1294:Code\UserApp\Protocol/CmdProtocol.c **** 	uint8 port_str[4];
1295:Code\UserApp\Protocol/CmdProtocol.c **** 	uint16 port_hex;
1296:Code\UserApp\Protocol/CmdProtocol.c **** 	
1297:Code\UserApp\Protocol/CmdProtocol.c **** 	memcpy(pT, RecBuf + 7, 6);									// å–å‡ºMACåœ°å€ï¼Œç†è®ºåº”åŠ ä¸ŠMACæ ¡éªŒ		//
1298:Code\UserApp\Protocol/CmdProtocol.c **** 	pT += 6;
1299:Code\UserApp\Protocol/CmdProtocol.c **** 	
1300:Code\UserApp\Protocol/CmdProtocol.c **** 	memcpy(domain, RecBuf + 13, 200);							// 200å­—èŠ‚IPæˆ–åŸŸå						//
1301:Code\UserApp\Protocol/CmdProtocol.c **** 	memcpy((char *)update_ip, (char *)domain, strlen((char *)domain));
1302:Code\UserApp\Protocol/CmdProtocol.c **** 	
1303:Code\UserApp\Protocol/CmdProtocol.c **** 	port_hex = (RecBuf[213] << 8) + RecBuf[214];				// ç«¯å£å·								//
1304:Code\UserApp\Protocol/CmdProtocol.c **** 	port_str[0]= port_hex/1000 + '0';
1305:Code\UserApp\Protocol/CmdProtocol.c **** 	port_str[1]= port_hex%1000/100 + '0';
1306:Code\UserApp\Protocol/CmdProtocol.c **** 	port_str[2]= port_hex%100/10 + '0';
1307:Code\UserApp\Protocol/CmdProtocol.c **** 	port_str[3]= port_hex%10 + '0';
1308:Code\UserApp\Protocol/CmdProtocol.c **** 	memcpy(update_port, port_str, 4);
1309:Code\UserApp\Protocol/CmdProtocol.c **** 	
1310:Code\UserApp\Protocol/CmdProtocol.c **** 	*pT++ = RecBuf[215];										// å‡çº§ç‰ˆæœ¬								//
1311:Code\UserApp\Protocol/CmdProtocol.c **** 	*pT++ = RecBuf[216];
1312:Code\UserApp\Protocol/CmdProtocol.c **** 	update_version = (RecBuf[215] << 8) + RecBuf[216];
1313:Code\UserApp\Protocol/CmdProtocol.c **** 	
1314:Code\UserApp\Protocol/CmdProtocol.c **** 	memcpy(pT, RecBuf + 219, 4);								// æ—¶é—´æˆ³								//
1315:Code\UserApp\Protocol/CmdProtocol.c **** 	pT += 4;
1316:Code\UserApp\Protocol/CmdProtocol.c **** 	
1317:Code\UserApp\Protocol/CmdProtocol.c **** 	if (update_version <= system_version)
1318:Code\UserApp\Protocol/CmdProtocol.c **** 	{
1319:Code\UserApp\Protocol/CmdProtocol.c **** 		RetCode = RT_NEWEST;
1320:Code\UserApp\Protocol/CmdProtocol.c **** 	}
ARM GAS  C:\Users\Administrator\AppData\Local\Temp\ccX9Bf8z.s 			page 31


1321:Code\UserApp\Protocol/CmdProtocol.c **** 	else
1322:Code\UserApp\Protocol/CmdProtocol.c **** 	{
1323:Code\UserApp\Protocol/CmdProtocol.c **** 		if (0 == strlen((char *)update_ip))
1324:Code\UserApp\Protocol/CmdProtocol.c **** 		{
1325:Code\UserApp\Protocol/CmdProtocol.c **** 			RetCode = RT_IPorPort_ERR;
1326:Code\UserApp\Protocol/CmdProtocol.c **** 		}
1327:Code\UserApp\Protocol/CmdProtocol.c **** 		else
1328:Code\UserApp\Protocol/CmdProtocol.c **** 		{
1329:Code\UserApp\Protocol/CmdProtocol.c **** 			//å­˜ä¸‹å¾…å‡çº§ç‰ˆæœ¬å·å’Œå‡çº§æ ‡å¿—ä½ é‡å¯çš„æ—¶å€™åˆ¤æ–­falg==1å’Œç³»ç»Ÿç‰ˆæœ¬å·å’Œå®
1330:Code\UserApp\Protocol/CmdProtocol.c **** 			update_flag = 1;
1331:Code\UserApp\Protocol/CmdProtocol.c **** 			Write_UpdateInfo(update_flag,update_version);
1332:Code\UserApp\Protocol/CmdProtocol.c **** 			RetCode = RT_SUCC;
1333:Code\UserApp\Protocol/CmdProtocol.c **** 		}
1334:Code\UserApp\Protocol/CmdProtocol.c **** 	}
1335:Code\UserApp\Protocol/CmdProtocol.c **** 	
1336:Code\UserApp\Protocol/CmdProtocol.c **** 	*pT++ = RetCode;
1337:Code\UserApp\Protocol/CmdProtocol.c **** 	Protocol_SendAckPacket(comm_chanle, PACK_RESP, RecBuf[6], DataBuf, 13);
1338:Code\UserApp\Protocol/CmdProtocol.c **** 	
1339:Code\UserApp\Protocol/CmdProtocol.c **** 	//===ã€å¼€å§‹ã€‘=== è®¾å¤‡å±‚çš„å¤„ç† ==========================================================
1340:Code\UserApp\Protocol/CmdProtocol.c **** 	
1341:Code\UserApp\Protocol/CmdProtocol.c **** 	//===ã€ç»“æŸã€‘=== è®¾å¤‡å±‚çš„å¤„ç† ==========================================================
1342:Code\UserApp\Protocol/CmdProtocol.c **** 
1343:Code\UserApp\Protocol/CmdProtocol.c **** 	
1344:Code\UserApp\Protocol/CmdProtocol.c **** 	DBG_PRINTF("leaving %s\n", __FUNCTION__);
1345:Code\UserApp\Protocol/CmdProtocol.c **** }  
1346:Code\UserApp\Protocol/CmdProtocol.c **** 
1347:Code\UserApp\Protocol/CmdProtocol.c **** //*************************************************************************************************
1348:Code\UserApp\Protocol/CmdProtocol.c **** // Function name	: Protocol_CmdRemoteRestart
1349:Code\UserApp\Protocol/CmdProtocol.c **** // Description		: æœåŠ¡å™¨å‘æ™ºèƒ½é—¨ç¦å‘é€è¿œç¨‹é‡å¯æŒ‡ä»¤ï¼ˆæœåŠ¡å™¨â†’æ™ºèƒ½é—¨ç¦ï¼‰
1350:Code\UserApp\Protocol/CmdProtocol.c **** // Parameter		: uint8* RecBuf	å‘½ä»¤åŒ…æŒ‡é’ˆ
1351:Code\UserApp\Protocol/CmdProtocol.c **** // Return			: none
1352:Code\UserApp\Protocol/CmdProtocol.c **** //-------------------------------------------------------------------------------------------------
1353:Code\UserApp\Protocol/CmdProtocol.c **** // Info				: 0x0Eå‘½ä»¤ï¼ŒæœåŠ¡å™¨å‘é€
1354:Code\UserApp\Protocol/CmdProtocol.c **** //*************************************************************************************************
1355:Code\UserApp\Protocol/CmdProtocol.c **** static void Protocol_CmdRemoteRestart(uint8* RecBuf)
1356:Code\UserApp\Protocol/CmdProtocol.c **** {
1357:Code\UserApp\Protocol/CmdProtocol.c ****     uint8 RetCode = RT_SUCC;
1358:Code\UserApp\Protocol/CmdProtocol.c ****     uint8 DataBuf[64];
1359:Code\UserApp\Protocol/CmdProtocol.c **** 	uint8 *pT = DataBuf;
1360:Code\UserApp\Protocol/CmdProtocol.c ****     uint8 comm_chanle = RecBuf[4];								// å–å‡ºä¿¡é“å€¼							//
1361:Code\UserApp\Protocol/CmdProtocol.c ****     uint16 nCmdPackLen;
1362:Code\UserApp\Protocol/CmdProtocol.c ****     
1363:Code\UserApp\Protocol/CmdProtocol.c ****     nCmdPackLen= (RecBuf[2] << 8) + RecBuf[3] + 4;
1364:Code\UserApp\Protocol/CmdProtocol.c **** 	 
1365:Code\UserApp\Protocol/CmdProtocol.c ****     memset(pT, 0, sizeof(DataBuf));
1366:Code\UserApp\Protocol/CmdProtocol.c ****     memcpy(pT, RecBuf + 7, 6);									// å–å‡ºMACåœ°å€ï¼Œç†è®ºåº”åŠ ä¸ŠMACæ ¡éªŒ		//
1367:Code\UserApp\Protocol/CmdProtocol.c ****     pT += 6; 
1368:Code\UserApp\Protocol/CmdProtocol.c ****     
1369:Code\UserApp\Protocol/CmdProtocol.c **** 	memcpy(pT, RecBuf + nCmdPackLen - 6, 4);					// æ—¶é—´æˆ³								//
1370:Code\UserApp\Protocol/CmdProtocol.c ****     pT += 4; 
1371:Code\UserApp\Protocol/CmdProtocol.c ****     
1372:Code\UserApp\Protocol/CmdProtocol.c **** 	*pT = RetCode;
1373:Code\UserApp\Protocol/CmdProtocol.c ****  
1374:Code\UserApp\Protocol/CmdProtocol.c **** 	//===ã€å¼€å§‹ã€‘=== è®¾å¤‡å±‚çš„å¤„ç† ==========================================================
1375:Code\UserApp\Protocol/CmdProtocol.c **** 	flag_reboot = 1;
1376:Code\UserApp\Protocol/CmdProtocol.c **** 	//===ã€ç»“æŸã€‘=== è®¾å¤‡å±‚çš„å¤„ç† ==========================================================
1377:Code\UserApp\Protocol/CmdProtocol.c **** 	
ARM GAS  C:\Users\Administrator\AppData\Local\Temp\ccX9Bf8z.s 			page 32


1378:Code\UserApp\Protocol/CmdProtocol.c **** 	Protocol_SendAckPacket(comm_chanle, PACK_RESP, RecBuf[6], DataBuf, 11);
1379:Code\UserApp\Protocol/CmdProtocol.c **** 	
1380:Code\UserApp\Protocol/CmdProtocol.c **** 	DBG_PRINTF("leaving %s\n", __FUNCTION__);
1381:Code\UserApp\Protocol/CmdProtocol.c **** } 
1382:Code\UserApp\Protocol/CmdProtocol.c **** 
1383:Code\UserApp\Protocol/CmdProtocol.c **** //*************************************************************************************************
1384:Code\UserApp\Protocol/CmdProtocol.c **** // Function name	: Protocol_CmdRemoteDownload
1385:Code\UserApp\Protocol/CmdProtocol.c **** // Description		: å¤–éƒ¨äº‘æœåŠ¡å™¨ä¸‹è½½å‡çº§åŒ…ï¼ˆæ™ºèƒ½é—¨ç¦ - æœåŠ¡å™¨ä»¶ï¼‰
1386:Code\UserApp\Protocol/CmdProtocol.c **** // Parameter		: uint8* RecBuf	å‘½ä»¤åŒ…æŒ‡é’ˆ
1387:Code\UserApp\Protocol/CmdProtocol.c **** // Return			: none
1388:Code\UserApp\Protocol/CmdProtocol.c **** //-------------------------------------------------------------------------------------------------
1389:Code\UserApp\Protocol/CmdProtocol.c **** // Info				: 0x0Få‘½ä»¤ï¼ŒæœåŠ¡å™¨åº”ç­”
1390:Code\UserApp\Protocol/CmdProtocol.c **** //-------------------------------------------------------------------------------------------------
1391:Code\UserApp\Protocol/CmdProtocol.c **** //					: 
1392:Code\UserApp\Protocol/CmdProtocol.c **** //*************************************************************************************************
1393:Code\UserApp\Protocol/CmdProtocol.c **** static void Protocol_CmdRemoteDownload(uint8* RecBuf)
1394:Code\UserApp\Protocol/CmdProtocol.c **** {
1395:Code\UserApp\Protocol/CmdProtocol.c **** 	uint8 ReadDataBuf[DATABUF_SIZE];
1396:Code\UserApp\Protocol/CmdProtocol.c **** 	uint8 data_size[4];
1397:Code\UserApp\Protocol/CmdProtocol.c **** 	uint16 recv_page;
1398:Code\UserApp\Protocol/CmdProtocol.c **** 	uint16 nCmdPackLen= (RecBuf[2] << 8) + RecBuf[3];
1399:Code\UserApp\Protocol/CmdProtocol.c **** 	uint16 curr_packet_len = nCmdPackLen - 18;					// å½“å‰å‡çº§æ•°æ®åŒ…å†…å®¹é•¿åº¦				//
1400:Code\UserApp\Protocol/CmdProtocol.c **** 	
1401:Code\UserApp\Protocol/CmdProtocol.c **** 	recv_page = (RecBuf[13] << 8) + RecBuf[14];					// è·å–ç»„å·å€¼							//
1402:Code\UserApp\Protocol/CmdProtocol.c **** 	
1403:Code\UserApp\Protocol/CmdProtocol.c **** 	DBG_SOFT_PutString("Protocol_CmdRemoteDownload-->recv_page:");
1404:Code\UserApp\Protocol/CmdProtocol.c **** 	DBG_SOFT_PutHexInt(recv_page);
1405:Code\UserApp\Protocol/CmdProtocol.c **** 	DBG_SOFT_PutString("\n");
1406:Code\UserApp\Protocol/CmdProtocol.c **** 	
1407:Code\UserApp\Protocol/CmdProtocol.c **** 	//===ã€å¼€å§‹ã€‘=== è®¾å¤‡å±‚çš„å¤„ç† ==========================================================
1408:Code\UserApp\Protocol/CmdProtocol.c **** 	if ((recv_page == update_page) || (recv_page == 0))
1409:Code\UserApp\Protocol/CmdProtocol.c **** 	{
1410:Code\UserApp\Protocol/CmdProtocol.c **** 		W25QXX_Write(RecBuf + 15, W25X_IMAGESTART_ADDR + update_offset, curr_packet_len);
1411:Code\UserApp\Protocol/CmdProtocol.c **** 		W25QXX_Read(ReadDataBuf, W25X_IMAGESTART_ADDR + update_offset, curr_packet_len);
1412:Code\UserApp\Protocol/CmdProtocol.c **** 		if (memcmp(RecBuf + 15, ReadDataBuf, curr_packet_len) == 0)
1413:Code\UserApp\Protocol/CmdProtocol.c **** 		{
1414:Code\UserApp\Protocol/CmdProtocol.c **** 			update_offset +=  curr_packet_len;
1415:Code\UserApp\Protocol/CmdProtocol.c **** 			if (recv_page != 0)
1416:Code\UserApp\Protocol/CmdProtocol.c **** 			{	
1417:Code\UserApp\Protocol/CmdProtocol.c **** 				update_page += 1;
1418:Code\UserApp\Protocol/CmdProtocol.c **** 				Image_size += curr_packet_len;
1419:Code\UserApp\Protocol/CmdProtocol.c **** 				send_update_req(update_page);
1420:Code\UserApp\Protocol/CmdProtocol.c **** 				update_timeout_time = 10000;
1421:Code\UserApp\Protocol/CmdProtocol.c **** 				update_timeout_count = 0;
1422:Code\UserApp\Protocol/CmdProtocol.c **** 			}
1423:Code\UserApp\Protocol/CmdProtocol.c **** 			else
1424:Code\UserApp\Protocol/CmdProtocol.c **** 			{
1425:Code\UserApp\Protocol/CmdProtocol.c **** 				Image_size += curr_packet_len;
1426:Code\UserApp\Protocol/CmdProtocol.c **** 				data_size[2] = (uint8)(update_offset >> 24);
1427:Code\UserApp\Protocol/CmdProtocol.c **** 				data_size[3] = (uint8)(update_offset >> 16);	// é«˜ä½åœ¨å[2-3]
1428:Code\UserApp\Protocol/CmdProtocol.c **** 				data_size[0] = (uint8)(update_offset >> 8);
1429:Code\UserApp\Protocol/CmdProtocol.c **** 				data_size[1] = (uint8)update_offset;
1430:Code\UserApp\Protocol/CmdProtocol.c **** 				
1431:Code\UserApp\Protocol/CmdProtocol.c **** 				W25QXX_Write(data_size, W25X_IMAGE_METDATA_ADDR, 4);
1432:Code\UserApp\Protocol/CmdProtocol.c **** 				gprs_state = UPDATE_FINISH;
1433:Code\UserApp\Protocol/CmdProtocol.c **** 			}
1434:Code\UserApp\Protocol/CmdProtocol.c **** 		}
ARM GAS  C:\Users\Administrator\AppData\Local\Temp\ccX9Bf8z.s 			page 33


1435:Code\UserApp\Protocol/CmdProtocol.c **** 		else
1436:Code\UserApp\Protocol/CmdProtocol.c **** 		{
1437:Code\UserApp\Protocol/CmdProtocol.c **** 			update_timeout_count++;
1438:Code\UserApp\Protocol/CmdProtocol.c **** 			if (update_timeout_count >= 3)
1439:Code\UserApp\Protocol/CmdProtocol.c **** 			{
1440:Code\UserApp\Protocol/CmdProtocol.c **** 				update_timeout_count = 0;
1441:Code\UserApp\Protocol/CmdProtocol.c **** 				gprs_state = NEED_INIT;
1442:Code\UserApp\Protocol/CmdProtocol.c **** 			}
1443:Code\UserApp\Protocol/CmdProtocol.c **** 			else
1444:Code\UserApp\Protocol/CmdProtocol.c **** 			{
1445:Code\UserApp\Protocol/CmdProtocol.c **** 				Cmd_Protocol_ParaInit();
1446:Code\UserApp\Protocol/CmdProtocol.c **** 				send_update_req(update_page);
1447:Code\UserApp\Protocol/CmdProtocol.c **** 				update_timeout_time = 10000;
1448:Code\UserApp\Protocol/CmdProtocol.c **** 			}
1449:Code\UserApp\Protocol/CmdProtocol.c **** 		}
1450:Code\UserApp\Protocol/CmdProtocol.c **** 	}
1451:Code\UserApp\Protocol/CmdProtocol.c **** 	else
1452:Code\UserApp\Protocol/CmdProtocol.c **** 	{
1453:Code\UserApp\Protocol/CmdProtocol.c **** 		update_timeout_count++;
1454:Code\UserApp\Protocol/CmdProtocol.c **** 		if (update_timeout_count >= 3)
1455:Code\UserApp\Protocol/CmdProtocol.c **** 		{
1456:Code\UserApp\Protocol/CmdProtocol.c **** 			update_timeout_count = 0;
1457:Code\UserApp\Protocol/CmdProtocol.c **** 			gprs_state = NEED_INIT;
1458:Code\UserApp\Protocol/CmdProtocol.c **** 		}
1459:Code\UserApp\Protocol/CmdProtocol.c **** 		else
1460:Code\UserApp\Protocol/CmdProtocol.c **** 		{
1461:Code\UserApp\Protocol/CmdProtocol.c **** 			Cmd_Protocol_ParaInit();
1462:Code\UserApp\Protocol/CmdProtocol.c **** 			send_update_req(update_page);
1463:Code\UserApp\Protocol/CmdProtocol.c **** 			update_timeout_time = 10000;
1464:Code\UserApp\Protocol/CmdProtocol.c **** 		}
1465:Code\UserApp\Protocol/CmdProtocol.c **** 	}
1466:Code\UserApp\Protocol/CmdProtocol.c **** 	//===ã€ç»“æŸã€‘=== è®¾å¤‡å±‚çš„å¤„ç† ==========================================================
1467:Code\UserApp\Protocol/CmdProtocol.c **** 	
1468:Code\UserApp\Protocol/CmdProtocol.c **** 	DBG_PRINTF("leaving %s\n", __FUNCTION__);
1469:Code\UserApp\Protocol/CmdProtocol.c **** }
1470:Code\UserApp\Protocol/CmdProtocol.c **** 
1471:Code\UserApp\Protocol/CmdProtocol.c **** //*************************************************************************************************
1472:Code\UserApp\Protocol/CmdProtocol.c **** // Function name	: Protocol_CmdChangeIP
1473:Code\UserApp\Protocol/CmdProtocol.c **** // Description		: æ›´æ”¹ä¸­å¿ƒæœåŠ¡å™¨åœ°å€ï¼ˆæœåŠ¡å™¨/APP - æ™ºèƒ½é—¨ç¦ï¼‰
1474:Code\UserApp\Protocol/CmdProtocol.c **** // Parameter		: uint8* RecBuf	å‘½ä»¤åŒ…æŒ‡é’ˆ
1475:Code\UserApp\Protocol/CmdProtocol.c **** // Return			: none
1476:Code\UserApp\Protocol/CmdProtocol.c **** //-------------------------------------------------------------------------------------------------
1477:Code\UserApp\Protocol/CmdProtocol.c **** // Info				: 0x10å‘½ä»¤ï¼ŒæœåŠ¡å™¨å‘é€
1478:Code\UserApp\Protocol/CmdProtocol.c **** //*************************************************************************************************
1479:Code\UserApp\Protocol/CmdProtocol.c **** static void Protocol_CmdChangeIP(uint8* RecBuf)
1480:Code\UserApp\Protocol/CmdProtocol.c **** {
1481:Code\UserApp\Protocol/CmdProtocol.c ****     uint8 RetCode = RT_SUCC;
1482:Code\UserApp\Protocol/CmdProtocol.c ****     uint8 DataBuf[64];
1483:Code\UserApp\Protocol/CmdProtocol.c **** 	uint8 *pT = DataBuf;
1484:Code\UserApp\Protocol/CmdProtocol.c ****     uint8 comm_chanle = RecBuf[4];                              // å–å‡ºä¿¡é“å€¼							//
1485:Code\UserApp\Protocol/CmdProtocol.c ****     uint16 nCmdPackLen;
1486:Code\UserApp\Protocol/CmdProtocol.c ****     uint8 IpNum;
1487:Code\UserApp\Protocol/CmdProtocol.c **** 	
1488:Code\UserApp\Protocol/CmdProtocol.c ****     nCmdPackLen= (RecBuf[2] << 8) + RecBuf[3] + 4;
1489:Code\UserApp\Protocol/CmdProtocol.c **** 	 
1490:Code\UserApp\Protocol/CmdProtocol.c ****     memset(pT, 0, sizeof(DataBuf));
1491:Code\UserApp\Protocol/CmdProtocol.c ****     memcpy(pT, RecBuf + 7, 6);									// å–å‡ºMACåœ°å€ï¼Œç†è®ºåº”åŠ ä¸ŠMACæ ¡éªŒ		//
ARM GAS  C:\Users\Administrator\AppData\Local\Temp\ccX9Bf8z.s 			page 34


1492:Code\UserApp\Protocol/CmdProtocol.c ****     pT += 6; 
1493:Code\UserApp\Protocol/CmdProtocol.c ****     
1494:Code\UserApp\Protocol/CmdProtocol.c **** 	*pT++ = RecBuf[13];
1495:Code\UserApp\Protocol/CmdProtocol.c **** 	IpNum = RecBuf[13];
1496:Code\UserApp\Protocol/CmdProtocol.c **** 	
1497:Code\UserApp\Protocol/CmdProtocol.c **** 	if ((IpNum == 0) || (IpNum > 5))
1498:Code\UserApp\Protocol/CmdProtocol.c **** 	{
1499:Code\UserApp\Protocol/CmdProtocol.c **** 		RetCode = RT_IP_NUM_ERR;
1500:Code\UserApp\Protocol/CmdProtocol.c **** 	}
1501:Code\UserApp\Protocol/CmdProtocol.c **** 	
1502:Code\UserApp\Protocol/CmdProtocol.c **** 	memcpy(pT, RecBuf + nCmdPackLen - 6, 4);					// æ—¶é—´æˆ³								//
1503:Code\UserApp\Protocol/CmdProtocol.c ****     pT += 4; 
1504:Code\UserApp\Protocol/CmdProtocol.c ****     
1505:Code\UserApp\Protocol/CmdProtocol.c **** 	*pT = RetCode;
1506:Code\UserApp\Protocol/CmdProtocol.c **** 	
1507:Code\UserApp\Protocol/CmdProtocol.c **** 	Protocol_SendAckPacket(comm_chanle, PACK_RESP, RecBuf[6], DataBuf, 12);
1508:Code\UserApp\Protocol/CmdProtocol.c **** 	
1509:Code\UserApp\Protocol/CmdProtocol.c **** 	//===ã€å¼€å§‹ã€‘=== è®¾å¤‡å±‚çš„å¤„ç† ==========================================================
1510:Code\UserApp\Protocol/CmdProtocol.c **** 	if (IpNum == 0x01)											 // æµ‹è¯•æœåŸŸå1							//
1511:Code\UserApp\Protocol/CmdProtocol.c **** 	{
1512:Code\UserApp\Protocol/CmdProtocol.c **** 		Write_CenterIpType(IpNum);
1513:Code\UserApp\Protocol/CmdProtocol.c **** 		VoicePlay(Sound_ShortDI);
1514:Code\UserApp\Protocol/CmdProtocol.c **** 	}
1515:Code\UserApp\Protocol/CmdProtocol.c **** 	else if (IpNum == 0x02)
1516:Code\UserApp\Protocol/CmdProtocol.c **** 	{
1517:Code\UserApp\Protocol/CmdProtocol.c **** 		VoicePlay(Sound_ShortDI);
1518:Code\UserApp\Protocol/CmdProtocol.c **** 		BeepPlay_Delay(300);
1519:Code\UserApp\Protocol/CmdProtocol.c **** 		VoicePlay(Sound_ShortDI);
1520:Code\UserApp\Protocol/CmdProtocol.c **** 	}
1521:Code\UserApp\Protocol/CmdProtocol.c **** 	else if (IpNum == 0x03)
1522:Code\UserApp\Protocol/CmdProtocol.c **** 	{
1523:Code\UserApp\Protocol/CmdProtocol.c **** 		VoicePlay(Sound_ShortDI);
1524:Code\UserApp\Protocol/CmdProtocol.c **** 		BeepPlay_Delay(300);
1525:Code\UserApp\Protocol/CmdProtocol.c **** 		VoicePlay(Sound_ShortDI);
1526:Code\UserApp\Protocol/CmdProtocol.c **** 		BeepPlay_Delay(300);
1527:Code\UserApp\Protocol/CmdProtocol.c **** 		VoicePlay(Sound_ShortDI);
1528:Code\UserApp\Protocol/CmdProtocol.c **** 	}
1529:Code\UserApp\Protocol/CmdProtocol.c **** 	else if (IpNum == 0x04)
1530:Code\UserApp\Protocol/CmdProtocol.c **** 	{
1531:Code\UserApp\Protocol/CmdProtocol.c **** 		VoicePlay(Sound_LongDI);
1532:Code\UserApp\Protocol/CmdProtocol.c **** 	}
1533:Code\UserApp\Protocol/CmdProtocol.c **** 	else if (IpNum == 0x05)										// æ­£å¼æœåŸŸå							//
1534:Code\UserApp\Protocol/CmdProtocol.c **** 	{
1535:Code\UserApp\Protocol/CmdProtocol.c **** 		Write_CenterIpType(IpNum);
1536:Code\UserApp\Protocol/CmdProtocol.c **** 		VoicePlay(Sound_LongDI);
1537:Code\UserApp\Protocol/CmdProtocol.c **** 		BeepPlay_Delay(300);
1538:Code\UserApp\Protocol/CmdProtocol.c **** 		VoicePlay(Sound_ShortDI);
1539:Code\UserApp\Protocol/CmdProtocol.c **** 	}
1540:Code\UserApp\Protocol/CmdProtocol.c **** 	
1541:Code\UserApp\Protocol/CmdProtocol.c **** 	flag_reboot = 1;
1542:Code\UserApp\Protocol/CmdProtocol.c **** 	//===ã€ç»“æŸã€‘=== è®¾å¤‡å±‚çš„å¤„ç† ==========================================================
1543:Code\UserApp\Protocol/CmdProtocol.c **** 	
1544:Code\UserApp\Protocol/CmdProtocol.c **** 	DBG_PRINTF("leaving %s\n", __FUNCTION__);
1545:Code\UserApp\Protocol/CmdProtocol.c **** }
1546:Code\UserApp\Protocol/CmdProtocol.c **** 
1547:Code\UserApp\Protocol/CmdProtocol.c **** 
1548:Code\UserApp\Protocol/CmdProtocol.c **** //*************************************************************************************************
ARM GAS  C:\Users\Administrator\AppData\Local\Temp\ccX9Bf8z.s 			page 35


1549:Code\UserApp\Protocol/CmdProtocol.c **** // Function name	: Protocol_CmdManufac
1550:Code\UserApp\Protocol/CmdProtocol.c **** // Description		: è“ç‰™çƒ§å†™è®¾å¤‡MACåŠŸèƒ½
1551:Code\UserApp\Protocol/CmdProtocol.c **** // Parameter		: uint8* RecBuf	å‘½ä»¤åŒ…æŒ‡é’ˆ
1552:Code\UserApp\Protocol/CmdProtocol.c **** // Return			: none
1553:Code\UserApp\Protocol/CmdProtocol.c **** //-------------------------------------------------------------------------------------------------
1554:Code\UserApp\Protocol/CmdProtocol.c **** // Info				: 0xF1å‘½ä»¤ï¼Œæ‰‹æœºå‘é€
1555:Code\UserApp\Protocol/CmdProtocol.c **** //*************************************************************************************************
1556:Code\UserApp\Protocol/CmdProtocol.c **** static void Protocol_CmdManufac(uint8* RecBuf)
1557:Code\UserApp\Protocol/CmdProtocol.c **** {
 358              		.loc 1 1557 0
 359              		.cfi_startproc
 360              	.LVL43:
 361 0000 F0B5     		push	{r4, r5, r6, r7, lr}
 362              		.cfi_def_cfa_offset 20
 363              		.cfi_offset 4, -20
 364              		.cfi_offset 5, -16
 365              		.cfi_offset 6, -12
 366              		.cfi_offset 7, -8
 367              		.cfi_offset 14, -4
1558:Code\UserApp\Protocol/CmdProtocol.c **** 	uint8 Newmac[6] = {0};
1559:Code\UserApp\Protocol/CmdProtocol.c **** 		//1.å–å‡ºmac å†™å…¥æœ¬åœ°flash
1560:Code\UserApp\Protocol/CmdProtocol.c **** 	memcpy(Newmac, RecBuf+13, 6);
 368              		.loc 1 1560 0
 369 0002 011C     		mov	r1, r0
 370 0004 0626     		mov	r6, #6
1557:Code\UserApp\Protocol/CmdProtocol.c **** 	uint8 Newmac[6] = {0};
 371              		.loc 1 1557 0
 372 0006 85B0     		sub	sp, sp, #20
 373              		.cfi_def_cfa_offset 40
 374              		.loc 1 1560 0
 375 0008 02AC     		add	r4, sp, #8
 376 000a 321C     		mov	r2, r6
 377 000c 0D31     		add	r1, r1, #13
 378 000e 201C     		mov	r0, r4
 379              	.LVL44:
 380 0010 FFF7FEFF 		bl	memcpy
 381              	.LVL45:
1561:Code\UserApp\Protocol/CmdProtocol.c **** 	uint8 flag = 0;
 382              		.loc 1 1561 0
 383 0014 6B46     		mov	r3, sp
 384 0016 DF1D     		add	r7, r3, #7
 385 0018 0023     		mov	r3, #0
1562:Code\UserApp\Protocol/CmdProtocol.c **** 	W25QXX_Read(&flag, MACFLAG_BASE, 1);
 386              		.loc 1 1562 0
 387 001a 381C     		mov	r0, r7
 388 001c 1149     		ldr	r1, .L17
 389 001e 0122     		mov	r2, #1
1561:Code\UserApp\Protocol/CmdProtocol.c **** 	uint8 flag = 0;
 390              		.loc 1 1561 0
 391 0020 3B70     		strb	r3, [r7]
 392              		.loc 1 1562 0
 393 0022 FFF7FEFF 		bl	W25QXX_Read
 394              	.LVL46:
1563:Code\UserApp\Protocol/CmdProtocol.c **** 	
1564:Code\UserApp\Protocol/CmdProtocol.c **** 	if(DEBUG_PRJ == 1)
1565:Code\UserApp\Protocol/CmdProtocol.c **** 	{	//2.æµ‹è¯•ç¨‹åº æ­£ç¡®åˆ™æ’­æ”¾é•¿éŸ³ å¯ä»¥é‡å¤å†™
1566:Code\UserApp\Protocol/CmdProtocol.c **** 		if((Newmac[0] = 0x06) && (Newmac[1] = 0x01))
ARM GAS  C:\Users\Administrator\AppData\Local\Temp\ccX9Bf8z.s 			page 36


1567:Code\UserApp\Protocol/CmdProtocol.c **** 		{
1568:Code\UserApp\Protocol/CmdProtocol.c **** 			
1569:Code\UserApp\Protocol/CmdProtocol.c **** 			flag = 1;
1570:Code\UserApp\Protocol/CmdProtocol.c **** 			W25QXX_Write(Newmac, MAC_BASE, (uint16)sizeof(Newmac));
 395              		.loc 1 1570 0
 396 0026 C921     		mov	r1, #201
1566:Code\UserApp\Protocol/CmdProtocol.c **** 		{
 397              		.loc 1 1566 0
 398 0028 0125     		mov	r5, #1
 399              		.loc 1 1570 0
 400 002a 201C     		mov	r0, r4
 401 002c 321C     		mov	r2, r6
 402 002e 4902     		lsl	r1, r1, #9
1566:Code\UserApp\Protocol/CmdProtocol.c **** 		{
 403              		.loc 1 1566 0
 404 0030 2670     		strb	r6, [r4]
 405 0032 6570     		strb	r5, [r4, #1]
1569:Code\UserApp\Protocol/CmdProtocol.c **** 			W25QXX_Write(Newmac, MAC_BASE, (uint16)sizeof(Newmac));
 406              		.loc 1 1569 0
 407 0034 3D70     		strb	r5, [r7]
 408              		.loc 1 1570 0
 409 0036 FFF7FEFF 		bl	W25QXX_Write
 410              	.LVL47:
1571:Code\UserApp\Protocol/CmdProtocol.c **** 			W25QXX_Write(&flag, MACFLAG_BASE, 1);
 411              		.loc 1 1571 0
 412 003a 2A1C     		mov	r2, r5
 413 003c 381C     		mov	r0, r7
 414 003e 0949     		ldr	r1, .L17
 415 0040 FFF7FEFF 		bl	W25QXX_Write
 416              	.LVL48:
1572:Code\UserApp\Protocol/CmdProtocol.c **** 			VoicePlay((uint8)Sound_REG_SUCCESS);	
 417              		.loc 1 1572 0
 418 0044 0420     		mov	r0, #4
 419 0046 FFF7FEFF 		bl	VoicePlay
 420              	.LVL49:
1573:Code\UserApp\Protocol/CmdProtocol.c **** 		}
1574:Code\UserApp\Protocol/CmdProtocol.c **** 		else
1575:Code\UserApp\Protocol/CmdProtocol.c **** 		{
1576:Code\UserApp\Protocol/CmdProtocol.c **** 			//3.é”™è¯¯åˆ™æ’­æŠ¥çŸ­éŸ³3å£°
1577:Code\UserApp\Protocol/CmdProtocol.c **** 			VoicePlay((uint8)Sound_VERIFY_FAILURE);
1578:Code\UserApp\Protocol/CmdProtocol.c **** 			
1579:Code\UserApp\Protocol/CmdProtocol.c **** 		}
1580:Code\UserApp\Protocol/CmdProtocol.c **** 	
1581:Code\UserApp\Protocol/CmdProtocol.c **** 	}
1582:Code\UserApp\Protocol/CmdProtocol.c **** 	
1583:Code\UserApp\Protocol/CmdProtocol.c **** 	else if(DEBUG_PRJ == 0)
1584:Code\UserApp\Protocol/CmdProtocol.c **** 	{	//2.å‡ºå‚ç¨‹åº åªèƒ½å†™ä¸€æ¬¡		
1585:Code\UserApp\Protocol/CmdProtocol.c **** 		if((Newmac[0] = 0x06) && (Newmac[1] = 0x01) && (flag != 1))
1586:Code\UserApp\Protocol/CmdProtocol.c **** 		{
1587:Code\UserApp\Protocol/CmdProtocol.c **** 			
1588:Code\UserApp\Protocol/CmdProtocol.c **** 			flag = 1;
1589:Code\UserApp\Protocol/CmdProtocol.c **** 			W25QXX_Write(Newmac, MAC_BASE, (uint16)sizeof(Newmac));
1590:Code\UserApp\Protocol/CmdProtocol.c **** 			W25QXX_Write(&flag, MACFLAG_BASE, 1);
1591:Code\UserApp\Protocol/CmdProtocol.c **** 			VoicePlay((uint8)Sound_REG_SUCCESS);	
1592:Code\UserApp\Protocol/CmdProtocol.c **** 		}
1593:Code\UserApp\Protocol/CmdProtocol.c **** 		else
1594:Code\UserApp\Protocol/CmdProtocol.c **** 		{
ARM GAS  C:\Users\Administrator\AppData\Local\Temp\ccX9Bf8z.s 			page 37


1595:Code\UserApp\Protocol/CmdProtocol.c **** 			//3.é”™è¯¯åˆ™æ’­æŠ¥çŸ­éŸ³3å£°
1596:Code\UserApp\Protocol/CmdProtocol.c **** 			VoicePlay((uint8)Sound_VERIFY_FAILURE);
1597:Code\UserApp\Protocol/CmdProtocol.c **** 		}
1598:Code\UserApp\Protocol/CmdProtocol.c **** 	}
1599:Code\UserApp\Protocol/CmdProtocol.c **** 	
1600:Code\UserApp\Protocol/CmdProtocol.c **** 	BleSend(Newmac, 6);											// è“ç‰™åº”ç­”
 421              		.loc 1 1600 0
 422 004a 311C     		mov	r1, r6
 423 004c 201C     		mov	r0, r4
 424 004e FFF7FEFF 		bl	BleSend
 425              	.LVL50:
1601:Code\UserApp\Protocol/CmdProtocol.c **** 	BeepPlay_Delay(1000);
 426              		.loc 1 1601 0
 427 0052 FA20     		mov	r0, #250
 428 0054 8000     		lsl	r0, r0, #2
 429 0056 FFF7FEFF 		bl	BeepPlay_Delay
 430              	.LVL51:
1602:Code\UserApp\Protocol/CmdProtocol.c **** 	flag_reboot = 1;	
 431              		.loc 1 1602 0
 432 005a 034B     		ldr	r3, .L17+4
 433 005c 1D70     		strb	r5, [r3]
1603:Code\UserApp\Protocol/CmdProtocol.c **** }
 434              		.loc 1 1603 0
 435 005e 05B0     		add	sp, sp, #20
 436              		@ sp needed
 437 0060 F0BD     		pop	{r4, r5, r6, r7, pc}
 438              	.L18:
 439 0062 C046     		.align	2
 440              	.L17:
 441 0064 06920100 		.word	102918
 442 0068 00000000 		.word	flag_reboot
 443              		.cfi_endproc
 444              	.LFE89:
 445              		.size	Protocol_CmdManufac, .-Protocol_CmdManufac
 446              		.section	.text.Endpoint_exchange,"ax",%progbits
 447              		.align	1
 448              		.global	Endpoint_exchange
 449              		.code	16
 450              		.thumb_func
 451              		.type	Endpoint_exchange, %function
 452              	Endpoint_exchange:
 453              	.LFB63:
  89:Code\UserApp\Protocol/CmdProtocol.c **** 	uint8 databuf[8] = {0};
 454              		.loc 1 89 0
 455              		.cfi_startproc
 456              	.LVL52:
  90:Code\UserApp\Protocol/CmdProtocol.c **** 
 457              		.loc 1 90 0
 458 0000 0023     		mov	r3, #0
  89:Code\UserApp\Protocol/CmdProtocol.c **** 	uint8 databuf[8] = {0};
 459              		.loc 1 89 0
 460 0002 13B5     		push	{r0, r1, r4, lr}
 461              		.cfi_def_cfa_offset 16
 462              		.cfi_offset 0, -16
 463              		.cfi_offset 1, -12
 464              		.cfi_offset 4, -8
 465              		.cfi_offset 14, -4
ARM GAS  C:\Users\Administrator\AppData\Local\Temp\ccX9Bf8z.s 			page 38


  90:Code\UserApp\Protocol/CmdProtocol.c **** 
 466              		.loc 1 90 0
 467 0004 0093     		str	r3, [sp]
 468 0006 0193     		str	r3, [sp, #4]
  96:Code\UserApp\Protocol/CmdProtocol.c **** 	 && card_data[6] == 0 && card_data[7] == 0) ||
 469              		.loc 1 96 0
 470 0008 0379     		ldrb	r3, [r0, #4]
 471 000a 002B     		cmp	r3, #0
 472 000c 08D1     		bne	.L20
  96:Code\UserApp\Protocol/CmdProtocol.c **** 	 && card_data[6] == 0 && card_data[7] == 0) ||
 473              		.loc 1 96 0 is_stmt 0 discriminator 1
 474 000e 4379     		ldrb	r3, [r0, #5]
 475 0010 002B     		cmp	r3, #0
 476 0012 05D1     		bne	.L20
  97:Code\UserApp\Protocol/CmdProtocol.c **** 	   (card_data[0] == 0 && card_data[1] == 0 
 477              		.loc 1 97 0 is_stmt 1
 478 0014 8379     		ldrb	r3, [r0, #6]
 479 0016 002B     		cmp	r3, #0
 480 0018 02D1     		bne	.L20
  97:Code\UserApp\Protocol/CmdProtocol.c **** 	   (card_data[0] == 0 && card_data[1] == 0 
 481              		.loc 1 97 0 is_stmt 0 discriminator 1
 482 001a C379     		ldrb	r3, [r0, #7]
 483 001c 002B     		cmp	r3, #0
 484 001e 0BD0     		beq	.L21
 485              	.L20:
  97:Code\UserApp\Protocol/CmdProtocol.c **** 	   (card_data[0] == 0 && card_data[1] == 0 
 486              		.loc 1 97 0 discriminator 3
 487 0020 0378     		ldrb	r3, [r0]
 488 0022 002B     		cmp	r3, #0
 489 0024 18D1     		bne	.L22
  98:Code\UserApp\Protocol/CmdProtocol.c **** 	 && card_data[2] == 0 && card_data[3] == 0))
 490              		.loc 1 98 0 is_stmt 1
 491 0026 4378     		ldrb	r3, [r0, #1]
 492 0028 002B     		cmp	r3, #0
 493 002a 15D1     		bne	.L22
  99:Code\UserApp\Protocol/CmdProtocol.c **** 	{
 494              		.loc 1 99 0
 495 002c 8378     		ldrb	r3, [r0, #2]
 496 002e 002B     		cmp	r3, #0
 497 0030 12D1     		bne	.L22
  99:Code\UserApp\Protocol/CmdProtocol.c **** 	{
 498              		.loc 1 99 0 is_stmt 0 discriminator 1
 499 0032 C378     		ldrb	r3, [r0, #3]
 500 0034 002B     		cmp	r3, #0
 501 0036 0FD1     		bne	.L22
 502              	.L21:
 503 0038 041C     		mov	r4, r0
 101:Code\UserApp\Protocol/CmdProtocol.c **** 		memcpy(databuf, card_data+4, 4);						// å4ä¸ªUIDæ‹·è´åˆ°å‰å››ä¸ª 
 504              		.loc 1 101 0 is_stmt 1
 505 003a 0422     		mov	r2, #4
 506 003c 211C     		mov	r1, r4
 507 003e 01A8     		add	r0, sp, #4
 508              	.LVL53:
 509 0040 FFF7FEFF 		bl	memcpy
 510              	.LVL54:
 102:Code\UserApp\Protocol/CmdProtocol.c **** 		
 511              		.loc 1 102 0
ARM GAS  C:\Users\Administrator\AppData\Local\Temp\ccX9Bf8z.s 			page 39


 512 0044 211D     		add	r1, r4, #4
 513 0046 0422     		mov	r2, #4
 514 0048 6846     		mov	r0, sp
 515 004a FFF7FEFF 		bl	memcpy
 516              	.LVL55:
 104:Code\UserApp\Protocol/CmdProtocol.c **** 	}
 517              		.loc 1 104 0
 518 004e 201C     		mov	r0, r4
 519 0050 6946     		mov	r1, sp
 520 0052 0822     		mov	r2, #8
 521 0054 FFF7FEFF 		bl	memcpy
 522              	.LVL56:
 523              	.L22:
 109:Code\UserApp\Protocol/CmdProtocol.c **** 
 524              		.loc 1 109 0
 525 0058 0020     		mov	r0, #0
 526              		@ sp needed
 527 005a 16BD     		pop	{r1, r2, r4, pc}
 528              		.cfi_endproc
 529              	.LFE63:
 530              		.size	Endpoint_exchange, .-Endpoint_exchange
 531              		.section	.text.Cmd_Protocol_ParaInit,"ax",%progbits
 532              		.align	1
 533              		.global	Cmd_Protocol_ParaInit
 534              		.code	16
 535              		.thumb_func
 536              		.type	Cmd_Protocol_ParaInit, %function
 537              	Cmd_Protocol_ParaInit:
 538              	.LFB64:
 122:Code\UserApp\Protocol/CmdProtocol.c **** 	RecvType = 0;
 539              		.loc 1 122 0
 540              		.cfi_startproc
 541 0000 38B5     		push	{r3, r4, r5, lr}
 542              		.cfi_def_cfa_offset 16
 543              		.cfi_offset 3, -16
 544              		.cfi_offset 4, -12
 545              		.cfi_offset 5, -8
 546              		.cfi_offset 14, -4
 123:Code\UserApp\Protocol/CmdProtocol.c **** 	Cmd_Baglen = 0;
 547              		.loc 1 123 0
 548 0002 0024     		mov	r4, #0
 549 0004 0E4B     		ldr	r3, .L27
 129:Code\UserApp\Protocol/CmdProtocol.c **** 	memset((char *)GPRSCmd_buf1, 0, sizeof(GPRSCmd_buf1));
 550              		.loc 1 129 0
 551 0006 0F4D     		ldr	r5, .L27+4
 123:Code\UserApp\Protocol/CmdProtocol.c **** 	Cmd_Baglen = 0;
 552              		.loc 1 123 0
 553 0008 1C70     		strb	r4, [r3]
 124:Code\UserApp\Protocol/CmdProtocol.c **** 	Cmd_Revsta = 0;
 554              		.loc 1 124 0
 555 000a 0F4B     		ldr	r3, .L27+8
 129:Code\UserApp\Protocol/CmdProtocol.c **** 	memset((char *)GPRSCmd_buf1, 0, sizeof(GPRSCmd_buf1));
 556              		.loc 1 129 0
 557 000c 2A1C     		mov	r2, r5
 124:Code\UserApp\Protocol/CmdProtocol.c **** 	Cmd_Revsta = 0;
 558              		.loc 1 124 0
 559 000e 1C80     		strh	r4, [r3]
ARM GAS  C:\Users\Administrator\AppData\Local\Temp\ccX9Bf8z.s 			page 40


 125:Code\UserApp\Protocol/CmdProtocol.c **** 	Cmd_index = 0;
 560              		.loc 1 125 0
 561 0010 0E4B     		ldr	r3, .L27+12
 129:Code\UserApp\Protocol/CmdProtocol.c **** 	memset((char *)GPRSCmd_buf1, 0, sizeof(GPRSCmd_buf1));
 562              		.loc 1 129 0
 563 0012 211C     		mov	r1, r4
 125:Code\UserApp\Protocol/CmdProtocol.c **** 	Cmd_index = 0;
 564              		.loc 1 125 0
 565 0014 1C70     		strb	r4, [r3]
 126:Code\UserApp\Protocol/CmdProtocol.c **** 	GPRSCmdParseFlag1 = RESET;
 566              		.loc 1 126 0
 567 0016 0E4B     		ldr	r3, .L27+16
 129:Code\UserApp\Protocol/CmdProtocol.c **** 	memset((char *)GPRSCmd_buf1, 0, sizeof(GPRSCmd_buf1));
 568              		.loc 1 129 0
 569 0018 0E48     		ldr	r0, .L27+20
 126:Code\UserApp\Protocol/CmdProtocol.c **** 	GPRSCmdParseFlag1 = RESET;
 570              		.loc 1 126 0
 571 001a 1C80     		strh	r4, [r3]
 127:Code\UserApp\Protocol/CmdProtocol.c **** 	GPRSCmdParseFlag2 = RESET;
 572              		.loc 1 127 0
 573 001c 0E4B     		ldr	r3, .L27+24
 132:Code\UserApp\Protocol/CmdProtocol.c **** 
 574              		.loc 1 132 0
 575              		@ sp needed
 127:Code\UserApp\Protocol/CmdProtocol.c **** 	GPRSCmdParseFlag2 = RESET;
 576              		.loc 1 127 0
 577 001e 1C70     		strb	r4, [r3]
 128:Code\UserApp\Protocol/CmdProtocol.c **** 	memset((char *)CmdRev_buf, 0, sizeof(CmdRev_buf));
 578              		.loc 1 128 0
 579 0020 0E4B     		ldr	r3, .L27+28
 580 0022 1C70     		strb	r4, [r3]
 129:Code\UserApp\Protocol/CmdProtocol.c **** 	memset((char *)GPRSCmd_buf1, 0, sizeof(GPRSCmd_buf1));
 581              		.loc 1 129 0
 582 0024 FFF7FEFF 		bl	memset
 583              	.LVL57:
 130:Code\UserApp\Protocol/CmdProtocol.c **** 	memset((char *)GPRSCmd_buf2, 0, sizeof(GPRSCmd_buf2));
 584              		.loc 1 130 0
 585 0028 2A1C     		mov	r2, r5
 586 002a 211C     		mov	r1, r4
 587 002c 0C48     		ldr	r0, .L27+32
 588 002e FFF7FEFF 		bl	memset
 589              	.LVL58:
 131:Code\UserApp\Protocol/CmdProtocol.c **** }
 590              		.loc 1 131 0
 591 0032 2A1C     		mov	r2, r5
 592 0034 211C     		mov	r1, r4
 593 0036 0B48     		ldr	r0, .L27+36
 594 0038 FFF7FEFF 		bl	memset
 595              	.LVL59:
 132:Code\UserApp\Protocol/CmdProtocol.c **** 
 596              		.loc 1 132 0
 597 003c 38BD     		pop	{r3, r4, r5, pc}
 598              	.L28:
 599 003e C046     		.align	2
 600              	.L27:
 601 0040 00000000 		.word	RecvType
 602 0044 1A040000 		.word	1050
ARM GAS  C:\Users\Administrator\AppData\Local\Temp\ccX9Bf8z.s 			page 41


 603 0048 00000000 		.word	Cmd_Baglen
 604 004c 00000000 		.word	Cmd_Revsta
 605 0050 00000000 		.word	Cmd_index
 606 0054 00000000 		.word	CmdRev_buf
 607 0058 00000000 		.word	GPRSCmdParseFlag1
 608 005c 00000000 		.word	GPRSCmdParseFlag2
 609 0060 00000000 		.word	GPRSCmd_buf1
 610 0064 00000000 		.word	GPRSCmd_buf2
 611              		.cfi_endproc
 612              	.LFE64:
 613              		.size	Cmd_Protocol_ParaInit, .-Cmd_Protocol_ParaInit
 614              		.section	.text.send_get_pre_service_ip,"ax",%progbits
 615              		.align	1
 616              		.global	send_get_pre_service_ip
 617              		.code	16
 618              		.thumb_func
 619              		.type	send_get_pre_service_ip, %function
 620              	send_get_pre_service_ip:
 621              	.LFB65:
 145:Code\UserApp\Protocol/CmdProtocol.c **** 	uint8 uart_buf[96];
 622              		.loc 1 145 0
 623              		.cfi_startproc
 624              	.LVL60:
 625 0000 00B5     		push	{lr}
 626              		.cfi_def_cfa_offset 4
 627              		.cfi_offset 14, -4
 628 0002 99B0     		sub	sp, sp, #100
 629              		.cfi_def_cfa_offset 104
 154:Code\UserApp\Protocol/CmdProtocol.c **** 	uart_buf[cnt++] = 0x3a;
 630              		.loc 1 154 0
 631 0004 6A46     		mov	r2, sp
 632 0006 EF23     		mov	r3, #239
 633 0008 1370     		strb	r3, [r2]
 634              	.LVL61:
 155:Code\UserApp\Protocol/CmdProtocol.c **** 	uart_buf[cnt++] = (pack_len >> 8) & 0xFF;					// åŒ…é•¿åº¦é«˜å­—èŠ‚							//
 635              		.loc 1 155 0
 636 000a B53B     		sub	r3, r3, #181
 637 000c 5370     		strb	r3, [r2, #1]
 638              	.LVL62:
 156:Code\UserApp\Protocol/CmdProtocol.c **** 	uart_buf[cnt++] = pack_len & 0xFF;							// åŒ…é•¿åº¦ä½å­—èŠ‚							//
 639              		.loc 1 156 0
 640 000e 0023     		mov	r3, #0
 157:Code\UserApp\Protocol/CmdProtocol.c **** 	uart_buf[cnt++] = 0x01;
 641              		.loc 1 157 0
 642 0010 6946     		mov	r1, sp
 156:Code\UserApp\Protocol/CmdProtocol.c **** 	uart_buf[cnt++] = pack_len & 0xFF;							// åŒ…é•¿åº¦ä½å­—èŠ‚							//
 643              		.loc 1 156 0
 644 0012 9370     		strb	r3, [r2, #2]
 645              	.LVL63:
 157:Code\UserApp\Protocol/CmdProtocol.c **** 	uart_buf[cnt++] = 0x01;
 646              		.loc 1 157 0
 647 0014 0F22     		mov	r2, #15
 648 0016 CA70     		strb	r2, [r1, #3]
 649              	.LVL64:
 158:Code\UserApp\Protocol/CmdProtocol.c **** 	uart_buf[cnt++] = 0x01;
 650              		.loc 1 158 0
 651 0018 0E3A     		sub	r2, r2, #14
ARM GAS  C:\Users\Administrator\AppData\Local\Temp\ccX9Bf8z.s 			page 42


 652 001a 0A71     		strb	r2, [r1, #4]
 653              	.LVL65:
 159:Code\UserApp\Protocol/CmdProtocol.c **** 	uart_buf[cnt++] = 0x01;
 654              		.loc 1 159 0
 655 001c 4A71     		strb	r2, [r1, #5]
 656              	.LVL66:
 160:Code\UserApp\Protocol/CmdProtocol.c **** 	
 657              		.loc 1 160 0
 658 001e 8A71     		strb	r2, [r1, #6]
 659              	.LVL67:
 660              	.L30:
 164:Code\UserApp\Protocol/CmdProtocol.c **** 	}
 661              		.loc 1 164 0 discriminator 3
 662 0020 134A     		ldr	r2, .L31
 663 0022 D15C     		ldrb	r1, [r2, r3]
 664 0024 1A1C     		mov	r2, r3
 665 0026 0133     		add	r3, r3, #1
 666              	.LVL68:
 667 0028 6A44     		add	r2, r2, sp
 668 002a D171     		strb	r1, [r2, #7]
 162:Code\UserApp\Protocol/CmdProtocol.c **** 	{
 669              		.loc 1 162 0 discriminator 3
 670 002c 062B     		cmp	r3, #6
 671 002e F7D1     		bne	.L30
 167:Code\UserApp\Protocol/CmdProtocol.c **** 	LONG2BYTE(time_tmp, time_arr);
 672              		.loc 1 167 0
 673 0030 FFF7FEFF 		bl	RTC_GetUnixTime
 674              	.LVL69:
 169:Code\UserApp\Protocol/CmdProtocol.c **** 	uart_buf[cnt++] = time_arr[1];
 675              		.loc 1 169 0
 676 0034 6A46     		mov	r2, sp
 168:Code\UserApp\Protocol/CmdProtocol.c **** 	uart_buf[cnt++] = time_arr[0];
 677              		.loc 1 168 0
 678 0036 030E     		lsr	r3, r0, #24
 169:Code\UserApp\Protocol/CmdProtocol.c **** 	uart_buf[cnt++] = time_arr[1];
 679              		.loc 1 169 0
 680 0038 5373     		strb	r3, [r2, #13]
 681              	.LVL70:
 168:Code\UserApp\Protocol/CmdProtocol.c **** 	uart_buf[cnt++] = time_arr[0];
 682              		.loc 1 168 0
 683 003a 030C     		lsr	r3, r0, #16
 170:Code\UserApp\Protocol/CmdProtocol.c **** 	uart_buf[cnt++] = time_arr[2];
 684              		.loc 1 170 0
 685 003c 9373     		strb	r3, [r2, #14]
 686              	.LVL71:
 172:Code\UserApp\Protocol/CmdProtocol.c **** 	
 687              		.loc 1 172 0
 688 003e 1074     		strb	r0, [r2, #16]
 168:Code\UserApp\Protocol/CmdProtocol.c **** 	uart_buf[cnt++] = time_arr[0];
 689              		.loc 1 168 0
 690 0040 030A     		lsr	r3, r0, #8
 174:Code\UserApp\Protocol/CmdProtocol.c **** 	uart_buf[cnt++] = (TempCrc >> 8) & 0xFF;
 691              		.loc 1 174 0
 692 0042 1121     		mov	r1, #17
 693 0044 6846     		mov	r0, sp
 694              	.LVL72:
 171:Code\UserApp\Protocol/CmdProtocol.c **** 	uart_buf[cnt++] = time_arr[3];
ARM GAS  C:\Users\Administrator\AppData\Local\Temp\ccX9Bf8z.s 			page 43


 695              		.loc 1 171 0
 696 0046 D373     		strb	r3, [r2, #15]
 697              	.LVL73:
 174:Code\UserApp\Protocol/CmdProtocol.c **** 	uart_buf[cnt++] = (TempCrc >> 8) & 0xFF;
 698              		.loc 1 174 0
 699 0048 FFF7FEFF 		bl	MyCrc16Check
 700              	.LVL74:
 175:Code\UserApp\Protocol/CmdProtocol.c **** 	uart_buf[cnt++] = TempCrc & 0xFF;
 701              		.loc 1 175 0
 702 004c 6A46     		mov	r2, sp
 703 004e 030A     		lsr	r3, r0, #8
 704 0050 5374     		strb	r3, [r2, #17]
 705              	.LVL75:
 176:Code\UserApp\Protocol/CmdProtocol.c **** 	
 706              		.loc 1 176 0
 707 0052 6B46     		mov	r3, sp
 178:Code\UserApp\Protocol/CmdProtocol.c **** 	return 0;
 708              		.loc 1 178 0
 709 0054 D178     		ldrb	r1, [r2, #3]
 176:Code\UserApp\Protocol/CmdProtocol.c **** 	
 710              		.loc 1 176 0
 711 0056 9074     		strb	r0, [r2, #18]
 712 0058 0A1D     		add	r2, r1, #4
 178:Code\UserApp\Protocol/CmdProtocol.c **** 	return 0;
 713              		.loc 1 178 0
 714 005a 9978     		ldrb	r1, [r3, #2]
 715 005c 6846     		mov	r0, sp
 716              	.LVL76:
 717 005e 0B02     		lsl	r3, r1, #8
 718 0060 D118     		add	r1, r2, r3
 719 0062 89B2     		uxth	r1, r1
 720 0064 FFF7FEFF 		bl	GPRS_SendHexDataToServer
 721              	.LVL77:
 180:Code\UserApp\Protocol/CmdProtocol.c **** 
 722              		.loc 1 180 0
 723 0068 0020     		mov	r0, #0
 724 006a 19B0     		add	sp, sp, #100
 725              		@ sp needed
 726 006c 00BD     		pop	{pc}
 727              	.L32:
 728 006e C046     		.align	2
 729              	.L31:
 730 0070 00000000 		.word	Mac_Addr
 731              		.cfi_endproc
 732              	.LFE65:
 733              		.size	send_get_pre_service_ip, .-send_get_pre_service_ip
 734              		.section	.text.send_send_mac_and_get_blekey,"ax",%progbits
 735              		.align	1
 736              		.global	send_send_mac_and_get_blekey
 737              		.code	16
 738              		.thumb_func
 739              		.type	send_send_mac_and_get_blekey, %function
 740              	send_send_mac_and_get_blekey:
 741              	.LFB66:
 191:Code\UserApp\Protocol/CmdProtocol.c **** 	uint8 ver;
 742              		.loc 1 191 0
 743              		.cfi_startproc
ARM GAS  C:\Users\Administrator\AppData\Local\Temp\ccX9Bf8z.s 			page 44


 744              	.LVL78:
 745 0000 10B5     		push	{r4, lr}
 746              		.cfi_def_cfa_offset 8
 747              		.cfi_offset 4, -8
 748              		.cfi_offset 14, -4
 749 0002 98B0     		sub	sp, sp, #96
 750              		.cfi_def_cfa_offset 104
 201:Code\UserApp\Protocol/CmdProtocol.c **** 	uart_buf[cnt++] = 0x3a;
 751              		.loc 1 201 0
 752 0004 6A46     		mov	r2, sp
 753 0006 EF23     		mov	r3, #239
 754 0008 1370     		strb	r3, [r2]
 755              	.LVL79:
 202:Code\UserApp\Protocol/CmdProtocol.c **** 	uart_buf[cnt++] = (pack_len >> 8) & 0xFF;					// åŒ…é•¿åº¦é«˜å­—èŠ‚							//
 756              		.loc 1 202 0
 757 000a B53B     		sub	r3, r3, #181
 758 000c 5370     		strb	r3, [r2, #1]
 759              	.LVL80:
 203:Code\UserApp\Protocol/CmdProtocol.c **** 	uart_buf[cnt++] = pack_len & 0xFF;							// åŒ…é•¿åº¦ä½å­—èŠ‚							//
 760              		.loc 1 203 0
 761 000e 0023     		mov	r3, #0
 204:Code\UserApp\Protocol/CmdProtocol.c **** 	uart_buf[cnt++] = 0x01;
 762              		.loc 1 204 0
 763 0010 6946     		mov	r1, sp
 203:Code\UserApp\Protocol/CmdProtocol.c **** 	uart_buf[cnt++] = pack_len & 0xFF;							// åŒ…é•¿åº¦ä½å­—èŠ‚							//
 764              		.loc 1 203 0
 765 0012 9370     		strb	r3, [r2, #2]
 766              	.LVL81:
 204:Code\UserApp\Protocol/CmdProtocol.c **** 	uart_buf[cnt++] = 0x01;
 767              		.loc 1 204 0
 768 0014 1122     		mov	r2, #17
 769 0016 CA70     		strb	r2, [r1, #3]
 770              	.LVL82:
 205:Code\UserApp\Protocol/CmdProtocol.c **** 	uart_buf[cnt++] = 0x01;
 771              		.loc 1 205 0
 772 0018 103A     		sub	r2, r2, #16
 773 001a 0A71     		strb	r2, [r1, #4]
 774              	.LVL83:
 206:Code\UserApp\Protocol/CmdProtocol.c **** 	uart_buf[cnt++] = 0x02;
 775              		.loc 1 206 0
 776 001c 4A71     		strb	r2, [r1, #5]
 777              	.LVL84:
 207:Code\UserApp\Protocol/CmdProtocol.c **** 	
 778              		.loc 1 207 0
 779 001e 0132     		add	r2, r2, #1
 780 0020 8A71     		strb	r2, [r1, #6]
 781              	.LVL85:
 782              	.L34:
 211:Code\UserApp\Protocol/CmdProtocol.c **** 	}
 783              		.loc 1 211 0 discriminator 3
 784 0022 164A     		ldr	r2, .L35
 785 0024 D15C     		ldrb	r1, [r2, r3]
 786 0026 1A1C     		mov	r2, r3
 787 0028 0133     		add	r3, r3, #1
 788              	.LVL86:
 789 002a 6A44     		add	r2, r2, sp
 790 002c D171     		strb	r1, [r2, #7]
ARM GAS  C:\Users\Administrator\AppData\Local\Temp\ccX9Bf8z.s 			page 45


 209:Code\UserApp\Protocol/CmdProtocol.c **** 	{
 791              		.loc 1 209 0 discriminator 3
 792 002e 062B     		cmp	r3, #6
 793 0030 F7D1     		bne	.L34
 215:Code\UserApp\Protocol/CmdProtocol.c **** 	uart_buf[cnt++] = ver & 0xFF;
 794              		.loc 1 215 0
 795 0032 6A46     		mov	r2, sp
 796 0034 0024     		mov	r4, #0
 214:Code\UserApp\Protocol/CmdProtocol.c **** 	uart_buf[cnt++] = (ver >> 8) & 0xFF;
 797              		.loc 1 214 0
 798 0036 124B     		ldr	r3, .L35+4
 215:Code\UserApp\Protocol/CmdProtocol.c **** 	uart_buf[cnt++] = ver & 0xFF;
 799              		.loc 1 215 0
 800 0038 5473     		strb	r4, [r2, #13]
 214:Code\UserApp\Protocol/CmdProtocol.c **** 	uart_buf[cnt++] = (ver >> 8) & 0xFF;
 801              		.loc 1 214 0
 802 003a 1B78     		ldrb	r3, [r3]
 803              	.LVL87:
 216:Code\UserApp\Protocol/CmdProtocol.c **** 	    
 804              		.loc 1 216 0
 805 003c 9373     		strb	r3, [r2, #14]
 218:Code\UserApp\Protocol/CmdProtocol.c **** 	LONG2BYTE(time_tmp, time_arr);
 806              		.loc 1 218 0
 807 003e FFF7FEFF 		bl	RTC_GetUnixTime
 808              	.LVL88:
 220:Code\UserApp\Protocol/CmdProtocol.c **** 	uart_buf[cnt++] = time_arr[1];
 809              		.loc 1 220 0
 810 0042 6A46     		mov	r2, sp
 219:Code\UserApp\Protocol/CmdProtocol.c **** 	uart_buf[cnt++] = time_arr[0];
 811              		.loc 1 219 0
 812 0044 030E     		lsr	r3, r0, #24
 220:Code\UserApp\Protocol/CmdProtocol.c **** 	uart_buf[cnt++] = time_arr[1];
 813              		.loc 1 220 0
 814 0046 D373     		strb	r3, [r2, #15]
 815              	.LVL89:
 219:Code\UserApp\Protocol/CmdProtocol.c **** 	uart_buf[cnt++] = time_arr[0];
 816              		.loc 1 219 0
 817 0048 030C     		lsr	r3, r0, #16
 221:Code\UserApp\Protocol/CmdProtocol.c **** 	uart_buf[cnt++] = time_arr[2];
 818              		.loc 1 221 0
 819 004a 1374     		strb	r3, [r2, #16]
 820              	.LVL90:
 223:Code\UserApp\Protocol/CmdProtocol.c **** 	
 821              		.loc 1 223 0
 822 004c 9074     		strb	r0, [r2, #18]
 219:Code\UserApp\Protocol/CmdProtocol.c **** 	uart_buf[cnt++] = time_arr[0];
 823              		.loc 1 219 0
 824 004e 030A     		lsr	r3, r0, #8
 225:Code\UserApp\Protocol/CmdProtocol.c **** 	uart_buf[cnt++] = (TempCrc >> 8) & 0xFF;
 825              		.loc 1 225 0
 826 0050 1321     		mov	r1, #19
 827 0052 6846     		mov	r0, sp
 828              	.LVL91:
 222:Code\UserApp\Protocol/CmdProtocol.c **** 	uart_buf[cnt++] = time_arr[3];
 829              		.loc 1 222 0
 830 0054 5374     		strb	r3, [r2, #17]
 831              	.LVL92:
ARM GAS  C:\Users\Administrator\AppData\Local\Temp\ccX9Bf8z.s 			page 46


 225:Code\UserApp\Protocol/CmdProtocol.c **** 	uart_buf[cnt++] = (TempCrc >> 8) & 0xFF;
 832              		.loc 1 225 0
 833 0056 FFF7FEFF 		bl	MyCrc16Check
 834              	.LVL93:
 226:Code\UserApp\Protocol/CmdProtocol.c **** 	uart_buf[cnt++] = TempCrc & 0xFF;
 835              		.loc 1 226 0
 836 005a 6A46     		mov	r2, sp
 837 005c 030A     		lsr	r3, r0, #8
 838 005e D374     		strb	r3, [r2, #19]
 839              	.LVL94:
 227:Code\UserApp\Protocol/CmdProtocol.c **** 	
 840              		.loc 1 227 0
 841 0060 6B46     		mov	r3, sp
 229:Code\UserApp\Protocol/CmdProtocol.c **** 	return 0;
 842              		.loc 1 229 0
 843 0062 D178     		ldrb	r1, [r2, #3]
 227:Code\UserApp\Protocol/CmdProtocol.c **** 	
 844              		.loc 1 227 0
 845 0064 1075     		strb	r0, [r2, #20]
 846 0066 0A1D     		add	r2, r1, #4
 229:Code\UserApp\Protocol/CmdProtocol.c **** 	return 0;
 847              		.loc 1 229 0
 848 0068 9978     		ldrb	r1, [r3, #2]
 849 006a 6846     		mov	r0, sp
 850              	.LVL95:
 851 006c 0B02     		lsl	r3, r1, #8
 852 006e D118     		add	r1, r2, r3
 853 0070 89B2     		uxth	r1, r1
 854 0072 FFF7FEFF 		bl	GPRS_SendHexDataToServer
 855              	.LVL96:
 231:Code\UserApp\Protocol/CmdProtocol.c **** 
 856              		.loc 1 231 0
 857 0076 201C     		mov	r0, r4
 858 0078 18B0     		add	sp, sp, #96
 859              		@ sp needed
 860 007a 10BD     		pop	{r4, pc}
 861              	.L36:
 862              		.align	2
 863              	.L35:
 864 007c 00000000 		.word	Mac_Addr
 865 0080 00000000 		.word	system_version
 866              		.cfi_endproc
 867              	.LFE66:
 868              		.size	send_send_mac_and_get_blekey, .-send_send_mac_and_get_blekey
 869              		.section	.text.send_upload_open_info,"ax",%progbits
 870              		.align	1
 871              		.global	send_upload_open_info
 872              		.code	16
 873              		.thumb_func
 874              		.type	send_upload_open_info, %function
 875              	send_upload_open_info:
 876              	.LFB67:
 245:Code\UserApp\Protocol/CmdProtocol.c **** 	uint8 uart_buf[96];
 877              		.loc 1 245 0
 878              		.cfi_startproc
 879              	.LVL97:
 880 0000 F0B5     		push	{r4, r5, r6, r7, lr}
ARM GAS  C:\Users\Administrator\AppData\Local\Temp\ccX9Bf8z.s 			page 47


 881              		.cfi_def_cfa_offset 20
 882              		.cfi_offset 4, -20
 883              		.cfi_offset 5, -16
 884              		.cfi_offset 6, -12
 885              		.cfi_offset 7, -8
 886              		.cfi_offset 14, -4
 887 0002 99B0     		sub	sp, sp, #100
 888              		.cfi_def_cfa_offset 120
 255:Code\UserApp\Protocol/CmdProtocol.c **** 	uart_buf[cnt++] = 0x3a;
 889              		.loc 1 255 0
 890 0004 EF23     		mov	r3, #239
 245:Code\UserApp\Protocol/CmdProtocol.c **** 	uint8 uart_buf[96];
 891              		.loc 1 245 0
 892 0006 161C     		mov	r6, r2
 255:Code\UserApp\Protocol/CmdProtocol.c **** 	uart_buf[cnt++] = 0x3a;
 893              		.loc 1 255 0
 894 0008 6A46     		mov	r2, sp
 895              	.LVL98:
 896 000a 1370     		strb	r3, [r2]
 256:Code\UserApp\Protocol/CmdProtocol.c **** 	uart_buf[cnt++] = (pack_len >> 8) & 0xFF;					// åŒ…é•¿åº¦é«˜å­—èŠ‚							//
 897              		.loc 1 256 0
 898 000c B53B     		sub	r3, r3, #181
 899 000e 5370     		strb	r3, [r2, #1]
 257:Code\UserApp\Protocol/CmdProtocol.c **** 	uart_buf[cnt++] = pack_len & 0xFF;							// åŒ…é•¿åº¦ä½å­—èŠ‚							//
 900              		.loc 1 257 0
 901 0010 0023     		mov	r3, #0
 245:Code\UserApp\Protocol/CmdProtocol.c **** 	uint8 uart_buf[96];
 902              		.loc 1 245 0
 903 0012 0F1C     		mov	r7, r1
 257:Code\UserApp\Protocol/CmdProtocol.c **** 	uart_buf[cnt++] = pack_len & 0xFF;							// åŒ…é•¿åº¦ä½å­—èŠ‚							//
 904              		.loc 1 257 0
 905 0014 9370     		strb	r3, [r2, #2]
 258:Code\UserApp\Protocol/CmdProtocol.c **** 	uart_buf[cnt++] = 0x01;
 906              		.loc 1 258 0
 907 0016 6946     		mov	r1, sp
 908              	.LVL99:
 909 0018 1C22     		mov	r2, #28
 245:Code\UserApp\Protocol/CmdProtocol.c **** 	uint8 uart_buf[96];
 910              		.loc 1 245 0
 911 001a 051C     		mov	r5, r0
 912              	.LVL100:
 258:Code\UserApp\Protocol/CmdProtocol.c **** 	uart_buf[cnt++] = 0x01;
 913              		.loc 1 258 0
 914 001c CA70     		strb	r2, [r1, #3]
 915              	.LVL101:
 259:Code\UserApp\Protocol/CmdProtocol.c **** 	uart_buf[cnt++] = 0x01;
 916              		.loc 1 259 0
 917 001e 1B3A     		sub	r2, r2, #27
 918 0020 0A71     		strb	r2, [r1, #4]
 919              	.LVL102:
 260:Code\UserApp\Protocol/CmdProtocol.c **** 	uart_buf[cnt++] = 0x07;
 920              		.loc 1 260 0
 921 0022 4A71     		strb	r2, [r1, #5]
 922              	.LVL103:
 261:Code\UserApp\Protocol/CmdProtocol.c **** 	
 923              		.loc 1 261 0
 924 0024 0632     		add	r2, r2, #6
ARM GAS  C:\Users\Administrator\AppData\Local\Temp\ccX9Bf8z.s 			page 48


 925 0026 8A71     		strb	r2, [r1, #6]
 926              	.LVL104:
 927              	.L38:
 265:Code\UserApp\Protocol/CmdProtocol.c **** 	}
 928              		.loc 1 265 0 discriminator 3
 929 0028 304A     		ldr	r2, .L44
 930 002a D15C     		ldrb	r1, [r2, r3]
 931 002c 1A1C     		mov	r2, r3
 932 002e 0133     		add	r3, r3, #1
 933              	.LVL105:
 934 0030 6A44     		add	r2, r2, sp
 935 0032 D171     		strb	r1, [r2, #7]
 263:Code\UserApp\Protocol/CmdProtocol.c **** 	{
 936              		.loc 1 263 0 discriminator 3
 937 0034 062B     		cmp	r3, #6
 938 0036 F7D1     		bne	.L38
 268:Code\UserApp\Protocol/CmdProtocol.c **** 	{
 939              		.loc 1 268 0
 940 0038 281C     		mov	r0, r5
 941              	.LVL106:
 942 003a FFF7FEFF 		bl	Endpoint_exchange
 943              	.LVL107:
 270:Code\UserApp\Protocol/CmdProtocol.c **** 		{
 944              		.loc 1 270 0
 945 003e 0023     		mov	r3, #0
 946              	.LVL108:
 947              	.L39:
 270:Code\UserApp\Protocol/CmdProtocol.c **** 		{
 948              		.loc 1 270 0 is_stmt 0 discriminator 1
 949 0040 BCB2     		uxth	r4, r7
 950 0042 9AB2     		uxth	r2, r3
 951 0044 A242     		cmp	r2, r4
 952 0046 05D2     		bcs	.L43
 953              	.LVL109:
 954 0048 1A1C     		mov	r2, r3
 272:Code\UserApp\Protocol/CmdProtocol.c **** 		}
 955              		.loc 1 272 0 is_stmt 1 discriminator 3
 956 004a E95C     		ldrb	r1, [r5, r3]
 957 004c 6A44     		add	r2, r2, sp
 958 004e 5173     		strb	r1, [r2, #13]
 959              	.LVL110:
 960 0050 0133     		add	r3, r3, #1
 961              	.LVL111:
 962 0052 F5E7     		b	.L39
 963              	.LVL112:
 964              	.L43:
 276:Code\UserApp\Protocol/CmdProtocol.c **** 	
 965              		.loc 1 276 0
 966 0054 231C     		mov	r3, r4
 967              	.LVL113:
 968 0056 6A46     		mov	r2, sp
 969              	.LVL114:
 278:Code\UserApp\Protocol/CmdProtocol.c **** 	uart_buf[cnt++] = pstr->open_time[1];
 970              		.loc 1 278 0
 971 0058 6946     		mov	r1, sp
 276:Code\UserApp\Protocol/CmdProtocol.c **** 	
 972              		.loc 1 276 0
ARM GAS  C:\Users\Administrator\AppData\Local\Temp\ccX9Bf8z.s 			page 49


 973 005a 0D33     		add	r3, r3, #13
 974 005c D654     		strb	r6, [r2, r3]
 975              	.LVL115:
 278:Code\UserApp\Protocol/CmdProtocol.c **** 	uart_buf[cnt++] = pstr->open_time[1];
 976              		.loc 1 278 0
 977 005e 2A7A     		ldrb	r2, [r5, #8]
 978 0060 0133     		add	r3, r3, #1
 979 0062 CA54     		strb	r2, [r1, r3]
 980              	.LVL116:
 279:Code\UserApp\Protocol/CmdProtocol.c **** 	uart_buf[cnt++] = pstr->open_time[2];
 981              		.loc 1 279 0
 982 0064 6A7A     		ldrb	r2, [r5, #9]
 983 0066 0133     		add	r3, r3, #1
 984 0068 CA54     		strb	r2, [r1, r3]
 985              	.LVL117:
 280:Code\UserApp\Protocol/CmdProtocol.c **** 	uart_buf[cnt++] = pstr->open_time[3];
 986              		.loc 1 280 0
 987 006a AA7A     		ldrb	r2, [r5, #10]
 988 006c 0133     		add	r3, r3, #1
 989 006e CA54     		strb	r2, [r1, r3]
 990              	.LVL118:
 281:Code\UserApp\Protocol/CmdProtocol.c **** 	
 991              		.loc 1 281 0
 992 0070 EA7A     		ldrb	r2, [r5, #11]
 993 0072 0133     		add	r3, r3, #1
 994 0074 CA54     		strb	r2, [r1, r3]
 283:Code\UserApp\Protocol/CmdProtocol.c **** 	LONG2BYTE(time_tmp, time_arr);
 995              		.loc 1 283 0
 996 0076 FFF7FEFF 		bl	RTC_GetUnixTime
 997              	.LVL119:
 285:Code\UserApp\Protocol/CmdProtocol.c **** 	uart_buf[cnt++] = time_arr[1];
 998              		.loc 1 285 0
 999 007a 231C     		mov	r3, r4
 1000 007c 6946     		mov	r1, sp
 284:Code\UserApp\Protocol/CmdProtocol.c **** 	uart_buf[cnt++] = time_arr[0];
 1001              		.loc 1 284 0
 1002 007e 020E     		lsr	r2, r0, #24
 285:Code\UserApp\Protocol/CmdProtocol.c **** 	uart_buf[cnt++] = time_arr[1];
 1003              		.loc 1 285 0
 1004 0080 1233     		add	r3, r3, #18
 1005 0082 CA54     		strb	r2, [r1, r3]
 1006              	.LVL120:
 284:Code\UserApp\Protocol/CmdProtocol.c **** 	uart_buf[cnt++] = time_arr[0];
 1007              		.loc 1 284 0
 1008 0084 020C     		lsr	r2, r0, #16
 286:Code\UserApp\Protocol/CmdProtocol.c **** 	uart_buf[cnt++] = time_arr[2];
 1009              		.loc 1 286 0
 1010 0086 0133     		add	r3, r3, #1
 1011 0088 CA54     		strb	r2, [r1, r3]
 1012              	.LVL121:
 284:Code\UserApp\Protocol/CmdProtocol.c **** 	uart_buf[cnt++] = time_arr[0];
 1013              		.loc 1 284 0
 1014 008a 020A     		lsr	r2, r0, #8
 287:Code\UserApp\Protocol/CmdProtocol.c **** 	uart_buf[cnt++] = time_arr[3];
 1015              		.loc 1 287 0
 1016 008c 0133     		add	r3, r3, #1
 1017 008e CA54     		strb	r2, [r1, r3]
ARM GAS  C:\Users\Administrator\AppData\Local\Temp\ccX9Bf8z.s 			page 50


 1018              	.LVL122:
 288:Code\UserApp\Protocol/CmdProtocol.c **** 	
 1019              		.loc 1 288 0
 1020 0090 0133     		add	r3, r3, #1
 1021 0092 C854     		strb	r0, [r1, r3]
 290:Code\UserApp\Protocol/CmdProtocol.c **** 	uart_buf[cnt++] = (TempCrc >> 8) & 0xFF;
 1022              		.loc 1 290 0
 1023 0094 1E21     		mov	r1, #30
 1024 0096 6846     		mov	r0, sp
 1025              	.LVL123:
 1026 0098 FFF7FEFF 		bl	MyCrc16Check
 1027              	.LVL124:
 291:Code\UserApp\Protocol/CmdProtocol.c **** 	uart_buf[cnt++] = TempCrc & 0xFF;
 1028              		.loc 1 291 0
 1029 009c 231C     		mov	r3, r4
 1030 009e 6946     		mov	r1, sp
 1031 00a0 1633     		add	r3, r3, #22
 1032 00a2 020A     		lsr	r2, r0, #8
 292:Code\UserApp\Protocol/CmdProtocol.c **** 	
 1033              		.loc 1 292 0
 1034 00a4 1734     		add	r4, r4, #23
 1035              	.LVL125:
 291:Code\UserApp\Protocol/CmdProtocol.c **** 	uart_buf[cnt++] = TempCrc & 0xFF;
 1036              		.loc 1 291 0
 1037 00a6 CA54     		strb	r2, [r1, r3]
 292:Code\UserApp\Protocol/CmdProtocol.c **** 	
 1038              		.loc 1 292 0
 1039 00a8 0855     		strb	r0, [r1, r4]
 294:Code\UserApp\Protocol/CmdProtocol.c **** 	if ((cur_time + 300) > next_heartbeat_time)					// ä¸‹ä¸€æ¬¡å¿ƒè·³åœ¨5minä»¥å†…					//
 1040              		.loc 1 294 0
 1041 00aa FFF7FEFF 		bl	RTC_GetUnixTime
 1042              	.LVL126:
 295:Code\UserApp\Protocol/CmdProtocol.c **** 	{
 1043              		.loc 1 295 0
 1044 00ae 021C     		mov	r2, r0
 294:Code\UserApp\Protocol/CmdProtocol.c **** 	if ((cur_time + 300) > next_heartbeat_time)					// ä¸‹ä¸€æ¬¡å¿ƒè·³åœ¨5minä»¥å†…					//
 1045              		.loc 1 294 0
 1046 00b0 0F4B     		ldr	r3, .L44+4
 295:Code\UserApp\Protocol/CmdProtocol.c **** 	{
 1047              		.loc 1 295 0
 1048 00b2 2D32     		add	r2, r2, #45
 294:Code\UserApp\Protocol/CmdProtocol.c **** 	if ((cur_time + 300) > next_heartbeat_time)					// ä¸‹ä¸€æ¬¡å¿ƒè·³åœ¨5minä»¥å†…					//
 1049              		.loc 1 294 0
 1050 00b4 1860     		str	r0, [r3]
 295:Code\UserApp\Protocol/CmdProtocol.c **** 	{
 1051              		.loc 1 295 0
 1052 00b6 0F4B     		ldr	r3, .L44+8
 1053 00b8 FF32     		add	r2, r2, #255
 1054 00ba 1968     		ldr	r1, [r3]
 1055 00bc 8A42     		cmp	r2, r1
 1056 00be 00D9     		bls	.L41
 297:Code\UserApp\Protocol/CmdProtocol.c **** 	}
 1057              		.loc 1 297 0
 1058 00c0 1A60     		str	r2, [r3]
 1059              	.L41:
 300:Code\UserApp\Protocol/CmdProtocol.c **** 	{
 1060              		.loc 1 300 0
ARM GAS  C:\Users\Administrator\AppData\Local\Temp\ccX9Bf8z.s 			page 51


 1061 00c2 0D4B     		ldr	r3, .L44+12
 1062 00c4 3C30     		add	r0, r0, #60
 1063 00c6 1A68     		ldr	r2, [r3]
 1064 00c8 9042     		cmp	r0, r2
 1065 00ca 00D9     		bls	.L42
 302:Code\UserApp\Protocol/CmdProtocol.c **** 	}
 1066              		.loc 1 302 0
 1067 00cc 1860     		str	r0, [r3]
 1068              	.L42:
 310:Code\UserApp\Protocol/CmdProtocol.c **** 	
 1069              		.loc 1 310 0
 1070 00ce 6B46     		mov	r3, sp
 1071 00d0 D978     		ldrb	r1, [r3, #3]
 1072 00d2 6846     		mov	r0, sp
 1073 00d4 0A1D     		add	r2, r1, #4
 1074 00d6 9978     		ldrb	r1, [r3, #2]
 1075 00d8 0B02     		lsl	r3, r1, #8
 1076 00da D118     		add	r1, r2, r3
 1077 00dc 89B2     		uxth	r1, r1
 1078 00de FFF7FEFF 		bl	GPRS_SendHexDataToServer
 1079              	.LVL127:
 312:Code\UserApp\Protocol/CmdProtocol.c **** 	return 0;
 1080              		.loc 1 312 0
 1081 00e2 0020     		mov	r0, #0
 1082 00e4 054B     		ldr	r3, .L44+16
 1083 00e6 1870     		strb	r0, [r3]
 314:Code\UserApp\Protocol/CmdProtocol.c **** 
 1084              		.loc 1 314 0
 1085 00e8 19B0     		add	sp, sp, #100
 1086              		@ sp needed
 1087              	.LVL128:
 1088 00ea F0BD     		pop	{r4, r5, r6, r7, pc}
 1089              	.L45:
 1090              		.align	2
 1091              	.L44:
 1092 00ec 00000000 		.word	Mac_Addr
 1093 00f0 00000000 		.word	cur_time
 1094 00f4 00000000 		.word	next_heartbeat_time
 1095 00f8 00000000 		.word	next_gprs_upload_time
 1096 00fc 00000000 		.word	uploadpolling_stop
 1097              		.cfi_endproc
 1098              	.LFE67:
 1099              		.size	send_upload_open_info, .-send_upload_open_info
 1100              		.section	.text.send_heartbeat,"ax",%progbits
 1101              		.align	1
 1102              		.global	send_heartbeat
 1103              		.code	16
 1104              		.thumb_func
 1105              		.type	send_heartbeat, %function
 1106              	send_heartbeat:
 1107              	.LFB68:
 325:Code\UserApp\Protocol/CmdProtocol.c **** 	uint8 uart_buf[96];
 1108              		.loc 1 325 0
 1109              		.cfi_startproc
 1110              	.LVL129:
 1111 0000 00B5     		push	{lr}
 1112              		.cfi_def_cfa_offset 4
ARM GAS  C:\Users\Administrator\AppData\Local\Temp\ccX9Bf8z.s 			page 52


 1113              		.cfi_offset 14, -4
 1114 0002 99B0     		sub	sp, sp, #100
 1115              		.cfi_def_cfa_offset 104
 335:Code\UserApp\Protocol/CmdProtocol.c **** 	uart_buf[cnt++] = 0x3a;
 1116              		.loc 1 335 0
 1117 0004 6A46     		mov	r2, sp
 1118 0006 EF23     		mov	r3, #239
 1119 0008 1370     		strb	r3, [r2]
 1120              	.LVL130:
 336:Code\UserApp\Protocol/CmdProtocol.c **** 	uart_buf[cnt++] = (pack_len >> 8) & 0xFF;					// åŒ…é•¿åº¦é«˜å­—èŠ‚							//
 1121              		.loc 1 336 0
 1122 000a B53B     		sub	r3, r3, #181
 1123 000c 5370     		strb	r3, [r2, #1]
 1124              	.LVL131:
 337:Code\UserApp\Protocol/CmdProtocol.c **** 	uart_buf[cnt++] = pack_len & 0xFF;							// åŒ…é•¿åº¦ä½å­—èŠ‚							//
 1125              		.loc 1 337 0
 1126 000e 0023     		mov	r3, #0
 338:Code\UserApp\Protocol/CmdProtocol.c **** 	uart_buf[cnt++] = 0x01;
 1127              		.loc 1 338 0
 1128 0010 6946     		mov	r1, sp
 337:Code\UserApp\Protocol/CmdProtocol.c **** 	uart_buf[cnt++] = pack_len & 0xFF;							// åŒ…é•¿åº¦ä½å­—èŠ‚							//
 1129              		.loc 1 337 0
 1130 0012 9370     		strb	r3, [r2, #2]
 1131              	.LVL132:
 338:Code\UserApp\Protocol/CmdProtocol.c **** 	uart_buf[cnt++] = 0x01;
 1132              		.loc 1 338 0
 1133 0014 1022     		mov	r2, #16
 1134 0016 CA70     		strb	r2, [r1, #3]
 1135              	.LVL133:
 339:Code\UserApp\Protocol/CmdProtocol.c **** 	uart_buf[cnt++] = 0x01;
 1136              		.loc 1 339 0
 1137 0018 0F3A     		sub	r2, r2, #15
 1138 001a 0A71     		strb	r2, [r1, #4]
 1139              	.LVL134:
 340:Code\UserApp\Protocol/CmdProtocol.c **** 	uart_buf[cnt++] = 0x08;
 1140              		.loc 1 340 0
 1141 001c 4A71     		strb	r2, [r1, #5]
 1142              	.LVL135:
 341:Code\UserApp\Protocol/CmdProtocol.c **** 	
 1143              		.loc 1 341 0
 1144 001e 0732     		add	r2, r2, #7
 1145 0020 8A71     		strb	r2, [r1, #6]
 1146              	.LVL136:
 1147              	.L47:
 345:Code\UserApp\Protocol/CmdProtocol.c **** 	}
 1148              		.loc 1 345 0 discriminator 3
 1149 0022 144A     		ldr	r2, .L48
 1150 0024 D15C     		ldrb	r1, [r2, r3]
 1151 0026 1A1C     		mov	r2, r3
 1152 0028 0133     		add	r3, r3, #1
 1153              	.LVL137:
 1154 002a 6A44     		add	r2, r2, sp
 1155 002c D171     		strb	r1, [r2, #7]
 343:Code\UserApp\Protocol/CmdProtocol.c **** 	{
 1156              		.loc 1 343 0 discriminator 3
 1157 002e 062B     		cmp	r3, #6
 1158 0030 F7D1     		bne	.L47
ARM GAS  C:\Users\Administrator\AppData\Local\Temp\ccX9Bf8z.s 			page 53


 1159              	.LVL138:
 348:Code\UserApp\Protocol/CmdProtocol.c **** 	#if DEF_RSSI
 1160              		.loc 1 348 0
 1161 0032 6B46     		mov	r3, sp
 1162 0034 5873     		strb	r0, [r3, #13]
 354:Code\UserApp\Protocol/CmdProtocol.c **** 	LONG2BYTE(time_tmp, time_arr);
 1163              		.loc 1 354 0
 1164 0036 FFF7FEFF 		bl	RTC_GetUnixTime
 1165              	.LVL139:
 356:Code\UserApp\Protocol/CmdProtocol.c **** 	uart_buf[cnt++] = time_arr[1];
 1166              		.loc 1 356 0
 1167 003a 6A46     		mov	r2, sp
 355:Code\UserApp\Protocol/CmdProtocol.c **** 	uart_buf[cnt++] = time_arr[0];
 1168              		.loc 1 355 0
 1169 003c 030E     		lsr	r3, r0, #24
 356:Code\UserApp\Protocol/CmdProtocol.c **** 	uart_buf[cnt++] = time_arr[1];
 1170              		.loc 1 356 0
 1171 003e 9373     		strb	r3, [r2, #14]
 1172              	.LVL140:
 355:Code\UserApp\Protocol/CmdProtocol.c **** 	uart_buf[cnt++] = time_arr[0];
 1173              		.loc 1 355 0
 1174 0040 030C     		lsr	r3, r0, #16
 357:Code\UserApp\Protocol/CmdProtocol.c **** 	uart_buf[cnt++] = time_arr[2];
 1175              		.loc 1 357 0
 1176 0042 D373     		strb	r3, [r2, #15]
 1177              	.LVL141:
 359:Code\UserApp\Protocol/CmdProtocol.c **** 	
 1178              		.loc 1 359 0
 1179 0044 5074     		strb	r0, [r2, #17]
 355:Code\UserApp\Protocol/CmdProtocol.c **** 	uart_buf[cnt++] = time_arr[0];
 1180              		.loc 1 355 0
 1181 0046 030A     		lsr	r3, r0, #8
 361:Code\UserApp\Protocol/CmdProtocol.c **** 	uart_buf[cnt++] = (TempCrc >> 8) & 0xFF;
 1182              		.loc 1 361 0
 1183 0048 1221     		mov	r1, #18
 1184 004a 6846     		mov	r0, sp
 1185              	.LVL142:
 358:Code\UserApp\Protocol/CmdProtocol.c **** 	uart_buf[cnt++] = time_arr[3];
 1186              		.loc 1 358 0
 1187 004c 1374     		strb	r3, [r2, #16]
 1188              	.LVL143:
 361:Code\UserApp\Protocol/CmdProtocol.c **** 	uart_buf[cnt++] = (TempCrc >> 8) & 0xFF;
 1189              		.loc 1 361 0
 1190 004e FFF7FEFF 		bl	MyCrc16Check
 1191              	.LVL144:
 362:Code\UserApp\Protocol/CmdProtocol.c **** 	uart_buf[cnt++] = TempCrc & 0xFF;
 1192              		.loc 1 362 0
 1193 0052 6A46     		mov	r2, sp
 1194 0054 030A     		lsr	r3, r0, #8
 1195 0056 9374     		strb	r3, [r2, #18]
 1196              	.LVL145:
 363:Code\UserApp\Protocol/CmdProtocol.c **** 	//DBG_SOFT_PutStr("\nsend_heartbeat:\n");
 1197              		.loc 1 363 0
 1198 0058 6B46     		mov	r3, sp
 366:Code\UserApp\Protocol/CmdProtocol.c **** 	
 1199              		.loc 1 366 0
 1200 005a D178     		ldrb	r1, [r2, #3]
ARM GAS  C:\Users\Administrator\AppData\Local\Temp\ccX9Bf8z.s 			page 54


 363:Code\UserApp\Protocol/CmdProtocol.c **** 	//DBG_SOFT_PutStr("\nsend_heartbeat:\n");
 1201              		.loc 1 363 0
 1202 005c D074     		strb	r0, [r2, #19]
 1203 005e 0A1D     		add	r2, r1, #4
 366:Code\UserApp\Protocol/CmdProtocol.c **** 	
 1204              		.loc 1 366 0
 1205 0060 9978     		ldrb	r1, [r3, #2]
 1206 0062 6846     		mov	r0, sp
 1207              	.LVL146:
 1208 0064 0B02     		lsl	r3, r1, #8
 1209 0066 D118     		add	r1, r2, r3
 1210 0068 89B2     		uxth	r1, r1
 1211 006a FFF7FEFF 		bl	GPRS_SendHexDataToServer
 1212              	.LVL147:
 369:Code\UserApp\Protocol/CmdProtocol.c **** 
 1213              		.loc 1 369 0
 1214 006e 0020     		mov	r0, #0
 1215 0070 19B0     		add	sp, sp, #100
 1216              		@ sp needed
 1217 0072 00BD     		pop	{pc}
 1218              	.L49:
 1219              		.align	2
 1220              	.L48:
 1221 0074 00000000 		.word	Mac_Addr
 1222              		.cfi_endproc
 1223              	.LFE68:
 1224              		.size	send_heartbeat, .-send_heartbeat
 1225              		.section	.text.send_time_adjust,"ax",%progbits
 1226              		.align	1
 1227              		.global	send_time_adjust
 1228              		.code	16
 1229              		.thumb_func
 1230              		.type	send_time_adjust, %function
 1231              	send_time_adjust:
 1232              	.LFB69:
 380:Code\UserApp\Protocol/CmdProtocol.c **** 	uint8 uart_buf[96];
 1233              		.loc 1 380 0
 1234              		.cfi_startproc
 1235              	.LVL148:
 1236 0000 00B5     		push	{lr}
 1237              		.cfi_def_cfa_offset 4
 1238              		.cfi_offset 14, -4
 1239 0002 99B0     		sub	sp, sp, #100
 1240              		.cfi_def_cfa_offset 104
 387:Code\UserApp\Protocol/CmdProtocol.c **** 	uart_buf[cnt++] = 0x3a;
 1241              		.loc 1 387 0
 1242 0004 6A46     		mov	r2, sp
 1243 0006 EF23     		mov	r3, #239
 1244 0008 1370     		strb	r3, [r2]
 1245              	.LVL149:
 388:Code\UserApp\Protocol/CmdProtocol.c **** 	uart_buf[cnt++] = (pack_len >> 8) & 0xFF;					// åŒ…é•¿åº¦é«˜å­—èŠ‚							//
 1246              		.loc 1 388 0
 1247 000a B53B     		sub	r3, r3, #181
 1248 000c 5370     		strb	r3, [r2, #1]
 1249              	.LVL150:
 389:Code\UserApp\Protocol/CmdProtocol.c **** 	uart_buf[cnt++] = pack_len & 0xFF;							// åŒ…é•¿åº¦ä½å­—èŠ‚							//
 1250              		.loc 1 389 0
ARM GAS  C:\Users\Administrator\AppData\Local\Temp\ccX9Bf8z.s 			page 55


 1251 000e 0023     		mov	r3, #0
 390:Code\UserApp\Protocol/CmdProtocol.c **** 	uart_buf[cnt++] = 0x01;
 1252              		.loc 1 390 0
 1253 0010 6946     		mov	r1, sp
 389:Code\UserApp\Protocol/CmdProtocol.c **** 	uart_buf[cnt++] = pack_len & 0xFF;							// åŒ…é•¿åº¦ä½å­—èŠ‚							//
 1254              		.loc 1 389 0
 1255 0012 9370     		strb	r3, [r2, #2]
 1256              	.LVL151:
 390:Code\UserApp\Protocol/CmdProtocol.c **** 	uart_buf[cnt++] = 0x01;
 1257              		.loc 1 390 0
 1258 0014 0D22     		mov	r2, #13
 1259 0016 CA70     		strb	r2, [r1, #3]
 1260              	.LVL152:
 391:Code\UserApp\Protocol/CmdProtocol.c **** 	uart_buf[cnt++] = 0x01;
 1261              		.loc 1 391 0
 1262 0018 0C3A     		sub	r2, r2, #12
 1263 001a 0A71     		strb	r2, [r1, #4]
 1264              	.LVL153:
 392:Code\UserApp\Protocol/CmdProtocol.c **** 	uart_buf[cnt++] = 0x0A;
 1265              		.loc 1 392 0
 1266 001c 4A71     		strb	r2, [r1, #5]
 1267              	.LVL154:
 393:Code\UserApp\Protocol/CmdProtocol.c **** 	
 1268              		.loc 1 393 0
 1269 001e 0932     		add	r2, r2, #9
 1270 0020 8A71     		strb	r2, [r1, #6]
 1271              	.LVL155:
 1272              	.L51:
 397:Code\UserApp\Protocol/CmdProtocol.c **** 	}
 1273              		.loc 1 397 0 discriminator 3
 1274 0022 174A     		ldr	r2, .L53
 1275 0024 D15C     		ldrb	r1, [r2, r3]
 1276 0026 1A1C     		mov	r2, r3
 1277 0028 0133     		add	r3, r3, #1
 1278              	.LVL156:
 1279 002a 6A44     		add	r2, r2, sp
 1280 002c D171     		strb	r1, [r2, #7]
 395:Code\UserApp\Protocol/CmdProtocol.c **** 	{
 1281              		.loc 1 395 0 discriminator 3
 1282 002e 062B     		cmp	r3, #6
 1283 0030 F7D1     		bne	.L51
 1284              	.LVL157:
 400:Code\UserApp\Protocol/CmdProtocol.c **** 	uart_buf[cnt++] = 0xff;
 1285              		.loc 1 400 0
 1286 0032 6A46     		mov	r2, sp
 1287 0034 F933     		add	r3, r3, #249
 405:Code\UserApp\Protocol/CmdProtocol.c **** 	uart_buf[cnt++] = (TempCrc >> 8) & 0xFF;
 1288              		.loc 1 405 0
 1289 0036 0F21     		mov	r1, #15
 1290 0038 6846     		mov	r0, sp
 400:Code\UserApp\Protocol/CmdProtocol.c **** 	uart_buf[cnt++] = 0xff;
 1291              		.loc 1 400 0
 1292 003a 5373     		strb	r3, [r2, #13]
 1293              	.LVL158:
 401:Code\UserApp\Protocol/CmdProtocol.c **** 	uart_buf[cnt++] = 0xff;
 1294              		.loc 1 401 0
 1295 003c 9373     		strb	r3, [r2, #14]
ARM GAS  C:\Users\Administrator\AppData\Local\Temp\ccX9Bf8z.s 			page 56


 1296              	.LVL159:
 402:Code\UserApp\Protocol/CmdProtocol.c **** 	uart_buf[cnt++] = 0xff;
 1297              		.loc 1 402 0
 1298 003e D373     		strb	r3, [r2, #15]
 1299              	.LVL160:
 403:Code\UserApp\Protocol/CmdProtocol.c **** 	
 1300              		.loc 1 403 0
 1301 0040 1374     		strb	r3, [r2, #16]
 405:Code\UserApp\Protocol/CmdProtocol.c **** 	uart_buf[cnt++] = (TempCrc >> 8) & 0xFF;
 1302              		.loc 1 405 0
 1303 0042 FFF7FEFF 		bl	MyCrc16Check
 1304              	.LVL161:
 406:Code\UserApp\Protocol/CmdProtocol.c **** 	uart_buf[cnt++] = TempCrc & 0xFF;
 1305              		.loc 1 406 0
 1306 0046 6A46     		mov	r2, sp
 1307 0048 030A     		lsr	r3, r0, #8
 1308 004a 5374     		strb	r3, [r2, #17]
 1309              	.LVL162:
 407:Code\UserApp\Protocol/CmdProtocol.c **** 	
 1310              		.loc 1 407 0
 1311 004c 9074     		strb	r0, [r2, #18]
 409:Code\UserApp\Protocol/CmdProtocol.c **** 	if ((cur_time + 300) > next_heartbeat_time)					// ä¸‹ä¸€æ¬¡å¿ƒè·³åœ¨5minä»¥å†…					//
 1312              		.loc 1 409 0
 1313 004e FFF7FEFF 		bl	RTC_GetUnixTime
 1314              	.LVL163:
 1315 0052 0C4B     		ldr	r3, .L53+4
 1316 0054 1860     		str	r0, [r3]
 410:Code\UserApp\Protocol/CmdProtocol.c **** 	{
 1317              		.loc 1 410 0
 1318 0056 0C4B     		ldr	r3, .L53+8
 1319 0058 2D30     		add	r0, r0, #45
 1320 005a 1A68     		ldr	r2, [r3]
 1321 005c FF30     		add	r0, r0, #255
 1322 005e 9042     		cmp	r0, r2
 1323 0060 00D9     		bls	.L52
 412:Code\UserApp\Protocol/CmdProtocol.c **** 	}
 1324              		.loc 1 412 0
 1325 0062 1860     		str	r0, [r3]
 1326              	.L52:
 414:Code\UserApp\Protocol/CmdProtocol.c **** 	return 0;
 1327              		.loc 1 414 0
 1328 0064 6B46     		mov	r3, sp
 1329 0066 D978     		ldrb	r1, [r3, #3]
 1330 0068 6846     		mov	r0, sp
 1331 006a 0A1D     		add	r2, r1, #4
 1332 006c 9978     		ldrb	r1, [r3, #2]
 1333 006e 0B02     		lsl	r3, r1, #8
 1334 0070 D118     		add	r1, r2, r3
 1335 0072 89B2     		uxth	r1, r1
 1336 0074 FFF7FEFF 		bl	GPRS_SendHexDataToServer
 1337              	.LVL164:
 416:Code\UserApp\Protocol/CmdProtocol.c **** 
 1338              		.loc 1 416 0
 1339 0078 0020     		mov	r0, #0
 1340 007a 19B0     		add	sp, sp, #100
 1341              		@ sp needed
 1342 007c 00BD     		pop	{pc}
ARM GAS  C:\Users\Administrator\AppData\Local\Temp\ccX9Bf8z.s 			page 57


 1343              	.L54:
 1344 007e C046     		.align	2
 1345              	.L53:
 1346 0080 00000000 		.word	Mac_Addr
 1347 0084 00000000 		.word	cur_time
 1348 0088 00000000 		.word	next_heartbeat_time
 1349              		.cfi_endproc
 1350              	.LFE69:
 1351              		.size	send_time_adjust, .-send_time_adjust
 1352              		.section	.text.send_alarm_info,"ax",%progbits
 1353              		.align	1
 1354              		.global	send_alarm_info
 1355              		.code	16
 1356              		.thumb_func
 1357              		.type	send_alarm_info, %function
 1358              	send_alarm_info:
 1359              	.LFB70:
 427:Code\UserApp\Protocol/CmdProtocol.c **** 	uint8 uart_buf[96];
 1360              		.loc 1 427 0
 1361              		.cfi_startproc
 1362              	.LVL165:
 1363 0000 00B5     		push	{lr}
 1364              		.cfi_def_cfa_offset 4
 1365              		.cfi_offset 14, -4
 1366 0002 99B0     		sub	sp, sp, #100
 1367              		.cfi_def_cfa_offset 104
 436:Code\UserApp\Protocol/CmdProtocol.c **** 	uart_buf[cnt++] = 0x3a;
 1368              		.loc 1 436 0
 1369 0004 6A46     		mov	r2, sp
 1370 0006 EF23     		mov	r3, #239
 1371 0008 1370     		strb	r3, [r2]
 1372              	.LVL166:
 437:Code\UserApp\Protocol/CmdProtocol.c **** 	uart_buf[cnt++] = (pack_len >> 8) & 0xFF;					// åŒ…é•¿åº¦é«˜å­—èŠ‚							//
 1373              		.loc 1 437 0
 1374 000a B53B     		sub	r3, r3, #181
 1375 000c 5370     		strb	r3, [r2, #1]
 1376              	.LVL167:
 438:Code\UserApp\Protocol/CmdProtocol.c **** 	uart_buf[cnt++] = pack_len & 0xFF;							// åŒ…é•¿åº¦ä½å­—èŠ‚							//
 1377              		.loc 1 438 0
 1378 000e 0023     		mov	r3, #0
 439:Code\UserApp\Protocol/CmdProtocol.c **** 	uart_buf[cnt++] = 0x01;
 1379              		.loc 1 439 0
 1380 0010 6946     		mov	r1, sp
 438:Code\UserApp\Protocol/CmdProtocol.c **** 	uart_buf[cnt++] = pack_len & 0xFF;							// åŒ…é•¿åº¦ä½å­—èŠ‚							//
 1381              		.loc 1 438 0
 1382 0012 9370     		strb	r3, [r2, #2]
 1383              	.LVL168:
 439:Code\UserApp\Protocol/CmdProtocol.c **** 	uart_buf[cnt++] = 0x01;
 1384              		.loc 1 439 0
 1385 0014 1022     		mov	r2, #16
 1386 0016 CA70     		strb	r2, [r1, #3]
 1387              	.LVL169:
 440:Code\UserApp\Protocol/CmdProtocol.c **** 	uart_buf[cnt++] = 0x01;
 1388              		.loc 1 440 0
 1389 0018 0F3A     		sub	r2, r2, #15
 1390 001a 0A71     		strb	r2, [r1, #4]
 1391              	.LVL170:
ARM GAS  C:\Users\Administrator\AppData\Local\Temp\ccX9Bf8z.s 			page 58


 441:Code\UserApp\Protocol/CmdProtocol.c **** 	uart_buf[cnt++] = 0x0B;
 1392              		.loc 1 441 0
 1393 001c 4A71     		strb	r2, [r1, #5]
 1394              	.LVL171:
 442:Code\UserApp\Protocol/CmdProtocol.c **** 	
 1395              		.loc 1 442 0
 1396 001e 0A32     		add	r2, r2, #10
 1397 0020 8A71     		strb	r2, [r1, #6]
 1398              	.LVL172:
 1399              	.L56:
 446:Code\UserApp\Protocol/CmdProtocol.c **** 	}
 1400              		.loc 1 446 0 discriminator 3
 1401 0022 1A4A     		ldr	r2, .L58
 1402 0024 D15C     		ldrb	r1, [r2, r3]
 1403 0026 1A1C     		mov	r2, r3
 1404 0028 0133     		add	r3, r3, #1
 1405              	.LVL173:
 1406 002a 6A44     		add	r2, r2, sp
 1407 002c D171     		strb	r1, [r2, #7]
 444:Code\UserApp\Protocol/CmdProtocol.c **** 	{
 1408              		.loc 1 444 0 discriminator 3
 1409 002e 062B     		cmp	r3, #6
 1410 0030 F7D1     		bne	.L56
 1411              	.LVL174:
 449:Code\UserApp\Protocol/CmdProtocol.c **** 	
 1412              		.loc 1 449 0
 1413 0032 6B46     		mov	r3, sp
 1414 0034 5873     		strb	r0, [r3, #13]
 451:Code\UserApp\Protocol/CmdProtocol.c **** 	LONG2BYTE(time_tmp, time_arr);
 1415              		.loc 1 451 0
 1416 0036 FFF7FEFF 		bl	RTC_GetUnixTime
 1417              	.LVL175:
 453:Code\UserApp\Protocol/CmdProtocol.c **** 	uart_buf[cnt++] = time_arr[1];
 1418              		.loc 1 453 0
 1419 003a 6A46     		mov	r2, sp
 452:Code\UserApp\Protocol/CmdProtocol.c **** 	uart_buf[cnt++] = time_arr[0];
 1420              		.loc 1 452 0
 1421 003c 030E     		lsr	r3, r0, #24
 453:Code\UserApp\Protocol/CmdProtocol.c **** 	uart_buf[cnt++] = time_arr[1];
 1422              		.loc 1 453 0
 1423 003e 9373     		strb	r3, [r2, #14]
 1424              	.LVL176:
 452:Code\UserApp\Protocol/CmdProtocol.c **** 	uart_buf[cnt++] = time_arr[0];
 1425              		.loc 1 452 0
 1426 0040 030C     		lsr	r3, r0, #16
 454:Code\UserApp\Protocol/CmdProtocol.c **** 	uart_buf[cnt++] = time_arr[2];
 1427              		.loc 1 454 0
 1428 0042 D373     		strb	r3, [r2, #15]
 1429              	.LVL177:
 456:Code\UserApp\Protocol/CmdProtocol.c **** 	
 1430              		.loc 1 456 0
 1431 0044 5074     		strb	r0, [r2, #17]
 452:Code\UserApp\Protocol/CmdProtocol.c **** 	uart_buf[cnt++] = time_arr[0];
 1432              		.loc 1 452 0
 1433 0046 030A     		lsr	r3, r0, #8
 458:Code\UserApp\Protocol/CmdProtocol.c **** 	uart_buf[cnt++] = (TempCrc >> 8) & 0xFF;
 1434              		.loc 1 458 0
ARM GAS  C:\Users\Administrator\AppData\Local\Temp\ccX9Bf8z.s 			page 59


 1435 0048 1221     		mov	r1, #18
 1436 004a 6846     		mov	r0, sp
 1437              	.LVL178:
 455:Code\UserApp\Protocol/CmdProtocol.c **** 	uart_buf[cnt++] = time_arr[3];
 1438              		.loc 1 455 0
 1439 004c 1374     		strb	r3, [r2, #16]
 1440              	.LVL179:
 458:Code\UserApp\Protocol/CmdProtocol.c **** 	uart_buf[cnt++] = (TempCrc >> 8) & 0xFF;
 1441              		.loc 1 458 0
 1442 004e FFF7FEFF 		bl	MyCrc16Check
 1443              	.LVL180:
 459:Code\UserApp\Protocol/CmdProtocol.c **** 	uart_buf[cnt++] = TempCrc & 0xFF;
 1444              		.loc 1 459 0
 1445 0052 6A46     		mov	r2, sp
 1446 0054 030A     		lsr	r3, r0, #8
 1447 0056 9374     		strb	r3, [r2, #18]
 1448              	.LVL181:
 460:Code\UserApp\Protocol/CmdProtocol.c **** 	
 1449              		.loc 1 460 0
 1450 0058 D074     		strb	r0, [r2, #19]
 462:Code\UserApp\Protocol/CmdProtocol.c **** 	if ((cur_time + 300) > next_heartbeat_time)					// ä¸‹ä¸€æ¬¡å¿ƒè·³åœ¨5minä»¥å†…					//
 1451              		.loc 1 462 0
 1452 005a FFF7FEFF 		bl	RTC_GetUnixTime
 1453              	.LVL182:
 1454 005e 0C4B     		ldr	r3, .L58+4
 1455 0060 1860     		str	r0, [r3]
 463:Code\UserApp\Protocol/CmdProtocol.c **** 	{
 1456              		.loc 1 463 0
 1457 0062 0C4B     		ldr	r3, .L58+8
 1458 0064 2D30     		add	r0, r0, #45
 1459 0066 1A68     		ldr	r2, [r3]
 1460 0068 FF30     		add	r0, r0, #255
 1461 006a 9042     		cmp	r0, r2
 1462 006c 00D9     		bls	.L57
 465:Code\UserApp\Protocol/CmdProtocol.c **** 	}
 1463              		.loc 1 465 0
 1464 006e 1860     		str	r0, [r3]
 1465              	.L57:
 467:Code\UserApp\Protocol/CmdProtocol.c **** 	return 0;
 1466              		.loc 1 467 0
 1467 0070 6B46     		mov	r3, sp
 1468 0072 D978     		ldrb	r1, [r3, #3]
 1469 0074 6846     		mov	r0, sp
 1470 0076 0A1D     		add	r2, r1, #4
 1471 0078 9978     		ldrb	r1, [r3, #2]
 1472 007a 0B02     		lsl	r3, r1, #8
 1473 007c D118     		add	r1, r2, r3
 1474 007e 89B2     		uxth	r1, r1
 1475 0080 FFF7FEFF 		bl	GPRS_SendHexDataToServer
 1476              	.LVL183:
 469:Code\UserApp\Protocol/CmdProtocol.c **** 
 1477              		.loc 1 469 0
 1478 0084 0020     		mov	r0, #0
 1479 0086 19B0     		add	sp, sp, #100
 1480              		@ sp needed
 1481 0088 00BD     		pop	{pc}
 1482              	.L59:
ARM GAS  C:\Users\Administrator\AppData\Local\Temp\ccX9Bf8z.s 			page 60


 1483 008a C046     		.align	2
 1484              	.L58:
 1485 008c 00000000 		.word	Mac_Addr
 1486 0090 00000000 		.word	cur_time
 1487 0094 00000000 		.word	next_heartbeat_time
 1488              		.cfi_endproc
 1489              	.LFE70:
 1490              		.size	send_alarm_info, .-send_alarm_info
 1491              		.section	.text.send_update_req,"ax",%progbits
 1492              		.align	1
 1493              		.global	send_update_req
 1494              		.code	16
 1495              		.thumb_func
 1496              		.type	send_update_req, %function
 1497              	send_update_req:
 1498              	.LFB71:
 481:Code\UserApp\Protocol/CmdProtocol.c **** 	uint8 uart_buf[96];
 1499              		.loc 1 481 0
 1500              		.cfi_startproc
 1501              	.LVL184:
 1502 0000 00B5     		push	{lr}
 1503              		.cfi_def_cfa_offset 4
 1504              		.cfi_offset 14, -4
 1505 0002 99B0     		sub	sp, sp, #100
 1506              		.cfi_def_cfa_offset 104
 490:Code\UserApp\Protocol/CmdProtocol.c **** 	uart_buf[cnt++] = 0x3a;
 1507              		.loc 1 490 0
 1508 0004 6A46     		mov	r2, sp
 1509 0006 EF23     		mov	r3, #239
 1510 0008 1370     		strb	r3, [r2]
 1511              	.LVL185:
 491:Code\UserApp\Protocol/CmdProtocol.c **** 	uart_buf[cnt++] = (pack_len >> 8) & 0xFF;					// åŒ…é•¿åº¦é«˜å­—èŠ‚							//
 1512              		.loc 1 491 0
 1513 000a B53B     		sub	r3, r3, #181
 1514 000c 5370     		strb	r3, [r2, #1]
 1515              	.LVL186:
 492:Code\UserApp\Protocol/CmdProtocol.c **** 	uart_buf[cnt++] = pack_len & 0xFF;							// åŒ…é•¿åº¦ä½å­—èŠ‚							//
 1516              		.loc 1 492 0
 1517 000e 0023     		mov	r3, #0
 493:Code\UserApp\Protocol/CmdProtocol.c **** 	uart_buf[cnt++] = 0x01;
 1518              		.loc 1 493 0
 1519 0010 6946     		mov	r1, sp
 492:Code\UserApp\Protocol/CmdProtocol.c **** 	uart_buf[cnt++] = pack_len & 0xFF;							// åŒ…é•¿åº¦ä½å­—èŠ‚							//
 1520              		.loc 1 492 0
 1521 0012 9370     		strb	r3, [r2, #2]
 1522              	.LVL187:
 493:Code\UserApp\Protocol/CmdProtocol.c **** 	uart_buf[cnt++] = 0x01;
 1523              		.loc 1 493 0
 1524 0014 1322     		mov	r2, #19
 1525 0016 CA70     		strb	r2, [r1, #3]
 1526              	.LVL188:
 494:Code\UserApp\Protocol/CmdProtocol.c **** 	uart_buf[cnt++] = 0x01;
 1527              		.loc 1 494 0
 1528 0018 123A     		sub	r2, r2, #18
 1529 001a 0A71     		strb	r2, [r1, #4]
 1530              	.LVL189:
 495:Code\UserApp\Protocol/CmdProtocol.c **** 	uart_buf[cnt++] = 0x0F;
ARM GAS  C:\Users\Administrator\AppData\Local\Temp\ccX9Bf8z.s 			page 61


 1531              		.loc 1 495 0
 1532 001c 4A71     		strb	r2, [r1, #5]
 1533              	.LVL190:
 496:Code\UserApp\Protocol/CmdProtocol.c **** 	
 1534              		.loc 1 496 0
 1535 001e 0E32     		add	r2, r2, #14
 1536 0020 8A71     		strb	r2, [r1, #6]
 1537              	.LVL191:
 1538              	.L61:
 500:Code\UserApp\Protocol/CmdProtocol.c **** 	}
 1539              		.loc 1 500 0 discriminator 3
 1540 0022 184A     		ldr	r2, .L62
 1541 0024 D15C     		ldrb	r1, [r2, r3]
 1542 0026 1A1C     		mov	r2, r3
 1543 0028 0133     		add	r3, r3, #1
 1544              	.LVL192:
 1545 002a 6A44     		add	r2, r2, sp
 1546 002c D171     		strb	r1, [r2, #7]
 498:Code\UserApp\Protocol/CmdProtocol.c **** 	{
 1547              		.loc 1 498 0 discriminator 3
 1548 002e 062B     		cmp	r3, #6
 1549 0030 F7D1     		bne	.L61
 1550              	.LVL193:
 503:Code\UserApp\Protocol/CmdProtocol.c **** 	uart_buf[cnt++] = page & 0xFF;	
 1551              		.loc 1 503 0
 1552 0032 6A46     		mov	r2, sp
 506:Code\UserApp\Protocol/CmdProtocol.c **** 	uart_buf[cnt++] = update_version & 0xFF;								
 1553              		.loc 1 506 0
 1554 0034 6946     		mov	r1, sp
 503:Code\UserApp\Protocol/CmdProtocol.c **** 	uart_buf[cnt++] = page & 0xFF;	
 1555              		.loc 1 503 0
 1556 0036 030A     		lsr	r3, r0, #8
 1557 0038 5373     		strb	r3, [r2, #13]
 1558              	.LVL194:
 506:Code\UserApp\Protocol/CmdProtocol.c **** 	uart_buf[cnt++] = update_version & 0xFF;								
 1559              		.loc 1 506 0
 1560 003a 134B     		ldr	r3, .L62+4
 504:Code\UserApp\Protocol/CmdProtocol.c **** 	
 1561              		.loc 1 504 0
 1562 003c 9073     		strb	r0, [r2, #14]
 1563              	.LVL195:
 506:Code\UserApp\Protocol/CmdProtocol.c **** 	uart_buf[cnt++] = update_version & 0xFF;								
 1564              		.loc 1 506 0
 1565 003e 1B88     		ldrh	r3, [r3]
 1566 0040 1A0A     		lsr	r2, r3, #8
 1567 0042 CA73     		strb	r2, [r1, #15]
 1568              	.LVL196:
 507:Code\UserApp\Protocol/CmdProtocol.c **** 		
 1569              		.loc 1 507 0
 1570 0044 0B74     		strb	r3, [r1, #16]
 509:Code\UserApp\Protocol/CmdProtocol.c **** 	LONG2BYTE(time_tmp, time_arr);
 1571              		.loc 1 509 0
 1572 0046 FFF7FEFF 		bl	RTC_GetUnixTime
 1573              	.LVL197:
 511:Code\UserApp\Protocol/CmdProtocol.c **** 	uart_buf[cnt++] = time_arr[1];
 1574              		.loc 1 511 0
 1575 004a 6A46     		mov	r2, sp
ARM GAS  C:\Users\Administrator\AppData\Local\Temp\ccX9Bf8z.s 			page 62


 510:Code\UserApp\Protocol/CmdProtocol.c **** 	uart_buf[cnt++] = time_arr[0];
 1576              		.loc 1 510 0
 1577 004c 030E     		lsr	r3, r0, #24
 511:Code\UserApp\Protocol/CmdProtocol.c **** 	uart_buf[cnt++] = time_arr[1];
 1578              		.loc 1 511 0
 1579 004e 5374     		strb	r3, [r2, #17]
 1580              	.LVL198:
 510:Code\UserApp\Protocol/CmdProtocol.c **** 	uart_buf[cnt++] = time_arr[0];
 1581              		.loc 1 510 0
 1582 0050 030C     		lsr	r3, r0, #16
 512:Code\UserApp\Protocol/CmdProtocol.c **** 	uart_buf[cnt++] = time_arr[2];
 1583              		.loc 1 512 0
 1584 0052 9374     		strb	r3, [r2, #18]
 1585              	.LVL199:
 514:Code\UserApp\Protocol/CmdProtocol.c **** 
 1586              		.loc 1 514 0
 1587 0054 1075     		strb	r0, [r2, #20]
 510:Code\UserApp\Protocol/CmdProtocol.c **** 	uart_buf[cnt++] = time_arr[0];
 1588              		.loc 1 510 0
 1589 0056 030A     		lsr	r3, r0, #8
 516:Code\UserApp\Protocol/CmdProtocol.c **** 	uart_buf[cnt++] = (TempCrc >> 8) & 0xFF;
 1590              		.loc 1 516 0
 1591 0058 1521     		mov	r1, #21
 1592 005a 6846     		mov	r0, sp
 1593              	.LVL200:
 513:Code\UserApp\Protocol/CmdProtocol.c **** 	uart_buf[cnt++] = time_arr[3];
 1594              		.loc 1 513 0
 1595 005c D374     		strb	r3, [r2, #19]
 1596              	.LVL201:
 516:Code\UserApp\Protocol/CmdProtocol.c **** 	uart_buf[cnt++] = (TempCrc >> 8) & 0xFF;
 1597              		.loc 1 516 0
 1598 005e FFF7FEFF 		bl	MyCrc16Check
 1599              	.LVL202:
 517:Code\UserApp\Protocol/CmdProtocol.c **** 	uart_buf[cnt++] = TempCrc & 0xFF;
 1600              		.loc 1 517 0
 1601 0062 6A46     		mov	r2, sp
 1602 0064 030A     		lsr	r3, r0, #8
 1603 0066 5375     		strb	r3, [r2, #21]
 1604              	.LVL203:
 518:Code\UserApp\Protocol/CmdProtocol.c **** 	GPRS_SendHexDataToServer((uint8_t *)uart_buf, ((uart_buf[2] << 8) + uart_buf[3] + 4));
 1605              		.loc 1 518 0
 1606 0068 6B46     		mov	r3, sp
 519:Code\UserApp\Protocol/CmdProtocol.c **** 	
 1607              		.loc 1 519 0
 1608 006a D178     		ldrb	r1, [r2, #3]
 518:Code\UserApp\Protocol/CmdProtocol.c **** 	GPRS_SendHexDataToServer((uint8_t *)uart_buf, ((uart_buf[2] << 8) + uart_buf[3] + 4));
 1609              		.loc 1 518 0
 1610 006c 9075     		strb	r0, [r2, #22]
 1611 006e 0A1D     		add	r2, r1, #4
 519:Code\UserApp\Protocol/CmdProtocol.c **** 	
 1612              		.loc 1 519 0
 1613 0070 9978     		ldrb	r1, [r3, #2]
 1614 0072 6846     		mov	r0, sp
 1615              	.LVL204:
 1616 0074 0B02     		lsl	r3, r1, #8
 1617 0076 D118     		add	r1, r2, r3
 1618 0078 89B2     		uxth	r1, r1
ARM GAS  C:\Users\Administrator\AppData\Local\Temp\ccX9Bf8z.s 			page 63


 1619 007a FFF7FEFF 		bl	GPRS_SendHexDataToServer
 1620              	.LVL205:
 522:Code\UserApp\Protocol/CmdProtocol.c **** 
 1621              		.loc 1 522 0
 1622 007e 0020     		mov	r0, #0
 1623 0080 19B0     		add	sp, sp, #100
 1624              		@ sp needed
 1625 0082 00BD     		pop	{pc}
 1626              	.L63:
 1627              		.align	2
 1628              	.L62:
 1629 0084 00000000 		.word	Mac_Addr
 1630 0088 00000000 		.word	update_version
 1631              		.cfi_endproc
 1632              	.LFE71:
 1633              		.size	send_update_req, .-send_update_req
 1634              		.section	.text.Protocol_CmdRemoteDownload,"ax",%progbits
 1635              		.align	1
 1636              		.code	16
 1637              		.thumb_func
 1638              		.type	Protocol_CmdRemoteDownload, %function
 1639              	Protocol_CmdRemoteDownload:
 1640              	.LFB87:
1394:Code\UserApp\Protocol/CmdProtocol.c **** 	uint8 ReadDataBuf[DATABUF_SIZE];
 1641              		.loc 1 1394 0
 1642              		.cfi_startproc
 1643              	.LVL206:
 1644 0000 F0B5     		push	{r4, r5, r6, r7, lr}
 1645              		.cfi_def_cfa_offset 20
 1646              		.cfi_offset 4, -20
 1647              		.cfi_offset 5, -16
 1648              		.cfi_offset 6, -12
 1649              		.cfi_offset 7, -8
 1650              		.cfi_offset 14, -4
1401:Code\UserApp\Protocol/CmdProtocol.c **** 	
 1651              		.loc 1 1401 0
 1652 0002 457B     		ldrb	r5, [r0, #13]
 1653 0004 827B     		ldrb	r2, [r0, #14]
1408:Code\UserApp\Protocol/CmdProtocol.c **** 	{
 1654              		.loc 1 1408 0
 1655 0006 3B4F     		ldr	r7, .L74
1401:Code\UserApp\Protocol/CmdProtocol.c **** 	
 1656              		.loc 1 1401 0
 1657 0008 2D02     		lsl	r5, r5, #8
1394:Code\UserApp\Protocol/CmdProtocol.c **** 	uint8 ReadDataBuf[DATABUF_SIZE];
 1658              		.loc 1 1394 0
 1659 000a 3B4C     		ldr	r4, .L74+4
1401:Code\UserApp\Protocol/CmdProtocol.c **** 	
 1660              		.loc 1 1401 0
 1661 000c 5519     		add	r5, r2, r5
1408:Code\UserApp\Protocol/CmdProtocol.c **** 	{
 1662              		.loc 1 1408 0
 1663 000e 3A88     		ldrh	r2, [r7]
1401:Code\UserApp\Protocol/CmdProtocol.c **** 	
 1664              		.loc 1 1401 0
 1665 0010 ADB2     		uxth	r5, r5
1394:Code\UserApp\Protocol/CmdProtocol.c **** 	uint8 ReadDataBuf[DATABUF_SIZE];
ARM GAS  C:\Users\Administrator\AppData\Local\Temp\ccX9Bf8z.s 			page 64


 1666              		.loc 1 1394 0
 1667 0012 A544     		add	sp, sp, r4
 1668              		.cfi_def_cfa_offset 1080
1398:Code\UserApp\Protocol/CmdProtocol.c **** 	uint16 curr_packet_len = nCmdPackLen - 18;					// å½“å‰å‡çº§æ•°æ®åŒ…å†…å®¹é•¿åº¦				//
 1669              		.loc 1 1398 0
 1670 0014 C378     		ldrb	r3, [r0, #3]
 1671 0016 8478     		ldrb	r4, [r0, #2]
 1672              	.LVL207:
1408:Code\UserApp\Protocol/CmdProtocol.c **** 	{
 1673              		.loc 1 1408 0
 1674 0018 AA42     		cmp	r2, r5
 1675 001a 01D0     		beq	.L65
1408:Code\UserApp\Protocol/CmdProtocol.c **** 	{
 1676              		.loc 1 1408 0 is_stmt 0 discriminator 1
 1677 001c 002D     		cmp	r5, #0
 1678 001e 56D1     		bne	.L66
 1679              	.L65:
1410:Code\UserApp\Protocol/CmdProtocol.c **** 		W25QXX_Read(ReadDataBuf, W25X_IMAGESTART_ADDR + update_offset, curr_packet_len);
 1680              		.loc 1 1410 0 is_stmt 1
 1681 0020 0F30     		add	r0, r0, #15
 1682              	.LVL208:
 1683 0022 061C     		mov	r6, r0
 1684 0024 354F     		ldr	r7, .L74+8
 1685 0026 123B     		sub	r3, r3, #18
 1686              	.LVL209:
1398:Code\UserApp\Protocol/CmdProtocol.c **** 	uint16 curr_packet_len = nCmdPackLen - 18;					// å½“å‰å‡çº§æ•°æ®åŒ…å†…å®¹é•¿åº¦				//
 1687              		.loc 1 1398 0
 1688 0028 2402     		lsl	r4, r4, #8
 1689              	.LVL210:
1399:Code\UserApp\Protocol/CmdProtocol.c **** 	
 1690              		.loc 1 1399 0
 1691 002a 1C19     		add	r4, r3, r4
1410:Code\UserApp\Protocol/CmdProtocol.c **** 		W25QXX_Read(ReadDataBuf, W25X_IMAGESTART_ADDR + update_offset, curr_packet_len);
 1692              		.loc 1 1410 0
 1693 002c 344A     		ldr	r2, .L74+12
 1694 002e 3B68     		ldr	r3, [r7]
 1695              	.LVL211:
1399:Code\UserApp\Protocol/CmdProtocol.c **** 	
 1696              		.loc 1 1399 0
 1697 0030 A4B2     		uxth	r4, r4
1410:Code\UserApp\Protocol/CmdProtocol.c **** 		W25QXX_Read(ReadDataBuf, W25X_IMAGESTART_ADDR + update_offset, curr_packet_len);
 1698              		.loc 1 1410 0
 1699 0032 9918     		add	r1, r3, r2
 1700 0034 221C     		mov	r2, r4
 1701 0036 FFF7FEFF 		bl	W25QXX_Write
 1702              	.LVL212:
1411:Code\UserApp\Protocol/CmdProtocol.c **** 		if (memcmp(RecBuf + 15, ReadDataBuf, curr_packet_len) == 0)
 1703              		.loc 1 1411 0
 1704 003a 3B68     		ldr	r3, [r7]
 1705 003c 304A     		ldr	r2, .L74+12
 1706 003e 01A8     		add	r0, sp, #4
 1707 0040 9918     		add	r1, r3, r2
 1708 0042 221C     		mov	r2, r4
 1709 0044 FFF7FEFF 		bl	W25QXX_Read
 1710              	.LVL213:
1412:Code\UserApp\Protocol/CmdProtocol.c **** 		{
 1711              		.loc 1 1412 0
ARM GAS  C:\Users\Administrator\AppData\Local\Temp\ccX9Bf8z.s 			page 65


 1712 0048 301C     		mov	r0, r6
 1713 004a 01A9     		add	r1, sp, #4
 1714 004c 221C     		mov	r2, r4
 1715 004e FFF7FEFF 		bl	memcmp
 1716              	.LVL214:
 1717 0052 061E     		sub	r6, r0, #0
 1718              	.LVL215:
 1719 0054 28D1     		bne	.L67
1414:Code\UserApp\Protocol/CmdProtocol.c **** 			if (recv_page != 0)
 1720              		.loc 1 1414 0
 1721 0056 3B68     		ldr	r3, [r7]
 1722 0058 2A4A     		ldr	r2, .L74+16
 1723 005a E318     		add	r3, r4, r3
 1724 005c 3B60     		str	r3, [r7]
1415:Code\UserApp\Protocol/CmdProtocol.c **** 			{	
 1725              		.loc 1 1415 0
 1726 005e 002D     		cmp	r5, #0
 1727 0060 0FD0     		beq	.L68
1417:Code\UserApp\Protocol/CmdProtocol.c **** 				Image_size += curr_packet_len;
 1728              		.loc 1 1417 0
 1729 0062 244B     		ldr	r3, .L74
 1730 0064 1888     		ldrh	r0, [r3]
 1731 0066 0130     		add	r0, r0, #1
 1732 0068 80B2     		uxth	r0, r0
 1733 006a 1880     		strh	r0, [r3]
1418:Code\UserApp\Protocol/CmdProtocol.c **** 				send_update_req(update_page);
 1734              		.loc 1 1418 0
 1735 006c 1368     		ldr	r3, [r2]
 1736 006e E418     		add	r4, r4, r3
 1737 0070 1460     		str	r4, [r2]
1419:Code\UserApp\Protocol/CmdProtocol.c **** 				update_timeout_time = 10000;
 1738              		.loc 1 1419 0
 1739 0072 FFF7FEFF 		bl	send_update_req
 1740              	.LVL216:
1420:Code\UserApp\Protocol/CmdProtocol.c **** 				update_timeout_count = 0;
 1741              		.loc 1 1420 0
 1742 0076 244B     		ldr	r3, .L74+20
 1743 0078 244A     		ldr	r2, .L74+24
 1744 007a 1A60     		str	r2, [r3]
1421:Code\UserApp\Protocol/CmdProtocol.c **** 			}
 1745              		.loc 1 1421 0
 1746 007c 244B     		ldr	r3, .L74+28
 1747 007e 1E70     		strb	r6, [r3]
 1748 0080 34E0     		b	.L64
 1749              	.L68:
1425:Code\UserApp\Protocol/CmdProtocol.c **** 				data_size[2] = (uint8)(update_offset >> 24);
 1750              		.loc 1 1425 0
 1751 0082 1168     		ldr	r1, [r2]
1431:Code\UserApp\Protocol/CmdProtocol.c **** 				gprs_state = UPDATE_FINISH;
 1752              		.loc 1 1431 0
 1753 0084 6846     		mov	r0, sp
1425:Code\UserApp\Protocol/CmdProtocol.c **** 				data_size[2] = (uint8)(update_offset >> 24);
 1754              		.loc 1 1425 0
 1755 0086 6418     		add	r4, r4, r1
1426:Code\UserApp\Protocol/CmdProtocol.c **** 				data_size[3] = (uint8)(update_offset >> 16);	// é«˜ä½åœ¨å[2-3]
 1756              		.loc 1 1426 0
 1757 0088 6946     		mov	r1, sp
ARM GAS  C:\Users\Administrator\AppData\Local\Temp\ccX9Bf8z.s 			page 66


1425:Code\UserApp\Protocol/CmdProtocol.c **** 				data_size[2] = (uint8)(update_offset >> 24);
 1758              		.loc 1 1425 0
 1759 008a 1460     		str	r4, [r2]
1426:Code\UserApp\Protocol/CmdProtocol.c **** 				data_size[3] = (uint8)(update_offset >> 16);	// é«˜ä½åœ¨å[2-3]
 1760              		.loc 1 1426 0
 1761 008c 1A0E     		lsr	r2, r3, #24
 1762 008e 8A70     		strb	r2, [r1, #2]
1427:Code\UserApp\Protocol/CmdProtocol.c **** 				data_size[0] = (uint8)(update_offset >> 8);
 1763              		.loc 1 1427 0
 1764 0090 1A0C     		lsr	r2, r3, #16
 1765 0092 CA70     		strb	r2, [r1, #3]
1428:Code\UserApp\Protocol/CmdProtocol.c **** 				data_size[1] = (uint8)update_offset;
 1766              		.loc 1 1428 0
 1767 0094 1A0A     		lsr	r2, r3, #8
 1768 0096 0A70     		strb	r2, [r1]
1429:Code\UserApp\Protocol/CmdProtocol.c **** 				
 1769              		.loc 1 1429 0
 1770 0098 4B70     		strb	r3, [r1, #1]
1431:Code\UserApp\Protocol/CmdProtocol.c **** 				gprs_state = UPDATE_FINISH;
 1771              		.loc 1 1431 0
 1772 009a C821     		mov	r1, #200
 1773 009c 0422     		mov	r2, #4
 1774 009e 8902     		lsl	r1, r1, #10
 1775 00a0 FFF7FEFF 		bl	W25QXX_Write
 1776              	.LVL217:
1432:Code\UserApp\Protocol/CmdProtocol.c **** 			}
 1777              		.loc 1 1432 0
 1778 00a4 0B22     		mov	r2, #11
 1779 00a6 0AE0     		b	.L72
 1780              	.L67:
1437:Code\UserApp\Protocol/CmdProtocol.c **** 			if (update_timeout_count >= 3)
 1781              		.loc 1 1437 0
 1782 00a8 194A     		ldr	r2, .L74+28
 1783 00aa 1378     		ldrb	r3, [r2]
 1784 00ac 0133     		add	r3, r3, #1
 1785 00ae DBB2     		uxtb	r3, r3
 1786 00b0 1370     		strb	r3, [r2]
1438:Code\UserApp\Protocol/CmdProtocol.c **** 			{
 1787              		.loc 1 1438 0
 1788 00b2 022B     		cmp	r3, #2
 1789 00b4 06D9     		bls	.L70
 1790              	.L71:
1440:Code\UserApp\Protocol/CmdProtocol.c **** 				gprs_state = NEED_INIT;
 1791              		.loc 1 1440 0
 1792 00b6 0022     		mov	r2, #0
 1793 00b8 154B     		ldr	r3, .L74+28
 1794 00ba 1A70     		strb	r2, [r3]
1441:Code\UserApp\Protocol/CmdProtocol.c **** 			}
 1795              		.loc 1 1441 0
 1796 00bc 0632     		add	r2, r2, #6
 1797              	.L72:
 1798 00be 154B     		ldr	r3, .L74+32
 1799 00c0 1A70     		strb	r2, [r3]
 1800 00c2 13E0     		b	.L64
 1801              	.L70:
1445:Code\UserApp\Protocol/CmdProtocol.c **** 				send_update_req(update_page);
 1802              		.loc 1 1445 0
ARM GAS  C:\Users\Administrator\AppData\Local\Temp\ccX9Bf8z.s 			page 67


 1803 00c4 FFF7FEFF 		bl	Cmd_Protocol_ParaInit
 1804              	.LVL218:
1446:Code\UserApp\Protocol/CmdProtocol.c **** 				update_timeout_time = 10000;
 1805              		.loc 1 1446 0
 1806 00c8 0A4B     		ldr	r3, .L74
 1807 00ca 1888     		ldrh	r0, [r3]
 1808 00cc 09E0     		b	.L73
 1809              	.LVL219:
 1810              	.L66:
1453:Code\UserApp\Protocol/CmdProtocol.c **** 		if (update_timeout_count >= 3)
 1811              		.loc 1 1453 0
 1812 00ce 104A     		ldr	r2, .L74+28
 1813 00d0 1378     		ldrb	r3, [r2]
 1814              	.LVL220:
 1815 00d2 0133     		add	r3, r3, #1
 1816 00d4 DBB2     		uxtb	r3, r3
 1817 00d6 1370     		strb	r3, [r2]
1454:Code\UserApp\Protocol/CmdProtocol.c **** 		{
 1818              		.loc 1 1454 0
 1819 00d8 022B     		cmp	r3, #2
 1820 00da ECD8     		bhi	.L71
1461:Code\UserApp\Protocol/CmdProtocol.c **** 			send_update_req(update_page);
 1821              		.loc 1 1461 0
 1822 00dc FFF7FEFF 		bl	Cmd_Protocol_ParaInit
 1823              	.LVL221:
1462:Code\UserApp\Protocol/CmdProtocol.c **** 			update_timeout_time = 10000;
 1824              		.loc 1 1462 0
 1825 00e0 3888     		ldrh	r0, [r7]
 1826              	.L73:
 1827 00e2 FFF7FEFF 		bl	send_update_req
 1828              	.LVL222:
1463:Code\UserApp\Protocol/CmdProtocol.c **** 		}
 1829              		.loc 1 1463 0
 1830 00e6 094A     		ldr	r2, .L74+24
 1831 00e8 074B     		ldr	r3, .L74+20
 1832 00ea 1A60     		str	r2, [r3]
 1833              	.L64:
1469:Code\UserApp\Protocol/CmdProtocol.c **** 
 1834              		.loc 1 1469 0
 1835 00ec 0A4B     		ldr	r3, .L74+36
 1836 00ee 9D44     		add	sp, sp, r3
 1837              		@ sp needed
 1838              	.LVL223:
 1839 00f0 F0BD     		pop	{r4, r5, r6, r7, pc}
 1840              	.L75:
 1841 00f2 C046     		.align	2
 1842              	.L74:
 1843 00f4 00000000 		.word	update_page
 1844 00f8 DCFBFFFF 		.word	-1060
 1845 00fc 00000000 		.word	update_offset
 1846 0100 00210300 		.word	205056
 1847 0104 00000000 		.word	Image_size
 1848 0108 00000000 		.word	update_timeout_time
 1849 010c 10270000 		.word	10000
 1850 0110 00000000 		.word	update_timeout_count
 1851 0114 00000000 		.word	gprs_state
 1852 0118 24040000 		.word	1060
ARM GAS  C:\Users\Administrator\AppData\Local\Temp\ccX9Bf8z.s 			page 68


 1853              		.cfi_endproc
 1854              	.LFE87:
 1855              		.size	Protocol_CmdRemoteDownload, .-Protocol_CmdRemoteDownload
 1856              		.section	.text.Protocol_SendAckPacket,"ax",%progbits
 1857              		.align	1
 1858              		.global	Protocol_SendAckPacket
 1859              		.code	16
 1860              		.thumb_func
 1861              		.type	Protocol_SendAckPacket, %function
 1862              	Protocol_SendAckPacket:
 1863              	.LFB72:
 537:Code\UserApp\Protocol/CmdProtocol.c **** 	uint8 AppResponseBuf[256] = {0};
 1864              		.loc 1 537 0
 1865              		.cfi_startproc
 1866              	.LVL224:
 1867 0000 F0B5     		push	{r4, r5, r6, r7, lr}
 1868              		.cfi_def_cfa_offset 20
 1869              		.cfi_offset 4, -20
 1870              		.cfi_offset 5, -16
 1871              		.cfi_offset 6, -12
 1872              		.cfi_offset 7, -8
 1873              		.cfi_offset 14, -4
 1874 0002 C3B0     		sub	sp, sp, #268
 1875              		.cfi_def_cfa_offset 288
 537:Code\UserApp\Protocol/CmdProtocol.c **** 	uint8 AppResponseBuf[256] = {0};
 1876              		.loc 1 537 0
 1877 0004 0092     		str	r2, [sp]
 546:Code\UserApp\Protocol/CmdProtocol.c **** 	AppResponseBuf[NoPtr++] = HEAD_BYTE1;
 1878              		.loc 1 546 0
 1879 0006 8022     		mov	r2, #128
 1880              	.LVL225:
 537:Code\UserApp\Protocol/CmdProtocol.c **** 	uint8 AppResponseBuf[256] = {0};
 1881              		.loc 1 537 0
 1882 0008 061C     		mov	r6, r0
 1883 000a 0C1C     		mov	r4, r1
 1884 000c 0193     		str	r3, [sp, #4]
 546:Code\UserApp\Protocol/CmdProtocol.c **** 	AppResponseBuf[NoPtr++] = HEAD_BYTE1;
 1885              		.loc 1 546 0
 1886 000e 5200     		lsl	r2, r2, #1
 537:Code\UserApp\Protocol/CmdProtocol.c **** 	uint8 AppResponseBuf[256] = {0};
 1887              		.loc 1 537 0
 1888 0010 48AB     		add	r3, sp, #288
 1889              	.LVL226:
 546:Code\UserApp\Protocol/CmdProtocol.c **** 	AppResponseBuf[NoPtr++] = HEAD_BYTE1;
 1890              		.loc 1 546 0
 1891 0012 02A8     		add	r0, sp, #8
 1892              	.LVL227:
 1893 0014 0021     		mov	r1, #0
 1894              	.LVL228:
 537:Code\UserApp\Protocol/CmdProtocol.c **** 	uint8 AppResponseBuf[256] = {0};
 1895              		.loc 1 537 0
 1896 0016 1F88     		ldrh	r7, [r3]
 546:Code\UserApp\Protocol/CmdProtocol.c **** 	AppResponseBuf[NoPtr++] = HEAD_BYTE1;
 1897              		.loc 1 546 0
 1898 0018 FFF7FEFF 		bl	memset
 1899              	.LVL229:
 547:Code\UserApp\Protocol/CmdProtocol.c **** 	AppResponseBuf[NoPtr++] = HEAD_BYTE2;
ARM GAS  C:\Users\Administrator\AppData\Local\Temp\ccX9Bf8z.s 			page 69


 1900              		.loc 1 547 0
 1901 001c EF23     		mov	r3, #239
 1902 001e 02AA     		add	r2, sp, #8
 545:Code\UserApp\Protocol/CmdProtocol.c **** 	memset(AppResponseBuf, 0, sizeof(AppResponseBuf));
 1903              		.loc 1 545 0
 1904 0020 7D1D     		add	r5, r7, #5
 547:Code\UserApp\Protocol/CmdProtocol.c **** 	AppResponseBuf[NoPtr++] = HEAD_BYTE2;
 1905              		.loc 1 547 0
 1906 0022 1370     		strb	r3, [r2]
 545:Code\UserApp\Protocol/CmdProtocol.c **** 	memset(AppResponseBuf, 0, sizeof(AppResponseBuf));
 1907              		.loc 1 545 0
 1908 0024 ADB2     		uxth	r5, r5
 1909              	.LVL230:
 548:Code\UserApp\Protocol/CmdProtocol.c **** 	AppResponseBuf[NoPtr++] = (nPacketLen >> 8) & 0xff;
 1910              		.loc 1 548 0
 1911 0026 B53B     		sub	r3, r3, #181
 1912 0028 5370     		strb	r3, [r2, #1]
 1913              	.LVL231:
 549:Code\UserApp\Protocol/CmdProtocol.c **** 	AppResponseBuf[NoPtr++] = nPacketLen & 0xff;
 1914              		.loc 1 549 0
 1915 002a 2B0A     		lsr	r3, r5, #8
 1916 002c 9370     		strb	r3, [r2, #2]
 1917              	.LVL232:
 552:Code\UserApp\Protocol/CmdProtocol.c **** 	AppResponseBuf[NoPtr++] = cCmd;
 1918              		.loc 1 552 0
 1919 002e 0123     		mov	r3, #1
 551:Code\UserApp\Protocol/CmdProtocol.c **** 	AppResponseBuf[NoPtr++] = PROTOCOL_VER; 
 1920              		.loc 1 551 0
 1921 0030 2401     		lsl	r4, r4, #4
 1922 0032 3443     		orr	r4, r6
 1923 0034 1471     		strb	r4, [r2, #4]
 552:Code\UserApp\Protocol/CmdProtocol.c **** 	AppResponseBuf[NoPtr++] = cCmd;
 1924              		.loc 1 552 0
 1925 0036 5371     		strb	r3, [r2, #5]
 550:Code\UserApp\Protocol/CmdProtocol.c **** 	AppResponseBuf[NoPtr++] = CommChanle | (cPackType << 4);
 1926              		.loc 1 550 0
 1927 0038 D570     		strb	r5, [r2, #3]
 1928              	.LVL233:
 553:Code\UserApp\Protocol/CmdProtocol.c **** 
 1929              		.loc 1 553 0
 1930 003a 131C     		mov	r3, r2
 1931 003c 6A46     		mov	r2, sp
 1932 003e 1278     		ldrb	r2, [r2]
 1933 0040 0724     		mov	r4, #7
 1934 0042 9A71     		strb	r2, [r3, #6]
 561:Code\UserApp\Protocol/CmdProtocol.c **** 	{
 1935              		.loc 1 561 0
 1936 0044 002F     		cmp	r7, #0
 1937 0046 0AD0     		beq	.L78
 1938              	.LVL234:
 1939              	.L77:
 1940 0048 E31F     		sub	r3, r4, #7
 1941 004a DBB2     		uxtb	r3, r3
 1942              	.LVL235:
 563:Code\UserApp\Protocol/CmdProtocol.c **** 		{
 1943              		.loc 1 563 0 discriminator 1
 1944 004c BB42     		cmp	r3, r7
ARM GAS  C:\Users\Administrator\AppData\Local\Temp\ccX9Bf8z.s 			page 70


 1945 004e 06D2     		bcs	.L78
 565:Code\UserApp\Protocol/CmdProtocol.c **** 		}
 1946              		.loc 1 565 0 discriminator 3
 1947 0050 0199     		ldr	r1, [sp, #4]
 1948 0052 621C     		add	r2, r4, #1
 1949              	.LVL236:
 1950 0054 CB5C     		ldrb	r3, [r1, r3]
 1951              	.LVL237:
 1952 0056 02A9     		add	r1, sp, #8
 1953 0058 0B55     		strb	r3, [r1, r4]
 1954              	.LVL238:
 1955 005a 94B2     		uxth	r4, r2
 1956 005c F4E7     		b	.L77
 1957              	.LVL239:
 1958              	.L78:
 569:Code\UserApp\Protocol/CmdProtocol.c **** 
 1959              		.loc 1 569 0
 1960 005e 211C     		mov	r1, r4
 1961 0060 02A8     		add	r0, sp, #8
 1962 0062 FFF7FEFF 		bl	MyCrc16Check
 1963              	.LVL240:
 571:Code\UserApp\Protocol/CmdProtocol.c **** 	AppResponseBuf[NoPtr++] = TempCrc & 0xFF;
 1964              		.loc 1 571 0
 1965 0066 02AA     		add	r2, sp, #8
 1966 0068 030A     		lsr	r3, r0, #8
 1967 006a 1355     		strb	r3, [r2, r4]
 572:Code\UserApp\Protocol/CmdProtocol.c **** 	
 1968              		.loc 1 572 0
 1969 006c A51C     		add	r5, r4, #2
 1970              	.LVL241:
 571:Code\UserApp\Protocol/CmdProtocol.c **** 	AppResponseBuf[NoPtr++] = TempCrc & 0xFF;
 1971              		.loc 1 571 0
 1972 006e 0134     		add	r4, r4, #1
 1973              	.LVL242:
 572:Code\UserApp\Protocol/CmdProtocol.c **** 	
 1974              		.loc 1 572 0
 1975 0070 A4B2     		uxth	r4, r4
 1976 0072 ADB2     		uxth	r5, r5
 1977              	.LVL243:
 1978 0074 1055     		strb	r0, [r2, r4]
 577:Code\UserApp\Protocol/CmdProtocol.c **** 	{
 1979              		.loc 1 577 0
 1980 0076 022E     		cmp	r6, #2
 1981 0078 04D1     		bne	.L80
 579:Code\UserApp\Protocol/CmdProtocol.c ****         #if 0
 1982              		.loc 1 579 0
 1983 007a 101C     		mov	r0, r2
 1984              	.LVL244:
 1985 007c 291C     		mov	r1, r5
 1986 007e FFF7FEFF 		bl	BleSend
 1987              	.LVL245:
 1988 0082 10E0     		b	.L76
 1989              	.LVL246:
 1990              	.L80:
 587:Code\UserApp\Protocol/CmdProtocol.c **** 	{
 1991              		.loc 1 587 0
 1992 0084 012E     		cmp	r6, #1
ARM GAS  C:\Users\Administrator\AppData\Local\Temp\ccX9Bf8z.s 			page 71


 1993 0086 0ED1     		bne	.L76
 589:Code\UserApp\Protocol/CmdProtocol.c **** 		if ((cur_time + 300) > next_heartbeat_time)				// ä¸‹ä¸€æ¬¡å¿ƒè·³åœ¨5minä»¥å†…					//
 1994              		.loc 1 589 0
 1995 0088 FFF7FEFF 		bl	RTC_GetUnixTime
 1996              	.LVL247:
 1997 008c 074B     		ldr	r3, .L84
 1998 008e 1860     		str	r0, [r3]
 590:Code\UserApp\Protocol/CmdProtocol.c **** 		{
 1999              		.loc 1 590 0
 2000 0090 074B     		ldr	r3, .L84+4
 2001 0092 2D30     		add	r0, r0, #45
 2002 0094 1A68     		ldr	r2, [r3]
 2003 0096 FF30     		add	r0, r0, #255
 2004 0098 9042     		cmp	r0, r2
 2005 009a 00D9     		bls	.L82
 592:Code\UserApp\Protocol/CmdProtocol.c **** 		}
 2006              		.loc 1 592 0
 2007 009c 1860     		str	r0, [r3]
 2008              	.L82:
 594:Code\UserApp\Protocol/CmdProtocol.c **** 	}
 2009              		.loc 1 594 0
 2010 009e 02A8     		add	r0, sp, #8
 2011 00a0 291C     		mov	r1, r5
 2012 00a2 FFF7FEFF 		bl	GPRS_SendHexDataToServer
 2013              	.LVL248:
 2014              	.L76:
 596:Code\UserApp\Protocol/CmdProtocol.c **** 
 2015              		.loc 1 596 0
 2016 00a6 43B0     		add	sp, sp, #268
 2017              		@ sp needed
 2018              	.LVL249:
 2019              	.LVL250:
 2020 00a8 F0BD     		pop	{r4, r5, r6, r7, pc}
 2021              	.L85:
 2022 00aa C046     		.align	2
 2023              	.L84:
 2024 00ac 00000000 		.word	cur_time
 2025 00b0 00000000 		.word	next_heartbeat_time
 2026              		.cfi_endproc
 2027              	.LFE72:
 2028              		.size	Protocol_SendAckPacket, .-Protocol_SendAckPacket
 2029              		.section	.text.Protocol_CmdReadUID,"ax",%progbits
 2030              		.align	1
 2031              		.code	16
 2032              		.thumb_func
 2033              		.type	Protocol_CmdReadUID, %function
 2034              	Protocol_CmdReadUID:
 2035              	.LFB75:
 706:Code\UserApp\Protocol/CmdProtocol.c **** 	uint8 ret;
 2036              		.loc 1 706 0
 2037              		.cfi_startproc
 2038              	.LVL251:
 2039 0000 F0B5     		push	{r4, r5, r6, r7, lr}
 2040              		.cfi_def_cfa_offset 20
 2041              		.cfi_offset 4, -20
 2042              		.cfi_offset 5, -16
 2043              		.cfi_offset 6, -12
ARM GAS  C:\Users\Administrator\AppData\Local\Temp\ccX9Bf8z.s 			page 72


 2044              		.cfi_offset 7, -8
 2045              		.cfi_offset 14, -4
 710:Code\UserApp\Protocol/CmdProtocol.c **** 	uint8 comm_chanle = RecBuf[4];								// å–å‡ºä¿¡é“å€¼							//
 2046              		.loc 1 710 0
 2047 0002 0025     		mov	r5, #0
 706:Code\UserApp\Protocol/CmdProtocol.c **** 	uint8 ret;
 2048              		.loc 1 706 0
 2049 0004 061C     		mov	r6, r0
 714:Code\UserApp\Protocol/CmdProtocol.c **** 	 
 2050              		.loc 1 714 0
 2051 0006 C178     		ldrb	r1, [r0, #3]
 711:Code\UserApp\Protocol/CmdProtocol.c **** 	uint16 nCmdPackLen;
 2052              		.loc 1 711 0
 2053 0008 0379     		ldrb	r3, [r0, #4]
 2054 000a 0A1D     		add	r2, r1, #4
 714:Code\UserApp\Protocol/CmdProtocol.c **** 	 
 2055              		.loc 1 714 0
 2056 000c 8178     		ldrb	r1, [r0, #2]
 706:Code\UserApp\Protocol/CmdProtocol.c **** 	uint8 ret;
 2057              		.loc 1 706 0
 2058 000e 97B0     		sub	sp, sp, #92
 2059              		.cfi_def_cfa_offset 112
 2060              	.LVL252:
 711:Code\UserApp\Protocol/CmdProtocol.c **** 	uint16 nCmdPackLen;
 2061              		.loc 1 711 0
 2062 0010 0293     		str	r3, [sp, #8]
 2063              	.LVL253:
 714:Code\UserApp\Protocol/CmdProtocol.c **** 	 
 2064              		.loc 1 714 0
 2065 0012 0B02     		lsl	r3, r1, #8
 2066 0014 D118     		add	r1, r2, r3
 2067 0016 8BB2     		uxth	r3, r1
 716:Code\UserApp\Protocol/CmdProtocol.c **** 	
 2068              		.loc 1 716 0
 2069 0018 4022     		mov	r2, #64
 2070 001a 291C     		mov	r1, r5
 710:Code\UserApp\Protocol/CmdProtocol.c **** 	uint8 comm_chanle = RecBuf[4];								// å–å‡ºä¿¡é“å€¼							//
 2071              		.loc 1 710 0
 2072 001c 04AC     		add	r4, sp, #16
 716:Code\UserApp\Protocol/CmdProtocol.c **** 	
 2073              		.loc 1 716 0
 2074 001e 06A8     		add	r0, sp, #24
 2075              	.LVL254:
 714:Code\UserApp\Protocol/CmdProtocol.c **** 	 
 2076              		.loc 1 714 0
 2077 0020 0393     		str	r3, [sp, #12]
 2078              	.LVL255:
 710:Code\UserApp\Protocol/CmdProtocol.c **** 	uint8 comm_chanle = RecBuf[4];								// å–å‡ºä¿¡é“å€¼							//
 2079              		.loc 1 710 0
 2080 0022 0495     		str	r5, [sp, #16]
 2081 0024 6560     		str	r5, [r4, #4]
 716:Code\UserApp\Protocol/CmdProtocol.c **** 	
 2082              		.loc 1 716 0
 2083 0026 FFF7FEFF 		bl	memset
 2084              	.LVL256:
 720:Code\UserApp\Protocol/CmdProtocol.c **** 	pT += 6;
 2085              		.loc 1 720 0
ARM GAS  C:\Users\Administrator\AppData\Local\Temp\ccX9Bf8z.s 			page 73


 2086 002a F11D     		add	r1, r6, #7
 2087 002c 0622     		mov	r2, #6
 2088 002e 06A8     		add	r0, sp, #24
 2089              	.LVL257:
 2090 0030 FFF7FEFF 		bl	memcpy
 2091              	.LVL258:
 724:Code\UserApp\Protocol/CmdProtocol.c **** 	wait_timeout = 20000;
 2092              		.loc 1 724 0
 2093 0034 0D20     		mov	r0, #13
 2094 0036 FFF7FEFF 		bl	VoicePlay
 2095              	.LVL259:
 725:Code\UserApp\Protocol/CmdProtocol.c **** 	ret = RET_ERR;
 2096              		.loc 1 725 0
 2097 003a 264F     		ldr	r7, .L99
 2098 003c 264B     		ldr	r3, .L99+4
 2099 003e 3B60     		str	r3, [r7]
 2100              	.LVL260:
 2101              	.L87:
 728:Code\UserApp\Protocol/CmdProtocol.c **** 	{
 2102              		.loc 1 728 0
 2103 0040 3B68     		ldr	r3, [r7]
 2104 0042 002B     		cmp	r3, #0
 2105 0044 16D0     		beq	.L90
 730:Code\UserApp\Protocol/CmdProtocol.c **** 		// æ»¤é™¤ä¸å‡†ç¡®çš„å¡ID
 2106              		.loc 1 730 0
 2107 0046 201C     		mov	r0, r4
 2108 0048 0821     		mov	r1, #8
 2109 004a FFF7FEFF 		bl	detect_nfc_card
 2110              	.LVL261:
 732:Code\UserApp\Protocol/CmdProtocol.c **** 		{
 2111              		.loc 1 732 0
 2112 004e 2278     		ldrb	r2, [r4]
 730:Code\UserApp\Protocol/CmdProtocol.c **** 		// æ»¤é™¤ä¸å‡†ç¡®çš„å¡ID
 2113              		.loc 1 730 0
 2114 0050 051C     		mov	r5, r0
 2115              	.LVL262:
 2116 0052 031C     		mov	r3, r0
 732:Code\UserApp\Protocol/CmdProtocol.c **** 		{
 2117              		.loc 1 732 0
 2118 0054 002A     		cmp	r2, #0
 2119 0056 08D1     		bne	.L88
 732:Code\UserApp\Protocol/CmdProtocol.c **** 		{
 2120              		.loc 1 732 0 is_stmt 0 discriminator 1
 2121 0058 6278     		ldrb	r2, [r4, #1]
 2122 005a 002A     		cmp	r2, #0
 2123 005c 05D1     		bne	.L88
 732:Code\UserApp\Protocol/CmdProtocol.c **** 		{
 2124              		.loc 1 732 0 discriminator 2
 2125 005e A278     		ldrb	r2, [r4, #2]
 2126 0060 002A     		cmp	r2, #0
 2127 0062 02D1     		bne	.L88
 732:Code\UserApp\Protocol/CmdProtocol.c **** 		{
 2128              		.loc 1 732 0 discriminator 3
 2129 0064 E278     		ldrb	r2, [r4, #3]
 2130 0066 002A     		cmp	r2, #0
 2131 0068 EAD0     		beq	.L87
 2132              	.L88:
ARM GAS  C:\Users\Administrator\AppData\Local\Temp\ccX9Bf8z.s 			page 74


 736:Code\UserApp\Protocol/CmdProtocol.c **** 		{
 2133              		.loc 1 736 0 is_stmt 1
 2134 006a 012B     		cmp	r3, #1
 2135 006c E8D1     		bne	.L87
 738:Code\UserApp\Protocol/CmdProtocol.c **** 			break;
 2136              		.loc 1 738 0
 2137 006e 0E20     		mov	r0, #14
 2138 0070 FFF7FEFF 		bl	VoicePlay
 2139              	.LVL263:
 2140              	.L90:
 742:Code\UserApp\Protocol/CmdProtocol.c **** 	{	
 2141              		.loc 1 742 0
 2142 0074 3B68     		ldr	r3, [r7]
 2143 0076 002B     		cmp	r3, #0
 2144 0078 09D1     		bne	.L92
 744:Code\UserApp\Protocol/CmdProtocol.c **** 		pUID[7] = 0x03;
 2145              		.loc 1 744 0
 2146 007a 201C     		mov	r0, r4
 2147 007c FF21     		mov	r1, #255
 2148 007e 0722     		mov	r2, #7
 2149 0080 FFF7FEFF 		bl	memset
 2150              	.LVL264:
 745:Code\UserApp\Protocol/CmdProtocol.c **** 		VoicePlay((uint8)Sound_TIMEOUT);
 2151              		.loc 1 745 0
 2152 0084 0323     		mov	r3, #3
 746:Code\UserApp\Protocol/CmdProtocol.c **** 	}
 2153              		.loc 1 746 0
 2154 0086 1220     		mov	r0, #18
 745:Code\UserApp\Protocol/CmdProtocol.c **** 		VoicePlay((uint8)Sound_TIMEOUT);
 2155              		.loc 1 745 0
 2156 0088 E371     		strb	r3, [r4, #7]
 746:Code\UserApp\Protocol/CmdProtocol.c **** 	}
 2157              		.loc 1 746 0
 2158 008a FFF7FEFF 		bl	VoicePlay
 2159              	.LVL265:
 2160              	.L92:
 751:Code\UserApp\Protocol/CmdProtocol.c **** 	
 2161              		.loc 1 751 0
 2162 008e 201C     		mov	r0, r4
 2163 0090 FFF7FEFF 		bl	Endpoint_exchange
 2164              	.LVL266:
 753:Code\UserApp\Protocol/CmdProtocol.c **** 	pT += 8;
 2165              		.loc 1 753 0
 2166 0094 1620     		mov	r0, #22
 2167 0096 02AB     		add	r3, sp, #8
 2168              	.LVL267:
 2169 0098 C018     		add	r0, r0, r3
 2170 009a 211C     		mov	r1, r4
 2171 009c 0822     		mov	r2, #8
 2172 009e FFF7FEFF 		bl	memcpy
 2173              	.LVL268:
 756:Code\UserApp\Protocol/CmdProtocol.c **** 	pT += 4;
 2174              		.loc 1 756 0
 2175 00a2 1E20     		mov	r0, #30
 2176 00a4 0399     		ldr	r1, [sp, #12]
 2177 00a6 02AB     		add	r3, sp, #8
 2178              	.LVL269:
ARM GAS  C:\Users\Administrator\AppData\Local\Temp\ccX9Bf8z.s 			page 75


 2179 00a8 0639     		sub	r1, r1, #6
 2180 00aa C018     		add	r0, r0, r3
 2181 00ac 7118     		add	r1, r6, r1
 2182 00ae 0422     		mov	r2, #4
 2183 00b0 FFF7FEFF 		bl	memcpy
 2184              	.LVL270:
 753:Code\UserApp\Protocol/CmdProtocol.c **** 	pT += 8;
 2185              		.loc 1 753 0
 2186 00b4 06AF     		add	r7, sp, #24
 761:Code\UserApp\Protocol/CmdProtocol.c **** 	}
 2187              		.loc 1 761 0
 2188 00b6 0F23     		mov	r3, #15
 759:Code\UserApp\Protocol/CmdProtocol.c **** 	{
 2189              		.loc 1 759 0
 2190 00b8 002D     		cmp	r5, #0
 2191 00ba 00D0     		beq	.L98
 765:Code\UserApp\Protocol/CmdProtocol.c **** 	}
 2192              		.loc 1 765 0
 2193 00bc 0123     		mov	r3, #1
 2194              	.L98:
 2195 00be BB74     		strb	r3, [r7, #18]
 768:Code\UserApp\Protocol/CmdProtocol.c **** 	
 2196              		.loc 1 768 0
 2197 00c0 1323     		mov	r3, #19
 2198 00c2 B279     		ldrb	r2, [r6, #6]
 2199 00c4 0093     		str	r3, [sp]
 2200 00c6 0298     		ldr	r0, [sp, #8]
 2201 00c8 0121     		mov	r1, #1
 2202 00ca 3B1C     		mov	r3, r7
 2203 00cc FFF7FEFF 		bl	Protocol_SendAckPacket
 2204              	.LVL271:
 771:Code\UserApp\Protocol/CmdProtocol.c **** 
 2205              		.loc 1 771 0
 2206 00d0 17B0     		add	sp, sp, #92
 2207              		@ sp needed
 2208              	.LVL272:
 2209              	.LVL273:
 2210 00d2 F0BD     		pop	{r4, r5, r6, r7, pc}
 2211              	.L100:
 2212              		.align	2
 2213              	.L99:
 2214 00d4 00000000 		.word	wait_timeout
 2215 00d8 204E0000 		.word	20000
 2216              		.cfi_endproc
 2217              	.LFE75:
 2218              		.size	Protocol_CmdReadUID, .-Protocol_CmdReadUID
 2219              		.section	.text.Protocol_CmdWriteUID,"ax",%progbits
 2220              		.align	1
 2221              		.code	16
 2222              		.thumb_func
 2223              		.type	Protocol_CmdWriteUID, %function
 2224              	Protocol_CmdWriteUID:
 2225              	.LFB76:
 782:Code\UserApp\Protocol/CmdProtocol.c **** 	uint8 DataBuf[64];
 2226              		.loc 1 782 0
 2227              		.cfi_startproc
 2228              	.LVL274:
ARM GAS  C:\Users\Administrator\AppData\Local\Temp\ccX9Bf8z.s 			page 76


 2229 0000 F0B5     		push	{r4, r5, r6, r7, lr}
 2230              		.cfi_def_cfa_offset 20
 2231              		.cfi_offset 4, -20
 2232              		.cfi_offset 5, -16
 2233              		.cfi_offset 6, -12
 2234              		.cfi_offset 7, -8
 2235              		.cfi_offset 14, -4
 2236 0002 041C     		mov	r4, r0
 791:Code\UserApp\Protocol/CmdProtocol.c ****     
 2237              		.loc 1 791 0
 2238 0004 C178     		ldrb	r1, [r0, #3]
 787:Code\UserApp\Protocol/CmdProtocol.c **** 	user_info_t user_info;
 2239              		.loc 1 787 0
 2240 0006 0379     		ldrb	r3, [r0, #4]
 2241 0008 0A1D     		add	r2, r1, #4
 791:Code\UserApp\Protocol/CmdProtocol.c ****     
 2242              		.loc 1 791 0
 2243 000a 8178     		ldrb	r1, [r0, #2]
 782:Code\UserApp\Protocol/CmdProtocol.c **** 	uint8 DataBuf[64];
 2244              		.loc 1 782 0
 2245 000c 9BB0     		sub	sp, sp, #108
 2246              		.cfi_def_cfa_offset 128
 2247              	.LVL275:
 787:Code\UserApp\Protocol/CmdProtocol.c **** 	user_info_t user_info;
 2248              		.loc 1 787 0
 2249 000e 0293     		str	r3, [sp, #8]
 2250              	.LVL276:
 791:Code\UserApp\Protocol/CmdProtocol.c ****     
 2251              		.loc 1 791 0
 2252 0010 0B02     		lsl	r3, r1, #8
 2253 0012 D118     		add	r1, r2, r3
 793:Code\UserApp\Protocol/CmdProtocol.c **** 	memcpy(pT, RecBuf + 7, 6);									// å–å‡ºMACåœ°å€ï¼Œç†è®ºåº”åŠ ä¸ŠMACæ ¡éªŒ		//
 2254              		.loc 1 793 0
 2255 0014 0AAE     		add	r6, sp, #40
 2256              	.LVL277:
 791:Code\UserApp\Protocol/CmdProtocol.c ****     
 2257              		.loc 1 791 0
 2258 0016 8BB2     		uxth	r3, r1
 793:Code\UserApp\Protocol/CmdProtocol.c **** 	memcpy(pT, RecBuf + 7, 6);									// å–å‡ºMACåœ°å€ï¼Œç†è®ºåº”åŠ ä¸ŠMACæ ¡éªŒ		//
 2259              		.loc 1 793 0
 2260 0018 4022     		mov	r2, #64
 2261 001a 0021     		mov	r1, #0
 2262 001c 301C     		mov	r0, r6
 2263              	.LVL278:
 791:Code\UserApp\Protocol/CmdProtocol.c ****     
 2264              		.loc 1 791 0
 2265 001e 0393     		str	r3, [sp, #12]
 2266              	.LVL279:
 797:Code\UserApp\Protocol/CmdProtocol.c **** 	memcpy(pUID, RecBuf + 13, 8);
 2267              		.loc 1 797 0
 2268 0020 271C     		mov	r7, r4
 793:Code\UserApp\Protocol/CmdProtocol.c **** 	memcpy(pT, RecBuf + 7, 6);									// å–å‡ºMACåœ°å€ï¼Œç†è®ºåº”åŠ ä¸ŠMACæ ¡éªŒ		//
 2269              		.loc 1 793 0
 2270 0022 FFF7FEFF 		bl	memset
 2271              	.LVL280:
 794:Code\UserApp\Protocol/CmdProtocol.c **** 	pT += 6;
 2272              		.loc 1 794 0
ARM GAS  C:\Users\Administrator\AppData\Local\Temp\ccX9Bf8z.s 			page 77


 2273 0026 E11D     		add	r1, r4, #7
 2274 0028 0622     		mov	r2, #6
 2275 002a 301C     		mov	r0, r6
 2276 002c FFF7FEFF 		bl	memcpy
 2277              	.LVL281:
 797:Code\UserApp\Protocol/CmdProtocol.c **** 	memcpy(pUID, RecBuf + 13, 8);
 2278              		.loc 1 797 0
 2279 0030 2620     		mov	r0, #38
 2280 0032 02AB     		add	r3, sp, #8
 2281              	.LVL282:
 2282 0034 0D37     		add	r7, r7, #13
 2283 0036 C018     		add	r0, r0, r3
 2284 0038 391C     		mov	r1, r7
 798:Code\UserApp\Protocol/CmdProtocol.c **** 	pT += 8;
 2285              		.loc 1 798 0
 2286 003a 05AD     		add	r5, sp, #20
 797:Code\UserApp\Protocol/CmdProtocol.c **** 	memcpy(pUID, RecBuf + 13, 8);
 2287              		.loc 1 797 0
 2288 003c 0822     		mov	r2, #8
 2289 003e FFF7FEFF 		bl	memcpy
 2290              	.LVL283:
 798:Code\UserApp\Protocol/CmdProtocol.c **** 	pT += 8;
 2291              		.loc 1 798 0
 2292 0042 391C     		mov	r1, r7
 2293 0044 281C     		mov	r0, r5
 2294 0046 0822     		mov	r2, #8
 2295 0048 FFF7FEFF 		bl	memcpy
 2296              	.LVL284:
 801:Code\UserApp\Protocol/CmdProtocol.c **** 	memcpy(pTime, RecBuf + 21, 4);	
 2297              		.loc 1 801 0
 2298 004c 2E20     		mov	r0, #46
 2299 004e 02AB     		add	r3, sp, #8
 2300              	.LVL285:
 2301 0050 0837     		add	r7, r7, #8
 2302 0052 C018     		add	r0, r0, r3
 2303 0054 391C     		mov	r1, r7
 2304 0056 0422     		mov	r2, #4
 2305 0058 FFF7FEFF 		bl	memcpy
 2306              	.LVL286:
 802:Code\UserApp\Protocol/CmdProtocol.c **** 	pT += 4;
 2307              		.loc 1 802 0
 2308 005c 391C     		mov	r1, r7
 2309 005e 0422     		mov	r2, #4
 2310 0060 04A8     		add	r0, sp, #16
 2311 0062 FFF7FEFF 		bl	memcpy
 2312              	.LVL287:
 804:Code\UserApp\Protocol/CmdProtocol.c **** 	pT += 4;
 2313              		.loc 1 804 0
 2314 0066 3220     		mov	r0, #50
 2315 0068 039B     		ldr	r3, [sp, #12]
 2316 006a 0422     		mov	r2, #4
 2317 006c 991F     		sub	r1, r3, #6
 2318 006e 02AB     		add	r3, sp, #8
 2319              	.LVL288:
 2320 0070 6118     		add	r1, r4, r1
 2321 0072 C018     		add	r0, r0, r3
 2322 0074 FFF7FEFF 		bl	memcpy
ARM GAS  C:\Users\Administrator\AppData\Local\Temp\ccX9Bf8z.s 			page 78


 2323              	.LVL289:
 808:Code\UserApp\Protocol/CmdProtocol.c **** 	
 2324              		.loc 1 808 0
 2325 0078 281C     		mov	r0, r5
 2326 007a FFF7FEFF 		bl	Endpoint_exchange
 2327              	.LVL290:
 810:Code\UserApp\Protocol/CmdProtocol.c **** 	memcpy(user_info.valid_time, pTime, 4);
 2328              		.loc 1 810 0
 2329 007e 07A8     		add	r0, sp, #28
 2330 0080 031C     		mov	r3, r0
 2331 0082 06CD     		ldmia	r5!, {r1, r2}
 2332 0084 06C3     		stmia	r3!, {r1, r2}
 811:Code\UserApp\Protocol/CmdProtocol.c **** 	if (TRUE == UserData_Add_User(&user_info))
 2333              		.loc 1 811 0
 2334 0086 049B     		ldr	r3, [sp, #16]
 2335 0088 8360     		str	r3, [r0, #8]
 812:Code\UserApp\Protocol/CmdProtocol.c **** 	{
 2336              		.loc 1 812 0
 2337 008a FFF7FEFF 		bl	UserData_Add_User
 2338              	.LVL291:
 2339 008e 051E     		sub	r5, r0, #0
 2340 0090 012D     		cmp	r5, #1
 2341 0092 04D1     		bne	.L102
 814:Code\UserApp\Protocol/CmdProtocol.c **** 		*pT = RT_SUCC;
 2342              		.loc 1 814 0
 2343 0094 0420     		mov	r0, #4
 2344 0096 FFF7FEFF 		bl	VoicePlay
 2345              	.LVL292:
 815:Code\UserApp\Protocol/CmdProtocol.c **** 	}
 2346              		.loc 1 815 0
 2347 009a B575     		strb	r5, [r6, #22]
 2348 009c 04E0     		b	.L103
 2349              	.L102:
 819:Code\UserApp\Protocol/CmdProtocol.c **** 		*pT = RT_FAIL;
 2350              		.loc 1 819 0
 2351 009e 0520     		mov	r0, #5
 2352 00a0 FFF7FEFF 		bl	VoicePlay
 2353              	.LVL293:
 820:Code\UserApp\Protocol/CmdProtocol.c **** 	}
 2354              		.loc 1 820 0
 2355 00a4 0223     		mov	r3, #2
 2356 00a6 B375     		strb	r3, [r6, #22]
 2357              	.L103:
 824:Code\UserApp\Protocol/CmdProtocol.c **** 	
 2358              		.loc 1 824 0
 2359 00a8 1723     		mov	r3, #23
 2360 00aa A279     		ldrb	r2, [r4, #6]
 2361 00ac 0093     		str	r3, [sp]
 2362 00ae 0298     		ldr	r0, [sp, #8]
 2363 00b0 0121     		mov	r1, #1
 2364 00b2 331C     		mov	r3, r6
 2365 00b4 FFF7FEFF 		bl	Protocol_SendAckPacket
 2366              	.LVL294:
 831:Code\UserApp\Protocol/CmdProtocol.c **** 
 2367              		.loc 1 831 0
 2368 00b8 1BB0     		add	sp, sp, #108
 2369              		@ sp needed
ARM GAS  C:\Users\Administrator\AppData\Local\Temp\ccX9Bf8z.s 			page 79


 2370              	.LVL295:
 2371              	.LVL296:
 2372 00ba F0BD     		pop	{r4, r5, r6, r7, pc}
 2373              		.cfi_endproc
 2374              	.LFE76:
 2375              		.size	Protocol_CmdWriteUID, .-Protocol_CmdWriteUID
 2376              		.section	.text.Protocol_CmdDelUID,"ax",%progbits
 2377              		.align	1
 2378              		.code	16
 2379              		.thumb_func
 2380              		.type	Protocol_CmdDelUID, %function
 2381              	Protocol_CmdDelUID:
 2382              	.LFB77:
 842:Code\UserApp\Protocol/CmdProtocol.c **** 	uint8 ret = 0;
 2383              		.loc 1 842 0
 2384              		.cfi_startproc
 2385              	.LVL297:
 2386 0000 F0B5     		push	{r4, r5, r6, r7, lr}
 2387              		.cfi_def_cfa_offset 20
 2388              		.cfi_offset 4, -20
 2389              		.cfi_offset 5, -16
 2390              		.cfi_offset 6, -12
 2391              		.cfi_offset 7, -8
 2392              		.cfi_offset 14, -4
 2393 0002 041C     		mov	r4, r0
 850:Code\UserApp\Protocol/CmdProtocol.c **** 	 
 2394              		.loc 1 850 0
 2395 0004 C178     		ldrb	r1, [r0, #3]
 842:Code\UserApp\Protocol/CmdProtocol.c **** 	uint8 ret = 0;
 2396              		.loc 1 842 0
 2397 0006 97B0     		sub	sp, sp, #92
 2398              		.cfi_def_cfa_offset 112
 2399              	.LVL298:
 2400 0008 0A1D     		add	r2, r1, #4
 850:Code\UserApp\Protocol/CmdProtocol.c **** 	 
 2401              		.loc 1 850 0
 2402 000a 8178     		ldrb	r1, [r0, #2]
 852:Code\UserApp\Protocol/CmdProtocol.c **** 	memcpy(pT, RecBuf + 7, 6);									// å–å‡ºMACåœ°å€ï¼Œç†è®ºåº”åŠ ä¸ŠMACæ ¡éªŒ		//
 2403              		.loc 1 852 0
 2404 000c 06AD     		add	r5, sp, #24
 2405              	.LVL299:
 850:Code\UserApp\Protocol/CmdProtocol.c **** 	 
 2406              		.loc 1 850 0
 2407 000e 0B02     		lsl	r3, r1, #8
 2408 0010 D118     		add	r1, r2, r3
 2409 0012 8BB2     		uxth	r3, r1
 847:Code\UserApp\Protocol/CmdProtocol.c **** 	uint16 nCmdPackLen;
 2410              		.loc 1 847 0
 2411 0014 0779     		ldrb	r7, [r0, #4]
 2412              	.LVL300:
 852:Code\UserApp\Protocol/CmdProtocol.c **** 	memcpy(pT, RecBuf + 7, 6);									// å–å‡ºMACåœ°å€ï¼Œç†è®ºåº”åŠ ä¸ŠMACæ ¡éªŒ		//
 2413              		.loc 1 852 0
 2414 0016 0021     		mov	r1, #0
 2415 0018 4022     		mov	r2, #64
 2416 001a 281C     		mov	r0, r5
 2417              	.LVL301:
 850:Code\UserApp\Protocol/CmdProtocol.c **** 	 
ARM GAS  C:\Users\Administrator\AppData\Local\Temp\ccX9Bf8z.s 			page 80


 2418              		.loc 1 850 0
 2419 001c 0393     		str	r3, [sp, #12]
 2420              	.LVL302:
 856:Code\UserApp\Protocol/CmdProtocol.c **** 	memcpy(pUID, RecBuf + 13, 8);
 2421              		.loc 1 856 0
 2422 001e 261C     		mov	r6, r4
 852:Code\UserApp\Protocol/CmdProtocol.c **** 	memcpy(pT, RecBuf + 7, 6);									// å–å‡ºMACåœ°å€ï¼Œç†è®ºåº”åŠ ä¸ŠMACæ ¡éªŒ		//
 2423              		.loc 1 852 0
 2424 0020 FFF7FEFF 		bl	memset
 2425              	.LVL303:
 853:Code\UserApp\Protocol/CmdProtocol.c **** 	pT += 6;
 2426              		.loc 1 853 0
 2427 0024 E11D     		add	r1, r4, #7
 2428 0026 0622     		mov	r2, #6
 2429 0028 281C     		mov	r0, r5
 2430 002a FFF7FEFF 		bl	memcpy
 2431              	.LVL304:
 856:Code\UserApp\Protocol/CmdProtocol.c **** 	memcpy(pUID, RecBuf + 13, 8);
 2432              		.loc 1 856 0
 2433 002e 1620     		mov	r0, #22
 2434 0030 02AB     		add	r3, sp, #8
 2435 0032 0D36     		add	r6, r6, #13
 2436 0034 C018     		add	r0, r0, r3
 2437 0036 311C     		mov	r1, r6
 2438 0038 0822     		mov	r2, #8
 2439 003a FFF7FEFF 		bl	memcpy
 2440              	.LVL305:
 857:Code\UserApp\Protocol/CmdProtocol.c **** 	pT += 8;
 2441              		.loc 1 857 0
 2442 003e 311C     		mov	r1, r6
 2443 0040 0822     		mov	r2, #8
 2444 0042 04A8     		add	r0, sp, #16
 2445 0044 FFF7FEFF 		bl	memcpy
 2446              	.LVL306:
 860:Code\UserApp\Protocol/CmdProtocol.c **** 	pT += 4;
 2447              		.loc 1 860 0
 2448 0048 1E20     		mov	r0, #30
 2449 004a 039B     		ldr	r3, [sp, #12]
 2450 004c 0422     		mov	r2, #4
 2451 004e 991F     		sub	r1, r3, #6
 2452 0050 02AB     		add	r3, sp, #8
 2453 0052 6118     		add	r1, r4, r1
 2454 0054 C018     		add	r0, r0, r3
 2455 0056 FFF7FEFF 		bl	memcpy
 2456              	.LVL307:
 864:Code\UserApp\Protocol/CmdProtocol.c **** 	
 2457              		.loc 1 864 0
 2458 005a 04A8     		add	r0, sp, #16
 2459 005c FFF7FEFF 		bl	Endpoint_exchange
 2460              	.LVL308:
 866:Code\UserApp\Protocol/CmdProtocol.c **** 	if (TRUE == ret)
 2461              		.loc 1 866 0
 2462 0060 04A8     		add	r0, sp, #16
 2463 0062 FFF7FEFF 		bl	UserData_DEL_User
 2464              	.LVL309:
 2465 0066 061C     		mov	r6, r0
 2466              	.LVL310:
ARM GAS  C:\Users\Administrator\AppData\Local\Temp\ccX9Bf8z.s 			page 81


 869:Code\UserApp\Protocol/CmdProtocol.c **** 		*pT = RT_SUCC;
 2467              		.loc 1 869 0
 2468 0068 0620     		mov	r0, #6
 867:Code\UserApp\Protocol/CmdProtocol.c **** 	{
 2469              		.loc 1 867 0
 2470 006a 012E     		cmp	r6, #1
 2471 006c 02D0     		beq	.L108
 872:Code\UserApp\Protocol/CmdProtocol.c **** 	{
 2472              		.loc 1 872 0
 2473 006e 102E     		cmp	r6, #16
 2474 0070 04D1     		bne	.L107
 874:Code\UserApp\Protocol/CmdProtocol.c **** 		*pT = RT_Invalid_ERR;
 2475              		.loc 1 874 0
 2476 0072 0720     		mov	r0, #7
 2477              	.L108:
 2478 0074 FFF7FEFF 		bl	VoicePlay
 2479              	.LVL311:
 875:Code\UserApp\Protocol/CmdProtocol.c **** 	}
 2480              		.loc 1 875 0
 2481 0078 AE74     		strb	r6, [r5, #18]
 2482 007a 06E0     		b	.L106
 2483              	.L107:
 877:Code\UserApp\Protocol/CmdProtocol.c **** 	{
 2484              		.loc 1 877 0
 2485 007c 002E     		cmp	r6, #0
 2486 007e 04D1     		bne	.L106
 879:Code\UserApp\Protocol/CmdProtocol.c **** 		*pT = RT_FAIL;
 2487              		.loc 1 879 0
 2488 0080 0720     		mov	r0, #7
 2489 0082 FFF7FEFF 		bl	VoicePlay
 2490              	.LVL312:
 880:Code\UserApp\Protocol/CmdProtocol.c **** 	}
 2491              		.loc 1 880 0
 2492 0086 0223     		mov	r3, #2
 2493 0088 AB74     		strb	r3, [r5, #18]
 2494              	.L106:
 886:Code\UserApp\Protocol/CmdProtocol.c **** 	
 2495              		.loc 1 886 0
 2496 008a 1323     		mov	r3, #19
 2497 008c A279     		ldrb	r2, [r4, #6]
 2498 008e 0093     		str	r3, [sp]
 2499 0090 381C     		mov	r0, r7
 2500 0092 0121     		mov	r1, #1
 2501 0094 2B1C     		mov	r3, r5
 2502 0096 FFF7FEFF 		bl	Protocol_SendAckPacket
 2503              	.LVL313:
 893:Code\UserApp\Protocol/CmdProtocol.c **** 
 2504              		.loc 1 893 0
 2505 009a 17B0     		add	sp, sp, #92
 2506              		@ sp needed
 2507              	.LVL314:
 2508              	.LVL315:
 2509              	.LVL316:
 2510 009c F0BD     		pop	{r4, r5, r6, r7, pc}
 2511              		.cfi_endproc
 2512              	.LFE77:
 2513              		.size	Protocol_CmdDelUID, .-Protocol_CmdDelUID
ARM GAS  C:\Users\Administrator\AppData\Local\Temp\ccX9Bf8z.s 			page 82


 2514              		.section	.text.Protocol_CmdOpenDoor,"ax",%progbits
 2515              		.align	1
 2516              		.code	16
 2517              		.thumb_func
 2518              		.type	Protocol_CmdOpenDoor, %function
 2519              	Protocol_CmdOpenDoor:
 2520              	.LFB78:
 904:Code\UserApp\Protocol/CmdProtocol.c **** 	uint8 ret = 0;
 2521              		.loc 1 904 0
 2522              		.cfi_startproc
 2523              	.LVL317:
 2524 0000 F0B5     		push	{r4, r5, r6, r7, lr}
 2525              		.cfi_def_cfa_offset 20
 2526              		.cfi_offset 4, -20
 2527              		.cfi_offset 5, -16
 2528              		.cfi_offset 6, -12
 2529              		.cfi_offset 7, -8
 2530              		.cfi_offset 14, -4
 918:Code\UserApp\Protocol/CmdProtocol.c **** 	
 2531              		.loc 1 918 0
 2532 0002 C478     		ldrb	r4, [r0, #3]
 913:Code\UserApp\Protocol/CmdProtocol.c **** 	uint16 nCmdPackLen;
 2533              		.loc 1 913 0
 2534 0004 0379     		ldrb	r3, [r0, #4]
 2535 0006 221D     		add	r2, r4, #4
 918:Code\UserApp\Protocol/CmdProtocol.c **** 	
 2536              		.loc 1 918 0
 2537 0008 8478     		ldrb	r4, [r0, #2]
 904:Code\UserApp\Protocol/CmdProtocol.c **** 	uint8 ret = 0;
 2538              		.loc 1 904 0
 2539 000a D1B0     		sub	sp, sp, #324
 2540              		.cfi_def_cfa_offset 344
 2541              	.LVL318:
 913:Code\UserApp\Protocol/CmdProtocol.c **** 	uint16 nCmdPackLen;
 2542              		.loc 1 913 0
 2543 000c 0393     		str	r3, [sp, #12]
 2544              	.LVL319:
 920:Code\UserApp\Protocol/CmdProtocol.c ****     memset(pT, 0, sizeof(DataBuf));
 2545              		.loc 1 920 0
 2546 000e 0CAE     		add	r6, sp, #48
 918:Code\UserApp\Protocol/CmdProtocol.c **** 	
 2547              		.loc 1 918 0
 2548 0010 2302     		lsl	r3, r4, #8
 2549 0012 D418     		add	r4, r2, r3
 904:Code\UserApp\Protocol/CmdProtocol.c **** 	uint8 ret = 0;
 2550              		.loc 1 904 0
 2551 0014 051C     		mov	r5, r0
 920:Code\UserApp\Protocol/CmdProtocol.c ****     memset(pT, 0, sizeof(DataBuf));
 2552              		.loc 1 920 0
 2553 0016 0021     		mov	r1, #0
 2554 0018 1022     		mov	r2, #16
 2555 001a 301C     		mov	r0, r6
 2556              	.LVL320:
 2557 001c FFF7FEFF 		bl	memset
 2558              	.LVL321:
 921:Code\UserApp\Protocol/CmdProtocol.c ****     
 2559              		.loc 1 921 0
ARM GAS  C:\Users\Administrator\AppData\Local\Temp\ccX9Bf8z.s 			page 83


 2560 0020 8022     		mov	r2, #128
 923:Code\UserApp\Protocol/CmdProtocol.c ****     memcpy(pMAC, RecBuf + 7, 6);
 2561              		.loc 1 923 0
 2562 0022 EF1D     		add	r7, r5, #7
 921:Code\UserApp\Protocol/CmdProtocol.c ****     
 2563              		.loc 1 921 0
 2564 0024 0021     		mov	r1, #0
 2565 0026 5200     		lsl	r2, r2, #1
 2566 0028 10A8     		add	r0, sp, #64
 2567              	.LVL322:
 2568 002a FFF7FEFF 		bl	memset
 2569              	.LVL323:
 923:Code\UserApp\Protocol/CmdProtocol.c ****     memcpy(pMAC, RecBuf + 7, 6);
 2570              		.loc 1 923 0
 2571 002e 391C     		mov	r1, r7
 2572 0030 0622     		mov	r2, #6
 2573 0032 10A8     		add	r0, sp, #64
 2574              	.LVL324:
 2575 0034 FFF7FEFF 		bl	memcpy
 2576              	.LVL325:
 924:Code\UserApp\Protocol/CmdProtocol.c **** 	pT += 6;
 2577              		.loc 1 924 0
 2578 0038 391C     		mov	r1, r7
 2579 003a 0622     		mov	r2, #6
 2580 003c 05A8     		add	r0, sp, #20
 2581 003e FFF7FEFF 		bl	memcpy
 2582              	.LVL326:
 927:Code\UserApp\Protocol/CmdProtocol.c **** 	memcpy(pUID, RecBuf + 13,8);
 2583              		.loc 1 927 0
 2584 0042 3E20     		mov	r0, #62
 2585 0044 02AB     		add	r3, sp, #8
 2586 0046 0637     		add	r7, r7, #6
 2587 0048 C018     		add	r0, r0, r3
 2588 004a 391C     		mov	r1, r7
 2589 004c 0822     		mov	r2, #8
 2590 004e FFF7FEFF 		bl	memcpy
 2591              	.LVL327:
 928:Code\UserApp\Protocol/CmdProtocol.c ****     pT += 8;
 2592              		.loc 1 928 0
 2593 0052 391C     		mov	r1, r7
 2594 0054 0822     		mov	r2, #8
 2595 0056 07A8     		add	r0, sp, #28
 2596 0058 FFF7FEFF 		bl	memcpy
 2597              	.LVL328:
 931:Code\UserApp\Protocol/CmdProtocol.c **** 	OpenType = *(RecBuf + 13 + 8);
 2598              		.loc 1 931 0
 2599 005c 4622     		mov	r2, #70
 2600 005e 6B7D     		ldrb	r3, [r5, #21]
 935:Code\UserApp\Protocol/CmdProtocol.c ****     memcpy(pTime, RecBuf + nCmdPackLen - 6, 4);
 2601              		.loc 1 935 0
 2602 0060 4720     		mov	r0, #71
 931:Code\UserApp\Protocol/CmdProtocol.c **** 	OpenType = *(RecBuf + 13 + 8);
 2603              		.loc 1 931 0
 2604 0062 0293     		str	r3, [sp, #8]
 2605 0064 02AB     		add	r3, sp, #8
 2606 0066 9B18     		add	r3, r3, r2
 2607 0068 6A46     		mov	r2, sp
ARM GAS  C:\Users\Administrator\AppData\Local\Temp\ccX9Bf8z.s 			page 84


 918:Code\UserApp\Protocol/CmdProtocol.c **** 	
 2608              		.loc 1 918 0
 2609 006a A4B2     		uxth	r4, r4
 2610              	.LVL329:
 931:Code\UserApp\Protocol/CmdProtocol.c **** 	OpenType = *(RecBuf + 13 + 8);
 2611              		.loc 1 931 0
 2612 006c 127A     		ldrb	r2, [r2, #8]
 935:Code\UserApp\Protocol/CmdProtocol.c ****     memcpy(pTime, RecBuf + nCmdPackLen - 6, 4);
 2613              		.loc 1 935 0
 2614 006e 063C     		sub	r4, r4, #6
 2615              	.LVL330:
 931:Code\UserApp\Protocol/CmdProtocol.c **** 	OpenType = *(RecBuf + 13 + 8);
 2616              		.loc 1 931 0
 2617 0070 1A70     		strb	r2, [r3]
 2618              	.LVL331:
 935:Code\UserApp\Protocol/CmdProtocol.c ****     memcpy(pTime, RecBuf + nCmdPackLen - 6, 4);
 2619              		.loc 1 935 0
 2620 0072 2C19     		add	r4, r5, r4
 2621              	.LVL332:
 2622 0074 02AB     		add	r3, sp, #8
 2623              	.LVL333:
 2624 0076 C018     		add	r0, r0, r3
 2625 0078 211C     		mov	r1, r4
 2626 007a 0422     		mov	r2, #4
 2627 007c FFF7FEFF 		bl	memcpy
 2628              	.LVL334:
 936:Code\UserApp\Protocol/CmdProtocol.c **** 	pT += 4;
 2629              		.loc 1 936 0
 2630 0080 211C     		mov	r1, r4
 2631 0082 0422     		mov	r2, #4
 2632 0084 04A8     		add	r0, sp, #16
 2633 0086 FFF7FEFF 		bl	memcpy
 2634              	.LVL335:
 942:Code\UserApp\Protocol/CmdProtocol.c **** 	memcpy(user_info.valid_time, pTime, 4);
 2635              		.loc 1 942 0
 2636 008a 09AF     		add	r7, sp, #36
 940:Code\UserApp\Protocol/CmdProtocol.c **** 	
 2637              		.loc 1 940 0
 2638 008c 07A8     		add	r0, sp, #28
 2639 008e FFF7FEFF 		bl	Endpoint_exchange
 2640              	.LVL336:
 942:Code\UserApp\Protocol/CmdProtocol.c **** 	memcpy(user_info.valid_time, pTime, 4);
 2641              		.loc 1 942 0
 2642 0092 3B1C     		mov	r3, r7
 2643 0094 07AA     		add	r2, sp, #28
 2644 0096 03CA     		ldmia	r2!, {r0, r1}
 2645 0098 03C3     		stmia	r3!, {r0, r1}
 943:Code\UserApp\Protocol/CmdProtocol.c **** 	
 2646              		.loc 1 943 0
 2647 009a 049B     		ldr	r3, [sp, #16]
 945:Code\UserApp\Protocol/CmdProtocol.c **** 	{
 2648              		.loc 1 945 0
 2649 009c 3048     		ldr	r0, .L118
 2650 009e 05A9     		add	r1, sp, #20
 2651 00a0 0622     		mov	r2, #6
 943:Code\UserApp\Protocol/CmdProtocol.c **** 	
 2652              		.loc 1 943 0
ARM GAS  C:\Users\Administrator\AppData\Local\Temp\ccX9Bf8z.s 			page 85


 2653 00a2 0B93     		str	r3, [sp, #44]
 945:Code\UserApp\Protocol/CmdProtocol.c **** 	{
 2654              		.loc 1 945 0
 2655 00a4 FFF7FEFF 		bl	memcmp
 2656              	.LVL337:
 947:Code\UserApp\Protocol/CmdProtocol.c **** 	}
 2657              		.loc 1 947 0
 2658 00a8 0224     		mov	r4, #2
 945:Code\UserApp\Protocol/CmdProtocol.c **** 	{
 2659              		.loc 1 945 0
 2660 00aa 0028     		cmp	r0, #0
 2661 00ac 08D1     		bne	.L110
 952:Code\UserApp\Protocol/CmdProtocol.c **** 		if (RT_UID_ERR == ret)
 2662              		.loc 1 952 0
 2663 00ae 381C     		mov	r0, r7
 2664 00b0 FFF7FEFF 		bl	UserData_Judge_If_Open
 2665              	.LVL338:
 955:Code\UserApp\Protocol/CmdProtocol.c **** 		}
 2666              		.loc 1 955 0
 2667 00b4 041E     		sub	r4, r0, #0
 953:Code\UserApp\Protocol/CmdProtocol.c **** 		{
 2668              		.loc 1 953 0
 2669 00b6 062C     		cmp	r4, #6
 2670 00b8 02D0     		beq	.L110
 957:Code\UserApp\Protocol/CmdProtocol.c **** 		{
 2671              		.loc 1 957 0
 2672 00ba 0828     		cmp	r0, #8
 2673 00bc 00D0     		beq	.L110
 906:Code\UserApp\Protocol/CmdProtocol.c **** 	uint8 DataBuf[256];
 2674              		.loc 1 906 0
 2675 00be 0124     		mov	r4, #1
 2676              	.LVL339:
 2677              	.L110:
 966:Code\UserApp\Protocol/CmdProtocol.c **** 	//===ã€ç»“æŸã€‘=== è®¾å¤‡å±‚çš„å¤„ç† ==========================================================
 2678              		.loc 1 966 0
 2679 00c0 4B22     		mov	r2, #75
 2680 00c2 02AB     		add	r3, sp, #8
 2681              	.LVL340:
 2682 00c4 9B18     		add	r3, r3, r2
 2683              	.LVL341:
 2684 00c6 1C70     		strb	r4, [r3]
 969:Code\UserApp\Protocol/CmdProtocol.c **** 		
 2685              		.loc 1 969 0
 2686 00c8 1423     		mov	r3, #20
 2687              	.LVL342:
 2688 00ca AA79     		ldrb	r2, [r5, #6]
 2689 00cc 0093     		str	r3, [sp]
 2690 00ce 0398     		ldr	r0, [sp, #12]
 2691 00d0 0121     		mov	r1, #1
 2692 00d2 10AB     		add	r3, sp, #64
 2693 00d4 FFF7FEFF 		bl	Protocol_SendAckPacket
 2694              	.LVL343:
 971:Code\UserApp\Protocol/CmdProtocol.c **** 	{
 2695              		.loc 1 971 0
 2696 00d8 012C     		cmp	r4, #1
 2697 00da 31D1     		bne	.L111
 2698              	.LVL344:
ARM GAS  C:\Users\Administrator\AppData\Local\Temp\ccX9Bf8z.s 			page 86


 974:Code\UserApp\Protocol/CmdProtocol.c **** 		VoicePlay((uint8)Sound_VERIFY_SUCCESS);
 2699              		.loc 1 974 0
 2700 00dc FFF7FEFF 		bl	Led_GreenON
 2701              	.LVL345:
 975:Code\UserApp\Protocol/CmdProtocol.c ****         DoorOpen();
 2702              		.loc 1 975 0
 2703 00e0 0A20     		mov	r0, #10
 2704 00e2 FFF7FEFF 		bl	VoicePlay
 2705              	.LVL346:
 976:Code\UserApp\Protocol/CmdProtocol.c **** 		delay_with_ble(2000);
 2706              		.loc 1 976 0
 2707 00e6 FFF7FEFF 		bl	DoorOpen
 2708              	.LVL347:
 977:Code\UserApp\Protocol/CmdProtocol.c **** 		DoorClose();
 2709              		.loc 1 977 0
 2710 00ea FA20     		mov	r0, #250
 2711 00ec C000     		lsl	r0, r0, #3
 2712 00ee FFF7FEFF 		bl	delay_with_ble
 2713              	.LVL348:
 978:Code\UserApp\Protocol/CmdProtocol.c **** 		Led_SetState(LED_State);
 2714              		.loc 1 978 0
 2715 00f2 FFF7FEFF 		bl	DoorClose
 2716              	.LVL349:
 979:Code\UserApp\Protocol/CmdProtocol.c **** 		
 2717              		.loc 1 979 0
 2718 00f6 1B4B     		ldr	r3, .L118+4
 2719 00f8 1878     		ldrb	r0, [r3]
 2720 00fa FFF7FEFF 		bl	Led_SetState
 2721              	.LVL350:
 981:Code\UserApp\Protocol/CmdProtocol.c **** 		memcpy(openInfo.open_time, pTime, 4);
 2722              		.loc 1 981 0
 2723 00fe 331C     		mov	r3, r6
 2724 0100 07AA     		add	r2, sp, #28
 2725 0102 03CA     		ldmia	r2!, {r0, r1}
 2726 0104 03C3     		stmia	r3!, {r0, r1}
 982:Code\UserApp\Protocol/CmdProtocol.c **** 		memset(pTime, 0, 4);
 2727              		.loc 1 982 0
 2728 0106 049B     		ldr	r3, [sp, #16]
 985:Code\UserApp\Protocol/CmdProtocol.c **** 		//===ã€ç»“æŸã€‘=== è®¾å¤‡å±‚çš„å¤„ç† =========================================================
 2729              		.loc 1 985 0
 2730 0108 0CA8     		add	r0, sp, #48
 982:Code\UserApp\Protocol/CmdProtocol.c **** 		memset(pTime, 0, 4);
 2731              		.loc 1 982 0
 2732 010a B360     		str	r3, [r6, #8]
 983:Code\UserApp\Protocol/CmdProtocol.c **** 		memcpy(openInfo.send_time, pTime, 4);
 2733              		.loc 1 983 0
 2734 010c 0023     		mov	r3, #0
 985:Code\UserApp\Protocol/CmdProtocol.c **** 		//===ã€ç»“æŸã€‘=== è®¾å¤‡å±‚çš„å¤„ç† =========================================================
 2735              		.loc 1 985 0
 2736 010e 0299     		ldr	r1, [sp, #8]
 983:Code\UserApp\Protocol/CmdProtocol.c **** 		memcpy(openInfo.send_time, pTime, 4);
 2737              		.loc 1 983 0
 2738 0110 0493     		str	r3, [sp, #16]
 984:Code\UserApp\Protocol/CmdProtocol.c **** 		Write_OpenInfo(&openInfo, OpenType);
 2739              		.loc 1 984 0
 2740 0112 F360     		str	r3, [r6, #12]
 985:Code\UserApp\Protocol/CmdProtocol.c **** 		//===ã€ç»“æŸã€‘=== è®¾å¤‡å±‚çš„å¤„ç† =========================================================
ARM GAS  C:\Users\Administrator\AppData\Local\Temp\ccX9Bf8z.s 			page 87


 2741              		.loc 1 985 0
 2742 0114 FFF7FEFF 		bl	Write_OpenInfo
 2743              	.LVL351:
 994:Code\UserApp\Protocol/CmdProtocol.c **** 		{
 2744              		.loc 1 994 0
 2745 0118 134B     		ldr	r3, .L118+8
 2746 011a 1B78     		ldrb	r3, [r3]
 2747 011c 052B     		cmp	r3, #5
 2748 011e 1CD1     		bne	.L109
 996:Code\UserApp\Protocol/CmdProtocol.c **** 			if(cur_time > next_allupload_time)
 2749              		.loc 1 996 0
 2750 0120 FFF7FEFF 		bl	RTC_GetUnixTime
 2751              	.LVL352:
 2752 0124 114B     		ldr	r3, .L118+12
 2753 0126 1860     		str	r0, [r3]
 997:Code\UserApp\Protocol/CmdProtocol.c **** 			{
 2754              		.loc 1 997 0
 2755 0128 114B     		ldr	r3, .L118+16
 2756 012a 1A68     		ldr	r2, [r3]
 2757 012c 9042     		cmp	r0, r2
 2758 012e 14D9     		bls	.L109
 999:Code\UserApp\Protocol/CmdProtocol.c **** 				send_upload_open_info(&openInfo, CARD_UID_LEN, OpenType);
 2759              		.loc 1 999 0
 2760 0130 0F30     		add	r0, r0, #15
 2761 0132 1860     		str	r0, [r3]
1000:Code\UserApp\Protocol/CmdProtocol.c **** 			}
 2762              		.loc 1 1000 0
 2763 0134 0821     		mov	r1, #8
 2764 0136 0CA8     		add	r0, sp, #48
 2765 0138 029A     		ldr	r2, [sp, #8]
 2766 013a FFF7FEFF 		bl	send_upload_open_info
 2767              	.LVL353:
 2768 013e 0CE0     		b	.L109
 2769              	.LVL354:
 2770              	.L111:
1006:Code\UserApp\Protocol/CmdProtocol.c **** 		Led_RedON();
 2771              		.loc 1 1006 0
 2772 0140 0C4A     		ldr	r2, .L118+20
 2773 0142 1378     		ldrb	r3, [r2]
 2774 0144 0133     		add	r3, r3, #1
 2775 0146 1370     		strb	r3, [r2]
1007:Code\UserApp\Protocol/CmdProtocol.c **** 		VoicePlay(Sound_VERIFY_FAILURE);
 2776              		.loc 1 1007 0
 2777 0148 FFF7FEFF 		bl	Led_RedON
 2778              	.LVL355:
1008:Code\UserApp\Protocol/CmdProtocol.c **** 		delay_with_ble(800);
 2779              		.loc 1 1008 0
 2780 014c 0B20     		mov	r0, #11
 2781 014e FFF7FEFF 		bl	VoicePlay
 2782              	.LVL356:
1009:Code\UserApp\Protocol/CmdProtocol.c **** 	}
 2783              		.loc 1 1009 0
 2784 0152 C820     		mov	r0, #200
 2785 0154 8000     		lsl	r0, r0, #2
 2786 0156 FFF7FEFF 		bl	delay_with_ble
 2787              	.LVL357:
 2788              	.L109:
ARM GAS  C:\Users\Administrator\AppData\Local\Temp\ccX9Bf8z.s 			page 88


1013:Code\UserApp\Protocol/CmdProtocol.c **** 
 2789              		.loc 1 1013 0
 2790 015a 51B0     		add	sp, sp, #324
 2791              		@ sp needed
 2792              	.LVL358:
 2793 015c F0BD     		pop	{r4, r5, r6, r7, pc}
 2794              	.L119:
 2795 015e C046     		.align	2
 2796              	.L118:
 2797 0160 00000000 		.word	Mac_Addr
 2798 0164 00000000 		.word	LED_State
 2799 0168 00000000 		.word	gprs_state
 2800 016c 00000000 		.word	cur_time
 2801 0170 00000000 		.word	next_allupload_time
 2802 0174 00000000 		.word	Card_ErrCount
 2803              		.cfi_endproc
 2804              	.LFE78:
 2805              		.size	Protocol_CmdOpenDoor, .-Protocol_CmdOpenDoor
 2806              		.section	.text.Protocol_CmdClearUID,"ax",%progbits
 2807              		.align	1
 2808              		.code	16
 2809              		.thumb_func
 2810              		.type	Protocol_CmdClearUID, %function
 2811              	Protocol_CmdClearUID:
 2812              	.LFB81:
1096:Code\UserApp\Protocol/CmdProtocol.c **** 	uint8 RetCode = RT_SUCC;
 2813              		.loc 1 1096 0
 2814              		.cfi_startproc
 2815              	.LVL359:
 2816 0000 F0B5     		push	{r4, r5, r6, r7, lr}
 2817              		.cfi_def_cfa_offset 20
 2818              		.cfi_offset 4, -20
 2819              		.cfi_offset 5, -16
 2820              		.cfi_offset 6, -12
 2821              		.cfi_offset 7, -8
 2822              		.cfi_offset 14, -4
 2823 0002 061C     		mov	r6, r0
 2824 0004 93B0     		sub	sp, sp, #76
 2825              		.cfi_def_cfa_offset 96
 2826              	.LVL360:
1102:Code\UserApp\Protocol/CmdProtocol.c **** 	memcpy(pT, RecBuf + 7, 10);									// å–å‡ºMACåœ°å€å’Œæ—¶é—´æˆ³					//
 2827              		.loc 1 1102 0
 2828 0006 02AD     		add	r5, sp, #8
 2829              	.LVL361:
1100:Code\UserApp\Protocol/CmdProtocol.c **** 		 
 2830              		.loc 1 1100 0
 2831 0008 0779     		ldrb	r7, [r0, #4]
 2832              	.LVL362:
1102:Code\UserApp\Protocol/CmdProtocol.c **** 	memcpy(pT, RecBuf + 7, 10);									// å–å‡ºMACåœ°å€å’Œæ—¶é—´æˆ³					//
 2833              		.loc 1 1102 0
 2834 000a 0021     		mov	r1, #0
 2835 000c 4022     		mov	r2, #64
 2836 000e 281C     		mov	r0, r5
 2837              	.LVL363:
 2838 0010 FFF7FEFF 		bl	memset
 2839              	.LVL364:
1103:Code\UserApp\Protocol/CmdProtocol.c **** 	pT += 10;
ARM GAS  C:\Users\Administrator\AppData\Local\Temp\ccX9Bf8z.s 			page 89


 2840              		.loc 1 1103 0
 2841 0014 F11D     		add	r1, r6, #7
 2842 0016 0A22     		mov	r2, #10
 2843 0018 281C     		mov	r0, r5
 2844 001a FFF7FEFF 		bl	memcpy
 2845              	.LVL365:
1107:Code\UserApp\Protocol/CmdProtocol.c **** 	{
 2846              		.loc 1 1107 0
 2847 001e FFF7FEFF 		bl	UserData_CLR_User
 2848              	.LVL366:
 2849 0022 041E     		sub	r4, r0, #0
 2850 0024 012C     		cmp	r4, #1
 2851 0026 03D1     		bne	.L121
1110:Code\UserApp\Protocol/CmdProtocol.c **** 	}
 2852              		.loc 1 1110 0
 2853 0028 0820     		mov	r0, #8
 2854 002a FFF7FEFF 		bl	VoicePlay
 2855              	.LVL367:
 2856 002e 03E0     		b	.L122
 2857              	.L121:
 2858              	.LVL368:
1115:Code\UserApp\Protocol/CmdProtocol.c **** 	}
 2859              		.loc 1 1115 0
 2860 0030 0920     		mov	r0, #9
 2861 0032 FFF7FEFF 		bl	VoicePlay
 2862              	.LVL369:
1114:Code\UserApp\Protocol/CmdProtocol.c **** 		VoicePlay((uint8)Sound_EMPTY_FAILURE);
 2863              		.loc 1 1114 0
 2864 0036 0224     		mov	r4, #2
 2865              	.LVL370:
 2866              	.L122:
1120:Code\UserApp\Protocol/CmdProtocol.c **** 	
 2867              		.loc 1 1120 0
 2868 0038 0B23     		mov	r3, #11
1119:Code\UserApp\Protocol/CmdProtocol.c **** 	Protocol_SendAckPacket(comm_chanle, PACK_RESP, RecBuf[6], DataBuf, 11);
 2869              		.loc 1 1119 0
 2870 003a AC72     		strb	r4, [r5, #10]
1120:Code\UserApp\Protocol/CmdProtocol.c **** 	
 2871              		.loc 1 1120 0
 2872 003c B279     		ldrb	r2, [r6, #6]
 2873 003e 0093     		str	r3, [sp]
 2874 0040 381C     		mov	r0, r7
 2875 0042 0121     		mov	r1, #1
 2876 0044 2B1C     		mov	r3, r5
 2877 0046 FFF7FEFF 		bl	Protocol_SendAckPacket
 2878              	.LVL371:
1127:Code\UserApp\Protocol/CmdProtocol.c **** 
 2879              		.loc 1 1127 0
 2880 004a 13B0     		add	sp, sp, #76
 2881              		@ sp needed
 2882              	.LVL372:
 2883              	.LVL373:
 2884              	.LVL374:
 2885 004c F0BD     		pop	{r4, r5, r6, r7, pc}
 2886              		.cfi_endproc
 2887              	.LFE81:
 2888              		.size	Protocol_CmdClearUID, .-Protocol_CmdClearUID
ARM GAS  C:\Users\Administrator\AppData\Local\Temp\ccX9Bf8z.s 			page 90


 2889              		.section	.text.Protocol_CmdReadInfo,"ax",%progbits
 2890              		.align	1
 2891              		.code	16
 2892              		.thumb_func
 2893              		.type	Protocol_CmdReadInfo, %function
 2894              	Protocol_CmdReadInfo:
 2895              	.LFB84:
1185:Code\UserApp\Protocol/CmdProtocol.c **** 	uint8 i;
 2896              		.loc 1 1185 0
 2897              		.cfi_startproc
 2898              	.LVL375:
 2899 0000 F0B5     		push	{r4, r5, r6, r7, lr}
 2900              		.cfi_def_cfa_offset 20
 2901              		.cfi_offset 4, -20
 2902              		.cfi_offset 5, -16
 2903              		.cfi_offset 6, -12
 2904              		.cfi_offset 7, -8
 2905              		.cfi_offset 14, -4
1197:Code\UserApp\Protocol/CmdProtocol.c **** 	uint16 tUploadQty;											// å­˜æ”¾æœ¬æ¬¡å‘é€çš„é•¿åº¦					//
 2906              		.loc 1 1197 0
 2907 0002 C178     		ldrb	r1, [r0, #3]
1185:Code\UserApp\Protocol/CmdProtocol.c **** 	uint8 i;
 2908              		.loc 1 1185 0
 2909 0004 654C     		ldr	r4, .L137
1190:Code\UserApp\Protocol/CmdProtocol.c **** 	uint8 data_openinfo[256];
 2910              		.loc 1 1190 0
 2911 0006 0379     		ldrb	r3, [r0, #4]
 2912 0008 0A1D     		add	r2, r1, #4
1197:Code\UserApp\Protocol/CmdProtocol.c **** 	uint16 tUploadQty;											// å­˜æ”¾æœ¬æ¬¡å‘é€çš„é•¿åº¦					//
 2913              		.loc 1 1197 0
 2914 000a 8178     		ldrb	r1, [r0, #2]
1185:Code\UserApp\Protocol/CmdProtocol.c **** 	uint8 i;
 2915              		.loc 1 1185 0
 2916 000c A544     		add	sp, sp, r4
 2917              		.cfi_def_cfa_offset 576
 2918              	.LVL376:
1190:Code\UserApp\Protocol/CmdProtocol.c **** 	uint8 data_openinfo[256];
 2919              		.loc 1 1190 0
 2920 000e 0593     		str	r3, [sp, #20]
 2921              	.LVL377:
1197:Code\UserApp\Protocol/CmdProtocol.c **** 	uint16 tUploadQty;											// å­˜æ”¾æœ¬æ¬¡å‘é€çš„é•¿åº¦					//
 2922              		.loc 1 1197 0
 2923 0010 0B02     		lsl	r3, r1, #8
 2924 0012 D118     		add	r1, r2, r3
1201:Code\UserApp\Protocol/CmdProtocol.c **** 	cmd = RecBuf[6];
 2925              		.loc 1 1201 0
 2926 0014 8022     		mov	r2, #128
1185:Code\UserApp\Protocol/CmdProtocol.c **** 	uint8 i;
 2927              		.loc 1 1185 0
 2928 0016 041C     		mov	r4, r0
1201:Code\UserApp\Protocol/CmdProtocol.c **** 	cmd = RecBuf[6];
 2929              		.loc 1 1201 0
 2930 0018 0AAD     		add	r5, sp, #40
 2931              	.LVL378:
1197:Code\UserApp\Protocol/CmdProtocol.c **** 	uint16 tUploadQty;											// å­˜æ”¾æœ¬æ¬¡å‘é€çš„é•¿åº¦					//
 2932              		.loc 1 1197 0
 2933 001a 8BB2     		uxth	r3, r1
ARM GAS  C:\Users\Administrator\AppData\Local\Temp\ccX9Bf8z.s 			page 91


1201:Code\UserApp\Protocol/CmdProtocol.c **** 	cmd = RecBuf[6];
 2934              		.loc 1 1201 0
 2935 001c 5200     		lsl	r2, r2, #1
 2936 001e 0021     		mov	r1, #0
 2937 0020 281C     		mov	r0, r5
 2938              	.LVL379:
1197:Code\UserApp\Protocol/CmdProtocol.c **** 	uint16 tUploadQty;											// å­˜æ”¾æœ¬æ¬¡å‘é€çš„é•¿åº¦					//
 2939              		.loc 1 1197 0
 2940 0022 0693     		str	r3, [sp, #24]
 2941              	.LVL380:
1201:Code\UserApp\Protocol/CmdProtocol.c **** 	cmd = RecBuf[6];
 2942              		.loc 1 1201 0
 2943 0024 FFF7FEFF 		bl	memset
 2944              	.LVL381:
1202:Code\UserApp\Protocol/CmdProtocol.c **** 	memcpy(pT, RecBuf + 7, 6);								// å–å‡ºMACåœ°å€å’Œæ—¶é—´æˆ³					//
 2945              		.loc 1 1202 0
 2946 0028 A379     		ldrb	r3, [r4, #6]
1203:Code\UserApp\Protocol/CmdProtocol.c ****     pT += 6;
 2947              		.loc 1 1203 0
 2948 002a 0622     		mov	r2, #6
 2949 002c E11D     		add	r1, r4, #7
 2950 002e 281C     		mov	r0, r5
1202:Code\UserApp\Protocol/CmdProtocol.c **** 	memcpy(pT, RecBuf + 7, 6);								// å–å‡ºMACåœ°å€å’Œæ—¶é—´æˆ³					//
 2951              		.loc 1 1202 0
 2952 0030 0793     		str	r3, [sp, #28]
 2953              	.LVL382:
1203:Code\UserApp\Protocol/CmdProtocol.c ****     pT += 6;
 2954              		.loc 1 1203 0
 2955 0032 FFF7FEFF 		bl	memcpy
 2956              	.LVL383:
1207:Code\UserApp\Protocol/CmdProtocol.c **** 	
 2957              		.loc 1 1207 0
 2958 0036 637D     		ldrb	r3, [r4, #21]
 2959 0038 A27D     		ldrb	r2, [r4, #22]
 2960 003a 1B02     		lsl	r3, r3, #8
 2961 003c D318     		add	r3, r2, r3
1187:Code\UserApp\Protocol/CmdProtocol.c **** 	uint8 DataBuf[256];
 2962              		.loc 1 1187 0
 2963 003e 0122     		mov	r2, #1
1209:Code\UserApp\Protocol/CmdProtocol.c **** 	{
 2964              		.loc 1 1209 0
 2965 0040 9BB2     		uxth	r3, r3
1187:Code\UserApp\Protocol/CmdProtocol.c **** 	uint8 DataBuf[256];
 2966              		.loc 1 1187 0
 2967 0042 0492     		str	r2, [sp, #16]
1209:Code\UserApp\Protocol/CmdProtocol.c **** 	{
 2968              		.loc 1 1209 0
 2969 0044 9342     		cmp	r3, r2
 2970 0046 23D1     		bne	.L124
 2971              	.LVL384:
1213:Code\UserApp\Protocol/CmdProtocol.c **** 		end_time = BYTE2LONG(end_t[0], end_t[1], end_t[2], end_t[3]);
 2972              		.loc 1 1213 0
 2973 0048 667B     		ldrb	r6, [r4, #13]
 2974 004a A37B     		ldrb	r3, [r4, #14]
 2975 004c 3606     		lsl	r6, r6, #24
 2976 004e 1B04     		lsl	r3, r3, #16
 2977 0050 1E43     		orr	r6, r3
ARM GAS  C:\Users\Administrator\AppData\Local\Temp\ccX9Bf8z.s 			page 92


 2978 0052 237C     		ldrb	r3, [r4, #16]
1214:Code\UserApp\Protocol/CmdProtocol.c **** 		
 2979              		.loc 1 1214 0
 2980 0054 617C     		ldrb	r1, [r4, #17]
 2981 0056 1E43     		orr	r6, r3
1213:Code\UserApp\Protocol/CmdProtocol.c **** 		end_time = BYTE2LONG(end_t[0], end_t[1], end_t[2], end_t[3]);
 2982              		.loc 1 1213 0
 2983 0058 E37B     		ldrb	r3, [r4, #15]
1214:Code\UserApp\Protocol/CmdProtocol.c **** 		
 2984              		.loc 1 1214 0
 2985 005a 0906     		lsl	r1, r1, #24
1213:Code\UserApp\Protocol/CmdProtocol.c **** 		end_time = BYTE2LONG(end_t[0], end_t[1], end_t[2], end_t[3]);
 2986              		.loc 1 1213 0
 2987 005c 1B02     		lsl	r3, r3, #8
 2988 005e 1E43     		orr	r6, r3
 2989              	.LVL385:
1214:Code\UserApp\Protocol/CmdProtocol.c **** 		
 2990              		.loc 1 1214 0
 2991 0060 A37C     		ldrb	r3, [r4, #18]
 2992 0062 1B04     		lsl	r3, r3, #16
 2993 0064 1943     		orr	r1, r3
 2994 0066 237D     		ldrb	r3, [r4, #20]
 2995 0068 1943     		orr	r1, r3
 2996 006a E37C     		ldrb	r3, [r4, #19]
 2997 006c 1B02     		lsl	r3, r3, #8
 2998 006e 1943     		orr	r1, r3
 2999              	.LVL386:
1216:Code\UserApp\Protocol/CmdProtocol.c **** 		{
 3000              		.loc 1 1216 0
 3001 0070 8E42     		cmp	r6, r1
 3002 0072 01D9     		bls	.L125
1218:Code\UserApp\Protocol/CmdProtocol.c **** 		}
 3003              		.loc 1 1218 0
 3004 0074 0923     		mov	r3, #9
 3005 0076 0493     		str	r3, [sp, #16]
 3006              	.L125:
 3007              	.LVL387:
1221:Code\UserApp\Protocol/CmdProtocol.c **** 		if (UploadQty > 0)
 3008              		.loc 1 1221 0
 3009 0078 301C     		mov	r0, r6
 3010 007a FFF7FEFF 		bl	Find_Open_ValidQty
 3011              	.LVL388:
 3012 007e 484B     		ldr	r3, .L137+4
 3013 0080 1880     		strh	r0, [r3]
1222:Code\UserApp\Protocol/CmdProtocol.c **** 		{
 3014              		.loc 1 1222 0
 3015 0082 0028     		cmp	r0, #0
 3016 0084 04D0     		beq	.L124
1224:Code\UserApp\Protocol/CmdProtocol.c **** 		}
 3017              		.loc 1 1224 0
 3018 0086 301C     		mov	r0, r6
 3019 0088 FFF7FEFF 		bl	Find_Open_StartNum
 3020              	.LVL389:
 3021 008c 454B     		ldr	r3, .L137+8
 3022 008e 1880     		strh	r0, [r3]
 3023              	.LVL390:
 3024              	.L124:
ARM GAS  C:\Users\Administrator\AppData\Local\Temp\ccX9Bf8z.s 			page 93


1228:Code\UserApp\Protocol/CmdProtocol.c **** 	{
 3025              		.loc 1 1228 0
 3026 0090 434B     		ldr	r3, .L137+4
 3027 0092 1E88     		ldrh	r6, [r3]
 3028 0094 052E     		cmp	r6, #5
 3029 0096 33D8     		bhi	.L126
 3030              	.LVL391:
1230:Code\UserApp\Protocol/CmdProtocol.c **** 		*pT++ = 0;
 3031              		.loc 1 1230 0
 3032 0098 0023     		mov	r3, #0
1233:Code\UserApp\Protocol/CmdProtocol.c **** 		memcpy(pT, &tUploadQty, 1);								// æœ¬æ¬¡å‘é€æ•°é‡							//
 3033              		.loc 1 1233 0
 3034 009a 0E22     		mov	r2, #14
1230:Code\UserApp\Protocol/CmdProtocol.c **** 		*pT++ = 0;
 3035              		.loc 1 1230 0
 3036 009c AB71     		strb	r3, [r5, #6]
 3037              	.LVL392:
1231:Code\UserApp\Protocol/CmdProtocol.c **** 		
 3038              		.loc 1 1231 0
 3039 009e EB71     		strb	r3, [r5, #7]
 3040 00a0 1925     		mov	r5, #25
1233:Code\UserApp\Protocol/CmdProtocol.c **** 		memcpy(pT, &tUploadQty, 1);								// æœ¬æ¬¡å‘é€æ•°é‡							//
 3041              		.loc 1 1233 0
 3042 00a2 06A9     		add	r1, sp, #24
 3043              	.LVL393:
 3044 00a4 5218     		add	r2, r2, r1
 3045 00a6 1680     		strh	r6, [r2]
1234:Code\UserApp\Protocol/CmdProtocol.c **** 		pT += 1;
 3046              		.loc 1 1234 0
 3047 00a8 0CAA     		add	r2, sp, #48
 3048              	.LVL394:
 3049 00aa 1670     		strb	r6, [r2]
 3050              	.LVL395:
 3051 00ac 6D18     		add	r5, r5, r1
1237:Code\UserApp\Protocol/CmdProtocol.c **** 		{
 3052              		.loc 1 1237 0
 3053 00ae 0293     		str	r3, [sp, #8]
 3054              	.LVL396:
 3055              	.L127:
1237:Code\UserApp\Protocol/CmdProtocol.c **** 		{
 3056              		.loc 1 1237 0 is_stmt 0 discriminator 1
 3057 00b0 6B46     		mov	r3, sp
 3058 00b2 1B89     		ldrh	r3, [r3, #8]
 3059 00b4 2F1C     		mov	r7, r5
 3060              	.LVL397:
 3061 00b6 0393     		str	r3, [sp, #12]
 3062 00b8 B342     		cmp	r3, r6
 3063 00ba 1BD2     		bcs	.L136
1239:Code\UserApp\Protocol/CmdProtocol.c **** 		    memcpy(pT, data_openinfo, 16);
 3064              		.loc 1 1239 0 is_stmt 1 discriminator 3
 3065 00bc 394B     		ldr	r3, .L137+8
 3066 00be 0121     		mov	r1, #1
 3067 00c0 1888     		ldrh	r0, [r3]
 3068 00c2 039B     		ldr	r3, [sp, #12]
 3069 00c4 4AAA     		add	r2, sp, #296
 3070 00c6 1818     		add	r0, r3, r0
 3071 00c8 80B2     		uxth	r0, r0
ARM GAS  C:\Users\Administrator\AppData\Local\Temp\ccX9Bf8z.s 			page 94


 3072 00ca FFF7FEFF 		bl	Get_Open_Info
 3073              	.LVL398:
1240:Code\UserApp\Protocol/CmdProtocol.c **** 		    pT += 16;
 3074              		.loc 1 1240 0 discriminator 3
 3075 00ce 281C     		mov	r0, r5
 3076 00d0 4AA9     		add	r1, sp, #296
 3077 00d2 1022     		mov	r2, #16
 3078 00d4 FFF7FEFF 		bl	memcpy
 3079              	.LVL399:
1242:Code\UserApp\Protocol/CmdProtocol.c **** 		}
 3080              		.loc 1 1242 0 discriminator 3
 3081 00d8 324B     		ldr	r3, .L137+8
 3082 00da 1888     		ldrh	r0, [r3]
 3083 00dc 039B     		ldr	r3, [sp, #12]
 3084 00de 1818     		add	r0, r3, r0
 3085 00e0 80B2     		uxth	r0, r0
 3086 00e2 FFF7FEFF 		bl	Read_Open_Type
 3087              	.LVL400:
1237:Code\UserApp\Protocol/CmdProtocol.c **** 		{
 3088              		.loc 1 1237 0 discriminator 3
 3089 00e6 029B     		ldr	r3, [sp, #8]
1242:Code\UserApp\Protocol/CmdProtocol.c **** 		}
 3090              		.loc 1 1242 0 discriminator 3
 3091 00e8 2874     		strb	r0, [r5, #16]
1237:Code\UserApp\Protocol/CmdProtocol.c **** 		{
 3092              		.loc 1 1237 0 discriminator 3
 3093 00ea 0133     		add	r3, r3, #1
 3094 00ec DBB2     		uxtb	r3, r3
 3095 00ee 0293     		str	r3, [sp, #8]
 3096              	.LVL401:
 3097 00f0 1135     		add	r5, r5, #17
 3098              	.LVL402:
 3099 00f2 DDE7     		b	.L127
 3100              	.L136:
1244:Code\UserApp\Protocol/CmdProtocol.c **** 		UploadStartnum = 0;
 3101              		.loc 1 1244 0
 3102 00f4 0023     		mov	r3, #0
 3103 00f6 2A4A     		ldr	r2, .L137+4
 3104 00f8 1380     		strh	r3, [r2]
1245:Code\UserApp\Protocol/CmdProtocol.c **** 	}
 3105              		.loc 1 1245 0
 3106 00fa 2A4A     		ldr	r2, .L137+8
 3107 00fc 1380     		strh	r3, [r2]
 3108 00fe 30E0     		b	.L129
 3109              	.LVL403:
 3110              	.L126:
1249:Code\UserApp\Protocol/CmdProtocol.c **** 		*pT++ = RecBuf[22];
 3111              		.loc 1 1249 0
 3112 0100 637D     		ldrb	r3, [r4, #21]
1252:Code\UserApp\Protocol/CmdProtocol.c **** 		*pT++ = OPENDATA_UPPAGE_LEN;							// æœ¬æ¬¡å‘é€æ•°é‡							//
 3113              		.loc 1 1252 0
 3114 0102 0E22     		mov	r2, #14
1249:Code\UserApp\Protocol/CmdProtocol.c **** 		*pT++ = RecBuf[22];
 3115              		.loc 1 1249 0
 3116 0104 AB71     		strb	r3, [r5, #6]
 3117              	.LVL404:
1250:Code\UserApp\Protocol/CmdProtocol.c **** 		
ARM GAS  C:\Users\Administrator\AppData\Local\Temp\ccX9Bf8z.s 			page 95


 3118              		.loc 1 1250 0
 3119 0106 A37D     		ldrb	r3, [r4, #22]
 3120 0108 1927     		mov	r7, #25
 3121 010a EB71     		strb	r3, [r5, #7]
1252:Code\UserApp\Protocol/CmdProtocol.c **** 		*pT++ = OPENDATA_UPPAGE_LEN;							// æœ¬æ¬¡å‘é€æ•°é‡							//
 3122              		.loc 1 1252 0
 3123 010c 0523     		mov	r3, #5
1253:Code\UserApp\Protocol/CmdProtocol.c **** 		
 3124              		.loc 1 1253 0
 3125 010e 0026     		mov	r6, #0
1252:Code\UserApp\Protocol/CmdProtocol.c **** 		*pT++ = OPENDATA_UPPAGE_LEN;							// æœ¬æ¬¡å‘é€æ•°é‡							//
 3126              		.loc 1 1252 0
 3127 0110 06A9     		add	r1, sp, #24
 3128              	.LVL405:
 3129 0112 5218     		add	r2, r2, r1
 3130 0114 1380     		strh	r3, [r2]
 3131              	.LVL406:
1253:Code\UserApp\Protocol/CmdProtocol.c **** 		
 3132              		.loc 1 1253 0
 3133 0116 2B72     		strb	r3, [r5, #8]
 3134              	.LVL407:
 3135 0118 7F18     		add	r7, r7, r1
 3136              	.LVL408:
 3137              	.L130:
1257:Code\UserApp\Protocol/CmdProtocol.c **** 		    memcpy(pT, data_openinfo, 16);
 3138              		.loc 1 1257 0 discriminator 3
 3139 011a 224D     		ldr	r5, .L137+8
 3140 011c B3B2     		uxth	r3, r6
 3141 011e 2888     		ldrh	r0, [r5]
 3142 0120 0121     		mov	r1, #1
 3143 0122 1818     		add	r0, r3, r0
 3144 0124 80B2     		uxth	r0, r0
 3145 0126 4AAA     		add	r2, sp, #296
 3146 0128 0293     		str	r3, [sp, #8]
 3147 012a FFF7FEFF 		bl	Get_Open_Info
 3148              	.LVL409:
1258:Code\UserApp\Protocol/CmdProtocol.c **** 		    pT += 16;
 3149              		.loc 1 1258 0 discriminator 3
 3150 012e 381C     		mov	r0, r7
 3151 0130 4AA9     		add	r1, sp, #296
 3152 0132 1022     		mov	r2, #16
 3153 0134 FFF7FEFF 		bl	memcpy
 3154              	.LVL410:
1260:Code\UserApp\Protocol/CmdProtocol.c **** 		}
 3155              		.loc 1 1260 0 discriminator 3
 3156 0138 2888     		ldrh	r0, [r5]
 3157 013a 029B     		ldr	r3, [sp, #8]
 3158 013c 0136     		add	r6, r6, #1
 3159              	.LVL411:
 3160 013e 1818     		add	r0, r3, r0
 3161 0140 80B2     		uxth	r0, r0
 3162 0142 FFF7FEFF 		bl	Read_Open_Type
 3163              	.LVL412:
 3164 0146 3874     		strb	r0, [r7, #16]
 3165 0148 1137     		add	r7, r7, #17
 3166              	.LVL413:
1255:Code\UserApp\Protocol/CmdProtocol.c **** 		{
ARM GAS  C:\Users\Administrator\AppData\Local\Temp\ccX9Bf8z.s 			page 96


 3167              		.loc 1 1255 0 discriminator 3
 3168 014a 052E     		cmp	r6, #5
 3169 014c E5D1     		bne	.L130
1260:Code\UserApp\Protocol/CmdProtocol.c **** 		}
 3170              		.loc 1 1260 0
 3171 014e 6E27     		mov	r7, #110
 3172              	.LVL414:
1262:Code\UserApp\Protocol/CmdProtocol.c **** 		UploadStartnum += tUploadQty;
 3173              		.loc 1 1262 0
 3174 0150 134A     		ldr	r2, .L137+4
 3175 0152 1388     		ldrh	r3, [r2]
 3176 0154 053B     		sub	r3, r3, #5
 3177 0156 1380     		strh	r3, [r2]
1263:Code\UserApp\Protocol/CmdProtocol.c **** 	}
 3178              		.loc 1 1263 0
 3179 0158 2B88     		ldrh	r3, [r5]
 3180 015a 0533     		add	r3, r3, #5
 3181 015c 2B80     		strh	r3, [r5]
1260:Code\UserApp\Protocol/CmdProtocol.c **** 		}
 3182              		.loc 1 1260 0
 3183 015e 06AB     		add	r3, sp, #24
 3184              	.LVL415:
 3185 0160 FF18     		add	r7, r7, r3
 3186              	.LVL416:
 3187              	.L129:
1266:Code\UserApp\Protocol/CmdProtocol.c **** 	pT += 4;        
 3188              		.loc 1 1266 0
 3189 0162 0699     		ldr	r1, [sp, #24]
 3190 0164 381C     		mov	r0, r7
 3191 0166 0639     		sub	r1, r1, #6
 3192 0168 6118     		add	r1, r4, r1
 3193 016a 0422     		mov	r2, #4
 3194 016c FFF7FEFF 		bl	memcpy
 3195              	.LVL417:
1269:Code\UserApp\Protocol/CmdProtocol.c **** 	
 3196              		.loc 1 1269 0
 3197 0170 6B46     		mov	r3, sp
 3198 0172 1B7C     		ldrb	r3, [r3, #16]
1271:Code\UserApp\Protocol/CmdProtocol.c **** 	
 3199              		.loc 1 1271 0
 3200 0174 06AA     		add	r2, sp, #24
 3201              	.LVL418:
1269:Code\UserApp\Protocol/CmdProtocol.c **** 	
 3202              		.loc 1 1269 0
 3203 0176 3B71     		strb	r3, [r7, #4]
1271:Code\UserApp\Protocol/CmdProtocol.c **** 	
 3204              		.loc 1 1271 0
 3205 0178 0E23     		mov	r3, #14
 3206 017a 9B18     		add	r3, r3, r2
 3207 017c 1A88     		ldrh	r2, [r3]
 3208              	.LVL419:
 3209 017e 1123     		mov	r3, #17
 3210 0180 5343     		mul	r3, r2
 3211 0182 0E33     		add	r3, r3, #14
 3212 0184 9BB2     		uxth	r3, r3
 3213 0186 0093     		str	r3, [sp]
 3214 0188 0598     		ldr	r0, [sp, #20]
ARM GAS  C:\Users\Administrator\AppData\Local\Temp\ccX9Bf8z.s 			page 97


 3215 018a 0121     		mov	r1, #1
 3216 018c 079A     		ldr	r2, [sp, #28]
 3217 018e 0AAB     		add	r3, sp, #40
 3218 0190 FFF7FEFF 		bl	Protocol_SendAckPacket
 3219              	.LVL420:
1278:Code\UserApp\Protocol/CmdProtocol.c **** 
 3220              		.loc 1 1278 0
 3221 0194 8B23     		mov	r3, #139
 3222 0196 9B00     		lsl	r3, r3, #2
 3223 0198 9D44     		add	sp, sp, r3
 3224              		@ sp needed
 3225              	.LVL421:
 3226              	.LVL422:
 3227 019a F0BD     		pop	{r4, r5, r6, r7, pc}
 3228              	.L138:
 3229              		.align	2
 3230              	.L137:
 3231 019c D4FDFFFF 		.word	-556
 3232 01a0 00000000 		.word	UploadQty
 3233 01a4 00000000 		.word	UploadStartnum
 3234              		.cfi_endproc
 3235              	.LFE84:
 3236              		.size	Protocol_CmdReadInfo, .-Protocol_CmdReadInfo
 3237              		.section	.text.Protocol_CmdRemoteUpdate,"ax",%progbits
 3238              		.align	1
 3239              		.code	16
 3240              		.thumb_func
 3241              		.type	Protocol_CmdRemoteUpdate, %function
 3242              	Protocol_CmdRemoteUpdate:
 3243              	.LFB85:
1289:Code\UserApp\Protocol/CmdProtocol.c **** 	uint8 RetCode = RT_SUCC;
 3244              		.loc 1 1289 0
 3245              		.cfi_startproc
 3246              	.LVL423:
 3247 0000 F0B5     		push	{r4, r5, r6, r7, lr}
 3248              		.cfi_def_cfa_offset 20
 3249              		.cfi_offset 4, -20
 3250              		.cfi_offset 5, -16
 3251              		.cfi_offset 6, -12
 3252              		.cfi_offset 7, -8
 3253              		.cfi_offset 14, -4
 3254 0002 051C     		mov	r5, r0
 3255 0004 95B0     		sub	sp, sp, #84
 3256              		.cfi_def_cfa_offset 104
 3257              	.LVL424:
1293:Code\UserApp\Protocol/CmdProtocol.c **** 	uint8 port_str[4];
 3258              		.loc 1 1293 0
 3259 0006 0379     		ldrb	r3, [r0, #4]
1297:Code\UserApp\Protocol/CmdProtocol.c **** 	pT += 6;
 3260              		.loc 1 1297 0
 3261 0008 04AE     		add	r6, sp, #16
 3262              	.LVL425:
 3263 000a C11D     		add	r1, r0, #7
 3264 000c 0622     		mov	r2, #6
 3265 000e 301C     		mov	r0, r6
 3266              	.LVL426:
1293:Code\UserApp\Protocol/CmdProtocol.c **** 	uint8 port_str[4];
ARM GAS  C:\Users\Administrator\AppData\Local\Temp\ccX9Bf8z.s 			page 98


 3267              		.loc 1 1293 0
 3268 0010 0393     		str	r3, [sp, #12]
 3269              	.LVL427:
1297:Code\UserApp\Protocol/CmdProtocol.c **** 	pT += 6;
 3270              		.loc 1 1297 0
 3271 0012 FFF7FEFF 		bl	memcpy
 3272              	.LVL428:
1300:Code\UserApp\Protocol/CmdProtocol.c **** 	memcpy((char *)update_ip, (char *)domain, strlen((char *)domain));
 3273              		.loc 1 1300 0
 3274 0016 291C     		mov	r1, r5
 3275 0018 334C     		ldr	r4, .L144
 3276 001a 0D31     		add	r1, r1, #13
 3277 001c C822     		mov	r2, #200
 3278 001e 201C     		mov	r0, r4
 3279 0020 FFF7FEFF 		bl	memcpy
 3280              	.LVL429:
1301:Code\UserApp\Protocol/CmdProtocol.c **** 	
 3281              		.loc 1 1301 0
 3282 0024 201C     		mov	r0, r4
 3283 0026 FFF7FEFF 		bl	strlen
 3284              	.LVL430:
 3285 002a 211C     		mov	r1, r4
 3286 002c 021C     		mov	r2, r0
 3287 002e 2F48     		ldr	r0, .L144+4
 3288 0030 FFF7FEFF 		bl	memcpy
 3289              	.LVL431:
1303:Code\UserApp\Protocol/CmdProtocol.c **** 	port_str[0]= port_hex/1000 + '0';
 3290              		.loc 1 1303 0
 3291 0034 2B1C     		mov	r3, r5
1304:Code\UserApp\Protocol/CmdProtocol.c **** 	port_str[1]= port_hex%1000/100 + '0';
 3292              		.loc 1 1304 0
 3293 0036 FA21     		mov	r1, #250
1303:Code\UserApp\Protocol/CmdProtocol.c **** 	port_str[0]= port_hex/1000 + '0';
 3294              		.loc 1 1303 0
 3295 0038 D533     		add	r3, r3, #213
 3296 003a 1C78     		ldrb	r4, [r3]
 3297 003c 0133     		add	r3, r3, #1
 3298 003e 1B78     		ldrb	r3, [r3]
 3299 0040 2402     		lsl	r4, r4, #8
 3300 0042 1C19     		add	r4, r3, r4
 3301 0044 A4B2     		uxth	r4, r4
 3302              	.LVL432:
1304:Code\UserApp\Protocol/CmdProtocol.c **** 	port_str[1]= port_hex%1000/100 + '0';
 3303              		.loc 1 1304 0
 3304 0046 201C     		mov	r0, r4
 3305 0048 8900     		lsl	r1, r1, #2
 3306 004a FFF7FEFF 		bl	__aeabi_uidiv
 3307              	.LVL433:
1305:Code\UserApp\Protocol/CmdProtocol.c **** 	port_str[2]= port_hex%100/10 + '0';
 3308              		.loc 1 1305 0
 3309 004e FA21     		mov	r1, #250
1308:Code\UserApp\Protocol/CmdProtocol.c **** 	
 3310              		.loc 1 1308 0
 3311 0050 274F     		ldr	r7, .L144+8
1304:Code\UserApp\Protocol/CmdProtocol.c **** 	port_str[1]= port_hex%1000/100 + '0';
 3312              		.loc 1 1304 0
 3313 0052 3030     		add	r0, r0, #48
ARM GAS  C:\Users\Administrator\AppData\Local\Temp\ccX9Bf8z.s 			page 99


1308:Code\UserApp\Protocol/CmdProtocol.c **** 	
 3314              		.loc 1 1308 0
 3315 0054 3870     		strb	r0, [r7]
1305:Code\UserApp\Protocol/CmdProtocol.c **** 	port_str[2]= port_hex%100/10 + '0';
 3316              		.loc 1 1305 0
 3317 0056 8900     		lsl	r1, r1, #2
 3318 0058 201C     		mov	r0, r4
 3319 005a FFF7FEFF 		bl	__aeabi_uidivmod
 3320              	.LVL434:
 3321 005e 88B2     		uxth	r0, r1
 3322 0060 6421     		mov	r1, #100
 3323 0062 FFF7FEFF 		bl	__aeabi_uidiv
 3324              	.LVL435:
 3325 0066 3030     		add	r0, r0, #48
1308:Code\UserApp\Protocol/CmdProtocol.c **** 	
 3326              		.loc 1 1308 0
 3327 0068 7870     		strb	r0, [r7, #1]
1306:Code\UserApp\Protocol/CmdProtocol.c **** 	port_str[3]= port_hex%10 + '0';
 3328              		.loc 1 1306 0
 3329 006a 6421     		mov	r1, #100
 3330 006c 201C     		mov	r0, r4
 3331 006e FFF7FEFF 		bl	__aeabi_uidivmod
 3332              	.LVL436:
 3333 0072 88B2     		uxth	r0, r1
 3334 0074 0A21     		mov	r1, #10
 3335 0076 FFF7FEFF 		bl	__aeabi_uidiv
 3336              	.LVL437:
 3337 007a 3030     		add	r0, r0, #48
1308:Code\UserApp\Protocol/CmdProtocol.c **** 	
 3338              		.loc 1 1308 0
 3339 007c B870     		strb	r0, [r7, #2]
1307:Code\UserApp\Protocol/CmdProtocol.c **** 	memcpy(update_port, port_str, 4);
 3340              		.loc 1 1307 0
 3341 007e 0A21     		mov	r1, #10
 3342 0080 201C     		mov	r0, r4
 3343 0082 FFF7FEFF 		bl	__aeabi_uidivmod
 3344              	.LVL438:
1310:Code\UserApp\Protocol/CmdProtocol.c **** 	*pT++ = RecBuf[216];
 3345              		.loc 1 1310 0
 3346 0086 2B1C     		mov	r3, r5
1307:Code\UserApp\Protocol/CmdProtocol.c **** 	memcpy(update_port, port_str, 4);
 3347              		.loc 1 1307 0
 3348 0088 3031     		add	r1, r1, #48
1308:Code\UserApp\Protocol/CmdProtocol.c **** 	
 3349              		.loc 1 1308 0
 3350 008a F970     		strb	r1, [r7, #3]
 3351              	.LVL439:
1314:Code\UserApp\Protocol/CmdProtocol.c **** 	pT += 4;
 3352              		.loc 1 1314 0
 3353 008c 291C     		mov	r1, r5
1310:Code\UserApp\Protocol/CmdProtocol.c **** 	*pT++ = RecBuf[216];
 3354              		.loc 1 1310 0
 3355 008e D733     		add	r3, r3, #215
 3356 0090 1C78     		ldrb	r4, [r3]
 3357              	.LVL440:
1311:Code\UserApp\Protocol/CmdProtocol.c **** 	update_version = (RecBuf[215] << 8) + RecBuf[216];
 3358              		.loc 1 1311 0
ARM GAS  C:\Users\Administrator\AppData\Local\Temp\ccX9Bf8z.s 			page 100


 3359 0092 0133     		add	r3, r3, #1
 3360 0094 1B78     		ldrb	r3, [r3]
1310:Code\UserApp\Protocol/CmdProtocol.c **** 	*pT++ = RecBuf[216];
 3361              		.loc 1 1310 0
 3362 0096 B471     		strb	r4, [r6, #6]
 3363              	.LVL441:
1312:Code\UserApp\Protocol/CmdProtocol.c **** 	
 3364              		.loc 1 1312 0
 3365 0098 2402     		lsl	r4, r4, #8
1311:Code\UserApp\Protocol/CmdProtocol.c **** 	update_version = (RecBuf[215] << 8) + RecBuf[216];
 3366              		.loc 1 1311 0
 3367 009a F371     		strb	r3, [r6, #7]
1312:Code\UserApp\Protocol/CmdProtocol.c **** 	
 3368              		.loc 1 1312 0
 3369 009c E418     		add	r4, r4, r3
 3370 009e 154B     		ldr	r3, .L144+12
 3371 00a0 A4B2     		uxth	r4, r4
1314:Code\UserApp\Protocol/CmdProtocol.c **** 	pT += 4;
 3372              		.loc 1 1314 0
 3373 00a2 DB31     		add	r1, r1, #219
 3374 00a4 06A8     		add	r0, sp, #24
 3375              	.LVL442:
 3376 00a6 0422     		mov	r2, #4
1312:Code\UserApp\Protocol/CmdProtocol.c **** 	
 3377              		.loc 1 1312 0
 3378 00a8 1C80     		strh	r4, [r3]
1314:Code\UserApp\Protocol/CmdProtocol.c **** 	pT += 4;
 3379              		.loc 1 1314 0
 3380 00aa FFF7FEFF 		bl	memcpy
 3381              	.LVL443:
1317:Code\UserApp\Protocol/CmdProtocol.c **** 	{
 3382              		.loc 1 1317 0
 3383 00ae 124B     		ldr	r3, .L144+16
1319:Code\UserApp\Protocol/CmdProtocol.c **** 	}
 3384              		.loc 1 1319 0
 3385 00b0 0427     		mov	r7, #4
1317:Code\UserApp\Protocol/CmdProtocol.c **** 	{
 3386              		.loc 1 1317 0
 3387 00b2 1B78     		ldrb	r3, [r3]
 3388 00b4 A342     		cmp	r3, r4
 3389 00b6 0BD2     		bcs	.L140
1323:Code\UserApp\Protocol/CmdProtocol.c **** 		{
 3390              		.loc 1 1323 0
 3391 00b8 0C4B     		ldr	r3, .L144+4
1325:Code\UserApp\Protocol/CmdProtocol.c **** 		}
 3392              		.loc 1 1325 0
 3393 00ba 0737     		add	r7, r7, #7
1323:Code\UserApp\Protocol/CmdProtocol.c **** 		{
 3394              		.loc 1 1323 0
 3395 00bc 1B78     		ldrb	r3, [r3]
 3396 00be 002B     		cmp	r3, #0
 3397 00c0 06D0     		beq	.L140
1330:Code\UserApp\Protocol/CmdProtocol.c **** 			Write_UpdateInfo(update_flag,update_version);
 3398              		.loc 1 1330 0
 3399 00c2 0A3F     		sub	r7, r7, #10
 3400 00c4 0D4B     		ldr	r3, .L144+20
1331:Code\UserApp\Protocol/CmdProtocol.c **** 			RetCode = RT_SUCC;
ARM GAS  C:\Users\Administrator\AppData\Local\Temp\ccX9Bf8z.s 			page 101


 3401              		.loc 1 1331 0
 3402 00c6 381C     		mov	r0, r7
 3403 00c8 211C     		mov	r1, r4
1330:Code\UserApp\Protocol/CmdProtocol.c **** 			Write_UpdateInfo(update_flag,update_version);
 3404              		.loc 1 1330 0
 3405 00ca 1F70     		strb	r7, [r3]
1331:Code\UserApp\Protocol/CmdProtocol.c **** 			RetCode = RT_SUCC;
 3406              		.loc 1 1331 0
 3407 00cc FFF7FEFF 		bl	Write_UpdateInfo
 3408              	.LVL444:
 3409              	.L140:
1337:Code\UserApp\Protocol/CmdProtocol.c **** 	
 3410              		.loc 1 1337 0
 3411 00d0 0D23     		mov	r3, #13
1336:Code\UserApp\Protocol/CmdProtocol.c **** 	Protocol_SendAckPacket(comm_chanle, PACK_RESP, RecBuf[6], DataBuf, 13);
 3412              		.loc 1 1336 0
 3413 00d2 3773     		strb	r7, [r6, #12]
1337:Code\UserApp\Protocol/CmdProtocol.c **** 	
 3414              		.loc 1 1337 0
 3415 00d4 AA79     		ldrb	r2, [r5, #6]
 3416 00d6 0093     		str	r3, [sp]
 3417 00d8 0398     		ldr	r0, [sp, #12]
 3418 00da 0121     		mov	r1, #1
 3419 00dc 331C     		mov	r3, r6
 3420 00de FFF7FEFF 		bl	Protocol_SendAckPacket
 3421              	.LVL445:
1345:Code\UserApp\Protocol/CmdProtocol.c **** 
 3422              		.loc 1 1345 0
 3423 00e2 15B0     		add	sp, sp, #84
 3424              		@ sp needed
 3425              	.LVL446:
 3426              	.LVL447:
 3427 00e4 F0BD     		pop	{r4, r5, r6, r7, pc}
 3428              	.L145:
 3429 00e6 C046     		.align	2
 3430              	.L144:
 3431 00e8 00000000 		.word	domain
 3432 00ec 00000000 		.word	update_ip
 3433 00f0 00000000 		.word	update_port
 3434 00f4 00000000 		.word	update_version
 3435 00f8 00000000 		.word	system_version
 3436 00fc 00000000 		.word	update_flag
 3437              		.cfi_endproc
 3438              	.LFE85:
 3439              		.size	Protocol_CmdRemoteUpdate, .-Protocol_CmdRemoteUpdate
 3440              		.section	.text.Protocol_CmdRemoteRestart,"ax",%progbits
 3441              		.align	1
 3442              		.code	16
 3443              		.thumb_func
 3444              		.type	Protocol_CmdRemoteRestart, %function
 3445              	Protocol_CmdRemoteRestart:
 3446              	.LFB86:
1356:Code\UserApp\Protocol/CmdProtocol.c ****     uint8 RetCode = RT_SUCC;
 3447              		.loc 1 1356 0
 3448              		.cfi_startproc
 3449              	.LVL448:
 3450 0000 F0B5     		push	{r4, r5, r6, r7, lr}
ARM GAS  C:\Users\Administrator\AppData\Local\Temp\ccX9Bf8z.s 			page 102


 3451              		.cfi_def_cfa_offset 20
 3452              		.cfi_offset 4, -20
 3453              		.cfi_offset 5, -16
 3454              		.cfi_offset 6, -12
 3455              		.cfi_offset 7, -8
 3456              		.cfi_offset 14, -4
 3457 0002 051C     		mov	r5, r0
1363:Code\UserApp\Protocol/CmdProtocol.c **** 	 
 3458              		.loc 1 1363 0
 3459 0004 C478     		ldrb	r4, [r0, #3]
1356:Code\UserApp\Protocol/CmdProtocol.c ****     uint8 RetCode = RT_SUCC;
 3460              		.loc 1 1356 0
 3461 0006 93B0     		sub	sp, sp, #76
 3462              		.cfi_def_cfa_offset 96
 3463              	.LVL449:
 3464 0008 211D     		add	r1, r4, #4
1363:Code\UserApp\Protocol/CmdProtocol.c **** 	 
 3465              		.loc 1 1363 0
 3466 000a 8478     		ldrb	r4, [r0, #2]
1365:Code\UserApp\Protocol/CmdProtocol.c ****     memcpy(pT, RecBuf + 7, 6);									// å–å‡ºMACåœ°å€ï¼Œç†è®ºåº”åŠ ä¸ŠMACæ ¡éªŒ		//
 3467              		.loc 1 1365 0
 3468 000c 02AE     		add	r6, sp, #8
 3469              	.LVL450:
1363:Code\UserApp\Protocol/CmdProtocol.c **** 	 
 3470              		.loc 1 1363 0
 3471 000e 2302     		lsl	r3, r4, #8
 3472 0010 CC18     		add	r4, r1, r3
1360:Code\UserApp\Protocol/CmdProtocol.c ****     uint16 nCmdPackLen;
 3473              		.loc 1 1360 0
 3474 0012 0779     		ldrb	r7, [r0, #4]
 3475              	.LVL451:
1365:Code\UserApp\Protocol/CmdProtocol.c ****     memcpy(pT, RecBuf + 7, 6);									// å–å‡ºMACåœ°å€ï¼Œç†è®ºåº”åŠ ä¸ŠMACæ ¡éªŒ		//
 3476              		.loc 1 1365 0
 3477 0014 0021     		mov	r1, #0
 3478 0016 301C     		mov	r0, r6
 3479              	.LVL452:
 3480 0018 4022     		mov	r2, #64
 3481 001a FFF7FEFF 		bl	memset
 3482              	.LVL453:
1366:Code\UserApp\Protocol/CmdProtocol.c ****     pT += 6; 
 3483              		.loc 1 1366 0
 3484 001e E91D     		add	r1, r5, #7
 3485 0020 301C     		mov	r0, r6
 3486 0022 0622     		mov	r2, #6
 3487 0024 FFF7FEFF 		bl	memcpy
 3488              	.LVL454:
1369:Code\UserApp\Protocol/CmdProtocol.c ****     pT += 4; 
 3489              		.loc 1 1369 0
 3490 0028 0E20     		mov	r0, #14
1363:Code\UserApp\Protocol/CmdProtocol.c **** 	 
 3491              		.loc 1 1363 0
 3492 002a A4B2     		uxth	r4, r4
 3493              	.LVL455:
1369:Code\UserApp\Protocol/CmdProtocol.c ****     pT += 4; 
 3494              		.loc 1 1369 0
 3495 002c A11F     		sub	r1, r4, #6
 3496 002e 6918     		add	r1, r5, r1
ARM GAS  C:\Users\Administrator\AppData\Local\Temp\ccX9Bf8z.s 			page 103


 3497 0030 6844     		add	r0, r0, sp
 3498 0032 0422     		mov	r2, #4
 3499 0034 FFF7FEFF 		bl	memcpy
 3500              	.LVL456:
1372:Code\UserApp\Protocol/CmdProtocol.c ****  
 3501              		.loc 1 1372 0
 3502 0038 0121     		mov	r1, #1
1375:Code\UserApp\Protocol/CmdProtocol.c **** 	//===ã€ç»“æŸã€‘=== è®¾å¤‡å±‚çš„å¤„ç† ==========================================================
 3503              		.loc 1 1375 0
 3504 003a 064B     		ldr	r3, .L147
1372:Code\UserApp\Protocol/CmdProtocol.c ****  
 3505              		.loc 1 1372 0
 3506 003c B172     		strb	r1, [r6, #10]
1375:Code\UserApp\Protocol/CmdProtocol.c **** 	//===ã€ç»“æŸã€‘=== è®¾å¤‡å±‚çš„å¤„ç† ==========================================================
 3507              		.loc 1 1375 0
 3508 003e 1970     		strb	r1, [r3]
1378:Code\UserApp\Protocol/CmdProtocol.c **** 	
 3509              		.loc 1 1378 0
 3510 0040 0B23     		mov	r3, #11
 3511 0042 AA79     		ldrb	r2, [r5, #6]
 3512 0044 0093     		str	r3, [sp]
 3513 0046 381C     		mov	r0, r7
 3514 0048 331C     		mov	r3, r6
 3515 004a FFF7FEFF 		bl	Protocol_SendAckPacket
 3516              	.LVL457:
1381:Code\UserApp\Protocol/CmdProtocol.c **** 
 3517              		.loc 1 1381 0
 3518 004e 13B0     		add	sp, sp, #76
 3519              		@ sp needed
 3520              	.LVL458:
 3521              	.LVL459:
 3522              	.LVL460:
 3523 0050 F0BD     		pop	{r4, r5, r6, r7, pc}
 3524              	.L148:
 3525 0052 C046     		.align	2
 3526              	.L147:
 3527 0054 00000000 		.word	flag_reboot
 3528              		.cfi_endproc
 3529              	.LFE86:
 3530              		.size	Protocol_CmdRemoteRestart, .-Protocol_CmdRemoteRestart
 3531              		.section	.text.Protocol_CmdChangeIP,"ax",%progbits
 3532              		.align	1
 3533              		.code	16
 3534              		.thumb_func
 3535              		.type	Protocol_CmdChangeIP, %function
 3536              	Protocol_CmdChangeIP:
 3537              	.LFB88:
1480:Code\UserApp\Protocol/CmdProtocol.c ****     uint8 RetCode = RT_SUCC;
 3538              		.loc 1 1480 0
 3539              		.cfi_startproc
 3540              	.LVL461:
 3541 0000 F0B5     		push	{r4, r5, r6, r7, lr}
 3542              		.cfi_def_cfa_offset 20
 3543              		.cfi_offset 4, -20
 3544              		.cfi_offset 5, -16
 3545              		.cfi_offset 6, -12
 3546              		.cfi_offset 7, -8
ARM GAS  C:\Users\Administrator\AppData\Local\Temp\ccX9Bf8z.s 			page 104


 3547              		.cfi_offset 14, -4
 3548 0002 051C     		mov	r5, r0
1488:Code\UserApp\Protocol/CmdProtocol.c **** 	 
 3549              		.loc 1 1488 0
 3550 0004 C178     		ldrb	r1, [r0, #3]
1484:Code\UserApp\Protocol/CmdProtocol.c ****     uint16 nCmdPackLen;
 3551              		.loc 1 1484 0
 3552 0006 0379     		ldrb	r3, [r0, #4]
 3553 0008 0A1D     		add	r2, r1, #4
1488:Code\UserApp\Protocol/CmdProtocol.c **** 	 
 3554              		.loc 1 1488 0
 3555 000a 8178     		ldrb	r1, [r0, #2]
1480:Code\UserApp\Protocol/CmdProtocol.c ****     uint8 RetCode = RT_SUCC;
 3556              		.loc 1 1480 0
 3557 000c 95B0     		sub	sp, sp, #84
 3558              		.cfi_def_cfa_offset 104
 3559              	.LVL462:
1484:Code\UserApp\Protocol/CmdProtocol.c ****     uint16 nCmdPackLen;
 3560              		.loc 1 1484 0
 3561 000e 0293     		str	r3, [sp, #8]
 3562              	.LVL463:
1488:Code\UserApp\Protocol/CmdProtocol.c **** 	 
 3563              		.loc 1 1488 0
 3564 0010 0B02     		lsl	r3, r1, #8
 3565 0012 D118     		add	r1, r2, r3
1490:Code\UserApp\Protocol/CmdProtocol.c ****     memcpy(pT, RecBuf + 7, 6);									// å–å‡ºMACåœ°å€ï¼Œç†è®ºåº”åŠ ä¸ŠMACæ ¡éªŒ		//
 3566              		.loc 1 1490 0
 3567 0014 04AE     		add	r6, sp, #16
 3568              	.LVL464:
1488:Code\UserApp\Protocol/CmdProtocol.c **** 	 
 3569              		.loc 1 1488 0
 3570 0016 8BB2     		uxth	r3, r1
1490:Code\UserApp\Protocol/CmdProtocol.c ****     memcpy(pT, RecBuf + 7, 6);									// å–å‡ºMACåœ°å€ï¼Œç†è®ºåº”åŠ ä¸ŠMACæ ¡éªŒ		//
 3571              		.loc 1 1490 0
 3572 0018 4022     		mov	r2, #64
 3573 001a 0021     		mov	r1, #0
 3574 001c 301C     		mov	r0, r6
 3575              	.LVL465:
1488:Code\UserApp\Protocol/CmdProtocol.c **** 	 
 3576              		.loc 1 1488 0
 3577 001e 0393     		str	r3, [sp, #12]
 3578              	.LVL466:
1490:Code\UserApp\Protocol/CmdProtocol.c ****     memcpy(pT, RecBuf + 7, 6);									// å–å‡ºMACåœ°å€ï¼Œç†è®ºåº”åŠ ä¸ŠMACæ ¡éªŒ		//
 3579              		.loc 1 1490 0
 3580 0020 FFF7FEFF 		bl	memset
 3581              	.LVL467:
1491:Code\UserApp\Protocol/CmdProtocol.c ****     pT += 6; 
 3582              		.loc 1 1491 0
 3583 0024 E91D     		add	r1, r5, #7
 3584 0026 301C     		mov	r0, r6
 3585 0028 0622     		mov	r2, #6
 3586 002a FFF7FEFF 		bl	memcpy
 3587              	.LVL468:
1494:Code\UserApp\Protocol/CmdProtocol.c **** 	IpNum = RecBuf[13];
 3588              		.loc 1 1494 0
 3589 002e 6C7B     		ldrb	r4, [r5, #13]
1481:Code\UserApp\Protocol/CmdProtocol.c ****     uint8 DataBuf[64];
ARM GAS  C:\Users\Administrator\AppData\Local\Temp\ccX9Bf8z.s 			page 105


 3590              		.loc 1 1481 0
 3591 0030 0127     		mov	r7, #1
1497:Code\UserApp\Protocol/CmdProtocol.c **** 	{
 3592              		.loc 1 1497 0
 3593 0032 631E     		sub	r3, r4, #1
1494:Code\UserApp\Protocol/CmdProtocol.c **** 	IpNum = RecBuf[13];
 3594              		.loc 1 1494 0
 3595 0034 B471     		strb	r4, [r6, #6]
 3596              	.LVL469:
1497:Code\UserApp\Protocol/CmdProtocol.c **** 	{
 3597              		.loc 1 1497 0
 3598 0036 042B     		cmp	r3, #4
 3599 0038 00D9     		bls	.L150
1499:Code\UserApp\Protocol/CmdProtocol.c **** 	}
 3600              		.loc 1 1499 0
 3601 003a 1037     		add	r7, r7, #16
 3602              	.L150:
 3603              	.LVL470:
1502:Code\UserApp\Protocol/CmdProtocol.c ****     pT += 4; 
 3604              		.loc 1 1502 0
 3605 003c 0F20     		mov	r0, #15
 3606 003e 0399     		ldr	r1, [sp, #12]
 3607 0040 02AB     		add	r3, sp, #8
 3608              	.LVL471:
 3609 0042 0639     		sub	r1, r1, #6
 3610 0044 6918     		add	r1, r5, r1
 3611 0046 C018     		add	r0, r0, r3
 3612 0048 0422     		mov	r2, #4
 3613 004a FFF7FEFF 		bl	memcpy
 3614              	.LVL472:
1507:Code\UserApp\Protocol/CmdProtocol.c **** 	
 3615              		.loc 1 1507 0
 3616 004e 0C23     		mov	r3, #12
1505:Code\UserApp\Protocol/CmdProtocol.c **** 	
 3617              		.loc 1 1505 0
 3618 0050 F772     		strb	r7, [r6, #11]
1507:Code\UserApp\Protocol/CmdProtocol.c **** 	
 3619              		.loc 1 1507 0
 3620 0052 AA79     		ldrb	r2, [r5, #6]
 3621 0054 0093     		str	r3, [sp]
 3622 0056 0298     		ldr	r0, [sp, #8]
 3623 0058 0121     		mov	r1, #1
 3624 005a 331C     		mov	r3, r6
 3625 005c FFF7FEFF 		bl	Protocol_SendAckPacket
 3626              	.LVL473:
1510:Code\UserApp\Protocol/CmdProtocol.c **** 	{
 3627              		.loc 1 1510 0
 3628 0060 012C     		cmp	r4, #1
 3629 0062 03D1     		bne	.L151
1512:Code\UserApp\Protocol/CmdProtocol.c **** 		VoicePlay(Sound_ShortDI);
 3630              		.loc 1 1512 0
 3631 0064 201C     		mov	r0, r4
 3632 0066 FFF7FEFF 		bl	Write_CenterIpType
 3633              	.LVL474:
 3634 006a 1BE0     		b	.L157
 3635              	.L151:
1515:Code\UserApp\Protocol/CmdProtocol.c **** 	{
ARM GAS  C:\Users\Administrator\AppData\Local\Temp\ccX9Bf8z.s 			page 106


 3636              		.loc 1 1515 0
 3637 006c 022C     		cmp	r4, #2
 3638 006e 08D0     		beq	.L160
1521:Code\UserApp\Protocol/CmdProtocol.c **** 	{
 3639              		.loc 1 1521 0
 3640 0070 032C     		cmp	r4, #3
 3641 0072 08D1     		bne	.L154
1523:Code\UserApp\Protocol/CmdProtocol.c **** 		BeepPlay_Delay(300);
 3642              		.loc 1 1523 0
 3643 0074 0F20     		mov	r0, #15
 3644 0076 FFF7FEFF 		bl	VoicePlay
 3645              	.LVL475:
1524:Code\UserApp\Protocol/CmdProtocol.c **** 		VoicePlay(Sound_ShortDI);
 3646              		.loc 1 1524 0
 3647 007a 9620     		mov	r0, #150
 3648 007c 4000     		lsl	r0, r0, #1
 3649 007e FFF7FEFF 		bl	BeepPlay_Delay
 3650              	.LVL476:
 3651              	.L160:
1525:Code\UserApp\Protocol/CmdProtocol.c **** 		BeepPlay_Delay(300);
 3652              		.loc 1 1525 0
 3653 0082 0F20     		mov	r0, #15
 3654 0084 08E0     		b	.L159
 3655              	.L154:
1531:Code\UserApp\Protocol/CmdProtocol.c **** 	}
 3656              		.loc 1 1531 0
 3657 0086 1020     		mov	r0, #16
1529:Code\UserApp\Protocol/CmdProtocol.c **** 	{
 3658              		.loc 1 1529 0
 3659 0088 042C     		cmp	r4, #4
 3660 008a 0CD0     		beq	.L158
1533:Code\UserApp\Protocol/CmdProtocol.c **** 	{
 3661              		.loc 1 1533 0
 3662 008c 052C     		cmp	r4, #5
 3663 008e 0CD1     		bne	.L152
1535:Code\UserApp\Protocol/CmdProtocol.c **** 		VoicePlay(Sound_LongDI);
 3664              		.loc 1 1535 0
 3665 0090 201C     		mov	r0, r4
 3666 0092 FFF7FEFF 		bl	Write_CenterIpType
 3667              	.LVL477:
1536:Code\UserApp\Protocol/CmdProtocol.c **** 		BeepPlay_Delay(300);
 3668              		.loc 1 1536 0
 3669 0096 1020     		mov	r0, #16
 3670              	.L159:
 3671 0098 FFF7FEFF 		bl	VoicePlay
 3672              	.LVL478:
1537:Code\UserApp\Protocol/CmdProtocol.c **** 		VoicePlay(Sound_ShortDI);
 3673              		.loc 1 1537 0
 3674 009c 9620     		mov	r0, #150
 3675 009e 4000     		lsl	r0, r0, #1
 3676 00a0 FFF7FEFF 		bl	BeepPlay_Delay
 3677              	.LVL479:
 3678              	.L157:
1538:Code\UserApp\Protocol/CmdProtocol.c **** 	}
 3679              		.loc 1 1538 0
 3680 00a4 0F20     		mov	r0, #15
 3681              	.L158:
ARM GAS  C:\Users\Administrator\AppData\Local\Temp\ccX9Bf8z.s 			page 107


 3682 00a6 FFF7FEFF 		bl	VoicePlay
 3683              	.LVL480:
 3684              	.L152:
1541:Code\UserApp\Protocol/CmdProtocol.c **** 	//===ã€ç»“æŸã€‘=== è®¾å¤‡å±‚çš„å¤„ç† ==========================================================
 3685              		.loc 1 1541 0
 3686 00aa 0122     		mov	r2, #1
 3687 00ac 014B     		ldr	r3, .L161
 3688 00ae 1A70     		strb	r2, [r3]
1545:Code\UserApp\Protocol/CmdProtocol.c **** 
 3689              		.loc 1 1545 0
 3690 00b0 15B0     		add	sp, sp, #84
 3691              		@ sp needed
 3692              	.LVL481:
 3693              	.LVL482:
 3694 00b2 F0BD     		pop	{r4, r5, r6, r7, pc}
 3695              	.L162:
 3696              		.align	2
 3697              	.L161:
 3698 00b4 00000000 		.word	flag_reboot
 3699              		.cfi_endproc
 3700              	.LFE88:
 3701              		.size	Protocol_CmdChangeIP, .-Protocol_CmdChangeIP
 3702              		.section	.text.Protocol_CmdParse,"ax",%progbits
 3703              		.align	1
 3704              		.global	Protocol_CmdParse
 3705              		.code	16
 3706              		.thumb_func
 3707              		.type	Protocol_CmdParse, %function
 3708              	Protocol_CmdParse:
 3709              	.LFB91:
1604:Code\UserApp\Protocol/CmdProtocol.c **** 
1605:Code\UserApp\Protocol/CmdProtocol.c **** //*************************************************************************************************
1606:Code\UserApp\Protocol/CmdProtocol.c **** // Function name	: Protocol_ClrOpenData_Qty
1607:Code\UserApp\Protocol/CmdProtocol.c **** // Description		: å‡ºå‚å‰ è“ç‰™æ¸…é™¤å¼€é—¨è®°å½• å’Œ æ•°é‡å†…å®¹
1608:Code\UserApp\Protocol/CmdProtocol.c **** // Parameter		: uint8* RecBuf	å‘½ä»¤åŒ…æŒ‡é’ˆ
1609:Code\UserApp\Protocol/CmdProtocol.c **** // Return			: none
1610:Code\UserApp\Protocol/CmdProtocol.c **** //-------------------------------------------------------------------------------------------------
1611:Code\UserApp\Protocol/CmdProtocol.c **** // Info				: 0xF2å‘½ä»¤ï¼Œæ‰‹æœºå‘é€
1612:Code\UserApp\Protocol/CmdProtocol.c **** //*************************************************************************************************
1613:Code\UserApp\Protocol/CmdProtocol.c **** static void Protocol_ClrOpenData_Qty(uint8* RecBuf)
1614:Code\UserApp\Protocol/CmdProtocol.c **** {
1615:Code\UserApp\Protocol/CmdProtocol.c **** 	uint8 dev_mac[6] = {0};
1616:Code\UserApp\Protocol/CmdProtocol.c **** 	uint8 RetCode = RT_SUCC;
1617:Code\UserApp\Protocol/CmdProtocol.c ****     uint8 DataBuf[64];
1618:Code\UserApp\Protocol/CmdProtocol.c **** 	uint8 *pT = DataBuf;
1619:Code\UserApp\Protocol/CmdProtocol.c ****     uint8 comm_chanle = RecBuf[4];                              // å–å‡ºä¿¡é“å€¼							//
1620:Code\UserApp\Protocol/CmdProtocol.c **** 	uint16 nCmdPackLen;
1621:Code\UserApp\Protocol/CmdProtocol.c **** 	
1622:Code\UserApp\Protocol/CmdProtocol.c **** 	W25QXX_Read(dev_mac, MAC_BASE, (uint16)sizeof(dev_mac));
1623:Code\UserApp\Protocol/CmdProtocol.c **** 	
1624:Code\UserApp\Protocol/CmdProtocol.c **** 	nCmdPackLen= (RecBuf[2] << 8) + RecBuf[3] + 4;
1625:Code\UserApp\Protocol/CmdProtocol.c **** 	 
1626:Code\UserApp\Protocol/CmdProtocol.c ****     memset(pT, 0, sizeof(DataBuf));
1627:Code\UserApp\Protocol/CmdProtocol.c ****     memcpy(pT, RecBuf + 7, 6);									// å–å‡ºMACåœ°å€							//
1628:Code\UserApp\Protocol/CmdProtocol.c ****     pT += 6; 
1629:Code\UserApp\Protocol/CmdProtocol.c **** 	memcpy(pT, RecBuf + nCmdPackLen - 6, 4);					// æ—¶é—´æˆ³								//
1630:Code\UserApp\Protocol/CmdProtocol.c **** 	pT += 4;
ARM GAS  C:\Users\Administrator\AppData\Local\Temp\ccX9Bf8z.s 			page 108


1631:Code\UserApp\Protocol/CmdProtocol.c **** 
1632:Code\UserApp\Protocol/CmdProtocol.c **** 	*pT = RetCode;
1633:Code\UserApp\Protocol/CmdProtocol.c **** 	Protocol_SendAckPacket(comm_chanle, PACK_RESP, RecBuf[6], DataBuf, 11);
1634:Code\UserApp\Protocol/CmdProtocol.c **** 	
1635:Code\UserApp\Protocol/CmdProtocol.c **** 	Clear_AllOPeninfo();
1636:Code\UserApp\Protocol/CmdProtocol.c **** 	VoicePlay((uint8)Sound_REG_SUCCESS);
1637:Code\UserApp\Protocol/CmdProtocol.c **** 		
1638:Code\UserApp\Protocol/CmdProtocol.c **** }
1639:Code\UserApp\Protocol/CmdProtocol.c **** 
1640:Code\UserApp\Protocol/CmdProtocol.c **** 
1641:Code\UserApp\Protocol/CmdProtocol.c **** //*************************************************************************************************
1642:Code\UserApp\Protocol/CmdProtocol.c **** // Function name	: Protocol_CmdParse
1643:Code\UserApp\Protocol/CmdProtocol.c **** // Description		: å¯¹æ”¶åˆ°çš„æœåŠ¡å™¨å‘½ä»¤çš„è§£æå¹¶å¤„ç†
1644:Code\UserApp\Protocol/CmdProtocol.c **** // Parameter		: none
1645:Code\UserApp\Protocol/CmdProtocol.c **** // Return			: none
1646:Code\UserApp\Protocol/CmdProtocol.c **** //-------------------------------------------------------------------------------------------------
1647:Code\UserApp\Protocol/CmdProtocol.c **** // Info				: 
1648:Code\UserApp\Protocol/CmdProtocol.c **** //*************************************************************************************************
1649:Code\UserApp\Protocol/CmdProtocol.c **** void Protocol_CmdParse(void)
1650:Code\UserApp\Protocol/CmdProtocol.c **** {
 3710              		.loc 1 1650 0
 3711              		.cfi_startproc
 3712 0000 70B5     		push	{r4, r5, r6, lr}
 3713              		.cfi_def_cfa_offset 16
 3714              		.cfi_offset 4, -16
 3715              		.cfi_offset 5, -12
 3716              		.cfi_offset 6, -8
 3717              		.cfi_offset 14, -4
 3718 0002 4E4C     		ldr	r4, .L192
1651:Code\UserApp\Protocol/CmdProtocol.c **** 	uint8 	TempCmdBuf[DATABUF_SIZE];
1652:Code\UserApp\Protocol/CmdProtocol.c **** 	uint16 	CmdPacketTotalSize;
1653:Code\UserApp\Protocol/CmdProtocol.c **** 	uint16 	TempCrc;
1654:Code\UserApp\Protocol/CmdProtocol.c ****     
1655:Code\UserApp\Protocol/CmdProtocol.c **** 	if (GPRSCmdParseFlag2 == 1)
1656:Code\UserApp\Protocol/CmdProtocol.c **** 	{
1657:Code\UserApp\Protocol/CmdProtocol.c **** 		memcpy(TempCmdBuf, (uint8 *)GPRSCmd_buf2, sizeof(GPRSCmd_buf2));
 3719              		.loc 1 1657 0
 3720 0004 4E4E     		ldr	r6, .L192+4
1650:Code\UserApp\Protocol/CmdProtocol.c **** 	uint8 	TempCmdBuf[DATABUF_SIZE];
 3721              		.loc 1 1650 0
 3722 0006 A544     		add	sp, sp, r4
 3723              		.cfi_def_cfa_offset 1072
1655:Code\UserApp\Protocol/CmdProtocol.c **** 	{
 3724              		.loc 1 1655 0
 3725 0008 4E4C     		ldr	r4, .L192+8
 3726 000a 01AD     		add	r5, sp, #4
 3727 000c 2378     		ldrb	r3, [r4]
 3728 000e 012B     		cmp	r3, #1
 3729 0010 09D0     		beq	.L190
1658:Code\UserApp\Protocol/CmdProtocol.c **** 		DBG_SOFT_PutStr("\nGPRSCmdParseFlag2 chanel\n");
1659:Code\UserApp\Protocol/CmdProtocol.c **** 		DBG_SOFT_PrintfHex(GPRSCmd_buf2, 32, 16);
1660:Code\UserApp\Protocol/CmdProtocol.c **** 		memset((uint8 *)GPRSCmd_buf2, 0, sizeof(GPRSCmd_buf2));
1661:Code\UserApp\Protocol/CmdProtocol.c **** 		GPRSCmdParseFlag2 = 0;
1662:Code\UserApp\Protocol/CmdProtocol.c **** 
1663:Code\UserApp\Protocol/CmdProtocol.c **** 	}
1664:Code\UserApp\Protocol/CmdProtocol.c **** 	else if (GPRSCmdParseFlag1 == 1)
 3730              		.loc 1 1664 0
ARM GAS  C:\Users\Administrator\AppData\Local\Temp\ccX9Bf8z.s 			page 109


 3731 0012 4D4C     		ldr	r4, .L192+12
1665:Code\UserApp\Protocol/CmdProtocol.c **** 	{
1666:Code\UserApp\Protocol/CmdProtocol.c **** 		memcpy(TempCmdBuf, (uint8 *)GPRSCmd_buf1, sizeof(GPRSCmd_buf1));
 3732              		.loc 1 1666 0
 3733 0014 4D4E     		ldr	r6, .L192+16
1664:Code\UserApp\Protocol/CmdProtocol.c **** 	{
 3734              		.loc 1 1664 0
 3735 0016 2378     		ldrb	r3, [r4]
 3736 0018 012B     		cmp	r3, #1
 3737 001a 04D0     		beq	.L190
1667:Code\UserApp\Protocol/CmdProtocol.c **** 		DBG_SOFT_PutStr("\nGPRSCmdParseFlag1 chanel\n");
1668:Code\UserApp\Protocol/CmdProtocol.c **** 		DBG_SOFT_PrintfHex(GPRSCmd_buf1, 32, 16);
1669:Code\UserApp\Protocol/CmdProtocol.c **** 		memset((uint8 *)GPRSCmd_buf1, 0, sizeof(GPRSCmd_buf1));
1670:Code\UserApp\Protocol/CmdProtocol.c **** 		GPRSCmdParseFlag1 = 0;
1671:Code\UserApp\Protocol/CmdProtocol.c **** 
1672:Code\UserApp\Protocol/CmdProtocol.c **** 	}
1673:Code\UserApp\Protocol/CmdProtocol.c **** 	else if (BleCmdValidFlag == 1)
 3738              		.loc 1 1673 0
 3739 001c 4C4C     		ldr	r4, .L192+20
 3740 001e 2378     		ldrb	r3, [r4]
 3741 0020 012B     		cmp	r3, #1
 3742 0022 0CD1     		bne	.L165
1674:Code\UserApp\Protocol/CmdProtocol.c **** 	{
1675:Code\UserApp\Protocol/CmdProtocol.c **** 		memcpy(TempCmdBuf, BleCmdBuf, sizeof(BleCmdBuf));
 3743              		.loc 1 1675 0
 3744 0024 4B4E     		ldr	r6, .L192+24
 3745              	.L190:
 3746 0026 311C     		mov	r1, r6
 3747 0028 4B4A     		ldr	r2, .L192+28
 3748 002a 281C     		mov	r0, r5
 3749 002c FFF7FEFF 		bl	memcpy
 3750              	.LVL483:
1676:Code\UserApp\Protocol/CmdProtocol.c **** 		memset(BleCmdBuf, 0, sizeof(BleCmdBuf));
 3751              		.loc 1 1676 0
 3752 0030 301C     		mov	r0, r6
 3753 0032 0021     		mov	r1, #0
 3754 0034 484A     		ldr	r2, .L192+28
 3755 0036 FFF7FEFF 		bl	memset
 3756              	.LVL484:
1677:Code\UserApp\Protocol/CmdProtocol.c **** 		BleCmdValidFlag = 0;
 3757              		.loc 1 1677 0
 3758 003a 0023     		mov	r3, #0
 3759 003c 2370     		strb	r3, [r4]
 3760              	.L165:
 3761              	.LVL485:
1678:Code\UserApp\Protocol/CmdProtocol.c **** 	}
1679:Code\UserApp\Protocol/CmdProtocol.c **** 	
1680:Code\UserApp\Protocol/CmdProtocol.c **** 	CmdPacketTotalSize = (TempCmdBuf[2] << 8) + TempCmdBuf[3] + 4;
 3762              		.loc 1 1680 0
 3763 003e EC78     		ldrb	r4, [r5, #3]
1681:Code\UserApp\Protocol/CmdProtocol.c **** 	DBG_SOFT_PutStr("\nProtocol_CmdParse-->Cmd:");
1682:Code\UserApp\Protocol/CmdProtocol.c **** 	DBG_SOFT_PrintfHex(TempCmdBuf + 6, 1, 16);
1683:Code\UserApp\Protocol/CmdProtocol.c **** 	//DBG_SOFT_PrintfHex(TempCmdBuf, CmdPacketTotalSize);
1684:Code\UserApp\Protocol/CmdProtocol.c **** 	DBG_SOFT_PrintfHex(TempCmdBuf, CmdPacketTotalSize+4, 16);
1685:Code\UserApp\Protocol/CmdProtocol.c **** 	DBG_SOFT_PutStr("\n");
1686:Code\UserApp\Protocol/CmdProtocol.c **** 	
1687:Code\UserApp\Protocol/CmdProtocol.c **** 	TempCrc = MyCrc16Check(TempCmdBuf, CmdPacketTotalSize - 2);
ARM GAS  C:\Users\Administrator\AppData\Local\Temp\ccX9Bf8z.s 			page 110


 3764              		.loc 1 1687 0
 3765 0040 281C     		mov	r0, r5
 3766 0042 221D     		add	r2, r4, #4
1680:Code\UserApp\Protocol/CmdProtocol.c **** 	DBG_SOFT_PutStr("\nProtocol_CmdParse-->Cmd:");
 3767              		.loc 1 1680 0
 3768 0044 AC78     		ldrb	r4, [r5, #2]
 3769 0046 2302     		lsl	r3, r4, #8
 3770 0048 D418     		add	r4, r2, r3
 3771              		.loc 1 1687 0
 3772 004a A4B2     		uxth	r4, r4
 3773 004c A61E     		sub	r6, r4, #2
 3774 004e 311C     		mov	r1, r6
 3775 0050 FFF7FEFF 		bl	MyCrc16Check
 3776              	.LVL486:
1688:Code\UserApp\Protocol/CmdProtocol.c **** 	if (((TempCmdBuf[CmdPacketTotalSize-2] << 8) + TempCmdBuf[CmdPacketTotalSize - 1]) != TempCrc)
 3777              		.loc 1 1688 0
 3778 0054 2C19     		add	r4, r5, r4
 3779 0056 AB5D     		ldrb	r3, [r5, r6]
 3780 0058 013C     		sub	r4, r4, #1
 3781 005a 2278     		ldrb	r2, [r4]
 3782 005c 1B02     		lsl	r3, r3, #8
 3783 005e 9B18     		add	r3, r3, r2
 3784 0060 80B2     		uxth	r0, r0
 3785 0062 8342     		cmp	r3, r0
 3786 0064 66D1     		bne	.L163
1689:Code\UserApp\Protocol/CmdProtocol.c **** 	{
1690:Code\UserApp\Protocol/CmdProtocol.c **** 		DBG_SOFT_PutStr("\nCrc Err!\n");
1691:Code\UserApp\Protocol/CmdProtocol.c **** 		return;
1692:Code\UserApp\Protocol/CmdProtocol.c **** 	}
1693:Code\UserApp\Protocol/CmdProtocol.c **** 	DBG_SOFT_PutStr("\nCrc Ok!\n");
1694:Code\UserApp\Protocol/CmdProtocol.c **** 	
1695:Code\UserApp\Protocol/CmdProtocol.c **** 	switch (TempCmdBuf[6])
 3787              		.loc 1 1695 0
 3788 0066 AB79     		ldrb	r3, [r5, #6]
 3789 0068 082B     		cmp	r3, #8
 3790 006a 48D0     		beq	.L169
 3791 006c 12D8     		bhi	.L170
 3792 006e 042B     		cmp	r3, #4
 3793 0070 39D0     		beq	.L171
 3794 0072 08D8     		bhi	.L172
 3795 0074 022B     		cmp	r3, #2
 3796 0076 24D0     		beq	.L173
 3797 0078 31D8     		bhi	.L174
 3798 007a 012B     		cmp	r3, #1
 3799 007c 5AD1     		bne	.L163
1696:Code\UserApp\Protocol/CmdProtocol.c **** 	{
1697:Code\UserApp\Protocol/CmdProtocol.c **** 		
1698:Code\UserApp\Protocol/CmdProtocol.c **** 		case CMD_GET_PRESEVER:									// 0x01å‘½ä»¤								//
1699:Code\UserApp\Protocol/CmdProtocol.c **** 			Protocol_CmdGetPreSever(TempCmdBuf);
 3800              		.loc 1 1699 0
 3801 007e 01A8     		add	r0, sp, #4
 3802              	.LVL487:
 3803 0080 FFF7FEFF 		bl	Protocol_CmdGetPreSever
 3804              	.LVL488:
1700:Code\UserApp\Protocol/CmdProtocol.c **** 			break;
 3805              		.loc 1 1700 0
 3806 0084 56E0     		b	.L163
ARM GAS  C:\Users\Administrator\AppData\Local\Temp\ccX9Bf8z.s 			page 111


 3807              	.LVL489:
 3808              	.L172:
1695:Code\UserApp\Protocol/CmdProtocol.c **** 	{
 3809              		.loc 1 1695 0
 3810 0086 062B     		cmp	r3, #6
 3811 0088 31D0     		beq	.L176
 3812 008a 34D8     		bhi	.L191
1701:Code\UserApp\Protocol/CmdProtocol.c **** 		case CMD_GET_MAC_AND_KEY:								// 0x02å‘½ä»¤								//
1702:Code\UserApp\Protocol/CmdProtocol.c **** 			Protocol_CmdGetMacAndKey(TempCmdBuf);
1703:Code\UserApp\Protocol/CmdProtocol.c **** 			break;
1704:Code\UserApp\Protocol/CmdProtocol.c **** 		case CMD_READ_UID:										// 0x03å‘½ä»¤								//
1705:Code\UserApp\Protocol/CmdProtocol.c **** 			Protocol_CmdReadUID(TempCmdBuf);
1706:Code\UserApp\Protocol/CmdProtocol.c **** 			break;
1707:Code\UserApp\Protocol/CmdProtocol.c **** 		case CMD_WRITE_UID:										// 0x04å‘½ä»¤								//
1708:Code\UserApp\Protocol/CmdProtocol.c **** 			Protocol_CmdWriteUID(TempCmdBuf);
1709:Code\UserApp\Protocol/CmdProtocol.c **** 			break;
1710:Code\UserApp\Protocol/CmdProtocol.c **** 		case CMD_DEL_UID:										// 0x05å‘½ä»¤								//
1711:Code\UserApp\Protocol/CmdProtocol.c **** 			Protocol_CmdDelUID(TempCmdBuf);
 3813              		.loc 1 1711 0
 3814 008c 01A8     		add	r0, sp, #4
 3815              	.LVL490:
 3816 008e FFF7FEFF 		bl	Protocol_CmdDelUID
 3817              	.LVL491:
1712:Code\UserApp\Protocol/CmdProtocol.c **** 			break;
 3818              		.loc 1 1712 0
 3819 0092 4FE0     		b	.L163
 3820              	.LVL492:
 3821              	.L170:
1695:Code\UserApp\Protocol/CmdProtocol.c **** 	{
 3822              		.loc 1 1695 0
 3823 0094 0D2B     		cmp	r3, #13
 3824 0096 3ED0     		beq	.L179
 3825 0098 08D8     		bhi	.L180
 3826 009a 0A2B     		cmp	r3, #10
 3827 009c 37D0     		beq	.L181
 3828 009e 32D3     		bcc	.L182
 3829 00a0 0C2B     		cmp	r3, #12
 3830 00a2 47D1     		bne	.L163
1713:Code\UserApp\Protocol/CmdProtocol.c **** 		case CMD_OPEN_DOOR:										// 0x06å‘½ä»¤								//
1714:Code\UserApp\Protocol/CmdProtocol.c **** 			Protocol_CmdOpenDoor(TempCmdBuf);
1715:Code\UserApp\Protocol/CmdProtocol.c **** 			break;
1716:Code\UserApp\Protocol/CmdProtocol.c **** 		case CMD_SEND_OPEN_INFO:								// 0x07å‘½ä»¤								//
1717:Code\UserApp\Protocol/CmdProtocol.c **** 			Protocol_CmdSendOpenInfo(TempCmdBuf);
1718:Code\UserApp\Protocol/CmdProtocol.c **** 			break;
1719:Code\UserApp\Protocol/CmdProtocol.c **** 		case CMD_PLUSE:											// 0x08å‘½ä»¤								//
1720:Code\UserApp\Protocol/CmdProtocol.c **** 			Protocol_CmdPluse(TempCmdBuf);
1721:Code\UserApp\Protocol/CmdProtocol.c **** 			break;
1722:Code\UserApp\Protocol/CmdProtocol.c **** 		case CMD_CLEAR_UID:										// 0x09å‘½ä»¤								//
1723:Code\UserApp\Protocol/CmdProtocol.c **** 			Protocol_CmdClearUID(TempCmdBuf);
1724:Code\UserApp\Protocol/CmdProtocol.c **** 			break;
1725:Code\UserApp\Protocol/CmdProtocol.c **** 		case CMD_TIME_CHECK:									// 0x0Aå‘½ä»¤								//
1726:Code\UserApp\Protocol/CmdProtocol.c **** 			Protocol_CmdTimeCheck(TempCmdBuf);
1727:Code\UserApp\Protocol/CmdProtocol.c **** 			break;
1728:Code\UserApp\Protocol/CmdProtocol.c ****         case CMD_SEND_WARN_INFO:								// 0x0Bå‘½ä»¤								//
1729:Code\UserApp\Protocol/CmdProtocol.c **** 			Protocol_CmdSendWarnInfo(TempCmdBuf);
1730:Code\UserApp\Protocol/CmdProtocol.c **** 			break;
1731:Code\UserApp\Protocol/CmdProtocol.c **** 		case CMD_READ_INFO:										// 0x0Cå‘½ä»¤								//
ARM GAS  C:\Users\Administrator\AppData\Local\Temp\ccX9Bf8z.s 			page 112


1732:Code\UserApp\Protocol/CmdProtocol.c **** 			Protocol_CmdReadInfo(TempCmdBuf);
 3831              		.loc 1 1732 0
 3832 00a4 01A8     		add	r0, sp, #4
 3833              	.LVL493:
 3834 00a6 FFF7FEFF 		bl	Protocol_CmdReadInfo
 3835              	.LVL494:
1733:Code\UserApp\Protocol/CmdProtocol.c **** 			break;
 3836              		.loc 1 1733 0
 3837 00aa 43E0     		b	.L163
 3838              	.LVL495:
 3839              	.L180:
1695:Code\UserApp\Protocol/CmdProtocol.c **** 	{
 3840              		.loc 1 1695 0
 3841 00ac 0F2B     		cmp	r3, #15
 3842 00ae 3AD0     		beq	.L184
 3843 00b0 35D3     		bcc	.L185
 3844 00b2 102B     		cmp	r3, #16
 3845 00b4 3BD0     		beq	.L186
 3846 00b6 F12B     		cmp	r3, #241
 3847 00b8 3CD1     		bne	.L163
1734:Code\UserApp\Protocol/CmdProtocol.c **** 		case CMD_REMOTE_UPDATE:									// 0x0Då‘½ä»¤								//
1735:Code\UserApp\Protocol/CmdProtocol.c **** 			Protocol_CmdRemoteUpdate(TempCmdBuf);
1736:Code\UserApp\Protocol/CmdProtocol.c **** 			break;
1737:Code\UserApp\Protocol/CmdProtocol.c **** 		case CMD_REMOTE_RESTART:								// 0x0Eå‘½ä»¤								//
1738:Code\UserApp\Protocol/CmdProtocol.c **** 			Protocol_CmdRemoteRestart(TempCmdBuf);
1739:Code\UserApp\Protocol/CmdProtocol.c **** 			break;
1740:Code\UserApp\Protocol/CmdProtocol.c **** 		case CMD_DOWNLOAD:										// 0x0Få‘½ä»¤								//
1741:Code\UserApp\Protocol/CmdProtocol.c **** 		    Protocol_CmdRemoteDownload(TempCmdBuf);
1742:Code\UserApp\Protocol/CmdProtocol.c **** 		    break;
1743:Code\UserApp\Protocol/CmdProtocol.c **** 		case CMD_CHANGE_IP:										// 0x10å‘½ä»¤								//
1744:Code\UserApp\Protocol/CmdProtocol.c **** 		    Protocol_CmdChangeIP(TempCmdBuf);
1745:Code\UserApp\Protocol/CmdProtocol.c **** 		    break;
1746:Code\UserApp\Protocol/CmdProtocol.c **** 
1747:Code\UserApp\Protocol/CmdProtocol.c **** 		case CMD_MANUFAC:										// 0xF1å‘½ä»¤								//
1748:Code\UserApp\Protocol/CmdProtocol.c **** 			Protocol_CmdManufac(TempCmdBuf);
 3848              		.loc 1 1748 0
 3849 00ba 01A8     		add	r0, sp, #4
 3850              	.LVL496:
 3851 00bc FFF7FEFF 		bl	Protocol_CmdManufac
 3852              	.LVL497:
1749:Code\UserApp\Protocol/CmdProtocol.c **** 			break;
 3853              		.loc 1 1749 0
 3854 00c0 38E0     		b	.L163
 3855              	.LVL498:
 3856              	.L173:
 3857              	.LBB8:
 3858              	.LBB9:
 688:Code\UserApp\Protocol/CmdProtocol.c **** 	gprs_state = NORMAL_COMM;
 3859              		.loc 1 688 0
 3860 00c2 0122     		mov	r2, #1
 3861 00c4 254B     		ldr	r3, .L192+32
 3862 00c6 1A70     		strb	r2, [r3]
 689:Code\UserApp\Protocol/CmdProtocol.c **** 	gprs_operation_ErrCount = 0;
 3863              		.loc 1 689 0
 3864 00c8 254B     		ldr	r3, .L192+36
 3865 00ca 0432     		add	r2, r2, #4
 3866 00cc 1A70     		strb	r2, [r3]
ARM GAS  C:\Users\Administrator\AppData\Local\Temp\ccX9Bf8z.s 			page 113


 690:Code\UserApp\Protocol/CmdProtocol.c **** 	next_gprs_operation_time = cur_time;
 3867              		.loc 1 690 0
 3868 00ce 0022     		mov	r2, #0
 3869 00d0 244B     		ldr	r3, .L192+40
 3870 00d2 1A70     		strb	r2, [r3]
 691:Code\UserApp\Protocol/CmdProtocol.c **** 	//===ã€ç»“æŸã€‘=== è®¾å¤‡å±‚çš„å¤„ç† ==========================================================
 3871              		.loc 1 691 0
 3872 00d4 244B     		ldr	r3, .L192+44
 3873 00d6 1A68     		ldr	r2, [r3]
 3874 00d8 244B     		ldr	r3, .L192+48
 3875 00da 1A60     		str	r2, [r3]
 3876 00dc 2AE0     		b	.L163
 3877              	.LVL499:
 3878              	.L174:
 3879              	.LBE9:
 3880              	.LBE8:
1705:Code\UserApp\Protocol/CmdProtocol.c **** 			break;
 3881              		.loc 1 1705 0
 3882 00de 01A8     		add	r0, sp, #4
 3883              	.LVL500:
 3884 00e0 FFF7FEFF 		bl	Protocol_CmdReadUID
 3885              	.LVL501:
1706:Code\UserApp\Protocol/CmdProtocol.c **** 		case CMD_WRITE_UID:										// 0x04å‘½ä»¤								//
 3886              		.loc 1 1706 0
 3887 00e4 26E0     		b	.L163
 3888              	.LVL502:
 3889              	.L171:
1708:Code\UserApp\Protocol/CmdProtocol.c **** 			break;
 3890              		.loc 1 1708 0
 3891 00e6 01A8     		add	r0, sp, #4
 3892              	.LVL503:
 3893 00e8 FFF7FEFF 		bl	Protocol_CmdWriteUID
 3894              	.LVL504:
1709:Code\UserApp\Protocol/CmdProtocol.c **** 		case CMD_DEL_UID:										// 0x05å‘½ä»¤								//
 3895              		.loc 1 1709 0
 3896 00ec 22E0     		b	.L163
 3897              	.LVL505:
 3898              	.L176:
1714:Code\UserApp\Protocol/CmdProtocol.c **** 			break;
 3899              		.loc 1 1714 0
 3900 00ee 01A8     		add	r0, sp, #4
 3901              	.LVL506:
 3902 00f0 FFF7FEFF 		bl	Protocol_CmdOpenDoor
 3903              	.LVL507:
1715:Code\UserApp\Protocol/CmdProtocol.c **** 		case CMD_SEND_OPEN_INFO:								// 0x07å‘½ä»¤								//
 3904              		.loc 1 1715 0
 3905 00f4 1EE0     		b	.L163
 3906              	.LVL508:
 3907              	.L191:
1717:Code\UserApp\Protocol/CmdProtocol.c **** 			break;
 3908              		.loc 1 1717 0
 3909 00f6 01A8     		add	r0, sp, #4
 3910              	.LVL509:
 3911 00f8 FFF7FEFF 		bl	Protocol_CmdSendOpenInfo
 3912              	.LVL510:
1718:Code\UserApp\Protocol/CmdProtocol.c **** 		case CMD_PLUSE:											// 0x08å‘½ä»¤								//
 3913              		.loc 1 1718 0
ARM GAS  C:\Users\Administrator\AppData\Local\Temp\ccX9Bf8z.s 			page 114


 3914 00fc 1AE0     		b	.L163
 3915              	.LVL511:
 3916              	.L169:
1720:Code\UserApp\Protocol/CmdProtocol.c **** 			break;
 3917              		.loc 1 1720 0
 3918 00fe 01A8     		add	r0, sp, #4
 3919              	.LVL512:
 3920 0100 FFF7FEFF 		bl	Protocol_CmdPluse
 3921              	.LVL513:
1721:Code\UserApp\Protocol/CmdProtocol.c **** 		case CMD_CLEAR_UID:										// 0x09å‘½ä»¤								//
 3922              		.loc 1 1721 0
 3923 0104 16E0     		b	.L163
 3924              	.LVL514:
 3925              	.L182:
1723:Code\UserApp\Protocol/CmdProtocol.c **** 			break;
 3926              		.loc 1 1723 0
 3927 0106 01A8     		add	r0, sp, #4
 3928              	.LVL515:
 3929 0108 FFF7FEFF 		bl	Protocol_CmdClearUID
 3930              	.LVL516:
1724:Code\UserApp\Protocol/CmdProtocol.c **** 		case CMD_TIME_CHECK:									// 0x0Aå‘½ä»¤								//
 3931              		.loc 1 1724 0
 3932 010c 12E0     		b	.L163
 3933              	.LVL517:
 3934              	.L181:
1726:Code\UserApp\Protocol/CmdProtocol.c **** 			break;
 3935              		.loc 1 1726 0
 3936 010e 01A8     		add	r0, sp, #4
 3937              	.LVL518:
 3938 0110 FFF7FEFF 		bl	Protocol_CmdTimeCheck
 3939              	.LVL519:
1727:Code\UserApp\Protocol/CmdProtocol.c ****         case CMD_SEND_WARN_INFO:								// 0x0Bå‘½ä»¤								//
 3940              		.loc 1 1727 0
 3941 0114 0EE0     		b	.L163
 3942              	.LVL520:
 3943              	.L179:
1735:Code\UserApp\Protocol/CmdProtocol.c **** 			break;
 3944              		.loc 1 1735 0
 3945 0116 01A8     		add	r0, sp, #4
 3946              	.LVL521:
 3947 0118 FFF7FEFF 		bl	Protocol_CmdRemoteUpdate
 3948              	.LVL522:
1736:Code\UserApp\Protocol/CmdProtocol.c **** 		case CMD_REMOTE_RESTART:								// 0x0Eå‘½ä»¤								//
 3949              		.loc 1 1736 0
 3950 011c 0AE0     		b	.L163
 3951              	.LVL523:
 3952              	.L185:
1738:Code\UserApp\Protocol/CmdProtocol.c **** 			break;
 3953              		.loc 1 1738 0
 3954 011e 01A8     		add	r0, sp, #4
 3955              	.LVL524:
 3956 0120 FFF7FEFF 		bl	Protocol_CmdRemoteRestart
 3957              	.LVL525:
1739:Code\UserApp\Protocol/CmdProtocol.c **** 		case CMD_DOWNLOAD:										// 0x0Få‘½ä»¤								//
 3958              		.loc 1 1739 0
 3959 0124 06E0     		b	.L163
 3960              	.LVL526:
ARM GAS  C:\Users\Administrator\AppData\Local\Temp\ccX9Bf8z.s 			page 115


 3961              	.L184:
1741:Code\UserApp\Protocol/CmdProtocol.c **** 		    break;
 3962              		.loc 1 1741 0
 3963 0126 01A8     		add	r0, sp, #4
 3964              	.LVL527:
 3965 0128 FFF7FEFF 		bl	Protocol_CmdRemoteDownload
 3966              	.LVL528:
1742:Code\UserApp\Protocol/CmdProtocol.c **** 		case CMD_CHANGE_IP:										// 0x10å‘½ä»¤								//
 3967              		.loc 1 1742 0
 3968 012c 02E0     		b	.L163
 3969              	.LVL529:
 3970              	.L186:
1744:Code\UserApp\Protocol/CmdProtocol.c **** 		    break;
 3971              		.loc 1 1744 0
 3972 012e 01A8     		add	r0, sp, #4
 3973              	.LVL530:
 3974 0130 FFF7FEFF 		bl	Protocol_CmdChangeIP
 3975              	.LVL531:
 3976              	.L163:
1750:Code\UserApp\Protocol/CmdProtocol.c **** 			
1751:Code\UserApp\Protocol/CmdProtocol.c **** 		default:
1752:Code\UserApp\Protocol/CmdProtocol.c **** 			break;
1753:Code\UserApp\Protocol/CmdProtocol.c **** 	}
1754:Code\UserApp\Protocol/CmdProtocol.c **** 	
1755:Code\UserApp\Protocol/CmdProtocol.c **** 	DBG_PRINTF("leaving %s\n", __FUNCTION__);
1756:Code\UserApp\Protocol/CmdProtocol.c **** }
 3977              		.loc 1 1756 0
 3978 0134 8423     		mov	r3, #132
 3979 0136 DB00     		lsl	r3, r3, #3
 3980 0138 9D44     		add	sp, sp, r3
 3981              		@ sp needed
 3982 013a 70BD     		pop	{r4, r5, r6, pc}
 3983              	.L193:
 3984              		.align	2
 3985              	.L192:
 3986 013c E0FBFFFF 		.word	-1056
 3987 0140 00000000 		.word	GPRSCmd_buf2
 3988 0144 00000000 		.word	GPRSCmdParseFlag2
 3989 0148 00000000 		.word	GPRSCmdParseFlag1
 3990 014c 00000000 		.word	GPRSCmd_buf1
 3991 0150 00000000 		.word	BleCmdValidFlag
 3992 0154 00000000 		.word	BleCmdBuf
 3993 0158 1A040000 		.word	1050
 3994 015c 00000000 		.word	SendMacFlag
 3995 0160 00000000 		.word	gprs_state
 3996 0164 00000000 		.word	gprs_operation_ErrCount
 3997 0168 00000000 		.word	cur_time
 3998 016c 00000000 		.word	next_gprs_operation_time
 3999              		.cfi_endproc
 4000              	.LFE91:
 4001              		.size	Protocol_CmdParse, .-Protocol_CmdParse
 4002              		.section	.text.Protocol_CmdParse_BLE,"ax",%progbits
 4003              		.align	1
 4004              		.global	Protocol_CmdParse_BLE
 4005              		.code	16
 4006              		.thumb_func
 4007              		.type	Protocol_CmdParse_BLE, %function
ARM GAS  C:\Users\Administrator\AppData\Local\Temp\ccX9Bf8z.s 			page 116


 4008              	Protocol_CmdParse_BLE:
 4009              	.LFB92:
1757:Code\UserApp\Protocol/CmdProtocol.c **** 
1758:Code\UserApp\Protocol/CmdProtocol.c **** //*************************************************************************************************
1759:Code\UserApp\Protocol/CmdProtocol.c **** // Function name	: Protocol_CmdParse_BLE
1760:Code\UserApp\Protocol/CmdProtocol.c **** // Description		: å¯¹æ”¶åˆ°çš„æœåŠ¡å™¨å‘½ä»¤çš„è§£æå¹¶å¤„ç†
1761:Code\UserApp\Protocol/CmdProtocol.c **** // Parameter		: none
1762:Code\UserApp\Protocol/CmdProtocol.c **** // Return			: none
1763:Code\UserApp\Protocol/CmdProtocol.c **** //-------------------------------------------------------------------------------------------------
1764:Code\UserApp\Protocol/CmdProtocol.c **** // Info				: 
1765:Code\UserApp\Protocol/CmdProtocol.c **** //*************************************************************************************************
1766:Code\UserApp\Protocol/CmdProtocol.c **** void Protocol_CmdParse_BLE(void)
1767:Code\UserApp\Protocol/CmdProtocol.c **** {
 4010              		.loc 1 1767 0
 4011              		.cfi_startproc
 4012 0000 F0B5     		push	{r4, r5, r6, r7, lr}
 4013              		.cfi_def_cfa_offset 20
 4014              		.cfi_offset 4, -20
 4015              		.cfi_offset 5, -16
 4016              		.cfi_offset 6, -12
 4017              		.cfi_offset 7, -8
 4018              		.cfi_offset 14, -4
1768:Code\UserApp\Protocol/CmdProtocol.c **** 	uint8 	TempCmdBuf[DATABUF_SIZE];
1769:Code\UserApp\Protocol/CmdProtocol.c **** 	uint16 	CmdPacketTotalSize;
1770:Code\UserApp\Protocol/CmdProtocol.c **** 	uint16 	TempCrc;
1771:Code\UserApp\Protocol/CmdProtocol.c ****     
1772:Code\UserApp\Protocol/CmdProtocol.c **** 	if (BleCmdValidFlag == 1)
 4019              		.loc 1 1772 0
 4020 0002 684D     		ldr	r5, .L219
1767:Code\UserApp\Protocol/CmdProtocol.c **** 	uint8 	TempCmdBuf[DATABUF_SIZE];
 4021              		.loc 1 1767 0
 4022 0004 684C     		ldr	r4, .L219+4
 4023              		.loc 1 1772 0
 4024 0006 2B78     		ldrb	r3, [r5]
1767:Code\UserApp\Protocol/CmdProtocol.c **** 	uint8 	TempCmdBuf[DATABUF_SIZE];
 4025              		.loc 1 1767 0
 4026 0008 A544     		add	sp, sp, r4
 4027              		.cfi_def_cfa_offset 1168
 4028 000a 17AC     		add	r4, sp, #92
 4029              		.loc 1 1772 0
 4030 000c 012B     		cmp	r3, #1
 4031 000e 0CD1     		bne	.L195
1773:Code\UserApp\Protocol/CmdProtocol.c **** 	{
1774:Code\UserApp\Protocol/CmdProtocol.c **** 		memcpy(TempCmdBuf, BleCmdBuf, DATABUF_SIZE);
 4032              		.loc 1 1774 0
 4033 0010 664E     		ldr	r6, .L219+8
 4034 0012 674A     		ldr	r2, .L219+12
 4035 0014 311C     		mov	r1, r6
 4036 0016 201C     		mov	r0, r4
 4037 0018 FFF7FEFF 		bl	memcpy
 4038              	.LVL532:
1775:Code\UserApp\Protocol/CmdProtocol.c **** 		memset(BleCmdBuf, 0, DATABUF_SIZE);
 4039              		.loc 1 1775 0
 4040 001c 301C     		mov	r0, r6
 4041 001e 0021     		mov	r1, #0
 4042 0020 634A     		ldr	r2, .L219+12
 4043 0022 FFF7FEFF 		bl	memset
ARM GAS  C:\Users\Administrator\AppData\Local\Temp\ccX9Bf8z.s 			page 117


 4044              	.LVL533:
1776:Code\UserApp\Protocol/CmdProtocol.c **** 		BleCmdValidFlag = 0;
 4045              		.loc 1 1776 0
 4046 0026 0023     		mov	r3, #0
 4047 0028 2B70     		strb	r3, [r5]
 4048              	.L195:
 4049              	.LVL534:
1777:Code\UserApp\Protocol/CmdProtocol.c **** 	}
1778:Code\UserApp\Protocol/CmdProtocol.c **** 	
1779:Code\UserApp\Protocol/CmdProtocol.c **** 	CmdPacketTotalSize = (TempCmdBuf[2] << 8) + TempCmdBuf[3] + 4;
 4050              		.loc 1 1779 0
 4051 002a E578     		ldrb	r5, [r4, #3]
1780:Code\UserApp\Protocol/CmdProtocol.c **** 	DBG_SOFT_PutStr("\nProtocol_CmdParse_BLE-->Cmd:");
1781:Code\UserApp\Protocol/CmdProtocol.c **** 	DBG_SOFT_PrintfHex(TempCmdBuf + 6, 1, 16);
1782:Code\UserApp\Protocol/CmdProtocol.c **** 	//DBG_SOFT_PrintfHex(TempCmdBuf, CmdPacketTotalSize);
1783:Code\UserApp\Protocol/CmdProtocol.c **** 	//DBG_SOFT_PrintfHex(TempCmdBuf, CmdPacketTotalSize, 16);
1784:Code\UserApp\Protocol/CmdProtocol.c **** 	
1785:Code\UserApp\Protocol/CmdProtocol.c **** 	DBG_SOFT_PutStr("\n");
1786:Code\UserApp\Protocol/CmdProtocol.c **** 	
1787:Code\UserApp\Protocol/CmdProtocol.c **** 	TempCrc = MyCrc16Check(TempCmdBuf, CmdPacketTotalSize - 2);
 4052              		.loc 1 1787 0
 4053 002c 201C     		mov	r0, r4
 4054 002e 2A1D     		add	r2, r5, #4
1779:Code\UserApp\Protocol/CmdProtocol.c **** 	DBG_SOFT_PutStr("\nProtocol_CmdParse_BLE-->Cmd:");
 4055              		.loc 1 1779 0
 4056 0030 A578     		ldrb	r5, [r4, #2]
 4057 0032 2B02     		lsl	r3, r5, #8
 4058 0034 D518     		add	r5, r2, r3
 4059              		.loc 1 1787 0
 4060 0036 ADB2     		uxth	r5, r5
 4061 0038 AE1E     		sub	r6, r5, #2
 4062 003a 311C     		mov	r1, r6
 4063 003c FFF7FEFF 		bl	MyCrc16Check
 4064              	.LVL535:
1788:Code\UserApp\Protocol/CmdProtocol.c **** 	if (((TempCmdBuf[CmdPacketTotalSize-2] << 8) + TempCmdBuf[CmdPacketTotalSize - 1]) != TempCrc)
 4065              		.loc 1 1788 0
 4066 0040 6519     		add	r5, r4, r5
 4067 0042 A35D     		ldrb	r3, [r4, r6]
 4068 0044 013D     		sub	r5, r5, #1
 4069 0046 2A78     		ldrb	r2, [r5]
 4070 0048 1B02     		lsl	r3, r3, #8
 4071 004a 9B18     		add	r3, r3, r2
 4072 004c 80B2     		uxth	r0, r0
 4073 004e 8342     		cmp	r3, r0
 4074 0050 00D0     		beq	.LCB3780
 4075 0052 A3E0     		b	.L194	@long jump
 4076              	.LCB3780:
1789:Code\UserApp\Protocol/CmdProtocol.c **** 	{
1790:Code\UserApp\Protocol/CmdProtocol.c **** 		return;
1791:Code\UserApp\Protocol/CmdProtocol.c **** 	}
1792:Code\UserApp\Protocol/CmdProtocol.c **** 	
1793:Code\UserApp\Protocol/CmdProtocol.c **** 	switch (TempCmdBuf[6])
 4077              		.loc 1 1793 0
 4078 0054 A379     		ldrb	r3, [r4, #6]
 4079 0056 092B     		cmp	r3, #9
 4080 0058 00D1     		bne	.LCB3784
 4081 005a 84E0     		b	.L198	@long jump
ARM GAS  C:\Users\Administrator\AppData\Local\Temp\ccX9Bf8z.s 			page 118


 4082              	.LCB3784:
 4083 005c 18D8     		bhi	.L199
 4084 005e 042B     		cmp	r3, #4
 4085 0060 71D0     		beq	.L200
 4086 0062 09D8     		bhi	.L201
 4087 0064 022B     		cmp	r3, #2
 4088 0066 5CD0     		beq	.L202
 4089 0068 69D8     		bhi	.L203
 4090 006a 012B     		cmp	r3, #1
 4091 006c 00D0     		beq	.LCB3796
 4092 006e 95E0     		b	.L194	@long jump
 4093              	.LCB3796:
1794:Code\UserApp\Protocol/CmdProtocol.c **** 	{
1795:Code\UserApp\Protocol/CmdProtocol.c **** 		case CMD_GET_PRESEVER:									// 0x01å‘½ä»¤								//
1796:Code\UserApp\Protocol/CmdProtocol.c **** 			Protocol_CmdGetPreSever(TempCmdBuf);
 4094              		.loc 1 1796 0
 4095 0070 17A8     		add	r0, sp, #92
 4096              	.LVL536:
 4097 0072 FFF7FEFF 		bl	Protocol_CmdGetPreSever
 4098              	.LVL537:
1797:Code\UserApp\Protocol/CmdProtocol.c **** 			break;
 4099              		.loc 1 1797 0
 4100 0076 91E0     		b	.L194
 4101              	.LVL538:
 4102              	.L201:
1793:Code\UserApp\Protocol/CmdProtocol.c **** 	{
 4103              		.loc 1 1793 0
 4104 0078 062B     		cmp	r3, #6
 4105 007a 6CD0     		beq	.L205
 4106 007c 67D3     		bcc	.L206
 4107 007e 072B     		cmp	r3, #7
 4108 0080 6DD0     		beq	.L207
 4109 0082 082B     		cmp	r3, #8
 4110 0084 00D0     		beq	.LCB3813
 4111 0086 89E0     		b	.L194	@long jump
 4112              	.LCB3813:
1798:Code\UserApp\Protocol/CmdProtocol.c **** 		case CMD_GET_MAC_AND_KEY:								// 0x02å‘½ä»¤								//
1799:Code\UserApp\Protocol/CmdProtocol.c **** 			Protocol_CmdGetMacAndKey(TempCmdBuf);
1800:Code\UserApp\Protocol/CmdProtocol.c **** 			break;
1801:Code\UserApp\Protocol/CmdProtocol.c **** 		case CMD_READ_UID:										// 0x03å‘½ä»¤								//
1802:Code\UserApp\Protocol/CmdProtocol.c **** 			Protocol_CmdReadUID(TempCmdBuf);
1803:Code\UserApp\Protocol/CmdProtocol.c **** 			break;
1804:Code\UserApp\Protocol/CmdProtocol.c **** 		case CMD_WRITE_UID:										// 0x04å‘½ä»¤								//
1805:Code\UserApp\Protocol/CmdProtocol.c **** 			Protocol_CmdWriteUID(TempCmdBuf);
1806:Code\UserApp\Protocol/CmdProtocol.c **** 			break;
1807:Code\UserApp\Protocol/CmdProtocol.c **** 		case CMD_DEL_UID:										// 0x05å‘½ä»¤								//
1808:Code\UserApp\Protocol/CmdProtocol.c **** 			Protocol_CmdDelUID(TempCmdBuf);
1809:Code\UserApp\Protocol/CmdProtocol.c **** 			break;
1810:Code\UserApp\Protocol/CmdProtocol.c **** 		case CMD_OPEN_DOOR:										// 0x06å‘½ä»¤								//
1811:Code\UserApp\Protocol/CmdProtocol.c **** 			Protocol_CmdOpenDoor(TempCmdBuf);
1812:Code\UserApp\Protocol/CmdProtocol.c **** 			break;
1813:Code\UserApp\Protocol/CmdProtocol.c **** 		case CMD_SEND_OPEN_INFO:								// 0x07å‘½ä»¤								//
1814:Code\UserApp\Protocol/CmdProtocol.c **** 			Protocol_CmdSendOpenInfo(TempCmdBuf);
1815:Code\UserApp\Protocol/CmdProtocol.c **** 			break;
1816:Code\UserApp\Protocol/CmdProtocol.c **** 		case CMD_PLUSE:											// 0x08å‘½ä»¤								//
1817:Code\UserApp\Protocol/CmdProtocol.c **** 			Protocol_CmdPluse(TempCmdBuf);
 4113              		.loc 1 1817 0
ARM GAS  C:\Users\Administrator\AppData\Local\Temp\ccX9Bf8z.s 			page 119


 4114 0088 17A8     		add	r0, sp, #92
 4115              	.LVL539:
 4116 008a FFF7FEFF 		bl	Protocol_CmdPluse
 4117              	.LVL540:
1818:Code\UserApp\Protocol/CmdProtocol.c **** 			break;
 4118              		.loc 1 1818 0
 4119 008e 85E0     		b	.L194
 4120              	.LVL541:
 4121              	.L199:
1793:Code\UserApp\Protocol/CmdProtocol.c **** 	{
 4122              		.loc 1 1793 0
 4123 0090 0E2B     		cmp	r3, #14
 4124 0092 74D0     		beq	.L209
 4125 0094 08D8     		bhi	.L210
 4126 0096 0C2B     		cmp	r3, #12
 4127 0098 69D0     		beq	.L211
 4128 009a 6CD8     		bhi	.L212
 4129 009c 0A2B     		cmp	r3, #10
 4130 009e 7DD1     		bne	.L194
1819:Code\UserApp\Protocol/CmdProtocol.c **** 		case CMD_CLEAR_UID:										// 0x09å‘½ä»¤								//
1820:Code\UserApp\Protocol/CmdProtocol.c **** 			Protocol_CmdClearUID(TempCmdBuf);
1821:Code\UserApp\Protocol/CmdProtocol.c **** 			break;
1822:Code\UserApp\Protocol/CmdProtocol.c **** 		case CMD_TIME_CHECK:									// 0x0Aå‘½ä»¤								//
1823:Code\UserApp\Protocol/CmdProtocol.c **** 			Protocol_CmdTimeCheck(TempCmdBuf);
 4131              		.loc 1 1823 0
 4132 00a0 17A8     		add	r0, sp, #92
 4133              	.LVL542:
 4134 00a2 FFF7FEFF 		bl	Protocol_CmdTimeCheck
 4135              	.LVL543:
1824:Code\UserApp\Protocol/CmdProtocol.c **** 			break;
 4136              		.loc 1 1824 0
 4137 00a6 79E0     		b	.L194
 4138              	.LVL544:
 4139              	.L210:
1793:Code\UserApp\Protocol/CmdProtocol.c **** 	{
 4140              		.loc 1 1793 0
 4141 00a8 102B     		cmp	r3, #16
 4142 00aa 70D0     		beq	.L214
 4143 00ac 6BD3     		bcc	.L215
 4144 00ae F12B     		cmp	r3, #241
 4145 00b0 71D0     		beq	.L216
 4146 00b2 F22B     		cmp	r3, #242
 4147 00b4 72D1     		bne	.L194
 4148              	.LVL545:
 4149              	.LBB14:
 4150              	.LBB15:
1622:Code\UserApp\Protocol/CmdProtocol.c **** 	
 4151              		.loc 1 1622 0
 4152 00b6 C921     		mov	r1, #201
1615:Code\UserApp\Protocol/CmdProtocol.c **** 	uint8 RetCode = RT_SUCC;
 4153              		.loc 1 1615 0
 4154 00b8 0027     		mov	r7, #0
1619:Code\UserApp\Protocol/CmdProtocol.c **** 	uint16 nCmdPackLen;
 4155              		.loc 1 1619 0
 4156 00ba 2379     		ldrb	r3, [r4, #4]
1615:Code\UserApp\Protocol/CmdProtocol.c **** 	uint8 RetCode = RT_SUCC;
 4157              		.loc 1 1615 0
ARM GAS  C:\Users\Administrator\AppData\Local\Temp\ccX9Bf8z.s 			page 120


 4158 00bc 05A8     		add	r0, sp, #20
 4159              	.LVL546:
1622:Code\UserApp\Protocol/CmdProtocol.c **** 	
 4160              		.loc 1 1622 0
 4161 00be 4902     		lsl	r1, r1, #9
 4162 00c0 0622     		mov	r2, #6
1615:Code\UserApp\Protocol/CmdProtocol.c **** 	uint8 RetCode = RT_SUCC;
 4163              		.loc 1 1615 0
 4164 00c2 8780     		strh	r7, [r0, #4]
 4165              	.LVL547:
1619:Code\UserApp\Protocol/CmdProtocol.c **** 	uint16 nCmdPackLen;
 4166              		.loc 1 1619 0
 4167 00c4 0393     		str	r3, [sp, #12]
 4168              	.LVL548:
1615:Code\UserApp\Protocol/CmdProtocol.c **** 	uint8 RetCode = RT_SUCC;
 4169              		.loc 1 1615 0
 4170 00c6 0597     		str	r7, [sp, #20]
1622:Code\UserApp\Protocol/CmdProtocol.c **** 	
 4171              		.loc 1 1622 0
 4172 00c8 FFF7FEFF 		bl	W25QXX_Read
 4173              	.LVL549:
1624:Code\UserApp\Protocol/CmdProtocol.c **** 	 
 4174              		.loc 1 1624 0
 4175 00cc E578     		ldrb	r5, [r4, #3]
1626:Code\UserApp\Protocol/CmdProtocol.c ****     memcpy(pT, RecBuf + 7, 6);									// å–å‡ºMACåœ°å€							//
 4176              		.loc 1 1626 0
 4177 00ce 07AE     		add	r6, sp, #28
 4178              	.LVL550:
 4179 00d0 291D     		add	r1, r5, #4
1624:Code\UserApp\Protocol/CmdProtocol.c **** 	 
 4180              		.loc 1 1624 0
 4181 00d2 A578     		ldrb	r5, [r4, #2]
1626:Code\UserApp\Protocol/CmdProtocol.c ****     memcpy(pT, RecBuf + 7, 6);									// å–å‡ºMACåœ°å€							//
 4182              		.loc 1 1626 0
 4183 00d4 301C     		mov	r0, r6
1624:Code\UserApp\Protocol/CmdProtocol.c **** 	 
 4184              		.loc 1 1624 0
 4185 00d6 2B02     		lsl	r3, r5, #8
 4186 00d8 CD18     		add	r5, r1, r3
1626:Code\UserApp\Protocol/CmdProtocol.c ****     memcpy(pT, RecBuf + 7, 6);									// å–å‡ºMACåœ°å€							//
 4187              		.loc 1 1626 0
 4188 00da 4022     		mov	r2, #64
 4189 00dc 391C     		mov	r1, r7
 4190 00de FFF7FEFF 		bl	memset
 4191              	.LVL551:
1627:Code\UserApp\Protocol/CmdProtocol.c ****     pT += 6; 
 4192              		.loc 1 1627 0
 4193 00e2 5B21     		mov	r1, #91
 4194 00e4 02AB     		add	r3, sp, #8
 4195 00e6 C918     		add	r1, r1, r3
 4196 00e8 301C     		mov	r0, r6
 4197 00ea 0622     		mov	r2, #6
 4198 00ec FFF7FEFF 		bl	memcpy
 4199              	.LVL552:
1629:Code\UserApp\Protocol/CmdProtocol.c **** 	pT += 4;
 4200              		.loc 1 1629 0
 4201 00f0 1A20     		mov	r0, #26
ARM GAS  C:\Users\Administrator\AppData\Local\Temp\ccX9Bf8z.s 			page 121


1624:Code\UserApp\Protocol/CmdProtocol.c **** 	 
 4202              		.loc 1 1624 0
 4203 00f2 ADB2     		uxth	r5, r5
 4204              	.LVL553:
1629:Code\UserApp\Protocol/CmdProtocol.c **** 	pT += 4;
 4205              		.loc 1 1629 0
 4206 00f4 17AB     		add	r3, sp, #92
 4207 00f6 A91F     		sub	r1, r5, #6
 4208 00f8 5918     		add	r1, r3, r1
 4209 00fa 02AB     		add	r3, sp, #8
 4210 00fc C018     		add	r0, r0, r3
 4211 00fe 0422     		mov	r2, #4
 4212 0100 FFF7FEFF 		bl	memcpy
 4213              	.LVL554:
1632:Code\UserApp\Protocol/CmdProtocol.c **** 	Protocol_SendAckPacket(comm_chanle, PACK_RESP, RecBuf[6], DataBuf, 11);
 4214              		.loc 1 1632 0
 4215 0104 0121     		mov	r1, #1
1633:Code\UserApp\Protocol/CmdProtocol.c **** 	
 4216              		.loc 1 1633 0
 4217 0106 0B23     		mov	r3, #11
1632:Code\UserApp\Protocol/CmdProtocol.c **** 	Protocol_SendAckPacket(comm_chanle, PACK_RESP, RecBuf[6], DataBuf, 11);
 4218              		.loc 1 1632 0
 4219 0108 B172     		strb	r1, [r6, #10]
1633:Code\UserApp\Protocol/CmdProtocol.c **** 	
 4220              		.loc 1 1633 0
 4221 010a A279     		ldrb	r2, [r4, #6]
 4222 010c 0398     		ldr	r0, [sp, #12]
 4223 010e 0093     		str	r3, [sp]
 4224 0110 331C     		mov	r3, r6
 4225 0112 FFF7FEFF 		bl	Protocol_SendAckPacket
 4226              	.LVL555:
1635:Code\UserApp\Protocol/CmdProtocol.c **** 	VoicePlay((uint8)Sound_REG_SUCCESS);
 4227              		.loc 1 1635 0
 4228 0116 FFF7FEFF 		bl	Clear_AllOPeninfo
 4229              	.LVL556:
1636:Code\UserApp\Protocol/CmdProtocol.c **** 		
 4230              		.loc 1 1636 0
 4231 011a 0420     		mov	r0, #4
 4232 011c FFF7FEFF 		bl	VoicePlay
 4233              	.LVL557:
 4234 0120 3CE0     		b	.L194
 4235              	.LVL558:
 4236              	.L202:
 4237              	.LBE15:
 4238              	.LBE14:
 4239              	.LBB16:
 4240              	.LBB17:
 688:Code\UserApp\Protocol/CmdProtocol.c **** 	gprs_state = NORMAL_COMM;
 4241              		.loc 1 688 0
 4242 0122 0122     		mov	r2, #1
 4243 0124 234B     		ldr	r3, .L219+16
 4244 0126 1A70     		strb	r2, [r3]
 689:Code\UserApp\Protocol/CmdProtocol.c **** 	gprs_operation_ErrCount = 0;
 4245              		.loc 1 689 0
 4246 0128 234B     		ldr	r3, .L219+20
 4247 012a 0432     		add	r2, r2, #4
 4248 012c 1A70     		strb	r2, [r3]
ARM GAS  C:\Users\Administrator\AppData\Local\Temp\ccX9Bf8z.s 			page 122


 690:Code\UserApp\Protocol/CmdProtocol.c **** 	next_gprs_operation_time = cur_time;
 4249              		.loc 1 690 0
 4250 012e 0022     		mov	r2, #0
 4251 0130 224B     		ldr	r3, .L219+24
 4252 0132 1A70     		strb	r2, [r3]
 691:Code\UserApp\Protocol/CmdProtocol.c **** 	//===ã€ç»“æŸã€‘=== è®¾å¤‡å±‚çš„å¤„ç† ==========================================================
 4253              		.loc 1 691 0
 4254 0134 224B     		ldr	r3, .L219+28
 4255 0136 1A68     		ldr	r2, [r3]
 4256 0138 224B     		ldr	r3, .L219+32
 4257 013a 1A60     		str	r2, [r3]
 4258 013c 2EE0     		b	.L194
 4259              	.LVL559:
 4260              	.L203:
 4261              	.LBE17:
 4262              	.LBE16:
1802:Code\UserApp\Protocol/CmdProtocol.c **** 			break;
 4263              		.loc 1 1802 0
 4264 013e 17A8     		add	r0, sp, #92
 4265              	.LVL560:
 4266 0140 FFF7FEFF 		bl	Protocol_CmdReadUID
 4267              	.LVL561:
1803:Code\UserApp\Protocol/CmdProtocol.c **** 		case CMD_WRITE_UID:										// 0x04å‘½ä»¤								//
 4268              		.loc 1 1803 0
 4269 0144 2AE0     		b	.L194
 4270              	.LVL562:
 4271              	.L200:
1805:Code\UserApp\Protocol/CmdProtocol.c **** 			break;
 4272              		.loc 1 1805 0
 4273 0146 17A8     		add	r0, sp, #92
 4274              	.LVL563:
 4275 0148 FFF7FEFF 		bl	Protocol_CmdWriteUID
 4276              	.LVL564:
1806:Code\UserApp\Protocol/CmdProtocol.c **** 		case CMD_DEL_UID:										// 0x05å‘½ä»¤								//
 4277              		.loc 1 1806 0
 4278 014c 26E0     		b	.L194
 4279              	.LVL565:
 4280              	.L206:
1808:Code\UserApp\Protocol/CmdProtocol.c **** 			break;
 4281              		.loc 1 1808 0
 4282 014e 17A8     		add	r0, sp, #92
 4283              	.LVL566:
 4284 0150 FFF7FEFF 		bl	Protocol_CmdDelUID
 4285              	.LVL567:
1809:Code\UserApp\Protocol/CmdProtocol.c **** 		case CMD_OPEN_DOOR:										// 0x06å‘½ä»¤								//
 4286              		.loc 1 1809 0
 4287 0154 22E0     		b	.L194
 4288              	.LVL568:
 4289              	.L205:
1811:Code\UserApp\Protocol/CmdProtocol.c **** 			break;
 4290              		.loc 1 1811 0
 4291 0156 17A8     		add	r0, sp, #92
 4292              	.LVL569:
 4293 0158 FFF7FEFF 		bl	Protocol_CmdOpenDoor
 4294              	.LVL570:
1812:Code\UserApp\Protocol/CmdProtocol.c **** 		case CMD_SEND_OPEN_INFO:								// 0x07å‘½ä»¤								//
 4295              		.loc 1 1812 0
ARM GAS  C:\Users\Administrator\AppData\Local\Temp\ccX9Bf8z.s 			page 123


 4296 015c 1EE0     		b	.L194
 4297              	.LVL571:
 4298              	.L207:
1814:Code\UserApp\Protocol/CmdProtocol.c **** 			break;
 4299              		.loc 1 1814 0
 4300 015e 17A8     		add	r0, sp, #92
 4301              	.LVL572:
 4302 0160 FFF7FEFF 		bl	Protocol_CmdSendOpenInfo
 4303              	.LVL573:
1815:Code\UserApp\Protocol/CmdProtocol.c **** 		case CMD_PLUSE:											// 0x08å‘½ä»¤								//
 4304              		.loc 1 1815 0
 4305 0164 1AE0     		b	.L194
 4306              	.LVL574:
 4307              	.L198:
1820:Code\UserApp\Protocol/CmdProtocol.c **** 			break;
 4308              		.loc 1 1820 0
 4309 0166 17A8     		add	r0, sp, #92
 4310              	.LVL575:
 4311 0168 FFF7FEFF 		bl	Protocol_CmdClearUID
 4312              	.LVL576:
1821:Code\UserApp\Protocol/CmdProtocol.c **** 		case CMD_TIME_CHECK:									// 0x0Aå‘½ä»¤								//
 4313              		.loc 1 1821 0
 4314 016c 16E0     		b	.L194
 4315              	.LVL577:
 4316              	.L211:
1825:Code\UserApp\Protocol/CmdProtocol.c ****         case CMD_SEND_WARN_INFO:								// 0x0Bå‘½ä»¤								//
1826:Code\UserApp\Protocol/CmdProtocol.c **** 			Protocol_CmdSendWarnInfo(TempCmdBuf);
1827:Code\UserApp\Protocol/CmdProtocol.c **** 			break;
1828:Code\UserApp\Protocol/CmdProtocol.c **** 		case CMD_READ_INFO:										// 0x0Cå‘½ä»¤								//
1829:Code\UserApp\Protocol/CmdProtocol.c **** 			Protocol_CmdReadInfo(TempCmdBuf);
 4317              		.loc 1 1829 0
 4318 016e 17A8     		add	r0, sp, #92
 4319              	.LVL578:
 4320 0170 FFF7FEFF 		bl	Protocol_CmdReadInfo
 4321              	.LVL579:
1830:Code\UserApp\Protocol/CmdProtocol.c **** 			break;
 4322              		.loc 1 1830 0
 4323 0174 12E0     		b	.L194
 4324              	.LVL580:
 4325              	.L212:
1831:Code\UserApp\Protocol/CmdProtocol.c **** 		case CMD_REMOTE_UPDATE:									// 0x0Då‘½ä»¤								//
1832:Code\UserApp\Protocol/CmdProtocol.c **** 			Protocol_CmdRemoteUpdate(TempCmdBuf);
 4326              		.loc 1 1832 0
 4327 0176 17A8     		add	r0, sp, #92
 4328              	.LVL581:
 4329 0178 FFF7FEFF 		bl	Protocol_CmdRemoteUpdate
 4330              	.LVL582:
1833:Code\UserApp\Protocol/CmdProtocol.c **** 			break;
 4331              		.loc 1 1833 0
 4332 017c 0EE0     		b	.L194
 4333              	.LVL583:
 4334              	.L209:
1834:Code\UserApp\Protocol/CmdProtocol.c **** 		case CMD_REMOTE_RESTART:								// 0x0Eå‘½ä»¤								//
1835:Code\UserApp\Protocol/CmdProtocol.c **** 			Protocol_CmdRemoteRestart(TempCmdBuf);
 4335              		.loc 1 1835 0
 4336 017e 17A8     		add	r0, sp, #92
 4337              	.LVL584:
ARM GAS  C:\Users\Administrator\AppData\Local\Temp\ccX9Bf8z.s 			page 124


 4338 0180 FFF7FEFF 		bl	Protocol_CmdRemoteRestart
 4339              	.LVL585:
1836:Code\UserApp\Protocol/CmdProtocol.c **** 			break;
 4340              		.loc 1 1836 0
 4341 0184 0AE0     		b	.L194
 4342              	.LVL586:
 4343              	.L215:
1837:Code\UserApp\Protocol/CmdProtocol.c **** 		case CMD_DOWNLOAD:										// 0x0Få‘½ä»¤								//
1838:Code\UserApp\Protocol/CmdProtocol.c **** 		    Protocol_CmdRemoteDownload(TempCmdBuf);
 4344              		.loc 1 1838 0
 4345 0186 17A8     		add	r0, sp, #92
 4346              	.LVL587:
 4347 0188 FFF7FEFF 		bl	Protocol_CmdRemoteDownload
 4348              	.LVL588:
1839:Code\UserApp\Protocol/CmdProtocol.c **** 		    break;
 4349              		.loc 1 1839 0
 4350 018c 06E0     		b	.L194
 4351              	.LVL589:
 4352              	.L214:
1840:Code\UserApp\Protocol/CmdProtocol.c **** 		case CMD_CHANGE_IP:										// 0x10å‘½ä»¤								//
1841:Code\UserApp\Protocol/CmdProtocol.c **** 		    Protocol_CmdChangeIP(TempCmdBuf);
 4353              		.loc 1 1841 0
 4354 018e 17A8     		add	r0, sp, #92
 4355              	.LVL590:
 4356 0190 FFF7FEFF 		bl	Protocol_CmdChangeIP
 4357              	.LVL591:
1842:Code\UserApp\Protocol/CmdProtocol.c **** 		    break;	
 4358              		.loc 1 1842 0
 4359 0194 02E0     		b	.L194
 4360              	.LVL592:
 4361              	.L216:
1843:Code\UserApp\Protocol/CmdProtocol.c **** 		
1844:Code\UserApp\Protocol/CmdProtocol.c **** 		case CMD_MANUFAC:										// 0xF1å‘½ä»¤								//
1845:Code\UserApp\Protocol/CmdProtocol.c **** 			Protocol_CmdManufac(TempCmdBuf);
 4362              		.loc 1 1845 0
 4363 0196 17A8     		add	r0, sp, #92
 4364              	.LVL593:
 4365 0198 FFF7FEFF 		bl	Protocol_CmdManufac
 4366              	.LVL594:
 4367              	.L194:
1846:Code\UserApp\Protocol/CmdProtocol.c **** 		break;	
1847:Code\UserApp\Protocol/CmdProtocol.c **** 			
1848:Code\UserApp\Protocol/CmdProtocol.c **** 		case CMD_CLROPENDATA:									// 0xF2å‘½ä»¤								//
1849:Code\UserApp\Protocol/CmdProtocol.c **** 			Protocol_ClrOpenData_Qty(TempCmdBuf);	
1850:Code\UserApp\Protocol/CmdProtocol.c **** 		break;	
1851:Code\UserApp\Protocol/CmdProtocol.c **** 			
1852:Code\UserApp\Protocol/CmdProtocol.c **** 	    default:
1853:Code\UserApp\Protocol/CmdProtocol.c ****             break;
1854:Code\UserApp\Protocol/CmdProtocol.c **** 	}
1855:Code\UserApp\Protocol/CmdProtocol.c **** 	
1856:Code\UserApp\Protocol/CmdProtocol.c **** 	DBG_PRINTF("leaving %s\n", __FUNCTION__);
1857:Code\UserApp\Protocol/CmdProtocol.c **** }
 4368              		.loc 1 1857 0
 4369 019c 0A4B     		ldr	r3, .L219+36
 4370 019e 9D44     		add	sp, sp, r3
 4371              		@ sp needed
 4372 01a0 F0BD     		pop	{r4, r5, r6, r7, pc}
ARM GAS  C:\Users\Administrator\AppData\Local\Temp\ccX9Bf8z.s 			page 125


 4373              	.L220:
 4374 01a2 C046     		.align	2
 4375              	.L219:
 4376 01a4 00000000 		.word	BleCmdValidFlag
 4377 01a8 84FBFFFF 		.word	-1148
 4378 01ac 00000000 		.word	BleCmdBuf
 4379 01b0 1A040000 		.word	1050
 4380 01b4 00000000 		.word	SendMacFlag
 4381 01b8 00000000 		.word	gprs_state
 4382 01bc 00000000 		.word	gprs_operation_ErrCount
 4383 01c0 00000000 		.word	cur_time
 4384 01c4 00000000 		.word	next_gprs_operation_time
 4385 01c8 7C040000 		.word	1148
 4386              		.cfi_endproc
 4387              	.LFE92:
 4388              		.size	Protocol_CmdParse_BLE, .-Protocol_CmdParse_BLE
 4389              		.comm	UploadStartnum,2,2
 4390              		.comm	UploadQty,2,2
 4391              		.comm	ADCResultCenter,1,1
 4392              		.text
 4393              	.Letext0:
 4394              		.file 2 "c:\\program files (x86)\\cypress\\psoc creator\\4.0\\psoc creator\\import\\gnu\\arm\\4.9.
 4395              		.file 3 "c:\\program files (x86)\\cypress\\psoc creator\\4.0\\psoc creator\\import\\gnu\\arm\\4.9.
 4396              		.file 4 "Generated_Source\\PSoC4/cytypes.h"
 4397              		.file 5 "c:\\program files (x86)\\cypress\\psoc creator\\4.0\\psoc creator\\import\\gnu\\arm\\4.9.
 4398              		.file 6 "./OTAMandatory.h"
 4399              		.file 7 ".\\Code\\Common/config.h"
 4400              		.file 8 ".\\Code\\Device\\W25Q80/user_data.h"
 4401              		.file 9 ".\\Code\\Device\\BLE/Bluetooth.h"
 4402              		.file 10 ".\\Code\\Device\\FM175XX\\LPCD/lpcd_api.h"
 4403              		.file 11 ".\\Code\\Device\\RTC/UserRTC.h"
 4404              		.file 12 ".\\Code\\Device\\W25Q80/w25qxx.h"
 4405              		.file 13 ".\\Code\\UserApp\\Voice/voice.h"
 4406              		.file 14 "c:\\program files (x86)\\cypress\\psoc creator\\4.0\\psoc creator\\import\\gnu\\arm\\4.9
 4407              		.file 15 ".\\Code\\Common/crc16check.h"
 4408              		.file 16 ".\\Code\\Device\\GPRS/AtProtocol.h"
 4409              		.file 17 ".\\Code\\Device\\FM175XX/card.h"
 4410              		.file 18 "Generated_Source\\PSoC4/RTC.h"
 4411              		.section	.debug_info,"",%progbits
 4412              	.Ldebug_info0:
 4413 0000 442A0000 		.4byte	0x2a44
 4414 0004 0400     		.2byte	0x4
 4415 0006 00000000 		.4byte	.Ldebug_abbrev0
 4416 000a 04       		.byte	0x4
 4417 000b 01       		.uleb128 0x1
 4418 000c D40A0000 		.4byte	.LASF262
 4419 0010 01       		.byte	0x1
 4420 0011 A2110000 		.4byte	.LASF263
 4421 0015 3E0D0000 		.4byte	.LASF264
 4422 0019 00000000 		.4byte	.Ldebug_ranges0+0
 4423 001d 00000000 		.4byte	0
 4424 0021 00000000 		.4byte	.Ldebug_line0
 4425 0025 02       		.uleb128 0x2
 4426 0026 02       		.byte	0x2
 4427 0027 07       		.byte	0x7
 4428 0028 86110000 		.4byte	.LASF0
 4429 002c 02       		.uleb128 0x2
ARM GAS  C:\Users\Administrator\AppData\Local\Temp\ccX9Bf8z.s 			page 126


 4430 002d 01       		.byte	0x1
 4431 002e 06       		.byte	0x6
 4432 002f A1030000 		.4byte	.LASF1
 4433 0033 03       		.uleb128 0x3
 4434 0034 7D020000 		.4byte	.LASF4
 4435 0038 02       		.byte	0x2
 4436 0039 1D       		.byte	0x1d
 4437 003a 3E000000 		.4byte	0x3e
 4438 003e 02       		.uleb128 0x2
 4439 003f 01       		.byte	0x1
 4440 0040 08       		.byte	0x8
 4441 0041 08040000 		.4byte	.LASF2
 4442 0045 02       		.uleb128 0x2
 4443 0046 02       		.byte	0x2
 4444 0047 05       		.byte	0x5
 4445 0048 8B0F0000 		.4byte	.LASF3
 4446 004c 03       		.uleb128 0x3
 4447 004d 6E050000 		.4byte	.LASF5
 4448 0051 02       		.byte	0x2
 4449 0052 2B       		.byte	0x2b
 4450 0053 25000000 		.4byte	0x25
 4451 0057 02       		.uleb128 0x2
 4452 0058 04       		.byte	0x4
 4453 0059 05       		.byte	0x5
 4454 005a F9020000 		.4byte	.LASF6
 4455 005e 03       		.uleb128 0x3
 4456 005f 0A090000 		.4byte	.LASF7
 4457 0063 02       		.byte	0x2
 4458 0064 41       		.byte	0x41
 4459 0065 69000000 		.4byte	0x69
 4460 0069 02       		.uleb128 0x2
 4461 006a 04       		.byte	0x4
 4462 006b 07       		.byte	0x7
 4463 006c C1070000 		.4byte	.LASF8
 4464 0070 02       		.uleb128 0x2
 4465 0071 08       		.byte	0x8
 4466 0072 05       		.byte	0x5
 4467 0073 15090000 		.4byte	.LASF9
 4468 0077 02       		.uleb128 0x2
 4469 0078 08       		.byte	0x8
 4470 0079 07       		.byte	0x7
 4471 007a 0A0D0000 		.4byte	.LASF10
 4472 007e 04       		.uleb128 0x4
 4473 007f 04       		.byte	0x4
 4474 0080 05       		.byte	0x5
 4475 0081 696E7400 		.ascii	"int\000"
 4476 0085 02       		.uleb128 0x2
 4477 0086 04       		.byte	0x4
 4478 0087 07       		.byte	0x7
 4479 0088 0D0A0000 		.4byte	.LASF11
 4480 008c 03       		.uleb128 0x3
 4481 008d AD030000 		.4byte	.LASF12
 4482 0091 03       		.byte	0x3
 4483 0092 15       		.byte	0x15
 4484 0093 33000000 		.4byte	0x33
 4485 0097 03       		.uleb128 0x3
 4486 0098 A50D0000 		.4byte	.LASF13
ARM GAS  C:\Users\Administrator\AppData\Local\Temp\ccX9Bf8z.s 			page 127


 4487 009c 03       		.byte	0x3
 4488 009d 21       		.byte	0x21
 4489 009e 4C000000 		.4byte	0x4c
 4490 00a2 03       		.uleb128 0x3
 4491 00a3 E8100000 		.4byte	.LASF14
 4492 00a7 03       		.byte	0x3
 4493 00a8 2D       		.byte	0x2d
 4494 00a9 5E000000 		.4byte	0x5e
 4495 00ad 05       		.uleb128 0x5
 4496 00ae 5C0F0000 		.4byte	.LASF15
 4497 00b2 04       		.byte	0x4
 4498 00b3 B901     		.2byte	0x1b9
 4499 00b5 3E000000 		.4byte	0x3e
 4500 00b9 05       		.uleb128 0x5
 4501 00ba D3120000 		.4byte	.LASF16
 4502 00be 04       		.byte	0x4
 4503 00bf BA01     		.2byte	0x1ba
 4504 00c1 25000000 		.4byte	0x25
 4505 00c5 05       		.uleb128 0x5
 4506 00c6 FB000000 		.4byte	.LASF17
 4507 00ca 04       		.byte	0x4
 4508 00cb BB01     		.2byte	0x1bb
 4509 00cd 69000000 		.4byte	0x69
 4510 00d1 02       		.uleb128 0x2
 4511 00d2 04       		.byte	0x4
 4512 00d3 04       		.byte	0x4
 4513 00d4 A4090000 		.4byte	.LASF18
 4514 00d8 02       		.uleb128 0x2
 4515 00d9 08       		.byte	0x8
 4516 00da 04       		.byte	0x4
 4517 00db 53090000 		.4byte	.LASF19
 4518 00df 05       		.uleb128 0x5
 4519 00e0 F2020000 		.4byte	.LASF20
 4520 00e4 04       		.byte	0x4
 4521 00e5 C501     		.2byte	0x1c5
 4522 00e7 77000000 		.4byte	0x77
 4523 00eb 02       		.uleb128 0x2
 4524 00ec 01       		.byte	0x1
 4525 00ed 08       		.byte	0x8
 4526 00ee 01050000 		.4byte	.LASF21
 4527 00f2 06       		.uleb128 0x6
 4528 00f3 AD000000 		.4byte	0xad
 4529 00f7 06       		.uleb128 0x6
 4530 00f8 B9000000 		.4byte	0xb9
 4531 00fc 06       		.uleb128 0x6
 4532 00fd C5000000 		.4byte	0xc5
 4533 0101 03       		.uleb128 0x3
 4534 0102 12000000 		.4byte	.LASF22
 4535 0106 05       		.byte	0x5
 4536 0107 D4       		.byte	0xd4
 4537 0108 85000000 		.4byte	0x85
 4538 010c 02       		.uleb128 0x2
 4539 010d 04       		.byte	0x4
 4540 010e 07       		.byte	0x7
 4541 010f 2E000000 		.4byte	.LASF23
 4542 0113 07       		.uleb128 0x7
 4543 0114 04       		.byte	0x4
ARM GAS  C:\Users\Administrator\AppData\Local\Temp\ccX9Bf8z.s 			page 128


 4544 0115 08       		.uleb128 0x8
 4545 0116 04       		.byte	0x4
 4546 0117 1B010000 		.4byte	0x11b
 4547 011b 09       		.uleb128 0x9
 4548 011c EB000000 		.4byte	0xeb
 4549 0120 08       		.uleb128 0x8
 4550 0121 04       		.byte	0x4
 4551 0122 AD000000 		.4byte	0xad
 4552 0126 0A       		.uleb128 0xa
 4553 0127 AD000000 		.4byte	0xad
 4554 012b 36010000 		.4byte	0x136
 4555 012f 0B       		.uleb128 0xb
 4556 0130 0C010000 		.4byte	0x10c
 4557 0134 05       		.byte	0x5
 4558 0135 00       		.byte	0
 4559 0136 0C       		.uleb128 0xc
 4560 0137 01       		.byte	0x1
 4561 0138 06       		.byte	0x6
 4562 0139 3A01     		.2byte	0x13a
 4563 013b BC020000 		.4byte	0x2bc
 4564 013f 0D       		.uleb128 0xd
 4565 0140 57050000 		.4byte	.LASF24
 4566 0144 00       		.sleb128 0
 4567 0145 0D       		.uleb128 0xd
 4568 0146 0D030000 		.4byte	.LASF25
 4569 014a 01       		.sleb128 1
 4570 014b 0D       		.uleb128 0xd
 4571 014c 2C0D0000 		.4byte	.LASF26
 4572 0150 02       		.sleb128 2
 4573 0151 0D       		.uleb128 0xd
 4574 0152 B5030000 		.4byte	.LASF27
 4575 0156 03       		.sleb128 3
 4576 0157 0D       		.uleb128 0xd
 4577 0158 07120000 		.4byte	.LASF28
 4578 015c 04       		.sleb128 4
 4579 015d 0D       		.uleb128 0xd
 4580 015e 24080000 		.4byte	.LASF29
 4581 0162 05       		.sleb128 5
 4582 0163 0D       		.uleb128 0xd
 4583 0164 29100000 		.4byte	.LASF30
 4584 0168 20       		.sleb128 32
 4585 0169 0D       		.uleb128 0xd
 4586 016a 20020000 		.4byte	.LASF31
 4587 016e 21       		.sleb128 33
 4588 016f 0D       		.uleb128 0xd
 4589 0170 E6080000 		.4byte	.LASF32
 4590 0174 22       		.sleb128 34
 4591 0175 0D       		.uleb128 0xd
 4592 0176 EB0B0000 		.4byte	.LASF33
 4593 017a 23       		.sleb128 35
 4594 017b 0D       		.uleb128 0xd
 4595 017c 4F070000 		.4byte	.LASF34
 4596 0180 24       		.sleb128 36
 4597 0181 0D       		.uleb128 0xd
 4598 0182 74070000 		.4byte	.LASF35
 4599 0186 25       		.sleb128 37
 4600 0187 0D       		.uleb128 0xd
ARM GAS  C:\Users\Administrator\AppData\Local\Temp\ccX9Bf8z.s 			page 129


 4601 0188 340F0000 		.4byte	.LASF36
 4602 018c 26       		.sleb128 38
 4603 018d 0D       		.uleb128 0xd
 4604 018e 9C000000 		.4byte	.LASF37
 4605 0192 27       		.sleb128 39
 4606 0193 0D       		.uleb128 0xd
 4607 0194 7D120000 		.4byte	.LASF38
 4608 0198 28       		.sleb128 40
 4609 0199 0D       		.uleb128 0xd
 4610 019a 960C0000 		.4byte	.LASF39
 4611 019e 29       		.sleb128 41
 4612 019f 0D       		.uleb128 0xd
 4613 01a0 72080000 		.4byte	.LASF40
 4614 01a4 2A       		.sleb128 42
 4615 01a5 0D       		.uleb128 0xd
 4616 01a6 890B0000 		.4byte	.LASF41
 4617 01aa 2B       		.sleb128 43
 4618 01ab 0D       		.uleb128 0xd
 4619 01ac 15110000 		.4byte	.LASF42
 4620 01b0 2C       		.sleb128 44
 4621 01b1 0D       		.uleb128 0xd
 4622 01b2 C90F0000 		.4byte	.LASF43
 4623 01b6 C000     		.sleb128 64
 4624 01b8 0D       		.uleb128 0xd
 4625 01b9 BB000000 		.4byte	.LASF44
 4626 01bd C100     		.sleb128 65
 4627 01bf 0D       		.uleb128 0xd
 4628 01c0 1C120000 		.4byte	.LASF45
 4629 01c4 C200     		.sleb128 66
 4630 01c6 0D       		.uleb128 0xd
 4631 01c7 BF0C0000 		.4byte	.LASF46
 4632 01cb C300     		.sleb128 67
 4633 01cd 0D       		.uleb128 0xd
 4634 01ce 16040000 		.4byte	.LASF47
 4635 01d2 C400     		.sleb128 68
 4636 01d4 0D       		.uleb128 0xd
 4637 01d5 E1030000 		.4byte	.LASF48
 4638 01d9 C500     		.sleb128 69
 4639 01db 0D       		.uleb128 0xd
 4640 01dc 8D0E0000 		.4byte	.LASF49
 4641 01e0 C600     		.sleb128 70
 4642 01e2 0D       		.uleb128 0xd
 4643 01e3 6F0E0000 		.4byte	.LASF50
 4644 01e7 C700     		.sleb128 71
 4645 01e9 0D       		.uleb128 0xd
 4646 01ea 9D040000 		.4byte	.LASF51
 4647 01ee C800     		.sleb128 72
 4648 01f0 0D       		.uleb128 0xd
 4649 01f1 240C0000 		.4byte	.LASF52
 4650 01f5 C900     		.sleb128 73
 4651 01f7 0D       		.uleb128 0xd
 4652 01f8 79050000 		.4byte	.LASF53
 4653 01fc CA00     		.sleb128 74
 4654 01fe 0D       		.uleb128 0xd
 4655 01ff 15050000 		.4byte	.LASF54
 4656 0203 CB00     		.sleb128 75
 4657 0205 0D       		.uleb128 0xd
ARM GAS  C:\Users\Administrator\AppData\Local\Temp\ccX9Bf8z.s 			page 130


 4658 0206 BC0B0000 		.4byte	.LASF55
 4659 020a CC00     		.sleb128 76
 4660 020c 0D       		.uleb128 0xd
 4661 020d C90E0000 		.4byte	.LASF56
 4662 0211 CD00     		.sleb128 77
 4663 0213 0D       		.uleb128 0xd
 4664 0214 B7020000 		.4byte	.LASF57
 4665 0218 CE00     		.sleb128 78
 4666 021a 0D       		.uleb128 0xd
 4667 021b 320A0000 		.4byte	.LASF58
 4668 021f CF00     		.sleb128 79
 4669 0221 0D       		.uleb128 0xd
 4670 0222 0A100000 		.4byte	.LASF59
 4671 0226 D000     		.sleb128 80
 4672 0228 0D       		.uleb128 0xd
 4673 0229 97050000 		.4byte	.LASF60
 4674 022d D100     		.sleb128 81
 4675 022f 0D       		.uleb128 0xd
 4676 0230 FF010000 		.4byte	.LASF61
 4677 0234 D200     		.sleb128 82
 4678 0236 0D       		.uleb128 0xd
 4679 0237 C7100000 		.4byte	.LASF62
 4680 023b D300     		.sleb128 83
 4681 023d 0D       		.uleb128 0xd
 4682 023e B2120000 		.4byte	.LASF63
 4683 0242 D400     		.sleb128 84
 4684 0244 0D       		.uleb128 0xd
 4685 0245 61010000 		.4byte	.LASF64
 4686 0249 D500     		.sleb128 85
 4687 024b 0D       		.uleb128 0xd
 4688 024c DC050000 		.4byte	.LASF65
 4689 0250 D600     		.sleb128 86
 4690 0252 0D       		.uleb128 0xd
 4691 0253 C0090000 		.4byte	.LASF66
 4692 0257 D700     		.sleb128 87
 4693 0259 0D       		.uleb128 0xd
 4694 025a 55110000 		.4byte	.LASF67
 4695 025e F000     		.sleb128 112
 4696 0260 0D       		.uleb128 0xd
 4697 0261 D8060000 		.4byte	.LASF68
 4698 0265 F100     		.sleb128 113
 4699 0267 0D       		.uleb128 0xd
 4700 0268 85030000 		.4byte	.LASF69
 4701 026c F200     		.sleb128 114
 4702 026e 0D       		.uleb128 0xd
 4703 026f EC0F0000 		.4byte	.LASF70
 4704 0273 F300     		.sleb128 115
 4705 0275 0D       		.uleb128 0xd
 4706 0276 470C0000 		.4byte	.LASF71
 4707 027a F400     		.sleb128 116
 4708 027c 0D       		.uleb128 0xd
 4709 027d BA080000 		.4byte	.LASF72
 4710 0281 F500     		.sleb128 117
 4711 0283 0D       		.uleb128 0xd
 4712 0284 7C040000 		.4byte	.LASF73
 4713 0288 F600     		.sleb128 118
 4714 028a 0D       		.uleb128 0xd
ARM GAS  C:\Users\Administrator\AppData\Local\Temp\ccX9Bf8z.s 			page 131


 4715 028b C70D0000 		.4byte	.LASF74
 4716 028f F700     		.sleb128 119
 4717 0291 0D       		.uleb128 0xd
 4718 0292 85010000 		.4byte	.LASF75
 4719 0296 F800     		.sleb128 120
 4720 0298 0D       		.uleb128 0xd
 4721 0299 59040000 		.4byte	.LASF76
 4722 029d F900     		.sleb128 121
 4723 029f 0D       		.uleb128 0xd
 4724 02a0 3A120000 		.4byte	.LASF77
 4725 02a4 FA00     		.sleb128 122
 4726 02a6 0D       		.uleb128 0xd
 4727 02a7 5A090000 		.4byte	.LASF78
 4728 02ab FA01     		.sleb128 250
 4729 02ad 0D       		.uleb128 0xd
 4730 02ae 97100000 		.4byte	.LASF79
 4731 02b2 FB01     		.sleb128 251
 4732 02b4 0D       		.uleb128 0xd
 4733 02b5 7B0B0000 		.4byte	.LASF80
 4734 02b9 FF01     		.sleb128 255
 4735 02bb 00       		.byte	0
 4736 02bc 0C       		.uleb128 0xc
 4737 02bd 01       		.byte	0x1
 4738 02be 06       		.byte	0x6
 4739 02bf 3905     		.2byte	0x539
 4740 02c1 02030000 		.4byte	0x302
 4741 02c5 0D       		.uleb128 0xd
 4742 02c6 EE0C0000 		.4byte	.LASF81
 4743 02ca 00       		.sleb128 0
 4744 02cb 0D       		.uleb128 0xd
 4745 02cc 3C060000 		.4byte	.LASF82
 4746 02d0 01       		.sleb128 1
 4747 02d1 0D       		.uleb128 0xd
 4748 02d2 50080000 		.4byte	.LASF83
 4749 02d6 02       		.sleb128 2
 4750 02d7 0D       		.uleb128 0xd
 4751 02d8 20030000 		.4byte	.LASF84
 4752 02dc 03       		.sleb128 3
 4753 02dd 0D       		.uleb128 0xd
 4754 02de E8010000 		.4byte	.LASF85
 4755 02e2 04       		.sleb128 4
 4756 02e3 0D       		.uleb128 0xd
 4757 02e4 C5050000 		.4byte	.LASF86
 4758 02e8 05       		.sleb128 5
 4759 02e9 0D       		.uleb128 0xd
 4760 02ea 58060000 		.4byte	.LASF87
 4761 02ee 06       		.sleb128 6
 4762 02ef 0D       		.uleb128 0xd
 4763 02f0 7F0A0000 		.4byte	.LASF88
 4764 02f4 07       		.sleb128 7
 4765 02f5 0D       		.uleb128 0xd
 4766 02f6 35090000 		.4byte	.LASF89
 4767 02fa 08       		.sleb128 8
 4768 02fb 0D       		.uleb128 0xd
 4769 02fc 19000000 		.4byte	.LASF90
 4770 0300 09       		.sleb128 9
 4771 0301 00       		.byte	0
ARM GAS  C:\Users\Administrator\AppData\Local\Temp\ccX9Bf8z.s 			page 132


 4772 0302 03       		.uleb128 0x3
 4773 0303 B4080000 		.4byte	.LASF91
 4774 0307 07       		.byte	0x7
 4775 0308 13       		.byte	0x13
 4776 0309 3E000000 		.4byte	0x3e
 4777 030d 0E       		.uleb128 0xe
 4778 030e 3D0C0000 		.4byte	.LASF95
 4779 0312 0C       		.byte	0xc
 4780 0313 08       		.byte	0x8
 4781 0314 1C       		.byte	0x1c
 4782 0315 32030000 		.4byte	0x332
 4783 0319 0F       		.uleb128 0xf
 4784 031a 6B070000 		.4byte	.LASF92
 4785 031e 08       		.byte	0x8
 4786 031f 1E       		.byte	0x1e
 4787 0320 32030000 		.4byte	0x332
 4788 0324 00       		.byte	0
 4789 0325 0F       		.uleb128 0xf
 4790 0326 BF0A0000 		.4byte	.LASF93
 4791 032a 08       		.byte	0x8
 4792 032b 1F       		.byte	0x1f
 4793 032c 42030000 		.4byte	0x342
 4794 0330 08       		.byte	0x8
 4795 0331 00       		.byte	0
 4796 0332 0A       		.uleb128 0xa
 4797 0333 AD000000 		.4byte	0xad
 4798 0337 42030000 		.4byte	0x342
 4799 033b 0B       		.uleb128 0xb
 4800 033c 0C010000 		.4byte	0x10c
 4801 0340 07       		.byte	0x7
 4802 0341 00       		.byte	0
 4803 0342 0A       		.uleb128 0xa
 4804 0343 AD000000 		.4byte	0xad
 4805 0347 52030000 		.4byte	0x352
 4806 034b 0B       		.uleb128 0xb
 4807 034c 0C010000 		.4byte	0x10c
 4808 0350 03       		.byte	0x3
 4809 0351 00       		.byte	0
 4810 0352 03       		.uleb128 0x3
 4811 0353 B30C0000 		.4byte	.LASF94
 4812 0357 08       		.byte	0x8
 4813 0358 20       		.byte	0x20
 4814 0359 0D030000 		.4byte	0x30d
 4815 035d 0E       		.uleb128 0xe
 4816 035e A70A0000 		.4byte	.LASF96
 4817 0362 10       		.byte	0x10
 4818 0363 08       		.byte	0x8
 4819 0364 22       		.byte	0x22
 4820 0365 8E030000 		.4byte	0x38e
 4821 0369 0F       		.uleb128 0xf
 4822 036a 6B070000 		.4byte	.LASF92
 4823 036e 08       		.byte	0x8
 4824 036f 24       		.byte	0x24
 4825 0370 32030000 		.4byte	0x332
 4826 0374 00       		.byte	0
 4827 0375 0F       		.uleb128 0xf
 4828 0376 13070000 		.4byte	.LASF97
ARM GAS  C:\Users\Administrator\AppData\Local\Temp\ccX9Bf8z.s 			page 133


 4829 037a 08       		.byte	0x8
 4830 037b 25       		.byte	0x25
 4831 037c 42030000 		.4byte	0x342
 4832 0380 08       		.byte	0x8
 4833 0381 0F       		.uleb128 0xf
 4834 0382 F7040000 		.4byte	.LASF98
 4835 0386 08       		.byte	0x8
 4836 0387 26       		.byte	0x26
 4837 0388 42030000 		.4byte	0x342
 4838 038c 0C       		.byte	0xc
 4839 038d 00       		.byte	0
 4840 038e 03       		.uleb128 0x3
 4841 038f 9D070000 		.4byte	.LASF99
 4842 0393 08       		.byte	0x8
 4843 0394 27       		.byte	0x27
 4844 0395 5D030000 		.4byte	0x35d
 4845 0399 10       		.uleb128 0x10
 4846 039a FE050000 		.4byte	.LASF102
 4847 039e 01       		.byte	0x1
 4848 039f 9E02     		.2byte	0x29e
 4849 03a1 01       		.byte	0x1
 4850 03a2 CB030000 		.4byte	0x3cb
 4851 03a6 11       		.uleb128 0x11
 4852 03a7 5B020000 		.4byte	.LASF104
 4853 03ab 01       		.byte	0x1
 4854 03ac 9E02     		.2byte	0x29e
 4855 03ae 20010000 		.4byte	0x120
 4856 03b2 12       		.uleb128 0x12
 4857 03b3 AE060000 		.4byte	.LASF100
 4858 03b7 01       		.byte	0x1
 4859 03b8 A002     		.2byte	0x2a0
 4860 03ba 26010000 		.4byte	0x126
 4861 03be 12       		.uleb128 0x12
 4862 03bf DD0C0000 		.4byte	.LASF101
 4863 03c3 01       		.byte	0x1
 4864 03c4 A102     		.2byte	0x2a1
 4865 03c6 20010000 		.4byte	0x120
 4866 03ca 00       		.byte	0
 4867 03cb 10       		.uleb128 0x10
 4868 03cc AE0D0000 		.4byte	.LASF103
 4869 03d0 01       		.byte	0x1
 4870 03d1 8804     		.2byte	0x488
 4871 03d3 01       		.byte	0x1
 4872 03d4 FD030000 		.4byte	0x3fd
 4873 03d8 11       		.uleb128 0x11
 4874 03d9 5B020000 		.4byte	.LASF104
 4875 03dd 01       		.byte	0x1
 4876 03de 8804     		.2byte	0x488
 4877 03e0 20010000 		.4byte	0x120
 4878 03e4 12       		.uleb128 0x12
 4879 03e5 DD0C0000 		.4byte	.LASF101
 4880 03e9 01       		.byte	0x1
 4881 03ea 8A04     		.2byte	0x48a
 4882 03ec 20010000 		.4byte	0x120
 4883 03f0 12       		.uleb128 0x12
 4884 03f1 EF000000 		.4byte	.LASF105
 4885 03f5 01       		.byte	0x1
ARM GAS  C:\Users\Administrator\AppData\Local\Temp\ccX9Bf8z.s 			page 134


 4886 03f6 8B04     		.2byte	0x48b
 4887 03f8 AD000000 		.4byte	0xad
 4888 03fc 00       		.byte	0
 4889 03fd 13       		.uleb128 0x13
 4890 03fe A9070000 		.4byte	.LASF109
 4891 0402 01       		.byte	0x1
 4892 0403 6502     		.2byte	0x265
 4893 0405 00000000 		.4byte	.LFB73
 4894 0409 AC000000 		.4byte	.LFE73-.LFB73
 4895 040d 01       		.uleb128 0x1
 4896 040e 9C       		.byte	0x9c
 4897 040f A8040000 		.4byte	0x4a8
 4898 0413 14       		.uleb128 0x14
 4899 0414 5B020000 		.4byte	.LASF104
 4900 0418 01       		.byte	0x1
 4901 0419 6502     		.2byte	0x265
 4902 041b 20010000 		.4byte	0x120
 4903 041f 00000000 		.4byte	.LLST0
 4904 0423 15       		.uleb128 0x15
 4905 0424 DD0C0000 		.4byte	.LASF101
 4906 0428 01       		.byte	0x1
 4907 0429 6702     		.2byte	0x267
 4908 042b 20010000 		.4byte	0x120
 4909 042f 45000000 		.4byte	.LLST1
 4910 0433 15       		.uleb128 0x15
 4911 0434 2B0F0000 		.4byte	.LASF106
 4912 0438 01       		.byte	0x1
 4913 0439 6802     		.2byte	0x268
 4914 043b A8040000 		.4byte	0x4a8
 4915 043f AB000000 		.4byte	.LLST2
 4916 0443 15       		.uleb128 0x15
 4917 0444 9E0F0000 		.4byte	.LASF107
 4918 0448 01       		.byte	0x1
 4919 0449 6902     		.2byte	0x269
 4920 044b B8040000 		.4byte	0x4b8
 4921 044f FE000000 		.4byte	.LLST3
 4922 0453 15       		.uleb128 0x15
 4923 0454 62020000 		.4byte	.LASF108
 4924 0458 01       		.byte	0x1
 4925 0459 6A02     		.2byte	0x26a
 4926 045b B9000000 		.4byte	0xb9
 4927 045f 64010000 		.4byte	.LLST4
 4928 0463 16       		.uleb128 0x16
 4929 0464 12000000 		.4byte	.LVL3
 4930 0468 82270000 		.4byte	0x2782
 4931 046c 83040000 		.4byte	0x483
 4932 0470 17       		.uleb128 0x17
 4933 0471 01       		.uleb128 0x1
 4934 0472 52       		.byte	0x52
 4935 0473 02       		.uleb128 0x2
 4936 0474 08       		.byte	0x8
 4937 0475 C8       		.byte	0xc8
 4938 0476 17       		.uleb128 0x17
 4939 0477 01       		.uleb128 0x1
 4940 0478 51       		.byte	0x51
 4941 0479 02       		.uleb128 0x2
 4942 047a 76       		.byte	0x76
ARM GAS  C:\Users\Administrator\AppData\Local\Temp\ccX9Bf8z.s 			page 135


 4943 047b 0D       		.sleb128 13
 4944 047c 17       		.uleb128 0x17
 4945 047d 01       		.uleb128 0x1
 4946 047e 50       		.byte	0x50
 4947 047f 02       		.uleb128 0x2
 4948 0480 75       		.byte	0x75
 4949 0481 00       		.sleb128 0
 4950 0482 00       		.byte	0
 4951 0483 16       		.uleb128 0x16
 4952 0484 72000000 		.4byte	.LVL16
 4953 0488 A6270000 		.4byte	0x27a6
 4954 048c 97040000 		.4byte	0x497
 4955 0490 17       		.uleb128 0x17
 4956 0491 01       		.uleb128 0x1
 4957 0492 50       		.byte	0x50
 4958 0493 02       		.uleb128 0x2
 4959 0494 75       		.byte	0x75
 4960 0495 00       		.sleb128 0
 4961 0496 00       		.byte	0
 4962 0497 18       		.uleb128 0x18
 4963 0498 7C000000 		.4byte	.LVL17
 4964 049c 82270000 		.4byte	0x2782
 4965 04a0 17       		.uleb128 0x17
 4966 04a1 01       		.uleb128 0x1
 4967 04a2 51       		.byte	0x51
 4968 04a3 02       		.uleb128 0x2
 4969 04a4 75       		.byte	0x75
 4970 04a5 00       		.sleb128 0
 4971 04a6 00       		.byte	0
 4972 04a7 00       		.byte	0
 4973 04a8 0A       		.uleb128 0xa
 4974 04a9 AD000000 		.4byte	0xad
 4975 04ad B8040000 		.4byte	0x4b8
 4976 04b1 0B       		.uleb128 0xb
 4977 04b2 0C010000 		.4byte	0x10c
 4978 04b6 01       		.byte	0x1
 4979 04b7 00       		.byte	0
 4980 04b8 0A       		.uleb128 0xa
 4981 04b9 AD000000 		.4byte	0xad
 4982 04bd C8040000 		.4byte	0x4c8
 4983 04c1 0B       		.uleb128 0xb
 4984 04c2 0C010000 		.4byte	0x10c
 4985 04c6 04       		.byte	0x4
 4986 04c7 00       		.byte	0
 4987 04c8 19       		.uleb128 0x19
 4988 04c9 29010000 		.4byte	.LASF110
 4989 04cd 01       		.byte	0x1
 4990 04ce FF03     		.2byte	0x3ff
 4991 04d0 00000000 		.4byte	.LFB79
 4992 04d4 38000000 		.4byte	.LFE79-.LFB79
 4993 04d8 01       		.uleb128 0x1
 4994 04d9 9C       		.byte	0x9c
 4995 04da 7E050000 		.4byte	0x57e
 4996 04de 14       		.uleb128 0x14
 4997 04df 5B020000 		.4byte	.LASF104
 4998 04e3 01       		.byte	0x1
 4999 04e4 FF03     		.2byte	0x3ff
ARM GAS  C:\Users\Administrator\AppData\Local\Temp\ccX9Bf8z.s 			page 136


 5000 04e6 20010000 		.4byte	0x120
 5001 04ea 77010000 		.4byte	.LLST5
 5002 04ee 1A       		.uleb128 0x1a
 5003 04ef F1100000 		.4byte	.LASF111
 5004 04f3 01       		.byte	0x1
 5005 04f4 0204     		.2byte	0x402
 5006 04f6 42030000 		.4byte	0x342
 5007 04fa 02       		.uleb128 0x2
 5008 04fb 91       		.byte	0x91
 5009 04fc 70       		.sleb128 -16
 5010 04fd 1A       		.uleb128 0x1a
 5011 04fe 0A080000 		.4byte	.LASF112
 5012 0502 01       		.byte	0x1
 5013 0503 0304     		.2byte	0x403
 5014 0505 42030000 		.4byte	0x342
 5015 0509 02       		.uleb128 0x2
 5016 050a 91       		.byte	0x91
 5017 050b 74       		.sleb128 -12
 5018 050c 15       		.uleb128 0x15
 5019 050d B90E0000 		.4byte	.LASF113
 5020 0511 01       		.byte	0x1
 5021 0512 0404     		.2byte	0x404
 5022 0514 AD000000 		.4byte	0xad
 5023 0518 A3010000 		.4byte	.LLST6
 5024 051c 16       		.uleb128 0x16
 5025 051d 10000000 		.4byte	.LVL20
 5026 0521 82270000 		.4byte	0x2782
 5027 0525 3B050000 		.4byte	0x53b
 5028 0529 17       		.uleb128 0x17
 5029 052a 01       		.uleb128 0x1
 5030 052b 52       		.byte	0x52
 5031 052c 01       		.uleb128 0x1
 5032 052d 34       		.byte	0x34
 5033 052e 17       		.uleb128 0x17
 5034 052f 01       		.uleb128 0x1
 5035 0530 51       		.byte	0x51
 5036 0531 02       		.uleb128 0x2
 5037 0532 74       		.byte	0x74
 5038 0533 16       		.sleb128 22
 5039 0534 17       		.uleb128 0x17
 5040 0535 01       		.uleb128 0x1
 5041 0536 50       		.byte	0x50
 5042 0537 02       		.uleb128 0x2
 5043 0538 7D       		.byte	0x7d
 5044 0539 00       		.sleb128 0
 5045 053a 00       		.byte	0
 5046 053b 16       		.uleb128 0x16
 5047 053c 1C000000 		.4byte	.LVL21
 5048 0540 82270000 		.4byte	0x2782
 5049 0544 5A050000 		.4byte	0x55a
 5050 0548 17       		.uleb128 0x17
 5051 0549 01       		.uleb128 0x1
 5052 054a 52       		.byte	0x52
 5053 054b 01       		.uleb128 0x1
 5054 054c 34       		.byte	0x34
 5055 054d 17       		.uleb128 0x17
 5056 054e 01       		.uleb128 0x1
ARM GAS  C:\Users\Administrator\AppData\Local\Temp\ccX9Bf8z.s 			page 137


 5057 054f 51       		.byte	0x51
 5058 0550 02       		.uleb128 0x2
 5059 0551 74       		.byte	0x74
 5060 0552 1A       		.sleb128 26
 5061 0553 17       		.uleb128 0x17
 5062 0554 01       		.uleb128 0x1
 5063 0555 50       		.byte	0x50
 5064 0556 02       		.uleb128 0x2
 5065 0557 91       		.byte	0x91
 5066 0558 74       		.sleb128 -12
 5067 0559 00       		.byte	0
 5068 055a 16       		.uleb128 0x16
 5069 055b 2A000000 		.4byte	.LVL22
 5070 055f BB270000 		.4byte	0x27bb
 5071 0563 74050000 		.4byte	0x574
 5072 0567 17       		.uleb128 0x17
 5073 0568 01       		.uleb128 0x1
 5074 0569 51       		.byte	0x51
 5075 056a 02       		.uleb128 0x2
 5076 056b 91       		.byte	0x91
 5077 056c 74       		.sleb128 -12
 5078 056d 17       		.uleb128 0x17
 5079 056e 01       		.uleb128 0x1
 5080 056f 50       		.byte	0x50
 5081 0570 02       		.uleb128 0x2
 5082 0571 7D       		.byte	0x7d
 5083 0572 00       		.sleb128 0
 5084 0573 00       		.byte	0
 5085 0574 1B       		.uleb128 0x1b
 5086 0575 2E000000 		.4byte	.LVL23
 5087 0579 D1270000 		.4byte	0x27d1
 5088 057d 00       		.byte	0
 5089 057e 19       		.uleb128 0x19
 5090 057f 180E0000 		.4byte	.LASF114
 5091 0583 01       		.byte	0x1
 5092 0584 7104     		.2byte	0x471
 5093 0586 00000000 		.4byte	.LFB82
 5094 058a 24000000 		.4byte	.LFE82-.LFB82
 5095 058e 01       		.uleb128 0x1
 5096 058f 9C       		.byte	0x9c
 5097 0590 03060000 		.4byte	0x603
 5098 0594 14       		.uleb128 0x14
 5099 0595 5B020000 		.4byte	.LASF104
 5100 0599 01       		.byte	0x1
 5101 059a 7104     		.2byte	0x471
 5102 059c 20010000 		.4byte	0x120
 5103 05a0 C3010000 		.4byte	.LLST7
 5104 05a4 15       		.uleb128 0x15
 5105 05a5 DD0C0000 		.4byte	.LASF101
 5106 05a9 01       		.byte	0x1
 5107 05aa 7304     		.2byte	0x473
 5108 05ac 20010000 		.4byte	0x120
 5109 05b0 F1010000 		.4byte	.LLST8
 5110 05b4 1A       		.uleb128 0x1a
 5111 05b5 590E0000 		.4byte	.LASF115
 5112 05b9 01       		.byte	0x1
 5113 05ba 7404     		.2byte	0x474
ARM GAS  C:\Users\Administrator\AppData\Local\Temp\ccX9Bf8z.s 			page 138


 5114 05bc 42030000 		.4byte	0x342
 5115 05c0 02       		.uleb128 0x2
 5116 05c1 91       		.byte	0x91
 5117 05c2 74       		.sleb128 -12
 5118 05c3 16       		.uleb128 0x16
 5119 05c4 0E000000 		.4byte	.LVL28
 5120 05c8 82270000 		.4byte	0x2782
 5121 05cc E5050000 		.4byte	0x5e5
 5122 05d0 17       		.uleb128 0x17
 5123 05d1 01       		.uleb128 0x1
 5124 05d2 52       		.byte	0x52
 5125 05d3 01       		.uleb128 0x1
 5126 05d4 34       		.byte	0x34
 5127 05d5 17       		.uleb128 0x17
 5128 05d6 01       		.uleb128 0x1
 5129 05d7 51       		.byte	0x51
 5130 05d8 05       		.uleb128 0x5
 5131 05d9 F3       		.byte	0xf3
 5132 05da 01       		.uleb128 0x1
 5133 05db 50       		.byte	0x50
 5134 05dc 23       		.byte	0x23
 5135 05dd 11       		.uleb128 0x11
 5136 05de 17       		.uleb128 0x17
 5137 05df 01       		.uleb128 0x1
 5138 05e0 50       		.byte	0x50
 5139 05e1 02       		.uleb128 0x2
 5140 05e2 91       		.byte	0x91
 5141 05e3 74       		.sleb128 -12
 5142 05e4 00       		.byte	0
 5143 05e5 16       		.uleb128 0x16
 5144 05e6 14000000 		.4byte	.LVL29
 5145 05ea DD270000 		.4byte	0x27dd
 5146 05ee F9050000 		.4byte	0x5f9
 5147 05f2 17       		.uleb128 0x17
 5148 05f3 01       		.uleb128 0x1
 5149 05f4 50       		.byte	0x50
 5150 05f5 02       		.uleb128 0x2
 5151 05f6 91       		.byte	0x91
 5152 05f7 74       		.sleb128 -12
 5153 05f8 00       		.byte	0
 5154 05f9 1B       		.uleb128 0x1b
 5155 05fa 18000000 		.4byte	.LVL30
 5156 05fe D1270000 		.4byte	0x27d1
 5157 0602 00       		.byte	0
 5158 0603 19       		.uleb128 0x19
 5159 0604 49000000 		.4byte	.LASF116
 5160 0608 01       		.byte	0x1
 5161 0609 2504     		.2byte	0x425
 5162 060b 00000000 		.4byte	.LFB80
 5163 060f 54000000 		.4byte	.LFE80-.LFB80
 5164 0613 01       		.uleb128 0x1
 5165 0614 9C       		.byte	0x9c
 5166 0615 AD060000 		.4byte	0x6ad
 5167 0619 14       		.uleb128 0x14
 5168 061a 5B020000 		.4byte	.LASF104
 5169 061e 01       		.byte	0x1
 5170 061f 2504     		.2byte	0x425
ARM GAS  C:\Users\Administrator\AppData\Local\Temp\ccX9Bf8z.s 			page 139


 5171 0621 20010000 		.4byte	0x120
 5172 0625 21020000 		.4byte	.LLST9
 5173 0629 1C       		.uleb128 0x1c
 5174 062a 72657400 		.ascii	"ret\000"
 5175 062e 01       		.byte	0x1
 5176 062f 2704     		.2byte	0x427
 5177 0631 AD000000 		.4byte	0xad
 5178 0635 15       		.uleb128 0x15
 5179 0636 DD0C0000 		.4byte	.LASF101
 5180 063a 01       		.byte	0x1
 5181 063b 2804     		.2byte	0x428
 5182 063d 20010000 		.4byte	0x120
 5183 0641 4F020000 		.4byte	.LLST10
 5184 0645 1A       		.uleb128 0x1a
 5185 0646 590E0000 		.4byte	.LASF115
 5186 064a 01       		.byte	0x1
 5187 064b 2904     		.2byte	0x429
 5188 064d 42030000 		.4byte	0x342
 5189 0651 02       		.uleb128 0x2
 5190 0652 91       		.byte	0x91
 5191 0653 74       		.sleb128 -12
 5192 0654 15       		.uleb128 0x15
 5193 0655 EF000000 		.4byte	.LASF105
 5194 0659 01       		.byte	0x1
 5195 065a 2A04     		.2byte	0x42a
 5196 065c B9000000 		.4byte	0xb9
 5197 0660 8A020000 		.4byte	.LLST11
 5198 0664 16       		.uleb128 0x16
 5199 0665 2C000000 		.4byte	.LVL38
 5200 0669 82270000 		.4byte	0x2782
 5201 066d 86060000 		.4byte	0x686
 5202 0671 17       		.uleb128 0x17
 5203 0672 01       		.uleb128 0x1
 5204 0673 52       		.byte	0x52
 5205 0674 01       		.uleb128 0x1
 5206 0675 34       		.byte	0x34
 5207 0676 17       		.uleb128 0x17
 5208 0677 01       		.uleb128 0x1
 5209 0678 51       		.byte	0x51
 5210 0679 05       		.uleb128 0x5
 5211 067a F3       		.byte	0xf3
 5212 067b 01       		.uleb128 0x1
 5213 067c 50       		.byte	0x50
 5214 067d 23       		.byte	0x23
 5215 067e 11       		.uleb128 0x11
 5216 067f 17       		.uleb128 0x17
 5217 0680 01       		.uleb128 0x1
 5218 0681 50       		.byte	0x50
 5219 0682 02       		.uleb128 0x2
 5220 0683 91       		.byte	0x91
 5221 0684 74       		.sleb128 -12
 5222 0685 00       		.byte	0
 5223 0686 16       		.uleb128 0x16
 5224 0687 32000000 		.4byte	.LVL39
 5225 068b DD270000 		.4byte	0x27dd
 5226 068f 9A060000 		.4byte	0x69a
 5227 0693 17       		.uleb128 0x17
ARM GAS  C:\Users\Administrator\AppData\Local\Temp\ccX9Bf8z.s 			page 140


 5228 0694 01       		.uleb128 0x1
 5229 0695 50       		.byte	0x50
 5230 0696 02       		.uleb128 0x2
 5231 0697 91       		.byte	0x91
 5232 0698 74       		.sleb128 -12
 5233 0699 00       		.byte	0
 5234 069a 1B       		.uleb128 0x1b
 5235 069b 36000000 		.4byte	.LVL40
 5236 069f D1270000 		.4byte	0x27d1
 5237 06a3 1B       		.uleb128 0x1b
 5238 06a4 46000000 		.4byte	.LVL42
 5239 06a8 F4270000 		.4byte	0x27f4
 5240 06ac 00       		.byte	0
 5241 06ad 19       		.uleb128 0x19
 5242 06ae 70100000 		.4byte	.LASF117
 5243 06b2 01       		.byte	0x1
 5244 06b3 1406     		.2byte	0x614
 5245 06b5 00000000 		.4byte	.LFB89
 5246 06b9 6C000000 		.4byte	.LFE89-.LFB89
 5247 06bd 01       		.uleb128 0x1
 5248 06be 9C       		.byte	0x9c
 5249 06bf BA070000 		.4byte	0x7ba
 5250 06c3 14       		.uleb128 0x14
 5251 06c4 5B020000 		.4byte	.LASF104
 5252 06c8 01       		.byte	0x1
 5253 06c9 1406     		.2byte	0x614
 5254 06cb 20010000 		.4byte	0x120
 5255 06cf D9020000 		.4byte	.LLST12
 5256 06d3 1A       		.uleb128 0x1a
 5257 06d4 76020000 		.4byte	.LASF118
 5258 06d8 01       		.byte	0x1
 5259 06d9 1606     		.2byte	0x616
 5260 06db 26010000 		.4byte	0x126
 5261 06df 02       		.uleb128 0x2
 5262 06e0 91       		.byte	0x91
 5263 06e1 60       		.sleb128 -32
 5264 06e2 1A       		.uleb128 0x1a
 5265 06e3 B10A0000 		.4byte	.LASF119
 5266 06e7 01       		.byte	0x1
 5267 06e8 1906     		.2byte	0x619
 5268 06ea AD000000 		.4byte	0xad
 5269 06ee 02       		.uleb128 0x2
 5270 06ef 91       		.byte	0x91
 5271 06f0 5F       		.sleb128 -33
 5272 06f1 16       		.uleb128 0x16
 5273 06f2 14000000 		.4byte	.LVL45
 5274 06f6 82270000 		.4byte	0x2782
 5275 06fa 14070000 		.4byte	0x714
 5276 06fe 17       		.uleb128 0x17
 5277 06ff 01       		.uleb128 0x1
 5278 0700 52       		.byte	0x52
 5279 0701 02       		.uleb128 0x2
 5280 0702 76       		.byte	0x76
 5281 0703 00       		.sleb128 0
 5282 0704 17       		.uleb128 0x17
 5283 0705 01       		.uleb128 0x1
 5284 0706 51       		.byte	0x51
ARM GAS  C:\Users\Administrator\AppData\Local\Temp\ccX9Bf8z.s 			page 141


 5285 0707 05       		.uleb128 0x5
 5286 0708 F3       		.byte	0xf3
 5287 0709 01       		.uleb128 0x1
 5288 070a 50       		.byte	0x50
 5289 070b 23       		.byte	0x23
 5290 070c 0D       		.uleb128 0xd
 5291 070d 17       		.uleb128 0x17
 5292 070e 01       		.uleb128 0x1
 5293 070f 50       		.byte	0x50
 5294 0710 02       		.uleb128 0x2
 5295 0711 74       		.byte	0x74
 5296 0712 00       		.sleb128 0
 5297 0713 00       		.byte	0
 5298 0714 16       		.uleb128 0x16
 5299 0715 26000000 		.4byte	.LVL46
 5300 0719 FB270000 		.4byte	0x27fb
 5301 071d 36070000 		.4byte	0x736
 5302 0721 17       		.uleb128 0x17
 5303 0722 01       		.uleb128 0x1
 5304 0723 52       		.byte	0x52
 5305 0724 01       		.uleb128 0x1
 5306 0725 31       		.byte	0x31
 5307 0726 17       		.uleb128 0x17
 5308 0727 01       		.uleb128 0x1
 5309 0728 51       		.byte	0x51
 5310 0729 05       		.uleb128 0x5
 5311 072a 0C       		.byte	0xc
 5312 072b 06920100 		.4byte	0x19206
 5313 072f 17       		.uleb128 0x17
 5314 0730 01       		.uleb128 0x1
 5315 0731 50       		.byte	0x50
 5316 0732 02       		.uleb128 0x2
 5317 0733 77       		.byte	0x77
 5318 0734 00       		.sleb128 0
 5319 0735 00       		.byte	0
 5320 0736 16       		.uleb128 0x16
 5321 0737 3A000000 		.4byte	.LVL47
 5322 073b 16280000 		.4byte	0x2816
 5323 073f 58070000 		.4byte	0x758
 5324 0743 17       		.uleb128 0x17
 5325 0744 01       		.uleb128 0x1
 5326 0745 52       		.byte	0x52
 5327 0746 02       		.uleb128 0x2
 5328 0747 76       		.byte	0x76
 5329 0748 00       		.sleb128 0
 5330 0749 17       		.uleb128 0x17
 5331 074a 01       		.uleb128 0x1
 5332 074b 51       		.byte	0x51
 5333 074c 04       		.uleb128 0x4
 5334 074d 08       		.byte	0x8
 5335 074e C9       		.byte	0xc9
 5336 074f 39       		.byte	0x39
 5337 0750 24       		.byte	0x24
 5338 0751 17       		.uleb128 0x17
 5339 0752 01       		.uleb128 0x1
 5340 0753 50       		.byte	0x50
 5341 0754 02       		.uleb128 0x2
ARM GAS  C:\Users\Administrator\AppData\Local\Temp\ccX9Bf8z.s 			page 142


 5342 0755 74       		.byte	0x74
 5343 0756 00       		.sleb128 0
 5344 0757 00       		.byte	0
 5345 0758 16       		.uleb128 0x16
 5346 0759 44000000 		.4byte	.LVL48
 5347 075d 16280000 		.4byte	0x2816
 5348 0761 7B070000 		.4byte	0x77b
 5349 0765 17       		.uleb128 0x17
 5350 0766 01       		.uleb128 0x1
 5351 0767 52       		.byte	0x52
 5352 0768 02       		.uleb128 0x2
 5353 0769 75       		.byte	0x75
 5354 076a 00       		.sleb128 0
 5355 076b 17       		.uleb128 0x17
 5356 076c 01       		.uleb128 0x1
 5357 076d 51       		.byte	0x51
 5358 076e 05       		.uleb128 0x5
 5359 076f 0C       		.byte	0xc
 5360 0770 06920100 		.4byte	0x19206
 5361 0774 17       		.uleb128 0x17
 5362 0775 01       		.uleb128 0x1
 5363 0776 50       		.byte	0x50
 5364 0777 02       		.uleb128 0x2
 5365 0778 77       		.byte	0x77
 5366 0779 00       		.sleb128 0
 5367 077a 00       		.byte	0
 5368 077b 16       		.uleb128 0x16
 5369 077c 4A000000 		.4byte	.LVL49
 5370 0780 31280000 		.4byte	0x2831
 5371 0784 8E070000 		.4byte	0x78e
 5372 0788 17       		.uleb128 0x17
 5373 0789 01       		.uleb128 0x1
 5374 078a 50       		.byte	0x50
 5375 078b 01       		.uleb128 0x1
 5376 078c 34       		.byte	0x34
 5377 078d 00       		.byte	0
 5378 078e 16       		.uleb128 0x16
 5379 078f 52000000 		.4byte	.LVL50
 5380 0793 42280000 		.4byte	0x2842
 5381 0797 A8070000 		.4byte	0x7a8
 5382 079b 17       		.uleb128 0x17
 5383 079c 01       		.uleb128 0x1
 5384 079d 51       		.byte	0x51
 5385 079e 02       		.uleb128 0x2
 5386 079f 76       		.byte	0x76
 5387 07a0 00       		.sleb128 0
 5388 07a1 17       		.uleb128 0x17
 5389 07a2 01       		.uleb128 0x1
 5390 07a3 50       		.byte	0x50
 5391 07a4 02       		.uleb128 0x2
 5392 07a5 74       		.byte	0x74
 5393 07a6 00       		.sleb128 0
 5394 07a7 00       		.byte	0
 5395 07a8 18       		.uleb128 0x18
 5396 07a9 5A000000 		.4byte	.LVL51
 5397 07ad 5C280000 		.4byte	0x285c
 5398 07b1 17       		.uleb128 0x17
ARM GAS  C:\Users\Administrator\AppData\Local\Temp\ccX9Bf8z.s 			page 143


 5399 07b2 01       		.uleb128 0x1
 5400 07b3 50       		.byte	0x50
 5401 07b4 03       		.uleb128 0x3
 5402 07b5 0A       		.byte	0xa
 5403 07b6 E803     		.2byte	0x3e8
 5404 07b8 00       		.byte	0
 5405 07b9 00       		.byte	0
 5406 07ba 1D       		.uleb128 0x1d
 5407 07bb 00000000 		.4byte	.LASF122
 5408 07bf 01       		.byte	0x1
 5409 07c0 58       		.byte	0x58
 5410 07c1 7E000000 		.4byte	0x7e
 5411 07c5 00000000 		.4byte	.LFB63
 5412 07c9 5C000000 		.4byte	.LFE63-.LFB63
 5413 07cd 01       		.uleb128 0x1
 5414 07ce 9C       		.byte	0x9c
 5415 07cf 4A080000 		.4byte	0x84a
 5416 07d3 1E       		.uleb128 0x1e
 5417 07d4 CA0A0000 		.4byte	.LASF120
 5418 07d8 01       		.byte	0x1
 5419 07d9 58       		.byte	0x58
 5420 07da 20010000 		.4byte	0x120
 5421 07de 07030000 		.4byte	.LLST13
 5422 07e2 1F       		.uleb128 0x1f
 5423 07e3 53020000 		.4byte	.LASF121
 5424 07e7 01       		.byte	0x1
 5425 07e8 5A       		.byte	0x5a
 5426 07e9 32030000 		.4byte	0x332
 5427 07ed 02       		.uleb128 0x2
 5428 07ee 91       		.byte	0x91
 5429 07ef 70       		.sleb128 -16
 5430 07f0 16       		.uleb128 0x16
 5431 07f1 44000000 		.4byte	.LVL54
 5432 07f5 82270000 		.4byte	0x2782
 5433 07f9 0F080000 		.4byte	0x80f
 5434 07fd 17       		.uleb128 0x17
 5435 07fe 01       		.uleb128 0x1
 5436 07ff 52       		.byte	0x52
 5437 0800 01       		.uleb128 0x1
 5438 0801 34       		.byte	0x34
 5439 0802 17       		.uleb128 0x17
 5440 0803 01       		.uleb128 0x1
 5441 0804 51       		.byte	0x51
 5442 0805 02       		.uleb128 0x2
 5443 0806 74       		.byte	0x74
 5444 0807 00       		.sleb128 0
 5445 0808 17       		.uleb128 0x17
 5446 0809 01       		.uleb128 0x1
 5447 080a 50       		.byte	0x50
 5448 080b 02       		.uleb128 0x2
 5449 080c 91       		.byte	0x91
 5450 080d 74       		.sleb128 -12
 5451 080e 00       		.byte	0
 5452 080f 16       		.uleb128 0x16
 5453 0810 4E000000 		.4byte	.LVL55
 5454 0814 82270000 		.4byte	0x2782
 5455 0818 2E080000 		.4byte	0x82e
ARM GAS  C:\Users\Administrator\AppData\Local\Temp\ccX9Bf8z.s 			page 144


 5456 081c 17       		.uleb128 0x17
 5457 081d 01       		.uleb128 0x1
 5458 081e 52       		.byte	0x52
 5459 081f 01       		.uleb128 0x1
 5460 0820 34       		.byte	0x34
 5461 0821 17       		.uleb128 0x17
 5462 0822 01       		.uleb128 0x1
 5463 0823 51       		.byte	0x51
 5464 0824 02       		.uleb128 0x2
 5465 0825 74       		.byte	0x74
 5466 0826 04       		.sleb128 4
 5467 0827 17       		.uleb128 0x17
 5468 0828 01       		.uleb128 0x1
 5469 0829 50       		.byte	0x50
 5470 082a 02       		.uleb128 0x2
 5471 082b 7D       		.byte	0x7d
 5472 082c 00       		.sleb128 0
 5473 082d 00       		.byte	0
 5474 082e 18       		.uleb128 0x18
 5475 082f 58000000 		.4byte	.LVL56
 5476 0833 82270000 		.4byte	0x2782
 5477 0837 17       		.uleb128 0x17
 5478 0838 01       		.uleb128 0x1
 5479 0839 52       		.byte	0x52
 5480 083a 01       		.uleb128 0x1
 5481 083b 38       		.byte	0x38
 5482 083c 17       		.uleb128 0x17
 5483 083d 01       		.uleb128 0x1
 5484 083e 51       		.byte	0x51
 5485 083f 02       		.uleb128 0x2
 5486 0840 7D       		.byte	0x7d
 5487 0841 00       		.sleb128 0
 5488 0842 17       		.uleb128 0x17
 5489 0843 01       		.uleb128 0x1
 5490 0844 50       		.byte	0x50
 5491 0845 02       		.uleb128 0x2
 5492 0846 74       		.byte	0x74
 5493 0847 00       		.sleb128 0
 5494 0848 00       		.byte	0
 5495 0849 00       		.byte	0
 5496 084a 20       		.uleb128 0x20
 5497 084b AA090000 		.4byte	.LASF146
 5498 084f 01       		.byte	0x1
 5499 0850 79       		.byte	0x79
 5500 0851 00000000 		.4byte	.LFB64
 5501 0855 68000000 		.4byte	.LFE64-.LFB64
 5502 0859 01       		.uleb128 0x1
 5503 085a 9C       		.byte	0x9c
 5504 085b AA080000 		.4byte	0x8aa
 5505 085f 16       		.uleb128 0x16
 5506 0860 28000000 		.4byte	.LVL57
 5507 0864 6D280000 		.4byte	0x286d
 5508 0868 79080000 		.4byte	0x879
 5509 086c 17       		.uleb128 0x17
 5510 086d 01       		.uleb128 0x1
 5511 086e 52       		.byte	0x52
 5512 086f 02       		.uleb128 0x2
ARM GAS  C:\Users\Administrator\AppData\Local\Temp\ccX9Bf8z.s 			page 145


 5513 0870 75       		.byte	0x75
 5514 0871 00       		.sleb128 0
 5515 0872 17       		.uleb128 0x17
 5516 0873 01       		.uleb128 0x1
 5517 0874 51       		.byte	0x51
 5518 0875 02       		.uleb128 0x2
 5519 0876 74       		.byte	0x74
 5520 0877 00       		.sleb128 0
 5521 0878 00       		.byte	0
 5522 0879 16       		.uleb128 0x16
 5523 087a 32000000 		.4byte	.LVL58
 5524 087e 6D280000 		.4byte	0x286d
 5525 0882 93080000 		.4byte	0x893
 5526 0886 17       		.uleb128 0x17
 5527 0887 01       		.uleb128 0x1
 5528 0888 52       		.byte	0x52
 5529 0889 02       		.uleb128 0x2
 5530 088a 75       		.byte	0x75
 5531 088b 00       		.sleb128 0
 5532 088c 17       		.uleb128 0x17
 5533 088d 01       		.uleb128 0x1
 5534 088e 51       		.byte	0x51
 5535 088f 02       		.uleb128 0x2
 5536 0890 74       		.byte	0x74
 5537 0891 00       		.sleb128 0
 5538 0892 00       		.byte	0
 5539 0893 18       		.uleb128 0x18
 5540 0894 3C000000 		.4byte	.LVL59
 5541 0898 6D280000 		.4byte	0x286d
 5542 089c 17       		.uleb128 0x17
 5543 089d 01       		.uleb128 0x1
 5544 089e 52       		.byte	0x52
 5545 089f 02       		.uleb128 0x2
 5546 08a0 75       		.byte	0x75
 5547 08a1 00       		.sleb128 0
 5548 08a2 17       		.uleb128 0x17
 5549 08a3 01       		.uleb128 0x1
 5550 08a4 51       		.byte	0x51
 5551 08a5 02       		.uleb128 0x2
 5552 08a6 74       		.byte	0x74
 5553 08a7 00       		.sleb128 0
 5554 08a8 00       		.byte	0
 5555 08a9 00       		.byte	0
 5556 08aa 1D       		.uleb128 0x1d
 5557 08ab 1A0A0000 		.4byte	.LASF123
 5558 08af 01       		.byte	0x1
 5559 08b0 90       		.byte	0x90
 5560 08b1 8C000000 		.4byte	0x8c
 5561 08b5 00000000 		.4byte	.LFB65
 5562 08b9 74000000 		.4byte	.LFE65-.LFB65
 5563 08bd 01       		.uleb128 0x1
 5564 08be 9C       		.byte	0x9c
 5565 08bf 5A090000 		.4byte	0x95a
 5566 08c3 1F       		.uleb128 0x1f
 5567 08c4 B60A0000 		.4byte	.LASF124
 5568 08c8 01       		.byte	0x1
 5569 08c9 92       		.byte	0x92
ARM GAS  C:\Users\Administrator\AppData\Local\Temp\ccX9Bf8z.s 			page 146


 5570 08ca 5A090000 		.4byte	0x95a
 5571 08ce 03       		.uleb128 0x3
 5572 08cf 91       		.byte	0x91
 5573 08d0 987F     		.sleb128 -104
 5574 08d2 21       		.uleb128 0x21
 5575 08d3 74120000 		.4byte	.LASF125
 5576 08d7 01       		.byte	0x1
 5577 08d8 93       		.byte	0x93
 5578 08d9 42030000 		.4byte	0x342
 5579 08dd 3E030000 		.4byte	.LLST14
 5580 08e1 21       		.uleb128 0x21
 5581 08e2 650C0000 		.4byte	.LASF126
 5582 08e6 01       		.byte	0x1
 5583 08e7 94       		.byte	0x94
 5584 08e8 A2000000 		.4byte	0xa2
 5585 08ec 78030000 		.4byte	.LLST15
 5586 08f0 21       		.uleb128 0x21
 5587 08f1 D3010000 		.4byte	.LASF127
 5588 08f5 01       		.byte	0x1
 5589 08f6 95       		.byte	0x95
 5590 08f7 97000000 		.4byte	0x97
 5591 08fb 8B030000 		.4byte	.LLST16
 5592 08ff 22       		.uleb128 0x22
 5593 0900 636E7400 		.ascii	"cnt\000"
 5594 0904 01       		.byte	0x1
 5595 0905 96       		.byte	0x96
 5596 0906 97000000 		.4byte	0x97
 5597 090a AA030000 		.4byte	.LLST17
 5598 090e 22       		.uleb128 0x22
 5599 090f 6900     		.ascii	"i\000"
 5600 0911 01       		.byte	0x1
 5601 0912 97       		.byte	0x97
 5602 0913 97000000 		.4byte	0x97
 5603 0917 5B040000 		.4byte	.LLST18
 5604 091b 23       		.uleb128 0x23
 5605 091c 1B080000 		.4byte	.LASF128
 5606 0920 01       		.byte	0x1
 5607 0921 98       		.byte	0x98
 5608 0922 97000000 		.4byte	0x97
 5609 0926 0F       		.byte	0xf
 5610 0927 1B       		.uleb128 0x1b
 5611 0928 34000000 		.4byte	.LVL69
 5612 092c D1270000 		.4byte	0x27d1
 5613 0930 16       		.uleb128 0x16
 5614 0931 4C000000 		.4byte	.LVL74
 5615 0935 8A280000 		.4byte	0x288a
 5616 0939 49090000 		.4byte	0x949
 5617 093d 17       		.uleb128 0x17
 5618 093e 01       		.uleb128 0x1
 5619 093f 51       		.byte	0x51
 5620 0940 01       		.uleb128 0x1
 5621 0941 41       		.byte	0x41
 5622 0942 17       		.uleb128 0x17
 5623 0943 01       		.uleb128 0x1
 5624 0944 50       		.byte	0x50
 5625 0945 02       		.uleb128 0x2
 5626 0946 7D       		.byte	0x7d
ARM GAS  C:\Users\Administrator\AppData\Local\Temp\ccX9Bf8z.s 			page 147


 5627 0947 00       		.sleb128 0
 5628 0948 00       		.byte	0
 5629 0949 18       		.uleb128 0x18
 5630 094a 68000000 		.4byte	.LVL77
 5631 094e A4280000 		.4byte	0x28a4
 5632 0952 17       		.uleb128 0x17
 5633 0953 01       		.uleb128 0x1
 5634 0954 50       		.byte	0x50
 5635 0955 02       		.uleb128 0x2
 5636 0956 7D       		.byte	0x7d
 5637 0957 00       		.sleb128 0
 5638 0958 00       		.byte	0
 5639 0959 00       		.byte	0
 5640 095a 0A       		.uleb128 0xa
 5641 095b AD000000 		.4byte	0xad
 5642 095f 6A090000 		.4byte	0x96a
 5643 0963 0B       		.uleb128 0xb
 5644 0964 0C010000 		.4byte	0x10c
 5645 0968 5F       		.byte	0x5f
 5646 0969 00       		.byte	0
 5647 096a 1D       		.uleb128 0x1d
 5648 096b C4040000 		.4byte	.LASF129
 5649 096f 01       		.byte	0x1
 5650 0970 BE       		.byte	0xbe
 5651 0971 8C000000 		.4byte	0x8c
 5652 0975 00000000 		.4byte	.LFB66
 5653 0979 84000000 		.4byte	.LFE66-.LFB66
 5654 097d 01       		.uleb128 0x1
 5655 097e 9C       		.byte	0x9c
 5656 097f 290A0000 		.4byte	0xa29
 5657 0983 22       		.uleb128 0x22
 5658 0984 76657200 		.ascii	"ver\000"
 5659 0988 01       		.byte	0x1
 5660 0989 C0       		.byte	0xc0
 5661 098a AD000000 		.4byte	0xad
 5662 098e 7A040000 		.4byte	.LLST19
 5663 0992 1F       		.uleb128 0x1f
 5664 0993 B60A0000 		.4byte	.LASF124
 5665 0997 01       		.byte	0x1
 5666 0998 C1       		.byte	0xc1
 5667 0999 5A090000 		.4byte	0x95a
 5668 099d 03       		.uleb128 0x3
 5669 099e 91       		.byte	0x91
 5670 099f 987F     		.sleb128 -104
 5671 09a1 21       		.uleb128 0x21
 5672 09a2 74120000 		.4byte	.LASF125
 5673 09a6 01       		.byte	0x1
 5674 09a7 C2       		.byte	0xc2
 5675 09a8 42030000 		.4byte	0x342
 5676 09ac 8D040000 		.4byte	.LLST20
 5677 09b0 21       		.uleb128 0x21
 5678 09b1 650C0000 		.4byte	.LASF126
 5679 09b5 01       		.byte	0x1
 5680 09b6 C3       		.byte	0xc3
 5681 09b7 A2000000 		.4byte	0xa2
 5682 09bb C7040000 		.4byte	.LLST21
 5683 09bf 21       		.uleb128 0x21
ARM GAS  C:\Users\Administrator\AppData\Local\Temp\ccX9Bf8z.s 			page 148


 5684 09c0 D3010000 		.4byte	.LASF127
 5685 09c4 01       		.byte	0x1
 5686 09c5 C4       		.byte	0xc4
 5687 09c6 97000000 		.4byte	0x97
 5688 09ca DA040000 		.4byte	.LLST22
 5689 09ce 22       		.uleb128 0x22
 5690 09cf 636E7400 		.ascii	"cnt\000"
 5691 09d3 01       		.byte	0x1
 5692 09d4 C5       		.byte	0xc5
 5693 09d5 97000000 		.4byte	0x97
 5694 09d9 F9040000 		.4byte	.LLST23
 5695 09dd 22       		.uleb128 0x22
 5696 09de 6900     		.ascii	"i\000"
 5697 09e0 01       		.byte	0x1
 5698 09e1 C6       		.byte	0xc6
 5699 09e2 97000000 		.4byte	0x97
 5700 09e6 B6050000 		.4byte	.LLST24
 5701 09ea 23       		.uleb128 0x23
 5702 09eb 1B080000 		.4byte	.LASF128
 5703 09ef 01       		.byte	0x1
 5704 09f0 C7       		.byte	0xc7
 5705 09f1 97000000 		.4byte	0x97
 5706 09f5 11       		.byte	0x11
 5707 09f6 1B       		.uleb128 0x1b
 5708 09f7 42000000 		.4byte	.LVL88
 5709 09fb D1270000 		.4byte	0x27d1
 5710 09ff 16       		.uleb128 0x16
 5711 0a00 5A000000 		.4byte	.LVL93
 5712 0a04 8A280000 		.4byte	0x288a
 5713 0a08 180A0000 		.4byte	0xa18
 5714 0a0c 17       		.uleb128 0x17
 5715 0a0d 01       		.uleb128 0x1
 5716 0a0e 51       		.byte	0x51
 5717 0a0f 01       		.uleb128 0x1
 5718 0a10 43       		.byte	0x43
 5719 0a11 17       		.uleb128 0x17
 5720 0a12 01       		.uleb128 0x1
 5721 0a13 50       		.byte	0x50
 5722 0a14 02       		.uleb128 0x2
 5723 0a15 7D       		.byte	0x7d
 5724 0a16 00       		.sleb128 0
 5725 0a17 00       		.byte	0
 5726 0a18 18       		.uleb128 0x18
 5727 0a19 76000000 		.4byte	.LVL96
 5728 0a1d A4280000 		.4byte	0x28a4
 5729 0a21 17       		.uleb128 0x17
 5730 0a22 01       		.uleb128 0x1
 5731 0a23 50       		.byte	0x50
 5732 0a24 02       		.uleb128 0x2
 5733 0a25 7D       		.byte	0x7d
 5734 0a26 00       		.sleb128 0
 5735 0a27 00       		.byte	0
 5736 0a28 00       		.byte	0
 5737 0a29 1D       		.uleb128 0x1d
 5738 0a2a 5E120000 		.4byte	.LASF130
 5739 0a2e 01       		.byte	0x1
 5740 0a2f F4       		.byte	0xf4
ARM GAS  C:\Users\Administrator\AppData\Local\Temp\ccX9Bf8z.s 			page 149


 5741 0a30 8C000000 		.4byte	0x8c
 5742 0a34 00000000 		.4byte	.LFB67
 5743 0a38 00010000 		.4byte	.LFE67-.LFB67
 5744 0a3c 01       		.uleb128 0x1
 5745 0a3d 9C       		.byte	0x9c
 5746 0a3e 320B0000 		.4byte	0xb32
 5747 0a42 1E       		.uleb128 0x1e
 5748 0a43 B20B0000 		.4byte	.LASF131
 5749 0a47 01       		.byte	0x1
 5750 0a48 F4       		.byte	0xf4
 5751 0a49 320B0000 		.4byte	0xb32
 5752 0a4d D5050000 		.4byte	.LLST25
 5753 0a51 1E       		.uleb128 0x1e
 5754 0a52 12010000 		.4byte	.LASF132
 5755 0a56 01       		.byte	0x1
 5756 0a57 F4       		.byte	0xf4
 5757 0a58 8C000000 		.4byte	0x8c
 5758 0a5c 01060000 		.4byte	.LLST26
 5759 0a60 1E       		.uleb128 0x1e
 5760 0a61 650E0000 		.4byte	.LASF133
 5761 0a65 01       		.byte	0x1
 5762 0a66 F4       		.byte	0xf4
 5763 0a67 8C000000 		.4byte	0x8c
 5764 0a6b 22060000 		.4byte	.LLST27
 5765 0a6f 1F       		.uleb128 0x1f
 5766 0a70 B60A0000 		.4byte	.LASF124
 5767 0a74 01       		.byte	0x1
 5768 0a75 F6       		.byte	0xf6
 5769 0a76 5A090000 		.4byte	0x95a
 5770 0a7a 03       		.uleb128 0x3
 5771 0a7b 91       		.byte	0x91
 5772 0a7c 887F     		.sleb128 -120
 5773 0a7e 21       		.uleb128 0x21
 5774 0a7f 74120000 		.4byte	.LASF125
 5775 0a83 01       		.byte	0x1
 5776 0a84 F7       		.byte	0xf7
 5777 0a85 42030000 		.4byte	0x342
 5778 0a89 43060000 		.4byte	.LLST28
 5779 0a8d 21       		.uleb128 0x21
 5780 0a8e 650C0000 		.4byte	.LASF126
 5781 0a92 01       		.byte	0x1
 5782 0a93 F8       		.byte	0xf8
 5783 0a94 A2000000 		.4byte	0xa2
 5784 0a98 80060000 		.4byte	.LLST29
 5785 0a9c 21       		.uleb128 0x21
 5786 0a9d D3010000 		.4byte	.LASF127
 5787 0aa1 01       		.byte	0x1
 5788 0aa2 F9       		.byte	0xf9
 5789 0aa3 97000000 		.4byte	0x97
 5790 0aa7 93060000 		.4byte	.LLST30
 5791 0aab 22       		.uleb128 0x22
 5792 0aac 636E7400 		.ascii	"cnt\000"
 5793 0ab0 01       		.byte	0x1
 5794 0ab1 FA       		.byte	0xfa
 5795 0ab2 97000000 		.4byte	0x97
 5796 0ab6 B2060000 		.4byte	.LLST31
 5797 0aba 22       		.uleb128 0x22
ARM GAS  C:\Users\Administrator\AppData\Local\Temp\ccX9Bf8z.s 			page 150


 5798 0abb 6900     		.ascii	"i\000"
 5799 0abd 01       		.byte	0x1
 5800 0abe FB       		.byte	0xfb
 5801 0abf 97000000 		.4byte	0x97
 5802 0ac3 93070000 		.4byte	.LLST32
 5803 0ac7 21       		.uleb128 0x21
 5804 0ac8 DD0C0000 		.4byte	.LASF101
 5805 0acc 01       		.byte	0x1
 5806 0acd FC       		.byte	0xfc
 5807 0ace 320B0000 		.4byte	0xb32
 5808 0ad2 EC070000 		.4byte	.LLST33
 5809 0ad6 23       		.uleb128 0x23
 5810 0ad7 1B080000 		.4byte	.LASF128
 5811 0adb 01       		.byte	0x1
 5812 0adc FD       		.byte	0xfd
 5813 0add 97000000 		.4byte	0x97
 5814 0ae1 1C       		.byte	0x1c
 5815 0ae2 16       		.uleb128 0x16
 5816 0ae3 3E000000 		.4byte	.LVL107
 5817 0ae7 BA070000 		.4byte	0x7ba
 5818 0aeb F60A0000 		.4byte	0xaf6
 5819 0aef 17       		.uleb128 0x17
 5820 0af0 01       		.uleb128 0x1
 5821 0af1 50       		.byte	0x50
 5822 0af2 02       		.uleb128 0x2
 5823 0af3 75       		.byte	0x75
 5824 0af4 00       		.sleb128 0
 5825 0af5 00       		.byte	0
 5826 0af6 1B       		.uleb128 0x1b
 5827 0af7 7A000000 		.4byte	.LVL119
 5828 0afb D1270000 		.4byte	0x27d1
 5829 0aff 16       		.uleb128 0x16
 5830 0b00 9C000000 		.4byte	.LVL124
 5831 0b04 8A280000 		.4byte	0x288a
 5832 0b08 180B0000 		.4byte	0xb18
 5833 0b0c 17       		.uleb128 0x17
 5834 0b0d 01       		.uleb128 0x1
 5835 0b0e 51       		.byte	0x51
 5836 0b0f 01       		.uleb128 0x1
 5837 0b10 4E       		.byte	0x4e
 5838 0b11 17       		.uleb128 0x17
 5839 0b12 01       		.uleb128 0x1
 5840 0b13 50       		.byte	0x50
 5841 0b14 02       		.uleb128 0x2
 5842 0b15 7D       		.byte	0x7d
 5843 0b16 00       		.sleb128 0
 5844 0b17 00       		.byte	0
 5845 0b18 1B       		.uleb128 0x1b
 5846 0b19 AE000000 		.4byte	.LVL126
 5847 0b1d D1270000 		.4byte	0x27d1
 5848 0b21 18       		.uleb128 0x18
 5849 0b22 E2000000 		.4byte	.LVL127
 5850 0b26 A4280000 		.4byte	0x28a4
 5851 0b2a 17       		.uleb128 0x17
 5852 0b2b 01       		.uleb128 0x1
 5853 0b2c 50       		.byte	0x50
 5854 0b2d 02       		.uleb128 0x2
ARM GAS  C:\Users\Administrator\AppData\Local\Temp\ccX9Bf8z.s 			page 151


 5855 0b2e 7D       		.byte	0x7d
 5856 0b2f 00       		.sleb128 0
 5857 0b30 00       		.byte	0
 5858 0b31 00       		.byte	0
 5859 0b32 08       		.uleb128 0x8
 5860 0b33 04       		.byte	0x4
 5861 0b34 8E030000 		.4byte	0x38e
 5862 0b38 24       		.uleb128 0x24
 5863 0b39 8D000000 		.4byte	.LASF134
 5864 0b3d 01       		.byte	0x1
 5865 0b3e 4401     		.2byte	0x144
 5866 0b40 8C000000 		.4byte	0x8c
 5867 0b44 00000000 		.4byte	.LFB68
 5868 0b48 78000000 		.4byte	.LFE68-.LFB68
 5869 0b4c 01       		.uleb128 0x1
 5870 0b4d 9C       		.byte	0x9c
 5871 0b4e 000C0000 		.4byte	0xc00
 5872 0b52 14       		.uleb128 0x14
 5873 0b53 8B0C0000 		.4byte	.LASF135
 5874 0b57 01       		.byte	0x1
 5875 0b58 4401     		.2byte	0x144
 5876 0b5a 8C000000 		.4byte	0x8c
 5877 0b5e 18080000 		.4byte	.LLST34
 5878 0b62 1A       		.uleb128 0x1a
 5879 0b63 B60A0000 		.4byte	.LASF124
 5880 0b67 01       		.byte	0x1
 5881 0b68 4601     		.2byte	0x146
 5882 0b6a 5A090000 		.4byte	0x95a
 5883 0b6e 03       		.uleb128 0x3
 5884 0b6f 91       		.byte	0x91
 5885 0b70 987F     		.sleb128 -104
 5886 0b72 15       		.uleb128 0x15
 5887 0b73 74120000 		.4byte	.LASF125
 5888 0b77 01       		.byte	0x1
 5889 0b78 4701     		.2byte	0x147
 5890 0b7a 42030000 		.4byte	0x342
 5891 0b7e 39080000 		.4byte	.LLST35
 5892 0b82 15       		.uleb128 0x15
 5893 0b83 650C0000 		.4byte	.LASF126
 5894 0b87 01       		.byte	0x1
 5895 0b88 4801     		.2byte	0x148
 5896 0b8a A2000000 		.4byte	0xa2
 5897 0b8e 73080000 		.4byte	.LLST36
 5898 0b92 15       		.uleb128 0x15
 5899 0b93 D3010000 		.4byte	.LASF127
 5900 0b97 01       		.byte	0x1
 5901 0b98 4901     		.2byte	0x149
 5902 0b9a 97000000 		.4byte	0x97
 5903 0b9e 86080000 		.4byte	.LLST37
 5904 0ba2 25       		.uleb128 0x25
 5905 0ba3 636E7400 		.ascii	"cnt\000"
 5906 0ba7 01       		.byte	0x1
 5907 0ba8 4A01     		.2byte	0x14a
 5908 0baa 97000000 		.4byte	0x97
 5909 0bae A5080000 		.4byte	.LLST38
 5910 0bb2 25       		.uleb128 0x25
 5911 0bb3 6900     		.ascii	"i\000"
ARM GAS  C:\Users\Administrator\AppData\Local\Temp\ccX9Bf8z.s 			page 152


 5912 0bb5 01       		.byte	0x1
 5913 0bb6 4B01     		.2byte	0x14b
 5914 0bb8 97000000 		.4byte	0x97
 5915 0bbc 62090000 		.4byte	.LLST39
 5916 0bc0 26       		.uleb128 0x26
 5917 0bc1 1B080000 		.4byte	.LASF128
 5918 0bc5 01       		.byte	0x1
 5919 0bc6 4C01     		.2byte	0x14c
 5920 0bc8 97000000 		.4byte	0x97
 5921 0bcc 10       		.byte	0x10
 5922 0bcd 1B       		.uleb128 0x1b
 5923 0bce 3A000000 		.4byte	.LVL139
 5924 0bd2 D1270000 		.4byte	0x27d1
 5925 0bd6 16       		.uleb128 0x16
 5926 0bd7 52000000 		.4byte	.LVL144
 5927 0bdb 8A280000 		.4byte	0x288a
 5928 0bdf EF0B0000 		.4byte	0xbef
 5929 0be3 17       		.uleb128 0x17
 5930 0be4 01       		.uleb128 0x1
 5931 0be5 51       		.byte	0x51
 5932 0be6 01       		.uleb128 0x1
 5933 0be7 42       		.byte	0x42
 5934 0be8 17       		.uleb128 0x17
 5935 0be9 01       		.uleb128 0x1
 5936 0bea 50       		.byte	0x50
 5937 0beb 02       		.uleb128 0x2
 5938 0bec 7D       		.byte	0x7d
 5939 0bed 00       		.sleb128 0
 5940 0bee 00       		.byte	0
 5941 0bef 18       		.uleb128 0x18
 5942 0bf0 6E000000 		.4byte	.LVL147
 5943 0bf4 A4280000 		.4byte	0x28a4
 5944 0bf8 17       		.uleb128 0x17
 5945 0bf9 01       		.uleb128 0x1
 5946 0bfa 50       		.byte	0x50
 5947 0bfb 02       		.uleb128 0x2
 5948 0bfc 7D       		.byte	0x7d
 5949 0bfd 00       		.sleb128 0
 5950 0bfe 00       		.byte	0
 5951 0bff 00       		.byte	0
 5952 0c00 24       		.uleb128 0x24
 5953 0c01 DC110000 		.4byte	.LASF136
 5954 0c05 01       		.byte	0x1
 5955 0c06 7B01     		.2byte	0x17b
 5956 0c08 8C000000 		.4byte	0x8c
 5957 0c0c 00000000 		.4byte	.LFB69
 5958 0c10 8C000000 		.4byte	.LFE69-.LFB69
 5959 0c14 01       		.uleb128 0x1
 5960 0c15 9C       		.byte	0x9c
 5961 0c16 980C0000 		.4byte	0xc98
 5962 0c1a 1A       		.uleb128 0x1a
 5963 0c1b B60A0000 		.4byte	.LASF124
 5964 0c1f 01       		.byte	0x1
 5965 0c20 7D01     		.2byte	0x17d
 5966 0c22 5A090000 		.4byte	0x95a
 5967 0c26 03       		.uleb128 0x3
 5968 0c27 91       		.byte	0x91
ARM GAS  C:\Users\Administrator\AppData\Local\Temp\ccX9Bf8z.s 			page 153


 5969 0c28 987F     		.sleb128 -104
 5970 0c2a 15       		.uleb128 0x15
 5971 0c2b D3010000 		.4byte	.LASF127
 5972 0c2f 01       		.byte	0x1
 5973 0c30 7E01     		.2byte	0x17e
 5974 0c32 97000000 		.4byte	0x97
 5975 0c36 81090000 		.4byte	.LLST40
 5976 0c3a 25       		.uleb128 0x25
 5977 0c3b 636E7400 		.ascii	"cnt\000"
 5978 0c3f 01       		.byte	0x1
 5979 0c40 7F01     		.2byte	0x17f
 5980 0c42 97000000 		.4byte	0x97
 5981 0c46 A0090000 		.4byte	.LLST41
 5982 0c4a 25       		.uleb128 0x25
 5983 0c4b 6900     		.ascii	"i\000"
 5984 0c4d 01       		.byte	0x1
 5985 0c4e 8001     		.2byte	0x180
 5986 0c50 97000000 		.4byte	0x97
 5987 0c54 510A0000 		.4byte	.LLST42
 5988 0c58 26       		.uleb128 0x26
 5989 0c59 1B080000 		.4byte	.LASF128
 5990 0c5d 01       		.byte	0x1
 5991 0c5e 8101     		.2byte	0x181
 5992 0c60 97000000 		.4byte	0x97
 5993 0c64 0D       		.byte	0xd
 5994 0c65 16       		.uleb128 0x16
 5995 0c66 46000000 		.4byte	.LVL161
 5996 0c6a 8A280000 		.4byte	0x288a
 5997 0c6e 7E0C0000 		.4byte	0xc7e
 5998 0c72 17       		.uleb128 0x17
 5999 0c73 01       		.uleb128 0x1
 6000 0c74 51       		.byte	0x51
 6001 0c75 01       		.uleb128 0x1
 6002 0c76 3F       		.byte	0x3f
 6003 0c77 17       		.uleb128 0x17
 6004 0c78 01       		.uleb128 0x1
 6005 0c79 50       		.byte	0x50
 6006 0c7a 02       		.uleb128 0x2
 6007 0c7b 7D       		.byte	0x7d
 6008 0c7c 00       		.sleb128 0
 6009 0c7d 00       		.byte	0
 6010 0c7e 1B       		.uleb128 0x1b
 6011 0c7f 52000000 		.4byte	.LVL163
 6012 0c83 D1270000 		.4byte	0x27d1
 6013 0c87 18       		.uleb128 0x18
 6014 0c88 78000000 		.4byte	.LVL164
 6015 0c8c A4280000 		.4byte	0x28a4
 6016 0c90 17       		.uleb128 0x17
 6017 0c91 01       		.uleb128 0x1
 6018 0c92 50       		.byte	0x50
 6019 0c93 02       		.uleb128 0x2
 6020 0c94 7D       		.byte	0x7d
 6021 0c95 00       		.sleb128 0
 6022 0c96 00       		.byte	0
 6023 0c97 00       		.byte	0
 6024 0c98 24       		.uleb128 0x24
 6025 0c99 620B0000 		.4byte	.LASF137
ARM GAS  C:\Users\Administrator\AppData\Local\Temp\ccX9Bf8z.s 			page 154


 6026 0c9d 01       		.byte	0x1
 6027 0c9e AA01     		.2byte	0x1aa
 6028 0ca0 8C000000 		.4byte	0x8c
 6029 0ca4 00000000 		.4byte	.LFB70
 6030 0ca8 98000000 		.4byte	.LFE70-.LFB70
 6031 0cac 01       		.uleb128 0x1
 6032 0cad 9C       		.byte	0x9c
 6033 0cae 690D0000 		.4byte	0xd69
 6034 0cb2 14       		.uleb128 0x14
 6035 0cb3 DB080000 		.4byte	.LASF138
 6036 0cb7 01       		.byte	0x1
 6037 0cb8 AA01     		.2byte	0x1aa
 6038 0cba 8C000000 		.4byte	0x8c
 6039 0cbe 700A0000 		.4byte	.LLST43
 6040 0cc2 1A       		.uleb128 0x1a
 6041 0cc3 B60A0000 		.4byte	.LASF124
 6042 0cc7 01       		.byte	0x1
 6043 0cc8 AC01     		.2byte	0x1ac
 6044 0cca 5A090000 		.4byte	0x95a
 6045 0cce 03       		.uleb128 0x3
 6046 0ccf 91       		.byte	0x91
 6047 0cd0 987F     		.sleb128 -104
 6048 0cd2 15       		.uleb128 0x15
 6049 0cd3 74120000 		.4byte	.LASF125
 6050 0cd7 01       		.byte	0x1
 6051 0cd8 AD01     		.2byte	0x1ad
 6052 0cda 42030000 		.4byte	0x342
 6053 0cde 910A0000 		.4byte	.LLST44
 6054 0ce2 15       		.uleb128 0x15
 6055 0ce3 650C0000 		.4byte	.LASF126
 6056 0ce7 01       		.byte	0x1
 6057 0ce8 AE01     		.2byte	0x1ae
 6058 0cea A2000000 		.4byte	0xa2
 6059 0cee CB0A0000 		.4byte	.LLST45
 6060 0cf2 15       		.uleb128 0x15
 6061 0cf3 D3010000 		.4byte	.LASF127
 6062 0cf7 01       		.byte	0x1
 6063 0cf8 AF01     		.2byte	0x1af
 6064 0cfa 97000000 		.4byte	0x97
 6065 0cfe DE0A0000 		.4byte	.LLST46
 6066 0d02 25       		.uleb128 0x25
 6067 0d03 636E7400 		.ascii	"cnt\000"
 6068 0d07 01       		.byte	0x1
 6069 0d08 B001     		.2byte	0x1b0
 6070 0d0a 97000000 		.4byte	0x97
 6071 0d0e FD0A0000 		.4byte	.LLST47
 6072 0d12 25       		.uleb128 0x25
 6073 0d13 6900     		.ascii	"i\000"
 6074 0d15 01       		.byte	0x1
 6075 0d16 B101     		.2byte	0x1b1
 6076 0d18 97000000 		.4byte	0x97
 6077 0d1c BA0B0000 		.4byte	.LLST48
 6078 0d20 26       		.uleb128 0x26
 6079 0d21 1B080000 		.4byte	.LASF128
 6080 0d25 01       		.byte	0x1
 6081 0d26 B201     		.2byte	0x1b2
 6082 0d28 97000000 		.4byte	0x97
ARM GAS  C:\Users\Administrator\AppData\Local\Temp\ccX9Bf8z.s 			page 155


 6083 0d2c 10       		.byte	0x10
 6084 0d2d 1B       		.uleb128 0x1b
 6085 0d2e 3A000000 		.4byte	.LVL175
 6086 0d32 D1270000 		.4byte	0x27d1
 6087 0d36 16       		.uleb128 0x16
 6088 0d37 52000000 		.4byte	.LVL180
 6089 0d3b 8A280000 		.4byte	0x288a
 6090 0d3f 4F0D0000 		.4byte	0xd4f
 6091 0d43 17       		.uleb128 0x17
 6092 0d44 01       		.uleb128 0x1
 6093 0d45 51       		.byte	0x51
 6094 0d46 01       		.uleb128 0x1
 6095 0d47 42       		.byte	0x42
 6096 0d48 17       		.uleb128 0x17
 6097 0d49 01       		.uleb128 0x1
 6098 0d4a 50       		.byte	0x50
 6099 0d4b 02       		.uleb128 0x2
 6100 0d4c 7D       		.byte	0x7d
 6101 0d4d 00       		.sleb128 0
 6102 0d4e 00       		.byte	0
 6103 0d4f 1B       		.uleb128 0x1b
 6104 0d50 5E000000 		.4byte	.LVL182
 6105 0d54 D1270000 		.4byte	0x27d1
 6106 0d58 18       		.uleb128 0x18
 6107 0d59 84000000 		.4byte	.LVL183
 6108 0d5d A4280000 		.4byte	0x28a4
 6109 0d61 17       		.uleb128 0x17
 6110 0d62 01       		.uleb128 0x1
 6111 0d63 50       		.byte	0x50
 6112 0d64 02       		.uleb128 0x2
 6113 0d65 7D       		.byte	0x7d
 6114 0d66 00       		.sleb128 0
 6115 0d67 00       		.byte	0
 6116 0d68 00       		.byte	0
 6117 0d69 24       		.uleb128 0x24
 6118 0d6a 02010000 		.4byte	.LASF139
 6119 0d6e 01       		.byte	0x1
 6120 0d6f E001     		.2byte	0x1e0
 6121 0d71 8C000000 		.4byte	0x8c
 6122 0d75 00000000 		.4byte	.LFB71
 6123 0d79 8C000000 		.4byte	.LFE71-.LFB71
 6124 0d7d 01       		.uleb128 0x1
 6125 0d7e 9C       		.byte	0x9c
 6126 0d7f 310E0000 		.4byte	0xe31
 6127 0d83 14       		.uleb128 0x14
 6128 0d84 7B030000 		.4byte	.LASF140
 6129 0d88 01       		.byte	0x1
 6130 0d89 E001     		.2byte	0x1e0
 6131 0d8b B9000000 		.4byte	0xb9
 6132 0d8f D90B0000 		.4byte	.LLST49
 6133 0d93 1A       		.uleb128 0x1a
 6134 0d94 B60A0000 		.4byte	.LASF124
 6135 0d98 01       		.byte	0x1
 6136 0d99 E201     		.2byte	0x1e2
 6137 0d9b 5A090000 		.4byte	0x95a
 6138 0d9f 03       		.uleb128 0x3
 6139 0da0 91       		.byte	0x91
ARM GAS  C:\Users\Administrator\AppData\Local\Temp\ccX9Bf8z.s 			page 156


 6140 0da1 987F     		.sleb128 -104
 6141 0da3 15       		.uleb128 0x15
 6142 0da4 74120000 		.4byte	.LASF125
 6143 0da8 01       		.byte	0x1
 6144 0da9 E301     		.2byte	0x1e3
 6145 0dab 42030000 		.4byte	0x342
 6146 0daf FA0B0000 		.4byte	.LLST50
 6147 0db3 15       		.uleb128 0x15
 6148 0db4 650C0000 		.4byte	.LASF126
 6149 0db8 01       		.byte	0x1
 6150 0db9 E401     		.2byte	0x1e4
 6151 0dbb A2000000 		.4byte	0xa2
 6152 0dbf 340C0000 		.4byte	.LLST51
 6153 0dc3 15       		.uleb128 0x15
 6154 0dc4 D3010000 		.4byte	.LASF127
 6155 0dc8 01       		.byte	0x1
 6156 0dc9 E501     		.2byte	0x1e5
 6157 0dcb 97000000 		.4byte	0x97
 6158 0dcf 470C0000 		.4byte	.LLST52
 6159 0dd3 25       		.uleb128 0x25
 6160 0dd4 636E7400 		.ascii	"cnt\000"
 6161 0dd8 01       		.byte	0x1
 6162 0dd9 E601     		.2byte	0x1e6
 6163 0ddb 97000000 		.4byte	0x97
 6164 0ddf 660C0000 		.4byte	.LLST53
 6165 0de3 25       		.uleb128 0x25
 6166 0de4 6900     		.ascii	"i\000"
 6167 0de6 01       		.byte	0x1
 6168 0de7 E701     		.2byte	0x1e7
 6169 0de9 97000000 		.4byte	0x97
 6170 0ded 470D0000 		.4byte	.LLST54
 6171 0df1 26       		.uleb128 0x26
 6172 0df2 1B080000 		.4byte	.LASF128
 6173 0df6 01       		.byte	0x1
 6174 0df7 E801     		.2byte	0x1e8
 6175 0df9 97000000 		.4byte	0x97
 6176 0dfd 13       		.byte	0x13
 6177 0dfe 1B       		.uleb128 0x1b
 6178 0dff 4A000000 		.4byte	.LVL197
 6179 0e03 D1270000 		.4byte	0x27d1
 6180 0e07 16       		.uleb128 0x16
 6181 0e08 62000000 		.4byte	.LVL202
 6182 0e0c 8A280000 		.4byte	0x288a
 6183 0e10 200E0000 		.4byte	0xe20
 6184 0e14 17       		.uleb128 0x17
 6185 0e15 01       		.uleb128 0x1
 6186 0e16 51       		.byte	0x51
 6187 0e17 01       		.uleb128 0x1
 6188 0e18 45       		.byte	0x45
 6189 0e19 17       		.uleb128 0x17
 6190 0e1a 01       		.uleb128 0x1
 6191 0e1b 50       		.byte	0x50
 6192 0e1c 02       		.uleb128 0x2
 6193 0e1d 7D       		.byte	0x7d
 6194 0e1e 00       		.sleb128 0
 6195 0e1f 00       		.byte	0
 6196 0e20 18       		.uleb128 0x18
ARM GAS  C:\Users\Administrator\AppData\Local\Temp\ccX9Bf8z.s 			page 157


 6197 0e21 7E000000 		.4byte	.LVL205
 6198 0e25 A4280000 		.4byte	0x28a4
 6199 0e29 17       		.uleb128 0x17
 6200 0e2a 01       		.uleb128 0x1
 6201 0e2b 50       		.byte	0x50
 6202 0e2c 02       		.uleb128 0x2
 6203 0e2d 7D       		.byte	0x7d
 6204 0e2e 00       		.sleb128 0
 6205 0e2f 00       		.byte	0
 6206 0e30 00       		.byte	0
 6207 0e31 19       		.uleb128 0x19
 6208 0e32 DB070000 		.4byte	.LASF141
 6209 0e36 01       		.byte	0x1
 6210 0e37 7105     		.2byte	0x571
 6211 0e39 00000000 		.4byte	.LFB87
 6212 0e3d 1C010000 		.4byte	.LFE87-.LFB87
 6213 0e41 01       		.uleb128 0x1
 6214 0e42 9C       		.byte	0x9c
 6215 0e43 430F0000 		.4byte	0xf43
 6216 0e47 14       		.uleb128 0x14
 6217 0e48 5B020000 		.4byte	.LASF104
 6218 0e4c 01       		.byte	0x1
 6219 0e4d 7105     		.2byte	0x571
 6220 0e4f 20010000 		.4byte	0x120
 6221 0e53 660D0000 		.4byte	.LLST55
 6222 0e57 1A       		.uleb128 0x1a
 6223 0e58 3F030000 		.4byte	.LASF142
 6224 0e5c 01       		.byte	0x1
 6225 0e5d 7305     		.2byte	0x573
 6226 0e5f 430F0000 		.4byte	0xf43
 6227 0e63 03       		.uleb128 0x3
 6228 0e64 91       		.byte	0x91
 6229 0e65 CC77     		.sleb128 -1076
 6230 0e67 1A       		.uleb128 0x1a
 6231 0e68 46080000 		.4byte	.LASF143
 6232 0e6c 01       		.byte	0x1
 6233 0e6d 7405     		.2byte	0x574
 6234 0e6f 42030000 		.4byte	0x342
 6235 0e73 03       		.uleb128 0x3
 6236 0e74 91       		.byte	0x91
 6237 0e75 C877     		.sleb128 -1080
 6238 0e77 15       		.uleb128 0x15
 6239 0e78 A4060000 		.4byte	.LASF144
 6240 0e7c 01       		.byte	0x1
 6241 0e7d 7505     		.2byte	0x575
 6242 0e7f B9000000 		.4byte	0xb9
 6243 0e83 BA0D0000 		.4byte	.LLST56
 6244 0e87 15       		.uleb128 0x15
 6245 0e88 EF000000 		.4byte	.LASF105
 6246 0e8c 01       		.byte	0x1
 6247 0e8d 7605     		.2byte	0x576
 6248 0e8f B9000000 		.4byte	0xb9
 6249 0e93 CD0D0000 		.4byte	.LLST57
 6250 0e97 15       		.uleb128 0x15
 6251 0e98 45110000 		.4byte	.LASF145
 6252 0e9c 01       		.byte	0x1
 6253 0e9d 7705     		.2byte	0x577
ARM GAS  C:\Users\Administrator\AppData\Local\Temp\ccX9Bf8z.s 			page 158


 6254 0e9f B9000000 		.4byte	0xb9
 6255 0ea3 6D0E0000 		.4byte	.LLST58
 6256 0ea7 16       		.uleb128 0x16
 6257 0ea8 3A000000 		.4byte	.LVL212
 6258 0eac 16280000 		.4byte	0x2816
 6259 0eb0 C10E0000 		.4byte	0xec1
 6260 0eb4 17       		.uleb128 0x17
 6261 0eb5 01       		.uleb128 0x1
 6262 0eb6 52       		.byte	0x52
 6263 0eb7 02       		.uleb128 0x2
 6264 0eb8 74       		.byte	0x74
 6265 0eb9 00       		.sleb128 0
 6266 0eba 17       		.uleb128 0x17
 6267 0ebb 01       		.uleb128 0x1
 6268 0ebc 50       		.byte	0x50
 6269 0ebd 02       		.uleb128 0x2
 6270 0ebe 76       		.byte	0x76
 6271 0ebf 00       		.sleb128 0
 6272 0ec0 00       		.byte	0
 6273 0ec1 16       		.uleb128 0x16
 6274 0ec2 48000000 		.4byte	.LVL213
 6275 0ec6 FB270000 		.4byte	0x27fb
 6276 0eca DC0E0000 		.4byte	0xedc
 6277 0ece 17       		.uleb128 0x17
 6278 0ecf 01       		.uleb128 0x1
 6279 0ed0 52       		.byte	0x52
 6280 0ed1 02       		.uleb128 0x2
 6281 0ed2 74       		.byte	0x74
 6282 0ed3 00       		.sleb128 0
 6283 0ed4 17       		.uleb128 0x17
 6284 0ed5 01       		.uleb128 0x1
 6285 0ed6 50       		.byte	0x50
 6286 0ed7 03       		.uleb128 0x3
 6287 0ed8 91       		.byte	0x91
 6288 0ed9 CC77     		.sleb128 -1076
 6289 0edb 00       		.byte	0
 6290 0edc 16       		.uleb128 0x16
 6291 0edd 52000000 		.4byte	.LVL214
 6292 0ee1 BE280000 		.4byte	0x28be
 6293 0ee5 FD0E0000 		.4byte	0xefd
 6294 0ee9 17       		.uleb128 0x17
 6295 0eea 01       		.uleb128 0x1
 6296 0eeb 52       		.byte	0x52
 6297 0eec 02       		.uleb128 0x2
 6298 0eed 74       		.byte	0x74
 6299 0eee 00       		.sleb128 0
 6300 0eef 17       		.uleb128 0x17
 6301 0ef0 01       		.uleb128 0x1
 6302 0ef1 51       		.byte	0x51
 6303 0ef2 03       		.uleb128 0x3
 6304 0ef3 91       		.byte	0x91
 6305 0ef4 CC77     		.sleb128 -1076
 6306 0ef6 17       		.uleb128 0x17
 6307 0ef7 01       		.uleb128 0x1
 6308 0ef8 50       		.byte	0x50
 6309 0ef9 02       		.uleb128 0x2
 6310 0efa 76       		.byte	0x76
ARM GAS  C:\Users\Administrator\AppData\Local\Temp\ccX9Bf8z.s 			page 159


 6311 0efb 00       		.sleb128 0
 6312 0efc 00       		.byte	0
 6313 0efd 1B       		.uleb128 0x1b
 6314 0efe 76000000 		.4byte	.LVL216
 6315 0f02 690D0000 		.4byte	0xd69
 6316 0f06 16       		.uleb128 0x16
 6317 0f07 A4000000 		.4byte	.LVL217
 6318 0f0b 16280000 		.4byte	0x2816
 6319 0f0f 270F0000 		.4byte	0xf27
 6320 0f13 17       		.uleb128 0x17
 6321 0f14 01       		.uleb128 0x1
 6322 0f15 52       		.byte	0x52
 6323 0f16 01       		.uleb128 0x1
 6324 0f17 34       		.byte	0x34
 6325 0f18 17       		.uleb128 0x17
 6326 0f19 01       		.uleb128 0x1
 6327 0f1a 51       		.byte	0x51
 6328 0f1b 03       		.uleb128 0x3
 6329 0f1c 49       		.byte	0x49
 6330 0f1d 3D       		.byte	0x3d
 6331 0f1e 24       		.byte	0x24
 6332 0f1f 17       		.uleb128 0x17
 6333 0f20 01       		.uleb128 0x1
 6334 0f21 50       		.byte	0x50
 6335 0f22 03       		.uleb128 0x3
 6336 0f23 91       		.byte	0x91
 6337 0f24 C877     		.sleb128 -1080
 6338 0f26 00       		.byte	0
 6339 0f27 1B       		.uleb128 0x1b
 6340 0f28 C8000000 		.4byte	.LVL218
 6341 0f2c 4A080000 		.4byte	0x84a
 6342 0f30 1B       		.uleb128 0x1b
 6343 0f31 E0000000 		.4byte	.LVL221
 6344 0f35 4A080000 		.4byte	0x84a
 6345 0f39 1B       		.uleb128 0x1b
 6346 0f3a E6000000 		.4byte	.LVL222
 6347 0f3e 690D0000 		.4byte	0xd69
 6348 0f42 00       		.byte	0
 6349 0f43 0A       		.uleb128 0xa
 6350 0f44 AD000000 		.4byte	0xad
 6351 0f48 540F0000 		.4byte	0xf54
 6352 0f4c 27       		.uleb128 0x27
 6353 0f4d 0C010000 		.4byte	0x10c
 6354 0f51 1904     		.2byte	0x419
 6355 0f53 00       		.byte	0
 6356 0f54 28       		.uleb128 0x28
 6357 0f55 6C060000 		.4byte	.LASF147
 6358 0f59 01       		.byte	0x1
 6359 0f5a 1802     		.2byte	0x218
 6360 0f5c 00000000 		.4byte	.LFB72
 6361 0f60 B4000000 		.4byte	.LFE72-.LFB72
 6362 0f64 01       		.uleb128 0x1
 6363 0f65 9C       		.byte	0x9c
 6364 0f66 80100000 		.4byte	0x1080
 6365 0f6a 14       		.uleb128 0x14
 6366 0f6b 10080000 		.4byte	.LASF148
 6367 0f6f 01       		.byte	0x1
ARM GAS  C:\Users\Administrator\AppData\Local\Temp\ccX9Bf8z.s 			page 160


 6368 0f70 1802     		.2byte	0x218
 6369 0f72 AD000000 		.4byte	0xad
 6370 0f76 190F0000 		.4byte	.LLST59
 6371 0f7a 14       		.uleb128 0x14
 6372 0f7b 37020000 		.4byte	.LASF149
 6373 0f7f 01       		.byte	0x1
 6374 0f80 1802     		.2byte	0x218
 6375 0f82 AD000000 		.4byte	0xad
 6376 0f86 3A0F0000 		.4byte	.LLST60
 6377 0f8a 14       		.uleb128 0x14
 6378 0f8b 80030000 		.4byte	.LASF150
 6379 0f8f 01       		.byte	0x1
 6380 0f90 1802     		.2byte	0x218
 6381 0f92 AD000000 		.4byte	0xad
 6382 0f96 5B0F0000 		.4byte	.LLST61
 6383 0f9a 14       		.uleb128 0x14
 6384 0f9b 720B0000 		.4byte	.LASF151
 6385 0f9f 01       		.byte	0x1
 6386 0fa0 1802     		.2byte	0x218
 6387 0fa2 20010000 		.4byte	0x120
 6388 0fa6 7C0F0000 		.4byte	.LLST62
 6389 0faa 14       		.uleb128 0x14
 6390 0fab 6F030000 		.4byte	.LASF152
 6391 0faf 01       		.byte	0x1
 6392 0fb0 1802     		.2byte	0x218
 6393 0fb2 B9000000 		.4byte	0xb9
 6394 0fb6 A90F0000 		.4byte	.LLST63
 6395 0fba 1A       		.uleb128 0x1a
 6396 0fbb E60D0000 		.4byte	.LASF153
 6397 0fbf 01       		.byte	0x1
 6398 0fc0 1A02     		.2byte	0x21a
 6399 0fc2 80100000 		.4byte	0x1080
 6400 0fc6 03       		.uleb128 0x3
 6401 0fc7 91       		.byte	0x91
 6402 0fc8 E87D     		.sleb128 -280
 6403 0fca 25       		.uleb128 0x25
 6404 0fcb 6900     		.ascii	"i\000"
 6405 0fcd 01       		.byte	0x1
 6406 0fce 1B02     		.2byte	0x21b
 6407 0fd0 AD000000 		.4byte	0xad
 6408 0fd4 D50F0000 		.4byte	.LLST64
 6409 0fd8 15       		.uleb128 0x15
 6410 0fd9 9E090000 		.4byte	.LASF154
 6411 0fdd 01       		.byte	0x1
 6412 0fde 1C02     		.2byte	0x21c
 6413 0fe0 B9000000 		.4byte	0xb9
 6414 0fe4 02100000 		.4byte	.LLST65
 6415 0fe8 15       		.uleb128 0x15
 6416 0fe9 D3010000 		.4byte	.LASF127
 6417 0fed 01       		.byte	0x1
 6418 0fee 1D02     		.2byte	0x21d
 6419 0ff0 B9000000 		.4byte	0xb9
 6420 0ff4 7F100000 		.4byte	.LLST66
 6421 0ff8 15       		.uleb128 0x15
 6422 0ff9 660A0000 		.4byte	.LASF155
 6423 0ffd 01       		.byte	0x1
 6424 0ffe 1E02     		.2byte	0x21e
ARM GAS  C:\Users\Administrator\AppData\Local\Temp\ccX9Bf8z.s 			page 161


 6425 1000 B9000000 		.4byte	0xb9
 6426 1004 9D100000 		.4byte	.LLST67
 6427 1008 16       		.uleb128 0x16
 6428 1009 1C000000 		.4byte	.LVL229
 6429 100d 6D280000 		.4byte	0x286d
 6430 1011 29100000 		.4byte	0x1029
 6431 1015 17       		.uleb128 0x17
 6432 1016 01       		.uleb128 0x1
 6433 1017 52       		.byte	0x52
 6434 1018 03       		.uleb128 0x3
 6435 1019 0A       		.byte	0xa
 6436 101a 0001     		.2byte	0x100
 6437 101c 17       		.uleb128 0x17
 6438 101d 01       		.uleb128 0x1
 6439 101e 51       		.byte	0x51
 6440 101f 01       		.uleb128 0x1
 6441 1020 30       		.byte	0x30
 6442 1021 17       		.uleb128 0x17
 6443 1022 01       		.uleb128 0x1
 6444 1023 50       		.byte	0x50
 6445 1024 03       		.uleb128 0x3
 6446 1025 91       		.byte	0x91
 6447 1026 E87D     		.sleb128 -280
 6448 1028 00       		.byte	0
 6449 1029 16       		.uleb128 0x16
 6450 102a 66000000 		.4byte	.LVL240
 6451 102e 8A280000 		.4byte	0x288a
 6452 1032 44100000 		.4byte	0x1044
 6453 1036 17       		.uleb128 0x17
 6454 1037 01       		.uleb128 0x1
 6455 1038 51       		.byte	0x51
 6456 1039 02       		.uleb128 0x2
 6457 103a 74       		.byte	0x74
 6458 103b 00       		.sleb128 0
 6459 103c 17       		.uleb128 0x17
 6460 103d 01       		.uleb128 0x1
 6461 103e 50       		.byte	0x50
 6462 103f 03       		.uleb128 0x3
 6463 1040 91       		.byte	0x91
 6464 1041 E87D     		.sleb128 -280
 6465 1043 00       		.byte	0
 6466 1044 16       		.uleb128 0x16
 6467 1045 82000000 		.4byte	.LVL245
 6468 1049 42280000 		.4byte	0x2842
 6469 104d 5F100000 		.4byte	0x105f
 6470 1051 17       		.uleb128 0x17
 6471 1052 01       		.uleb128 0x1
 6472 1053 51       		.byte	0x51
 6473 1054 02       		.uleb128 0x2
 6474 1055 75       		.byte	0x75
 6475 1056 00       		.sleb128 0
 6476 1057 17       		.uleb128 0x17
 6477 1058 01       		.uleb128 0x1
 6478 1059 50       		.byte	0x50
 6479 105a 03       		.uleb128 0x3
 6480 105b 91       		.byte	0x91
 6481 105c E87D     		.sleb128 -280
ARM GAS  C:\Users\Administrator\AppData\Local\Temp\ccX9Bf8z.s 			page 162


 6482 105e 00       		.byte	0
 6483 105f 1B       		.uleb128 0x1b
 6484 1060 8C000000 		.4byte	.LVL247
 6485 1064 D1270000 		.4byte	0x27d1
 6486 1068 18       		.uleb128 0x18
 6487 1069 A6000000 		.4byte	.LVL248
 6488 106d A4280000 		.4byte	0x28a4
 6489 1071 17       		.uleb128 0x17
 6490 1072 01       		.uleb128 0x1
 6491 1073 51       		.byte	0x51
 6492 1074 02       		.uleb128 0x2
 6493 1075 75       		.byte	0x75
 6494 1076 00       		.sleb128 0
 6495 1077 17       		.uleb128 0x17
 6496 1078 01       		.uleb128 0x1
 6497 1079 50       		.byte	0x50
 6498 107a 03       		.uleb128 0x3
 6499 107b 91       		.byte	0x91
 6500 107c E87D     		.sleb128 -280
 6501 107e 00       		.byte	0
 6502 107f 00       		.byte	0
 6503 1080 0A       		.uleb128 0xa
 6504 1081 AD000000 		.4byte	0xad
 6505 1085 90100000 		.4byte	0x1090
 6506 1089 0B       		.uleb128 0xb
 6507 108a 0C010000 		.4byte	0x10c
 6508 108e FF       		.byte	0xff
 6509 108f 00       		.byte	0
 6510 1090 19       		.uleb128 0x19
 6511 1091 F6070000 		.4byte	.LASF156
 6512 1095 01       		.byte	0x1
 6513 1096 C102     		.2byte	0x2c1
 6514 1098 00000000 		.4byte	.LFB75
 6515 109c DC000000 		.4byte	.LFE75-.LFB75
 6516 10a0 01       		.uleb128 0x1
 6517 10a1 9C       		.byte	0x9c
 6518 10a2 47120000 		.4byte	0x1247
 6519 10a6 14       		.uleb128 0x14
 6520 10a7 5B020000 		.4byte	.LASF104
 6521 10ab 01       		.byte	0x1
 6522 10ac C102     		.2byte	0x2c1
 6523 10ae 20010000 		.4byte	0x120
 6524 10b2 D2100000 		.4byte	.LLST68
 6525 10b6 25       		.uleb128 0x25
 6526 10b7 72657400 		.ascii	"ret\000"
 6527 10bb 01       		.byte	0x1
 6528 10bc C302     		.2byte	0x2c3
 6529 10be AD000000 		.4byte	0xad
 6530 10c2 FE100000 		.4byte	.LLST69
 6531 10c6 1A       		.uleb128 0x1a
 6532 10c7 D3070000 		.4byte	.LASF157
 6533 10cb 01       		.byte	0x1
 6534 10cc C402     		.2byte	0x2c4
 6535 10ce 47120000 		.4byte	0x1247
 6536 10d2 03       		.uleb128 0x3
 6537 10d3 91       		.byte	0x91
 6538 10d4 A87F     		.sleb128 -88
ARM GAS  C:\Users\Administrator\AppData\Local\Temp\ccX9Bf8z.s 			page 163


 6539 10d6 25       		.uleb128 0x25
 6540 10d7 705400   		.ascii	"pT\000"
 6541 10da 01       		.byte	0x1
 6542 10db C502     		.2byte	0x2c5
 6543 10dd 20010000 		.4byte	0x120
 6544 10e1 1C110000 		.4byte	.LLST70
 6545 10e5 1A       		.uleb128 0x1a
 6546 10e6 6A030000 		.4byte	.LASF158
 6547 10ea 01       		.byte	0x1
 6548 10eb C602     		.2byte	0x2c6
 6549 10ed 32030000 		.4byte	0x332
 6550 10f1 03       		.uleb128 0x3
 6551 10f2 91       		.byte	0x91
 6552 10f3 A07F     		.sleb128 -96
 6553 10f5 15       		.uleb128 0x15
 6554 10f6 E20C0000 		.4byte	.LASF159
 6555 10fa 01       		.byte	0x1
 6556 10fb C702     		.2byte	0x2c7
 6557 10fd AD000000 		.4byte	0xad
 6558 1101 8E110000 		.4byte	.LLST71
 6559 1105 1A       		.uleb128 0x1a
 6560 1106 EF000000 		.4byte	.LASF105
 6561 110a 01       		.byte	0x1
 6562 110b C802     		.2byte	0x2c8
 6563 110d B9000000 		.4byte	0xb9
 6564 1111 03       		.uleb128 0x3
 6565 1112 91       		.byte	0x91
 6566 1113 9C7F     		.sleb128 -100
 6567 1115 16       		.uleb128 0x16
 6568 1116 2A000000 		.4byte	.LVL256
 6569 111a 6D280000 		.4byte	0x286d
 6570 111e 36110000 		.4byte	0x1136
 6571 1122 17       		.uleb128 0x17
 6572 1123 01       		.uleb128 0x1
 6573 1124 52       		.byte	0x52
 6574 1125 02       		.uleb128 0x2
 6575 1126 08       		.byte	0x8
 6576 1127 40       		.byte	0x40
 6577 1128 17       		.uleb128 0x17
 6578 1129 01       		.uleb128 0x1
 6579 112a 51       		.byte	0x51
 6580 112b 02       		.uleb128 0x2
 6581 112c 75       		.byte	0x75
 6582 112d 00       		.sleb128 0
 6583 112e 17       		.uleb128 0x17
 6584 112f 01       		.uleb128 0x1
 6585 1130 50       		.byte	0x50
 6586 1131 03       		.uleb128 0x3
 6587 1132 91       		.byte	0x91
 6588 1133 A87F     		.sleb128 -88
 6589 1135 00       		.byte	0
 6590 1136 16       		.uleb128 0x16
 6591 1137 34000000 		.4byte	.LVL258
 6592 113b 82270000 		.4byte	0x2782
 6593 113f 56110000 		.4byte	0x1156
 6594 1143 17       		.uleb128 0x17
 6595 1144 01       		.uleb128 0x1
ARM GAS  C:\Users\Administrator\AppData\Local\Temp\ccX9Bf8z.s 			page 164


 6596 1145 52       		.byte	0x52
 6597 1146 01       		.uleb128 0x1
 6598 1147 36       		.byte	0x36
 6599 1148 17       		.uleb128 0x17
 6600 1149 01       		.uleb128 0x1
 6601 114a 51       		.byte	0x51
 6602 114b 02       		.uleb128 0x2
 6603 114c 76       		.byte	0x76
 6604 114d 07       		.sleb128 7
 6605 114e 17       		.uleb128 0x17
 6606 114f 01       		.uleb128 0x1
 6607 1150 50       		.byte	0x50
 6608 1151 03       		.uleb128 0x3
 6609 1152 91       		.byte	0x91
 6610 1153 A87F     		.sleb128 -88
 6611 1155 00       		.byte	0
 6612 1156 16       		.uleb128 0x16
 6613 1157 3A000000 		.4byte	.LVL259
 6614 115b 31280000 		.4byte	0x2831
 6615 115f 69110000 		.4byte	0x1169
 6616 1163 17       		.uleb128 0x17
 6617 1164 01       		.uleb128 0x1
 6618 1165 50       		.byte	0x50
 6619 1166 01       		.uleb128 0x1
 6620 1167 3D       		.byte	0x3d
 6621 1168 00       		.byte	0
 6622 1169 16       		.uleb128 0x16
 6623 116a 4E000000 		.4byte	.LVL261
 6624 116e DD280000 		.4byte	0x28dd
 6625 1172 82110000 		.4byte	0x1182
 6626 1176 17       		.uleb128 0x17
 6627 1177 01       		.uleb128 0x1
 6628 1178 51       		.byte	0x51
 6629 1179 01       		.uleb128 0x1
 6630 117a 38       		.byte	0x38
 6631 117b 17       		.uleb128 0x17
 6632 117c 01       		.uleb128 0x1
 6633 117d 50       		.byte	0x50
 6634 117e 02       		.uleb128 0x2
 6635 117f 74       		.byte	0x74
 6636 1180 00       		.sleb128 0
 6637 1181 00       		.byte	0
 6638 1182 16       		.uleb128 0x16
 6639 1183 74000000 		.4byte	.LVL263
 6640 1187 31280000 		.4byte	0x2831
 6641 118b 95110000 		.4byte	0x1195
 6642 118f 17       		.uleb128 0x17
 6643 1190 01       		.uleb128 0x1
 6644 1191 50       		.byte	0x50
 6645 1192 01       		.uleb128 0x1
 6646 1193 3E       		.byte	0x3e
 6647 1194 00       		.byte	0
 6648 1195 16       		.uleb128 0x16
 6649 1196 84000000 		.4byte	.LVL264
 6650 119a F7280000 		.4byte	0x28f7
 6651 119e B4110000 		.4byte	0x11b4
 6652 11a2 17       		.uleb128 0x17
ARM GAS  C:\Users\Administrator\AppData\Local\Temp\ccX9Bf8z.s 			page 165


 6653 11a3 01       		.uleb128 0x1
 6654 11a4 52       		.byte	0x52
 6655 11a5 01       		.uleb128 0x1
 6656 11a6 37       		.byte	0x37
 6657 11a7 17       		.uleb128 0x17
 6658 11a8 01       		.uleb128 0x1
 6659 11a9 51       		.byte	0x51
 6660 11aa 02       		.uleb128 0x2
 6661 11ab 08       		.byte	0x8
 6662 11ac FF       		.byte	0xff
 6663 11ad 17       		.uleb128 0x17
 6664 11ae 01       		.uleb128 0x1
 6665 11af 50       		.byte	0x50
 6666 11b0 02       		.uleb128 0x2
 6667 11b1 74       		.byte	0x74
 6668 11b2 00       		.sleb128 0
 6669 11b3 00       		.byte	0
 6670 11b4 16       		.uleb128 0x16
 6671 11b5 8E000000 		.4byte	.LVL265
 6672 11b9 31280000 		.4byte	0x2831
 6673 11bd C7110000 		.4byte	0x11c7
 6674 11c1 17       		.uleb128 0x17
 6675 11c2 01       		.uleb128 0x1
 6676 11c3 50       		.byte	0x50
 6677 11c4 01       		.uleb128 0x1
 6678 11c5 42       		.byte	0x42
 6679 11c6 00       		.byte	0
 6680 11c7 16       		.uleb128 0x16
 6681 11c8 94000000 		.4byte	.LVL266
 6682 11cc BA070000 		.4byte	0x7ba
 6683 11d0 DB110000 		.4byte	0x11db
 6684 11d4 17       		.uleb128 0x17
 6685 11d5 01       		.uleb128 0x1
 6686 11d6 50       		.byte	0x50
 6687 11d7 02       		.uleb128 0x2
 6688 11d8 74       		.byte	0x74
 6689 11d9 00       		.sleb128 0
 6690 11da 00       		.byte	0
 6691 11db 16       		.uleb128 0x16
 6692 11dc A2000000 		.4byte	.LVL268
 6693 11e0 82270000 		.4byte	0x2782
 6694 11e4 FB110000 		.4byte	0x11fb
 6695 11e8 17       		.uleb128 0x17
 6696 11e9 01       		.uleb128 0x1
 6697 11ea 52       		.byte	0x52
 6698 11eb 01       		.uleb128 0x1
 6699 11ec 38       		.byte	0x38
 6700 11ed 17       		.uleb128 0x17
 6701 11ee 01       		.uleb128 0x1
 6702 11ef 51       		.byte	0x51
 6703 11f0 02       		.uleb128 0x2
 6704 11f1 74       		.byte	0x74
 6705 11f2 00       		.sleb128 0
 6706 11f3 17       		.uleb128 0x17
 6707 11f4 01       		.uleb128 0x1
 6708 11f5 50       		.byte	0x50
 6709 11f6 03       		.uleb128 0x3
ARM GAS  C:\Users\Administrator\AppData\Local\Temp\ccX9Bf8z.s 			page 166


 6710 11f7 91       		.byte	0x91
 6711 11f8 AE7F     		.sleb128 -82
 6712 11fa 00       		.byte	0
 6713 11fb 16       		.uleb128 0x16
 6714 11fc B4000000 		.4byte	.LVL270
 6715 1200 82270000 		.4byte	0x2782
 6716 1204 22120000 		.4byte	0x1222
 6717 1208 17       		.uleb128 0x17
 6718 1209 01       		.uleb128 0x1
 6719 120a 52       		.byte	0x52
 6720 120b 01       		.uleb128 0x1
 6721 120c 34       		.byte	0x34
 6722 120d 17       		.uleb128 0x17
 6723 120e 01       		.uleb128 0x1
 6724 120f 51       		.byte	0x51
 6725 1210 09       		.uleb128 0x9
 6726 1211 76       		.byte	0x76
 6727 1212 00       		.sleb128 0
 6728 1213 91       		.byte	0x91
 6729 1214 9C7F     		.sleb128 -100
 6730 1216 06       		.byte	0x6
 6731 1217 22       		.byte	0x22
 6732 1218 36       		.byte	0x36
 6733 1219 1C       		.byte	0x1c
 6734 121a 17       		.uleb128 0x17
 6735 121b 01       		.uleb128 0x1
 6736 121c 50       		.byte	0x50
 6737 121d 03       		.uleb128 0x3
 6738 121e 91       		.byte	0x91
 6739 121f B67F     		.sleb128 -74
 6740 1221 00       		.byte	0
 6741 1222 18       		.uleb128 0x18
 6742 1223 D0000000 		.4byte	.LVL271
 6743 1227 540F0000 		.4byte	0xf54
 6744 122b 17       		.uleb128 0x17
 6745 122c 01       		.uleb128 0x1
 6746 122d 53       		.byte	0x53
 6747 122e 02       		.uleb128 0x2
 6748 122f 77       		.byte	0x77
 6749 1230 00       		.sleb128 0
 6750 1231 17       		.uleb128 0x17
 6751 1232 01       		.uleb128 0x1
 6752 1233 51       		.byte	0x51
 6753 1234 01       		.uleb128 0x1
 6754 1235 31       		.byte	0x31
 6755 1236 17       		.uleb128 0x17
 6756 1237 01       		.uleb128 0x1
 6757 1238 50       		.byte	0x50
 6758 1239 05       		.uleb128 0x5
 6759 123a 91       		.byte	0x91
 6760 123b 987F     		.sleb128 -104
 6761 123d 94       		.byte	0x94
 6762 123e 01       		.byte	0x1
 6763 123f 17       		.uleb128 0x17
 6764 1240 02       		.uleb128 0x2
 6765 1241 7D       		.byte	0x7d
 6766 1242 00       		.sleb128 0
ARM GAS  C:\Users\Administrator\AppData\Local\Temp\ccX9Bf8z.s 			page 167


 6767 1243 01       		.uleb128 0x1
 6768 1244 43       		.byte	0x43
 6769 1245 00       		.byte	0
 6770 1246 00       		.byte	0
 6771 1247 0A       		.uleb128 0xa
 6772 1248 AD000000 		.4byte	0xad
 6773 124c 57120000 		.4byte	0x1257
 6774 1250 0B       		.uleb128 0xb
 6775 1251 0C010000 		.4byte	0x10c
 6776 1255 3F       		.byte	0x3f
 6777 1256 00       		.byte	0
 6778 1257 19       		.uleb128 0x19
 6779 1258 A8010000 		.4byte	.LASF160
 6780 125c 01       		.byte	0x1
 6781 125d 0D03     		.2byte	0x30d
 6782 125f 00000000 		.4byte	.LFB76
 6783 1263 BC000000 		.4byte	.LFE76-.LFB76
 6784 1267 01       		.uleb128 0x1
 6785 1268 9C       		.byte	0x9c
 6786 1269 44140000 		.4byte	0x1444
 6787 126d 14       		.uleb128 0x14
 6788 126e 5B020000 		.4byte	.LASF104
 6789 1272 01       		.byte	0x1
 6790 1273 0D03     		.2byte	0x30d
 6791 1275 20010000 		.4byte	0x120
 6792 1279 D5110000 		.4byte	.LLST72
 6793 127d 1A       		.uleb128 0x1a
 6794 127e D3070000 		.4byte	.LASF157
 6795 1282 01       		.byte	0x1
 6796 1283 0F03     		.2byte	0x30f
 6797 1285 47120000 		.4byte	0x1247
 6798 1289 03       		.uleb128 0x3
 6799 128a 91       		.byte	0x91
 6800 128b A87F     		.sleb128 -88
 6801 128d 25       		.uleb128 0x25
 6802 128e 705400   		.ascii	"pT\000"
 6803 1291 01       		.byte	0x1
 6804 1292 1003     		.2byte	0x310
 6805 1294 20010000 		.4byte	0x120
 6806 1298 0E120000 		.4byte	.LLST73
 6807 129c 1A       		.uleb128 0x1a
 6808 129d 6A030000 		.4byte	.LASF158
 6809 12a1 01       		.byte	0x1
 6810 12a2 1103     		.2byte	0x311
 6811 12a4 32030000 		.4byte	0x332
 6812 12a8 03       		.uleb128 0x3
 6813 12a9 91       		.byte	0x91
 6814 12aa 947F     		.sleb128 -108
 6815 12ac 1A       		.uleb128 0x1a
 6816 12ad 0A080000 		.4byte	.LASF112
 6817 12b1 01       		.byte	0x1
 6818 12b2 1203     		.2byte	0x312
 6819 12b4 42030000 		.4byte	0x342
 6820 12b8 03       		.uleb128 0x3
 6821 12b9 91       		.byte	0x91
 6822 12ba 907F     		.sleb128 -112
 6823 12bc 15       		.uleb128 0x15
ARM GAS  C:\Users\Administrator\AppData\Local\Temp\ccX9Bf8z.s 			page 168


 6824 12bd E20C0000 		.4byte	.LASF159
 6825 12c1 01       		.byte	0x1
 6826 12c2 1303     		.2byte	0x313
 6827 12c4 AD000000 		.4byte	0xad
 6828 12c8 67120000 		.4byte	.LLST74
 6829 12cc 1A       		.uleb128 0x1a
 6830 12cd 3D0C0000 		.4byte	.LASF95
 6831 12d1 01       		.byte	0x1
 6832 12d2 1403     		.2byte	0x314
 6833 12d4 52030000 		.4byte	0x352
 6834 12d8 03       		.uleb128 0x3
 6835 12d9 91       		.byte	0x91
 6836 12da 9C7F     		.sleb128 -100
 6837 12dc 1A       		.uleb128 0x1a
 6838 12dd EF000000 		.4byte	.LASF105
 6839 12e1 01       		.byte	0x1
 6840 12e2 1503     		.2byte	0x315
 6841 12e4 B9000000 		.4byte	0xb9
 6842 12e8 03       		.uleb128 0x3
 6843 12e9 91       		.byte	0x91
 6844 12ea 8C7F     		.sleb128 -116
 6845 12ec 16       		.uleb128 0x16
 6846 12ed 26000000 		.4byte	.LVL280
 6847 12f1 6D280000 		.4byte	0x286d
 6848 12f5 0B130000 		.4byte	0x130b
 6849 12f9 17       		.uleb128 0x17
 6850 12fa 01       		.uleb128 0x1
 6851 12fb 52       		.byte	0x52
 6852 12fc 02       		.uleb128 0x2
 6853 12fd 08       		.byte	0x8
 6854 12fe 40       		.byte	0x40
 6855 12ff 17       		.uleb128 0x17
 6856 1300 01       		.uleb128 0x1
 6857 1301 51       		.byte	0x51
 6858 1302 01       		.uleb128 0x1
 6859 1303 30       		.byte	0x30
 6860 1304 17       		.uleb128 0x17
 6861 1305 01       		.uleb128 0x1
 6862 1306 50       		.byte	0x50
 6863 1307 02       		.uleb128 0x2
 6864 1308 76       		.byte	0x76
 6865 1309 00       		.sleb128 0
 6866 130a 00       		.byte	0
 6867 130b 16       		.uleb128 0x16
 6868 130c 30000000 		.4byte	.LVL281
 6869 1310 82270000 		.4byte	0x2782
 6870 1314 2A130000 		.4byte	0x132a
 6871 1318 17       		.uleb128 0x17
 6872 1319 01       		.uleb128 0x1
 6873 131a 52       		.byte	0x52
 6874 131b 01       		.uleb128 0x1
 6875 131c 36       		.byte	0x36
 6876 131d 17       		.uleb128 0x17
 6877 131e 01       		.uleb128 0x1
 6878 131f 51       		.byte	0x51
 6879 1320 02       		.uleb128 0x2
 6880 1321 74       		.byte	0x74
ARM GAS  C:\Users\Administrator\AppData\Local\Temp\ccX9Bf8z.s 			page 169


 6881 1322 07       		.sleb128 7
 6882 1323 17       		.uleb128 0x17
 6883 1324 01       		.uleb128 0x1
 6884 1325 50       		.byte	0x50
 6885 1326 02       		.uleb128 0x2
 6886 1327 76       		.byte	0x76
 6887 1328 00       		.sleb128 0
 6888 1329 00       		.byte	0
 6889 132a 16       		.uleb128 0x16
 6890 132b 42000000 		.4byte	.LVL283
 6891 132f 82270000 		.4byte	0x2782
 6892 1333 4A130000 		.4byte	0x134a
 6893 1337 17       		.uleb128 0x17
 6894 1338 01       		.uleb128 0x1
 6895 1339 52       		.byte	0x52
 6896 133a 01       		.uleb128 0x1
 6897 133b 38       		.byte	0x38
 6898 133c 17       		.uleb128 0x17
 6899 133d 01       		.uleb128 0x1
 6900 133e 51       		.byte	0x51
 6901 133f 02       		.uleb128 0x2
 6902 1340 77       		.byte	0x77
 6903 1341 00       		.sleb128 0
 6904 1342 17       		.uleb128 0x17
 6905 1343 01       		.uleb128 0x1
 6906 1344 50       		.byte	0x50
 6907 1345 03       		.uleb128 0x3
 6908 1346 91       		.byte	0x91
 6909 1347 AE7F     		.sleb128 -82
 6910 1349 00       		.byte	0
 6911 134a 16       		.uleb128 0x16
 6912 134b 4C000000 		.4byte	.LVL284
 6913 134f 82270000 		.4byte	0x2782
 6914 1353 69130000 		.4byte	0x1369
 6915 1357 17       		.uleb128 0x17
 6916 1358 01       		.uleb128 0x1
 6917 1359 52       		.byte	0x52
 6918 135a 01       		.uleb128 0x1
 6919 135b 38       		.byte	0x38
 6920 135c 17       		.uleb128 0x17
 6921 135d 01       		.uleb128 0x1
 6922 135e 51       		.byte	0x51
 6923 135f 02       		.uleb128 0x2
 6924 1360 77       		.byte	0x77
 6925 1361 00       		.sleb128 0
 6926 1362 17       		.uleb128 0x17
 6927 1363 01       		.uleb128 0x1
 6928 1364 50       		.byte	0x50
 6929 1365 02       		.uleb128 0x2
 6930 1366 75       		.byte	0x75
 6931 1367 00       		.sleb128 0
 6932 1368 00       		.byte	0
 6933 1369 16       		.uleb128 0x16
 6934 136a 5C000000 		.4byte	.LVL286
 6935 136e 82270000 		.4byte	0x2782
 6936 1372 89130000 		.4byte	0x1389
 6937 1376 17       		.uleb128 0x17
ARM GAS  C:\Users\Administrator\AppData\Local\Temp\ccX9Bf8z.s 			page 170


 6938 1377 01       		.uleb128 0x1
 6939 1378 52       		.byte	0x52
 6940 1379 01       		.uleb128 0x1
 6941 137a 34       		.byte	0x34
 6942 137b 17       		.uleb128 0x17
 6943 137c 01       		.uleb128 0x1
 6944 137d 51       		.byte	0x51
 6945 137e 02       		.uleb128 0x2
 6946 137f 77       		.byte	0x77
 6947 1380 00       		.sleb128 0
 6948 1381 17       		.uleb128 0x17
 6949 1382 01       		.uleb128 0x1
 6950 1383 50       		.byte	0x50
 6951 1384 03       		.uleb128 0x3
 6952 1385 91       		.byte	0x91
 6953 1386 B67F     		.sleb128 -74
 6954 1388 00       		.byte	0
 6955 1389 16       		.uleb128 0x16
 6956 138a 66000000 		.4byte	.LVL287
 6957 138e 82270000 		.4byte	0x2782
 6958 1392 A9130000 		.4byte	0x13a9
 6959 1396 17       		.uleb128 0x17
 6960 1397 01       		.uleb128 0x1
 6961 1398 52       		.byte	0x52
 6962 1399 01       		.uleb128 0x1
 6963 139a 34       		.byte	0x34
 6964 139b 17       		.uleb128 0x17
 6965 139c 01       		.uleb128 0x1
 6966 139d 51       		.byte	0x51
 6967 139e 02       		.uleb128 0x2
 6968 139f 77       		.byte	0x77
 6969 13a0 00       		.sleb128 0
 6970 13a1 17       		.uleb128 0x17
 6971 13a2 01       		.uleb128 0x1
 6972 13a3 50       		.byte	0x50
 6973 13a4 03       		.uleb128 0x3
 6974 13a5 91       		.byte	0x91
 6975 13a6 907F     		.sleb128 -112
 6976 13a8 00       		.byte	0
 6977 13a9 16       		.uleb128 0x16
 6978 13aa 78000000 		.4byte	.LVL289
 6979 13ae 82270000 		.4byte	0x2782
 6980 13b2 D0130000 		.4byte	0x13d0
 6981 13b6 17       		.uleb128 0x17
 6982 13b7 01       		.uleb128 0x1
 6983 13b8 52       		.byte	0x52
 6984 13b9 01       		.uleb128 0x1
 6985 13ba 34       		.byte	0x34
 6986 13bb 17       		.uleb128 0x17
 6987 13bc 01       		.uleb128 0x1
 6988 13bd 51       		.byte	0x51
 6989 13be 09       		.uleb128 0x9
 6990 13bf 74       		.byte	0x74
 6991 13c0 00       		.sleb128 0
 6992 13c1 91       		.byte	0x91
 6993 13c2 8C7F     		.sleb128 -116
 6994 13c4 06       		.byte	0x6
ARM GAS  C:\Users\Administrator\AppData\Local\Temp\ccX9Bf8z.s 			page 171


 6995 13c5 22       		.byte	0x22
 6996 13c6 36       		.byte	0x36
 6997 13c7 1C       		.byte	0x1c
 6998 13c8 17       		.uleb128 0x17
 6999 13c9 01       		.uleb128 0x1
 7000 13ca 50       		.byte	0x50
 7001 13cb 03       		.uleb128 0x3
 7002 13cc 91       		.byte	0x91
 7003 13cd BA7F     		.sleb128 -70
 7004 13cf 00       		.byte	0
 7005 13d0 16       		.uleb128 0x16
 7006 13d1 7E000000 		.4byte	.LVL290
 7007 13d5 BA070000 		.4byte	0x7ba
 7008 13d9 E4130000 		.4byte	0x13e4
 7009 13dd 17       		.uleb128 0x17
 7010 13de 01       		.uleb128 0x1
 7011 13df 50       		.byte	0x50
 7012 13e0 02       		.uleb128 0x2
 7013 13e1 75       		.byte	0x75
 7014 13e2 00       		.sleb128 0
 7015 13e3 00       		.byte	0
 7016 13e4 16       		.uleb128 0x16
 7017 13e5 8E000000 		.4byte	.LVL291
 7018 13e9 16290000 		.4byte	0x2916
 7019 13ed F9130000 		.4byte	0x13f9
 7020 13f1 17       		.uleb128 0x17
 7021 13f2 01       		.uleb128 0x1
 7022 13f3 50       		.byte	0x50
 7023 13f4 03       		.uleb128 0x3
 7024 13f5 91       		.byte	0x91
 7025 13f6 9C7F     		.sleb128 -100
 7026 13f8 00       		.byte	0
 7027 13f9 16       		.uleb128 0x16
 7028 13fa 9A000000 		.4byte	.LVL292
 7029 13fe 31280000 		.4byte	0x2831
 7030 1402 0C140000 		.4byte	0x140c
 7031 1406 17       		.uleb128 0x17
 7032 1407 01       		.uleb128 0x1
 7033 1408 50       		.byte	0x50
 7034 1409 01       		.uleb128 0x1
 7035 140a 34       		.byte	0x34
 7036 140b 00       		.byte	0
 7037 140c 16       		.uleb128 0x16
 7038 140d A4000000 		.4byte	.LVL293
 7039 1411 31280000 		.4byte	0x2831
 7040 1415 1F140000 		.4byte	0x141f
 7041 1419 17       		.uleb128 0x17
 7042 141a 01       		.uleb128 0x1
 7043 141b 50       		.byte	0x50
 7044 141c 01       		.uleb128 0x1
 7045 141d 35       		.byte	0x35
 7046 141e 00       		.byte	0
 7047 141f 18       		.uleb128 0x18
 7048 1420 B8000000 		.4byte	.LVL294
 7049 1424 540F0000 		.4byte	0xf54
 7050 1428 17       		.uleb128 0x17
 7051 1429 01       		.uleb128 0x1
ARM GAS  C:\Users\Administrator\AppData\Local\Temp\ccX9Bf8z.s 			page 172


 7052 142a 53       		.byte	0x53
 7053 142b 02       		.uleb128 0x2
 7054 142c 76       		.byte	0x76
 7055 142d 00       		.sleb128 0
 7056 142e 17       		.uleb128 0x17
 7057 142f 01       		.uleb128 0x1
 7058 1430 51       		.byte	0x51
 7059 1431 01       		.uleb128 0x1
 7060 1432 31       		.byte	0x31
 7061 1433 17       		.uleb128 0x17
 7062 1434 01       		.uleb128 0x1
 7063 1435 50       		.byte	0x50
 7064 1436 05       		.uleb128 0x5
 7065 1437 91       		.byte	0x91
 7066 1438 887F     		.sleb128 -120
 7067 143a 94       		.byte	0x94
 7068 143b 01       		.byte	0x1
 7069 143c 17       		.uleb128 0x17
 7070 143d 02       		.uleb128 0x2
 7071 143e 7D       		.byte	0x7d
 7072 143f 00       		.sleb128 0
 7073 1440 01       		.uleb128 0x1
 7074 1441 47       		.byte	0x47
 7075 1442 00       		.byte	0
 7076 1443 00       		.byte	0
 7077 1444 19       		.uleb128 0x19
 7078 1445 32070000 		.4byte	.LASF161
 7079 1449 01       		.byte	0x1
 7080 144a 4903     		.2byte	0x349
 7081 144c 00000000 		.4byte	.LFB77
 7082 1450 9E000000 		.4byte	.LFE77-.LFB77
 7083 1454 01       		.uleb128 0x1
 7084 1455 9C       		.byte	0x9c
 7085 1456 D6150000 		.4byte	0x15d6
 7086 145a 14       		.uleb128 0x14
 7087 145b 5B020000 		.4byte	.LASF104
 7088 145f 01       		.byte	0x1
 7089 1460 4903     		.2byte	0x349
 7090 1462 20010000 		.4byte	0x120
 7091 1466 C7120000 		.4byte	.LLST75
 7092 146a 25       		.uleb128 0x25
 7093 146b 72657400 		.ascii	"ret\000"
 7094 146f 01       		.byte	0x1
 7095 1470 4B03     		.2byte	0x34b
 7096 1472 AD000000 		.4byte	0xad
 7097 1476 F3120000 		.4byte	.LLST76
 7098 147a 1A       		.uleb128 0x1a
 7099 147b D3070000 		.4byte	.LASF157
 7100 147f 01       		.byte	0x1
 7101 1480 4C03     		.2byte	0x34c
 7102 1482 47120000 		.4byte	0x1247
 7103 1486 03       		.uleb128 0x3
 7104 1487 91       		.byte	0x91
 7105 1488 A87F     		.sleb128 -88
 7106 148a 25       		.uleb128 0x25
 7107 148b 705400   		.ascii	"pT\000"
 7108 148e 01       		.byte	0x1
ARM GAS  C:\Users\Administrator\AppData\Local\Temp\ccX9Bf8z.s 			page 173


 7109 148f 4D03     		.2byte	0x34d
 7110 1491 20010000 		.4byte	0x120
 7111 1495 12130000 		.4byte	.LLST77
 7112 1499 1A       		.uleb128 0x1a
 7113 149a 6A030000 		.4byte	.LASF158
 7114 149e 01       		.byte	0x1
 7115 149f 4E03     		.2byte	0x34e
 7116 14a1 32030000 		.4byte	0x332
 7117 14a5 03       		.uleb128 0x3
 7118 14a6 91       		.byte	0x91
 7119 14a7 A07F     		.sleb128 -96
 7120 14a9 15       		.uleb128 0x15
 7121 14aa E20C0000 		.4byte	.LASF159
 7122 14ae 01       		.byte	0x1
 7123 14af 4F03     		.2byte	0x34f
 7124 14b1 AD000000 		.4byte	0xad
 7125 14b5 5D130000 		.4byte	.LLST78
 7126 14b9 1A       		.uleb128 0x1a
 7127 14ba EF000000 		.4byte	.LASF105
 7128 14be 01       		.byte	0x1
 7129 14bf 5003     		.2byte	0x350
 7130 14c1 B9000000 		.4byte	0xb9
 7131 14c5 03       		.uleb128 0x3
 7132 14c6 91       		.byte	0x91
 7133 14c7 9C7F     		.sleb128 -100
 7134 14c9 16       		.uleb128 0x16
 7135 14ca 24000000 		.4byte	.LVL303
 7136 14ce 6D280000 		.4byte	0x286d
 7137 14d2 E8140000 		.4byte	0x14e8
 7138 14d6 17       		.uleb128 0x17
 7139 14d7 01       		.uleb128 0x1
 7140 14d8 52       		.byte	0x52
 7141 14d9 02       		.uleb128 0x2
 7142 14da 08       		.byte	0x8
 7143 14db 40       		.byte	0x40
 7144 14dc 17       		.uleb128 0x17
 7145 14dd 01       		.uleb128 0x1
 7146 14de 51       		.byte	0x51
 7147 14df 01       		.uleb128 0x1
 7148 14e0 30       		.byte	0x30
 7149 14e1 17       		.uleb128 0x17
 7150 14e2 01       		.uleb128 0x1
 7151 14e3 50       		.byte	0x50
 7152 14e4 02       		.uleb128 0x2
 7153 14e5 75       		.byte	0x75
 7154 14e6 00       		.sleb128 0
 7155 14e7 00       		.byte	0
 7156 14e8 16       		.uleb128 0x16
 7157 14e9 2E000000 		.4byte	.LVL304
 7158 14ed 82270000 		.4byte	0x2782
 7159 14f1 07150000 		.4byte	0x1507
 7160 14f5 17       		.uleb128 0x17
 7161 14f6 01       		.uleb128 0x1
 7162 14f7 52       		.byte	0x52
 7163 14f8 01       		.uleb128 0x1
 7164 14f9 36       		.byte	0x36
 7165 14fa 17       		.uleb128 0x17
ARM GAS  C:\Users\Administrator\AppData\Local\Temp\ccX9Bf8z.s 			page 174


 7166 14fb 01       		.uleb128 0x1
 7167 14fc 51       		.byte	0x51
 7168 14fd 02       		.uleb128 0x2
 7169 14fe 74       		.byte	0x74
 7170 14ff 07       		.sleb128 7
 7171 1500 17       		.uleb128 0x17
 7172 1501 01       		.uleb128 0x1
 7173 1502 50       		.byte	0x50
 7174 1503 02       		.uleb128 0x2
 7175 1504 75       		.byte	0x75
 7176 1505 00       		.sleb128 0
 7177 1506 00       		.byte	0
 7178 1507 16       		.uleb128 0x16
 7179 1508 3E000000 		.4byte	.LVL305
 7180 150c 82270000 		.4byte	0x2782
 7181 1510 27150000 		.4byte	0x1527
 7182 1514 17       		.uleb128 0x17
 7183 1515 01       		.uleb128 0x1
 7184 1516 52       		.byte	0x52
 7185 1517 01       		.uleb128 0x1
 7186 1518 38       		.byte	0x38
 7187 1519 17       		.uleb128 0x17
 7188 151a 01       		.uleb128 0x1
 7189 151b 51       		.byte	0x51
 7190 151c 02       		.uleb128 0x2
 7191 151d 76       		.byte	0x76
 7192 151e 00       		.sleb128 0
 7193 151f 17       		.uleb128 0x17
 7194 1520 01       		.uleb128 0x1
 7195 1521 50       		.byte	0x50
 7196 1522 03       		.uleb128 0x3
 7197 1523 91       		.byte	0x91
 7198 1524 AE7F     		.sleb128 -82
 7199 1526 00       		.byte	0
 7200 1527 16       		.uleb128 0x16
 7201 1528 48000000 		.4byte	.LVL306
 7202 152c 82270000 		.4byte	0x2782
 7203 1530 47150000 		.4byte	0x1547
 7204 1534 17       		.uleb128 0x17
 7205 1535 01       		.uleb128 0x1
 7206 1536 52       		.byte	0x52
 7207 1537 01       		.uleb128 0x1
 7208 1538 38       		.byte	0x38
 7209 1539 17       		.uleb128 0x17
 7210 153a 01       		.uleb128 0x1
 7211 153b 51       		.byte	0x51
 7212 153c 02       		.uleb128 0x2
 7213 153d 76       		.byte	0x76
 7214 153e 00       		.sleb128 0
 7215 153f 17       		.uleb128 0x17
 7216 1540 01       		.uleb128 0x1
 7217 1541 50       		.byte	0x50
 7218 1542 03       		.uleb128 0x3
 7219 1543 91       		.byte	0x91
 7220 1544 A07F     		.sleb128 -96
 7221 1546 00       		.byte	0
 7222 1547 16       		.uleb128 0x16
ARM GAS  C:\Users\Administrator\AppData\Local\Temp\ccX9Bf8z.s 			page 175


 7223 1548 5A000000 		.4byte	.LVL307
 7224 154c 82270000 		.4byte	0x2782
 7225 1550 6E150000 		.4byte	0x156e
 7226 1554 17       		.uleb128 0x17
 7227 1555 01       		.uleb128 0x1
 7228 1556 52       		.byte	0x52
 7229 1557 01       		.uleb128 0x1
 7230 1558 34       		.byte	0x34
 7231 1559 17       		.uleb128 0x17
 7232 155a 01       		.uleb128 0x1
 7233 155b 51       		.byte	0x51
 7234 155c 09       		.uleb128 0x9
 7235 155d 74       		.byte	0x74
 7236 155e 00       		.sleb128 0
 7237 155f 91       		.byte	0x91
 7238 1560 9C7F     		.sleb128 -100
 7239 1562 06       		.byte	0x6
 7240 1563 22       		.byte	0x22
 7241 1564 36       		.byte	0x36
 7242 1565 1C       		.byte	0x1c
 7243 1566 17       		.uleb128 0x17
 7244 1567 01       		.uleb128 0x1
 7245 1568 50       		.byte	0x50
 7246 1569 03       		.uleb128 0x3
 7247 156a 91       		.byte	0x91
 7248 156b B67F     		.sleb128 -74
 7249 156d 00       		.byte	0
 7250 156e 16       		.uleb128 0x16
 7251 156f 60000000 		.4byte	.LVL308
 7252 1573 BA070000 		.4byte	0x7ba
 7253 1577 83150000 		.4byte	0x1583
 7254 157b 17       		.uleb128 0x17
 7255 157c 01       		.uleb128 0x1
 7256 157d 50       		.byte	0x50
 7257 157e 03       		.uleb128 0x3
 7258 157f 91       		.byte	0x91
 7259 1580 A07F     		.sleb128 -96
 7260 1582 00       		.byte	0
 7261 1583 16       		.uleb128 0x16
 7262 1584 66000000 		.4byte	.LVL309
 7263 1588 31290000 		.4byte	0x2931
 7264 158c 98150000 		.4byte	0x1598
 7265 1590 17       		.uleb128 0x17
 7266 1591 01       		.uleb128 0x1
 7267 1592 50       		.byte	0x50
 7268 1593 03       		.uleb128 0x3
 7269 1594 91       		.byte	0x91
 7270 1595 A07F     		.sleb128 -96
 7271 1597 00       		.byte	0
 7272 1598 1B       		.uleb128 0x1b
 7273 1599 78000000 		.4byte	.LVL311
 7274 159d 31280000 		.4byte	0x2831
 7275 15a1 16       		.uleb128 0x16
 7276 15a2 86000000 		.4byte	.LVL312
 7277 15a6 31280000 		.4byte	0x2831
 7278 15aa B4150000 		.4byte	0x15b4
 7279 15ae 17       		.uleb128 0x17
ARM GAS  C:\Users\Administrator\AppData\Local\Temp\ccX9Bf8z.s 			page 176


 7280 15af 01       		.uleb128 0x1
 7281 15b0 50       		.byte	0x50
 7282 15b1 01       		.uleb128 0x1
 7283 15b2 37       		.byte	0x37
 7284 15b3 00       		.byte	0
 7285 15b4 18       		.uleb128 0x18
 7286 15b5 9A000000 		.4byte	.LVL313
 7287 15b9 540F0000 		.4byte	0xf54
 7288 15bd 17       		.uleb128 0x17
 7289 15be 01       		.uleb128 0x1
 7290 15bf 53       		.byte	0x53
 7291 15c0 02       		.uleb128 0x2
 7292 15c1 75       		.byte	0x75
 7293 15c2 00       		.sleb128 0
 7294 15c3 17       		.uleb128 0x17
 7295 15c4 01       		.uleb128 0x1
 7296 15c5 51       		.byte	0x51
 7297 15c6 01       		.uleb128 0x1
 7298 15c7 31       		.byte	0x31
 7299 15c8 17       		.uleb128 0x17
 7300 15c9 01       		.uleb128 0x1
 7301 15ca 50       		.byte	0x50
 7302 15cb 02       		.uleb128 0x2
 7303 15cc 77       		.byte	0x77
 7304 15cd 00       		.sleb128 0
 7305 15ce 17       		.uleb128 0x17
 7306 15cf 02       		.uleb128 0x2
 7307 15d0 7D       		.byte	0x7d
 7308 15d1 00       		.sleb128 0
 7309 15d2 01       		.uleb128 0x1
 7310 15d3 43       		.byte	0x43
 7311 15d4 00       		.byte	0
 7312 15d5 00       		.byte	0
 7313 15d6 19       		.uleb128 0x19
 7314 15d7 F8090000 		.4byte	.LASF162
 7315 15db 01       		.byte	0x1
 7316 15dc 8703     		.2byte	0x387
 7317 15de 00000000 		.4byte	.LFB78
 7318 15e2 78010000 		.4byte	.LFE78-.LFB78
 7319 15e6 01       		.uleb128 0x1
 7320 15e7 9C       		.byte	0x9c
 7321 15e8 E8180000 		.4byte	0x18e8
 7322 15ec 14       		.uleb128 0x14
 7323 15ed 5B020000 		.4byte	.LASF104
 7324 15f1 01       		.byte	0x1
 7325 15f2 8703     		.2byte	0x387
 7326 15f4 20010000 		.4byte	0x120
 7327 15f8 70130000 		.4byte	.LLST79
 7328 15fc 25       		.uleb128 0x25
 7329 15fd 72657400 		.ascii	"ret\000"
 7330 1601 01       		.byte	0x1
 7331 1602 8903     		.2byte	0x389
 7332 1604 AD000000 		.4byte	0xad
 7333 1608 9C130000 		.4byte	.LLST80
 7334 160c 15       		.uleb128 0x15
 7335 160d 37030000 		.4byte	.LASF163
 7336 1611 01       		.byte	0x1
ARM GAS  C:\Users\Administrator\AppData\Local\Temp\ccX9Bf8z.s 			page 177


 7337 1612 8A03     		.2byte	0x38a
 7338 1614 AD000000 		.4byte	0xad
 7339 1618 BB130000 		.4byte	.LLST81
 7340 161c 1A       		.uleb128 0x1a
 7341 161d D3070000 		.4byte	.LASF157
 7342 1621 01       		.byte	0x1
 7343 1622 8B03     		.2byte	0x38b
 7344 1624 80100000 		.4byte	0x1080
 7345 1628 03       		.uleb128 0x3
 7346 1629 91       		.byte	0x91
 7347 162a E87D     		.sleb128 -280
 7348 162c 1A       		.uleb128 0x1a
 7349 162d 6A030000 		.4byte	.LASF158
 7350 1631 01       		.byte	0x1
 7351 1632 8C03     		.2byte	0x38c
 7352 1634 32030000 		.4byte	0x332
 7353 1638 03       		.uleb128 0x3
 7354 1639 91       		.byte	0x91
 7355 163a C47D     		.sleb128 -316
 7356 163c 1A       		.uleb128 0x1a
 7357 163d 53060000 		.4byte	.LASF164
 7358 1641 01       		.byte	0x1
 7359 1642 8D03     		.2byte	0x38d
 7360 1644 26010000 		.4byte	0x126
 7361 1648 03       		.uleb128 0x3
 7362 1649 91       		.byte	0x91
 7363 164a BC7D     		.sleb128 -324
 7364 164c 1A       		.uleb128 0x1a
 7365 164d 0A080000 		.4byte	.LASF112
 7366 1651 01       		.byte	0x1
 7367 1652 8E03     		.2byte	0x38e
 7368 1654 42030000 		.4byte	0x342
 7369 1658 03       		.uleb128 0x3
 7370 1659 91       		.byte	0x91
 7371 165a B87D     		.sleb128 -328
 7372 165c 15       		.uleb128 0x15
 7373 165d 0F0E0000 		.4byte	.LASF165
 7374 1661 01       		.byte	0x1
 7375 1662 8F03     		.2byte	0x38f
 7376 1664 AD000000 		.4byte	0xad
 7377 1668 DB130000 		.4byte	.LLST82
 7378 166c 25       		.uleb128 0x25
 7379 166d 705400   		.ascii	"pT\000"
 7380 1670 01       		.byte	0x1
 7381 1671 9003     		.2byte	0x390
 7382 1673 20010000 		.4byte	0x120
 7383 1677 2F140000 		.4byte	.LLST83
 7384 167b 1A       		.uleb128 0x1a
 7385 167c E20C0000 		.4byte	.LASF159
 7386 1680 01       		.byte	0x1
 7387 1681 9103     		.2byte	0x391
 7388 1683 AD000000 		.4byte	0xad
 7389 1687 03       		.uleb128 0x3
 7390 1688 91       		.byte	0x91
 7391 1689 B47D     		.sleb128 -332
 7392 168b 15       		.uleb128 0x15
 7393 168c EF000000 		.4byte	.LASF105
ARM GAS  C:\Users\Administrator\AppData\Local\Temp\ccX9Bf8z.s 			page 178


 7394 1690 01       		.byte	0x1
 7395 1691 9203     		.2byte	0x392
 7396 1693 B9000000 		.4byte	0xb9
 7397 1697 A1140000 		.4byte	.LLST84
 7398 169b 1A       		.uleb128 0x1a
 7399 169c 3D0C0000 		.4byte	.LASF95
 7400 16a0 01       		.byte	0x1
 7401 16a1 9303     		.2byte	0x393
 7402 16a3 52030000 		.4byte	0x352
 7403 16a7 03       		.uleb128 0x3
 7404 16a8 91       		.byte	0x91
 7405 16a9 CC7D     		.sleb128 -308
 7406 16ab 1A       		.uleb128 0x1a
 7407 16ac 33060000 		.4byte	.LASF166
 7408 16b0 01       		.byte	0x1
 7409 16b1 9403     		.2byte	0x394
 7410 16b3 8E030000 		.4byte	0x38e
 7411 16b7 03       		.uleb128 0x3
 7412 16b8 91       		.byte	0x91
 7413 16b9 D87D     		.sleb128 -296
 7414 16bb 16       		.uleb128 0x16
 7415 16bc 20000000 		.4byte	.LVL321
 7416 16c0 6D280000 		.4byte	0x286d
 7417 16c4 D9160000 		.4byte	0x16d9
 7418 16c8 17       		.uleb128 0x17
 7419 16c9 01       		.uleb128 0x1
 7420 16ca 52       		.byte	0x52
 7421 16cb 01       		.uleb128 0x1
 7422 16cc 40       		.byte	0x40
 7423 16cd 17       		.uleb128 0x17
 7424 16ce 01       		.uleb128 0x1
 7425 16cf 51       		.byte	0x51
 7426 16d0 01       		.uleb128 0x1
 7427 16d1 30       		.byte	0x30
 7428 16d2 17       		.uleb128 0x17
 7429 16d3 01       		.uleb128 0x1
 7430 16d4 50       		.byte	0x50
 7431 16d5 02       		.uleb128 0x2
 7432 16d6 76       		.byte	0x76
 7433 16d7 00       		.sleb128 0
 7434 16d8 00       		.byte	0
 7435 16d9 16       		.uleb128 0x16
 7436 16da 2E000000 		.4byte	.LVL323
 7437 16de 6D280000 		.4byte	0x286d
 7438 16e2 FA160000 		.4byte	0x16fa
 7439 16e6 17       		.uleb128 0x17
 7440 16e7 01       		.uleb128 0x1
 7441 16e8 52       		.byte	0x52
 7442 16e9 03       		.uleb128 0x3
 7443 16ea 0A       		.byte	0xa
 7444 16eb 0001     		.2byte	0x100
 7445 16ed 17       		.uleb128 0x17
 7446 16ee 01       		.uleb128 0x1
 7447 16ef 51       		.byte	0x51
 7448 16f0 01       		.uleb128 0x1
 7449 16f1 30       		.byte	0x30
 7450 16f2 17       		.uleb128 0x17
ARM GAS  C:\Users\Administrator\AppData\Local\Temp\ccX9Bf8z.s 			page 179


 7451 16f3 01       		.uleb128 0x1
 7452 16f4 50       		.byte	0x50
 7453 16f5 03       		.uleb128 0x3
 7454 16f6 91       		.byte	0x91
 7455 16f7 E87D     		.sleb128 -280
 7456 16f9 00       		.byte	0
 7457 16fa 16       		.uleb128 0x16
 7458 16fb 38000000 		.4byte	.LVL325
 7459 16ff 82270000 		.4byte	0x2782
 7460 1703 1A170000 		.4byte	0x171a
 7461 1707 17       		.uleb128 0x17
 7462 1708 01       		.uleb128 0x1
 7463 1709 52       		.byte	0x52
 7464 170a 01       		.uleb128 0x1
 7465 170b 36       		.byte	0x36
 7466 170c 17       		.uleb128 0x17
 7467 170d 01       		.uleb128 0x1
 7468 170e 51       		.byte	0x51
 7469 170f 02       		.uleb128 0x2
 7470 1710 77       		.byte	0x77
 7471 1711 00       		.sleb128 0
 7472 1712 17       		.uleb128 0x17
 7473 1713 01       		.uleb128 0x1
 7474 1714 50       		.byte	0x50
 7475 1715 03       		.uleb128 0x3
 7476 1716 91       		.byte	0x91
 7477 1717 E87D     		.sleb128 -280
 7478 1719 00       		.byte	0
 7479 171a 16       		.uleb128 0x16
 7480 171b 42000000 		.4byte	.LVL326
 7481 171f 82270000 		.4byte	0x2782
 7482 1723 3A170000 		.4byte	0x173a
 7483 1727 17       		.uleb128 0x17
 7484 1728 01       		.uleb128 0x1
 7485 1729 52       		.byte	0x52
 7486 172a 01       		.uleb128 0x1
 7487 172b 36       		.byte	0x36
 7488 172c 17       		.uleb128 0x17
 7489 172d 01       		.uleb128 0x1
 7490 172e 51       		.byte	0x51
 7491 172f 02       		.uleb128 0x2
 7492 1730 77       		.byte	0x77
 7493 1731 00       		.sleb128 0
 7494 1732 17       		.uleb128 0x17
 7495 1733 01       		.uleb128 0x1
 7496 1734 50       		.byte	0x50
 7497 1735 03       		.uleb128 0x3
 7498 1736 91       		.byte	0x91
 7499 1737 BC7D     		.sleb128 -324
 7500 1739 00       		.byte	0
 7501 173a 16       		.uleb128 0x16
 7502 173b 52000000 		.4byte	.LVL327
 7503 173f 82270000 		.4byte	0x2782
 7504 1743 5A170000 		.4byte	0x175a
 7505 1747 17       		.uleb128 0x17
 7506 1748 01       		.uleb128 0x1
 7507 1749 52       		.byte	0x52
ARM GAS  C:\Users\Administrator\AppData\Local\Temp\ccX9Bf8z.s 			page 180


 7508 174a 01       		.uleb128 0x1
 7509 174b 38       		.byte	0x38
 7510 174c 17       		.uleb128 0x17
 7511 174d 01       		.uleb128 0x1
 7512 174e 51       		.byte	0x51
 7513 174f 02       		.uleb128 0x2
 7514 1750 77       		.byte	0x77
 7515 1751 00       		.sleb128 0
 7516 1752 17       		.uleb128 0x17
 7517 1753 01       		.uleb128 0x1
 7518 1754 50       		.byte	0x50
 7519 1755 03       		.uleb128 0x3
 7520 1756 91       		.byte	0x91
 7521 1757 EE7D     		.sleb128 -274
 7522 1759 00       		.byte	0
 7523 175a 16       		.uleb128 0x16
 7524 175b 5C000000 		.4byte	.LVL328
 7525 175f 82270000 		.4byte	0x2782
 7526 1763 7A170000 		.4byte	0x177a
 7527 1767 17       		.uleb128 0x17
 7528 1768 01       		.uleb128 0x1
 7529 1769 52       		.byte	0x52
 7530 176a 01       		.uleb128 0x1
 7531 176b 38       		.byte	0x38
 7532 176c 17       		.uleb128 0x17
 7533 176d 01       		.uleb128 0x1
 7534 176e 51       		.byte	0x51
 7535 176f 02       		.uleb128 0x2
 7536 1770 77       		.byte	0x77
 7537 1771 00       		.sleb128 0
 7538 1772 17       		.uleb128 0x17
 7539 1773 01       		.uleb128 0x1
 7540 1774 50       		.byte	0x50
 7541 1775 03       		.uleb128 0x3
 7542 1776 91       		.byte	0x91
 7543 1777 C47D     		.sleb128 -316
 7544 1779 00       		.byte	0
 7545 177a 16       		.uleb128 0x16
 7546 177b 80000000 		.4byte	.LVL334
 7547 177f 82270000 		.4byte	0x2782
 7548 1783 9A170000 		.4byte	0x179a
 7549 1787 17       		.uleb128 0x17
 7550 1788 01       		.uleb128 0x1
 7551 1789 52       		.byte	0x52
 7552 178a 01       		.uleb128 0x1
 7553 178b 34       		.byte	0x34
 7554 178c 17       		.uleb128 0x17
 7555 178d 01       		.uleb128 0x1
 7556 178e 51       		.byte	0x51
 7557 178f 02       		.uleb128 0x2
 7558 1790 74       		.byte	0x74
 7559 1791 00       		.sleb128 0
 7560 1792 17       		.uleb128 0x17
 7561 1793 01       		.uleb128 0x1
 7562 1794 50       		.byte	0x50
 7563 1795 03       		.uleb128 0x3
 7564 1796 91       		.byte	0x91
ARM GAS  C:\Users\Administrator\AppData\Local\Temp\ccX9Bf8z.s 			page 181


 7565 1797 F77D     		.sleb128 -265
 7566 1799 00       		.byte	0
 7567 179a 16       		.uleb128 0x16
 7568 179b 8A000000 		.4byte	.LVL335
 7569 179f 82270000 		.4byte	0x2782
 7570 17a3 BA170000 		.4byte	0x17ba
 7571 17a7 17       		.uleb128 0x17
 7572 17a8 01       		.uleb128 0x1
 7573 17a9 52       		.byte	0x52
 7574 17aa 01       		.uleb128 0x1
 7575 17ab 34       		.byte	0x34
 7576 17ac 17       		.uleb128 0x17
 7577 17ad 01       		.uleb128 0x1
 7578 17ae 51       		.byte	0x51
 7579 17af 02       		.uleb128 0x2
 7580 17b0 74       		.byte	0x74
 7581 17b1 00       		.sleb128 0
 7582 17b2 17       		.uleb128 0x17
 7583 17b3 01       		.uleb128 0x1
 7584 17b4 50       		.byte	0x50
 7585 17b5 03       		.uleb128 0x3
 7586 17b6 91       		.byte	0x91
 7587 17b7 B87D     		.sleb128 -328
 7588 17b9 00       		.byte	0
 7589 17ba 16       		.uleb128 0x16
 7590 17bb 92000000 		.4byte	.LVL336
 7591 17bf BA070000 		.4byte	0x7ba
 7592 17c3 CF170000 		.4byte	0x17cf
 7593 17c7 17       		.uleb128 0x17
 7594 17c8 01       		.uleb128 0x1
 7595 17c9 50       		.byte	0x50
 7596 17ca 03       		.uleb128 0x3
 7597 17cb 91       		.byte	0x91
 7598 17cc C47D     		.sleb128 -316
 7599 17ce 00       		.byte	0
 7600 17cf 16       		.uleb128 0x16
 7601 17d0 A8000000 		.4byte	.LVL337
 7602 17d4 BE280000 		.4byte	0x28be
 7603 17d8 E9170000 		.4byte	0x17e9
 7604 17dc 17       		.uleb128 0x17
 7605 17dd 01       		.uleb128 0x1
 7606 17de 52       		.byte	0x52
 7607 17df 01       		.uleb128 0x1
 7608 17e0 36       		.byte	0x36
 7609 17e1 17       		.uleb128 0x17
 7610 17e2 01       		.uleb128 0x1
 7611 17e3 51       		.byte	0x51
 7612 17e4 03       		.uleb128 0x3
 7613 17e5 91       		.byte	0x91
 7614 17e6 BC7D     		.sleb128 -324
 7615 17e8 00       		.byte	0
 7616 17e9 16       		.uleb128 0x16
 7617 17ea B4000000 		.4byte	.LVL338
 7618 17ee 46290000 		.4byte	0x2946
 7619 17f2 FD170000 		.4byte	0x17fd
 7620 17f6 17       		.uleb128 0x17
 7621 17f7 01       		.uleb128 0x1
ARM GAS  C:\Users\Administrator\AppData\Local\Temp\ccX9Bf8z.s 			page 182


 7622 17f8 50       		.byte	0x50
 7623 17f9 02       		.uleb128 0x2
 7624 17fa 77       		.byte	0x77
 7625 17fb 00       		.sleb128 0
 7626 17fc 00       		.byte	0
 7627 17fd 16       		.uleb128 0x16
 7628 17fe D8000000 		.4byte	.LVL343
 7629 1802 540F0000 		.4byte	0xf54
 7630 1806 26180000 		.4byte	0x1826
 7631 180a 17       		.uleb128 0x17
 7632 180b 01       		.uleb128 0x1
 7633 180c 53       		.byte	0x53
 7634 180d 03       		.uleb128 0x3
 7635 180e 91       		.byte	0x91
 7636 180f E87D     		.sleb128 -280
 7637 1811 17       		.uleb128 0x17
 7638 1812 01       		.uleb128 0x1
 7639 1813 51       		.byte	0x51
 7640 1814 01       		.uleb128 0x1
 7641 1815 31       		.byte	0x31
 7642 1816 17       		.uleb128 0x17
 7643 1817 01       		.uleb128 0x1
 7644 1818 50       		.byte	0x50
 7645 1819 05       		.uleb128 0x5
 7646 181a 91       		.byte	0x91
 7647 181b B47D     		.sleb128 -332
 7648 181d 94       		.byte	0x94
 7649 181e 01       		.byte	0x1
 7650 181f 17       		.uleb128 0x17
 7651 1820 02       		.uleb128 0x2
 7652 1821 7D       		.byte	0x7d
 7653 1822 00       		.sleb128 0
 7654 1823 01       		.uleb128 0x1
 7655 1824 44       		.byte	0x44
 7656 1825 00       		.byte	0
 7657 1826 1B       		.uleb128 0x1b
 7658 1827 E0000000 		.4byte	.LVL345
 7659 182b 5B290000 		.4byte	0x295b
 7660 182f 16       		.uleb128 0x16
 7661 1830 E6000000 		.4byte	.LVL346
 7662 1834 31280000 		.4byte	0x2831
 7663 1838 42180000 		.4byte	0x1842
 7664 183c 17       		.uleb128 0x17
 7665 183d 01       		.uleb128 0x1
 7666 183e 50       		.byte	0x50
 7667 183f 01       		.uleb128 0x1
 7668 1840 3A       		.byte	0x3a
 7669 1841 00       		.byte	0
 7670 1842 1B       		.uleb128 0x1b
 7671 1843 EA000000 		.4byte	.LVL347
 7672 1847 62290000 		.4byte	0x2962
 7673 184b 16       		.uleb128 0x16
 7674 184c F2000000 		.4byte	.LVL348
 7675 1850 69290000 		.4byte	0x2969
 7676 1854 60180000 		.4byte	0x1860
 7677 1858 17       		.uleb128 0x17
 7678 1859 01       		.uleb128 0x1
ARM GAS  C:\Users\Administrator\AppData\Local\Temp\ccX9Bf8z.s 			page 183


 7679 185a 50       		.byte	0x50
 7680 185b 03       		.uleb128 0x3
 7681 185c 0A       		.byte	0xa
 7682 185d D007     		.2byte	0x7d0
 7683 185f 00       		.byte	0
 7684 1860 1B       		.uleb128 0x1b
 7685 1861 F6000000 		.4byte	.LVL349
 7686 1865 7A290000 		.4byte	0x297a
 7687 1869 1B       		.uleb128 0x1b
 7688 186a FE000000 		.4byte	.LVL350
 7689 186e 81290000 		.4byte	0x2981
 7690 1872 16       		.uleb128 0x16
 7691 1873 18010000 		.4byte	.LVL351
 7692 1877 92290000 		.4byte	0x2992
 7693 187b 8F180000 		.4byte	0x188f
 7694 187f 17       		.uleb128 0x17
 7695 1880 01       		.uleb128 0x1
 7696 1881 51       		.byte	0x51
 7697 1882 05       		.uleb128 0x5
 7698 1883 91       		.byte	0x91
 7699 1884 B07D     		.sleb128 -336
 7700 1886 94       		.byte	0x94
 7701 1887 01       		.byte	0x1
 7702 1888 17       		.uleb128 0x17
 7703 1889 01       		.uleb128 0x1
 7704 188a 50       		.byte	0x50
 7705 188b 02       		.uleb128 0x2
 7706 188c 76       		.byte	0x76
 7707 188d 00       		.sleb128 0
 7708 188e 00       		.byte	0
 7709 188f 1B       		.uleb128 0x1b
 7710 1890 24010000 		.4byte	.LVL352
 7711 1894 D1270000 		.4byte	0x27d1
 7712 1898 16       		.uleb128 0x16
 7713 1899 3E010000 		.4byte	.LVL353
 7714 189d 290A0000 		.4byte	0xa29
 7715 18a1 BA180000 		.4byte	0x18ba
 7716 18a5 17       		.uleb128 0x17
 7717 18a6 01       		.uleb128 0x1
 7718 18a7 52       		.byte	0x52
 7719 18a8 05       		.uleb128 0x5
 7720 18a9 91       		.byte	0x91
 7721 18aa B07D     		.sleb128 -336
 7722 18ac 94       		.byte	0x94
 7723 18ad 01       		.byte	0x1
 7724 18ae 17       		.uleb128 0x17
 7725 18af 01       		.uleb128 0x1
 7726 18b0 51       		.byte	0x51
 7727 18b1 01       		.uleb128 0x1
 7728 18b2 38       		.byte	0x38
 7729 18b3 17       		.uleb128 0x17
 7730 18b4 01       		.uleb128 0x1
 7731 18b5 50       		.byte	0x50
 7732 18b6 02       		.uleb128 0x2
 7733 18b7 76       		.byte	0x76
 7734 18b8 00       		.sleb128 0
 7735 18b9 00       		.byte	0
ARM GAS  C:\Users\Administrator\AppData\Local\Temp\ccX9Bf8z.s 			page 184


 7736 18ba 1B       		.uleb128 0x1b
 7737 18bb 4C010000 		.4byte	.LVL355
 7738 18bf A8290000 		.4byte	0x29a8
 7739 18c3 16       		.uleb128 0x16
 7740 18c4 52010000 		.4byte	.LVL356
 7741 18c8 31280000 		.4byte	0x2831
 7742 18cc D6180000 		.4byte	0x18d6
 7743 18d0 17       		.uleb128 0x17
 7744 18d1 01       		.uleb128 0x1
 7745 18d2 50       		.byte	0x50
 7746 18d3 01       		.uleb128 0x1
 7747 18d4 3B       		.byte	0x3b
 7748 18d5 00       		.byte	0
 7749 18d6 18       		.uleb128 0x18
 7750 18d7 5A010000 		.4byte	.LVL357
 7751 18db 69290000 		.4byte	0x2969
 7752 18df 17       		.uleb128 0x17
 7753 18e0 01       		.uleb128 0x1
 7754 18e1 50       		.byte	0x50
 7755 18e2 03       		.uleb128 0x3
 7756 18e3 0A       		.byte	0xa
 7757 18e4 2003     		.2byte	0x320
 7758 18e6 00       		.byte	0
 7759 18e7 00       		.byte	0
 7760 18e8 19       		.uleb128 0x19
 7761 18e9 680F0000 		.4byte	.LASF167
 7762 18ed 01       		.byte	0x1
 7763 18ee 4704     		.2byte	0x447
 7764 18f0 00000000 		.4byte	.LFB81
 7765 18f4 4E000000 		.4byte	.LFE81-.LFB81
 7766 18f8 01       		.uleb128 0x1
 7767 18f9 9C       		.byte	0x9c
 7768 18fa DC190000 		.4byte	0x19dc
 7769 18fe 14       		.uleb128 0x14
 7770 18ff 5B020000 		.4byte	.LASF104
 7771 1903 01       		.byte	0x1
 7772 1904 4704     		.2byte	0x447
 7773 1906 20010000 		.4byte	0x120
 7774 190a C1140000 		.4byte	.LLST85
 7775 190e 15       		.uleb128 0x15
 7776 190f 37030000 		.4byte	.LASF163
 7777 1913 01       		.byte	0x1
 7778 1914 4904     		.2byte	0x449
 7779 1916 AD000000 		.4byte	0xad
 7780 191a ED140000 		.4byte	.LLST86
 7781 191e 1A       		.uleb128 0x1a
 7782 191f D3070000 		.4byte	.LASF157
 7783 1923 01       		.byte	0x1
 7784 1924 4A04     		.2byte	0x44a
 7785 1926 47120000 		.4byte	0x1247
 7786 192a 03       		.uleb128 0x3
 7787 192b 91       		.byte	0x91
 7788 192c A87F     		.sleb128 -88
 7789 192e 25       		.uleb128 0x25
 7790 192f 705400   		.ascii	"pT\000"
 7791 1932 01       		.byte	0x1
 7792 1933 4B04     		.2byte	0x44b
ARM GAS  C:\Users\Administrator\AppData\Local\Temp\ccX9Bf8z.s 			page 185


 7793 1935 20010000 		.4byte	0x120
 7794 1939 18150000 		.4byte	.LLST87
 7795 193d 15       		.uleb128 0x15
 7796 193e E20C0000 		.4byte	.LASF159
 7797 1942 01       		.byte	0x1
 7798 1943 4C04     		.2byte	0x44c
 7799 1945 AD000000 		.4byte	0xad
 7800 1949 47150000 		.4byte	.LLST88
 7801 194d 16       		.uleb128 0x16
 7802 194e 14000000 		.4byte	.LVL364
 7803 1952 6D280000 		.4byte	0x286d
 7804 1956 6C190000 		.4byte	0x196c
 7805 195a 17       		.uleb128 0x17
 7806 195b 01       		.uleb128 0x1
 7807 195c 52       		.byte	0x52
 7808 195d 02       		.uleb128 0x2
 7809 195e 08       		.byte	0x8
 7810 195f 40       		.byte	0x40
 7811 1960 17       		.uleb128 0x17
 7812 1961 01       		.uleb128 0x1
 7813 1962 51       		.byte	0x51
 7814 1963 01       		.uleb128 0x1
 7815 1964 30       		.byte	0x30
 7816 1965 17       		.uleb128 0x17
 7817 1966 01       		.uleb128 0x1
 7818 1967 50       		.byte	0x50
 7819 1968 02       		.uleb128 0x2
 7820 1969 75       		.byte	0x75
 7821 196a 00       		.sleb128 0
 7822 196b 00       		.byte	0
 7823 196c 16       		.uleb128 0x16
 7824 196d 1E000000 		.4byte	.LVL365
 7825 1971 82270000 		.4byte	0x2782
 7826 1975 8B190000 		.4byte	0x198b
 7827 1979 17       		.uleb128 0x17
 7828 197a 01       		.uleb128 0x1
 7829 197b 52       		.byte	0x52
 7830 197c 01       		.uleb128 0x1
 7831 197d 3A       		.byte	0x3a
 7832 197e 17       		.uleb128 0x17
 7833 197f 01       		.uleb128 0x1
 7834 1980 51       		.byte	0x51
 7835 1981 02       		.uleb128 0x2
 7836 1982 76       		.byte	0x76
 7837 1983 07       		.sleb128 7
 7838 1984 17       		.uleb128 0x17
 7839 1985 01       		.uleb128 0x1
 7840 1986 50       		.byte	0x50
 7841 1987 02       		.uleb128 0x2
 7842 1988 75       		.byte	0x75
 7843 1989 00       		.sleb128 0
 7844 198a 00       		.byte	0
 7845 198b 1B       		.uleb128 0x1b
 7846 198c 22000000 		.4byte	.LVL366
 7847 1990 AF290000 		.4byte	0x29af
 7848 1994 16       		.uleb128 0x16
 7849 1995 2E000000 		.4byte	.LVL367
ARM GAS  C:\Users\Administrator\AppData\Local\Temp\ccX9Bf8z.s 			page 186


 7850 1999 31280000 		.4byte	0x2831
 7851 199d A7190000 		.4byte	0x19a7
 7852 19a1 17       		.uleb128 0x17
 7853 19a2 01       		.uleb128 0x1
 7854 19a3 50       		.byte	0x50
 7855 19a4 01       		.uleb128 0x1
 7856 19a5 38       		.byte	0x38
 7857 19a6 00       		.byte	0
 7858 19a7 16       		.uleb128 0x16
 7859 19a8 36000000 		.4byte	.LVL369
 7860 19ac 31280000 		.4byte	0x2831
 7861 19b0 BA190000 		.4byte	0x19ba
 7862 19b4 17       		.uleb128 0x17
 7863 19b5 01       		.uleb128 0x1
 7864 19b6 50       		.byte	0x50
 7865 19b7 01       		.uleb128 0x1
 7866 19b8 39       		.byte	0x39
 7867 19b9 00       		.byte	0
 7868 19ba 18       		.uleb128 0x18
 7869 19bb 4A000000 		.4byte	.LVL371
 7870 19bf 540F0000 		.4byte	0xf54
 7871 19c3 17       		.uleb128 0x17
 7872 19c4 01       		.uleb128 0x1
 7873 19c5 53       		.byte	0x53
 7874 19c6 02       		.uleb128 0x2
 7875 19c7 75       		.byte	0x75
 7876 19c8 00       		.sleb128 0
 7877 19c9 17       		.uleb128 0x17
 7878 19ca 01       		.uleb128 0x1
 7879 19cb 51       		.byte	0x51
 7880 19cc 01       		.uleb128 0x1
 7881 19cd 31       		.byte	0x31
 7882 19ce 17       		.uleb128 0x17
 7883 19cf 01       		.uleb128 0x1
 7884 19d0 50       		.byte	0x50
 7885 19d1 02       		.uleb128 0x2
 7886 19d2 77       		.byte	0x77
 7887 19d3 00       		.sleb128 0
 7888 19d4 17       		.uleb128 0x17
 7889 19d5 02       		.uleb128 0x2
 7890 19d6 7D       		.byte	0x7d
 7891 19d7 00       		.sleb128 0
 7892 19d8 01       		.uleb128 0x1
 7893 19d9 3B       		.byte	0x3b
 7894 19da 00       		.byte	0
 7895 19db 00       		.byte	0
 7896 19dc 19       		.uleb128 0x19
 7897 19dd FE060000 		.4byte	.LASF168
 7898 19e1 01       		.byte	0x1
 7899 19e2 A004     		.2byte	0x4a0
 7900 19e4 00000000 		.4byte	.LFB84
 7901 19e8 A8010000 		.4byte	.LFE84-.LFB84
 7902 19ec 01       		.uleb128 0x1
 7903 19ed 9C       		.byte	0x9c
 7904 19ee 1B1C0000 		.4byte	0x1c1b
 7905 19f2 14       		.uleb128 0x14
 7906 19f3 5B020000 		.4byte	.LASF104
ARM GAS  C:\Users\Administrator\AppData\Local\Temp\ccX9Bf8z.s 			page 187


 7907 19f7 01       		.byte	0x1
 7908 19f8 A004     		.2byte	0x4a0
 7909 19fa 20010000 		.4byte	0x120
 7910 19fe 5A150000 		.4byte	.LLST89
 7911 1a02 25       		.uleb128 0x25
 7912 1a03 6900     		.ascii	"i\000"
 7913 1a05 01       		.byte	0x1
 7914 1a06 A204     		.2byte	0x4a2
 7915 1a08 AD000000 		.4byte	0xad
 7916 1a0c 86150000 		.4byte	.LLST90
 7917 1a10 15       		.uleb128 0x15
 7918 1a11 37030000 		.4byte	.LASF163
 7919 1a15 01       		.byte	0x1
 7920 1a16 A304     		.2byte	0x4a3
 7921 1a18 AD000000 		.4byte	0xad
 7922 1a1c BE150000 		.4byte	.LLST91
 7923 1a20 1A       		.uleb128 0x1a
 7924 1a21 D3070000 		.4byte	.LASF157
 7925 1a25 01       		.byte	0x1
 7926 1a26 A404     		.2byte	0x4a4
 7927 1a28 80100000 		.4byte	0x1080
 7928 1a2c 03       		.uleb128 0x3
 7929 1a2d 91       		.byte	0x91
 7930 1a2e E87B     		.sleb128 -536
 7931 1a30 25       		.uleb128 0x25
 7932 1a31 705400   		.ascii	"pT\000"
 7933 1a34 01       		.byte	0x1
 7934 1a35 A504     		.2byte	0x4a5
 7935 1a37 20010000 		.4byte	0x120
 7936 1a3b DF150000 		.4byte	.LLST92
 7937 1a3f 1A       		.uleb128 0x1a
 7938 1a40 E20C0000 		.4byte	.LASF159
 7939 1a44 01       		.byte	0x1
 7940 1a45 A604     		.2byte	0x4a6
 7941 1a47 AD000000 		.4byte	0xad
 7942 1a4b 03       		.uleb128 0x3
 7943 1a4c 91       		.byte	0x91
 7944 1a4d D47B     		.sleb128 -556
 7945 1a4f 1A       		.uleb128 0x1a
 7946 1a50 C6110000 		.4byte	.LASF169
 7947 1a54 01       		.byte	0x1
 7948 1a55 A704     		.2byte	0x4a7
 7949 1a57 80100000 		.4byte	0x1080
 7950 1a5b 03       		.uleb128 0x3
 7951 1a5c 91       		.byte	0x91
 7952 1a5d E87D     		.sleb128 -280
 7953 1a5f 15       		.uleb128 0x15
 7954 1a60 D4110000 		.4byte	.LASF170
 7955 1a64 01       		.byte	0x1
 7956 1a65 A804     		.2byte	0x4a8
 7957 1a67 42030000 		.4byte	0x342
 7958 1a6b CB160000 		.4byte	.LLST93
 7959 1a6f 15       		.uleb128 0x15
 7960 1a70 620F0000 		.4byte	.LASF171
 7961 1a74 01       		.byte	0x1
 7962 1a75 A904     		.2byte	0x4a9
 7963 1a77 42030000 		.4byte	0x342
ARM GAS  C:\Users\Administrator\AppData\Local\Temp\ccX9Bf8z.s 			page 188


 7964 1a7b ED160000 		.4byte	.LLST94
 7965 1a7f 15       		.uleb128 0x15
 7966 1a80 7B110000 		.4byte	.LASF172
 7967 1a84 01       		.byte	0x1
 7968 1a85 AA04     		.2byte	0x4aa
 7969 1a87 C5000000 		.4byte	0xc5
 7970 1a8b 0F170000 		.4byte	.LLST95
 7971 1a8f 15       		.uleb128 0x15
 7972 1a90 B6060000 		.4byte	.LASF173
 7973 1a94 01       		.byte	0x1
 7974 1a95 AB04     		.2byte	0x4ab
 7975 1a97 C5000000 		.4byte	0xc5
 7976 1a9b 22170000 		.4byte	.LLST96
 7977 1a9f 15       		.uleb128 0x15
 7978 1aa0 94090000 		.4byte	.LASF174
 7979 1aa4 01       		.byte	0x1
 7980 1aa5 AC04     		.2byte	0x4ac
 7981 1aa7 B9000000 		.4byte	0xb9
 7982 1aab 35170000 		.4byte	.LLST97
 7983 1aaf 15       		.uleb128 0x15
 7984 1ab0 EF000000 		.4byte	.LASF105
 7985 1ab4 01       		.byte	0x1
 7986 1ab5 AD04     		.2byte	0x4ad
 7987 1ab7 B9000000 		.4byte	0xb9
 7988 1abb 65170000 		.4byte	.LLST98
 7989 1abf 1A       		.uleb128 0x1a
 7990 1ac0 42010000 		.4byte	.LASF175
 7991 1ac4 01       		.byte	0x1
 7992 1ac5 AE04     		.2byte	0x4ae
 7993 1ac7 B9000000 		.4byte	0xb9
 7994 1acb 03       		.uleb128 0x3
 7995 1acc 91       		.byte	0x91
 7996 1acd E67B     		.sleb128 -538
 7997 1acf 29       		.uleb128 0x29
 7998 1ad0 636D6400 		.ascii	"cmd\000"
 7999 1ad4 01       		.byte	0x1
 8000 1ad5 AF04     		.2byte	0x4af
 8001 1ad7 AD000000 		.4byte	0xad
 8002 1adb 03       		.uleb128 0x3
 8003 1adc 91       		.byte	0x91
 8004 1add DC7B     		.sleb128 -548
 8005 1adf 16       		.uleb128 0x16
 8006 1ae0 28000000 		.4byte	.LVL381
 8007 1ae4 6D280000 		.4byte	0x286d
 8008 1ae8 FF1A0000 		.4byte	0x1aff
 8009 1aec 17       		.uleb128 0x17
 8010 1aed 01       		.uleb128 0x1
 8011 1aee 52       		.byte	0x52
 8012 1aef 03       		.uleb128 0x3
 8013 1af0 0A       		.byte	0xa
 8014 1af1 0001     		.2byte	0x100
 8015 1af3 17       		.uleb128 0x17
 8016 1af4 01       		.uleb128 0x1
 8017 1af5 51       		.byte	0x51
 8018 1af6 01       		.uleb128 0x1
 8019 1af7 30       		.byte	0x30
 8020 1af8 17       		.uleb128 0x17
ARM GAS  C:\Users\Administrator\AppData\Local\Temp\ccX9Bf8z.s 			page 189


 8021 1af9 01       		.uleb128 0x1
 8022 1afa 50       		.byte	0x50
 8023 1afb 02       		.uleb128 0x2
 8024 1afc 75       		.byte	0x75
 8025 1afd 00       		.sleb128 0
 8026 1afe 00       		.byte	0
 8027 1aff 16       		.uleb128 0x16
 8028 1b00 36000000 		.4byte	.LVL383
 8029 1b04 82270000 		.4byte	0x2782
 8030 1b08 1E1B0000 		.4byte	0x1b1e
 8031 1b0c 17       		.uleb128 0x17
 8032 1b0d 01       		.uleb128 0x1
 8033 1b0e 52       		.byte	0x52
 8034 1b0f 01       		.uleb128 0x1
 8035 1b10 36       		.byte	0x36
 8036 1b11 17       		.uleb128 0x17
 8037 1b12 01       		.uleb128 0x1
 8038 1b13 51       		.byte	0x51
 8039 1b14 02       		.uleb128 0x2
 8040 1b15 74       		.byte	0x74
 8041 1b16 07       		.sleb128 7
 8042 1b17 17       		.uleb128 0x17
 8043 1b18 01       		.uleb128 0x1
 8044 1b19 50       		.byte	0x50
 8045 1b1a 02       		.uleb128 0x2
 8046 1b1b 75       		.byte	0x75
 8047 1b1c 00       		.sleb128 0
 8048 1b1d 00       		.byte	0
 8049 1b1e 16       		.uleb128 0x16
 8050 1b1f 7E000000 		.4byte	.LVL388
 8051 1b23 BA290000 		.4byte	0x29ba
 8052 1b27 321B0000 		.4byte	0x1b32
 8053 1b2b 17       		.uleb128 0x17
 8054 1b2c 01       		.uleb128 0x1
 8055 1b2d 50       		.byte	0x50
 8056 1b2e 02       		.uleb128 0x2
 8057 1b2f 76       		.byte	0x76
 8058 1b30 00       		.sleb128 0
 8059 1b31 00       		.byte	0
 8060 1b32 16       		.uleb128 0x16
 8061 1b33 8C000000 		.4byte	.LVL389
 8062 1b37 D4290000 		.4byte	0x29d4
 8063 1b3b 461B0000 		.4byte	0x1b46
 8064 1b3f 17       		.uleb128 0x17
 8065 1b40 01       		.uleb128 0x1
 8066 1b41 50       		.byte	0x50
 8067 1b42 02       		.uleb128 0x2
 8068 1b43 76       		.byte	0x76
 8069 1b44 00       		.sleb128 0
 8070 1b45 00       		.byte	0
 8071 1b46 16       		.uleb128 0x16
 8072 1b47 CE000000 		.4byte	.LVL398
 8073 1b4b E9290000 		.4byte	0x29e9
 8074 1b4f 601B0000 		.4byte	0x1b60
 8075 1b53 17       		.uleb128 0x17
 8076 1b54 01       		.uleb128 0x1
 8077 1b55 52       		.byte	0x52
ARM GAS  C:\Users\Administrator\AppData\Local\Temp\ccX9Bf8z.s 			page 190


 8078 1b56 03       		.uleb128 0x3
 8079 1b57 91       		.byte	0x91
 8080 1b58 E87D     		.sleb128 -280
 8081 1b5a 17       		.uleb128 0x17
 8082 1b5b 01       		.uleb128 0x1
 8083 1b5c 51       		.byte	0x51
 8084 1b5d 01       		.uleb128 0x1
 8085 1b5e 31       		.byte	0x31
 8086 1b5f 00       		.byte	0
 8087 1b60 16       		.uleb128 0x16
 8088 1b61 D8000000 		.4byte	.LVL399
 8089 1b65 82270000 		.4byte	0x2782
 8090 1b69 801B0000 		.4byte	0x1b80
 8091 1b6d 17       		.uleb128 0x17
 8092 1b6e 01       		.uleb128 0x1
 8093 1b6f 52       		.byte	0x52
 8094 1b70 01       		.uleb128 0x1
 8095 1b71 40       		.byte	0x40
 8096 1b72 17       		.uleb128 0x17
 8097 1b73 01       		.uleb128 0x1
 8098 1b74 51       		.byte	0x51
 8099 1b75 03       		.uleb128 0x3
 8100 1b76 91       		.byte	0x91
 8101 1b77 E87D     		.sleb128 -280
 8102 1b79 17       		.uleb128 0x17
 8103 1b7a 01       		.uleb128 0x1
 8104 1b7b 50       		.byte	0x50
 8105 1b7c 02       		.uleb128 0x2
 8106 1b7d 75       		.byte	0x75
 8107 1b7e 00       		.sleb128 0
 8108 1b7f 00       		.byte	0
 8109 1b80 1B       		.uleb128 0x1b
 8110 1b81 E6000000 		.4byte	.LVL400
 8111 1b85 042A0000 		.4byte	0x2a04
 8112 1b89 16       		.uleb128 0x16
 8113 1b8a 2E010000 		.4byte	.LVL409
 8114 1b8e E9290000 		.4byte	0x29e9
 8115 1b92 A31B0000 		.4byte	0x1ba3
 8116 1b96 17       		.uleb128 0x17
 8117 1b97 01       		.uleb128 0x1
 8118 1b98 52       		.byte	0x52
 8119 1b99 03       		.uleb128 0x3
 8120 1b9a 91       		.byte	0x91
 8121 1b9b E87D     		.sleb128 -280
 8122 1b9d 17       		.uleb128 0x17
 8123 1b9e 01       		.uleb128 0x1
 8124 1b9f 51       		.byte	0x51
 8125 1ba0 01       		.uleb128 0x1
 8126 1ba1 31       		.byte	0x31
 8127 1ba2 00       		.byte	0
 8128 1ba3 16       		.uleb128 0x16
 8129 1ba4 38010000 		.4byte	.LVL410
 8130 1ba8 82270000 		.4byte	0x2782
 8131 1bac C31B0000 		.4byte	0x1bc3
 8132 1bb0 17       		.uleb128 0x17
 8133 1bb1 01       		.uleb128 0x1
 8134 1bb2 52       		.byte	0x52
ARM GAS  C:\Users\Administrator\AppData\Local\Temp\ccX9Bf8z.s 			page 191


 8135 1bb3 01       		.uleb128 0x1
 8136 1bb4 40       		.byte	0x40
 8137 1bb5 17       		.uleb128 0x17
 8138 1bb6 01       		.uleb128 0x1
 8139 1bb7 51       		.byte	0x51
 8140 1bb8 03       		.uleb128 0x3
 8141 1bb9 91       		.byte	0x91
 8142 1bba E87D     		.sleb128 -280
 8143 1bbc 17       		.uleb128 0x17
 8144 1bbd 01       		.uleb128 0x1
 8145 1bbe 50       		.byte	0x50
 8146 1bbf 02       		.uleb128 0x2
 8147 1bc0 77       		.byte	0x77
 8148 1bc1 00       		.sleb128 0
 8149 1bc2 00       		.byte	0
 8150 1bc3 1B       		.uleb128 0x1b
 8151 1bc4 46010000 		.4byte	.LVL412
 8152 1bc8 042A0000 		.4byte	0x2a04
 8153 1bcc 16       		.uleb128 0x16
 8154 1bcd 70010000 		.4byte	.LVL417
 8155 1bd1 82270000 		.4byte	0x2782
 8156 1bd5 F21B0000 		.4byte	0x1bf2
 8157 1bd9 17       		.uleb128 0x17
 8158 1bda 01       		.uleb128 0x1
 8159 1bdb 52       		.byte	0x52
 8160 1bdc 01       		.uleb128 0x1
 8161 1bdd 34       		.byte	0x34
 8162 1bde 17       		.uleb128 0x17
 8163 1bdf 01       		.uleb128 0x1
 8164 1be0 51       		.byte	0x51
 8165 1be1 09       		.uleb128 0x9
 8166 1be2 74       		.byte	0x74
 8167 1be3 00       		.sleb128 0
 8168 1be4 91       		.byte	0x91
 8169 1be5 D87B     		.sleb128 -552
 8170 1be7 06       		.byte	0x6
 8171 1be8 22       		.byte	0x22
 8172 1be9 36       		.byte	0x36
 8173 1bea 1C       		.byte	0x1c
 8174 1beb 17       		.uleb128 0x17
 8175 1bec 01       		.uleb128 0x1
 8176 1bed 50       		.byte	0x50
 8177 1bee 02       		.uleb128 0x2
 8178 1bef 77       		.byte	0x77
 8179 1bf0 00       		.sleb128 0
 8180 1bf1 00       		.byte	0
 8181 1bf2 18       		.uleb128 0x18
 8182 1bf3 94010000 		.4byte	.LVL420
 8183 1bf7 540F0000 		.4byte	0xf54
 8184 1bfb 17       		.uleb128 0x17
 8185 1bfc 01       		.uleb128 0x1
 8186 1bfd 53       		.byte	0x53
 8187 1bfe 03       		.uleb128 0x3
 8188 1bff 91       		.byte	0x91
 8189 1c00 E87B     		.sleb128 -536
 8190 1c02 17       		.uleb128 0x17
 8191 1c03 01       		.uleb128 0x1
ARM GAS  C:\Users\Administrator\AppData\Local\Temp\ccX9Bf8z.s 			page 192


 8192 1c04 52       		.byte	0x52
 8193 1c05 05       		.uleb128 0x5
 8194 1c06 91       		.byte	0x91
 8195 1c07 DC7B     		.sleb128 -548
 8196 1c09 94       		.byte	0x94
 8197 1c0a 01       		.byte	0x1
 8198 1c0b 17       		.uleb128 0x17
 8199 1c0c 01       		.uleb128 0x1
 8200 1c0d 51       		.byte	0x51
 8201 1c0e 01       		.uleb128 0x1
 8202 1c0f 31       		.byte	0x31
 8203 1c10 17       		.uleb128 0x17
 8204 1c11 01       		.uleb128 0x1
 8205 1c12 50       		.byte	0x50
 8206 1c13 05       		.uleb128 0x5
 8207 1c14 91       		.byte	0x91
 8208 1c15 D47B     		.sleb128 -556
 8209 1c17 94       		.byte	0x94
 8210 1c18 01       		.byte	0x1
 8211 1c19 00       		.byte	0
 8212 1c1a 00       		.byte	0
 8213 1c1b 13       		.uleb128 0x13
 8214 1c1c D6000000 		.4byte	.LASF176
 8215 1c20 01       		.byte	0x1
 8216 1c21 0805     		.2byte	0x508
 8217 1c23 00000000 		.4byte	.LFB85
 8218 1c27 00010000 		.4byte	.LFE85-.LFB85
 8219 1c2b 01       		.uleb128 0x1
 8220 1c2c 9C       		.byte	0x9c
 8221 1c2d 671D0000 		.4byte	0x1d67
 8222 1c31 14       		.uleb128 0x14
 8223 1c32 5B020000 		.4byte	.LASF104
 8224 1c36 01       		.byte	0x1
 8225 1c37 0805     		.2byte	0x508
 8226 1c39 20010000 		.4byte	0x120
 8227 1c3d DE170000 		.4byte	.LLST99
 8228 1c41 15       		.uleb128 0x15
 8229 1c42 37030000 		.4byte	.LASF163
 8230 1c46 01       		.byte	0x1
 8231 1c47 0A05     		.2byte	0x50a
 8232 1c49 AD000000 		.4byte	0xad
 8233 1c4d 0A180000 		.4byte	.LLST100
 8234 1c51 1A       		.uleb128 0x1a
 8235 1c52 D3070000 		.4byte	.LASF157
 8236 1c56 01       		.byte	0x1
 8237 1c57 0B05     		.2byte	0x50b
 8238 1c59 47120000 		.4byte	0x1247
 8239 1c5d 03       		.uleb128 0x3
 8240 1c5e 91       		.byte	0x91
 8241 1c5f A87F     		.sleb128 -88
 8242 1c61 25       		.uleb128 0x25
 8243 1c62 705400   		.ascii	"pT\000"
 8244 1c65 01       		.byte	0x1
 8245 1c66 0C05     		.2byte	0x50c
 8246 1c68 20010000 		.4byte	0x120
 8247 1c6c 29180000 		.4byte	.LLST101
 8248 1c70 1A       		.uleb128 0x1a
ARM GAS  C:\Users\Administrator\AppData\Local\Temp\ccX9Bf8z.s 			page 193


 8249 1c71 E20C0000 		.4byte	.LASF159
 8250 1c75 01       		.byte	0x1
 8251 1c76 0D05     		.2byte	0x50d
 8252 1c78 AD000000 		.4byte	0xad
 8253 1c7c 03       		.uleb128 0x3
 8254 1c7d 91       		.byte	0x91
 8255 1c7e A47F     		.sleb128 -92
 8256 1c80 15       		.uleb128 0x15
 8257 1c81 9E0F0000 		.4byte	.LASF107
 8258 1c85 01       		.byte	0x1
 8259 1c86 0E05     		.2byte	0x50e
 8260 1c88 42030000 		.4byte	0x342
 8261 1c8c A9180000 		.4byte	.LLST102
 8262 1c90 15       		.uleb128 0x15
 8263 1c91 62020000 		.4byte	.LASF108
 8264 1c95 01       		.byte	0x1
 8265 1c96 0F05     		.2byte	0x50f
 8266 1c98 B9000000 		.4byte	0xb9
 8267 1c9c FB180000 		.4byte	.LLST103
 8268 1ca0 16       		.uleb128 0x16
 8269 1ca1 16000000 		.4byte	.LVL428
 8270 1ca5 82270000 		.4byte	0x2782
 8271 1ca9 BF1C0000 		.4byte	0x1cbf
 8272 1cad 17       		.uleb128 0x17
 8273 1cae 01       		.uleb128 0x1
 8274 1caf 52       		.byte	0x52
 8275 1cb0 01       		.uleb128 0x1
 8276 1cb1 36       		.byte	0x36
 8277 1cb2 17       		.uleb128 0x17
 8278 1cb3 01       		.uleb128 0x1
 8279 1cb4 51       		.byte	0x51
 8280 1cb5 02       		.uleb128 0x2
 8281 1cb6 75       		.byte	0x75
 8282 1cb7 07       		.sleb128 7
 8283 1cb8 17       		.uleb128 0x17
 8284 1cb9 01       		.uleb128 0x1
 8285 1cba 50       		.byte	0x50
 8286 1cbb 02       		.uleb128 0x2
 8287 1cbc 76       		.byte	0x76
 8288 1cbd 00       		.sleb128 0
 8289 1cbe 00       		.byte	0
 8290 1cbf 16       		.uleb128 0x16
 8291 1cc0 24000000 		.4byte	.LVL429
 8292 1cc4 82270000 		.4byte	0x2782
 8293 1cc8 DF1C0000 		.4byte	0x1cdf
 8294 1ccc 17       		.uleb128 0x17
 8295 1ccd 01       		.uleb128 0x1
 8296 1cce 52       		.byte	0x52
 8297 1ccf 02       		.uleb128 0x2
 8298 1cd0 08       		.byte	0x8
 8299 1cd1 C8       		.byte	0xc8
 8300 1cd2 17       		.uleb128 0x17
 8301 1cd3 01       		.uleb128 0x1
 8302 1cd4 51       		.byte	0x51
 8303 1cd5 02       		.uleb128 0x2
 8304 1cd6 75       		.byte	0x75
 8305 1cd7 0D       		.sleb128 13
ARM GAS  C:\Users\Administrator\AppData\Local\Temp\ccX9Bf8z.s 			page 194


 8306 1cd8 17       		.uleb128 0x17
 8307 1cd9 01       		.uleb128 0x1
 8308 1cda 50       		.byte	0x50
 8309 1cdb 02       		.uleb128 0x2
 8310 1cdc 74       		.byte	0x74
 8311 1cdd 00       		.sleb128 0
 8312 1cde 00       		.byte	0
 8313 1cdf 16       		.uleb128 0x16
 8314 1ce0 2A000000 		.4byte	.LVL430
 8315 1ce4 A6270000 		.4byte	0x27a6
 8316 1ce8 F31C0000 		.4byte	0x1cf3
 8317 1cec 17       		.uleb128 0x17
 8318 1ced 01       		.uleb128 0x1
 8319 1cee 50       		.byte	0x50
 8320 1cef 02       		.uleb128 0x2
 8321 1cf0 74       		.byte	0x74
 8322 1cf1 00       		.sleb128 0
 8323 1cf2 00       		.byte	0
 8324 1cf3 16       		.uleb128 0x16
 8325 1cf4 34000000 		.4byte	.LVL431
 8326 1cf8 82270000 		.4byte	0x2782
 8327 1cfc 071D0000 		.4byte	0x1d07
 8328 1d00 17       		.uleb128 0x17
 8329 1d01 01       		.uleb128 0x1
 8330 1d02 51       		.byte	0x51
 8331 1d03 02       		.uleb128 0x2
 8332 1d04 74       		.byte	0x74
 8333 1d05 00       		.sleb128 0
 8334 1d06 00       		.byte	0
 8335 1d07 16       		.uleb128 0x16
 8336 1d08 AE000000 		.4byte	.LVL443
 8337 1d0c 82270000 		.4byte	0x2782
 8338 1d10 281D0000 		.4byte	0x1d28
 8339 1d14 17       		.uleb128 0x17
 8340 1d15 01       		.uleb128 0x1
 8341 1d16 52       		.byte	0x52
 8342 1d17 01       		.uleb128 0x1
 8343 1d18 34       		.byte	0x34
 8344 1d19 17       		.uleb128 0x17
 8345 1d1a 01       		.uleb128 0x1
 8346 1d1b 51       		.byte	0x51
 8347 1d1c 03       		.uleb128 0x3
 8348 1d1d 75       		.byte	0x75
 8349 1d1e DB01     		.sleb128 219
 8350 1d20 17       		.uleb128 0x17
 8351 1d21 01       		.uleb128 0x1
 8352 1d22 50       		.byte	0x50
 8353 1d23 03       		.uleb128 0x3
 8354 1d24 91       		.byte	0x91
 8355 1d25 B07F     		.sleb128 -80
 8356 1d27 00       		.byte	0
 8357 1d28 16       		.uleb128 0x16
 8358 1d29 D0000000 		.4byte	.LVL444
 8359 1d2d 192A0000 		.4byte	0x2a19
 8360 1d31 421D0000 		.4byte	0x1d42
 8361 1d35 17       		.uleb128 0x17
 8362 1d36 01       		.uleb128 0x1
ARM GAS  C:\Users\Administrator\AppData\Local\Temp\ccX9Bf8z.s 			page 195


 8363 1d37 51       		.byte	0x51
 8364 1d38 02       		.uleb128 0x2
 8365 1d39 74       		.byte	0x74
 8366 1d3a 00       		.sleb128 0
 8367 1d3b 17       		.uleb128 0x17
 8368 1d3c 01       		.uleb128 0x1
 8369 1d3d 50       		.byte	0x50
 8370 1d3e 02       		.uleb128 0x2
 8371 1d3f 77       		.byte	0x77
 8372 1d40 00       		.sleb128 0
 8373 1d41 00       		.byte	0
 8374 1d42 18       		.uleb128 0x18
 8375 1d43 E2000000 		.4byte	.LVL445
 8376 1d47 540F0000 		.4byte	0xf54
 8377 1d4b 17       		.uleb128 0x17
 8378 1d4c 01       		.uleb128 0x1
 8379 1d4d 53       		.byte	0x53
 8380 1d4e 02       		.uleb128 0x2
 8381 1d4f 76       		.byte	0x76
 8382 1d50 00       		.sleb128 0
 8383 1d51 17       		.uleb128 0x17
 8384 1d52 01       		.uleb128 0x1
 8385 1d53 51       		.byte	0x51
 8386 1d54 01       		.uleb128 0x1
 8387 1d55 31       		.byte	0x31
 8388 1d56 17       		.uleb128 0x17
 8389 1d57 01       		.uleb128 0x1
 8390 1d58 50       		.byte	0x50
 8391 1d59 05       		.uleb128 0x5
 8392 1d5a 91       		.byte	0x91
 8393 1d5b A47F     		.sleb128 -92
 8394 1d5d 94       		.byte	0x94
 8395 1d5e 01       		.byte	0x1
 8396 1d5f 17       		.uleb128 0x17
 8397 1d60 02       		.uleb128 0x2
 8398 1d61 7D       		.byte	0x7d
 8399 1d62 00       		.sleb128 0
 8400 1d63 01       		.uleb128 0x1
 8401 1d64 3D       		.byte	0x3d
 8402 1d65 00       		.byte	0
 8403 1d66 00       		.byte	0
 8404 1d67 19       		.uleb128 0x19
 8405 1d68 5B000000 		.4byte	.LASF177
 8406 1d6c 01       		.byte	0x1
 8407 1d6d 4B05     		.2byte	0x54b
 8408 1d6f 00000000 		.4byte	.LFB86
 8409 1d73 58000000 		.4byte	.LFE86-.LFB86
 8410 1d77 01       		.uleb128 0x1
 8411 1d78 9C       		.byte	0x9c
 8412 1d79 5E1E0000 		.4byte	0x1e5e
 8413 1d7d 14       		.uleb128 0x14
 8414 1d7e 5B020000 		.4byte	.LASF104
 8415 1d82 01       		.byte	0x1
 8416 1d83 4B05     		.2byte	0x54b
 8417 1d85 20010000 		.4byte	0x120
 8418 1d89 0E190000 		.4byte	.LLST104
 8419 1d8d 26       		.uleb128 0x26
ARM GAS  C:\Users\Administrator\AppData\Local\Temp\ccX9Bf8z.s 			page 196


 8420 1d8e 37030000 		.4byte	.LASF163
 8421 1d92 01       		.byte	0x1
 8422 1d93 4D05     		.2byte	0x54d
 8423 1d95 AD000000 		.4byte	0xad
 8424 1d99 01       		.byte	0x1
 8425 1d9a 1A       		.uleb128 0x1a
 8426 1d9b D3070000 		.4byte	.LASF157
 8427 1d9f 01       		.byte	0x1
 8428 1da0 4E05     		.2byte	0x54e
 8429 1da2 47120000 		.4byte	0x1247
 8430 1da6 03       		.uleb128 0x3
 8431 1da7 91       		.byte	0x91
 8432 1da8 A87F     		.sleb128 -88
 8433 1daa 25       		.uleb128 0x25
 8434 1dab 705400   		.ascii	"pT\000"
 8435 1dae 01       		.byte	0x1
 8436 1daf 4F05     		.2byte	0x54f
 8437 1db1 20010000 		.4byte	0x120
 8438 1db5 3A190000 		.4byte	.LLST105
 8439 1db9 15       		.uleb128 0x15
 8440 1dba E20C0000 		.4byte	.LASF159
 8441 1dbe 01       		.byte	0x1
 8442 1dbf 5005     		.2byte	0x550
 8443 1dc1 AD000000 		.4byte	0xad
 8444 1dc5 77190000 		.4byte	.LLST106
 8445 1dc9 15       		.uleb128 0x15
 8446 1dca EF000000 		.4byte	.LASF105
 8447 1dce 01       		.byte	0x1
 8448 1dcf 5105     		.2byte	0x551
 8449 1dd1 B9000000 		.4byte	0xb9
 8450 1dd5 8A190000 		.4byte	.LLST107
 8451 1dd9 16       		.uleb128 0x16
 8452 1dda 1E000000 		.4byte	.LVL453
 8453 1dde 6D280000 		.4byte	0x286d
 8454 1de2 F81D0000 		.4byte	0x1df8
 8455 1de6 17       		.uleb128 0x17
 8456 1de7 01       		.uleb128 0x1
 8457 1de8 52       		.byte	0x52
 8458 1de9 02       		.uleb128 0x2
 8459 1dea 08       		.byte	0x8
 8460 1deb 40       		.byte	0x40
 8461 1dec 17       		.uleb128 0x17
 8462 1ded 01       		.uleb128 0x1
 8463 1dee 51       		.byte	0x51
 8464 1def 01       		.uleb128 0x1
 8465 1df0 30       		.byte	0x30
 8466 1df1 17       		.uleb128 0x17
 8467 1df2 01       		.uleb128 0x1
 8468 1df3 50       		.byte	0x50
 8469 1df4 02       		.uleb128 0x2
 8470 1df5 76       		.byte	0x76
 8471 1df6 00       		.sleb128 0
 8472 1df7 00       		.byte	0
 8473 1df8 16       		.uleb128 0x16
 8474 1df9 28000000 		.4byte	.LVL454
 8475 1dfd 82270000 		.4byte	0x2782
 8476 1e01 171E0000 		.4byte	0x1e17
ARM GAS  C:\Users\Administrator\AppData\Local\Temp\ccX9Bf8z.s 			page 197


 8477 1e05 17       		.uleb128 0x17
 8478 1e06 01       		.uleb128 0x1
 8479 1e07 52       		.byte	0x52
 8480 1e08 01       		.uleb128 0x1
 8481 1e09 36       		.byte	0x36
 8482 1e0a 17       		.uleb128 0x17
 8483 1e0b 01       		.uleb128 0x1
 8484 1e0c 51       		.byte	0x51
 8485 1e0d 02       		.uleb128 0x2
 8486 1e0e 75       		.byte	0x75
 8487 1e0f 07       		.sleb128 7
 8488 1e10 17       		.uleb128 0x17
 8489 1e11 01       		.uleb128 0x1
 8490 1e12 50       		.byte	0x50
 8491 1e13 02       		.uleb128 0x2
 8492 1e14 76       		.byte	0x76
 8493 1e15 00       		.sleb128 0
 8494 1e16 00       		.byte	0
 8495 1e17 16       		.uleb128 0x16
 8496 1e18 38000000 		.4byte	.LVL456
 8497 1e1c 82270000 		.4byte	0x2782
 8498 1e20 3C1E0000 		.4byte	0x1e3c
 8499 1e24 17       		.uleb128 0x17
 8500 1e25 01       		.uleb128 0x1
 8501 1e26 52       		.byte	0x52
 8502 1e27 01       		.uleb128 0x1
 8503 1e28 34       		.byte	0x34
 8504 1e29 17       		.uleb128 0x17
 8505 1e2a 01       		.uleb128 0x1
 8506 1e2b 51       		.byte	0x51
 8507 1e2c 07       		.uleb128 0x7
 8508 1e2d 75       		.byte	0x75
 8509 1e2e 00       		.sleb128 0
 8510 1e2f 74       		.byte	0x74
 8511 1e30 00       		.sleb128 0
 8512 1e31 22       		.byte	0x22
 8513 1e32 36       		.byte	0x36
 8514 1e33 1C       		.byte	0x1c
 8515 1e34 17       		.uleb128 0x17
 8516 1e35 01       		.uleb128 0x1
 8517 1e36 50       		.byte	0x50
 8518 1e37 03       		.uleb128 0x3
 8519 1e38 91       		.byte	0x91
 8520 1e39 AE7F     		.sleb128 -82
 8521 1e3b 00       		.byte	0
 8522 1e3c 18       		.uleb128 0x18
 8523 1e3d 4E000000 		.4byte	.LVL457
 8524 1e41 540F0000 		.4byte	0xf54
 8525 1e45 17       		.uleb128 0x17
 8526 1e46 01       		.uleb128 0x1
 8527 1e47 53       		.byte	0x53
 8528 1e48 02       		.uleb128 0x2
 8529 1e49 76       		.byte	0x76
 8530 1e4a 00       		.sleb128 0
 8531 1e4b 17       		.uleb128 0x17
 8532 1e4c 01       		.uleb128 0x1
 8533 1e4d 51       		.byte	0x51
ARM GAS  C:\Users\Administrator\AppData\Local\Temp\ccX9Bf8z.s 			page 198


 8534 1e4e 01       		.uleb128 0x1
 8535 1e4f 31       		.byte	0x31
 8536 1e50 17       		.uleb128 0x17
 8537 1e51 01       		.uleb128 0x1
 8538 1e52 50       		.byte	0x50
 8539 1e53 02       		.uleb128 0x2
 8540 1e54 77       		.byte	0x77
 8541 1e55 00       		.sleb128 0
 8542 1e56 17       		.uleb128 0x17
 8543 1e57 02       		.uleb128 0x2
 8544 1e58 7D       		.byte	0x7d
 8545 1e59 00       		.sleb128 0
 8546 1e5a 01       		.uleb128 0x1
 8547 1e5b 3B       		.byte	0x3b
 8548 1e5c 00       		.byte	0
 8549 1e5d 00       		.byte	0
 8550 1e5e 19       		.uleb128 0x19
 8551 1e5f 1D070000 		.4byte	.LASF178
 8552 1e63 01       		.byte	0x1
 8553 1e64 C705     		.2byte	0x5c7
 8554 1e66 00000000 		.4byte	.LFB88
 8555 1e6a B8000000 		.4byte	.LFE88-.LFB88
 8556 1e6e 01       		.uleb128 0x1
 8557 1e6f 9C       		.byte	0x9c
 8558 1e70 E81F0000 		.4byte	0x1fe8
 8559 1e74 14       		.uleb128 0x14
 8560 1e75 5B020000 		.4byte	.LASF104
 8561 1e79 01       		.byte	0x1
 8562 1e7a C705     		.2byte	0x5c7
 8563 1e7c 20010000 		.4byte	0x120
 8564 1e80 9D190000 		.4byte	.LLST108
 8565 1e84 15       		.uleb128 0x15
 8566 1e85 37030000 		.4byte	.LASF163
 8567 1e89 01       		.byte	0x1
 8568 1e8a C905     		.2byte	0x5c9
 8569 1e8c AD000000 		.4byte	0xad
 8570 1e90 C9190000 		.4byte	.LLST109
 8571 1e94 1A       		.uleb128 0x1a
 8572 1e95 D3070000 		.4byte	.LASF157
 8573 1e99 01       		.byte	0x1
 8574 1e9a CA05     		.2byte	0x5ca
 8575 1e9c 47120000 		.4byte	0x1247
 8576 1ea0 03       		.uleb128 0x3
 8577 1ea1 91       		.byte	0x91
 8578 1ea2 A87F     		.sleb128 -88
 8579 1ea4 25       		.uleb128 0x25
 8580 1ea5 705400   		.ascii	"pT\000"
 8581 1ea8 01       		.byte	0x1
 8582 1ea9 CB05     		.2byte	0x5cb
 8583 1eab 20010000 		.4byte	0x120
 8584 1eaf DD190000 		.4byte	.LLST110
 8585 1eb3 15       		.uleb128 0x15
 8586 1eb4 E20C0000 		.4byte	.LASF159
 8587 1eb8 01       		.byte	0x1
 8588 1eb9 CC05     		.2byte	0x5cc
 8589 1ebb AD000000 		.4byte	0xad
 8590 1ebf 1A1A0000 		.4byte	.LLST111
ARM GAS  C:\Users\Administrator\AppData\Local\Temp\ccX9Bf8z.s 			page 199


 8591 1ec3 1A       		.uleb128 0x1a
 8592 1ec4 EF000000 		.4byte	.LASF105
 8593 1ec8 01       		.byte	0x1
 8594 1ec9 CD05     		.2byte	0x5cd
 8595 1ecb B9000000 		.4byte	0xb9
 8596 1ecf 03       		.uleb128 0x3
 8597 1ed0 91       		.byte	0x91
 8598 1ed1 A47F     		.sleb128 -92
 8599 1ed3 15       		.uleb128 0x15
 8600 1ed4 40080000 		.4byte	.LASF179
 8601 1ed8 01       		.byte	0x1
 8602 1ed9 CE05     		.2byte	0x5ce
 8603 1edb AD000000 		.4byte	0xad
 8604 1edf 481A0000 		.4byte	.LLST112
 8605 1ee3 16       		.uleb128 0x16
 8606 1ee4 24000000 		.4byte	.LVL467
 8607 1ee8 6D280000 		.4byte	0x286d
 8608 1eec 021F0000 		.4byte	0x1f02
 8609 1ef0 17       		.uleb128 0x17
 8610 1ef1 01       		.uleb128 0x1
 8611 1ef2 52       		.byte	0x52
 8612 1ef3 02       		.uleb128 0x2
 8613 1ef4 08       		.byte	0x8
 8614 1ef5 40       		.byte	0x40
 8615 1ef6 17       		.uleb128 0x17
 8616 1ef7 01       		.uleb128 0x1
 8617 1ef8 51       		.byte	0x51
 8618 1ef9 01       		.uleb128 0x1
 8619 1efa 30       		.byte	0x30
 8620 1efb 17       		.uleb128 0x17
 8621 1efc 01       		.uleb128 0x1
 8622 1efd 50       		.byte	0x50
 8623 1efe 02       		.uleb128 0x2
 8624 1eff 76       		.byte	0x76
 8625 1f00 00       		.sleb128 0
 8626 1f01 00       		.byte	0
 8627 1f02 16       		.uleb128 0x16
 8628 1f03 2E000000 		.4byte	.LVL468
 8629 1f07 82270000 		.4byte	0x2782
 8630 1f0b 211F0000 		.4byte	0x1f21
 8631 1f0f 17       		.uleb128 0x17
 8632 1f10 01       		.uleb128 0x1
 8633 1f11 52       		.byte	0x52
 8634 1f12 01       		.uleb128 0x1
 8635 1f13 36       		.byte	0x36
 8636 1f14 17       		.uleb128 0x17
 8637 1f15 01       		.uleb128 0x1
 8638 1f16 51       		.byte	0x51
 8639 1f17 02       		.uleb128 0x2
 8640 1f18 75       		.byte	0x75
 8641 1f19 07       		.sleb128 7
 8642 1f1a 17       		.uleb128 0x17
 8643 1f1b 01       		.uleb128 0x1
 8644 1f1c 50       		.byte	0x50
 8645 1f1d 02       		.uleb128 0x2
 8646 1f1e 76       		.byte	0x76
 8647 1f1f 00       		.sleb128 0
ARM GAS  C:\Users\Administrator\AppData\Local\Temp\ccX9Bf8z.s 			page 200


 8648 1f20 00       		.byte	0
 8649 1f21 16       		.uleb128 0x16
 8650 1f22 4E000000 		.4byte	.LVL472
 8651 1f26 82270000 		.4byte	0x2782
 8652 1f2a 481F0000 		.4byte	0x1f48
 8653 1f2e 17       		.uleb128 0x17
 8654 1f2f 01       		.uleb128 0x1
 8655 1f30 52       		.byte	0x52
 8656 1f31 01       		.uleb128 0x1
 8657 1f32 34       		.byte	0x34
 8658 1f33 17       		.uleb128 0x17
 8659 1f34 01       		.uleb128 0x1
 8660 1f35 51       		.byte	0x51
 8661 1f36 09       		.uleb128 0x9
 8662 1f37 75       		.byte	0x75
 8663 1f38 00       		.sleb128 0
 8664 1f39 91       		.byte	0x91
 8665 1f3a A47F     		.sleb128 -92
 8666 1f3c 06       		.byte	0x6
 8667 1f3d 22       		.byte	0x22
 8668 1f3e 36       		.byte	0x36
 8669 1f3f 1C       		.byte	0x1c
 8670 1f40 17       		.uleb128 0x17
 8671 1f41 01       		.uleb128 0x1
 8672 1f42 50       		.byte	0x50
 8673 1f43 03       		.uleb128 0x3
 8674 1f44 91       		.byte	0x91
 8675 1f45 AF7F     		.sleb128 -81
 8676 1f47 00       		.byte	0
 8677 1f48 16       		.uleb128 0x16
 8678 1f49 60000000 		.4byte	.LVL473
 8679 1f4d 540F0000 		.4byte	0xf54
 8680 1f51 701F0000 		.4byte	0x1f70
 8681 1f55 17       		.uleb128 0x17
 8682 1f56 01       		.uleb128 0x1
 8683 1f57 53       		.byte	0x53
 8684 1f58 02       		.uleb128 0x2
 8685 1f59 76       		.byte	0x76
 8686 1f5a 00       		.sleb128 0
 8687 1f5b 17       		.uleb128 0x17
 8688 1f5c 01       		.uleb128 0x1
 8689 1f5d 51       		.byte	0x51
 8690 1f5e 01       		.uleb128 0x1
 8691 1f5f 31       		.byte	0x31
 8692 1f60 17       		.uleb128 0x17
 8693 1f61 01       		.uleb128 0x1
 8694 1f62 50       		.byte	0x50
 8695 1f63 05       		.uleb128 0x5
 8696 1f64 91       		.byte	0x91
 8697 1f65 A07F     		.sleb128 -96
 8698 1f67 94       		.byte	0x94
 8699 1f68 01       		.byte	0x1
 8700 1f69 17       		.uleb128 0x17
 8701 1f6a 02       		.uleb128 0x2
 8702 1f6b 7D       		.byte	0x7d
 8703 1f6c 00       		.sleb128 0
 8704 1f6d 01       		.uleb128 0x1
ARM GAS  C:\Users\Administrator\AppData\Local\Temp\ccX9Bf8z.s 			page 201


 8705 1f6e 3C       		.byte	0x3c
 8706 1f6f 00       		.byte	0
 8707 1f70 16       		.uleb128 0x16
 8708 1f71 6A000000 		.4byte	.LVL474
 8709 1f75 2F2A0000 		.4byte	0x2a2f
 8710 1f79 841F0000 		.4byte	0x1f84
 8711 1f7d 17       		.uleb128 0x17
 8712 1f7e 01       		.uleb128 0x1
 8713 1f7f 50       		.byte	0x50
 8714 1f80 02       		.uleb128 0x2
 8715 1f81 74       		.byte	0x74
 8716 1f82 00       		.sleb128 0
 8717 1f83 00       		.byte	0
 8718 1f84 16       		.uleb128 0x16
 8719 1f85 7A000000 		.4byte	.LVL475
 8720 1f89 31280000 		.4byte	0x2831
 8721 1f8d 971F0000 		.4byte	0x1f97
 8722 1f91 17       		.uleb128 0x17
 8723 1f92 01       		.uleb128 0x1
 8724 1f93 50       		.byte	0x50
 8725 1f94 01       		.uleb128 0x1
 8726 1f95 3F       		.byte	0x3f
 8727 1f96 00       		.byte	0
 8728 1f97 16       		.uleb128 0x16
 8729 1f98 82000000 		.4byte	.LVL476
 8730 1f9c 5C280000 		.4byte	0x285c
 8731 1fa0 AC1F0000 		.4byte	0x1fac
 8732 1fa4 17       		.uleb128 0x17
 8733 1fa5 01       		.uleb128 0x1
 8734 1fa6 50       		.byte	0x50
 8735 1fa7 03       		.uleb128 0x3
 8736 1fa8 0A       		.byte	0xa
 8737 1fa9 2C01     		.2byte	0x12c
 8738 1fab 00       		.byte	0
 8739 1fac 16       		.uleb128 0x16
 8740 1fad 96000000 		.4byte	.LVL477
 8741 1fb1 2F2A0000 		.4byte	0x2a2f
 8742 1fb5 C01F0000 		.4byte	0x1fc0
 8743 1fb9 17       		.uleb128 0x17
 8744 1fba 01       		.uleb128 0x1
 8745 1fbb 50       		.byte	0x50
 8746 1fbc 02       		.uleb128 0x2
 8747 1fbd 74       		.byte	0x74
 8748 1fbe 00       		.sleb128 0
 8749 1fbf 00       		.byte	0
 8750 1fc0 1B       		.uleb128 0x1b
 8751 1fc1 9C000000 		.4byte	.LVL478
 8752 1fc5 31280000 		.4byte	0x2831
 8753 1fc9 16       		.uleb128 0x16
 8754 1fca A4000000 		.4byte	.LVL479
 8755 1fce 5C280000 		.4byte	0x285c
 8756 1fd2 DE1F0000 		.4byte	0x1fde
 8757 1fd6 17       		.uleb128 0x17
 8758 1fd7 01       		.uleb128 0x1
 8759 1fd8 50       		.byte	0x50
 8760 1fd9 03       		.uleb128 0x3
 8761 1fda 0A       		.byte	0xa
ARM GAS  C:\Users\Administrator\AppData\Local\Temp\ccX9Bf8z.s 			page 202


 8762 1fdb 2C01     		.2byte	0x12c
 8763 1fdd 00       		.byte	0
 8764 1fde 1B       		.uleb128 0x1b
 8765 1fdf AA000000 		.4byte	.LVL480
 8766 1fe3 31280000 		.4byte	0x2831
 8767 1fe7 00       		.byte	0
 8768 1fe8 28       		.uleb128 0x28
 8769 1fe9 57100000 		.4byte	.LASF180
 8770 1fed 01       		.byte	0x1
 8771 1fee 7106     		.2byte	0x671
 8772 1ff0 00000000 		.4byte	.LFB91
 8773 1ff4 70010000 		.4byte	.LFE91-.LFB91
 8774 1ff8 01       		.uleb128 0x1
 8775 1ff9 9C       		.byte	0x9c
 8776 1ffa E8210000 		.4byte	0x21e8
 8777 1ffe 1A       		.uleb128 0x1a
 8778 1fff 02030000 		.4byte	.LASF181
 8779 2003 01       		.byte	0x1
 8780 2004 7306     		.2byte	0x673
 8781 2006 430F0000 		.4byte	0xf43
 8782 200a 03       		.uleb128 0x3
 8783 200b 91       		.byte	0x91
 8784 200c D477     		.sleb128 -1068
 8785 200e 15       		.uleb128 0x15
 8786 200f 3E040000 		.4byte	.LASF182
 8787 2013 01       		.byte	0x1
 8788 2014 7406     		.2byte	0x674
 8789 2016 B9000000 		.4byte	0xb9
 8790 201a 5B1A0000 		.4byte	.LLST113
 8791 201e 15       		.uleb128 0x15
 8792 201f D3010000 		.4byte	.LASF127
 8793 2023 01       		.byte	0x1
 8794 2024 7506     		.2byte	0x675
 8795 2026 B9000000 		.4byte	0xb9
 8796 202a 831A0000 		.4byte	.LLST114
 8797 202e 2A       		.uleb128 0x2a
 8798 202f 99030000 		.4byte	0x399
 8799 2033 C2000000 		.4byte	.LBB8
 8800 2037 1C000000 		.4byte	.LBE8-.LBB8
 8801 203b 01       		.byte	0x1
 8802 203c A606     		.2byte	0x6a6
 8803 203e 64200000 		.4byte	0x2064
 8804 2042 2B       		.uleb128 0x2b
 8805 2043 A6030000 		.4byte	0x3a6
 8806 2047 301B0000 		.4byte	.LLST115
 8807 204b 2C       		.uleb128 0x2c
 8808 204c C2000000 		.4byte	.LBB9
 8809 2050 1C000000 		.4byte	.LBE9-.LBB9
 8810 2054 2D       		.uleb128 0x2d
 8811 2055 B2030000 		.4byte	0x3b2
 8812 2059 2E       		.uleb128 0x2e
 8813 205a BE030000 		.4byte	0x3be
 8814 205e 431B0000 		.4byte	.LLST116
 8815 2062 00       		.byte	0
 8816 2063 00       		.byte	0
 8817 2064 16       		.uleb128 0x16
 8818 2065 30000000 		.4byte	.LVL483
ARM GAS  C:\Users\Administrator\AppData\Local\Temp\ccX9Bf8z.s 			page 203


 8819 2069 82270000 		.4byte	0x2782
 8820 206d 85200000 		.4byte	0x2085
 8821 2071 17       		.uleb128 0x17
 8822 2072 01       		.uleb128 0x1
 8823 2073 52       		.byte	0x52
 8824 2074 03       		.uleb128 0x3
 8825 2075 0A       		.byte	0xa
 8826 2076 1A04     		.2byte	0x41a
 8827 2078 17       		.uleb128 0x17
 8828 2079 01       		.uleb128 0x1
 8829 207a 51       		.byte	0x51
 8830 207b 02       		.uleb128 0x2
 8831 207c 76       		.byte	0x76
 8832 207d 00       		.sleb128 0
 8833 207e 17       		.uleb128 0x17
 8834 207f 01       		.uleb128 0x1
 8835 2080 50       		.byte	0x50
 8836 2081 02       		.uleb128 0x2
 8837 2082 75       		.byte	0x75
 8838 2083 00       		.sleb128 0
 8839 2084 00       		.byte	0
 8840 2085 16       		.uleb128 0x16
 8841 2086 3A000000 		.4byte	.LVL484
 8842 208a 6D280000 		.4byte	0x286d
 8843 208e A5200000 		.4byte	0x20a5
 8844 2092 17       		.uleb128 0x17
 8845 2093 01       		.uleb128 0x1
 8846 2094 52       		.byte	0x52
 8847 2095 03       		.uleb128 0x3
 8848 2096 0A       		.byte	0xa
 8849 2097 1A04     		.2byte	0x41a
 8850 2099 17       		.uleb128 0x17
 8851 209a 01       		.uleb128 0x1
 8852 209b 51       		.byte	0x51
 8853 209c 01       		.uleb128 0x1
 8854 209d 30       		.byte	0x30
 8855 209e 17       		.uleb128 0x17
 8856 209f 01       		.uleb128 0x1
 8857 20a0 50       		.byte	0x50
 8858 20a1 02       		.uleb128 0x2
 8859 20a2 76       		.byte	0x76
 8860 20a3 00       		.sleb128 0
 8861 20a4 00       		.byte	0
 8862 20a5 16       		.uleb128 0x16
 8863 20a6 54000000 		.4byte	.LVL486
 8864 20aa 8A280000 		.4byte	0x288a
 8865 20ae BF200000 		.4byte	0x20bf
 8866 20b2 17       		.uleb128 0x17
 8867 20b3 01       		.uleb128 0x1
 8868 20b4 51       		.byte	0x51
 8869 20b5 02       		.uleb128 0x2
 8870 20b6 76       		.byte	0x76
 8871 20b7 00       		.sleb128 0
 8872 20b8 17       		.uleb128 0x17
 8873 20b9 01       		.uleb128 0x1
 8874 20ba 50       		.byte	0x50
 8875 20bb 02       		.uleb128 0x2
ARM GAS  C:\Users\Administrator\AppData\Local\Temp\ccX9Bf8z.s 			page 204


 8876 20bc 75       		.byte	0x75
 8877 20bd 00       		.sleb128 0
 8878 20be 00       		.byte	0
 8879 20bf 16       		.uleb128 0x16
 8880 20c0 84000000 		.4byte	.LVL488
 8881 20c4 FD030000 		.4byte	0x3fd
 8882 20c8 D3200000 		.4byte	0x20d3
 8883 20cc 17       		.uleb128 0x17
 8884 20cd 01       		.uleb128 0x1
 8885 20ce 50       		.byte	0x50
 8886 20cf 02       		.uleb128 0x2
 8887 20d0 75       		.byte	0x75
 8888 20d1 00       		.sleb128 0
 8889 20d2 00       		.byte	0
 8890 20d3 16       		.uleb128 0x16
 8891 20d4 92000000 		.4byte	.LVL491
 8892 20d8 44140000 		.4byte	0x1444
 8893 20dc E7200000 		.4byte	0x20e7
 8894 20e0 17       		.uleb128 0x17
 8895 20e1 01       		.uleb128 0x1
 8896 20e2 50       		.byte	0x50
 8897 20e3 02       		.uleb128 0x2
 8898 20e4 75       		.byte	0x75
 8899 20e5 00       		.sleb128 0
 8900 20e6 00       		.byte	0
 8901 20e7 16       		.uleb128 0x16
 8902 20e8 AA000000 		.4byte	.LVL494
 8903 20ec DC190000 		.4byte	0x19dc
 8904 20f0 FB200000 		.4byte	0x20fb
 8905 20f4 17       		.uleb128 0x17
 8906 20f5 01       		.uleb128 0x1
 8907 20f6 50       		.byte	0x50
 8908 20f7 02       		.uleb128 0x2
 8909 20f8 75       		.byte	0x75
 8910 20f9 00       		.sleb128 0
 8911 20fa 00       		.byte	0
 8912 20fb 16       		.uleb128 0x16
 8913 20fc C0000000 		.4byte	.LVL497
 8914 2100 AD060000 		.4byte	0x6ad
 8915 2104 0F210000 		.4byte	0x210f
 8916 2108 17       		.uleb128 0x17
 8917 2109 01       		.uleb128 0x1
 8918 210a 50       		.byte	0x50
 8919 210b 02       		.uleb128 0x2
 8920 210c 75       		.byte	0x75
 8921 210d 00       		.sleb128 0
 8922 210e 00       		.byte	0
 8923 210f 16       		.uleb128 0x16
 8924 2110 E4000000 		.4byte	.LVL501
 8925 2114 90100000 		.4byte	0x1090
 8926 2118 23210000 		.4byte	0x2123
 8927 211c 17       		.uleb128 0x17
 8928 211d 01       		.uleb128 0x1
 8929 211e 50       		.byte	0x50
 8930 211f 02       		.uleb128 0x2
 8931 2120 75       		.byte	0x75
 8932 2121 00       		.sleb128 0
ARM GAS  C:\Users\Administrator\AppData\Local\Temp\ccX9Bf8z.s 			page 205


 8933 2122 00       		.byte	0
 8934 2123 16       		.uleb128 0x16
 8935 2124 EC000000 		.4byte	.LVL504
 8936 2128 57120000 		.4byte	0x1257
 8937 212c 37210000 		.4byte	0x2137
 8938 2130 17       		.uleb128 0x17
 8939 2131 01       		.uleb128 0x1
 8940 2132 50       		.byte	0x50
 8941 2133 02       		.uleb128 0x2
 8942 2134 75       		.byte	0x75
 8943 2135 00       		.sleb128 0
 8944 2136 00       		.byte	0
 8945 2137 16       		.uleb128 0x16
 8946 2138 F4000000 		.4byte	.LVL507
 8947 213c D6150000 		.4byte	0x15d6
 8948 2140 4B210000 		.4byte	0x214b
 8949 2144 17       		.uleb128 0x17
 8950 2145 01       		.uleb128 0x1
 8951 2146 50       		.byte	0x50
 8952 2147 02       		.uleb128 0x2
 8953 2148 75       		.byte	0x75
 8954 2149 00       		.sleb128 0
 8955 214a 00       		.byte	0
 8956 214b 16       		.uleb128 0x16
 8957 214c FC000000 		.4byte	.LVL510
 8958 2150 C8040000 		.4byte	0x4c8
 8959 2154 5F210000 		.4byte	0x215f
 8960 2158 17       		.uleb128 0x17
 8961 2159 01       		.uleb128 0x1
 8962 215a 50       		.byte	0x50
 8963 215b 02       		.uleb128 0x2
 8964 215c 75       		.byte	0x75
 8965 215d 00       		.sleb128 0
 8966 215e 00       		.byte	0
 8967 215f 16       		.uleb128 0x16
 8968 2160 04010000 		.4byte	.LVL513
 8969 2164 03060000 		.4byte	0x603
 8970 2168 73210000 		.4byte	0x2173
 8971 216c 17       		.uleb128 0x17
 8972 216d 01       		.uleb128 0x1
 8973 216e 50       		.byte	0x50
 8974 216f 02       		.uleb128 0x2
 8975 2170 75       		.byte	0x75
 8976 2171 00       		.sleb128 0
 8977 2172 00       		.byte	0
 8978 2173 16       		.uleb128 0x16
 8979 2174 0C010000 		.4byte	.LVL516
 8980 2178 E8180000 		.4byte	0x18e8
 8981 217c 87210000 		.4byte	0x2187
 8982 2180 17       		.uleb128 0x17
 8983 2181 01       		.uleb128 0x1
 8984 2182 50       		.byte	0x50
 8985 2183 02       		.uleb128 0x2
 8986 2184 75       		.byte	0x75
 8987 2185 00       		.sleb128 0
 8988 2186 00       		.byte	0
 8989 2187 16       		.uleb128 0x16
ARM GAS  C:\Users\Administrator\AppData\Local\Temp\ccX9Bf8z.s 			page 206


 8990 2188 14010000 		.4byte	.LVL519
 8991 218c 7E050000 		.4byte	0x57e
 8992 2190 9B210000 		.4byte	0x219b
 8993 2194 17       		.uleb128 0x17
 8994 2195 01       		.uleb128 0x1
 8995 2196 50       		.byte	0x50
 8996 2197 02       		.uleb128 0x2
 8997 2198 75       		.byte	0x75
 8998 2199 00       		.sleb128 0
 8999 219a 00       		.byte	0
 9000 219b 16       		.uleb128 0x16
 9001 219c 1C010000 		.4byte	.LVL522
 9002 21a0 1B1C0000 		.4byte	0x1c1b
 9003 21a4 AF210000 		.4byte	0x21af
 9004 21a8 17       		.uleb128 0x17
 9005 21a9 01       		.uleb128 0x1
 9006 21aa 50       		.byte	0x50
 9007 21ab 02       		.uleb128 0x2
 9008 21ac 75       		.byte	0x75
 9009 21ad 00       		.sleb128 0
 9010 21ae 00       		.byte	0
 9011 21af 16       		.uleb128 0x16
 9012 21b0 24010000 		.4byte	.LVL525
 9013 21b4 671D0000 		.4byte	0x1d67
 9014 21b8 C3210000 		.4byte	0x21c3
 9015 21bc 17       		.uleb128 0x17
 9016 21bd 01       		.uleb128 0x1
 9017 21be 50       		.byte	0x50
 9018 21bf 02       		.uleb128 0x2
 9019 21c0 75       		.byte	0x75
 9020 21c1 00       		.sleb128 0
 9021 21c2 00       		.byte	0
 9022 21c3 16       		.uleb128 0x16
 9023 21c4 2C010000 		.4byte	.LVL528
 9024 21c8 310E0000 		.4byte	0xe31
 9025 21cc D7210000 		.4byte	0x21d7
 9026 21d0 17       		.uleb128 0x17
 9027 21d1 01       		.uleb128 0x1
 9028 21d2 50       		.byte	0x50
 9029 21d3 02       		.uleb128 0x2
 9030 21d4 75       		.byte	0x75
 9031 21d5 00       		.sleb128 0
 9032 21d6 00       		.byte	0
 9033 21d7 18       		.uleb128 0x18
 9034 21d8 34010000 		.4byte	.LVL531
 9035 21dc 5E1E0000 		.4byte	0x1e5e
 9036 21e0 17       		.uleb128 0x17
 9037 21e1 01       		.uleb128 0x1
 9038 21e2 50       		.byte	0x50
 9039 21e3 02       		.uleb128 0x2
 9040 21e4 75       		.byte	0x75
 9041 21e5 00       		.sleb128 0
 9042 21e6 00       		.byte	0
 9043 21e7 00       		.byte	0
 9044 21e8 10       		.uleb128 0x10
 9045 21e9 9B080000 		.4byte	.LASF183
 9046 21ed 01       		.byte	0x1
ARM GAS  C:\Users\Administrator\AppData\Local\Temp\ccX9Bf8z.s 			page 207


 9047 21ee 4D06     		.2byte	0x64d
 9048 21f0 01       		.byte	0x1
 9049 21f1 49220000 		.4byte	0x2249
 9050 21f5 11       		.uleb128 0x11
 9051 21f6 5B020000 		.4byte	.LASF104
 9052 21fa 01       		.byte	0x1
 9053 21fb 4D06     		.2byte	0x64d
 9054 21fd 20010000 		.4byte	0x120
 9055 2201 12       		.uleb128 0x12
 9056 2202 AF020000 		.4byte	.LASF184
 9057 2206 01       		.byte	0x1
 9058 2207 4F06     		.2byte	0x64f
 9059 2209 26010000 		.4byte	0x126
 9060 220d 12       		.uleb128 0x12
 9061 220e 37030000 		.4byte	.LASF163
 9062 2212 01       		.byte	0x1
 9063 2213 5006     		.2byte	0x650
 9064 2215 AD000000 		.4byte	0xad
 9065 2219 12       		.uleb128 0x12
 9066 221a D3070000 		.4byte	.LASF157
 9067 221e 01       		.byte	0x1
 9068 221f 5106     		.2byte	0x651
 9069 2221 47120000 		.4byte	0x1247
 9070 2225 1C       		.uleb128 0x1c
 9071 2226 705400   		.ascii	"pT\000"
 9072 2229 01       		.byte	0x1
 9073 222a 5206     		.2byte	0x652
 9074 222c 20010000 		.4byte	0x120
 9075 2230 12       		.uleb128 0x12
 9076 2231 E20C0000 		.4byte	.LASF159
 9077 2235 01       		.byte	0x1
 9078 2236 5306     		.2byte	0x653
 9079 2238 AD000000 		.4byte	0xad
 9080 223c 12       		.uleb128 0x12
 9081 223d EF000000 		.4byte	.LASF105
 9082 2241 01       		.byte	0x1
 9083 2242 5406     		.2byte	0x654
 9084 2244 B9000000 		.4byte	0xb9
 9085 2248 00       		.byte	0
 9086 2249 28       		.uleb128 0x28
 9087 224a E1040000 		.4byte	.LASF185
 9088 224e 01       		.byte	0x1
 9089 224f E606     		.2byte	0x6e6
 9090 2251 00000000 		.4byte	.LFB92
 9091 2255 CC010000 		.4byte	.LFE92-.LFB92
 9092 2259 01       		.uleb128 0x1
 9093 225a 9C       		.byte	0x9c
 9094 225b 6E250000 		.4byte	0x256e
 9095 225f 1A       		.uleb128 0x1a
 9096 2260 02030000 		.4byte	.LASF181
 9097 2264 01       		.byte	0x1
 9098 2265 E806     		.2byte	0x6e8
 9099 2267 430F0000 		.4byte	0xf43
 9100 226b 03       		.uleb128 0x3
 9101 226c 91       		.byte	0x91
 9102 226d CC77     		.sleb128 -1076
 9103 226f 15       		.uleb128 0x15
ARM GAS  C:\Users\Administrator\AppData\Local\Temp\ccX9Bf8z.s 			page 208


 9104 2270 3E040000 		.4byte	.LASF182
 9105 2274 01       		.byte	0x1
 9106 2275 E906     		.2byte	0x6e9
 9107 2277 B9000000 		.4byte	0xb9
 9108 227b 581B0000 		.4byte	.LLST117
 9109 227f 15       		.uleb128 0x15
 9110 2280 D3010000 		.4byte	.LASF127
 9111 2284 01       		.byte	0x1
 9112 2285 EA06     		.2byte	0x6ea
 9113 2287 B9000000 		.4byte	0xb9
 9114 228b 801B0000 		.4byte	.LLST118
 9115 228f 2A       		.uleb128 0x2a
 9116 2290 E8210000 		.4byte	0x21e8
 9117 2294 B6000000 		.4byte	.LBB14
 9118 2298 6C000000 		.4byte	.LBE14-.LBB14
 9119 229c 01       		.byte	0x1
 9120 229d 3907     		.2byte	0x739
 9121 229f B4230000 		.4byte	0x23b4
 9122 22a3 2B       		.uleb128 0x2b
 9123 22a4 F5210000 		.4byte	0x21f5
 9124 22a8 381C0000 		.4byte	.LLST119
 9125 22ac 2C       		.uleb128 0x2c
 9126 22ad B6000000 		.4byte	.LBB15
 9127 22b1 6C000000 		.4byte	.LBE15-.LBB15
 9128 22b5 2F       		.uleb128 0x2f
 9129 22b6 01220000 		.4byte	0x2201
 9130 22ba 03       		.uleb128 0x3
 9131 22bb 91       		.byte	0x91
 9132 22bc 8477     		.sleb128 -1148
 9133 22be 2E       		.uleb128 0x2e
 9134 22bf 0D220000 		.4byte	0x220d
 9135 22c3 4B1C0000 		.4byte	.LLST120
 9136 22c7 2F       		.uleb128 0x2f
 9137 22c8 19220000 		.4byte	0x2219
 9138 22cc 03       		.uleb128 0x3
 9139 22cd 91       		.byte	0x91
 9140 22ce 8C77     		.sleb128 -1140
 9141 22d0 2E       		.uleb128 0x2e
 9142 22d1 25220000 		.4byte	0x2225
 9143 22d5 5F1C0000 		.4byte	.LLST121
 9144 22d9 2E       		.uleb128 0x2e
 9145 22da 30220000 		.4byte	0x2230
 9146 22de 9C1C0000 		.4byte	.LLST122
 9147 22e2 2E       		.uleb128 0x2e
 9148 22e3 3C220000 		.4byte	0x223c
 9149 22e7 B11C0000 		.4byte	.LLST123
 9150 22eb 16       		.uleb128 0x16
 9151 22ec CC000000 		.4byte	.LVL549
 9152 22f0 FB270000 		.4byte	0x27fb
 9153 22f4 0D230000 		.4byte	0x230d
 9154 22f8 17       		.uleb128 0x17
 9155 22f9 01       		.uleb128 0x1
 9156 22fa 52       		.byte	0x52
 9157 22fb 01       		.uleb128 0x1
 9158 22fc 36       		.byte	0x36
 9159 22fd 17       		.uleb128 0x17
 9160 22fe 01       		.uleb128 0x1
ARM GAS  C:\Users\Administrator\AppData\Local\Temp\ccX9Bf8z.s 			page 209


 9161 22ff 51       		.byte	0x51
 9162 2300 04       		.uleb128 0x4
 9163 2301 08       		.byte	0x8
 9164 2302 C9       		.byte	0xc9
 9165 2303 39       		.byte	0x39
 9166 2304 24       		.byte	0x24
 9167 2305 17       		.uleb128 0x17
 9168 2306 01       		.uleb128 0x1
 9169 2307 50       		.byte	0x50
 9170 2308 03       		.uleb128 0x3
 9171 2309 91       		.byte	0x91
 9172 230a 8477     		.sleb128 -1148
 9173 230c 00       		.byte	0
 9174 230d 16       		.uleb128 0x16
 9175 230e E2000000 		.4byte	.LVL551
 9176 2312 6D280000 		.4byte	0x286d
 9177 2316 2D230000 		.4byte	0x232d
 9178 231a 17       		.uleb128 0x17
 9179 231b 01       		.uleb128 0x1
 9180 231c 52       		.byte	0x52
 9181 231d 02       		.uleb128 0x2
 9182 231e 08       		.byte	0x8
 9183 231f 40       		.byte	0x40
 9184 2320 17       		.uleb128 0x17
 9185 2321 01       		.uleb128 0x1
 9186 2322 51       		.byte	0x51
 9187 2323 02       		.uleb128 0x2
 9188 2324 77       		.byte	0x77
 9189 2325 00       		.sleb128 0
 9190 2326 17       		.uleb128 0x17
 9191 2327 01       		.uleb128 0x1
 9192 2328 50       		.byte	0x50
 9193 2329 02       		.uleb128 0x2
 9194 232a 76       		.byte	0x76
 9195 232b 00       		.sleb128 0
 9196 232c 00       		.byte	0
 9197 232d 16       		.uleb128 0x16
 9198 232e F0000000 		.4byte	.LVL552
 9199 2332 82270000 		.4byte	0x2782
 9200 2336 4D230000 		.4byte	0x234d
 9201 233a 17       		.uleb128 0x17
 9202 233b 01       		.uleb128 0x1
 9203 233c 52       		.byte	0x52
 9204 233d 01       		.uleb128 0x1
 9205 233e 36       		.byte	0x36
 9206 233f 17       		.uleb128 0x17
 9207 2340 01       		.uleb128 0x1
 9208 2341 51       		.byte	0x51
 9209 2342 03       		.uleb128 0x3
 9210 2343 91       		.byte	0x91
 9211 2344 D377     		.sleb128 -1069
 9212 2346 17       		.uleb128 0x17
 9213 2347 01       		.uleb128 0x1
 9214 2348 50       		.byte	0x50
 9215 2349 02       		.uleb128 0x2
 9216 234a 76       		.byte	0x76
 9217 234b 00       		.sleb128 0
ARM GAS  C:\Users\Administrator\AppData\Local\Temp\ccX9Bf8z.s 			page 210


 9218 234c 00       		.byte	0
 9219 234d 16       		.uleb128 0x16
 9220 234e 04010000 		.4byte	.LVL554
 9221 2352 82270000 		.4byte	0x2782
 9222 2356 72230000 		.4byte	0x2372
 9223 235a 17       		.uleb128 0x17
 9224 235b 01       		.uleb128 0x1
 9225 235c 52       		.byte	0x52
 9226 235d 01       		.uleb128 0x1
 9227 235e 34       		.byte	0x34
 9228 235f 17       		.uleb128 0x17
 9229 2360 01       		.uleb128 0x1
 9230 2361 51       		.byte	0x51
 9231 2362 07       		.uleb128 0x7
 9232 2363 74       		.byte	0x74
 9233 2364 00       		.sleb128 0
 9234 2365 75       		.byte	0x75
 9235 2366 00       		.sleb128 0
 9236 2367 22       		.byte	0x22
 9237 2368 36       		.byte	0x36
 9238 2369 1C       		.byte	0x1c
 9239 236a 17       		.uleb128 0x17
 9240 236b 01       		.uleb128 0x1
 9241 236c 50       		.byte	0x50
 9242 236d 03       		.uleb128 0x3
 9243 236e 91       		.byte	0x91
 9244 236f 9277     		.sleb128 -1134
 9245 2371 00       		.byte	0
 9246 2372 16       		.uleb128 0x16
 9247 2373 16010000 		.4byte	.LVL555
 9248 2377 540F0000 		.4byte	0xf54
 9249 237b 9A230000 		.4byte	0x239a
 9250 237f 17       		.uleb128 0x17
 9251 2380 01       		.uleb128 0x1
 9252 2381 53       		.byte	0x53
 9253 2382 02       		.uleb128 0x2
 9254 2383 76       		.byte	0x76
 9255 2384 00       		.sleb128 0
 9256 2385 17       		.uleb128 0x17
 9257 2386 01       		.uleb128 0x1
 9258 2387 51       		.byte	0x51
 9259 2388 01       		.uleb128 0x1
 9260 2389 31       		.byte	0x31
 9261 238a 17       		.uleb128 0x17
 9262 238b 01       		.uleb128 0x1
 9263 238c 50       		.byte	0x50
 9264 238d 05       		.uleb128 0x5
 9265 238e 91       		.byte	0x91
 9266 238f FC76     		.sleb128 -1156
 9267 2391 94       		.byte	0x94
 9268 2392 01       		.byte	0x1
 9269 2393 17       		.uleb128 0x17
 9270 2394 02       		.uleb128 0x2
 9271 2395 7D       		.byte	0x7d
 9272 2396 00       		.sleb128 0
 9273 2397 01       		.uleb128 0x1
 9274 2398 3B       		.byte	0x3b
ARM GAS  C:\Users\Administrator\AppData\Local\Temp\ccX9Bf8z.s 			page 211


 9275 2399 00       		.byte	0
 9276 239a 1B       		.uleb128 0x1b
 9277 239b 1A010000 		.4byte	.LVL556
 9278 239f 402A0000 		.4byte	0x2a40
 9279 23a3 18       		.uleb128 0x18
 9280 23a4 20010000 		.4byte	.LVL557
 9281 23a8 31280000 		.4byte	0x2831
 9282 23ac 17       		.uleb128 0x17
 9283 23ad 01       		.uleb128 0x1
 9284 23ae 50       		.byte	0x50
 9285 23af 01       		.uleb128 0x1
 9286 23b0 34       		.byte	0x34
 9287 23b1 00       		.byte	0
 9288 23b2 00       		.byte	0
 9289 23b3 00       		.byte	0
 9290 23b4 2A       		.uleb128 0x2a
 9291 23b5 99030000 		.4byte	0x399
 9292 23b9 22010000 		.4byte	.LBB16
 9293 23bd 1C000000 		.4byte	.LBE16-.LBB16
 9294 23c1 01       		.byte	0x1
 9295 23c2 0707     		.2byte	0x707
 9296 23c4 EA230000 		.4byte	0x23ea
 9297 23c8 2B       		.uleb128 0x2b
 9298 23c9 A6030000 		.4byte	0x3a6
 9299 23cd C41C0000 		.4byte	.LLST124
 9300 23d1 2C       		.uleb128 0x2c
 9301 23d2 22010000 		.4byte	.LBB17
 9302 23d6 1C000000 		.4byte	.LBE17-.LBB17
 9303 23da 2D       		.uleb128 0x2d
 9304 23db B2030000 		.4byte	0x3b2
 9305 23df 2E       		.uleb128 0x2e
 9306 23e0 BE030000 		.4byte	0x3be
 9307 23e4 D71C0000 		.4byte	.LLST125
 9308 23e8 00       		.byte	0
 9309 23e9 00       		.byte	0
 9310 23ea 16       		.uleb128 0x16
 9311 23eb 1C000000 		.4byte	.LVL532
 9312 23ef 82270000 		.4byte	0x2782
 9313 23f3 0B240000 		.4byte	0x240b
 9314 23f7 17       		.uleb128 0x17
 9315 23f8 01       		.uleb128 0x1
 9316 23f9 52       		.byte	0x52
 9317 23fa 03       		.uleb128 0x3
 9318 23fb 0A       		.byte	0xa
 9319 23fc 1A04     		.2byte	0x41a
 9320 23fe 17       		.uleb128 0x17
 9321 23ff 01       		.uleb128 0x1
 9322 2400 51       		.byte	0x51
 9323 2401 02       		.uleb128 0x2
 9324 2402 76       		.byte	0x76
 9325 2403 00       		.sleb128 0
 9326 2404 17       		.uleb128 0x17
 9327 2405 01       		.uleb128 0x1
 9328 2406 50       		.byte	0x50
 9329 2407 02       		.uleb128 0x2
 9330 2408 74       		.byte	0x74
 9331 2409 00       		.sleb128 0
ARM GAS  C:\Users\Administrator\AppData\Local\Temp\ccX9Bf8z.s 			page 212


 9332 240a 00       		.byte	0
 9333 240b 16       		.uleb128 0x16
 9334 240c 26000000 		.4byte	.LVL533
 9335 2410 6D280000 		.4byte	0x286d
 9336 2414 2B240000 		.4byte	0x242b
 9337 2418 17       		.uleb128 0x17
 9338 2419 01       		.uleb128 0x1
 9339 241a 52       		.byte	0x52
 9340 241b 03       		.uleb128 0x3
 9341 241c 0A       		.byte	0xa
 9342 241d 1A04     		.2byte	0x41a
 9343 241f 17       		.uleb128 0x17
 9344 2420 01       		.uleb128 0x1
 9345 2421 51       		.byte	0x51
 9346 2422 01       		.uleb128 0x1
 9347 2423 30       		.byte	0x30
 9348 2424 17       		.uleb128 0x17
 9349 2425 01       		.uleb128 0x1
 9350 2426 50       		.byte	0x50
 9351 2427 02       		.uleb128 0x2
 9352 2428 76       		.byte	0x76
 9353 2429 00       		.sleb128 0
 9354 242a 00       		.byte	0
 9355 242b 16       		.uleb128 0x16
 9356 242c 40000000 		.4byte	.LVL535
 9357 2430 8A280000 		.4byte	0x288a
 9358 2434 45240000 		.4byte	0x2445
 9359 2438 17       		.uleb128 0x17
 9360 2439 01       		.uleb128 0x1
 9361 243a 51       		.byte	0x51
 9362 243b 02       		.uleb128 0x2
 9363 243c 76       		.byte	0x76
 9364 243d 00       		.sleb128 0
 9365 243e 17       		.uleb128 0x17
 9366 243f 01       		.uleb128 0x1
 9367 2440 50       		.byte	0x50
 9368 2441 02       		.uleb128 0x2
 9369 2442 74       		.byte	0x74
 9370 2443 00       		.sleb128 0
 9371 2444 00       		.byte	0
 9372 2445 16       		.uleb128 0x16
 9373 2446 76000000 		.4byte	.LVL537
 9374 244a FD030000 		.4byte	0x3fd
 9375 244e 59240000 		.4byte	0x2459
 9376 2452 17       		.uleb128 0x17
 9377 2453 01       		.uleb128 0x1
 9378 2454 50       		.byte	0x50
 9379 2455 02       		.uleb128 0x2
 9380 2456 74       		.byte	0x74
 9381 2457 00       		.sleb128 0
 9382 2458 00       		.byte	0
 9383 2459 16       		.uleb128 0x16
 9384 245a 8E000000 		.4byte	.LVL540
 9385 245e 03060000 		.4byte	0x603
 9386 2462 6D240000 		.4byte	0x246d
 9387 2466 17       		.uleb128 0x17
 9388 2467 01       		.uleb128 0x1
ARM GAS  C:\Users\Administrator\AppData\Local\Temp\ccX9Bf8z.s 			page 213


 9389 2468 50       		.byte	0x50
 9390 2469 02       		.uleb128 0x2
 9391 246a 74       		.byte	0x74
 9392 246b 00       		.sleb128 0
 9393 246c 00       		.byte	0
 9394 246d 16       		.uleb128 0x16
 9395 246e A6000000 		.4byte	.LVL543
 9396 2472 7E050000 		.4byte	0x57e
 9397 2476 81240000 		.4byte	0x2481
 9398 247a 17       		.uleb128 0x17
 9399 247b 01       		.uleb128 0x1
 9400 247c 50       		.byte	0x50
 9401 247d 02       		.uleb128 0x2
 9402 247e 74       		.byte	0x74
 9403 247f 00       		.sleb128 0
 9404 2480 00       		.byte	0
 9405 2481 16       		.uleb128 0x16
 9406 2482 44010000 		.4byte	.LVL561
 9407 2486 90100000 		.4byte	0x1090
 9408 248a 95240000 		.4byte	0x2495
 9409 248e 17       		.uleb128 0x17
 9410 248f 01       		.uleb128 0x1
 9411 2490 50       		.byte	0x50
 9412 2491 02       		.uleb128 0x2
 9413 2492 74       		.byte	0x74
 9414 2493 00       		.sleb128 0
 9415 2494 00       		.byte	0
 9416 2495 16       		.uleb128 0x16
 9417 2496 4C010000 		.4byte	.LVL564
 9418 249a 57120000 		.4byte	0x1257
 9419 249e A9240000 		.4byte	0x24a9
 9420 24a2 17       		.uleb128 0x17
 9421 24a3 01       		.uleb128 0x1
 9422 24a4 50       		.byte	0x50
 9423 24a5 02       		.uleb128 0x2
 9424 24a6 74       		.byte	0x74
 9425 24a7 00       		.sleb128 0
 9426 24a8 00       		.byte	0
 9427 24a9 16       		.uleb128 0x16
 9428 24aa 54010000 		.4byte	.LVL567
 9429 24ae 44140000 		.4byte	0x1444
 9430 24b2 BD240000 		.4byte	0x24bd
 9431 24b6 17       		.uleb128 0x17
 9432 24b7 01       		.uleb128 0x1
 9433 24b8 50       		.byte	0x50
 9434 24b9 02       		.uleb128 0x2
 9435 24ba 74       		.byte	0x74
 9436 24bb 00       		.sleb128 0
 9437 24bc 00       		.byte	0
 9438 24bd 16       		.uleb128 0x16
 9439 24be 5C010000 		.4byte	.LVL570
 9440 24c2 D6150000 		.4byte	0x15d6
 9441 24c6 D1240000 		.4byte	0x24d1
 9442 24ca 17       		.uleb128 0x17
 9443 24cb 01       		.uleb128 0x1
 9444 24cc 50       		.byte	0x50
 9445 24cd 02       		.uleb128 0x2
ARM GAS  C:\Users\Administrator\AppData\Local\Temp\ccX9Bf8z.s 			page 214


 9446 24ce 74       		.byte	0x74
 9447 24cf 00       		.sleb128 0
 9448 24d0 00       		.byte	0
 9449 24d1 16       		.uleb128 0x16
 9450 24d2 64010000 		.4byte	.LVL573
 9451 24d6 C8040000 		.4byte	0x4c8
 9452 24da E5240000 		.4byte	0x24e5
 9453 24de 17       		.uleb128 0x17
 9454 24df 01       		.uleb128 0x1
 9455 24e0 50       		.byte	0x50
 9456 24e1 02       		.uleb128 0x2
 9457 24e2 74       		.byte	0x74
 9458 24e3 00       		.sleb128 0
 9459 24e4 00       		.byte	0
 9460 24e5 16       		.uleb128 0x16
 9461 24e6 6C010000 		.4byte	.LVL576
 9462 24ea E8180000 		.4byte	0x18e8
 9463 24ee F9240000 		.4byte	0x24f9
 9464 24f2 17       		.uleb128 0x17
 9465 24f3 01       		.uleb128 0x1
 9466 24f4 50       		.byte	0x50
 9467 24f5 02       		.uleb128 0x2
 9468 24f6 74       		.byte	0x74
 9469 24f7 00       		.sleb128 0
 9470 24f8 00       		.byte	0
 9471 24f9 16       		.uleb128 0x16
 9472 24fa 74010000 		.4byte	.LVL579
 9473 24fe DC190000 		.4byte	0x19dc
 9474 2502 0D250000 		.4byte	0x250d
 9475 2506 17       		.uleb128 0x17
 9476 2507 01       		.uleb128 0x1
 9477 2508 50       		.byte	0x50
 9478 2509 02       		.uleb128 0x2
 9479 250a 74       		.byte	0x74
 9480 250b 00       		.sleb128 0
 9481 250c 00       		.byte	0
 9482 250d 16       		.uleb128 0x16
 9483 250e 7C010000 		.4byte	.LVL582
 9484 2512 1B1C0000 		.4byte	0x1c1b
 9485 2516 21250000 		.4byte	0x2521
 9486 251a 17       		.uleb128 0x17
 9487 251b 01       		.uleb128 0x1
 9488 251c 50       		.byte	0x50
 9489 251d 02       		.uleb128 0x2
 9490 251e 74       		.byte	0x74
 9491 251f 00       		.sleb128 0
 9492 2520 00       		.byte	0
 9493 2521 16       		.uleb128 0x16
 9494 2522 84010000 		.4byte	.LVL585
 9495 2526 671D0000 		.4byte	0x1d67
 9496 252a 35250000 		.4byte	0x2535
 9497 252e 17       		.uleb128 0x17
 9498 252f 01       		.uleb128 0x1
 9499 2530 50       		.byte	0x50
 9500 2531 02       		.uleb128 0x2
 9501 2532 74       		.byte	0x74
 9502 2533 00       		.sleb128 0
ARM GAS  C:\Users\Administrator\AppData\Local\Temp\ccX9Bf8z.s 			page 215


 9503 2534 00       		.byte	0
 9504 2535 16       		.uleb128 0x16
 9505 2536 8C010000 		.4byte	.LVL588
 9506 253a 310E0000 		.4byte	0xe31
 9507 253e 49250000 		.4byte	0x2549
 9508 2542 17       		.uleb128 0x17
 9509 2543 01       		.uleb128 0x1
 9510 2544 50       		.byte	0x50
 9511 2545 02       		.uleb128 0x2
 9512 2546 74       		.byte	0x74
 9513 2547 00       		.sleb128 0
 9514 2548 00       		.byte	0
 9515 2549 16       		.uleb128 0x16
 9516 254a 94010000 		.4byte	.LVL591
 9517 254e 5E1E0000 		.4byte	0x1e5e
 9518 2552 5D250000 		.4byte	0x255d
 9519 2556 17       		.uleb128 0x17
 9520 2557 01       		.uleb128 0x1
 9521 2558 50       		.byte	0x50
 9522 2559 02       		.uleb128 0x2
 9523 255a 74       		.byte	0x74
 9524 255b 00       		.sleb128 0
 9525 255c 00       		.byte	0
 9526 255d 18       		.uleb128 0x18
 9527 255e 9C010000 		.4byte	.LVL594
 9528 2562 AD060000 		.4byte	0x6ad
 9529 2566 17       		.uleb128 0x17
 9530 2567 01       		.uleb128 0x1
 9531 2568 50       		.byte	0x50
 9532 2569 02       		.uleb128 0x2
 9533 256a 74       		.byte	0x74
 9534 256b 00       		.sleb128 0
 9535 256c 00       		.byte	0
 9536 256d 00       		.byte	0
 9537 256e 30       		.uleb128 0x30
 9538 256f 75000000 		.4byte	.LASF186
 9539 2573 09       		.byte	0x9
 9540 2574 1C       		.byte	0x1c
 9541 2575 430F0000 		.4byte	0xf43
 9542 2579 30       		.uleb128 0x30
 9543 257a 19010000 		.4byte	.LASF187
 9544 257e 09       		.byte	0x9
 9545 257f 1D       		.byte	0x1d
 9546 2580 AD000000 		.4byte	0xad
 9547 2584 31       		.uleb128 0x31
 9548 2585 970A0000 		.4byte	.LASF188
 9549 2589 0A       		.byte	0xa
 9550 258a 0A       		.byte	0xa
 9551 258b 8C000000 		.4byte	0x8c
 9552 258f 05       		.uleb128 0x5
 9553 2590 03       		.byte	0x3
 9554 2591 00000000 		.4byte	ADCResultCenter
 9555 2595 30       		.uleb128 0x30
 9556 2596 FA100000 		.4byte	.LASF189
 9557 259a 01       		.byte	0x1
 9558 259b 0F       		.byte	0xf
 9559 259c AD000000 		.4byte	0xad
ARM GAS  C:\Users\Administrator\AppData\Local\Temp\ccX9Bf8z.s 			page 216


 9560 25a0 30       		.uleb128 0x30
 9561 25a1 99110000 		.4byte	.LASF190
 9562 25a5 01       		.byte	0x1
 9563 25a6 11       		.byte	0x11
 9564 25a7 AB250000 		.4byte	0x25ab
 9565 25ab 06       		.uleb128 0x6
 9566 25ac 26010000 		.4byte	0x126
 9567 25b0 0A       		.uleb128 0xa
 9568 25b1 AD000000 		.4byte	0xad
 9569 25b5 C0250000 		.4byte	0x25c0
 9570 25b9 0B       		.uleb128 0xb
 9571 25ba 0C010000 		.4byte	0x10c
 9572 25be C7       		.byte	0xc7
 9573 25bf 00       		.byte	0
 9574 25c0 30       		.uleb128 0x30
 9575 25c1 4B030000 		.4byte	.LASF191
 9576 25c5 01       		.byte	0x1
 9577 25c6 13       		.byte	0x13
 9578 25c7 B0250000 		.4byte	0x25b0
 9579 25cb 30       		.uleb128 0x30
 9580 25cc 00120000 		.4byte	.LASF192
 9581 25d0 01       		.byte	0x1
 9582 25d1 14       		.byte	0x14
 9583 25d2 B0250000 		.4byte	0x25b0
 9584 25d6 30       		.uleb128 0x30
 9585 25d7 6E0C0000 		.4byte	.LASF193
 9586 25db 01       		.byte	0x1
 9587 25dc 15       		.byte	0x15
 9588 25dd B8040000 		.4byte	0x4b8
 9589 25e1 0A       		.uleb128 0xa
 9590 25e2 AD000000 		.4byte	0xad
 9591 25e6 F1250000 		.4byte	0x25f1
 9592 25ea 0B       		.uleb128 0xb
 9593 25eb 0C010000 		.4byte	0x10c
 9594 25ef 0F       		.byte	0xf
 9595 25f0 00       		.byte	0
 9596 25f1 30       		.uleb128 0x30
 9597 25f2 45070000 		.4byte	.LASF194
 9598 25f6 01       		.byte	0x1
 9599 25f7 16       		.byte	0x16
 9600 25f8 E1250000 		.4byte	0x25e1
 9601 25fc 30       		.uleb128 0x30
 9602 25fd 87020000 		.4byte	.LASF195
 9603 2601 01       		.byte	0x1
 9604 2602 17       		.byte	0x17
 9605 2603 B8040000 		.4byte	0x4b8
 9606 2607 30       		.uleb128 0x30
 9607 2608 8B100000 		.4byte	.LASF196
 9608 260c 01       		.byte	0x1
 9609 260d 18       		.byte	0x18
 9610 260e AD000000 		.4byte	0xad
 9611 2612 30       		.uleb128 0x30
 9612 2613 85090000 		.4byte	.LASF197
 9613 2617 01       		.byte	0x1
 9614 2618 19       		.byte	0x19
 9615 2619 B9000000 		.4byte	0xb9
 9616 261d 30       		.uleb128 0x30
ARM GAS  C:\Users\Administrator\AppData\Local\Temp\ccX9Bf8z.s 			page 217


 9617 261e 39110000 		.4byte	.LASF198
 9618 2622 01       		.byte	0x1
 9619 2623 1A       		.byte	0x1a
 9620 2624 B9000000 		.4byte	0xb9
 9621 2628 30       		.uleb128 0x30
 9622 2629 BB0F0000 		.4byte	.LASF199
 9623 262d 01       		.byte	0x1
 9624 262e 20       		.byte	0x20
 9625 262f C5000000 		.4byte	0xc5
 9626 2633 30       		.uleb128 0x30
 9627 2634 AE0E0000 		.4byte	.LASF200
 9628 2638 01       		.byte	0x1
 9629 2639 21       		.byte	0x21
 9630 263a C5000000 		.4byte	0xc5
 9631 263e 30       		.uleb128 0x30
 9632 263f 34050000 		.4byte	.LASF201
 9633 2643 01       		.byte	0x1
 9634 2644 23       		.byte	0x23
 9635 2645 AD000000 		.4byte	0xad
 9636 2649 30       		.uleb128 0x30
 9637 264a 210D0000 		.4byte	.LASF202
 9638 264e 01       		.byte	0x1
 9639 264f 24       		.byte	0x24
 9640 2650 AD000000 		.4byte	0xad
 9641 2654 30       		.uleb128 0x30
 9642 2655 37000000 		.4byte	.LASF203
 9643 2659 01       		.byte	0x1
 9644 265a 26       		.byte	0x26
 9645 265b AD000000 		.4byte	0xad
 9646 265f 30       		.uleb128 0x30
 9647 2660 23090000 		.4byte	.LASF204
 9648 2664 01       		.byte	0x1
 9649 2665 27       		.byte	0x27
 9650 2666 AD000000 		.4byte	0xad
 9651 266a 30       		.uleb128 0x30
 9652 266b F50D0000 		.4byte	.LASF205
 9653 266f 01       		.byte	0x1
 9654 2670 28       		.byte	0x28
 9655 2671 75260000 		.4byte	0x2675
 9656 2675 06       		.uleb128 0x6
 9657 2676 430F0000 		.4byte	0xf43
 9658 267a 30       		.uleb128 0x30
 9659 267b 020E0000 		.4byte	.LASF206
 9660 267f 01       		.byte	0x1
 9661 2680 29       		.byte	0x29
 9662 2681 85260000 		.4byte	0x2685
 9663 2685 06       		.uleb128 0x6
 9664 2686 430F0000 		.4byte	0xf43
 9665 268a 30       		.uleb128 0x30
 9666 268b E20B0000 		.4byte	.LASF207
 9667 268f 01       		.byte	0x1
 9668 2690 2B       		.byte	0x2b
 9669 2691 F2000000 		.4byte	0xf2
 9670 2695 30       		.uleb128 0x30
 9671 2696 D5020000 		.4byte	.LASF208
 9672 269a 01       		.byte	0x1
 9673 269b 2C       		.byte	0x2c
ARM GAS  C:\Users\Administrator\AppData\Local\Temp\ccX9Bf8z.s 			page 218


 9674 269c A0260000 		.4byte	0x26a0
 9675 26a0 06       		.uleb128 0x6
 9676 26a1 430F0000 		.4byte	0xf43
 9677 26a5 30       		.uleb128 0x30
 9678 26a6 200F0000 		.4byte	.LASF209
 9679 26aa 01       		.byte	0x1
 9680 26ab 2D       		.byte	0x2d
 9681 26ac F7000000 		.4byte	0xf7
 9682 26b0 30       		.uleb128 0x30
 9683 26b1 6B020000 		.4byte	.LASF210
 9684 26b5 01       		.byte	0x1
 9685 26b6 2E       		.byte	0x2e
 9686 26b7 F2000000 		.4byte	0xf2
 9687 26bb 30       		.uleb128 0x30
 9688 26bc F6120000 		.4byte	.LASF211
 9689 26c0 01       		.byte	0x1
 9690 26c1 2F       		.byte	0x2f
 9691 26c2 F7000000 		.4byte	0xf7
 9692 26c6 30       		.uleb128 0x30
 9693 26c7 950F0000 		.4byte	.LASF212
 9694 26cb 01       		.byte	0x1
 9695 26cc 31       		.byte	0x31
 9696 26cd C5000000 		.4byte	0xc5
 9697 26d1 30       		.uleb128 0x30
 9698 26d2 2E0E0000 		.4byte	.LASF213
 9699 26d6 01       		.byte	0x1
 9700 26d7 33       		.byte	0x33
 9701 26d8 C5000000 		.4byte	0xc5
 9702 26dc 30       		.uleb128 0x30
 9703 26dd E30E0000 		.4byte	.LASF214
 9704 26e1 01       		.byte	0x1
 9705 26e2 34       		.byte	0x34
 9706 26e3 C5000000 		.4byte	0xc5
 9707 26e7 30       		.uleb128 0x30
 9708 26e8 BD010000 		.4byte	.LASF215
 9709 26ec 01       		.byte	0x1
 9710 26ed 35       		.byte	0x35
 9711 26ee C5000000 		.4byte	0xc5
 9712 26f2 30       		.uleb128 0x30
 9713 26f3 4D010000 		.4byte	.LASF216
 9714 26f7 01       		.byte	0x1
 9715 26f8 36       		.byte	0x36
 9716 26f9 C5000000 		.4byte	0xc5
 9717 26fd 30       		.uleb128 0x30
 9718 26fe ED110000 		.4byte	.LASF217
 9719 2702 01       		.byte	0x1
 9720 2703 37       		.byte	0x37
 9721 2704 AD000000 		.4byte	0xad
 9722 2708 30       		.uleb128 0x30
 9723 2709 510A0000 		.4byte	.LASF218
 9724 270d 01       		.byte	0x1
 9725 270e 3A       		.byte	0x3a
 9726 270f AD000000 		.4byte	0xad
 9727 2713 30       		.uleb128 0x30
 9728 2714 A70F0000 		.4byte	.LASF219
 9729 2718 01       		.byte	0x1
 9730 2719 3B       		.byte	0x3b
ARM GAS  C:\Users\Administrator\AppData\Local\Temp\ccX9Bf8z.s 			page 219


 9731 271a FC000000 		.4byte	0xfc
 9732 271e 30       		.uleb128 0x30
 9733 271f 78090000 		.4byte	.LASF220
 9734 2723 01       		.byte	0x1
 9735 2724 3C       		.byte	0x3c
 9736 2725 FC000000 		.4byte	0xfc
 9737 2729 30       		.uleb128 0x30
 9738 272a 52030000 		.4byte	.LASF221
 9739 272e 01       		.byte	0x1
 9740 272f 3D       		.byte	0x3d
 9741 2730 AD000000 		.4byte	0xad
 9742 2734 30       		.uleb128 0x30
 9743 2735 770C0000 		.4byte	.LASF222
 9744 2739 01       		.byte	0x1
 9745 273a 3E       		.byte	0x3e
 9746 273b AD000000 		.4byte	0xad
 9747 273f 30       		.uleb128 0x30
 9748 2740 7F000000 		.4byte	.LASF223
 9749 2744 01       		.byte	0x1
 9750 2745 40       		.byte	0x40
 9751 2746 AD000000 		.4byte	0xad
 9752 274a 30       		.uleb128 0x30
 9753 274b 09110000 		.4byte	.LASF224
 9754 274f 01       		.byte	0x1
 9755 2750 41       		.byte	0x41
 9756 2751 AD000000 		.4byte	0xad
 9757 2755 30       		.uleb128 0x30
 9758 2756 DA120000 		.4byte	.LASF225
 9759 275a 01       		.byte	0x1
 9760 275b 44       		.byte	0x44
 9761 275c AD000000 		.4byte	0xad
 9762 2760 31       		.uleb128 0x31
 9763 2761 A80B0000 		.4byte	.LASF226
 9764 2765 01       		.byte	0x1
 9765 2766 48       		.byte	0x48
 9766 2767 B9000000 		.4byte	0xb9
 9767 276b 05       		.uleb128 0x5
 9768 276c 03       		.byte	0x3
 9769 276d 00000000 		.4byte	UploadQty
 9770 2771 31       		.uleb128 0x31
 9771 2772 B6050000 		.4byte	.LASF227
 9772 2776 01       		.byte	0x1
 9773 2777 49       		.byte	0x49
 9774 2778 B9000000 		.4byte	0xb9
 9775 277c 05       		.uleb128 0x5
 9776 277d 03       		.byte	0x3
 9777 277e 00000000 		.4byte	UploadStartnum
 9778 2782 32       		.uleb128 0x32
 9779 2783 84100000 		.4byte	.LASF228
 9780 2787 13010000 		.4byte	0x113
 9781 278b 9F270000 		.4byte	0x279f
 9782 278f 33       		.uleb128 0x33
 9783 2790 13010000 		.4byte	0x113
 9784 2794 33       		.uleb128 0x33
 9785 2795 9F270000 		.4byte	0x279f
 9786 2799 33       		.uleb128 0x33
 9787 279a 0C010000 		.4byte	0x10c
ARM GAS  C:\Users\Administrator\AppData\Local\Temp\ccX9Bf8z.s 			page 220


 9788 279e 00       		.byte	0
 9789 279f 08       		.uleb128 0x8
 9790 27a0 04       		.byte	0x4
 9791 27a1 A5270000 		.4byte	0x27a5
 9792 27a5 34       		.uleb128 0x34
 9793 27a6 35       		.uleb128 0x35
 9794 27a7 69100000 		.4byte	.LASF234
 9795 27ab 0E       		.byte	0xe
 9796 27ac 21       		.byte	0x21
 9797 27ad 01010000 		.4byte	0x101
 9798 27b1 BB270000 		.4byte	0x27bb
 9799 27b5 33       		.uleb128 0x33
 9800 27b6 15010000 		.4byte	0x115
 9801 27ba 00       		.byte	0
 9802 27bb 36       		.uleb128 0x36
 9803 27bc 83060000 		.4byte	.LASF229
 9804 27c0 08       		.byte	0x8
 9805 27c1 6F       		.byte	0x6f
 9806 27c2 D1270000 		.4byte	0x27d1
 9807 27c6 33       		.uleb128 0x33
 9808 27c7 20010000 		.4byte	0x120
 9809 27cb 33       		.uleb128 0x33
 9810 27cc 20010000 		.4byte	0x120
 9811 27d0 00       		.byte	0
 9812 27d1 37       		.uleb128 0x37
 9813 27d2 490E0000 		.4byte	.LASF253
 9814 27d6 12       		.byte	0x12
 9815 27d7 5201     		.2byte	0x152
 9816 27d9 DF000000 		.4byte	0xdf
 9817 27dd 36       		.uleb128 0x36
 9818 27de 7D0F0000 		.4byte	.LASF230
 9819 27e2 0B       		.byte	0xb
 9820 27e3 12       		.byte	0x12
 9821 27e4 EE270000 		.4byte	0x27ee
 9822 27e8 33       		.uleb128 0x33
 9823 27e9 EE270000 		.4byte	0x27ee
 9824 27ed 00       		.byte	0
 9825 27ee 08       		.uleb128 0x8
 9826 27ef 04       		.byte	0x4
 9827 27f0 8C000000 		.4byte	0x8c
 9828 27f4 38       		.uleb128 0x38
 9829 27f5 E4120000 		.4byte	.LASF245
 9830 27f9 01       		.byte	0x1
 9831 27fa 55       		.byte	0x55
 9832 27fb 36       		.uleb128 0x36
 9833 27fc D60B0000 		.4byte	.LASF231
 9834 2800 0C       		.byte	0xc
 9835 2801 53       		.byte	0x53
 9836 2802 16280000 		.4byte	0x2816
 9837 2806 33       		.uleb128 0x33
 9838 2807 EE270000 		.4byte	0x27ee
 9839 280b 33       		.uleb128 0x33
 9840 280c A2000000 		.4byte	0xa2
 9841 2810 33       		.uleb128 0x33
 9842 2811 97000000 		.4byte	0x97
 9843 2815 00       		.byte	0
 9844 2816 36       		.uleb128 0x36
ARM GAS  C:\Users\Administrator\AppData\Local\Temp\ccX9Bf8z.s 			page 221


 9845 2817 DB010000 		.4byte	.LASF232
 9846 281b 0C       		.byte	0xc
 9847 281c 54       		.byte	0x54
 9848 281d 31280000 		.4byte	0x2831
 9849 2821 33       		.uleb128 0x33
 9850 2822 EE270000 		.4byte	0x27ee
 9851 2826 33       		.uleb128 0x33
 9852 2827 A2000000 		.4byte	0xa2
 9853 282b 33       		.uleb128 0x33
 9854 282c 97000000 		.4byte	0x97
 9855 2830 00       		.byte	0
 9856 2831 36       		.uleb128 0x36
 9857 2832 68080000 		.4byte	.LASF233
 9858 2836 0D       		.byte	0xd
 9859 2837 28       		.byte	0x28
 9860 2838 42280000 		.4byte	0x2842
 9861 283c 33       		.uleb128 0x33
 9862 283d 02030000 		.4byte	0x302
 9863 2841 00       		.byte	0
 9864 2842 35       		.uleb128 0x35
 9865 2843 51040000 		.4byte	.LASF235
 9866 2847 09       		.byte	0x9
 9867 2848 22       		.byte	0x22
 9868 2849 7E000000 		.4byte	0x7e
 9869 284d 5C280000 		.4byte	0x285c
 9870 2851 33       		.uleb128 0x33
 9871 2852 20010000 		.4byte	0x120
 9872 2856 33       		.uleb128 0x33
 9873 2857 B9000000 		.4byte	0xb9
 9874 285b 00       		.byte	0
 9875 285c 36       		.uleb128 0x36
 9876 285d E9090000 		.4byte	.LASF236
 9877 2861 0D       		.byte	0xd
 9878 2862 27       		.byte	0x27
 9879 2863 6D280000 		.4byte	0x286d
 9880 2867 33       		.uleb128 0x33
 9881 2868 97000000 		.4byte	0x97
 9882 286c 00       		.byte	0
 9883 286d 32       		.uleb128 0x32
 9884 286e 420E0000 		.4byte	.LASF237
 9885 2872 13010000 		.4byte	0x113
 9886 2876 8A280000 		.4byte	0x288a
 9887 287a 33       		.uleb128 0x33
 9888 287b 13010000 		.4byte	0x113
 9889 287f 33       		.uleb128 0x33
 9890 2880 7E000000 		.4byte	0x7e
 9891 2884 33       		.uleb128 0x33
 9892 2885 0C010000 		.4byte	0x10c
 9893 2889 00       		.byte	0
 9894 288a 35       		.uleb128 0x35
 9895 288b 46090000 		.4byte	.LASF238
 9896 288f 0F       		.byte	0xf
 9897 2890 0B       		.byte	0xb
 9898 2891 C5000000 		.4byte	0xc5
 9899 2895 A4280000 		.4byte	0x28a4
 9900 2899 33       		.uleb128 0x33
 9901 289a 20010000 		.4byte	0x120
ARM GAS  C:\Users\Administrator\AppData\Local\Temp\ccX9Bf8z.s 			page 222


 9902 289e 33       		.uleb128 0x33
 9903 289f C5000000 		.4byte	0xc5
 9904 28a3 00       		.byte	0
 9905 28a4 35       		.uleb128 0x35
 9906 28a5 BF060000 		.4byte	.LASF239
 9907 28a9 10       		.byte	0x10
 9908 28aa 4A       		.byte	0x4a
 9909 28ab 8C000000 		.4byte	0x8c
 9910 28af BE280000 		.4byte	0x28be
 9911 28b3 33       		.uleb128 0x33
 9912 28b4 EE270000 		.4byte	0x27ee
 9913 28b8 33       		.uleb128 0x33
 9914 28b9 97000000 		.4byte	0x97
 9915 28bd 00       		.byte	0
 9916 28be 35       		.uleb128 0x35
 9917 28bf C20E0000 		.4byte	.LASF240
 9918 28c3 0E       		.byte	0xe
 9919 28c4 16       		.byte	0x16
 9920 28c5 7E000000 		.4byte	0x7e
 9921 28c9 DD280000 		.4byte	0x28dd
 9922 28cd 33       		.uleb128 0x33
 9923 28ce 9F270000 		.4byte	0x279f
 9924 28d2 33       		.uleb128 0x33
 9925 28d3 9F270000 		.4byte	0x279f
 9926 28d7 33       		.uleb128 0x33
 9927 28d8 01010000 		.4byte	0x101
 9928 28dc 00       		.byte	0
 9929 28dd 35       		.uleb128 0x35
 9930 28de 23060000 		.4byte	.LASF241
 9931 28e2 11       		.byte	0x11
 9932 28e3 18       		.byte	0x18
 9933 28e4 AD000000 		.4byte	0xad
 9934 28e8 F7280000 		.4byte	0x28f7
 9935 28ec 33       		.uleb128 0x33
 9936 28ed 20010000 		.4byte	0x120
 9937 28f1 33       		.uleb128 0x33
 9938 28f2 B9000000 		.4byte	0xb9
 9939 28f6 00       		.byte	0
 9940 28f7 35       		.uleb128 0x35
 9941 28f8 420E0000 		.4byte	.LASF237
 9942 28fc 0E       		.byte	0xe
 9943 28fd 19       		.byte	0x19
 9944 28fe 13010000 		.4byte	0x113
 9945 2902 16290000 		.4byte	0x2916
 9946 2906 33       		.uleb128 0x33
 9947 2907 13010000 		.4byte	0x113
 9948 290b 33       		.uleb128 0x33
 9949 290c 7E000000 		.4byte	0x7e
 9950 2910 33       		.uleb128 0x33
 9951 2911 01010000 		.4byte	0x101
 9952 2915 00       		.byte	0
 9953 2916 35       		.uleb128 0x35
 9954 2917 0E0F0000 		.4byte	.LASF242
 9955 291b 08       		.byte	0x8
 9956 291c 5B       		.byte	0x5b
 9957 291d AD000000 		.4byte	0xad
 9958 2921 2B290000 		.4byte	0x292b
ARM GAS  C:\Users\Administrator\AppData\Local\Temp\ccX9Bf8z.s 			page 223


 9959 2925 33       		.uleb128 0x33
 9960 2926 2B290000 		.4byte	0x292b
 9961 292a 00       		.byte	0
 9962 292b 08       		.uleb128 0x8
 9963 292c 04       		.byte	0x4
 9964 292d 52030000 		.4byte	0x352
 9965 2931 35       		.uleb128 0x35
 9966 2932 FC0E0000 		.4byte	.LASF243
 9967 2936 08       		.byte	0x8
 9968 2937 5C       		.byte	0x5c
 9969 2938 AD000000 		.4byte	0xad
 9970 293c 46290000 		.4byte	0x2946
 9971 2940 33       		.uleb128 0x33
 9972 2941 20010000 		.4byte	0x120
 9973 2945 00       		.byte	0
 9974 2946 35       		.uleb128 0x35
 9975 2947 40050000 		.4byte	.LASF244
 9976 294b 08       		.byte	0x8
 9977 294c 60       		.byte	0x60
 9978 294d AD000000 		.4byte	0xad
 9979 2951 5B290000 		.4byte	0x295b
 9980 2955 33       		.uleb128 0x33
 9981 2956 2B290000 		.4byte	0x292b
 9982 295a 00       		.byte	0
 9983 295b 38       		.uleb128 0x38
 9984 295c 17060000 		.4byte	.LASF246
 9985 2960 01       		.byte	0x1
 9986 2961 51       		.byte	0x51
 9987 2962 38       		.uleb128 0x38
 9988 2963 E30F0000 		.4byte	.LASF247
 9989 2967 01       		.byte	0x1
 9990 2968 53       		.byte	0x53
 9991 2969 36       		.uleb128 0x36
 9992 296a 93020000 		.4byte	.LASF248
 9993 296e 01       		.byte	0x1
 9994 296f 4E       		.byte	0x4e
 9995 2970 7A290000 		.4byte	0x297a
 9996 2974 33       		.uleb128 0x33
 9997 2975 C5000000 		.4byte	0xc5
 9998 2979 00       		.byte	0
 9999 297a 38       		.uleb128 0x38
 10000 297b 34040000 		.4byte	.LASF249
 10001 297f 01       		.byte	0x1
 10002 2980 54       		.byte	0x54
 10003 2981 36       		.uleb128 0x36
 10004 2982 A2020000 		.4byte	.LASF250
 10005 2986 01       		.byte	0x1
 10006 2987 52       		.byte	0x52
 10007 2988 92290000 		.4byte	0x2992
 10008 298c 33       		.uleb128 0x33
 10009 298d AD000000 		.4byte	0xad
 10010 2991 00       		.byte	0
 10011 2992 36       		.uleb128 0x36
 10012 2993 06050000 		.4byte	.LASF251
 10013 2997 08       		.byte	0x8
 10014 2998 69       		.byte	0x69
 10015 2999 A8290000 		.4byte	0x29a8
ARM GAS  C:\Users\Administrator\AppData\Local\Temp\ccX9Bf8z.s 			page 224


 10016 299d 33       		.uleb128 0x33
 10017 299e 320B0000 		.4byte	0xb32
 10018 29a2 33       		.uleb128 0x33
 10019 29a3 8C000000 		.4byte	0x8c
 10020 29a7 00       		.byte	0
 10021 29a8 38       		.uleb128 0x38
 10022 29a9 4D100000 		.4byte	.LASF252
 10023 29ad 01       		.byte	0x1
 10024 29ae 50       		.byte	0x50
 10025 29af 39       		.uleb128 0x39
 10026 29b0 41020000 		.4byte	.LASF254
 10027 29b4 08       		.byte	0x8
 10028 29b5 5D       		.byte	0x5d
 10029 29b6 AD000000 		.4byte	0xad
 10030 29ba 35       		.uleb128 0x35
 10031 29bb CE030000 		.4byte	.LASF255
 10032 29bf 08       		.byte	0x8
 10033 29c0 6D       		.byte	0x6d
 10034 29c1 B9000000 		.4byte	0xb9
 10035 29c5 D4290000 		.4byte	0x29d4
 10036 29c9 33       		.uleb128 0x33
 10037 29ca C5000000 		.4byte	0xc5
 10038 29ce 33       		.uleb128 0x33
 10039 29cf C5000000 		.4byte	0xc5
 10040 29d3 00       		.byte	0
 10041 29d4 35       		.uleb128 0x35
 10042 29d5 110C0000 		.4byte	.LASF256
 10043 29d9 08       		.byte	0x8
 10044 29da 6B       		.byte	0x6b
 10045 29db B9000000 		.4byte	0xb9
 10046 29df E9290000 		.4byte	0x29e9
 10047 29e3 33       		.uleb128 0x33
 10048 29e4 C5000000 		.4byte	0xc5
 10049 29e8 00       		.byte	0
 10050 29e9 36       		.uleb128 0x36
 10051 29ea 710A0000 		.4byte	.LASF257
 10052 29ee 08       		.byte	0x8
 10053 29ef 6E       		.byte	0x6e
 10054 29f0 042A0000 		.4byte	0x2a04
 10055 29f4 33       		.uleb128 0x33
 10056 29f5 B9000000 		.4byte	0xb9
 10057 29f9 33       		.uleb128 0x33
 10058 29fa B9000000 		.4byte	0xb9
 10059 29fe 33       		.uleb128 0x33
 10060 29ff 20010000 		.4byte	0x120
 10061 2a03 00       		.byte	0
 10062 2a04 35       		.uleb128 0x35
 10063 2a05 8E070000 		.4byte	.LASF258
 10064 2a09 08       		.byte	0x8
 10065 2a0a 66       		.byte	0x66
 10066 2a0b AD000000 		.4byte	0xad
 10067 2a0f 192A0000 		.4byte	0x2a19
 10068 2a13 33       		.uleb128 0x33
 10069 2a14 B9000000 		.4byte	0xb9
 10070 2a18 00       		.byte	0
 10071 2a19 36       		.uleb128 0x36
 10072 2a1a B6100000 		.4byte	.LASF259
ARM GAS  C:\Users\Administrator\AppData\Local\Temp\ccX9Bf8z.s 			page 225


 10073 2a1e 08       		.byte	0x8
 10074 2a1f 7A       		.byte	0x7a
 10075 2a20 2F2A0000 		.4byte	0x2a2f
 10076 2a24 33       		.uleb128 0x33
 10077 2a25 AD000000 		.4byte	0xad
 10078 2a29 33       		.uleb128 0x33
 10079 2a2a B9000000 		.4byte	0xb9
 10080 2a2e 00       		.byte	0
 10081 2a2f 36       		.uleb128 0x36
 10082 2a30 9F120000 		.4byte	.LASF260
 10083 2a34 08       		.byte	0x8
 10084 2a35 77       		.byte	0x77
 10085 2a36 402A0000 		.4byte	0x2a40
 10086 2a3a 33       		.uleb128 0x33
 10087 2a3b AD000000 		.4byte	0xad
 10088 2a3f 00       		.byte	0
 10089 2a40 38       		.uleb128 0x38
 10090 2a41 E0020000 		.4byte	.LASF261
 10091 2a45 08       		.byte	0x8
 10092 2a46 71       		.byte	0x71
 10093 2a47 00       		.byte	0
 10094              		.section	.debug_abbrev,"",%progbits
 10095              	.Ldebug_abbrev0:
 10096 0000 01       		.uleb128 0x1
 10097 0001 11       		.uleb128 0x11
 10098 0002 01       		.byte	0x1
 10099 0003 25       		.uleb128 0x25
 10100 0004 0E       		.uleb128 0xe
 10101 0005 13       		.uleb128 0x13
 10102 0006 0B       		.uleb128 0xb
 10103 0007 03       		.uleb128 0x3
 10104 0008 0E       		.uleb128 0xe
 10105 0009 1B       		.uleb128 0x1b
 10106 000a 0E       		.uleb128 0xe
 10107 000b 55       		.uleb128 0x55
 10108 000c 17       		.uleb128 0x17
 10109 000d 11       		.uleb128 0x11
 10110 000e 01       		.uleb128 0x1
 10111 000f 10       		.uleb128 0x10
 10112 0010 17       		.uleb128 0x17
 10113 0011 00       		.byte	0
 10114 0012 00       		.byte	0
 10115 0013 02       		.uleb128 0x2
 10116 0014 24       		.uleb128 0x24
 10117 0015 00       		.byte	0
 10118 0016 0B       		.uleb128 0xb
 10119 0017 0B       		.uleb128 0xb
 10120 0018 3E       		.uleb128 0x3e
 10121 0019 0B       		.uleb128 0xb
 10122 001a 03       		.uleb128 0x3
 10123 001b 0E       		.uleb128 0xe
 10124 001c 00       		.byte	0
 10125 001d 00       		.byte	0
 10126 001e 03       		.uleb128 0x3
 10127 001f 16       		.uleb128 0x16
 10128 0020 00       		.byte	0
 10129 0021 03       		.uleb128 0x3
ARM GAS  C:\Users\Administrator\AppData\Local\Temp\ccX9Bf8z.s 			page 226


 10130 0022 0E       		.uleb128 0xe
 10131 0023 3A       		.uleb128 0x3a
 10132 0024 0B       		.uleb128 0xb
 10133 0025 3B       		.uleb128 0x3b
 10134 0026 0B       		.uleb128 0xb
 10135 0027 49       		.uleb128 0x49
 10136 0028 13       		.uleb128 0x13
 10137 0029 00       		.byte	0
 10138 002a 00       		.byte	0
 10139 002b 04       		.uleb128 0x4
 10140 002c 24       		.uleb128 0x24
 10141 002d 00       		.byte	0
 10142 002e 0B       		.uleb128 0xb
 10143 002f 0B       		.uleb128 0xb
 10144 0030 3E       		.uleb128 0x3e
 10145 0031 0B       		.uleb128 0xb
 10146 0032 03       		.uleb128 0x3
 10147 0033 08       		.uleb128 0x8
 10148 0034 00       		.byte	0
 10149 0035 00       		.byte	0
 10150 0036 05       		.uleb128 0x5
 10151 0037 16       		.uleb128 0x16
 10152 0038 00       		.byte	0
 10153 0039 03       		.uleb128 0x3
 10154 003a 0E       		.uleb128 0xe
 10155 003b 3A       		.uleb128 0x3a
 10156 003c 0B       		.uleb128 0xb
 10157 003d 3B       		.uleb128 0x3b
 10158 003e 05       		.uleb128 0x5
 10159 003f 49       		.uleb128 0x49
 10160 0040 13       		.uleb128 0x13
 10161 0041 00       		.byte	0
 10162 0042 00       		.byte	0
 10163 0043 06       		.uleb128 0x6
 10164 0044 35       		.uleb128 0x35
 10165 0045 00       		.byte	0
 10166 0046 49       		.uleb128 0x49
 10167 0047 13       		.uleb128 0x13
 10168 0048 00       		.byte	0
 10169 0049 00       		.byte	0
 10170 004a 07       		.uleb128 0x7
 10171 004b 0F       		.uleb128 0xf
 10172 004c 00       		.byte	0
 10173 004d 0B       		.uleb128 0xb
 10174 004e 0B       		.uleb128 0xb
 10175 004f 00       		.byte	0
 10176 0050 00       		.byte	0
 10177 0051 08       		.uleb128 0x8
 10178 0052 0F       		.uleb128 0xf
 10179 0053 00       		.byte	0
 10180 0054 0B       		.uleb128 0xb
 10181 0055 0B       		.uleb128 0xb
 10182 0056 49       		.uleb128 0x49
 10183 0057 13       		.uleb128 0x13
 10184 0058 00       		.byte	0
 10185 0059 00       		.byte	0
 10186 005a 09       		.uleb128 0x9
ARM GAS  C:\Users\Administrator\AppData\Local\Temp\ccX9Bf8z.s 			page 227


 10187 005b 26       		.uleb128 0x26
 10188 005c 00       		.byte	0
 10189 005d 49       		.uleb128 0x49
 10190 005e 13       		.uleb128 0x13
 10191 005f 00       		.byte	0
 10192 0060 00       		.byte	0
 10193 0061 0A       		.uleb128 0xa
 10194 0062 01       		.uleb128 0x1
 10195 0063 01       		.byte	0x1
 10196 0064 49       		.uleb128 0x49
 10197 0065 13       		.uleb128 0x13
 10198 0066 01       		.uleb128 0x1
 10199 0067 13       		.uleb128 0x13
 10200 0068 00       		.byte	0
 10201 0069 00       		.byte	0
 10202 006a 0B       		.uleb128 0xb
 10203 006b 21       		.uleb128 0x21
 10204 006c 00       		.byte	0
 10205 006d 49       		.uleb128 0x49
 10206 006e 13       		.uleb128 0x13
 10207 006f 2F       		.uleb128 0x2f
 10208 0070 0B       		.uleb128 0xb
 10209 0071 00       		.byte	0
 10210 0072 00       		.byte	0
 10211 0073 0C       		.uleb128 0xc
 10212 0074 04       		.uleb128 0x4
 10213 0075 01       		.byte	0x1
 10214 0076 0B       		.uleb128 0xb
 10215 0077 0B       		.uleb128 0xb
 10216 0078 3A       		.uleb128 0x3a
 10217 0079 0B       		.uleb128 0xb
 10218 007a 3B       		.uleb128 0x3b
 10219 007b 05       		.uleb128 0x5
 10220 007c 01       		.uleb128 0x1
 10221 007d 13       		.uleb128 0x13
 10222 007e 00       		.byte	0
 10223 007f 00       		.byte	0
 10224 0080 0D       		.uleb128 0xd
 10225 0081 28       		.uleb128 0x28
 10226 0082 00       		.byte	0
 10227 0083 03       		.uleb128 0x3
 10228 0084 0E       		.uleb128 0xe
 10229 0085 1C       		.uleb128 0x1c
 10230 0086 0D       		.uleb128 0xd
 10231 0087 00       		.byte	0
 10232 0088 00       		.byte	0
 10233 0089 0E       		.uleb128 0xe
 10234 008a 13       		.uleb128 0x13
 10235 008b 01       		.byte	0x1
 10236 008c 03       		.uleb128 0x3
 10237 008d 0E       		.uleb128 0xe
 10238 008e 0B       		.uleb128 0xb
 10239 008f 0B       		.uleb128 0xb
 10240 0090 3A       		.uleb128 0x3a
 10241 0091 0B       		.uleb128 0xb
 10242 0092 3B       		.uleb128 0x3b
 10243 0093 0B       		.uleb128 0xb
ARM GAS  C:\Users\Administrator\AppData\Local\Temp\ccX9Bf8z.s 			page 228


 10244 0094 01       		.uleb128 0x1
 10245 0095 13       		.uleb128 0x13
 10246 0096 00       		.byte	0
 10247 0097 00       		.byte	0
 10248 0098 0F       		.uleb128 0xf
 10249 0099 0D       		.uleb128 0xd
 10250 009a 00       		.byte	0
 10251 009b 03       		.uleb128 0x3
 10252 009c 0E       		.uleb128 0xe
 10253 009d 3A       		.uleb128 0x3a
 10254 009e 0B       		.uleb128 0xb
 10255 009f 3B       		.uleb128 0x3b
 10256 00a0 0B       		.uleb128 0xb
 10257 00a1 49       		.uleb128 0x49
 10258 00a2 13       		.uleb128 0x13
 10259 00a3 38       		.uleb128 0x38
 10260 00a4 0B       		.uleb128 0xb
 10261 00a5 00       		.byte	0
 10262 00a6 00       		.byte	0
 10263 00a7 10       		.uleb128 0x10
 10264 00a8 2E       		.uleb128 0x2e
 10265 00a9 01       		.byte	0x1
 10266 00aa 03       		.uleb128 0x3
 10267 00ab 0E       		.uleb128 0xe
 10268 00ac 3A       		.uleb128 0x3a
 10269 00ad 0B       		.uleb128 0xb
 10270 00ae 3B       		.uleb128 0x3b
 10271 00af 05       		.uleb128 0x5
 10272 00b0 27       		.uleb128 0x27
 10273 00b1 19       		.uleb128 0x19
 10274 00b2 20       		.uleb128 0x20
 10275 00b3 0B       		.uleb128 0xb
 10276 00b4 01       		.uleb128 0x1
 10277 00b5 13       		.uleb128 0x13
 10278 00b6 00       		.byte	0
 10279 00b7 00       		.byte	0
 10280 00b8 11       		.uleb128 0x11
 10281 00b9 05       		.uleb128 0x5
 10282 00ba 00       		.byte	0
 10283 00bb 03       		.uleb128 0x3
 10284 00bc 0E       		.uleb128 0xe
 10285 00bd 3A       		.uleb128 0x3a
 10286 00be 0B       		.uleb128 0xb
 10287 00bf 3B       		.uleb128 0x3b
 10288 00c0 05       		.uleb128 0x5
 10289 00c1 49       		.uleb128 0x49
 10290 00c2 13       		.uleb128 0x13
 10291 00c3 00       		.byte	0
 10292 00c4 00       		.byte	0
 10293 00c5 12       		.uleb128 0x12
 10294 00c6 34       		.uleb128 0x34
 10295 00c7 00       		.byte	0
 10296 00c8 03       		.uleb128 0x3
 10297 00c9 0E       		.uleb128 0xe
 10298 00ca 3A       		.uleb128 0x3a
 10299 00cb 0B       		.uleb128 0xb
 10300 00cc 3B       		.uleb128 0x3b
ARM GAS  C:\Users\Administrator\AppData\Local\Temp\ccX9Bf8z.s 			page 229


 10301 00cd 05       		.uleb128 0x5
 10302 00ce 49       		.uleb128 0x49
 10303 00cf 13       		.uleb128 0x13
 10304 00d0 00       		.byte	0
 10305 00d1 00       		.byte	0
 10306 00d2 13       		.uleb128 0x13
 10307 00d3 2E       		.uleb128 0x2e
 10308 00d4 01       		.byte	0x1
 10309 00d5 03       		.uleb128 0x3
 10310 00d6 0E       		.uleb128 0xe
 10311 00d7 3A       		.uleb128 0x3a
 10312 00d8 0B       		.uleb128 0xb
 10313 00d9 3B       		.uleb128 0x3b
 10314 00da 05       		.uleb128 0x5
 10315 00db 27       		.uleb128 0x27
 10316 00dc 19       		.uleb128 0x19
 10317 00dd 11       		.uleb128 0x11
 10318 00de 01       		.uleb128 0x1
 10319 00df 12       		.uleb128 0x12
 10320 00e0 06       		.uleb128 0x6
 10321 00e1 40       		.uleb128 0x40
 10322 00e2 18       		.uleb128 0x18
 10323 00e3 9642     		.uleb128 0x2116
 10324 00e5 19       		.uleb128 0x19
 10325 00e6 01       		.uleb128 0x1
 10326 00e7 13       		.uleb128 0x13
 10327 00e8 00       		.byte	0
 10328 00e9 00       		.byte	0
 10329 00ea 14       		.uleb128 0x14
 10330 00eb 05       		.uleb128 0x5
 10331 00ec 00       		.byte	0
 10332 00ed 03       		.uleb128 0x3
 10333 00ee 0E       		.uleb128 0xe
 10334 00ef 3A       		.uleb128 0x3a
 10335 00f0 0B       		.uleb128 0xb
 10336 00f1 3B       		.uleb128 0x3b
 10337 00f2 05       		.uleb128 0x5
 10338 00f3 49       		.uleb128 0x49
 10339 00f4 13       		.uleb128 0x13
 10340 00f5 02       		.uleb128 0x2
 10341 00f6 17       		.uleb128 0x17
 10342 00f7 00       		.byte	0
 10343 00f8 00       		.byte	0
 10344 00f9 15       		.uleb128 0x15
 10345 00fa 34       		.uleb128 0x34
 10346 00fb 00       		.byte	0
 10347 00fc 03       		.uleb128 0x3
 10348 00fd 0E       		.uleb128 0xe
 10349 00fe 3A       		.uleb128 0x3a
 10350 00ff 0B       		.uleb128 0xb
 10351 0100 3B       		.uleb128 0x3b
 10352 0101 05       		.uleb128 0x5
 10353 0102 49       		.uleb128 0x49
 10354 0103 13       		.uleb128 0x13
 10355 0104 02       		.uleb128 0x2
 10356 0105 17       		.uleb128 0x17
 10357 0106 00       		.byte	0
ARM GAS  C:\Users\Administrator\AppData\Local\Temp\ccX9Bf8z.s 			page 230


 10358 0107 00       		.byte	0
 10359 0108 16       		.uleb128 0x16
 10360 0109 898201   		.uleb128 0x4109
 10361 010c 01       		.byte	0x1
 10362 010d 11       		.uleb128 0x11
 10363 010e 01       		.uleb128 0x1
 10364 010f 31       		.uleb128 0x31
 10365 0110 13       		.uleb128 0x13
 10366 0111 01       		.uleb128 0x1
 10367 0112 13       		.uleb128 0x13
 10368 0113 00       		.byte	0
 10369 0114 00       		.byte	0
 10370 0115 17       		.uleb128 0x17
 10371 0116 8A8201   		.uleb128 0x410a
 10372 0119 00       		.byte	0
 10373 011a 02       		.uleb128 0x2
 10374 011b 18       		.uleb128 0x18
 10375 011c 9142     		.uleb128 0x2111
 10376 011e 18       		.uleb128 0x18
 10377 011f 00       		.byte	0
 10378 0120 00       		.byte	0
 10379 0121 18       		.uleb128 0x18
 10380 0122 898201   		.uleb128 0x4109
 10381 0125 01       		.byte	0x1
 10382 0126 11       		.uleb128 0x11
 10383 0127 01       		.uleb128 0x1
 10384 0128 31       		.uleb128 0x31
 10385 0129 13       		.uleb128 0x13
 10386 012a 00       		.byte	0
 10387 012b 00       		.byte	0
 10388 012c 19       		.uleb128 0x19
 10389 012d 2E       		.uleb128 0x2e
 10390 012e 01       		.byte	0x1
 10391 012f 03       		.uleb128 0x3
 10392 0130 0E       		.uleb128 0xe
 10393 0131 3A       		.uleb128 0x3a
 10394 0132 0B       		.uleb128 0xb
 10395 0133 3B       		.uleb128 0x3b
 10396 0134 05       		.uleb128 0x5
 10397 0135 27       		.uleb128 0x27
 10398 0136 19       		.uleb128 0x19
 10399 0137 11       		.uleb128 0x11
 10400 0138 01       		.uleb128 0x1
 10401 0139 12       		.uleb128 0x12
 10402 013a 06       		.uleb128 0x6
 10403 013b 40       		.uleb128 0x40
 10404 013c 18       		.uleb128 0x18
 10405 013d 9742     		.uleb128 0x2117
 10406 013f 19       		.uleb128 0x19
 10407 0140 01       		.uleb128 0x1
 10408 0141 13       		.uleb128 0x13
 10409 0142 00       		.byte	0
 10410 0143 00       		.byte	0
 10411 0144 1A       		.uleb128 0x1a
 10412 0145 34       		.uleb128 0x34
 10413 0146 00       		.byte	0
 10414 0147 03       		.uleb128 0x3
ARM GAS  C:\Users\Administrator\AppData\Local\Temp\ccX9Bf8z.s 			page 231


 10415 0148 0E       		.uleb128 0xe
 10416 0149 3A       		.uleb128 0x3a
 10417 014a 0B       		.uleb128 0xb
 10418 014b 3B       		.uleb128 0x3b
 10419 014c 05       		.uleb128 0x5
 10420 014d 49       		.uleb128 0x49
 10421 014e 13       		.uleb128 0x13
 10422 014f 02       		.uleb128 0x2
 10423 0150 18       		.uleb128 0x18
 10424 0151 00       		.byte	0
 10425 0152 00       		.byte	0
 10426 0153 1B       		.uleb128 0x1b
 10427 0154 898201   		.uleb128 0x4109
 10428 0157 00       		.byte	0
 10429 0158 11       		.uleb128 0x11
 10430 0159 01       		.uleb128 0x1
 10431 015a 31       		.uleb128 0x31
 10432 015b 13       		.uleb128 0x13
 10433 015c 00       		.byte	0
 10434 015d 00       		.byte	0
 10435 015e 1C       		.uleb128 0x1c
 10436 015f 34       		.uleb128 0x34
 10437 0160 00       		.byte	0
 10438 0161 03       		.uleb128 0x3
 10439 0162 08       		.uleb128 0x8
 10440 0163 3A       		.uleb128 0x3a
 10441 0164 0B       		.uleb128 0xb
 10442 0165 3B       		.uleb128 0x3b
 10443 0166 05       		.uleb128 0x5
 10444 0167 49       		.uleb128 0x49
 10445 0168 13       		.uleb128 0x13
 10446 0169 00       		.byte	0
 10447 016a 00       		.byte	0
 10448 016b 1D       		.uleb128 0x1d
 10449 016c 2E       		.uleb128 0x2e
 10450 016d 01       		.byte	0x1
 10451 016e 3F       		.uleb128 0x3f
 10452 016f 19       		.uleb128 0x19
 10453 0170 03       		.uleb128 0x3
 10454 0171 0E       		.uleb128 0xe
 10455 0172 3A       		.uleb128 0x3a
 10456 0173 0B       		.uleb128 0xb
 10457 0174 3B       		.uleb128 0x3b
 10458 0175 0B       		.uleb128 0xb
 10459 0176 27       		.uleb128 0x27
 10460 0177 19       		.uleb128 0x19
 10461 0178 49       		.uleb128 0x49
 10462 0179 13       		.uleb128 0x13
 10463 017a 11       		.uleb128 0x11
 10464 017b 01       		.uleb128 0x1
 10465 017c 12       		.uleb128 0x12
 10466 017d 06       		.uleb128 0x6
 10467 017e 40       		.uleb128 0x40
 10468 017f 18       		.uleb128 0x18
 10469 0180 9742     		.uleb128 0x2117
 10470 0182 19       		.uleb128 0x19
 10471 0183 01       		.uleb128 0x1
ARM GAS  C:\Users\Administrator\AppData\Local\Temp\ccX9Bf8z.s 			page 232


 10472 0184 13       		.uleb128 0x13
 10473 0185 00       		.byte	0
 10474 0186 00       		.byte	0
 10475 0187 1E       		.uleb128 0x1e
 10476 0188 05       		.uleb128 0x5
 10477 0189 00       		.byte	0
 10478 018a 03       		.uleb128 0x3
 10479 018b 0E       		.uleb128 0xe
 10480 018c 3A       		.uleb128 0x3a
 10481 018d 0B       		.uleb128 0xb
 10482 018e 3B       		.uleb128 0x3b
 10483 018f 0B       		.uleb128 0xb
 10484 0190 49       		.uleb128 0x49
 10485 0191 13       		.uleb128 0x13
 10486 0192 02       		.uleb128 0x2
 10487 0193 17       		.uleb128 0x17
 10488 0194 00       		.byte	0
 10489 0195 00       		.byte	0
 10490 0196 1F       		.uleb128 0x1f
 10491 0197 34       		.uleb128 0x34
 10492 0198 00       		.byte	0
 10493 0199 03       		.uleb128 0x3
 10494 019a 0E       		.uleb128 0xe
 10495 019b 3A       		.uleb128 0x3a
 10496 019c 0B       		.uleb128 0xb
 10497 019d 3B       		.uleb128 0x3b
 10498 019e 0B       		.uleb128 0xb
 10499 019f 49       		.uleb128 0x49
 10500 01a0 13       		.uleb128 0x13
 10501 01a1 02       		.uleb128 0x2
 10502 01a2 18       		.uleb128 0x18
 10503 01a3 00       		.byte	0
 10504 01a4 00       		.byte	0
 10505 01a5 20       		.uleb128 0x20
 10506 01a6 2E       		.uleb128 0x2e
 10507 01a7 01       		.byte	0x1
 10508 01a8 3F       		.uleb128 0x3f
 10509 01a9 19       		.uleb128 0x19
 10510 01aa 03       		.uleb128 0x3
 10511 01ab 0E       		.uleb128 0xe
 10512 01ac 3A       		.uleb128 0x3a
 10513 01ad 0B       		.uleb128 0xb
 10514 01ae 3B       		.uleb128 0x3b
 10515 01af 0B       		.uleb128 0xb
 10516 01b0 27       		.uleb128 0x27
 10517 01b1 19       		.uleb128 0x19
 10518 01b2 11       		.uleb128 0x11
 10519 01b3 01       		.uleb128 0x1
 10520 01b4 12       		.uleb128 0x12
 10521 01b5 06       		.uleb128 0x6
 10522 01b6 40       		.uleb128 0x40
 10523 01b7 18       		.uleb128 0x18
 10524 01b8 9742     		.uleb128 0x2117
 10525 01ba 19       		.uleb128 0x19
 10526 01bb 01       		.uleb128 0x1
 10527 01bc 13       		.uleb128 0x13
 10528 01bd 00       		.byte	0
ARM GAS  C:\Users\Administrator\AppData\Local\Temp\ccX9Bf8z.s 			page 233


 10529 01be 00       		.byte	0
 10530 01bf 21       		.uleb128 0x21
 10531 01c0 34       		.uleb128 0x34
 10532 01c1 00       		.byte	0
 10533 01c2 03       		.uleb128 0x3
 10534 01c3 0E       		.uleb128 0xe
 10535 01c4 3A       		.uleb128 0x3a
 10536 01c5 0B       		.uleb128 0xb
 10537 01c6 3B       		.uleb128 0x3b
 10538 01c7 0B       		.uleb128 0xb
 10539 01c8 49       		.uleb128 0x49
 10540 01c9 13       		.uleb128 0x13
 10541 01ca 02       		.uleb128 0x2
 10542 01cb 17       		.uleb128 0x17
 10543 01cc 00       		.byte	0
 10544 01cd 00       		.byte	0
 10545 01ce 22       		.uleb128 0x22
 10546 01cf 34       		.uleb128 0x34
 10547 01d0 00       		.byte	0
 10548 01d1 03       		.uleb128 0x3
 10549 01d2 08       		.uleb128 0x8
 10550 01d3 3A       		.uleb128 0x3a
 10551 01d4 0B       		.uleb128 0xb
 10552 01d5 3B       		.uleb128 0x3b
 10553 01d6 0B       		.uleb128 0xb
 10554 01d7 49       		.uleb128 0x49
 10555 01d8 13       		.uleb128 0x13
 10556 01d9 02       		.uleb128 0x2
 10557 01da 17       		.uleb128 0x17
 10558 01db 00       		.byte	0
 10559 01dc 00       		.byte	0
 10560 01dd 23       		.uleb128 0x23
 10561 01de 34       		.uleb128 0x34
 10562 01df 00       		.byte	0
 10563 01e0 03       		.uleb128 0x3
 10564 01e1 0E       		.uleb128 0xe
 10565 01e2 3A       		.uleb128 0x3a
 10566 01e3 0B       		.uleb128 0xb
 10567 01e4 3B       		.uleb128 0x3b
 10568 01e5 0B       		.uleb128 0xb
 10569 01e6 49       		.uleb128 0x49
 10570 01e7 13       		.uleb128 0x13
 10571 01e8 1C       		.uleb128 0x1c
 10572 01e9 0B       		.uleb128 0xb
 10573 01ea 00       		.byte	0
 10574 01eb 00       		.byte	0
 10575 01ec 24       		.uleb128 0x24
 10576 01ed 2E       		.uleb128 0x2e
 10577 01ee 01       		.byte	0x1
 10578 01ef 3F       		.uleb128 0x3f
 10579 01f0 19       		.uleb128 0x19
 10580 01f1 03       		.uleb128 0x3
 10581 01f2 0E       		.uleb128 0xe
 10582 01f3 3A       		.uleb128 0x3a
 10583 01f4 0B       		.uleb128 0xb
 10584 01f5 3B       		.uleb128 0x3b
 10585 01f6 05       		.uleb128 0x5
ARM GAS  C:\Users\Administrator\AppData\Local\Temp\ccX9Bf8z.s 			page 234


 10586 01f7 27       		.uleb128 0x27
 10587 01f8 19       		.uleb128 0x19
 10588 01f9 49       		.uleb128 0x49
 10589 01fa 13       		.uleb128 0x13
 10590 01fb 11       		.uleb128 0x11
 10591 01fc 01       		.uleb128 0x1
 10592 01fd 12       		.uleb128 0x12
 10593 01fe 06       		.uleb128 0x6
 10594 01ff 40       		.uleb128 0x40
 10595 0200 18       		.uleb128 0x18
 10596 0201 9742     		.uleb128 0x2117
 10597 0203 19       		.uleb128 0x19
 10598 0204 01       		.uleb128 0x1
 10599 0205 13       		.uleb128 0x13
 10600 0206 00       		.byte	0
 10601 0207 00       		.byte	0
 10602 0208 25       		.uleb128 0x25
 10603 0209 34       		.uleb128 0x34
 10604 020a 00       		.byte	0
 10605 020b 03       		.uleb128 0x3
 10606 020c 08       		.uleb128 0x8
 10607 020d 3A       		.uleb128 0x3a
 10608 020e 0B       		.uleb128 0xb
 10609 020f 3B       		.uleb128 0x3b
 10610 0210 05       		.uleb128 0x5
 10611 0211 49       		.uleb128 0x49
 10612 0212 13       		.uleb128 0x13
 10613 0213 02       		.uleb128 0x2
 10614 0214 17       		.uleb128 0x17
 10615 0215 00       		.byte	0
 10616 0216 00       		.byte	0
 10617 0217 26       		.uleb128 0x26
 10618 0218 34       		.uleb128 0x34
 10619 0219 00       		.byte	0
 10620 021a 03       		.uleb128 0x3
 10621 021b 0E       		.uleb128 0xe
 10622 021c 3A       		.uleb128 0x3a
 10623 021d 0B       		.uleb128 0xb
 10624 021e 3B       		.uleb128 0x3b
 10625 021f 05       		.uleb128 0x5
 10626 0220 49       		.uleb128 0x49
 10627 0221 13       		.uleb128 0x13
 10628 0222 1C       		.uleb128 0x1c
 10629 0223 0B       		.uleb128 0xb
 10630 0224 00       		.byte	0
 10631 0225 00       		.byte	0
 10632 0226 27       		.uleb128 0x27
 10633 0227 21       		.uleb128 0x21
 10634 0228 00       		.byte	0
 10635 0229 49       		.uleb128 0x49
 10636 022a 13       		.uleb128 0x13
 10637 022b 2F       		.uleb128 0x2f
 10638 022c 05       		.uleb128 0x5
 10639 022d 00       		.byte	0
 10640 022e 00       		.byte	0
 10641 022f 28       		.uleb128 0x28
 10642 0230 2E       		.uleb128 0x2e
ARM GAS  C:\Users\Administrator\AppData\Local\Temp\ccX9Bf8z.s 			page 235


 10643 0231 01       		.byte	0x1
 10644 0232 3F       		.uleb128 0x3f
 10645 0233 19       		.uleb128 0x19
 10646 0234 03       		.uleb128 0x3
 10647 0235 0E       		.uleb128 0xe
 10648 0236 3A       		.uleb128 0x3a
 10649 0237 0B       		.uleb128 0xb
 10650 0238 3B       		.uleb128 0x3b
 10651 0239 05       		.uleb128 0x5
 10652 023a 27       		.uleb128 0x27
 10653 023b 19       		.uleb128 0x19
 10654 023c 11       		.uleb128 0x11
 10655 023d 01       		.uleb128 0x1
 10656 023e 12       		.uleb128 0x12
 10657 023f 06       		.uleb128 0x6
 10658 0240 40       		.uleb128 0x40
 10659 0241 18       		.uleb128 0x18
 10660 0242 9742     		.uleb128 0x2117
 10661 0244 19       		.uleb128 0x19
 10662 0245 01       		.uleb128 0x1
 10663 0246 13       		.uleb128 0x13
 10664 0247 00       		.byte	0
 10665 0248 00       		.byte	0
 10666 0249 29       		.uleb128 0x29
 10667 024a 34       		.uleb128 0x34
 10668 024b 00       		.byte	0
 10669 024c 03       		.uleb128 0x3
 10670 024d 08       		.uleb128 0x8
 10671 024e 3A       		.uleb128 0x3a
 10672 024f 0B       		.uleb128 0xb
 10673 0250 3B       		.uleb128 0x3b
 10674 0251 05       		.uleb128 0x5
 10675 0252 49       		.uleb128 0x49
 10676 0253 13       		.uleb128 0x13
 10677 0254 02       		.uleb128 0x2
 10678 0255 18       		.uleb128 0x18
 10679 0256 00       		.byte	0
 10680 0257 00       		.byte	0
 10681 0258 2A       		.uleb128 0x2a
 10682 0259 1D       		.uleb128 0x1d
 10683 025a 01       		.byte	0x1
 10684 025b 31       		.uleb128 0x31
 10685 025c 13       		.uleb128 0x13
 10686 025d 11       		.uleb128 0x11
 10687 025e 01       		.uleb128 0x1
 10688 025f 12       		.uleb128 0x12
 10689 0260 06       		.uleb128 0x6
 10690 0261 58       		.uleb128 0x58
 10691 0262 0B       		.uleb128 0xb
 10692 0263 59       		.uleb128 0x59
 10693 0264 05       		.uleb128 0x5
 10694 0265 01       		.uleb128 0x1
 10695 0266 13       		.uleb128 0x13
 10696 0267 00       		.byte	0
 10697 0268 00       		.byte	0
 10698 0269 2B       		.uleb128 0x2b
 10699 026a 05       		.uleb128 0x5
ARM GAS  C:\Users\Administrator\AppData\Local\Temp\ccX9Bf8z.s 			page 236


 10700 026b 00       		.byte	0
 10701 026c 31       		.uleb128 0x31
 10702 026d 13       		.uleb128 0x13
 10703 026e 02       		.uleb128 0x2
 10704 026f 17       		.uleb128 0x17
 10705 0270 00       		.byte	0
 10706 0271 00       		.byte	0
 10707 0272 2C       		.uleb128 0x2c
 10708 0273 0B       		.uleb128 0xb
 10709 0274 01       		.byte	0x1
 10710 0275 11       		.uleb128 0x11
 10711 0276 01       		.uleb128 0x1
 10712 0277 12       		.uleb128 0x12
 10713 0278 06       		.uleb128 0x6
 10714 0279 00       		.byte	0
 10715 027a 00       		.byte	0
 10716 027b 2D       		.uleb128 0x2d
 10717 027c 34       		.uleb128 0x34
 10718 027d 00       		.byte	0
 10719 027e 31       		.uleb128 0x31
 10720 027f 13       		.uleb128 0x13
 10721 0280 00       		.byte	0
 10722 0281 00       		.byte	0
 10723 0282 2E       		.uleb128 0x2e
 10724 0283 34       		.uleb128 0x34
 10725 0284 00       		.byte	0
 10726 0285 31       		.uleb128 0x31
 10727 0286 13       		.uleb128 0x13
 10728 0287 02       		.uleb128 0x2
 10729 0288 17       		.uleb128 0x17
 10730 0289 00       		.byte	0
 10731 028a 00       		.byte	0
 10732 028b 2F       		.uleb128 0x2f
 10733 028c 34       		.uleb128 0x34
 10734 028d 00       		.byte	0
 10735 028e 31       		.uleb128 0x31
 10736 028f 13       		.uleb128 0x13
 10737 0290 02       		.uleb128 0x2
 10738 0291 18       		.uleb128 0x18
 10739 0292 00       		.byte	0
 10740 0293 00       		.byte	0
 10741 0294 30       		.uleb128 0x30
 10742 0295 34       		.uleb128 0x34
 10743 0296 00       		.byte	0
 10744 0297 03       		.uleb128 0x3
 10745 0298 0E       		.uleb128 0xe
 10746 0299 3A       		.uleb128 0x3a
 10747 029a 0B       		.uleb128 0xb
 10748 029b 3B       		.uleb128 0x3b
 10749 029c 0B       		.uleb128 0xb
 10750 029d 49       		.uleb128 0x49
 10751 029e 13       		.uleb128 0x13
 10752 029f 3F       		.uleb128 0x3f
 10753 02a0 19       		.uleb128 0x19
 10754 02a1 3C       		.uleb128 0x3c
 10755 02a2 19       		.uleb128 0x19
 10756 02a3 00       		.byte	0
ARM GAS  C:\Users\Administrator\AppData\Local\Temp\ccX9Bf8z.s 			page 237


 10757 02a4 00       		.byte	0
 10758 02a5 31       		.uleb128 0x31
 10759 02a6 34       		.uleb128 0x34
 10760 02a7 00       		.byte	0
 10761 02a8 03       		.uleb128 0x3
 10762 02a9 0E       		.uleb128 0xe
 10763 02aa 3A       		.uleb128 0x3a
 10764 02ab 0B       		.uleb128 0xb
 10765 02ac 3B       		.uleb128 0x3b
 10766 02ad 0B       		.uleb128 0xb
 10767 02ae 49       		.uleb128 0x49
 10768 02af 13       		.uleb128 0x13
 10769 02b0 3F       		.uleb128 0x3f
 10770 02b1 19       		.uleb128 0x19
 10771 02b2 02       		.uleb128 0x2
 10772 02b3 18       		.uleb128 0x18
 10773 02b4 00       		.byte	0
 10774 02b5 00       		.byte	0
 10775 02b6 32       		.uleb128 0x32
 10776 02b7 2E       		.uleb128 0x2e
 10777 02b8 01       		.byte	0x1
 10778 02b9 3F       		.uleb128 0x3f
 10779 02ba 19       		.uleb128 0x19
 10780 02bb 03       		.uleb128 0x3
 10781 02bc 0E       		.uleb128 0xe
 10782 02bd 27       		.uleb128 0x27
 10783 02be 19       		.uleb128 0x19
 10784 02bf 49       		.uleb128 0x49
 10785 02c0 13       		.uleb128 0x13
 10786 02c1 34       		.uleb128 0x34
 10787 02c2 19       		.uleb128 0x19
 10788 02c3 3C       		.uleb128 0x3c
 10789 02c4 19       		.uleb128 0x19
 10790 02c5 01       		.uleb128 0x1
 10791 02c6 13       		.uleb128 0x13
 10792 02c7 00       		.byte	0
 10793 02c8 00       		.byte	0
 10794 02c9 33       		.uleb128 0x33
 10795 02ca 05       		.uleb128 0x5
 10796 02cb 00       		.byte	0
 10797 02cc 49       		.uleb128 0x49
 10798 02cd 13       		.uleb128 0x13
 10799 02ce 00       		.byte	0
 10800 02cf 00       		.byte	0
 10801 02d0 34       		.uleb128 0x34
 10802 02d1 26       		.uleb128 0x26
 10803 02d2 00       		.byte	0
 10804 02d3 00       		.byte	0
 10805 02d4 00       		.byte	0
 10806 02d5 35       		.uleb128 0x35
 10807 02d6 2E       		.uleb128 0x2e
 10808 02d7 01       		.byte	0x1
 10809 02d8 3F       		.uleb128 0x3f
 10810 02d9 19       		.uleb128 0x19
 10811 02da 03       		.uleb128 0x3
 10812 02db 0E       		.uleb128 0xe
 10813 02dc 3A       		.uleb128 0x3a
ARM GAS  C:\Users\Administrator\AppData\Local\Temp\ccX9Bf8z.s 			page 238


 10814 02dd 0B       		.uleb128 0xb
 10815 02de 3B       		.uleb128 0x3b
 10816 02df 0B       		.uleb128 0xb
 10817 02e0 27       		.uleb128 0x27
 10818 02e1 19       		.uleb128 0x19
 10819 02e2 49       		.uleb128 0x49
 10820 02e3 13       		.uleb128 0x13
 10821 02e4 3C       		.uleb128 0x3c
 10822 02e5 19       		.uleb128 0x19
 10823 02e6 01       		.uleb128 0x1
 10824 02e7 13       		.uleb128 0x13
 10825 02e8 00       		.byte	0
 10826 02e9 00       		.byte	0
 10827 02ea 36       		.uleb128 0x36
 10828 02eb 2E       		.uleb128 0x2e
 10829 02ec 01       		.byte	0x1
 10830 02ed 3F       		.uleb128 0x3f
 10831 02ee 19       		.uleb128 0x19
 10832 02ef 03       		.uleb128 0x3
 10833 02f0 0E       		.uleb128 0xe
 10834 02f1 3A       		.uleb128 0x3a
 10835 02f2 0B       		.uleb128 0xb
 10836 02f3 3B       		.uleb128 0x3b
 10837 02f4 0B       		.uleb128 0xb
 10838 02f5 27       		.uleb128 0x27
 10839 02f6 19       		.uleb128 0x19
 10840 02f7 3C       		.uleb128 0x3c
 10841 02f8 19       		.uleb128 0x19
 10842 02f9 01       		.uleb128 0x1
 10843 02fa 13       		.uleb128 0x13
 10844 02fb 00       		.byte	0
 10845 02fc 00       		.byte	0
 10846 02fd 37       		.uleb128 0x37
 10847 02fe 2E       		.uleb128 0x2e
 10848 02ff 00       		.byte	0
 10849 0300 3F       		.uleb128 0x3f
 10850 0301 19       		.uleb128 0x19
 10851 0302 03       		.uleb128 0x3
 10852 0303 0E       		.uleb128 0xe
 10853 0304 3A       		.uleb128 0x3a
 10854 0305 0B       		.uleb128 0xb
 10855 0306 3B       		.uleb128 0x3b
 10856 0307 05       		.uleb128 0x5
 10857 0308 27       		.uleb128 0x27
 10858 0309 19       		.uleb128 0x19
 10859 030a 49       		.uleb128 0x49
 10860 030b 13       		.uleb128 0x13
 10861 030c 3C       		.uleb128 0x3c
 10862 030d 19       		.uleb128 0x19
 10863 030e 00       		.byte	0
 10864 030f 00       		.byte	0
 10865 0310 38       		.uleb128 0x38
 10866 0311 2E       		.uleb128 0x2e
 10867 0312 00       		.byte	0
 10868 0313 3F       		.uleb128 0x3f
 10869 0314 19       		.uleb128 0x19
 10870 0315 03       		.uleb128 0x3
ARM GAS  C:\Users\Administrator\AppData\Local\Temp\ccX9Bf8z.s 			page 239


 10871 0316 0E       		.uleb128 0xe
 10872 0317 3A       		.uleb128 0x3a
 10873 0318 0B       		.uleb128 0xb
 10874 0319 3B       		.uleb128 0x3b
 10875 031a 0B       		.uleb128 0xb
 10876 031b 27       		.uleb128 0x27
 10877 031c 19       		.uleb128 0x19
 10878 031d 3C       		.uleb128 0x3c
 10879 031e 19       		.uleb128 0x19
 10880 031f 00       		.byte	0
 10881 0320 00       		.byte	0
 10882 0321 39       		.uleb128 0x39
 10883 0322 2E       		.uleb128 0x2e
 10884 0323 00       		.byte	0
 10885 0324 3F       		.uleb128 0x3f
 10886 0325 19       		.uleb128 0x19
 10887 0326 03       		.uleb128 0x3
 10888 0327 0E       		.uleb128 0xe
 10889 0328 3A       		.uleb128 0x3a
 10890 0329 0B       		.uleb128 0xb
 10891 032a 3B       		.uleb128 0x3b
 10892 032b 0B       		.uleb128 0xb
 10893 032c 27       		.uleb128 0x27
 10894 032d 19       		.uleb128 0x19
 10895 032e 49       		.uleb128 0x49
 10896 032f 13       		.uleb128 0x13
 10897 0330 3C       		.uleb128 0x3c
 10898 0331 19       		.uleb128 0x19
 10899 0332 00       		.byte	0
 10900 0333 00       		.byte	0
 10901 0334 00       		.byte	0
 10902              		.section	.debug_loc,"",%progbits
 10903              	.Ldebug_loc0:
 10904              	.LLST0:
 10905 0000 00000000 		.4byte	.LVL0
 10906 0004 0C000000 		.4byte	.LVL1
 10907 0008 0100     		.2byte	0x1
 10908 000a 50       		.byte	0x50
 10909 000b 0C000000 		.4byte	.LVL1
 10910 000f 0E000000 		.4byte	.LVL2
 10911 0013 0100     		.2byte	0x1
 10912 0015 51       		.byte	0x51
 10913 0016 0E000000 		.4byte	.LVL2
 10914 001a 1C000000 		.4byte	.LVL5
 10915 001e 0100     		.2byte	0x1
 10916 0020 56       		.byte	0x56
 10917 0021 1C000000 		.4byte	.LVL5
 10918 0025 30000000 		.4byte	.LVL9
 10919 0029 0400     		.2byte	0x4
 10920 002b 76       		.byte	0x76
 10921 002c AA7E     		.sleb128 -214
 10922 002e 9F       		.byte	0x9f
 10923 002f 30000000 		.4byte	.LVL9
 10924 0033 AC000000 		.4byte	.LFE73
 10925 0037 0400     		.2byte	0x4
 10926 0039 F3       		.byte	0xf3
 10927 003a 01       		.uleb128 0x1
ARM GAS  C:\Users\Administrator\AppData\Local\Temp\ccX9Bf8z.s 			page 240


 10928 003b 50       		.byte	0x50
 10929 003c 9F       		.byte	0x9f
 10930 003d 00000000 		.4byte	0
 10931 0041 00000000 		.4byte	0
 10932              	.LLST1:
 10933 0045 00000000 		.4byte	.LVL0
 10934 0049 0C000000 		.4byte	.LVL1
 10935 004d 0300     		.2byte	0x3
 10936 004f 70       		.byte	0x70
 10937 0050 0D       		.sleb128 13
 10938 0051 9F       		.byte	0x9f
 10939 0052 0C000000 		.4byte	.LVL1
 10940 0056 0E000000 		.4byte	.LVL2
 10941 005a 0300     		.2byte	0x3
 10942 005c 71       		.byte	0x71
 10943 005d 0D       		.sleb128 13
 10944 005e 9F       		.byte	0x9f
 10945 005f 0E000000 		.4byte	.LVL2
 10946 0063 11000000 		.4byte	.LVL3-1
 10947 0067 0100     		.2byte	0x1
 10948 0069 51       		.byte	0x51
 10949 006a 11000000 		.4byte	.LVL3-1
 10950 006e 12000000 		.4byte	.LVL3
 10951 0072 0300     		.2byte	0x3
 10952 0074 76       		.byte	0x76
 10953 0075 0D       		.sleb128 13
 10954 0076 9F       		.byte	0x9f
 10955 0077 12000000 		.4byte	.LVL3
 10956 007b 1C000000 		.4byte	.LVL5
 10957 007f 0400     		.2byte	0x4
 10958 0081 76       		.byte	0x76
 10959 0082 D501     		.sleb128 213
 10960 0084 9F       		.byte	0x9f
 10961 0085 1C000000 		.4byte	.LVL5
 10962 0089 30000000 		.4byte	.LVL9
 10963 008d 0300     		.2byte	0x3
 10964 008f 76       		.byte	0x76
 10965 0090 7F       		.sleb128 -1
 10966 0091 9F       		.byte	0x9f
 10967 0092 30000000 		.4byte	.LVL9
 10968 0096 AC000000 		.4byte	.LFE73
 10969 009a 0700     		.2byte	0x7
 10970 009c F3       		.byte	0xf3
 10971 009d 01       		.uleb128 0x1
 10972 009e 50       		.byte	0x50
 10973 009f 23       		.byte	0x23
 10974 00a0 D501     		.uleb128 0xd5
 10975 00a2 9F       		.byte	0x9f
 10976 00a3 00000000 		.4byte	0
 10977 00a7 00000000 		.4byte	0
 10978              	.LLST2:
 10979 00ab 12000000 		.4byte	.LVL3
 10980 00af 18000000 		.4byte	.LVL4
 10981 00b3 0A00     		.2byte	0xa
 10982 00b5 76       		.byte	0x76
 10983 00b6 D501     		.sleb128 213
 10984 00b8 93       		.byte	0x93
ARM GAS  C:\Users\Administrator\AppData\Local\Temp\ccX9Bf8z.s 			page 241


 10985 00b9 01       		.uleb128 0x1
 10986 00ba 76       		.byte	0x76
 10987 00bb D601     		.sleb128 214
 10988 00bd 93       		.byte	0x93
 10989 00be 01       		.uleb128 0x1
 10990 00bf 18000000 		.4byte	.LVL4
 10991 00c3 1C000000 		.4byte	.LVL5
 10992 00c7 0900     		.2byte	0x9
 10993 00c9 73       		.byte	0x73
 10994 00ca 00       		.sleb128 0
 10995 00cb 93       		.byte	0x93
 10996 00cc 01       		.uleb128 0x1
 10997 00cd 76       		.byte	0x76
 10998 00ce D601     		.sleb128 214
 10999 00d0 93       		.byte	0x93
 11000 00d1 01       		.uleb128 0x1
 11001 00d2 1C000000 		.4byte	.LVL5
 11002 00d6 1E000000 		.4byte	.LVL6
 11003 00da 0800     		.2byte	0x8
 11004 00dc 73       		.byte	0x73
 11005 00dd 00       		.sleb128 0
 11006 00de 93       		.byte	0x93
 11007 00df 01       		.uleb128 0x1
 11008 00e0 76       		.byte	0x76
 11009 00e1 00       		.sleb128 0
 11010 00e2 93       		.byte	0x93
 11011 00e3 01       		.uleb128 0x1
 11012 00e4 1E000000 		.4byte	.LVL6
 11013 00e8 2B000000 		.4byte	.LVL8-1
 11014 00ec 0800     		.2byte	0x8
 11015 00ee 76       		.byte	0x76
 11016 00ef 7F       		.sleb128 -1
 11017 00f0 93       		.byte	0x93
 11018 00f1 01       		.uleb128 0x1
 11019 00f2 76       		.byte	0x76
 11020 00f3 00       		.sleb128 0
 11021 00f4 93       		.byte	0x93
 11022 00f5 01       		.uleb128 0x1
 11023 00f6 00000000 		.4byte	0
 11024 00fa 00000000 		.4byte	0
 11025              	.LLST3:
 11026 00fe 24000000 		.4byte	.LVL7
 11027 0102 66000000 		.4byte	.LVL15
 11028 0106 4400     		.2byte	0x44
 11029 0108 74       		.byte	0x74
 11030 0109 00       		.sleb128 0
 11031 010a F7       		.byte	0xf7
 11032 010b 25       		.uleb128 0x25
 11033 010c 0A       		.byte	0xa
 11034 010d E803     		.2byte	0x3e8
 11035 010f F7       		.byte	0xf7
 11036 0110 25       		.uleb128 0x25
 11037 0111 1B       		.byte	0x1b
 11038 0112 F7       		.byte	0xf7
 11039 0113 00       		.uleb128 0
 11040 0114 23       		.byte	0x23
 11041 0115 30       		.uleb128 0x30
ARM GAS  C:\Users\Administrator\AppData\Local\Temp\ccX9Bf8z.s 			page 242


 11042 0116 9F       		.byte	0x9f
 11043 0117 93       		.byte	0x93
 11044 0118 01       		.uleb128 0x1
 11045 0119 74       		.byte	0x74
 11046 011a 00       		.sleb128 0
 11047 011b 0A       		.byte	0xa
 11048 011c E803     		.2byte	0x3e8
 11049 011e 1D       		.byte	0x1d
 11050 011f F7       		.byte	0xf7
 11051 0120 25       		.uleb128 0x25
 11052 0121 08       		.byte	0x8
 11053 0122 64       		.byte	0x64
 11054 0123 F7       		.byte	0xf7
 11055 0124 25       		.uleb128 0x25
 11056 0125 1B       		.byte	0x1b
 11057 0126 F7       		.byte	0xf7
 11058 0127 00       		.uleb128 0
 11059 0128 23       		.byte	0x23
 11060 0129 30       		.uleb128 0x30
 11061 012a 9F       		.byte	0x9f
 11062 012b 93       		.byte	0x93
 11063 012c 01       		.uleb128 0x1
 11064 012d 74       		.byte	0x74
 11065 012e 00       		.sleb128 0
 11066 012f 08       		.byte	0x8
 11067 0130 64       		.byte	0x64
 11068 0131 1D       		.byte	0x1d
 11069 0132 F7       		.byte	0xf7
 11070 0133 25       		.uleb128 0x25
 11071 0134 3A       		.byte	0x3a
 11072 0135 F7       		.byte	0xf7
 11073 0136 25       		.uleb128 0x25
 11074 0137 1B       		.byte	0x1b
 11075 0138 F7       		.byte	0xf7
 11076 0139 00       		.uleb128 0
 11077 013a 23       		.byte	0x23
 11078 013b 30       		.uleb128 0x30
 11079 013c 9F       		.byte	0x9f
 11080 013d 93       		.byte	0x93
 11081 013e 01       		.uleb128 0x1
 11082 013f 74       		.byte	0x74
 11083 0140 00       		.sleb128 0
 11084 0141 3A       		.byte	0x3a
 11085 0142 1D       		.byte	0x1d
 11086 0143 23       		.byte	0x23
 11087 0144 30       		.uleb128 0x30
 11088 0145 9F       		.byte	0x9f
 11089 0146 93       		.byte	0x93
 11090 0147 01       		.uleb128 0x1
 11091 0148 30       		.byte	0x30
 11092 0149 9F       		.byte	0x9f
 11093 014a 93       		.byte	0x93
 11094 014b 01       		.uleb128 0x1
 11095 014c 66000000 		.4byte	.LVL15
 11096 0150 AC000000 		.4byte	.LFE73
 11097 0154 0600     		.2byte	0x6
 11098 0156 93       		.byte	0x93
ARM GAS  C:\Users\Administrator\AppData\Local\Temp\ccX9Bf8z.s 			page 243


 11099 0157 04       		.uleb128 0x4
 11100 0158 30       		.byte	0x30
 11101 0159 9F       		.byte	0x9f
 11102 015a 93       		.byte	0x93
 11103 015b 01       		.uleb128 0x1
 11104 015c 00000000 		.4byte	0
 11105 0160 00000000 		.4byte	0
 11106              	.LLST4:
 11107 0164 24000000 		.4byte	.LVL7
 11108 0168 66000000 		.4byte	.LVL15
 11109 016c 0100     		.2byte	0x1
 11110 016e 54       		.byte	0x54
 11111 016f 00000000 		.4byte	0
 11112 0173 00000000 		.4byte	0
 11113              	.LLST5:
 11114 0177 00000000 		.4byte	.LVL18
 11115 017b 0C000000 		.4byte	.LVL19
 11116 017f 0100     		.2byte	0x1
 11117 0181 50       		.byte	0x50
 11118 0182 0C000000 		.4byte	.LVL19
 11119 0186 32000000 		.4byte	.LVL24
 11120 018a 0100     		.2byte	0x1
 11121 018c 54       		.byte	0x54
 11122 018d 32000000 		.4byte	.LVL24
 11123 0191 38000000 		.4byte	.LFE79
 11124 0195 0400     		.2byte	0x4
 11125 0197 F3       		.byte	0xf3
 11126 0198 01       		.uleb128 0x1
 11127 0199 50       		.byte	0x50
 11128 019a 9F       		.byte	0x9f
 11129 019b 00000000 		.4byte	0
 11130 019f 00000000 		.4byte	0
 11131              	.LLST6:
 11132 01a3 00000000 		.4byte	.LVL18
 11133 01a7 1C000000 		.4byte	.LVL21
 11134 01ab 0200     		.2byte	0x2
 11135 01ad 30       		.byte	0x30
 11136 01ae 9F       		.byte	0x9f
 11137 01af 1C000000 		.4byte	.LVL21
 11138 01b3 29000000 		.4byte	.LVL22-1
 11139 01b7 0200     		.2byte	0x2
 11140 01b9 74       		.byte	0x74
 11141 01ba 1E       		.sleb128 30
 11142 01bb 00000000 		.4byte	0
 11143 01bf 00000000 		.4byte	0
 11144              	.LLST7:
 11145 01c3 00000000 		.4byte	.LVL25
 11146 01c7 0A000000 		.4byte	.LVL27
 11147 01cb 0100     		.2byte	0x1
 11148 01cd 50       		.byte	0x50
 11149 01ce 0A000000 		.4byte	.LVL27
 11150 01d2 0D000000 		.4byte	.LVL28-1
 11151 01d6 0300     		.2byte	0x3
 11152 01d8 71       		.byte	0x71
 11153 01d9 6F       		.sleb128 -17
 11154 01da 9F       		.byte	0x9f
 11155 01db 0D000000 		.4byte	.LVL28-1
ARM GAS  C:\Users\Administrator\AppData\Local\Temp\ccX9Bf8z.s 			page 244


 11156 01df 24000000 		.4byte	.LFE82
 11157 01e3 0400     		.2byte	0x4
 11158 01e5 F3       		.byte	0xf3
 11159 01e6 01       		.uleb128 0x1
 11160 01e7 50       		.byte	0x50
 11161 01e8 9F       		.byte	0x9f
 11162 01e9 00000000 		.4byte	0
 11163 01ed 00000000 		.4byte	0
 11164              	.LLST8:
 11165 01f1 00000000 		.4byte	.LVL25
 11166 01f5 08000000 		.4byte	.LVL26
 11167 01f9 0300     		.2byte	0x3
 11168 01fb 70       		.byte	0x70
 11169 01fc 11       		.sleb128 17
 11170 01fd 9F       		.byte	0x9f
 11171 01fe 08000000 		.4byte	.LVL26
 11172 0202 0D000000 		.4byte	.LVL28-1
 11173 0206 0100     		.2byte	0x1
 11174 0208 51       		.byte	0x51
 11175 0209 0D000000 		.4byte	.LVL28-1
 11176 020d 24000000 		.4byte	.LFE82
 11177 0211 0600     		.2byte	0x6
 11178 0213 F3       		.byte	0xf3
 11179 0214 01       		.uleb128 0x1
 11180 0215 50       		.byte	0x50
 11181 0216 23       		.byte	0x23
 11182 0217 11       		.uleb128 0x11
 11183 0218 9F       		.byte	0x9f
 11184 0219 00000000 		.4byte	0
 11185 021d 00000000 		.4byte	0
 11186              	.LLST9:
 11187 0221 00000000 		.4byte	.LVL31
 11188 0225 28000000 		.4byte	.LVL37
 11189 0229 0100     		.2byte	0x1
 11190 022b 50       		.byte	0x50
 11191 022c 28000000 		.4byte	.LVL37
 11192 0230 2B000000 		.4byte	.LVL38-1
 11193 0234 0300     		.2byte	0x3
 11194 0236 71       		.byte	0x71
 11195 0237 6F       		.sleb128 -17
 11196 0238 9F       		.byte	0x9f
 11197 0239 2B000000 		.4byte	.LVL38-1
 11198 023d 54000000 		.4byte	.LFE80
 11199 0241 0400     		.2byte	0x4
 11200 0243 F3       		.byte	0xf3
 11201 0244 01       		.uleb128 0x1
 11202 0245 50       		.byte	0x50
 11203 0246 9F       		.byte	0x9f
 11204 0247 00000000 		.4byte	0
 11205 024b 00000000 		.4byte	0
 11206              	.LLST10:
 11207 024f 00000000 		.4byte	.LVL31
 11208 0253 20000000 		.4byte	.LVL35
 11209 0257 0100     		.2byte	0x1
 11210 0259 50       		.byte	0x50
 11211 025a 20000000 		.4byte	.LVL35
 11212 025e 26000000 		.4byte	.LVL36
ARM GAS  C:\Users\Administrator\AppData\Local\Temp\ccX9Bf8z.s 			page 245


 11213 0262 0300     		.2byte	0x3
 11214 0264 70       		.byte	0x70
 11215 0265 11       		.sleb128 17
 11216 0266 9F       		.byte	0x9f
 11217 0267 26000000 		.4byte	.LVL36
 11218 026b 2B000000 		.4byte	.LVL38-1
 11219 026f 0100     		.2byte	0x1
 11220 0271 51       		.byte	0x51
 11221 0272 2B000000 		.4byte	.LVL38-1
 11222 0276 42000000 		.4byte	.LVL41
 11223 027a 0600     		.2byte	0x6
 11224 027c F3       		.byte	0xf3
 11225 027d 01       		.uleb128 0x1
 11226 027e 50       		.byte	0x50
 11227 027f 23       		.byte	0x23
 11228 0280 11       		.uleb128 0x11
 11229 0281 9F       		.byte	0x9f
 11230 0282 00000000 		.4byte	0
 11231 0286 00000000 		.4byte	0
 11232              	.LLST11:
 11233 028a 12000000 		.4byte	.LVL32
 11234 028e 16000000 		.4byte	.LVL33
 11235 0292 0100     		.2byte	0x1
 11236 0294 53       		.byte	0x53
 11237 0295 16000000 		.4byte	.LVL33
 11238 0299 28000000 		.4byte	.LVL37
 11239 029d 1400     		.2byte	0x14
 11240 029f 70       		.byte	0x70
 11241 02a0 02       		.sleb128 2
 11242 02a1 94       		.byte	0x94
 11243 02a2 01       		.byte	0x1
 11244 02a3 08       		.byte	0x8
 11245 02a4 FF       		.byte	0xff
 11246 02a5 1A       		.byte	0x1a
 11247 02a6 38       		.byte	0x38
 11248 02a7 24       		.byte	0x24
 11249 02a8 70       		.byte	0x70
 11250 02a9 03       		.sleb128 3
 11251 02aa 94       		.byte	0x94
 11252 02ab 01       		.byte	0x1
 11253 02ac 08       		.byte	0x8
 11254 02ad FF       		.byte	0xff
 11255 02ae 1A       		.byte	0x1a
 11256 02af 22       		.byte	0x22
 11257 02b0 23       		.byte	0x23
 11258 02b1 04       		.uleb128 0x4
 11259 02b2 9F       		.byte	0x9f
 11260 02b3 28000000 		.4byte	.LVL37
 11261 02b7 2B000000 		.4byte	.LVL38-1
 11262 02bb 1400     		.2byte	0x14
 11263 02bd 71       		.byte	0x71
 11264 02be 71       		.sleb128 -15
 11265 02bf 94       		.byte	0x94
 11266 02c0 01       		.byte	0x1
 11267 02c1 08       		.byte	0x8
 11268 02c2 FF       		.byte	0xff
 11269 02c3 1A       		.byte	0x1a
ARM GAS  C:\Users\Administrator\AppData\Local\Temp\ccX9Bf8z.s 			page 246


 11270 02c4 38       		.byte	0x38
 11271 02c5 24       		.byte	0x24
 11272 02c6 71       		.byte	0x71
 11273 02c7 72       		.sleb128 -14
 11274 02c8 94       		.byte	0x94
 11275 02c9 01       		.byte	0x1
 11276 02ca 08       		.byte	0x8
 11277 02cb FF       		.byte	0xff
 11278 02cc 1A       		.byte	0x1a
 11279 02cd 22       		.byte	0x22
 11280 02ce 23       		.byte	0x23
 11281 02cf 04       		.uleb128 0x4
 11282 02d0 9F       		.byte	0x9f
 11283 02d1 00000000 		.4byte	0
 11284 02d5 00000000 		.4byte	0
 11285              	.LLST12:
 11286 02d9 00000000 		.4byte	.LVL43
 11287 02dd 10000000 		.4byte	.LVL44
 11288 02e1 0100     		.2byte	0x1
 11289 02e3 50       		.byte	0x50
 11290 02e4 10000000 		.4byte	.LVL44
 11291 02e8 13000000 		.4byte	.LVL45-1
 11292 02ec 0300     		.2byte	0x3
 11293 02ee 71       		.byte	0x71
 11294 02ef 73       		.sleb128 -13
 11295 02f0 9F       		.byte	0x9f
 11296 02f1 13000000 		.4byte	.LVL45-1
 11297 02f5 6C000000 		.4byte	.LFE89
 11298 02f9 0400     		.2byte	0x4
 11299 02fb F3       		.byte	0xf3
 11300 02fc 01       		.uleb128 0x1
 11301 02fd 50       		.byte	0x50
 11302 02fe 9F       		.byte	0x9f
 11303 02ff 00000000 		.4byte	0
 11304 0303 00000000 		.4byte	0
 11305              	.LLST13:
 11306 0307 00000000 		.4byte	.LVL52
 11307 030b 40000000 		.4byte	.LVL53
 11308 030f 0100     		.2byte	0x1
 11309 0311 50       		.byte	0x50
 11310 0312 40000000 		.4byte	.LVL53
 11311 0316 43000000 		.4byte	.LVL54-1
 11312 031a 0100     		.2byte	0x1
 11313 031c 51       		.byte	0x51
 11314 031d 43000000 		.4byte	.LVL54-1
 11315 0321 58000000 		.4byte	.LVL56
 11316 0325 0100     		.2byte	0x1
 11317 0327 54       		.byte	0x54
 11318 0328 58000000 		.4byte	.LVL56
 11319 032c 5C000000 		.4byte	.LFE63
 11320 0330 0400     		.2byte	0x4
 11321 0332 F3       		.byte	0xf3
 11322 0333 01       		.uleb128 0x1
 11323 0334 50       		.byte	0x50
 11324 0335 9F       		.byte	0x9f
 11325 0336 00000000 		.4byte	0
 11326 033a 00000000 		.4byte	0
ARM GAS  C:\Users\Administrator\AppData\Local\Temp\ccX9Bf8z.s 			page 247


 11327              	.LLST14:
 11328 033e 34000000 		.4byte	.LVL69
 11329 0342 46000000 		.4byte	.LVL72
 11330 0346 1800     		.2byte	0x18
 11331 0348 70       		.byte	0x70
 11332 0349 00       		.sleb128 0
 11333 034a 48       		.byte	0x48
 11334 034b 25       		.byte	0x25
 11335 034c 9F       		.byte	0x9f
 11336 034d 93       		.byte	0x93
 11337 034e 01       		.uleb128 0x1
 11338 034f 70       		.byte	0x70
 11339 0350 00       		.sleb128 0
 11340 0351 40       		.byte	0x40
 11341 0352 25       		.byte	0x25
 11342 0353 9F       		.byte	0x9f
 11343 0354 93       		.byte	0x93
 11344 0355 01       		.uleb128 0x1
 11345 0356 70       		.byte	0x70
 11346 0357 00       		.sleb128 0
 11347 0358 38       		.byte	0x38
 11348 0359 25       		.byte	0x25
 11349 035a 9F       		.byte	0x9f
 11350 035b 93       		.byte	0x93
 11351 035c 01       		.uleb128 0x1
 11352 035d 50       		.byte	0x50
 11353 035e 93       		.byte	0x93
 11354 035f 01       		.uleb128 0x1
 11355 0360 46000000 		.4byte	.LVL72
 11356 0364 4B000000 		.4byte	.LVL74-1
 11357 0368 0600     		.2byte	0x6
 11358 036a 93       		.byte	0x93
 11359 036b 03       		.uleb128 0x3
 11360 036c 70       		.byte	0x70
 11361 036d 10       		.sleb128 16
 11362 036e 93       		.byte	0x93
 11363 036f 01       		.uleb128 0x1
 11364 0370 00000000 		.4byte	0
 11365 0374 00000000 		.4byte	0
 11366              	.LLST15:
 11367 0378 34000000 		.4byte	.LVL69
 11368 037c 46000000 		.4byte	.LVL72
 11369 0380 0100     		.2byte	0x1
 11370 0382 50       		.byte	0x50
 11371 0383 00000000 		.4byte	0
 11372 0387 00000000 		.4byte	0
 11373              	.LLST16:
 11374 038b 00000000 		.4byte	.LVL60
 11375 038f 4C000000 		.4byte	.LVL74
 11376 0393 0200     		.2byte	0x2
 11377 0395 30       		.byte	0x30
 11378 0396 9F       		.byte	0x9f
 11379 0397 4C000000 		.4byte	.LVL74
 11380 039b 5E000000 		.4byte	.LVL76
 11381 039f 0100     		.2byte	0x1
 11382 03a1 50       		.byte	0x50
 11383 03a2 00000000 		.4byte	0
ARM GAS  C:\Users\Administrator\AppData\Local\Temp\ccX9Bf8z.s 			page 248


 11384 03a6 00000000 		.4byte	0
 11385              	.LLST17:
 11386 03aa 00000000 		.4byte	.LVL60
 11387 03ae 0A000000 		.4byte	.LVL61
 11388 03b2 0200     		.2byte	0x2
 11389 03b4 31       		.byte	0x31
 11390 03b5 9F       		.byte	0x9f
 11391 03b6 0A000000 		.4byte	.LVL61
 11392 03ba 0E000000 		.4byte	.LVL62
 11393 03be 0200     		.2byte	0x2
 11394 03c0 32       		.byte	0x32
 11395 03c1 9F       		.byte	0x9f
 11396 03c2 0E000000 		.4byte	.LVL62
 11397 03c6 14000000 		.4byte	.LVL63
 11398 03ca 0200     		.2byte	0x2
 11399 03cc 33       		.byte	0x33
 11400 03cd 9F       		.byte	0x9f
 11401 03ce 14000000 		.4byte	.LVL63
 11402 03d2 18000000 		.4byte	.LVL64
 11403 03d6 0200     		.2byte	0x2
 11404 03d8 34       		.byte	0x34
 11405 03d9 9F       		.byte	0x9f
 11406 03da 18000000 		.4byte	.LVL64
 11407 03de 1C000000 		.4byte	.LVL65
 11408 03e2 0200     		.2byte	0x2
 11409 03e4 35       		.byte	0x35
 11410 03e5 9F       		.byte	0x9f
 11411 03e6 1C000000 		.4byte	.LVL65
 11412 03ea 1E000000 		.4byte	.LVL66
 11413 03ee 0200     		.2byte	0x2
 11414 03f0 36       		.byte	0x36
 11415 03f1 9F       		.byte	0x9f
 11416 03f2 1E000000 		.4byte	.LVL66
 11417 03f6 20000000 		.4byte	.LVL67
 11418 03fa 0200     		.2byte	0x2
 11419 03fc 37       		.byte	0x37
 11420 03fd 9F       		.byte	0x9f
 11421 03fe 20000000 		.4byte	.LVL67
 11422 0402 28000000 		.4byte	.LVL68
 11423 0406 0300     		.2byte	0x3
 11424 0408 73       		.byte	0x73
 11425 0409 08       		.sleb128 8
 11426 040a 9F       		.byte	0x9f
 11427 040b 34000000 		.4byte	.LVL69
 11428 040f 3A000000 		.4byte	.LVL70
 11429 0413 0200     		.2byte	0x2
 11430 0415 3E       		.byte	0x3e
 11431 0416 9F       		.byte	0x9f
 11432 0417 3A000000 		.4byte	.LVL70
 11433 041b 3E000000 		.4byte	.LVL71
 11434 041f 0200     		.2byte	0x2
 11435 0421 3F       		.byte	0x3f
 11436 0422 9F       		.byte	0x9f
 11437 0423 3E000000 		.4byte	.LVL71
 11438 0427 48000000 		.4byte	.LVL73
 11439 042b 0200     		.2byte	0x2
 11440 042d 40       		.byte	0x40
ARM GAS  C:\Users\Administrator\AppData\Local\Temp\ccX9Bf8z.s 			page 249


 11441 042e 9F       		.byte	0x9f
 11442 042f 48000000 		.4byte	.LVL73
 11443 0433 4C000000 		.4byte	.LVL74
 11444 0437 0200     		.2byte	0x2
 11445 0439 41       		.byte	0x41
 11446 043a 9F       		.byte	0x9f
 11447 043b 4C000000 		.4byte	.LVL74
 11448 043f 52000000 		.4byte	.LVL75
 11449 0443 0200     		.2byte	0x2
 11450 0445 42       		.byte	0x42
 11451 0446 9F       		.byte	0x9f
 11452 0447 52000000 		.4byte	.LVL75
 11453 044b 74000000 		.4byte	.LFE65
 11454 044f 0200     		.2byte	0x2
 11455 0451 43       		.byte	0x43
 11456 0452 9F       		.byte	0x9f
 11457 0453 00000000 		.4byte	0
 11458 0457 00000000 		.4byte	0
 11459              	.LLST18:
 11460 045b 00000000 		.4byte	.LVL60
 11461 045f 20000000 		.4byte	.LVL67
 11462 0463 0200     		.2byte	0x2
 11463 0465 30       		.byte	0x30
 11464 0466 9F       		.byte	0x9f
 11465 0467 20000000 		.4byte	.LVL67
 11466 046b 28000000 		.4byte	.LVL68
 11467 046f 0100     		.2byte	0x1
 11468 0471 53       		.byte	0x53
 11469 0472 00000000 		.4byte	0
 11470 0476 00000000 		.4byte	0
 11471              	.LLST19:
 11472 047a 3C000000 		.4byte	.LVL87
 11473 047e 41000000 		.4byte	.LVL88-1
 11474 0482 0100     		.2byte	0x1
 11475 0484 53       		.byte	0x53
 11476 0485 00000000 		.4byte	0
 11477 0489 00000000 		.4byte	0
 11478              	.LLST20:
 11479 048d 42000000 		.4byte	.LVL88
 11480 0491 54000000 		.4byte	.LVL91
 11481 0495 1800     		.2byte	0x18
 11482 0497 70       		.byte	0x70
 11483 0498 00       		.sleb128 0
 11484 0499 48       		.byte	0x48
 11485 049a 25       		.byte	0x25
 11486 049b 9F       		.byte	0x9f
 11487 049c 93       		.byte	0x93
 11488 049d 01       		.uleb128 0x1
 11489 049e 70       		.byte	0x70
 11490 049f 00       		.sleb128 0
 11491 04a0 40       		.byte	0x40
 11492 04a1 25       		.byte	0x25
 11493 04a2 9F       		.byte	0x9f
 11494 04a3 93       		.byte	0x93
 11495 04a4 01       		.uleb128 0x1
 11496 04a5 70       		.byte	0x70
 11497 04a6 00       		.sleb128 0
ARM GAS  C:\Users\Administrator\AppData\Local\Temp\ccX9Bf8z.s 			page 250


 11498 04a7 38       		.byte	0x38
 11499 04a8 25       		.byte	0x25
 11500 04a9 9F       		.byte	0x9f
 11501 04aa 93       		.byte	0x93
 11502 04ab 01       		.uleb128 0x1
 11503 04ac 50       		.byte	0x50
 11504 04ad 93       		.byte	0x93
 11505 04ae 01       		.uleb128 0x1
 11506 04af 54000000 		.4byte	.LVL91
 11507 04b3 59000000 		.4byte	.LVL93-1
 11508 04b7 0600     		.2byte	0x6
 11509 04b9 93       		.byte	0x93
 11510 04ba 03       		.uleb128 0x3
 11511 04bb 70       		.byte	0x70
 11512 04bc 12       		.sleb128 18
 11513 04bd 93       		.byte	0x93
 11514 04be 01       		.uleb128 0x1
 11515 04bf 00000000 		.4byte	0
 11516 04c3 00000000 		.4byte	0
 11517              	.LLST21:
 11518 04c7 42000000 		.4byte	.LVL88
 11519 04cb 54000000 		.4byte	.LVL91
 11520 04cf 0100     		.2byte	0x1
 11521 04d1 50       		.byte	0x50
 11522 04d2 00000000 		.4byte	0
 11523 04d6 00000000 		.4byte	0
 11524              	.LLST22:
 11525 04da 00000000 		.4byte	.LVL78
 11526 04de 5A000000 		.4byte	.LVL93
 11527 04e2 0200     		.2byte	0x2
 11528 04e4 30       		.byte	0x30
 11529 04e5 9F       		.byte	0x9f
 11530 04e6 5A000000 		.4byte	.LVL93
 11531 04ea 6C000000 		.4byte	.LVL95
 11532 04ee 0100     		.2byte	0x1
 11533 04f0 50       		.byte	0x50
 11534 04f1 00000000 		.4byte	0
 11535 04f5 00000000 		.4byte	0
 11536              	.LLST23:
 11537 04f9 00000000 		.4byte	.LVL78
 11538 04fd 0A000000 		.4byte	.LVL79
 11539 0501 0200     		.2byte	0x2
 11540 0503 31       		.byte	0x31
 11541 0504 9F       		.byte	0x9f
 11542 0505 0A000000 		.4byte	.LVL79
 11543 0509 0E000000 		.4byte	.LVL80
 11544 050d 0200     		.2byte	0x2
 11545 050f 32       		.byte	0x32
 11546 0510 9F       		.byte	0x9f
 11547 0511 0E000000 		.4byte	.LVL80
 11548 0515 14000000 		.4byte	.LVL81
 11549 0519 0200     		.2byte	0x2
 11550 051b 33       		.byte	0x33
 11551 051c 9F       		.byte	0x9f
 11552 051d 14000000 		.4byte	.LVL81
 11553 0521 18000000 		.4byte	.LVL82
 11554 0525 0200     		.2byte	0x2
ARM GAS  C:\Users\Administrator\AppData\Local\Temp\ccX9Bf8z.s 			page 251


 11555 0527 34       		.byte	0x34
 11556 0528 9F       		.byte	0x9f
 11557 0529 18000000 		.4byte	.LVL82
 11558 052d 1C000000 		.4byte	.LVL83
 11559 0531 0200     		.2byte	0x2
 11560 0533 35       		.byte	0x35
 11561 0534 9F       		.byte	0x9f
 11562 0535 1C000000 		.4byte	.LVL83
 11563 0539 1E000000 		.4byte	.LVL84
 11564 053d 0200     		.2byte	0x2
 11565 053f 36       		.byte	0x36
 11566 0540 9F       		.byte	0x9f
 11567 0541 1E000000 		.4byte	.LVL84
 11568 0545 22000000 		.4byte	.LVL85
 11569 0549 0200     		.2byte	0x2
 11570 054b 37       		.byte	0x37
 11571 054c 9F       		.byte	0x9f
 11572 054d 22000000 		.4byte	.LVL85
 11573 0551 2A000000 		.4byte	.LVL86
 11574 0555 0300     		.2byte	0x3
 11575 0557 73       		.byte	0x73
 11576 0558 08       		.sleb128 8
 11577 0559 9F       		.byte	0x9f
 11578 055a 3C000000 		.4byte	.LVL87
 11579 055e 42000000 		.4byte	.LVL88
 11580 0562 0200     		.2byte	0x2
 11581 0564 3F       		.byte	0x3f
 11582 0565 9F       		.byte	0x9f
 11583 0566 42000000 		.4byte	.LVL88
 11584 056a 48000000 		.4byte	.LVL89
 11585 056e 0200     		.2byte	0x2
 11586 0570 40       		.byte	0x40
 11587 0571 9F       		.byte	0x9f
 11588 0572 48000000 		.4byte	.LVL89
 11589 0576 4C000000 		.4byte	.LVL90
 11590 057a 0200     		.2byte	0x2
 11591 057c 41       		.byte	0x41
 11592 057d 9F       		.byte	0x9f
 11593 057e 4C000000 		.4byte	.LVL90
 11594 0582 56000000 		.4byte	.LVL92
 11595 0586 0200     		.2byte	0x2
 11596 0588 42       		.byte	0x42
 11597 0589 9F       		.byte	0x9f
 11598 058a 56000000 		.4byte	.LVL92
 11599 058e 5A000000 		.4byte	.LVL93
 11600 0592 0200     		.2byte	0x2
 11601 0594 43       		.byte	0x43
 11602 0595 9F       		.byte	0x9f
 11603 0596 5A000000 		.4byte	.LVL93
 11604 059a 60000000 		.4byte	.LVL94
 11605 059e 0200     		.2byte	0x2
 11606 05a0 44       		.byte	0x44
 11607 05a1 9F       		.byte	0x9f
 11608 05a2 60000000 		.4byte	.LVL94
 11609 05a6 84000000 		.4byte	.LFE66
 11610 05aa 0200     		.2byte	0x2
 11611 05ac 45       		.byte	0x45
ARM GAS  C:\Users\Administrator\AppData\Local\Temp\ccX9Bf8z.s 			page 252


 11612 05ad 9F       		.byte	0x9f
 11613 05ae 00000000 		.4byte	0
 11614 05b2 00000000 		.4byte	0
 11615              	.LLST24:
 11616 05b6 00000000 		.4byte	.LVL78
 11617 05ba 22000000 		.4byte	.LVL85
 11618 05be 0200     		.2byte	0x2
 11619 05c0 30       		.byte	0x30
 11620 05c1 9F       		.byte	0x9f
 11621 05c2 22000000 		.4byte	.LVL85
 11622 05c6 2A000000 		.4byte	.LVL86
 11623 05ca 0100     		.2byte	0x1
 11624 05cc 53       		.byte	0x53
 11625 05cd 00000000 		.4byte	0
 11626 05d1 00000000 		.4byte	0
 11627              	.LLST25:
 11628 05d5 00000000 		.4byte	.LVL97
 11629 05d9 3A000000 		.4byte	.LVL106
 11630 05dd 0100     		.2byte	0x1
 11631 05df 50       		.byte	0x50
 11632 05e0 3A000000 		.4byte	.LVL106
 11633 05e4 EA000000 		.4byte	.LVL128
 11634 05e8 0100     		.2byte	0x1
 11635 05ea 55       		.byte	0x55
 11636 05eb EA000000 		.4byte	.LVL128
 11637 05ef 00010000 		.4byte	.LFE67
 11638 05f3 0400     		.2byte	0x4
 11639 05f5 F3       		.byte	0xf3
 11640 05f6 01       		.uleb128 0x1
 11641 05f7 50       		.byte	0x50
 11642 05f8 9F       		.byte	0x9f
 11643 05f9 00000000 		.4byte	0
 11644 05fd 00000000 		.4byte	0
 11645              	.LLST26:
 11646 0601 00000000 		.4byte	.LVL97
 11647 0605 18000000 		.4byte	.LVL99
 11648 0609 0100     		.2byte	0x1
 11649 060b 51       		.byte	0x51
 11650 060c 18000000 		.4byte	.LVL99
 11651 0610 00010000 		.4byte	.LFE67
 11652 0614 0400     		.2byte	0x4
 11653 0616 F3       		.byte	0xf3
 11654 0617 01       		.uleb128 0x1
 11655 0618 51       		.byte	0x51
 11656 0619 9F       		.byte	0x9f
 11657 061a 00000000 		.4byte	0
 11658 061e 00000000 		.4byte	0
 11659              	.LLST27:
 11660 0622 00000000 		.4byte	.LVL97
 11661 0626 0A000000 		.4byte	.LVL98
 11662 062a 0100     		.2byte	0x1
 11663 062c 52       		.byte	0x52
 11664 062d 0A000000 		.4byte	.LVL98
 11665 0631 00010000 		.4byte	.LFE67
 11666 0635 0400     		.2byte	0x4
 11667 0637 F3       		.byte	0xf3
 11668 0638 01       		.uleb128 0x1
ARM GAS  C:\Users\Administrator\AppData\Local\Temp\ccX9Bf8z.s 			page 253


 11669 0639 52       		.byte	0x52
 11670 063a 9F       		.byte	0x9f
 11671 063b 00000000 		.4byte	0
 11672 063f 00000000 		.4byte	0
 11673              	.LLST28:
 11674 0643 7A000000 		.4byte	.LVL119
 11675 0647 98000000 		.4byte	.LVL123
 11676 064b 1800     		.2byte	0x18
 11677 064d 70       		.byte	0x70
 11678 064e 00       		.sleb128 0
 11679 064f 48       		.byte	0x48
 11680 0650 25       		.byte	0x25
 11681 0651 9F       		.byte	0x9f
 11682 0652 93       		.byte	0x93
 11683 0653 01       		.uleb128 0x1
 11684 0654 70       		.byte	0x70
 11685 0655 00       		.sleb128 0
 11686 0656 40       		.byte	0x40
 11687 0657 25       		.byte	0x25
 11688 0658 9F       		.byte	0x9f
 11689 0659 93       		.byte	0x93
 11690 065a 01       		.uleb128 0x1
 11691 065b 70       		.byte	0x70
 11692 065c 00       		.sleb128 0
 11693 065d 38       		.byte	0x38
 11694 065e 25       		.byte	0x25
 11695 065f 9F       		.byte	0x9f
 11696 0660 93       		.byte	0x93
 11697 0661 01       		.uleb128 0x1
 11698 0662 50       		.byte	0x50
 11699 0663 93       		.byte	0x93
 11700 0664 01       		.uleb128 0x1
 11701 0665 98000000 		.4byte	.LVL123
 11702 0669 9B000000 		.4byte	.LVL124-1
 11703 066d 0900     		.2byte	0x9
 11704 066f 93       		.byte	0x93
 11705 0670 03       		.uleb128 0x3
 11706 0671 70       		.byte	0x70
 11707 0672 00       		.sleb128 0
 11708 0673 73       		.byte	0x73
 11709 0674 00       		.sleb128 0
 11710 0675 22       		.byte	0x22
 11711 0676 93       		.byte	0x93
 11712 0677 01       		.uleb128 0x1
 11713 0678 00000000 		.4byte	0
 11714 067c 00000000 		.4byte	0
 11715              	.LLST29:
 11716 0680 7A000000 		.4byte	.LVL119
 11717 0684 98000000 		.4byte	.LVL123
 11718 0688 0100     		.2byte	0x1
 11719 068a 50       		.byte	0x50
 11720 068b 00000000 		.4byte	0
 11721 068f 00000000 		.4byte	0
 11722              	.LLST30:
 11723 0693 00000000 		.4byte	.LVL97
 11724 0697 9C000000 		.4byte	.LVL124
 11725 069b 0200     		.2byte	0x2
ARM GAS  C:\Users\Administrator\AppData\Local\Temp\ccX9Bf8z.s 			page 254


 11726 069d 30       		.byte	0x30
 11727 069e 9F       		.byte	0x9f
 11728 069f 9C000000 		.4byte	.LVL124
 11729 06a3 AD000000 		.4byte	.LVL126-1
 11730 06a7 0100     		.2byte	0x1
 11731 06a9 50       		.byte	0x50
 11732 06aa 00000000 		.4byte	0
 11733 06ae 00000000 		.4byte	0
 11734              	.LLST31:
 11735 06b2 1C000000 		.4byte	.LVL100
 11736 06b6 1E000000 		.4byte	.LVL101
 11737 06ba 0200     		.2byte	0x2
 11738 06bc 34       		.byte	0x34
 11739 06bd 9F       		.byte	0x9f
 11740 06be 1E000000 		.4byte	.LVL101
 11741 06c2 22000000 		.4byte	.LVL102
 11742 06c6 0200     		.2byte	0x2
 11743 06c8 35       		.byte	0x35
 11744 06c9 9F       		.byte	0x9f
 11745 06ca 22000000 		.4byte	.LVL102
 11746 06ce 24000000 		.4byte	.LVL103
 11747 06d2 0200     		.2byte	0x2
 11748 06d4 36       		.byte	0x36
 11749 06d5 9F       		.byte	0x9f
 11750 06d6 24000000 		.4byte	.LVL103
 11751 06da 28000000 		.4byte	.LVL104
 11752 06de 0200     		.2byte	0x2
 11753 06e0 37       		.byte	0x37
 11754 06e1 9F       		.byte	0x9f
 11755 06e2 28000000 		.4byte	.LVL104
 11756 06e6 30000000 		.4byte	.LVL105
 11757 06ea 0300     		.2byte	0x3
 11758 06ec 73       		.byte	0x73
 11759 06ed 08       		.sleb128 8
 11760 06ee 9F       		.byte	0x9f
 11761 06ef 40000000 		.4byte	.LVL108
 11762 06f3 48000000 		.4byte	.LVL109
 11763 06f7 0300     		.2byte	0x3
 11764 06f9 73       		.byte	0x73
 11765 06fa 0D       		.sleb128 13
 11766 06fb 9F       		.byte	0x9f
 11767 06fc 48000000 		.4byte	.LVL109
 11768 0700 52000000 		.4byte	.LVL111
 11769 0704 0300     		.2byte	0x3
 11770 0706 73       		.byte	0x73
 11771 0707 0E       		.sleb128 14
 11772 0708 9F       		.byte	0x9f
 11773 0709 54000000 		.4byte	.LVL112
 11774 070d 5E000000 		.4byte	.LVL115
 11775 0711 0300     		.2byte	0x3
 11776 0713 74       		.byte	0x74
 11777 0714 0E       		.sleb128 14
 11778 0715 9F       		.byte	0x9f
 11779 0716 5E000000 		.4byte	.LVL115
 11780 071a 64000000 		.4byte	.LVL116
 11781 071e 0300     		.2byte	0x3
 11782 0720 74       		.byte	0x74
ARM GAS  C:\Users\Administrator\AppData\Local\Temp\ccX9Bf8z.s 			page 255


 11783 0721 0F       		.sleb128 15
 11784 0722 9F       		.byte	0x9f
 11785 0723 64000000 		.4byte	.LVL116
 11786 0727 6A000000 		.4byte	.LVL117
 11787 072b 0300     		.2byte	0x3
 11788 072d 74       		.byte	0x74
 11789 072e 10       		.sleb128 16
 11790 072f 9F       		.byte	0x9f
 11791 0730 6A000000 		.4byte	.LVL117
 11792 0734 70000000 		.4byte	.LVL118
 11793 0738 0300     		.2byte	0x3
 11794 073a 74       		.byte	0x74
 11795 073b 11       		.sleb128 17
 11796 073c 9F       		.byte	0x9f
 11797 073d 70000000 		.4byte	.LVL118
 11798 0741 7A000000 		.4byte	.LVL119
 11799 0745 0300     		.2byte	0x3
 11800 0747 74       		.byte	0x74
 11801 0748 12       		.sleb128 18
 11802 0749 9F       		.byte	0x9f
 11803 074a 7A000000 		.4byte	.LVL119
 11804 074e 84000000 		.4byte	.LVL120
 11805 0752 0300     		.2byte	0x3
 11806 0754 74       		.byte	0x74
 11807 0755 13       		.sleb128 19
 11808 0756 9F       		.byte	0x9f
 11809 0757 84000000 		.4byte	.LVL120
 11810 075b 8A000000 		.4byte	.LVL121
 11811 075f 0300     		.2byte	0x3
 11812 0761 74       		.byte	0x74
 11813 0762 14       		.sleb128 20
 11814 0763 9F       		.byte	0x9f
 11815 0764 8A000000 		.4byte	.LVL121
 11816 0768 90000000 		.4byte	.LVL122
 11817 076c 0300     		.2byte	0x3
 11818 076e 74       		.byte	0x74
 11819 076f 15       		.sleb128 21
 11820 0770 9F       		.byte	0x9f
 11821 0771 90000000 		.4byte	.LVL122
 11822 0775 9C000000 		.4byte	.LVL124
 11823 0779 0300     		.2byte	0x3
 11824 077b 74       		.byte	0x74
 11825 077c 16       		.sleb128 22
 11826 077d 9F       		.byte	0x9f
 11827 077e 9C000000 		.4byte	.LVL124
 11828 0782 A6000000 		.4byte	.LVL125
 11829 0786 0300     		.2byte	0x3
 11830 0788 74       		.byte	0x74
 11831 0789 17       		.sleb128 23
 11832 078a 9F       		.byte	0x9f
 11833 078b 00000000 		.4byte	0
 11834 078f 00000000 		.4byte	0
 11835              	.LLST32:
 11836 0793 00000000 		.4byte	.LVL97
 11837 0797 28000000 		.4byte	.LVL104
 11838 079b 0200     		.2byte	0x2
 11839 079d 30       		.byte	0x30
ARM GAS  C:\Users\Administrator\AppData\Local\Temp\ccX9Bf8z.s 			page 256


 11840 079e 9F       		.byte	0x9f
 11841 079f 28000000 		.4byte	.LVL104
 11842 07a3 30000000 		.4byte	.LVL105
 11843 07a7 0100     		.2byte	0x1
 11844 07a9 53       		.byte	0x53
 11845 07aa 3E000000 		.4byte	.LVL107
 11846 07ae 40000000 		.4byte	.LVL108
 11847 07b2 0200     		.2byte	0x2
 11848 07b4 30       		.byte	0x30
 11849 07b5 9F       		.byte	0x9f
 11850 07b6 40000000 		.4byte	.LVL108
 11851 07ba 50000000 		.4byte	.LVL110
 11852 07be 0100     		.2byte	0x1
 11853 07c0 53       		.byte	0x53
 11854 07c1 50000000 		.4byte	.LVL110
 11855 07c5 52000000 		.4byte	.LVL111
 11856 07c9 0300     		.2byte	0x3
 11857 07cb 73       		.byte	0x73
 11858 07cc 01       		.sleb128 1
 11859 07cd 9F       		.byte	0x9f
 11860 07ce 54000000 		.4byte	.LVL112
 11861 07d2 56000000 		.4byte	.LVL113
 11862 07d6 0100     		.2byte	0x1
 11863 07d8 53       		.byte	0x53
 11864 07d9 56000000 		.4byte	.LVL113
 11865 07dd 58000000 		.4byte	.LVL114
 11866 07e1 0100     		.2byte	0x1
 11867 07e3 52       		.byte	0x52
 11868 07e4 00000000 		.4byte	0
 11869 07e8 00000000 		.4byte	0
 11870              	.LLST33:
 11871 07ec 1C000000 		.4byte	.LVL100
 11872 07f0 3A000000 		.4byte	.LVL106
 11873 07f4 0100     		.2byte	0x1
 11874 07f6 50       		.byte	0x50
 11875 07f7 3A000000 		.4byte	.LVL106
 11876 07fb EA000000 		.4byte	.LVL128
 11877 07ff 0100     		.2byte	0x1
 11878 0801 55       		.byte	0x55
 11879 0802 EA000000 		.4byte	.LVL128
 11880 0806 00010000 		.4byte	.LFE67
 11881 080a 0400     		.2byte	0x4
 11882 080c F3       		.byte	0xf3
 11883 080d 01       		.uleb128 0x1
 11884 080e 50       		.byte	0x50
 11885 080f 9F       		.byte	0x9f
 11886 0810 00000000 		.4byte	0
 11887 0814 00000000 		.4byte	0
 11888              	.LLST34:
 11889 0818 00000000 		.4byte	.LVL129
 11890 081c 39000000 		.4byte	.LVL139-1
 11891 0820 0100     		.2byte	0x1
 11892 0822 50       		.byte	0x50
 11893 0823 39000000 		.4byte	.LVL139-1
 11894 0827 78000000 		.4byte	.LFE68
 11895 082b 0400     		.2byte	0x4
 11896 082d F3       		.byte	0xf3
ARM GAS  C:\Users\Administrator\AppData\Local\Temp\ccX9Bf8z.s 			page 257


 11897 082e 01       		.uleb128 0x1
 11898 082f 50       		.byte	0x50
 11899 0830 9F       		.byte	0x9f
 11900 0831 00000000 		.4byte	0
 11901 0835 00000000 		.4byte	0
 11902              	.LLST35:
 11903 0839 3A000000 		.4byte	.LVL139
 11904 083d 4C000000 		.4byte	.LVL142
 11905 0841 1800     		.2byte	0x18
 11906 0843 70       		.byte	0x70
 11907 0844 00       		.sleb128 0
 11908 0845 48       		.byte	0x48
 11909 0846 25       		.byte	0x25
 11910 0847 9F       		.byte	0x9f
 11911 0848 93       		.byte	0x93
 11912 0849 01       		.uleb128 0x1
 11913 084a 70       		.byte	0x70
 11914 084b 00       		.sleb128 0
 11915 084c 40       		.byte	0x40
 11916 084d 25       		.byte	0x25
 11917 084e 9F       		.byte	0x9f
 11918 084f 93       		.byte	0x93
 11919 0850 01       		.uleb128 0x1
 11920 0851 70       		.byte	0x70
 11921 0852 00       		.sleb128 0
 11922 0853 38       		.byte	0x38
 11923 0854 25       		.byte	0x25
 11924 0855 9F       		.byte	0x9f
 11925 0856 93       		.byte	0x93
 11926 0857 01       		.uleb128 0x1
 11927 0858 50       		.byte	0x50
 11928 0859 93       		.byte	0x93
 11929 085a 01       		.uleb128 0x1
 11930 085b 4C000000 		.4byte	.LVL142
 11931 085f 51000000 		.4byte	.LVL144-1
 11932 0863 0600     		.2byte	0x6
 11933 0865 93       		.byte	0x93
 11934 0866 03       		.uleb128 0x3
 11935 0867 70       		.byte	0x70
 11936 0868 11       		.sleb128 17
 11937 0869 93       		.byte	0x93
 11938 086a 01       		.uleb128 0x1
 11939 086b 00000000 		.4byte	0
 11940 086f 00000000 		.4byte	0
 11941              	.LLST36:
 11942 0873 3A000000 		.4byte	.LVL139
 11943 0877 4C000000 		.4byte	.LVL142
 11944 087b 0100     		.2byte	0x1
 11945 087d 50       		.byte	0x50
 11946 087e 00000000 		.4byte	0
 11947 0882 00000000 		.4byte	0
 11948              	.LLST37:
 11949 0886 00000000 		.4byte	.LVL129
 11950 088a 52000000 		.4byte	.LVL144
 11951 088e 0200     		.2byte	0x2
 11952 0890 30       		.byte	0x30
 11953 0891 9F       		.byte	0x9f
ARM GAS  C:\Users\Administrator\AppData\Local\Temp\ccX9Bf8z.s 			page 258


 11954 0892 52000000 		.4byte	.LVL144
 11955 0896 64000000 		.4byte	.LVL146
 11956 089a 0100     		.2byte	0x1
 11957 089c 50       		.byte	0x50
 11958 089d 00000000 		.4byte	0
 11959 08a1 00000000 		.4byte	0
 11960              	.LLST38:
 11961 08a5 00000000 		.4byte	.LVL129
 11962 08a9 0A000000 		.4byte	.LVL130
 11963 08ad 0200     		.2byte	0x2
 11964 08af 31       		.byte	0x31
 11965 08b0 9F       		.byte	0x9f
 11966 08b1 0A000000 		.4byte	.LVL130
 11967 08b5 0E000000 		.4byte	.LVL131
 11968 08b9 0200     		.2byte	0x2
 11969 08bb 32       		.byte	0x32
 11970 08bc 9F       		.byte	0x9f
 11971 08bd 0E000000 		.4byte	.LVL131
 11972 08c1 14000000 		.4byte	.LVL132
 11973 08c5 0200     		.2byte	0x2
 11974 08c7 33       		.byte	0x33
 11975 08c8 9F       		.byte	0x9f
 11976 08c9 14000000 		.4byte	.LVL132
 11977 08cd 18000000 		.4byte	.LVL133
 11978 08d1 0200     		.2byte	0x2
 11979 08d3 34       		.byte	0x34
 11980 08d4 9F       		.byte	0x9f
 11981 08d5 18000000 		.4byte	.LVL133
 11982 08d9 1C000000 		.4byte	.LVL134
 11983 08dd 0200     		.2byte	0x2
 11984 08df 35       		.byte	0x35
 11985 08e0 9F       		.byte	0x9f
 11986 08e1 1C000000 		.4byte	.LVL134
 11987 08e5 1E000000 		.4byte	.LVL135
 11988 08e9 0200     		.2byte	0x2
 11989 08eb 36       		.byte	0x36
 11990 08ec 9F       		.byte	0x9f
 11991 08ed 1E000000 		.4byte	.LVL135
 11992 08f1 22000000 		.4byte	.LVL136
 11993 08f5 0200     		.2byte	0x2
 11994 08f7 37       		.byte	0x37
 11995 08f8 9F       		.byte	0x9f
 11996 08f9 22000000 		.4byte	.LVL136
 11997 08fd 2A000000 		.4byte	.LVL137
 11998 0901 0300     		.2byte	0x3
 11999 0903 73       		.byte	0x73
 12000 0904 08       		.sleb128 8
 12001 0905 9F       		.byte	0x9f
 12002 0906 32000000 		.4byte	.LVL138
 12003 090a 3A000000 		.4byte	.LVL139
 12004 090e 0200     		.2byte	0x2
 12005 0910 3E       		.byte	0x3e
 12006 0911 9F       		.byte	0x9f
 12007 0912 3A000000 		.4byte	.LVL139
 12008 0916 40000000 		.4byte	.LVL140
 12009 091a 0200     		.2byte	0x2
 12010 091c 3F       		.byte	0x3f
ARM GAS  C:\Users\Administrator\AppData\Local\Temp\ccX9Bf8z.s 			page 259


 12011 091d 9F       		.byte	0x9f
 12012 091e 40000000 		.4byte	.LVL140
 12013 0922 44000000 		.4byte	.LVL141
 12014 0926 0200     		.2byte	0x2
 12015 0928 40       		.byte	0x40
 12016 0929 9F       		.byte	0x9f
 12017 092a 44000000 		.4byte	.LVL141
 12018 092e 4E000000 		.4byte	.LVL143
 12019 0932 0200     		.2byte	0x2
 12020 0934 41       		.byte	0x41
 12021 0935 9F       		.byte	0x9f
 12022 0936 4E000000 		.4byte	.LVL143
 12023 093a 52000000 		.4byte	.LVL144
 12024 093e 0200     		.2byte	0x2
 12025 0940 42       		.byte	0x42
 12026 0941 9F       		.byte	0x9f
 12027 0942 52000000 		.4byte	.LVL144
 12028 0946 58000000 		.4byte	.LVL145
 12029 094a 0200     		.2byte	0x2
 12030 094c 43       		.byte	0x43
 12031 094d 9F       		.byte	0x9f
 12032 094e 58000000 		.4byte	.LVL145
 12033 0952 78000000 		.4byte	.LFE68
 12034 0956 0200     		.2byte	0x2
 12035 0958 44       		.byte	0x44
 12036 0959 9F       		.byte	0x9f
 12037 095a 00000000 		.4byte	0
 12038 095e 00000000 		.4byte	0
 12039              	.LLST39:
 12040 0962 00000000 		.4byte	.LVL129
 12041 0966 22000000 		.4byte	.LVL136
 12042 096a 0200     		.2byte	0x2
 12043 096c 30       		.byte	0x30
 12044 096d 9F       		.byte	0x9f
 12045 096e 22000000 		.4byte	.LVL136
 12046 0972 2A000000 		.4byte	.LVL137
 12047 0976 0100     		.2byte	0x1
 12048 0978 53       		.byte	0x53
 12049 0979 00000000 		.4byte	0
 12050 097d 00000000 		.4byte	0
 12051              	.LLST40:
 12052 0981 00000000 		.4byte	.LVL148
 12053 0985 46000000 		.4byte	.LVL161
 12054 0989 0200     		.2byte	0x2
 12055 098b 30       		.byte	0x30
 12056 098c 9F       		.byte	0x9f
 12057 098d 46000000 		.4byte	.LVL161
 12058 0991 51000000 		.4byte	.LVL163-1
 12059 0995 0100     		.2byte	0x1
 12060 0997 50       		.byte	0x50
 12061 0998 00000000 		.4byte	0
 12062 099c 00000000 		.4byte	0
 12063              	.LLST41:
 12064 09a0 00000000 		.4byte	.LVL148
 12065 09a4 0A000000 		.4byte	.LVL149
 12066 09a8 0200     		.2byte	0x2
 12067 09aa 31       		.byte	0x31
ARM GAS  C:\Users\Administrator\AppData\Local\Temp\ccX9Bf8z.s 			page 260


 12068 09ab 9F       		.byte	0x9f
 12069 09ac 0A000000 		.4byte	.LVL149
 12070 09b0 0E000000 		.4byte	.LVL150
 12071 09b4 0200     		.2byte	0x2
 12072 09b6 32       		.byte	0x32
 12073 09b7 9F       		.byte	0x9f
 12074 09b8 0E000000 		.4byte	.LVL150
 12075 09bc 14000000 		.4byte	.LVL151
 12076 09c0 0200     		.2byte	0x2
 12077 09c2 33       		.byte	0x33
 12078 09c3 9F       		.byte	0x9f
 12079 09c4 14000000 		.4byte	.LVL151
 12080 09c8 18000000 		.4byte	.LVL152
 12081 09cc 0200     		.2byte	0x2
 12082 09ce 34       		.byte	0x34
 12083 09cf 9F       		.byte	0x9f
 12084 09d0 18000000 		.4byte	.LVL152
 12085 09d4 1C000000 		.4byte	.LVL153
 12086 09d8 0200     		.2byte	0x2
 12087 09da 35       		.byte	0x35
 12088 09db 9F       		.byte	0x9f
 12089 09dc 1C000000 		.4byte	.LVL153
 12090 09e0 1E000000 		.4byte	.LVL154
 12091 09e4 0200     		.2byte	0x2
 12092 09e6 36       		.byte	0x36
 12093 09e7 9F       		.byte	0x9f
 12094 09e8 1E000000 		.4byte	.LVL154
 12095 09ec 22000000 		.4byte	.LVL155
 12096 09f0 0200     		.2byte	0x2
 12097 09f2 37       		.byte	0x37
 12098 09f3 9F       		.byte	0x9f
 12099 09f4 22000000 		.4byte	.LVL155
 12100 09f8 2A000000 		.4byte	.LVL156
 12101 09fc 0300     		.2byte	0x3
 12102 09fe 73       		.byte	0x73
 12103 09ff 08       		.sleb128 8
 12104 0a00 9F       		.byte	0x9f
 12105 0a01 32000000 		.4byte	.LVL157
 12106 0a05 3C000000 		.4byte	.LVL158
 12107 0a09 0200     		.2byte	0x2
 12108 0a0b 3E       		.byte	0x3e
 12109 0a0c 9F       		.byte	0x9f
 12110 0a0d 3C000000 		.4byte	.LVL158
 12111 0a11 3E000000 		.4byte	.LVL159
 12112 0a15 0200     		.2byte	0x2
 12113 0a17 3F       		.byte	0x3f
 12114 0a18 9F       		.byte	0x9f
 12115 0a19 3E000000 		.4byte	.LVL159
 12116 0a1d 40000000 		.4byte	.LVL160
 12117 0a21 0200     		.2byte	0x2
 12118 0a23 40       		.byte	0x40
 12119 0a24 9F       		.byte	0x9f
 12120 0a25 40000000 		.4byte	.LVL160
 12121 0a29 46000000 		.4byte	.LVL161
 12122 0a2d 0200     		.2byte	0x2
 12123 0a2f 41       		.byte	0x41
 12124 0a30 9F       		.byte	0x9f
ARM GAS  C:\Users\Administrator\AppData\Local\Temp\ccX9Bf8z.s 			page 261


 12125 0a31 46000000 		.4byte	.LVL161
 12126 0a35 4C000000 		.4byte	.LVL162
 12127 0a39 0200     		.2byte	0x2
 12128 0a3b 42       		.byte	0x42
 12129 0a3c 9F       		.byte	0x9f
 12130 0a3d 4C000000 		.4byte	.LVL162
 12131 0a41 8C000000 		.4byte	.LFE69
 12132 0a45 0200     		.2byte	0x2
 12133 0a47 43       		.byte	0x43
 12134 0a48 9F       		.byte	0x9f
 12135 0a49 00000000 		.4byte	0
 12136 0a4d 00000000 		.4byte	0
 12137              	.LLST42:
 12138 0a51 00000000 		.4byte	.LVL148
 12139 0a55 22000000 		.4byte	.LVL155
 12140 0a59 0200     		.2byte	0x2
 12141 0a5b 30       		.byte	0x30
 12142 0a5c 9F       		.byte	0x9f
 12143 0a5d 22000000 		.4byte	.LVL155
 12144 0a61 2A000000 		.4byte	.LVL156
 12145 0a65 0100     		.2byte	0x1
 12146 0a67 53       		.byte	0x53
 12147 0a68 00000000 		.4byte	0
 12148 0a6c 00000000 		.4byte	0
 12149              	.LLST43:
 12150 0a70 00000000 		.4byte	.LVL165
 12151 0a74 39000000 		.4byte	.LVL175-1
 12152 0a78 0100     		.2byte	0x1
 12153 0a7a 50       		.byte	0x50
 12154 0a7b 39000000 		.4byte	.LVL175-1
 12155 0a7f 98000000 		.4byte	.LFE70
 12156 0a83 0400     		.2byte	0x4
 12157 0a85 F3       		.byte	0xf3
 12158 0a86 01       		.uleb128 0x1
 12159 0a87 50       		.byte	0x50
 12160 0a88 9F       		.byte	0x9f
 12161 0a89 00000000 		.4byte	0
 12162 0a8d 00000000 		.4byte	0
 12163              	.LLST44:
 12164 0a91 3A000000 		.4byte	.LVL175
 12165 0a95 4C000000 		.4byte	.LVL178
 12166 0a99 1800     		.2byte	0x18
 12167 0a9b 70       		.byte	0x70
 12168 0a9c 00       		.sleb128 0
 12169 0a9d 48       		.byte	0x48
 12170 0a9e 25       		.byte	0x25
 12171 0a9f 9F       		.byte	0x9f
 12172 0aa0 93       		.byte	0x93
 12173 0aa1 01       		.uleb128 0x1
 12174 0aa2 70       		.byte	0x70
 12175 0aa3 00       		.sleb128 0
 12176 0aa4 40       		.byte	0x40
 12177 0aa5 25       		.byte	0x25
 12178 0aa6 9F       		.byte	0x9f
 12179 0aa7 93       		.byte	0x93
 12180 0aa8 01       		.uleb128 0x1
 12181 0aa9 70       		.byte	0x70
ARM GAS  C:\Users\Administrator\AppData\Local\Temp\ccX9Bf8z.s 			page 262


 12182 0aaa 00       		.sleb128 0
 12183 0aab 38       		.byte	0x38
 12184 0aac 25       		.byte	0x25
 12185 0aad 9F       		.byte	0x9f
 12186 0aae 93       		.byte	0x93
 12187 0aaf 01       		.uleb128 0x1
 12188 0ab0 50       		.byte	0x50
 12189 0ab1 93       		.byte	0x93
 12190 0ab2 01       		.uleb128 0x1
 12191 0ab3 4C000000 		.4byte	.LVL178
 12192 0ab7 51000000 		.4byte	.LVL180-1
 12193 0abb 0600     		.2byte	0x6
 12194 0abd 93       		.byte	0x93
 12195 0abe 03       		.uleb128 0x3
 12196 0abf 70       		.byte	0x70
 12197 0ac0 11       		.sleb128 17
 12198 0ac1 93       		.byte	0x93
 12199 0ac2 01       		.uleb128 0x1
 12200 0ac3 00000000 		.4byte	0
 12201 0ac7 00000000 		.4byte	0
 12202              	.LLST45:
 12203 0acb 3A000000 		.4byte	.LVL175
 12204 0acf 4C000000 		.4byte	.LVL178
 12205 0ad3 0100     		.2byte	0x1
 12206 0ad5 50       		.byte	0x50
 12207 0ad6 00000000 		.4byte	0
 12208 0ada 00000000 		.4byte	0
 12209              	.LLST46:
 12210 0ade 00000000 		.4byte	.LVL165
 12211 0ae2 52000000 		.4byte	.LVL180
 12212 0ae6 0200     		.2byte	0x2
 12213 0ae8 30       		.byte	0x30
 12214 0ae9 9F       		.byte	0x9f
 12215 0aea 52000000 		.4byte	.LVL180
 12216 0aee 5D000000 		.4byte	.LVL182-1
 12217 0af2 0100     		.2byte	0x1
 12218 0af4 50       		.byte	0x50
 12219 0af5 00000000 		.4byte	0
 12220 0af9 00000000 		.4byte	0
 12221              	.LLST47:
 12222 0afd 00000000 		.4byte	.LVL165
 12223 0b01 0A000000 		.4byte	.LVL166
 12224 0b05 0200     		.2byte	0x2
 12225 0b07 31       		.byte	0x31
 12226 0b08 9F       		.byte	0x9f
 12227 0b09 0A000000 		.4byte	.LVL166
 12228 0b0d 0E000000 		.4byte	.LVL167
 12229 0b11 0200     		.2byte	0x2
 12230 0b13 32       		.byte	0x32
 12231 0b14 9F       		.byte	0x9f
 12232 0b15 0E000000 		.4byte	.LVL167
 12233 0b19 14000000 		.4byte	.LVL168
 12234 0b1d 0200     		.2byte	0x2
 12235 0b1f 33       		.byte	0x33
 12236 0b20 9F       		.byte	0x9f
 12237 0b21 14000000 		.4byte	.LVL168
 12238 0b25 18000000 		.4byte	.LVL169
ARM GAS  C:\Users\Administrator\AppData\Local\Temp\ccX9Bf8z.s 			page 263


 12239 0b29 0200     		.2byte	0x2
 12240 0b2b 34       		.byte	0x34
 12241 0b2c 9F       		.byte	0x9f
 12242 0b2d 18000000 		.4byte	.LVL169
 12243 0b31 1C000000 		.4byte	.LVL170
 12244 0b35 0200     		.2byte	0x2
 12245 0b37 35       		.byte	0x35
 12246 0b38 9F       		.byte	0x9f
 12247 0b39 1C000000 		.4byte	.LVL170
 12248 0b3d 1E000000 		.4byte	.LVL171
 12249 0b41 0200     		.2byte	0x2
 12250 0b43 36       		.byte	0x36
 12251 0b44 9F       		.byte	0x9f
 12252 0b45 1E000000 		.4byte	.LVL171
 12253 0b49 22000000 		.4byte	.LVL172
 12254 0b4d 0200     		.2byte	0x2
 12255 0b4f 37       		.byte	0x37
 12256 0b50 9F       		.byte	0x9f
 12257 0b51 22000000 		.4byte	.LVL172
 12258 0b55 2A000000 		.4byte	.LVL173
 12259 0b59 0300     		.2byte	0x3
 12260 0b5b 73       		.byte	0x73
 12261 0b5c 08       		.sleb128 8
 12262 0b5d 9F       		.byte	0x9f
 12263 0b5e 32000000 		.4byte	.LVL174
 12264 0b62 3A000000 		.4byte	.LVL175
 12265 0b66 0200     		.2byte	0x2
 12266 0b68 3E       		.byte	0x3e
 12267 0b69 9F       		.byte	0x9f
 12268 0b6a 3A000000 		.4byte	.LVL175
 12269 0b6e 40000000 		.4byte	.LVL176
 12270 0b72 0200     		.2byte	0x2
 12271 0b74 3F       		.byte	0x3f
 12272 0b75 9F       		.byte	0x9f
 12273 0b76 40000000 		.4byte	.LVL176
 12274 0b7a 44000000 		.4byte	.LVL177
 12275 0b7e 0200     		.2byte	0x2
 12276 0b80 40       		.byte	0x40
 12277 0b81 9F       		.byte	0x9f
 12278 0b82 44000000 		.4byte	.LVL177
 12279 0b86 4E000000 		.4byte	.LVL179
 12280 0b8a 0200     		.2byte	0x2
 12281 0b8c 41       		.byte	0x41
 12282 0b8d 9F       		.byte	0x9f
 12283 0b8e 4E000000 		.4byte	.LVL179
 12284 0b92 52000000 		.4byte	.LVL180
 12285 0b96 0200     		.2byte	0x2
 12286 0b98 42       		.byte	0x42
 12287 0b99 9F       		.byte	0x9f
 12288 0b9a 52000000 		.4byte	.LVL180
 12289 0b9e 58000000 		.4byte	.LVL181
 12290 0ba2 0200     		.2byte	0x2
 12291 0ba4 43       		.byte	0x43
 12292 0ba5 9F       		.byte	0x9f
 12293 0ba6 58000000 		.4byte	.LVL181
 12294 0baa 98000000 		.4byte	.LFE70
 12295 0bae 0200     		.2byte	0x2
ARM GAS  C:\Users\Administrator\AppData\Local\Temp\ccX9Bf8z.s 			page 264


 12296 0bb0 44       		.byte	0x44
 12297 0bb1 9F       		.byte	0x9f
 12298 0bb2 00000000 		.4byte	0
 12299 0bb6 00000000 		.4byte	0
 12300              	.LLST48:
 12301 0bba 00000000 		.4byte	.LVL165
 12302 0bbe 22000000 		.4byte	.LVL172
 12303 0bc2 0200     		.2byte	0x2
 12304 0bc4 30       		.byte	0x30
 12305 0bc5 9F       		.byte	0x9f
 12306 0bc6 22000000 		.4byte	.LVL172
 12307 0bca 2A000000 		.4byte	.LVL173
 12308 0bce 0100     		.2byte	0x1
 12309 0bd0 53       		.byte	0x53
 12310 0bd1 00000000 		.4byte	0
 12311 0bd5 00000000 		.4byte	0
 12312              	.LLST49:
 12313 0bd9 00000000 		.4byte	.LVL184
 12314 0bdd 49000000 		.4byte	.LVL197-1
 12315 0be1 0100     		.2byte	0x1
 12316 0be3 50       		.byte	0x50
 12317 0be4 49000000 		.4byte	.LVL197-1
 12318 0be8 8C000000 		.4byte	.LFE71
 12319 0bec 0400     		.2byte	0x4
 12320 0bee F3       		.byte	0xf3
 12321 0bef 01       		.uleb128 0x1
 12322 0bf0 50       		.byte	0x50
 12323 0bf1 9F       		.byte	0x9f
 12324 0bf2 00000000 		.4byte	0
 12325 0bf6 00000000 		.4byte	0
 12326              	.LLST50:
 12327 0bfa 4A000000 		.4byte	.LVL197
 12328 0bfe 5C000000 		.4byte	.LVL200
 12329 0c02 1800     		.2byte	0x18
 12330 0c04 70       		.byte	0x70
 12331 0c05 00       		.sleb128 0
 12332 0c06 48       		.byte	0x48
 12333 0c07 25       		.byte	0x25
 12334 0c08 9F       		.byte	0x9f
 12335 0c09 93       		.byte	0x93
 12336 0c0a 01       		.uleb128 0x1
 12337 0c0b 70       		.byte	0x70
 12338 0c0c 00       		.sleb128 0
 12339 0c0d 40       		.byte	0x40
 12340 0c0e 25       		.byte	0x25
 12341 0c0f 9F       		.byte	0x9f
 12342 0c10 93       		.byte	0x93
 12343 0c11 01       		.uleb128 0x1
 12344 0c12 70       		.byte	0x70
 12345 0c13 00       		.sleb128 0
 12346 0c14 38       		.byte	0x38
 12347 0c15 25       		.byte	0x25
 12348 0c16 9F       		.byte	0x9f
 12349 0c17 93       		.byte	0x93
 12350 0c18 01       		.uleb128 0x1
 12351 0c19 50       		.byte	0x50
 12352 0c1a 93       		.byte	0x93
ARM GAS  C:\Users\Administrator\AppData\Local\Temp\ccX9Bf8z.s 			page 265


 12353 0c1b 01       		.uleb128 0x1
 12354 0c1c 5C000000 		.4byte	.LVL200
 12355 0c20 61000000 		.4byte	.LVL202-1
 12356 0c24 0600     		.2byte	0x6
 12357 0c26 93       		.byte	0x93
 12358 0c27 03       		.uleb128 0x3
 12359 0c28 70       		.byte	0x70
 12360 0c29 14       		.sleb128 20
 12361 0c2a 93       		.byte	0x93
 12362 0c2b 01       		.uleb128 0x1
 12363 0c2c 00000000 		.4byte	0
 12364 0c30 00000000 		.4byte	0
 12365              	.LLST51:
 12366 0c34 4A000000 		.4byte	.LVL197
 12367 0c38 5C000000 		.4byte	.LVL200
 12368 0c3c 0100     		.2byte	0x1
 12369 0c3e 50       		.byte	0x50
 12370 0c3f 00000000 		.4byte	0
 12371 0c43 00000000 		.4byte	0
 12372              	.LLST52:
 12373 0c47 00000000 		.4byte	.LVL184
 12374 0c4b 62000000 		.4byte	.LVL202
 12375 0c4f 0200     		.2byte	0x2
 12376 0c51 30       		.byte	0x30
 12377 0c52 9F       		.byte	0x9f
 12378 0c53 62000000 		.4byte	.LVL202
 12379 0c57 74000000 		.4byte	.LVL204
 12380 0c5b 0100     		.2byte	0x1
 12381 0c5d 50       		.byte	0x50
 12382 0c5e 00000000 		.4byte	0
 12383 0c62 00000000 		.4byte	0
 12384              	.LLST53:
 12385 0c66 00000000 		.4byte	.LVL184
 12386 0c6a 0A000000 		.4byte	.LVL185
 12387 0c6e 0200     		.2byte	0x2
 12388 0c70 31       		.byte	0x31
 12389 0c71 9F       		.byte	0x9f
 12390 0c72 0A000000 		.4byte	.LVL185
 12391 0c76 0E000000 		.4byte	.LVL186
 12392 0c7a 0200     		.2byte	0x2
 12393 0c7c 32       		.byte	0x32
 12394 0c7d 9F       		.byte	0x9f
 12395 0c7e 0E000000 		.4byte	.LVL186
 12396 0c82 14000000 		.4byte	.LVL187
 12397 0c86 0200     		.2byte	0x2
 12398 0c88 33       		.byte	0x33
 12399 0c89 9F       		.byte	0x9f
 12400 0c8a 14000000 		.4byte	.LVL187
 12401 0c8e 18000000 		.4byte	.LVL188
 12402 0c92 0200     		.2byte	0x2
 12403 0c94 34       		.byte	0x34
 12404 0c95 9F       		.byte	0x9f
 12405 0c96 18000000 		.4byte	.LVL188
 12406 0c9a 1C000000 		.4byte	.LVL189
 12407 0c9e 0200     		.2byte	0x2
 12408 0ca0 35       		.byte	0x35
 12409 0ca1 9F       		.byte	0x9f
ARM GAS  C:\Users\Administrator\AppData\Local\Temp\ccX9Bf8z.s 			page 266


 12410 0ca2 1C000000 		.4byte	.LVL189
 12411 0ca6 1E000000 		.4byte	.LVL190
 12412 0caa 0200     		.2byte	0x2
 12413 0cac 36       		.byte	0x36
 12414 0cad 9F       		.byte	0x9f
 12415 0cae 1E000000 		.4byte	.LVL190
 12416 0cb2 22000000 		.4byte	.LVL191
 12417 0cb6 0200     		.2byte	0x2
 12418 0cb8 37       		.byte	0x37
 12419 0cb9 9F       		.byte	0x9f
 12420 0cba 22000000 		.4byte	.LVL191
 12421 0cbe 2A000000 		.4byte	.LVL192
 12422 0cc2 0300     		.2byte	0x3
 12423 0cc4 73       		.byte	0x73
 12424 0cc5 08       		.sleb128 8
 12425 0cc6 9F       		.byte	0x9f
 12426 0cc7 32000000 		.4byte	.LVL193
 12427 0ccb 3A000000 		.4byte	.LVL194
 12428 0ccf 0200     		.2byte	0x2
 12429 0cd1 3E       		.byte	0x3e
 12430 0cd2 9F       		.byte	0x9f
 12431 0cd3 3A000000 		.4byte	.LVL194
 12432 0cd7 3E000000 		.4byte	.LVL195
 12433 0cdb 0200     		.2byte	0x2
 12434 0cdd 3F       		.byte	0x3f
 12435 0cde 9F       		.byte	0x9f
 12436 0cdf 3E000000 		.4byte	.LVL195
 12437 0ce3 44000000 		.4byte	.LVL196
 12438 0ce7 0200     		.2byte	0x2
 12439 0ce9 40       		.byte	0x40
 12440 0cea 9F       		.byte	0x9f
 12441 0ceb 44000000 		.4byte	.LVL196
 12442 0cef 4A000000 		.4byte	.LVL197
 12443 0cf3 0200     		.2byte	0x2
 12444 0cf5 41       		.byte	0x41
 12445 0cf6 9F       		.byte	0x9f
 12446 0cf7 4A000000 		.4byte	.LVL197
 12447 0cfb 50000000 		.4byte	.LVL198
 12448 0cff 0200     		.2byte	0x2
 12449 0d01 42       		.byte	0x42
 12450 0d02 9F       		.byte	0x9f
 12451 0d03 50000000 		.4byte	.LVL198
 12452 0d07 54000000 		.4byte	.LVL199
 12453 0d0b 0200     		.2byte	0x2
 12454 0d0d 43       		.byte	0x43
 12455 0d0e 9F       		.byte	0x9f
 12456 0d0f 54000000 		.4byte	.LVL199
 12457 0d13 5E000000 		.4byte	.LVL201
 12458 0d17 0200     		.2byte	0x2
 12459 0d19 44       		.byte	0x44
 12460 0d1a 9F       		.byte	0x9f
 12461 0d1b 5E000000 		.4byte	.LVL201
 12462 0d1f 62000000 		.4byte	.LVL202
 12463 0d23 0200     		.2byte	0x2
 12464 0d25 45       		.byte	0x45
 12465 0d26 9F       		.byte	0x9f
 12466 0d27 62000000 		.4byte	.LVL202
ARM GAS  C:\Users\Administrator\AppData\Local\Temp\ccX9Bf8z.s 			page 267


 12467 0d2b 68000000 		.4byte	.LVL203
 12468 0d2f 0200     		.2byte	0x2
 12469 0d31 46       		.byte	0x46
 12470 0d32 9F       		.byte	0x9f
 12471 0d33 68000000 		.4byte	.LVL203
 12472 0d37 8C000000 		.4byte	.LFE71
 12473 0d3b 0200     		.2byte	0x2
 12474 0d3d 47       		.byte	0x47
 12475 0d3e 9F       		.byte	0x9f
 12476 0d3f 00000000 		.4byte	0
 12477 0d43 00000000 		.4byte	0
 12478              	.LLST54:
 12479 0d47 00000000 		.4byte	.LVL184
 12480 0d4b 22000000 		.4byte	.LVL191
 12481 0d4f 0200     		.2byte	0x2
 12482 0d51 30       		.byte	0x30
 12483 0d52 9F       		.byte	0x9f
 12484 0d53 22000000 		.4byte	.LVL191
 12485 0d57 2A000000 		.4byte	.LVL192
 12486 0d5b 0100     		.2byte	0x1
 12487 0d5d 53       		.byte	0x53
 12488 0d5e 00000000 		.4byte	0
 12489 0d62 00000000 		.4byte	0
 12490              	.LLST55:
 12491 0d66 00000000 		.4byte	.LVL206
 12492 0d6a 22000000 		.4byte	.LVL208
 12493 0d6e 0100     		.2byte	0x1
 12494 0d70 50       		.byte	0x50
 12495 0d71 22000000 		.4byte	.LVL208
 12496 0d75 39000000 		.4byte	.LVL212-1
 12497 0d79 0300     		.2byte	0x3
 12498 0d7b 70       		.byte	0x70
 12499 0d7c 71       		.sleb128 -15
 12500 0d7d 9F       		.byte	0x9f
 12501 0d7e 39000000 		.4byte	.LVL212-1
 12502 0d82 54000000 		.4byte	.LVL215
 12503 0d86 0300     		.2byte	0x3
 12504 0d88 76       		.byte	0x76
 12505 0d89 71       		.sleb128 -15
 12506 0d8a 9F       		.byte	0x9f
 12507 0d8b 54000000 		.4byte	.LVL215
 12508 0d8f CE000000 		.4byte	.LVL219
 12509 0d93 0400     		.2byte	0x4
 12510 0d95 F3       		.byte	0xf3
 12511 0d96 01       		.uleb128 0x1
 12512 0d97 50       		.byte	0x50
 12513 0d98 9F       		.byte	0x9f
 12514 0d99 CE000000 		.4byte	.LVL219
 12515 0d9d DF000000 		.4byte	.LVL221-1
 12516 0da1 0100     		.2byte	0x1
 12517 0da3 50       		.byte	0x50
 12518 0da4 DF000000 		.4byte	.LVL221-1
 12519 0da8 1C010000 		.4byte	.LFE87
 12520 0dac 0400     		.2byte	0x4
 12521 0dae F3       		.byte	0xf3
 12522 0daf 01       		.uleb128 0x1
 12523 0db0 50       		.byte	0x50
ARM GAS  C:\Users\Administrator\AppData\Local\Temp\ccX9Bf8z.s 			page 268


 12524 0db1 9F       		.byte	0x9f
 12525 0db2 00000000 		.4byte	0
 12526 0db6 00000000 		.4byte	0
 12527              	.LLST56:
 12528 0dba 18000000 		.4byte	.LVL207
 12529 0dbe F0000000 		.4byte	.LVL223
 12530 0dc2 0100     		.2byte	0x1
 12531 0dc4 55       		.byte	0x55
 12532 0dc5 00000000 		.4byte	0
 12533 0dc9 00000000 		.4byte	0
 12534              	.LLST57:
 12535 0dcd 18000000 		.4byte	.LVL207
 12536 0dd1 28000000 		.4byte	.LVL209
 12537 0dd5 0E00     		.2byte	0xe
 12538 0dd7 74       		.byte	0x74
 12539 0dd8 00       		.sleb128 0
 12540 0dd9 08       		.byte	0x8
 12541 0dda FF       		.byte	0xff
 12542 0ddb 1A       		.byte	0x1a
 12543 0ddc 38       		.byte	0x38
 12544 0ddd 24       		.byte	0x24
 12545 0dde 73       		.byte	0x73
 12546 0ddf 00       		.sleb128 0
 12547 0de0 08       		.byte	0x8
 12548 0de1 FF       		.byte	0xff
 12549 0de2 1A       		.byte	0x1a
 12550 0de3 22       		.byte	0x22
 12551 0de4 9F       		.byte	0x9f
 12552 0de5 28000000 		.4byte	.LVL209
 12553 0de9 2A000000 		.4byte	.LVL210
 12554 0ded 0E00     		.2byte	0xe
 12555 0def 74       		.byte	0x74
 12556 0df0 00       		.sleb128 0
 12557 0df1 08       		.byte	0x8
 12558 0df2 FF       		.byte	0xff
 12559 0df3 1A       		.byte	0x1a
 12560 0df4 38       		.byte	0x38
 12561 0df5 24       		.byte	0x24
 12562 0df6 73       		.byte	0x73
 12563 0df7 12       		.sleb128 18
 12564 0df8 08       		.byte	0x8
 12565 0df9 FF       		.byte	0xff
 12566 0dfa 1A       		.byte	0x1a
 12567 0dfb 22       		.byte	0x22
 12568 0dfc 9F       		.byte	0x9f
 12569 0dfd 2A000000 		.4byte	.LVL210
 12570 0e01 30000000 		.4byte	.LVL211
 12571 0e05 1000     		.2byte	0x10
 12572 0e07 70       		.byte	0x70
 12573 0e08 73       		.sleb128 -13
 12574 0e09 94       		.byte	0x94
 12575 0e0a 01       		.byte	0x1
 12576 0e0b 08       		.byte	0x8
 12577 0e0c FF       		.byte	0xff
 12578 0e0d 1A       		.byte	0x1a
 12579 0e0e 38       		.byte	0x38
 12580 0e0f 24       		.byte	0x24
ARM GAS  C:\Users\Administrator\AppData\Local\Temp\ccX9Bf8z.s 			page 269


 12581 0e10 73       		.byte	0x73
 12582 0e11 12       		.sleb128 18
 12583 0e12 08       		.byte	0x8
 12584 0e13 FF       		.byte	0xff
 12585 0e14 1A       		.byte	0x1a
 12586 0e15 22       		.byte	0x22
 12587 0e16 9F       		.byte	0x9f
 12588 0e17 30000000 		.4byte	.LVL211
 12589 0e1b 39000000 		.4byte	.LVL212-1
 12590 0e1f 1200     		.2byte	0x12
 12591 0e21 70       		.byte	0x70
 12592 0e22 73       		.sleb128 -13
 12593 0e23 94       		.byte	0x94
 12594 0e24 01       		.byte	0x1
 12595 0e25 08       		.byte	0x8
 12596 0e26 FF       		.byte	0xff
 12597 0e27 1A       		.byte	0x1a
 12598 0e28 38       		.byte	0x38
 12599 0e29 24       		.byte	0x24
 12600 0e2a 70       		.byte	0x70
 12601 0e2b 74       		.sleb128 -12
 12602 0e2c 94       		.byte	0x94
 12603 0e2d 01       		.byte	0x1
 12604 0e2e 08       		.byte	0x8
 12605 0e2f FF       		.byte	0xff
 12606 0e30 1A       		.byte	0x1a
 12607 0e31 22       		.byte	0x22
 12608 0e32 9F       		.byte	0x9f
 12609 0e33 CE000000 		.4byte	.LVL219
 12610 0e37 D2000000 		.4byte	.LVL220
 12611 0e3b 0E00     		.2byte	0xe
 12612 0e3d 74       		.byte	0x74
 12613 0e3e 00       		.sleb128 0
 12614 0e3f 08       		.byte	0x8
 12615 0e40 FF       		.byte	0xff
 12616 0e41 1A       		.byte	0x1a
 12617 0e42 38       		.byte	0x38
 12618 0e43 24       		.byte	0x24
 12619 0e44 73       		.byte	0x73
 12620 0e45 00       		.sleb128 0
 12621 0e46 08       		.byte	0x8
 12622 0e47 FF       		.byte	0xff
 12623 0e48 1A       		.byte	0x1a
 12624 0e49 22       		.byte	0x22
 12625 0e4a 9F       		.byte	0x9f
 12626 0e4b D2000000 		.4byte	.LVL220
 12627 0e4f DF000000 		.4byte	.LVL221-1
 12628 0e53 1000     		.2byte	0x10
 12629 0e55 74       		.byte	0x74
 12630 0e56 00       		.sleb128 0
 12631 0e57 08       		.byte	0x8
 12632 0e58 FF       		.byte	0xff
 12633 0e59 1A       		.byte	0x1a
 12634 0e5a 38       		.byte	0x38
 12635 0e5b 24       		.byte	0x24
 12636 0e5c 70       		.byte	0x70
 12637 0e5d 03       		.sleb128 3
ARM GAS  C:\Users\Administrator\AppData\Local\Temp\ccX9Bf8z.s 			page 270


 12638 0e5e 94       		.byte	0x94
 12639 0e5f 01       		.byte	0x1
 12640 0e60 08       		.byte	0x8
 12641 0e61 FF       		.byte	0xff
 12642 0e62 1A       		.byte	0x1a
 12643 0e63 22       		.byte	0x22
 12644 0e64 9F       		.byte	0x9f
 12645 0e65 00000000 		.4byte	0
 12646 0e69 00000000 		.4byte	0
 12647              	.LLST58:
 12648 0e6d 18000000 		.4byte	.LVL207
 12649 0e71 28000000 		.4byte	.LVL209
 12650 0e75 1000     		.2byte	0x10
 12651 0e77 74       		.byte	0x74
 12652 0e78 00       		.sleb128 0
 12653 0e79 08       		.byte	0x8
 12654 0e7a FF       		.byte	0xff
 12655 0e7b 1A       		.byte	0x1a
 12656 0e7c 38       		.byte	0x38
 12657 0e7d 24       		.byte	0x24
 12658 0e7e 73       		.byte	0x73
 12659 0e7f 00       		.sleb128 0
 12660 0e80 08       		.byte	0x8
 12661 0e81 FF       		.byte	0xff
 12662 0e82 1A       		.byte	0x1a
 12663 0e83 22       		.byte	0x22
 12664 0e84 42       		.byte	0x42
 12665 0e85 1C       		.byte	0x1c
 12666 0e86 9F       		.byte	0x9f
 12667 0e87 28000000 		.4byte	.LVL209
 12668 0e8b 2A000000 		.4byte	.LVL210
 12669 0e8f 1000     		.2byte	0x10
 12670 0e91 74       		.byte	0x74
 12671 0e92 00       		.sleb128 0
 12672 0e93 08       		.byte	0x8
 12673 0e94 FF       		.byte	0xff
 12674 0e95 1A       		.byte	0x1a
 12675 0e96 38       		.byte	0x38
 12676 0e97 24       		.byte	0x24
 12677 0e98 73       		.byte	0x73
 12678 0e99 12       		.sleb128 18
 12679 0e9a 08       		.byte	0x8
 12680 0e9b FF       		.byte	0xff
 12681 0e9c 1A       		.byte	0x1a
 12682 0e9d 22       		.byte	0x22
 12683 0e9e 42       		.byte	0x42
 12684 0e9f 1C       		.byte	0x1c
 12685 0ea0 9F       		.byte	0x9f
 12686 0ea1 2A000000 		.4byte	.LVL210
 12687 0ea5 30000000 		.4byte	.LVL211
 12688 0ea9 1200     		.2byte	0x12
 12689 0eab 70       		.byte	0x70
 12690 0eac 73       		.sleb128 -13
 12691 0ead 94       		.byte	0x94
 12692 0eae 01       		.byte	0x1
 12693 0eaf 08       		.byte	0x8
 12694 0eb0 FF       		.byte	0xff
ARM GAS  C:\Users\Administrator\AppData\Local\Temp\ccX9Bf8z.s 			page 271


 12695 0eb1 1A       		.byte	0x1a
 12696 0eb2 38       		.byte	0x38
 12697 0eb3 24       		.byte	0x24
 12698 0eb4 73       		.byte	0x73
 12699 0eb5 12       		.sleb128 18
 12700 0eb6 08       		.byte	0x8
 12701 0eb7 FF       		.byte	0xff
 12702 0eb8 1A       		.byte	0x1a
 12703 0eb9 22       		.byte	0x22
 12704 0eba 42       		.byte	0x42
 12705 0ebb 1C       		.byte	0x1c
 12706 0ebc 9F       		.byte	0x9f
 12707 0ebd 30000000 		.4byte	.LVL211
 12708 0ec1 39000000 		.4byte	.LVL212-1
 12709 0ec5 1400     		.2byte	0x14
 12710 0ec7 70       		.byte	0x70
 12711 0ec8 73       		.sleb128 -13
 12712 0ec9 94       		.byte	0x94
 12713 0eca 01       		.byte	0x1
 12714 0ecb 08       		.byte	0x8
 12715 0ecc FF       		.byte	0xff
 12716 0ecd 1A       		.byte	0x1a
 12717 0ece 38       		.byte	0x38
 12718 0ecf 24       		.byte	0x24
 12719 0ed0 70       		.byte	0x70
 12720 0ed1 74       		.sleb128 -12
 12721 0ed2 94       		.byte	0x94
 12722 0ed3 01       		.byte	0x1
 12723 0ed4 08       		.byte	0x8
 12724 0ed5 FF       		.byte	0xff
 12725 0ed6 1A       		.byte	0x1a
 12726 0ed7 22       		.byte	0x22
 12727 0ed8 42       		.byte	0x42
 12728 0ed9 1C       		.byte	0x1c
 12729 0eda 9F       		.byte	0x9f
 12730 0edb CE000000 		.4byte	.LVL219
 12731 0edf D2000000 		.4byte	.LVL220
 12732 0ee3 1000     		.2byte	0x10
 12733 0ee5 74       		.byte	0x74
 12734 0ee6 00       		.sleb128 0
 12735 0ee7 08       		.byte	0x8
 12736 0ee8 FF       		.byte	0xff
 12737 0ee9 1A       		.byte	0x1a
 12738 0eea 38       		.byte	0x38
 12739 0eeb 24       		.byte	0x24
 12740 0eec 73       		.byte	0x73
 12741 0eed 00       		.sleb128 0
 12742 0eee 08       		.byte	0x8
 12743 0eef FF       		.byte	0xff
 12744 0ef0 1A       		.byte	0x1a
 12745 0ef1 22       		.byte	0x22
 12746 0ef2 42       		.byte	0x42
 12747 0ef3 1C       		.byte	0x1c
 12748 0ef4 9F       		.byte	0x9f
 12749 0ef5 D2000000 		.4byte	.LVL220
 12750 0ef9 DF000000 		.4byte	.LVL221-1
 12751 0efd 1200     		.2byte	0x12
ARM GAS  C:\Users\Administrator\AppData\Local\Temp\ccX9Bf8z.s 			page 272


 12752 0eff 74       		.byte	0x74
 12753 0f00 00       		.sleb128 0
 12754 0f01 08       		.byte	0x8
 12755 0f02 FF       		.byte	0xff
 12756 0f03 1A       		.byte	0x1a
 12757 0f04 38       		.byte	0x38
 12758 0f05 24       		.byte	0x24
 12759 0f06 70       		.byte	0x70
 12760 0f07 03       		.sleb128 3
 12761 0f08 94       		.byte	0x94
 12762 0f09 01       		.byte	0x1
 12763 0f0a 08       		.byte	0x8
 12764 0f0b FF       		.byte	0xff
 12765 0f0c 1A       		.byte	0x1a
 12766 0f0d 22       		.byte	0x22
 12767 0f0e 42       		.byte	0x42
 12768 0f0f 1C       		.byte	0x1c
 12769 0f10 9F       		.byte	0x9f
 12770 0f11 00000000 		.4byte	0
 12771 0f15 00000000 		.4byte	0
 12772              	.LLST59:
 12773 0f19 00000000 		.4byte	.LVL224
 12774 0f1d 14000000 		.4byte	.LVL227
 12775 0f21 0100     		.2byte	0x1
 12776 0f23 50       		.byte	0x50
 12777 0f24 14000000 		.4byte	.LVL227
 12778 0f28 B4000000 		.4byte	.LFE72
 12779 0f2c 0400     		.2byte	0x4
 12780 0f2e F3       		.byte	0xf3
 12781 0f2f 01       		.uleb128 0x1
 12782 0f30 50       		.byte	0x50
 12783 0f31 9F       		.byte	0x9f
 12784 0f32 00000000 		.4byte	0
 12785 0f36 00000000 		.4byte	0
 12786              	.LLST60:
 12787 0f3a 00000000 		.4byte	.LVL224
 12788 0f3e 16000000 		.4byte	.LVL228
 12789 0f42 0100     		.2byte	0x1
 12790 0f44 51       		.byte	0x51
 12791 0f45 16000000 		.4byte	.LVL228
 12792 0f49 B4000000 		.4byte	.LFE72
 12793 0f4d 0400     		.2byte	0x4
 12794 0f4f F3       		.byte	0xf3
 12795 0f50 01       		.uleb128 0x1
 12796 0f51 51       		.byte	0x51
 12797 0f52 9F       		.byte	0x9f
 12798 0f53 00000000 		.4byte	0
 12799 0f57 00000000 		.4byte	0
 12800              	.LLST61:
 12801 0f5b 00000000 		.4byte	.LVL224
 12802 0f5f 08000000 		.4byte	.LVL225
 12803 0f63 0100     		.2byte	0x1
 12804 0f65 52       		.byte	0x52
 12805 0f66 08000000 		.4byte	.LVL225
 12806 0f6a B4000000 		.4byte	.LFE72
 12807 0f6e 0400     		.2byte	0x4
 12808 0f70 F3       		.byte	0xf3
ARM GAS  C:\Users\Administrator\AppData\Local\Temp\ccX9Bf8z.s 			page 273


 12809 0f71 01       		.uleb128 0x1
 12810 0f72 52       		.byte	0x52
 12811 0f73 9F       		.byte	0x9f
 12812 0f74 00000000 		.4byte	0
 12813 0f78 00000000 		.4byte	0
 12814              	.LLST62:
 12815 0f7c 00000000 		.4byte	.LVL224
 12816 0f80 12000000 		.4byte	.LVL226
 12817 0f84 0100     		.2byte	0x1
 12818 0f86 53       		.byte	0x53
 12819 0f87 12000000 		.4byte	.LVL226
 12820 0f8b 1B000000 		.4byte	.LVL229-1
 12821 0f8f 0300     		.2byte	0x3
 12822 0f91 73       		.byte	0x73
 12823 0f92 E47D     		.sleb128 -284
 12824 0f94 1B000000 		.4byte	.LVL229-1
 12825 0f98 B4000000 		.4byte	.LFE72
 12826 0f9c 0300     		.2byte	0x3
 12827 0f9e 91       		.byte	0x91
 12828 0f9f E47D     		.sleb128 -284
 12829 0fa1 00000000 		.4byte	0
 12830 0fa5 00000000 		.4byte	0
 12831              	.LLST63:
 12832 0fa9 00000000 		.4byte	.LVL224
 12833 0fad 12000000 		.4byte	.LVL226
 12834 0fb1 0200     		.2byte	0x2
 12835 0fb3 91       		.byte	0x91
 12836 0fb4 00       		.sleb128 0
 12837 0fb5 12000000 		.4byte	.LVL226
 12838 0fb9 1B000000 		.4byte	.LVL229-1
 12839 0fbd 0200     		.2byte	0x2
 12840 0fbf 73       		.byte	0x73
 12841 0fc0 00       		.sleb128 0
 12842 0fc1 1B000000 		.4byte	.LVL229-1
 12843 0fc5 B4000000 		.4byte	.LFE72
 12844 0fc9 0200     		.2byte	0x2
 12845 0fcb 91       		.byte	0x91
 12846 0fcc 00       		.sleb128 0
 12847 0fcd 00000000 		.4byte	0
 12848 0fd1 00000000 		.4byte	0
 12849              	.LLST64:
 12850 0fd5 4C000000 		.4byte	.LVL235
 12851 0fd9 56000000 		.4byte	.LVL237
 12852 0fdd 0100     		.2byte	0x1
 12853 0fdf 53       		.byte	0x53
 12854 0fe0 56000000 		.4byte	.LVL237
 12855 0fe4 5A000000 		.4byte	.LVL238
 12856 0fe8 0300     		.2byte	0x3
 12857 0fea 74       		.byte	0x74
 12858 0feb 79       		.sleb128 -7
 12859 0fec 9F       		.byte	0x9f
 12860 0fed 5A000000 		.4byte	.LVL238
 12861 0ff1 5E000000 		.4byte	.LVL239
 12862 0ff5 0300     		.2byte	0x3
 12863 0ff7 72       		.byte	0x72
 12864 0ff8 79       		.sleb128 -7
 12865 0ff9 9F       		.byte	0x9f
ARM GAS  C:\Users\Administrator\AppData\Local\Temp\ccX9Bf8z.s 			page 274


 12866 0ffa 00000000 		.4byte	0
 12867 0ffe 00000000 		.4byte	0
 12868              	.LLST65:
 12869 1002 00000000 		.4byte	.LVL224
 12870 1006 26000000 		.4byte	.LVL230
 12871 100a 0200     		.2byte	0x2
 12872 100c 30       		.byte	0x30
 12873 100d 9F       		.byte	0x9f
 12874 100e 26000000 		.4byte	.LVL230
 12875 1012 2A000000 		.4byte	.LVL231
 12876 1016 0200     		.2byte	0x2
 12877 1018 32       		.byte	0x32
 12878 1019 9F       		.byte	0x9f
 12879 101a 2A000000 		.4byte	.LVL231
 12880 101e 2E000000 		.4byte	.LVL232
 12881 1022 0200     		.2byte	0x2
 12882 1024 33       		.byte	0x33
 12883 1025 9F       		.byte	0x9f
 12884 1026 2E000000 		.4byte	.LVL232
 12885 102a 3A000000 		.4byte	.LVL233
 12886 102e 0200     		.2byte	0x2
 12887 1030 34       		.byte	0x34
 12888 1031 9F       		.byte	0x9f
 12889 1032 3A000000 		.4byte	.LVL233
 12890 1036 48000000 		.4byte	.LVL234
 12891 103a 0200     		.2byte	0x2
 12892 103c 37       		.byte	0x37
 12893 103d 9F       		.byte	0x9f
 12894 103e 4C000000 		.4byte	.LVL235
 12895 1042 54000000 		.4byte	.LVL236
 12896 1046 0100     		.2byte	0x1
 12897 1048 54       		.byte	0x54
 12898 1049 54000000 		.4byte	.LVL236
 12899 104d 5E000000 		.4byte	.LVL239
 12900 1051 0100     		.2byte	0x1
 12901 1053 52       		.byte	0x52
 12902 1054 5E000000 		.4byte	.LVL239
 12903 1058 66000000 		.4byte	.LVL240
 12904 105c 0100     		.2byte	0x1
 12905 105e 54       		.byte	0x54
 12906 105f 66000000 		.4byte	.LVL240
 12907 1063 70000000 		.4byte	.LVL242
 12908 1067 0300     		.2byte	0x3
 12909 1069 74       		.byte	0x74
 12910 106a 01       		.sleb128 1
 12911 106b 9F       		.byte	0x9f
 12912 106c 74000000 		.4byte	.LVL243
 12913 1070 A8000000 		.4byte	.LVL249
 12914 1074 0100     		.2byte	0x1
 12915 1076 55       		.byte	0x55
 12916 1077 00000000 		.4byte	0
 12917 107b 00000000 		.4byte	0
 12918              	.LLST66:
 12919 107f 66000000 		.4byte	.LVL240
 12920 1083 7C000000 		.4byte	.LVL244
 12921 1087 0100     		.2byte	0x1
 12922 1089 50       		.byte	0x50
ARM GAS  C:\Users\Administrator\AppData\Local\Temp\ccX9Bf8z.s 			page 275


 12923 108a 84000000 		.4byte	.LVL246
 12924 108e 8B000000 		.4byte	.LVL247-1
 12925 1092 0100     		.2byte	0x1
 12926 1094 50       		.byte	0x50
 12927 1095 00000000 		.4byte	0
 12928 1099 00000000 		.4byte	0
 12929              	.LLST67:
 12930 109d 26000000 		.4byte	.LVL230
 12931 10a1 6E000000 		.4byte	.LVL241
 12932 10a5 0100     		.2byte	0x1
 12933 10a7 55       		.byte	0x55
 12934 10a8 6E000000 		.4byte	.LVL241
 12935 10ac A8000000 		.4byte	.LVL250
 12936 10b0 0300     		.2byte	0x3
 12937 10b2 77       		.byte	0x77
 12938 10b3 05       		.sleb128 5
 12939 10b4 9F       		.byte	0x9f
 12940 10b5 A8000000 		.4byte	.LVL250
 12941 10b9 B4000000 		.4byte	.LFE72
 12942 10bd 0B00     		.2byte	0xb
 12943 10bf 91       		.byte	0x91
 12944 10c0 00       		.sleb128 0
 12945 10c1 94       		.byte	0x94
 12946 10c2 02       		.byte	0x2
 12947 10c3 0A       		.byte	0xa
 12948 10c4 FFFF     		.2byte	0xffff
 12949 10c6 1A       		.byte	0x1a
 12950 10c7 23       		.byte	0x23
 12951 10c8 05       		.uleb128 0x5
 12952 10c9 9F       		.byte	0x9f
 12953 10ca 00000000 		.4byte	0
 12954 10ce 00000000 		.4byte	0
 12955              	.LLST68:
 12956 10d2 00000000 		.4byte	.LVL251
 12957 10d6 20000000 		.4byte	.LVL254
 12958 10da 0100     		.2byte	0x1
 12959 10dc 50       		.byte	0x50
 12960 10dd 20000000 		.4byte	.LVL254
 12961 10e1 D2000000 		.4byte	.LVL273
 12962 10e5 0100     		.2byte	0x1
 12963 10e7 56       		.byte	0x56
 12964 10e8 D2000000 		.4byte	.LVL273
 12965 10ec DC000000 		.4byte	.LFE75
 12966 10f0 0400     		.2byte	0x4
 12967 10f2 F3       		.byte	0xf3
 12968 10f3 01       		.uleb128 0x1
 12969 10f4 50       		.byte	0x50
 12970 10f5 9F       		.byte	0x9f
 12971 10f6 00000000 		.4byte	0
 12972 10fa 00000000 		.4byte	0
 12973              	.LLST69:
 12974 10fe 40000000 		.4byte	.LVL260
 12975 1102 52000000 		.4byte	.LVL262
 12976 1106 0100     		.2byte	0x1
 12977 1108 55       		.byte	0x55
 12978 1109 74000000 		.4byte	.LVL263
 12979 110d D2000000 		.4byte	.LVL272
ARM GAS  C:\Users\Administrator\AppData\Local\Temp\ccX9Bf8z.s 			page 276


 12980 1111 0100     		.2byte	0x1
 12981 1113 55       		.byte	0x55
 12982 1114 00000000 		.4byte	0
 12983 1118 00000000 		.4byte	0
 12984              	.LLST70:
 12985 111c 10000000 		.4byte	.LVL252
 12986 1120 20000000 		.4byte	.LVL254
 12987 1124 0400     		.2byte	0x4
 12988 1126 91       		.byte	0x91
 12989 1127 A87F     		.sleb128 -88
 12990 1129 9F       		.byte	0x9f
 12991 112a 20000000 		.4byte	.LVL254
 12992 112e 29000000 		.4byte	.LVL256-1
 12993 1132 0100     		.2byte	0x1
 12994 1134 50       		.byte	0x50
 12995 1135 29000000 		.4byte	.LVL256-1
 12996 1139 30000000 		.4byte	.LVL257
 12997 113d 0400     		.2byte	0x4
 12998 113f 91       		.byte	0x91
 12999 1140 A87F     		.sleb128 -88
 13000 1142 9F       		.byte	0x9f
 13001 1143 30000000 		.4byte	.LVL257
 13002 1147 33000000 		.4byte	.LVL258-1
 13003 114b 0100     		.2byte	0x1
 13004 114d 50       		.byte	0x50
 13005 114e 33000000 		.4byte	.LVL258-1
 13006 1152 34000000 		.4byte	.LVL258
 13007 1156 0400     		.2byte	0x4
 13008 1158 91       		.byte	0x91
 13009 1159 A87F     		.sleb128 -88
 13010 115b 9F       		.byte	0x9f
 13011 115c 34000000 		.4byte	.LVL258
 13012 1160 A2000000 		.4byte	.LVL268
 13013 1164 0400     		.2byte	0x4
 13014 1166 91       		.byte	0x91
 13015 1167 AE7F     		.sleb128 -82
 13016 1169 9F       		.byte	0x9f
 13017 116a A2000000 		.4byte	.LVL268
 13018 116e B4000000 		.4byte	.LVL270
 13019 1172 0400     		.2byte	0x4
 13020 1174 91       		.byte	0x91
 13021 1175 B67F     		.sleb128 -74
 13022 1177 9F       		.byte	0x9f
 13023 1178 B4000000 		.4byte	.LVL270
 13024 117c DC000000 		.4byte	.LFE75
 13025 1180 0400     		.2byte	0x4
 13026 1182 91       		.byte	0x91
 13027 1183 BA7F     		.sleb128 -70
 13028 1185 9F       		.byte	0x9f
 13029 1186 00000000 		.4byte	0
 13030 118a 00000000 		.4byte	0
 13031              	.LLST71:
 13032 118e 12000000 		.4byte	.LVL253
 13033 1192 98000000 		.4byte	.LVL267
 13034 1196 0300     		.2byte	0x3
 13035 1198 91       		.byte	0x91
 13036 1199 987F     		.sleb128 -104
ARM GAS  C:\Users\Administrator\AppData\Local\Temp\ccX9Bf8z.s 			page 277


 13037 119b 98000000 		.4byte	.LVL267
 13038 119f A1000000 		.4byte	.LVL268-1
 13039 11a3 0200     		.2byte	0x2
 13040 11a5 73       		.byte	0x73
 13041 11a6 00       		.sleb128 0
 13042 11a7 A1000000 		.4byte	.LVL268-1
 13043 11ab A8000000 		.4byte	.LVL269
 13044 11af 0300     		.2byte	0x3
 13045 11b1 91       		.byte	0x91
 13046 11b2 987F     		.sleb128 -104
 13047 11b4 A8000000 		.4byte	.LVL269
 13048 11b8 B3000000 		.4byte	.LVL270-1
 13049 11bc 0200     		.2byte	0x2
 13050 11be 73       		.byte	0x73
 13051 11bf 00       		.sleb128 0
 13052 11c0 B3000000 		.4byte	.LVL270-1
 13053 11c4 DC000000 		.4byte	.LFE75
 13054 11c8 0300     		.2byte	0x3
 13055 11ca 91       		.byte	0x91
 13056 11cb 987F     		.sleb128 -104
 13057 11cd 00000000 		.4byte	0
 13058 11d1 00000000 		.4byte	0
 13059              	.LLST72:
 13060 11d5 00000000 		.4byte	.LVL274
 13061 11d9 1E000000 		.4byte	.LVL278
 13062 11dd 0100     		.2byte	0x1
 13063 11df 50       		.byte	0x50
 13064 11e0 1E000000 		.4byte	.LVL278
 13065 11e4 BA000000 		.4byte	.LVL295
 13066 11e8 0100     		.2byte	0x1
 13067 11ea 54       		.byte	0x54
 13068 11eb BA000000 		.4byte	.LVL295
 13069 11ef BA000000 		.4byte	.LVL296
 13070 11f3 0300     		.2byte	0x3
 13071 11f5 77       		.byte	0x77
 13072 11f6 6B       		.sleb128 -21
 13073 11f7 9F       		.byte	0x9f
 13074 11f8 BA000000 		.4byte	.LVL296
 13075 11fc BC000000 		.4byte	.LFE76
 13076 1200 0400     		.2byte	0x4
 13077 1202 F3       		.byte	0xf3
 13078 1203 01       		.uleb128 0x1
 13079 1204 50       		.byte	0x50
 13080 1205 9F       		.byte	0x9f
 13081 1206 00000000 		.4byte	0
 13082 120a 00000000 		.4byte	0
 13083              	.LLST73:
 13084 120e 0E000000 		.4byte	.LVL275
 13085 1212 16000000 		.4byte	.LVL277
 13086 1216 0400     		.2byte	0x4
 13087 1218 91       		.byte	0x91
 13088 1219 A87F     		.sleb128 -88
 13089 121b 9F       		.byte	0x9f
 13090 121c 16000000 		.4byte	.LVL277
 13091 1220 30000000 		.4byte	.LVL281
 13092 1224 0100     		.2byte	0x1
 13093 1226 56       		.byte	0x56
ARM GAS  C:\Users\Administrator\AppData\Local\Temp\ccX9Bf8z.s 			page 278


 13094 1227 30000000 		.4byte	.LVL281
 13095 122b 4C000000 		.4byte	.LVL284
 13096 122f 0400     		.2byte	0x4
 13097 1231 91       		.byte	0x91
 13098 1232 AE7F     		.sleb128 -82
 13099 1234 9F       		.byte	0x9f
 13100 1235 4C000000 		.4byte	.LVL284
 13101 1239 66000000 		.4byte	.LVL287
 13102 123d 0400     		.2byte	0x4
 13103 123f 91       		.byte	0x91
 13104 1240 B67F     		.sleb128 -74
 13105 1242 9F       		.byte	0x9f
 13106 1243 66000000 		.4byte	.LVL287
 13107 1247 78000000 		.4byte	.LVL289
 13108 124b 0400     		.2byte	0x4
 13109 124d 91       		.byte	0x91
 13110 124e BA7F     		.sleb128 -70
 13111 1250 9F       		.byte	0x9f
 13112 1251 78000000 		.4byte	.LVL289
 13113 1255 BC000000 		.4byte	.LFE76
 13114 1259 0400     		.2byte	0x4
 13115 125b 91       		.byte	0x91
 13116 125c BE7F     		.sleb128 -66
 13117 125e 9F       		.byte	0x9f
 13118 125f 00000000 		.4byte	0
 13119 1263 00000000 		.4byte	0
 13120              	.LLST74:
 13121 1267 10000000 		.4byte	.LVL276
 13122 126b 34000000 		.4byte	.LVL282
 13123 126f 0300     		.2byte	0x3
 13124 1271 91       		.byte	0x91
 13125 1272 887F     		.sleb128 -120
 13126 1274 34000000 		.4byte	.LVL282
 13127 1278 41000000 		.4byte	.LVL283-1
 13128 127c 0200     		.2byte	0x2
 13129 127e 73       		.byte	0x73
 13130 127f 00       		.sleb128 0
 13131 1280 41000000 		.4byte	.LVL283-1
 13132 1284 50000000 		.4byte	.LVL285
 13133 1288 0300     		.2byte	0x3
 13134 128a 91       		.byte	0x91
 13135 128b 887F     		.sleb128 -120
 13136 128d 50000000 		.4byte	.LVL285
 13137 1291 5B000000 		.4byte	.LVL286-1
 13138 1295 0200     		.2byte	0x2
 13139 1297 73       		.byte	0x73
 13140 1298 00       		.sleb128 0
 13141 1299 5B000000 		.4byte	.LVL286-1
 13142 129d 70000000 		.4byte	.LVL288
 13143 12a1 0300     		.2byte	0x3
 13144 12a3 91       		.byte	0x91
 13145 12a4 887F     		.sleb128 -120
 13146 12a6 70000000 		.4byte	.LVL288
 13147 12aa 77000000 		.4byte	.LVL289-1
 13148 12ae 0200     		.2byte	0x2
 13149 12b0 73       		.byte	0x73
 13150 12b1 00       		.sleb128 0
ARM GAS  C:\Users\Administrator\AppData\Local\Temp\ccX9Bf8z.s 			page 279


 13151 12b2 77000000 		.4byte	.LVL289-1
 13152 12b6 BC000000 		.4byte	.LFE76
 13153 12ba 0300     		.2byte	0x3
 13154 12bc 91       		.byte	0x91
 13155 12bd 887F     		.sleb128 -120
 13156 12bf 00000000 		.4byte	0
 13157 12c3 00000000 		.4byte	0
 13158              	.LLST75:
 13159 12c7 00000000 		.4byte	.LVL297
 13160 12cb 1C000000 		.4byte	.LVL301
 13161 12cf 0100     		.2byte	0x1
 13162 12d1 50       		.byte	0x50
 13163 12d2 1C000000 		.4byte	.LVL301
 13164 12d6 9C000000 		.4byte	.LVL314
 13165 12da 0100     		.2byte	0x1
 13166 12dc 54       		.byte	0x54
 13167 12dd 9C000000 		.4byte	.LVL314
 13168 12e1 9E000000 		.4byte	.LFE77
 13169 12e5 0400     		.2byte	0x4
 13170 12e7 F3       		.byte	0xf3
 13171 12e8 01       		.uleb128 0x1
 13172 12e9 50       		.byte	0x50
 13173 12ea 9F       		.byte	0x9f
 13174 12eb 00000000 		.4byte	0
 13175 12ef 00000000 		.4byte	0
 13176              	.LLST76:
 13177 12f3 00000000 		.4byte	.LVL297
 13178 12f7 68000000 		.4byte	.LVL310
 13179 12fb 0200     		.2byte	0x2
 13180 12fd 30       		.byte	0x30
 13181 12fe 9F       		.byte	0x9f
 13182 12ff 68000000 		.4byte	.LVL310
 13183 1303 9C000000 		.4byte	.LVL315
 13184 1307 0100     		.2byte	0x1
 13185 1309 56       		.byte	0x56
 13186 130a 00000000 		.4byte	0
 13187 130e 00000000 		.4byte	0
 13188              	.LLST77:
 13189 1312 08000000 		.4byte	.LVL298
 13190 1316 0E000000 		.4byte	.LVL299
 13191 131a 0400     		.2byte	0x4
 13192 131c 91       		.byte	0x91
 13193 131d A87F     		.sleb128 -88
 13194 131f 9F       		.byte	0x9f
 13195 1320 0E000000 		.4byte	.LVL299
 13196 1324 2E000000 		.4byte	.LVL304
 13197 1328 0100     		.2byte	0x1
 13198 132a 55       		.byte	0x55
 13199 132b 2E000000 		.4byte	.LVL304
 13200 132f 48000000 		.4byte	.LVL306
 13201 1333 0400     		.2byte	0x4
 13202 1335 91       		.byte	0x91
 13203 1336 AE7F     		.sleb128 -82
 13204 1338 9F       		.byte	0x9f
 13205 1339 48000000 		.4byte	.LVL306
 13206 133d 5A000000 		.4byte	.LVL307
 13207 1341 0400     		.2byte	0x4
ARM GAS  C:\Users\Administrator\AppData\Local\Temp\ccX9Bf8z.s 			page 280


 13208 1343 91       		.byte	0x91
 13209 1344 B67F     		.sleb128 -74
 13210 1346 9F       		.byte	0x9f
 13211 1347 5A000000 		.4byte	.LVL307
 13212 134b 9E000000 		.4byte	.LFE77
 13213 134f 0400     		.2byte	0x4
 13214 1351 91       		.byte	0x91
 13215 1352 BA7F     		.sleb128 -70
 13216 1354 9F       		.byte	0x9f
 13217 1355 00000000 		.4byte	0
 13218 1359 00000000 		.4byte	0
 13219              	.LLST78:
 13220 135d 16000000 		.4byte	.LVL300
 13221 1361 9C000000 		.4byte	.LVL316
 13222 1365 0100     		.2byte	0x1
 13223 1367 57       		.byte	0x57
 13224 1368 00000000 		.4byte	0
 13225 136c 00000000 		.4byte	0
 13226              	.LLST79:
 13227 1370 00000000 		.4byte	.LVL317
 13228 1374 1C000000 		.4byte	.LVL320
 13229 1378 0100     		.2byte	0x1
 13230 137a 50       		.byte	0x50
 13231 137b 1C000000 		.4byte	.LVL320
 13232 137f 5C010000 		.4byte	.LVL358
 13233 1383 0100     		.2byte	0x1
 13234 1385 55       		.byte	0x55
 13235 1386 5C010000 		.4byte	.LVL358
 13236 138a 78010000 		.4byte	.LFE78
 13237 138e 0400     		.2byte	0x4
 13238 1390 F3       		.byte	0xf3
 13239 1391 01       		.uleb128 0x1
 13240 1392 50       		.byte	0x50
 13241 1393 9F       		.byte	0x9f
 13242 1394 00000000 		.4byte	0
 13243 1398 00000000 		.4byte	0
 13244              	.LLST80:
 13245 139c 00000000 		.4byte	.LVL317
 13246 13a0 B4000000 		.4byte	.LVL338
 13247 13a4 0200     		.2byte	0x2
 13248 13a6 30       		.byte	0x30
 13249 13a7 9F       		.byte	0x9f
 13250 13a8 B4000000 		.4byte	.LVL338
 13251 13ac C0000000 		.4byte	.LVL339
 13252 13b0 0100     		.2byte	0x1
 13253 13b2 50       		.byte	0x50
 13254 13b3 00000000 		.4byte	0
 13255 13b7 00000000 		.4byte	0
 13256              	.LLST81:
 13257 13bb 00000000 		.4byte	.LVL317
 13258 13bf C0000000 		.4byte	.LVL339
 13259 13c3 0200     		.2byte	0x2
 13260 13c5 31       		.byte	0x31
 13261 13c6 9F       		.byte	0x9f
 13262 13c7 DC000000 		.4byte	.LVL344
 13263 13cb 40010000 		.4byte	.LVL354
 13264 13cf 0200     		.2byte	0x2
ARM GAS  C:\Users\Administrator\AppData\Local\Temp\ccX9Bf8z.s 			page 281


 13265 13d1 31       		.byte	0x31
 13266 13d2 9F       		.byte	0x9f
 13267 13d3 00000000 		.4byte	0
 13268 13d7 00000000 		.4byte	0
 13269              	.LLST82:
 13270 13db 72000000 		.4byte	.LVL331
 13271 13df 76000000 		.4byte	.LVL333
 13272 13e3 0300     		.2byte	0x3
 13273 13e5 73       		.byte	0x73
 13274 13e6 BA7F     		.sleb128 -70
 13275 13e8 76000000 		.4byte	.LVL333
 13276 13ec 7F000000 		.4byte	.LVL334-1
 13277 13f0 0200     		.2byte	0x2
 13278 13f2 73       		.byte	0x73
 13279 13f3 00       		.sleb128 0
 13280 13f4 7F000000 		.4byte	.LVL334-1
 13281 13f8 C4000000 		.4byte	.LVL340
 13282 13fc 0300     		.2byte	0x3
 13283 13fe 91       		.byte	0x91
 13284 13ff B07D     		.sleb128 -336
 13285 1401 C4000000 		.4byte	.LVL340
 13286 1405 C6000000 		.4byte	.LVL341
 13287 1409 0200     		.2byte	0x2
 13288 140b 73       		.byte	0x73
 13289 140c 00       		.sleb128 0
 13290 140d C6000000 		.4byte	.LVL341
 13291 1411 CA000000 		.4byte	.LVL342
 13292 1415 0300     		.2byte	0x3
 13293 1417 73       		.byte	0x73
 13294 1418 B57F     		.sleb128 -75
 13295 141a CA000000 		.4byte	.LVL342
 13296 141e 78010000 		.4byte	.LFE78
 13297 1422 0300     		.2byte	0x3
 13298 1424 91       		.byte	0x91
 13299 1425 B07D     		.sleb128 -336
 13300 1427 00000000 		.4byte	0
 13301 142b 00000000 		.4byte	0
 13302              	.LLST83:
 13303 142f 0C000000 		.4byte	.LVL318
 13304 1433 2A000000 		.4byte	.LVL322
 13305 1437 0400     		.2byte	0x4
 13306 1439 91       		.byte	0x91
 13307 143a E87D     		.sleb128 -280
 13308 143c 9F       		.byte	0x9f
 13309 143d 2A000000 		.4byte	.LVL322
 13310 1441 2D000000 		.4byte	.LVL323-1
 13311 1445 0100     		.2byte	0x1
 13312 1447 50       		.byte	0x50
 13313 1448 2D000000 		.4byte	.LVL323-1
 13314 144c 34000000 		.4byte	.LVL324
 13315 1450 0400     		.2byte	0x4
 13316 1452 91       		.byte	0x91
 13317 1453 E87D     		.sleb128 -280
 13318 1455 9F       		.byte	0x9f
 13319 1456 34000000 		.4byte	.LVL324
 13320 145a 37000000 		.4byte	.LVL325-1
 13321 145e 0100     		.2byte	0x1
ARM GAS  C:\Users\Administrator\AppData\Local\Temp\ccX9Bf8z.s 			page 282


 13322 1460 50       		.byte	0x50
 13323 1461 37000000 		.4byte	.LVL325-1
 13324 1465 6C000000 		.4byte	.LVL329
 13325 1469 0400     		.2byte	0x4
 13326 146b 91       		.byte	0x91
 13327 146c E87D     		.sleb128 -280
 13328 146e 9F       		.byte	0x9f
 13329 146f 6C000000 		.4byte	.LVL329
 13330 1473 72000000 		.4byte	.LVL331
 13331 1477 0400     		.2byte	0x4
 13332 1479 91       		.byte	0x91
 13333 147a F67D     		.sleb128 -266
 13334 147c 9F       		.byte	0x9f
 13335 147d 72000000 		.4byte	.LVL331
 13336 1481 8A000000 		.4byte	.LVL335
 13337 1485 0400     		.2byte	0x4
 13338 1487 91       		.byte	0x91
 13339 1488 F77D     		.sleb128 -265
 13340 148a 9F       		.byte	0x9f
 13341 148b 8A000000 		.4byte	.LVL335
 13342 148f 78010000 		.4byte	.LFE78
 13343 1493 0400     		.2byte	0x4
 13344 1495 91       		.byte	0x91
 13345 1496 FB7D     		.sleb128 -261
 13346 1498 9F       		.byte	0x9f
 13347 1499 00000000 		.4byte	0
 13348 149d 00000000 		.4byte	0
 13349              	.LLST84:
 13350 14a1 6C000000 		.4byte	.LVL329
 13351 14a5 70000000 		.4byte	.LVL330
 13352 14a9 0100     		.2byte	0x1
 13353 14ab 54       		.byte	0x54
 13354 14ac 70000000 		.4byte	.LVL330
 13355 14b0 74000000 		.4byte	.LVL332
 13356 14b4 0300     		.2byte	0x3
 13357 14b6 74       		.byte	0x74
 13358 14b7 06       		.sleb128 6
 13359 14b8 9F       		.byte	0x9f
 13360 14b9 00000000 		.4byte	0
 13361 14bd 00000000 		.4byte	0
 13362              	.LLST85:
 13363 14c1 00000000 		.4byte	.LVL359
 13364 14c5 10000000 		.4byte	.LVL363
 13365 14c9 0100     		.2byte	0x1
 13366 14cb 50       		.byte	0x50
 13367 14cc 10000000 		.4byte	.LVL363
 13368 14d0 4C000000 		.4byte	.LVL373
 13369 14d4 0100     		.2byte	0x1
 13370 14d6 56       		.byte	0x56
 13371 14d7 4C000000 		.4byte	.LVL373
 13372 14db 4E000000 		.4byte	.LFE81
 13373 14df 0400     		.2byte	0x4
 13374 14e1 F3       		.byte	0xf3
 13375 14e2 01       		.uleb128 0x1
 13376 14e3 50       		.byte	0x50
 13377 14e4 9F       		.byte	0x9f
 13378 14e5 00000000 		.4byte	0
ARM GAS  C:\Users\Administrator\AppData\Local\Temp\ccX9Bf8z.s 			page 283


 13379 14e9 00000000 		.4byte	0
 13380              	.LLST86:
 13381 14ed 00000000 		.4byte	.LVL359
 13382 14f1 30000000 		.4byte	.LVL368
 13383 14f5 0200     		.2byte	0x2
 13384 14f7 31       		.byte	0x31
 13385 14f8 9F       		.byte	0x9f
 13386 14f9 30000000 		.4byte	.LVL368
 13387 14fd 38000000 		.4byte	.LVL370
 13388 1501 0200     		.2byte	0x2
 13389 1503 32       		.byte	0x32
 13390 1504 9F       		.byte	0x9f
 13391 1505 38000000 		.4byte	.LVL370
 13392 1509 4C000000 		.4byte	.LVL372
 13393 150d 0100     		.2byte	0x1
 13394 150f 54       		.byte	0x54
 13395 1510 00000000 		.4byte	0
 13396 1514 00000000 		.4byte	0
 13397              	.LLST87:
 13398 1518 06000000 		.4byte	.LVL360
 13399 151c 08000000 		.4byte	.LVL361
 13400 1520 0400     		.2byte	0x4
 13401 1522 91       		.byte	0x91
 13402 1523 A87F     		.sleb128 -88
 13403 1525 9F       		.byte	0x9f
 13404 1526 08000000 		.4byte	.LVL361
 13405 152a 1E000000 		.4byte	.LVL365
 13406 152e 0100     		.2byte	0x1
 13407 1530 55       		.byte	0x55
 13408 1531 1E000000 		.4byte	.LVL365
 13409 1535 4E000000 		.4byte	.LFE81
 13410 1539 0400     		.2byte	0x4
 13411 153b 91       		.byte	0x91
 13412 153c B27F     		.sleb128 -78
 13413 153e 9F       		.byte	0x9f
 13414 153f 00000000 		.4byte	0
 13415 1543 00000000 		.4byte	0
 13416              	.LLST88:
 13417 1547 0A000000 		.4byte	.LVL362
 13418 154b 4C000000 		.4byte	.LVL374
 13419 154f 0100     		.2byte	0x1
 13420 1551 57       		.byte	0x57
 13421 1552 00000000 		.4byte	0
 13422 1556 00000000 		.4byte	0
 13423              	.LLST89:
 13424 155a 00000000 		.4byte	.LVL375
 13425 155e 22000000 		.4byte	.LVL379
 13426 1562 0100     		.2byte	0x1
 13427 1564 50       		.byte	0x50
 13428 1565 22000000 		.4byte	.LVL379
 13429 1569 9A010000 		.4byte	.LVL421
 13430 156d 0100     		.2byte	0x1
 13431 156f 54       		.byte	0x54
 13432 1570 9A010000 		.4byte	.LVL421
 13433 1574 A8010000 		.4byte	.LFE84
 13434 1578 0400     		.2byte	0x4
 13435 157a F3       		.byte	0xf3
ARM GAS  C:\Users\Administrator\AppData\Local\Temp\ccX9Bf8z.s 			page 284


 13436 157b 01       		.uleb128 0x1
 13437 157c 50       		.byte	0x50
 13438 157d 9F       		.byte	0x9f
 13439 157e 00000000 		.4byte	0
 13440 1582 00000000 		.4byte	0
 13441              	.LLST90:
 13442 1586 AC000000 		.4byte	.LVL395
 13443 158a B0000000 		.4byte	.LVL396
 13444 158e 0200     		.2byte	0x2
 13445 1590 30       		.byte	0x30
 13446 1591 9F       		.byte	0x9f
 13447 1592 B6000000 		.4byte	.LVL397
 13448 1596 00010000 		.4byte	.LVL403
 13449 159a 0300     		.2byte	0x3
 13450 159c 91       		.byte	0x91
 13451 159d C87B     		.sleb128 -568
 13452 159f 18010000 		.4byte	.LVL407
 13453 15a3 1A010000 		.4byte	.LVL408
 13454 15a7 0200     		.2byte	0x2
 13455 15a9 30       		.byte	0x30
 13456 15aa 9F       		.byte	0x9f
 13457 15ab 1A010000 		.4byte	.LVL408
 13458 15af 3E010000 		.4byte	.LVL411
 13459 15b3 0100     		.2byte	0x1
 13460 15b5 56       		.byte	0x56
 13461 15b6 00000000 		.4byte	0
 13462 15ba 00000000 		.4byte	0
 13463              	.LLST91:
 13464 15be 00000000 		.4byte	.LVL375
 13465 15c2 78000000 		.4byte	.LVL387
 13466 15c6 0200     		.2byte	0x2
 13467 15c8 31       		.byte	0x31
 13468 15c9 9F       		.byte	0x9f
 13469 15ca 78000000 		.4byte	.LVL387
 13470 15ce A8010000 		.4byte	.LFE84
 13471 15d2 0300     		.2byte	0x3
 13472 15d4 91       		.byte	0x91
 13473 15d5 D07B     		.sleb128 -560
 13474 15d7 00000000 		.4byte	0
 13475 15db 00000000 		.4byte	0
 13476              	.LLST92:
 13477 15df 0E000000 		.4byte	.LVL376
 13478 15e3 1A000000 		.4byte	.LVL378
 13479 15e7 0400     		.2byte	0x4
 13480 15e9 91       		.byte	0x91
 13481 15ea E87B     		.sleb128 -536
 13482 15ec 9F       		.byte	0x9f
 13483 15ed 1A000000 		.4byte	.LVL378
 13484 15f1 36000000 		.4byte	.LVL383
 13485 15f5 0100     		.2byte	0x1
 13486 15f7 55       		.byte	0x55
 13487 15f8 36000000 		.4byte	.LVL383
 13488 15fc 98000000 		.4byte	.LVL391
 13489 1600 0400     		.2byte	0x4
 13490 1602 91       		.byte	0x91
 13491 1603 EE7B     		.sleb128 -530
 13492 1605 9F       		.byte	0x9f
ARM GAS  C:\Users\Administrator\AppData\Local\Temp\ccX9Bf8z.s 			page 285


 13493 1606 98000000 		.4byte	.LVL391
 13494 160a 9E000000 		.4byte	.LVL392
 13495 160e 0400     		.2byte	0x4
 13496 1610 91       		.byte	0x91
 13497 1611 EF7B     		.sleb128 -529
 13498 1613 9F       		.byte	0x9f
 13499 1614 9E000000 		.4byte	.LVL392
 13500 1618 AA000000 		.4byte	.LVL394
 13501 161c 0400     		.2byte	0x4
 13502 161e 91       		.byte	0x91
 13503 161f F07B     		.sleb128 -528
 13504 1621 9F       		.byte	0x9f
 13505 1622 AA000000 		.4byte	.LVL394
 13506 1626 AC000000 		.4byte	.LVL395
 13507 162a 0100     		.2byte	0x1
 13508 162c 52       		.byte	0x52
 13509 162d AC000000 		.4byte	.LVL395
 13510 1631 B0000000 		.4byte	.LVL396
 13511 1635 0400     		.2byte	0x4
 13512 1637 91       		.byte	0x91
 13513 1638 F17B     		.sleb128 -527
 13514 163a 9F       		.byte	0x9f
 13515 163b B6000000 		.4byte	.LVL397
 13516 163f D8000000 		.4byte	.LVL399
 13517 1643 0100     		.2byte	0x1
 13518 1645 55       		.byte	0x55
 13519 1646 D8000000 		.4byte	.LVL399
 13520 164a F2000000 		.4byte	.LVL402
 13521 164e 0300     		.2byte	0x3
 13522 1650 75       		.byte	0x75
 13523 1651 11       		.sleb128 17
 13524 1652 9F       		.byte	0x9f
 13525 1653 F2000000 		.4byte	.LVL402
 13526 1657 00010000 		.4byte	.LVL403
 13527 165b 0100     		.2byte	0x1
 13528 165d 55       		.byte	0x55
 13529 165e 00010000 		.4byte	.LVL403
 13530 1662 06010000 		.4byte	.LVL404
 13531 1666 0400     		.2byte	0x4
 13532 1668 91       		.byte	0x91
 13533 1669 EF7B     		.sleb128 -529
 13534 166b 9F       		.byte	0x9f
 13535 166c 06010000 		.4byte	.LVL404
 13536 1670 16010000 		.4byte	.LVL406
 13537 1674 0400     		.2byte	0x4
 13538 1676 91       		.byte	0x91
 13539 1677 F07B     		.sleb128 -528
 13540 1679 9F       		.byte	0x9f
 13541 167a 16010000 		.4byte	.LVL406
 13542 167e 1A010000 		.4byte	.LVL408
 13543 1682 0400     		.2byte	0x4
 13544 1684 91       		.byte	0x91
 13545 1685 F17B     		.sleb128 -527
 13546 1687 9F       		.byte	0x9f
 13547 1688 1A010000 		.4byte	.LVL408
 13548 168c 38010000 		.4byte	.LVL410
 13549 1690 0100     		.2byte	0x1
ARM GAS  C:\Users\Administrator\AppData\Local\Temp\ccX9Bf8z.s 			page 286


 13550 1692 57       		.byte	0x57
 13551 1693 38010000 		.4byte	.LVL410
 13552 1697 4A010000 		.4byte	.LVL413
 13553 169b 0300     		.2byte	0x3
 13554 169d 77       		.byte	0x77
 13555 169e 11       		.sleb128 17
 13556 169f 9F       		.byte	0x9f
 13557 16a0 4A010000 		.4byte	.LVL413
 13558 16a4 50010000 		.4byte	.LVL414
 13559 16a8 0100     		.2byte	0x1
 13560 16aa 57       		.byte	0x57
 13561 16ab 62010000 		.4byte	.LVL416
 13562 16af 70010000 		.4byte	.LVL417
 13563 16b3 0100     		.2byte	0x1
 13564 16b5 57       		.byte	0x57
 13565 16b6 70010000 		.4byte	.LVL417
 13566 16ba 9A010000 		.4byte	.LVL422
 13567 16be 0300     		.2byte	0x3
 13568 16c0 77       		.byte	0x77
 13569 16c1 04       		.sleb128 4
 13570 16c2 9F       		.byte	0x9f
 13571 16c3 00000000 		.4byte	0
 13572 16c7 00000000 		.4byte	0
 13573              	.LLST93:
 13574 16cb 48000000 		.4byte	.LVL384
 13575 16cf 7D000000 		.4byte	.LVL388-1
 13576 16d3 1000     		.2byte	0x10
 13577 16d5 74       		.byte	0x74
 13578 16d6 0D       		.sleb128 13
 13579 16d7 93       		.byte	0x93
 13580 16d8 01       		.uleb128 0x1
 13581 16d9 74       		.byte	0x74
 13582 16da 0E       		.sleb128 14
 13583 16db 93       		.byte	0x93
 13584 16dc 01       		.uleb128 0x1
 13585 16dd 74       		.byte	0x74
 13586 16de 0F       		.sleb128 15
 13587 16df 93       		.byte	0x93
 13588 16e0 01       		.uleb128 0x1
 13589 16e1 74       		.byte	0x74
 13590 16e2 10       		.sleb128 16
 13591 16e3 93       		.byte	0x93
 13592 16e4 01       		.uleb128 0x1
 13593 16e5 00000000 		.4byte	0
 13594 16e9 00000000 		.4byte	0
 13595              	.LLST94:
 13596 16ed 48000000 		.4byte	.LVL384
 13597 16f1 7D000000 		.4byte	.LVL388-1
 13598 16f5 1000     		.2byte	0x10
 13599 16f7 74       		.byte	0x74
 13600 16f8 11       		.sleb128 17
 13601 16f9 93       		.byte	0x93
 13602 16fa 01       		.uleb128 0x1
 13603 16fb 74       		.byte	0x74
 13604 16fc 12       		.sleb128 18
 13605 16fd 93       		.byte	0x93
 13606 16fe 01       		.uleb128 0x1
ARM GAS  C:\Users\Administrator\AppData\Local\Temp\ccX9Bf8z.s 			page 287


 13607 16ff 74       		.byte	0x74
 13608 1700 13       		.sleb128 19
 13609 1701 93       		.byte	0x93
 13610 1702 01       		.uleb128 0x1
 13611 1703 74       		.byte	0x74
 13612 1704 14       		.sleb128 20
 13613 1705 93       		.byte	0x93
 13614 1706 01       		.uleb128 0x1
 13615 1707 00000000 		.4byte	0
 13616 170b 00000000 		.4byte	0
 13617              	.LLST95:
 13618 170f 60000000 		.4byte	.LVL385
 13619 1713 90000000 		.4byte	.LVL390
 13620 1717 0100     		.2byte	0x1
 13621 1719 56       		.byte	0x56
 13622 171a 00000000 		.4byte	0
 13623 171e 00000000 		.4byte	0
 13624              	.LLST96:
 13625 1722 70000000 		.4byte	.LVL386
 13626 1726 7D000000 		.4byte	.LVL388-1
 13627 172a 0100     		.2byte	0x1
 13628 172c 51       		.byte	0x51
 13629 172d 00000000 		.4byte	0
 13630 1731 00000000 		.4byte	0
 13631              	.LLST97:
 13632 1735 10000000 		.4byte	.LVL377
 13633 1739 36000000 		.4byte	.LVL383
 13634 173d 0200     		.2byte	0x2
 13635 173f 30       		.byte	0x30
 13636 1740 9F       		.byte	0x9f
 13637 1741 36000000 		.4byte	.LVL383
 13638 1745 7D000000 		.4byte	.LVL388-1
 13639 1749 1200     		.2byte	0x12
 13640 174b 74       		.byte	0x74
 13641 174c 15       		.sleb128 21
 13642 174d 94       		.byte	0x94
 13643 174e 01       		.byte	0x1
 13644 174f 08       		.byte	0x8
 13645 1750 FF       		.byte	0xff
 13646 1751 1A       		.byte	0x1a
 13647 1752 38       		.byte	0x38
 13648 1753 24       		.byte	0x24
 13649 1754 74       		.byte	0x74
 13650 1755 16       		.sleb128 22
 13651 1756 94       		.byte	0x94
 13652 1757 01       		.byte	0x1
 13653 1758 08       		.byte	0x8
 13654 1759 FF       		.byte	0xff
 13655 175a 1A       		.byte	0x1a
 13656 175b 22       		.byte	0x22
 13657 175c 9F       		.byte	0x9f
 13658 175d 00000000 		.4byte	0
 13659 1761 00000000 		.4byte	0
 13660              	.LLST98:
 13661 1765 24000000 		.4byte	.LVL380
 13662 1769 A4000000 		.4byte	.LVL393
 13663 176d 0300     		.2byte	0x3
ARM GAS  C:\Users\Administrator\AppData\Local\Temp\ccX9Bf8z.s 			page 288


 13664 176f 91       		.byte	0x91
 13665 1770 D87B     		.sleb128 -552
 13666 1772 A4000000 		.4byte	.LVL393
 13667 1776 B0000000 		.4byte	.LVL396
 13668 177a 0200     		.2byte	0x2
 13669 177c 71       		.byte	0x71
 13670 177d 00       		.sleb128 0
 13671 177e B0000000 		.4byte	.LVL396
 13672 1782 12010000 		.4byte	.LVL405
 13673 1786 0300     		.2byte	0x3
 13674 1788 91       		.byte	0x91
 13675 1789 D87B     		.sleb128 -552
 13676 178b 12010000 		.4byte	.LVL405
 13677 178f 1A010000 		.4byte	.LVL408
 13678 1793 0200     		.2byte	0x2
 13679 1795 71       		.byte	0x71
 13680 1796 00       		.sleb128 0
 13681 1797 1A010000 		.4byte	.LVL408
 13682 179b 60010000 		.4byte	.LVL415
 13683 179f 0300     		.2byte	0x3
 13684 17a1 91       		.byte	0x91
 13685 17a2 D87B     		.sleb128 -552
 13686 17a4 60010000 		.4byte	.LVL415
 13687 17a8 62010000 		.4byte	.LVL416
 13688 17ac 0200     		.2byte	0x2
 13689 17ae 73       		.byte	0x73
 13690 17af 00       		.sleb128 0
 13691 17b0 62010000 		.4byte	.LVL416
 13692 17b4 76010000 		.4byte	.LVL418
 13693 17b8 0300     		.2byte	0x3
 13694 17ba 91       		.byte	0x91
 13695 17bb D87B     		.sleb128 -552
 13696 17bd 76010000 		.4byte	.LVL418
 13697 17c1 7E010000 		.4byte	.LVL419
 13698 17c5 0200     		.2byte	0x2
 13699 17c7 72       		.byte	0x72
 13700 17c8 00       		.sleb128 0
 13701 17c9 7E010000 		.4byte	.LVL419
 13702 17cd A8010000 		.4byte	.LFE84
 13703 17d1 0300     		.2byte	0x3
 13704 17d3 91       		.byte	0x91
 13705 17d4 D87B     		.sleb128 -552
 13706 17d6 00000000 		.4byte	0
 13707 17da 00000000 		.4byte	0
 13708              	.LLST99:
 13709 17de 00000000 		.4byte	.LVL423
 13710 17e2 10000000 		.4byte	.LVL426
 13711 17e6 0100     		.2byte	0x1
 13712 17e8 50       		.byte	0x50
 13713 17e9 10000000 		.4byte	.LVL426
 13714 17ed E4000000 		.4byte	.LVL446
 13715 17f1 0100     		.2byte	0x1
 13716 17f3 55       		.byte	0x55
 13717 17f4 E4000000 		.4byte	.LVL446
 13718 17f8 00010000 		.4byte	.LFE85
 13719 17fc 0400     		.2byte	0x4
 13720 17fe F3       		.byte	0xf3
ARM GAS  C:\Users\Administrator\AppData\Local\Temp\ccX9Bf8z.s 			page 289


 13721 17ff 01       		.uleb128 0x1
 13722 1800 50       		.byte	0x50
 13723 1801 9F       		.byte	0x9f
 13724 1802 00000000 		.4byte	0
 13725 1806 00000000 		.4byte	0
 13726              	.LLST100:
 13727 180a 00000000 		.4byte	.LVL423
 13728 180e D0000000 		.4byte	.LVL444
 13729 1812 0200     		.2byte	0x2
 13730 1814 31       		.byte	0x31
 13731 1815 9F       		.byte	0x9f
 13732 1816 D0000000 		.4byte	.LVL444
 13733 181a E4000000 		.4byte	.LVL447
 13734 181e 0100     		.2byte	0x1
 13735 1820 57       		.byte	0x57
 13736 1821 00000000 		.4byte	0
 13737 1825 00000000 		.4byte	0
 13738              	.LLST101:
 13739 1829 06000000 		.4byte	.LVL424
 13740 182d 0A000000 		.4byte	.LVL425
 13741 1831 0400     		.2byte	0x4
 13742 1833 91       		.byte	0x91
 13743 1834 A87F     		.sleb128 -88
 13744 1836 9F       		.byte	0x9f
 13745 1837 0A000000 		.4byte	.LVL425
 13746 183b 16000000 		.4byte	.LVL428
 13747 183f 0100     		.2byte	0x1
 13748 1841 56       		.byte	0x56
 13749 1842 16000000 		.4byte	.LVL428
 13750 1846 8C000000 		.4byte	.LVL439
 13751 184a 0400     		.2byte	0x4
 13752 184c 91       		.byte	0x91
 13753 184d AE7F     		.sleb128 -82
 13754 184f 9F       		.byte	0x9f
 13755 1850 8C000000 		.4byte	.LVL439
 13756 1854 98000000 		.4byte	.LVL441
 13757 1858 0400     		.2byte	0x4
 13758 185a 91       		.byte	0x91
 13759 185b AF7F     		.sleb128 -81
 13760 185d 9F       		.byte	0x9f
 13761 185e 98000000 		.4byte	.LVL441
 13762 1862 A6000000 		.4byte	.LVL442
 13763 1866 0400     		.2byte	0x4
 13764 1868 91       		.byte	0x91
 13765 1869 B07F     		.sleb128 -80
 13766 186b 9F       		.byte	0x9f
 13767 186c A6000000 		.4byte	.LVL442
 13768 1870 AD000000 		.4byte	.LVL443-1
 13769 1874 0100     		.2byte	0x1
 13770 1876 50       		.byte	0x50
 13771 1877 AD000000 		.4byte	.LVL443-1
 13772 187b AE000000 		.4byte	.LVL443
 13773 187f 0400     		.2byte	0x4
 13774 1881 91       		.byte	0x91
 13775 1882 B07F     		.sleb128 -80
 13776 1884 9F       		.byte	0x9f
 13777 1885 AE000000 		.4byte	.LVL443
ARM GAS  C:\Users\Administrator\AppData\Local\Temp\ccX9Bf8z.s 			page 290


 13778 1889 D0000000 		.4byte	.LVL444
 13779 188d 0400     		.2byte	0x4
 13780 188f 91       		.byte	0x91
 13781 1890 B47F     		.sleb128 -76
 13782 1892 9F       		.byte	0x9f
 13783 1893 D0000000 		.4byte	.LVL444
 13784 1897 00010000 		.4byte	.LFE85
 13785 189b 0400     		.2byte	0x4
 13786 189d 91       		.byte	0x91
 13787 189e B57F     		.sleb128 -75
 13788 18a0 9F       		.byte	0x9f
 13789 18a1 00000000 		.4byte	0
 13790 18a5 00000000 		.4byte	0
 13791              	.LLST102:
 13792 18a9 46000000 		.4byte	.LVL432
 13793 18ad 92000000 		.4byte	.LVL440
 13794 18b1 4000     		.2byte	0x40
 13795 18b3 74       		.byte	0x74
 13796 18b4 00       		.sleb128 0
 13797 18b5 F7       		.byte	0xf7
 13798 18b6 25       		.uleb128 0x25
 13799 18b7 0A       		.byte	0xa
 13800 18b8 E803     		.2byte	0x3e8
 13801 18ba F7       		.byte	0xf7
 13802 18bb 25       		.uleb128 0x25
 13803 18bc 1B       		.byte	0x1b
 13804 18bd F7       		.byte	0xf7
 13805 18be 00       		.uleb128 0
 13806 18bf 23       		.byte	0x23
 13807 18c0 30       		.uleb128 0x30
 13808 18c1 9F       		.byte	0x9f
 13809 18c2 93       		.byte	0x93
 13810 18c3 01       		.uleb128 0x1
 13811 18c4 74       		.byte	0x74
 13812 18c5 00       		.sleb128 0
 13813 18c6 0A       		.byte	0xa
 13814 18c7 E803     		.2byte	0x3e8
 13815 18c9 1D       		.byte	0x1d
 13816 18ca F7       		.byte	0xf7
 13817 18cb 25       		.uleb128 0x25
 13818 18cc 08       		.byte	0x8
 13819 18cd 64       		.byte	0x64
 13820 18ce F7       		.byte	0xf7
 13821 18cf 25       		.uleb128 0x25
 13822 18d0 1B       		.byte	0x1b
 13823 18d1 F7       		.byte	0xf7
 13824 18d2 00       		.uleb128 0
 13825 18d3 23       		.byte	0x23
 13826 18d4 30       		.uleb128 0x30
 13827 18d5 9F       		.byte	0x9f
 13828 18d6 93       		.byte	0x93
 13829 18d7 01       		.uleb128 0x1
 13830 18d8 74       		.byte	0x74
 13831 18d9 00       		.sleb128 0
 13832 18da 08       		.byte	0x8
 13833 18db 64       		.byte	0x64
 13834 18dc 1D       		.byte	0x1d
ARM GAS  C:\Users\Administrator\AppData\Local\Temp\ccX9Bf8z.s 			page 291


 13835 18dd F7       		.byte	0xf7
 13836 18de 25       		.uleb128 0x25
 13837 18df 3A       		.byte	0x3a
 13838 18e0 F7       		.byte	0xf7
 13839 18e1 25       		.uleb128 0x25
 13840 18e2 1B       		.byte	0x1b
 13841 18e3 F7       		.byte	0xf7
 13842 18e4 00       		.uleb128 0
 13843 18e5 23       		.byte	0x23
 13844 18e6 30       		.uleb128 0x30
 13845 18e7 9F       		.byte	0x9f
 13846 18e8 93       		.byte	0x93
 13847 18e9 01       		.uleb128 0x1
 13848 18ea 74       		.byte	0x74
 13849 18eb 00       		.sleb128 0
 13850 18ec 3A       		.byte	0x3a
 13851 18ed 1D       		.byte	0x1d
 13852 18ee 23       		.byte	0x23
 13853 18ef 30       		.uleb128 0x30
 13854 18f0 9F       		.byte	0x9f
 13855 18f1 93       		.byte	0x93
 13856 18f2 01       		.uleb128 0x1
 13857 18f3 00000000 		.4byte	0
 13858 18f7 00000000 		.4byte	0
 13859              	.LLST103:
 13860 18fb 46000000 		.4byte	.LVL432
 13861 18ff 92000000 		.4byte	.LVL440
 13862 1903 0100     		.2byte	0x1
 13863 1905 54       		.byte	0x54
 13864 1906 00000000 		.4byte	0
 13865 190a 00000000 		.4byte	0
 13866              	.LLST104:
 13867 190e 00000000 		.4byte	.LVL448
 13868 1912 18000000 		.4byte	.LVL452
 13869 1916 0100     		.2byte	0x1
 13870 1918 50       		.byte	0x50
 13871 1919 18000000 		.4byte	.LVL452
 13872 191d 50000000 		.4byte	.LVL459
 13873 1921 0100     		.2byte	0x1
 13874 1923 55       		.byte	0x55
 13875 1924 50000000 		.4byte	.LVL459
 13876 1928 58000000 		.4byte	.LFE86
 13877 192c 0400     		.2byte	0x4
 13878 192e F3       		.byte	0xf3
 13879 192f 01       		.uleb128 0x1
 13880 1930 50       		.byte	0x50
 13881 1931 9F       		.byte	0x9f
 13882 1932 00000000 		.4byte	0
 13883 1936 00000000 		.4byte	0
 13884              	.LLST105:
 13885 193a 08000000 		.4byte	.LVL449
 13886 193e 0E000000 		.4byte	.LVL450
 13887 1942 0400     		.2byte	0x4
 13888 1944 91       		.byte	0x91
 13889 1945 A87F     		.sleb128 -88
 13890 1947 9F       		.byte	0x9f
 13891 1948 0E000000 		.4byte	.LVL450
ARM GAS  C:\Users\Administrator\AppData\Local\Temp\ccX9Bf8z.s 			page 292


 13892 194c 2C000000 		.4byte	.LVL455
 13893 1950 0100     		.2byte	0x1
 13894 1952 56       		.byte	0x56
 13895 1953 2C000000 		.4byte	.LVL455
 13896 1957 38000000 		.4byte	.LVL456
 13897 195b 0400     		.2byte	0x4
 13898 195d 91       		.byte	0x91
 13899 195e AE7F     		.sleb128 -82
 13900 1960 9F       		.byte	0x9f
 13901 1961 38000000 		.4byte	.LVL456
 13902 1965 58000000 		.4byte	.LFE86
 13903 1969 0400     		.2byte	0x4
 13904 196b 91       		.byte	0x91
 13905 196c B27F     		.sleb128 -78
 13906 196e 9F       		.byte	0x9f
 13907 196f 00000000 		.4byte	0
 13908 1973 00000000 		.4byte	0
 13909              	.LLST106:
 13910 1977 14000000 		.4byte	.LVL451
 13911 197b 50000000 		.4byte	.LVL460
 13912 197f 0100     		.2byte	0x1
 13913 1981 57       		.byte	0x57
 13914 1982 00000000 		.4byte	0
 13915 1986 00000000 		.4byte	0
 13916              	.LLST107:
 13917 198a 2C000000 		.4byte	.LVL455
 13918 198e 50000000 		.4byte	.LVL458
 13919 1992 0100     		.2byte	0x1
 13920 1994 54       		.byte	0x54
 13921 1995 00000000 		.4byte	0
 13922 1999 00000000 		.4byte	0
 13923              	.LLST108:
 13924 199d 00000000 		.4byte	.LVL461
 13925 19a1 1E000000 		.4byte	.LVL465
 13926 19a5 0100     		.2byte	0x1
 13927 19a7 50       		.byte	0x50
 13928 19a8 1E000000 		.4byte	.LVL465
 13929 19ac B2000000 		.4byte	.LVL482
 13930 19b0 0100     		.2byte	0x1
 13931 19b2 55       		.byte	0x55
 13932 19b3 B2000000 		.4byte	.LVL482
 13933 19b7 B8000000 		.4byte	.LFE88
 13934 19bb 0400     		.2byte	0x4
 13935 19bd F3       		.byte	0xf3
 13936 19be 01       		.uleb128 0x1
 13937 19bf 50       		.byte	0x50
 13938 19c0 9F       		.byte	0x9f
 13939 19c1 00000000 		.4byte	0
 13940 19c5 00000000 		.4byte	0
 13941              	.LLST109:
 13942 19c9 00000000 		.4byte	.LVL461
 13943 19cd 3C000000 		.4byte	.LVL470
 13944 19d1 0200     		.2byte	0x2
 13945 19d3 31       		.byte	0x31
 13946 19d4 9F       		.byte	0x9f
 13947 19d5 00000000 		.4byte	0
 13948 19d9 00000000 		.4byte	0
ARM GAS  C:\Users\Administrator\AppData\Local\Temp\ccX9Bf8z.s 			page 293


 13949              	.LLST110:
 13950 19dd 0E000000 		.4byte	.LVL462
 13951 19e1 16000000 		.4byte	.LVL464
 13952 19e5 0400     		.2byte	0x4
 13953 19e7 91       		.byte	0x91
 13954 19e8 A87F     		.sleb128 -88
 13955 19ea 9F       		.byte	0x9f
 13956 19eb 16000000 		.4byte	.LVL464
 13957 19ef 2E000000 		.4byte	.LVL468
 13958 19f3 0100     		.2byte	0x1
 13959 19f5 56       		.byte	0x56
 13960 19f6 2E000000 		.4byte	.LVL468
 13961 19fa 4E000000 		.4byte	.LVL472
 13962 19fe 0400     		.2byte	0x4
 13963 1a00 91       		.byte	0x91
 13964 1a01 AF7F     		.sleb128 -81
 13965 1a03 9F       		.byte	0x9f
 13966 1a04 4E000000 		.4byte	.LVL472
 13967 1a08 B8000000 		.4byte	.LFE88
 13968 1a0c 0400     		.2byte	0x4
 13969 1a0e 91       		.byte	0x91
 13970 1a0f B37F     		.sleb128 -77
 13971 1a11 9F       		.byte	0x9f
 13972 1a12 00000000 		.4byte	0
 13973 1a16 00000000 		.4byte	0
 13974              	.LLST111:
 13975 1a1a 10000000 		.4byte	.LVL463
 13976 1a1e 42000000 		.4byte	.LVL471
 13977 1a22 0300     		.2byte	0x3
 13978 1a24 91       		.byte	0x91
 13979 1a25 A07F     		.sleb128 -96
 13980 1a27 42000000 		.4byte	.LVL471
 13981 1a2b 4D000000 		.4byte	.LVL472-1
 13982 1a2f 0200     		.2byte	0x2
 13983 1a31 73       		.byte	0x73
 13984 1a32 00       		.sleb128 0
 13985 1a33 4D000000 		.4byte	.LVL472-1
 13986 1a37 B8000000 		.4byte	.LFE88
 13987 1a3b 0300     		.2byte	0x3
 13988 1a3d 91       		.byte	0x91
 13989 1a3e A07F     		.sleb128 -96
 13990 1a40 00000000 		.4byte	0
 13991 1a44 00000000 		.4byte	0
 13992              	.LLST112:
 13993 1a48 36000000 		.4byte	.LVL469
 13994 1a4c B2000000 		.4byte	.LVL481
 13995 1a50 0100     		.2byte	0x1
 13996 1a52 54       		.byte	0x54
 13997 1a53 00000000 		.4byte	0
 13998 1a57 00000000 		.4byte	0
 13999              	.LLST113:
 14000 1a5b 3E000000 		.4byte	.LVL485
 14001 1a5f 53000000 		.4byte	.LVL486-1
 14002 1a63 1600     		.2byte	0x16
 14003 1a65 91       		.byte	0x91
 14004 1a66 D677     		.sleb128 -1066
 14005 1a68 94       		.byte	0x94
ARM GAS  C:\Users\Administrator\AppData\Local\Temp\ccX9Bf8z.s 			page 294


 14006 1a69 01       		.byte	0x1
 14007 1a6a 08       		.byte	0x8
 14008 1a6b FF       		.byte	0xff
 14009 1a6c 1A       		.byte	0x1a
 14010 1a6d 38       		.byte	0x38
 14011 1a6e 24       		.byte	0x24
 14012 1a6f 91       		.byte	0x91
 14013 1a70 D777     		.sleb128 -1065
 14014 1a72 94       		.byte	0x94
 14015 1a73 01       		.byte	0x1
 14016 1a74 08       		.byte	0x8
 14017 1a75 FF       		.byte	0xff
 14018 1a76 1A       		.byte	0x1a
 14019 1a77 22       		.byte	0x22
 14020 1a78 23       		.byte	0x23
 14021 1a79 04       		.uleb128 0x4
 14022 1a7a 9F       		.byte	0x9f
 14023 1a7b 00000000 		.4byte	0
 14024 1a7f 00000000 		.4byte	0
 14025              	.LLST114:
 14026 1a83 54000000 		.4byte	.LVL486
 14027 1a87 80000000 		.4byte	.LVL487
 14028 1a8b 0100     		.2byte	0x1
 14029 1a8d 50       		.byte	0x50
 14030 1a8e 86000000 		.4byte	.LVL489
 14031 1a92 8E000000 		.4byte	.LVL490
 14032 1a96 0100     		.2byte	0x1
 14033 1a98 50       		.byte	0x50
 14034 1a99 94000000 		.4byte	.LVL492
 14035 1a9d A6000000 		.4byte	.LVL493
 14036 1aa1 0100     		.2byte	0x1
 14037 1aa3 50       		.byte	0x50
 14038 1aa4 AC000000 		.4byte	.LVL495
 14039 1aa8 BC000000 		.4byte	.LVL496
 14040 1aac 0100     		.2byte	0x1
 14041 1aae 50       		.byte	0x50
 14042 1aaf C2000000 		.4byte	.LVL498
 14043 1ab3 E0000000 		.4byte	.LVL500
 14044 1ab7 0100     		.2byte	0x1
 14045 1ab9 50       		.byte	0x50
 14046 1aba E6000000 		.4byte	.LVL502
 14047 1abe E8000000 		.4byte	.LVL503
 14048 1ac2 0100     		.2byte	0x1
 14049 1ac4 50       		.byte	0x50
 14050 1ac5 EE000000 		.4byte	.LVL505
 14051 1ac9 F0000000 		.4byte	.LVL506
 14052 1acd 0100     		.2byte	0x1
 14053 1acf 50       		.byte	0x50
 14054 1ad0 F6000000 		.4byte	.LVL508
 14055 1ad4 F8000000 		.4byte	.LVL509
 14056 1ad8 0100     		.2byte	0x1
 14057 1ada 50       		.byte	0x50
 14058 1adb FE000000 		.4byte	.LVL511
 14059 1adf 00010000 		.4byte	.LVL512
 14060 1ae3 0100     		.2byte	0x1
 14061 1ae5 50       		.byte	0x50
 14062 1ae6 06010000 		.4byte	.LVL514
ARM GAS  C:\Users\Administrator\AppData\Local\Temp\ccX9Bf8z.s 			page 295


 14063 1aea 08010000 		.4byte	.LVL515
 14064 1aee 0100     		.2byte	0x1
 14065 1af0 50       		.byte	0x50
 14066 1af1 0E010000 		.4byte	.LVL517
 14067 1af5 10010000 		.4byte	.LVL518
 14068 1af9 0100     		.2byte	0x1
 14069 1afb 50       		.byte	0x50
 14070 1afc 16010000 		.4byte	.LVL520
 14071 1b00 18010000 		.4byte	.LVL521
 14072 1b04 0100     		.2byte	0x1
 14073 1b06 50       		.byte	0x50
 14074 1b07 1E010000 		.4byte	.LVL523
 14075 1b0b 20010000 		.4byte	.LVL524
 14076 1b0f 0100     		.2byte	0x1
 14077 1b11 50       		.byte	0x50
 14078 1b12 26010000 		.4byte	.LVL526
 14079 1b16 28010000 		.4byte	.LVL527
 14080 1b1a 0100     		.2byte	0x1
 14081 1b1c 50       		.byte	0x50
 14082 1b1d 2E010000 		.4byte	.LVL529
 14083 1b21 30010000 		.4byte	.LVL530
 14084 1b25 0100     		.2byte	0x1
 14085 1b27 50       		.byte	0x50
 14086 1b28 00000000 		.4byte	0
 14087 1b2c 00000000 		.4byte	0
 14088              	.LLST115:
 14089 1b30 C2000000 		.4byte	.LVL498
 14090 1b34 DE000000 		.4byte	.LVL499
 14091 1b38 0100     		.2byte	0x1
 14092 1b3a 55       		.byte	0x55
 14093 1b3b 00000000 		.4byte	0
 14094 1b3f 00000000 		.4byte	0
 14095              	.LLST116:
 14096 1b43 C2000000 		.4byte	.LVL498
 14097 1b47 DE000000 		.4byte	.LVL499
 14098 1b4b 0300     		.2byte	0x3
 14099 1b4d 75       		.byte	0x75
 14100 1b4e 11       		.sleb128 17
 14101 1b4f 9F       		.byte	0x9f
 14102 1b50 00000000 		.4byte	0
 14103 1b54 00000000 		.4byte	0
 14104              	.LLST117:
 14105 1b58 2A000000 		.4byte	.LVL534
 14106 1b5c 3F000000 		.4byte	.LVL535-1
 14107 1b60 1600     		.2byte	0x16
 14108 1b62 91       		.byte	0x91
 14109 1b63 CE77     		.sleb128 -1074
 14110 1b65 94       		.byte	0x94
 14111 1b66 01       		.byte	0x1
 14112 1b67 08       		.byte	0x8
 14113 1b68 FF       		.byte	0xff
 14114 1b69 1A       		.byte	0x1a
 14115 1b6a 38       		.byte	0x38
 14116 1b6b 24       		.byte	0x24
 14117 1b6c 91       		.byte	0x91
 14118 1b6d CF77     		.sleb128 -1073
 14119 1b6f 94       		.byte	0x94
ARM GAS  C:\Users\Administrator\AppData\Local\Temp\ccX9Bf8z.s 			page 296


 14120 1b70 01       		.byte	0x1
 14121 1b71 08       		.byte	0x8
 14122 1b72 FF       		.byte	0xff
 14123 1b73 1A       		.byte	0x1a
 14124 1b74 22       		.byte	0x22
 14125 1b75 23       		.byte	0x23
 14126 1b76 04       		.uleb128 0x4
 14127 1b77 9F       		.byte	0x9f
 14128 1b78 00000000 		.4byte	0
 14129 1b7c 00000000 		.4byte	0
 14130              	.LLST118:
 14131 1b80 40000000 		.4byte	.LVL535
 14132 1b84 72000000 		.4byte	.LVL536
 14133 1b88 0100     		.2byte	0x1
 14134 1b8a 50       		.byte	0x50
 14135 1b8b 78000000 		.4byte	.LVL538
 14136 1b8f 8A000000 		.4byte	.LVL539
 14137 1b93 0100     		.2byte	0x1
 14138 1b95 50       		.byte	0x50
 14139 1b96 90000000 		.4byte	.LVL541
 14140 1b9a A2000000 		.4byte	.LVL542
 14141 1b9e 0100     		.2byte	0x1
 14142 1ba0 50       		.byte	0x50
 14143 1ba1 A8000000 		.4byte	.LVL544
 14144 1ba5 BE000000 		.4byte	.LVL546
 14145 1ba9 0100     		.2byte	0x1
 14146 1bab 50       		.byte	0x50
 14147 1bac 22010000 		.4byte	.LVL558
 14148 1bb0 40010000 		.4byte	.LVL560
 14149 1bb4 0100     		.2byte	0x1
 14150 1bb6 50       		.byte	0x50
 14151 1bb7 46010000 		.4byte	.LVL562
 14152 1bbb 48010000 		.4byte	.LVL563
 14153 1bbf 0100     		.2byte	0x1
 14154 1bc1 50       		.byte	0x50
 14155 1bc2 4E010000 		.4byte	.LVL565
 14156 1bc6 50010000 		.4byte	.LVL566
 14157 1bca 0100     		.2byte	0x1
 14158 1bcc 50       		.byte	0x50
 14159 1bcd 56010000 		.4byte	.LVL568
 14160 1bd1 58010000 		.4byte	.LVL569
 14161 1bd5 0100     		.2byte	0x1
 14162 1bd7 50       		.byte	0x50
 14163 1bd8 5E010000 		.4byte	.LVL571
 14164 1bdc 60010000 		.4byte	.LVL572
 14165 1be0 0100     		.2byte	0x1
 14166 1be2 50       		.byte	0x50
 14167 1be3 66010000 		.4byte	.LVL574
 14168 1be7 68010000 		.4byte	.LVL575
 14169 1beb 0100     		.2byte	0x1
 14170 1bed 50       		.byte	0x50
 14171 1bee 6E010000 		.4byte	.LVL577
 14172 1bf2 70010000 		.4byte	.LVL578
 14173 1bf6 0100     		.2byte	0x1
 14174 1bf8 50       		.byte	0x50
 14175 1bf9 76010000 		.4byte	.LVL580
 14176 1bfd 78010000 		.4byte	.LVL581
ARM GAS  C:\Users\Administrator\AppData\Local\Temp\ccX9Bf8z.s 			page 297


 14177 1c01 0100     		.2byte	0x1
 14178 1c03 50       		.byte	0x50
 14179 1c04 7E010000 		.4byte	.LVL583
 14180 1c08 80010000 		.4byte	.LVL584
 14181 1c0c 0100     		.2byte	0x1
 14182 1c0e 50       		.byte	0x50
 14183 1c0f 86010000 		.4byte	.LVL586
 14184 1c13 88010000 		.4byte	.LVL587
 14185 1c17 0100     		.2byte	0x1
 14186 1c19 50       		.byte	0x50
 14187 1c1a 8E010000 		.4byte	.LVL589
 14188 1c1e 90010000 		.4byte	.LVL590
 14189 1c22 0100     		.2byte	0x1
 14190 1c24 50       		.byte	0x50
 14191 1c25 96010000 		.4byte	.LVL592
 14192 1c29 98010000 		.4byte	.LVL593
 14193 1c2d 0100     		.2byte	0x1
 14194 1c2f 50       		.byte	0x50
 14195 1c30 00000000 		.4byte	0
 14196 1c34 00000000 		.4byte	0
 14197              	.LLST119:
 14198 1c38 B6000000 		.4byte	.LVL545
 14199 1c3c 22010000 		.4byte	.LVL558
 14200 1c40 0100     		.2byte	0x1
 14201 1c42 54       		.byte	0x54
 14202 1c43 00000000 		.4byte	0
 14203 1c47 00000000 		.4byte	0
 14204              	.LLST120:
 14205 1c4b C4000000 		.4byte	.LVL547
 14206 1c4f 22010000 		.4byte	.LVL558
 14207 1c53 0200     		.2byte	0x2
 14208 1c55 31       		.byte	0x31
 14209 1c56 9F       		.byte	0x9f
 14210 1c57 00000000 		.4byte	0
 14211 1c5b 00000000 		.4byte	0
 14212              	.LLST121:
 14213 1c5f C4000000 		.4byte	.LVL547
 14214 1c63 D0000000 		.4byte	.LVL550
 14215 1c67 0400     		.2byte	0x4
 14216 1c69 91       		.byte	0x91
 14217 1c6a 8C77     		.sleb128 -1140
 14218 1c6c 9F       		.byte	0x9f
 14219 1c6d D0000000 		.4byte	.LVL550
 14220 1c71 F4000000 		.4byte	.LVL553
 14221 1c75 0100     		.2byte	0x1
 14222 1c77 56       		.byte	0x56
 14223 1c78 F4000000 		.4byte	.LVL553
 14224 1c7c 04010000 		.4byte	.LVL554
 14225 1c80 0400     		.2byte	0x4
 14226 1c82 91       		.byte	0x91
 14227 1c83 9277     		.sleb128 -1134
 14228 1c85 9F       		.byte	0x9f
 14229 1c86 04010000 		.4byte	.LVL554
 14230 1c8a 22010000 		.4byte	.LVL558
 14231 1c8e 0400     		.2byte	0x4
 14232 1c90 91       		.byte	0x91
 14233 1c91 9677     		.sleb128 -1130
ARM GAS  C:\Users\Administrator\AppData\Local\Temp\ccX9Bf8z.s 			page 298


 14234 1c93 9F       		.byte	0x9f
 14235 1c94 00000000 		.4byte	0
 14236 1c98 00000000 		.4byte	0
 14237              	.LLST122:
 14238 1c9c C6000000 		.4byte	.LVL548
 14239 1ca0 22010000 		.4byte	.LVL558
 14240 1ca4 0300     		.2byte	0x3
 14241 1ca6 91       		.byte	0x91
 14242 1ca7 FC76     		.sleb128 -1156
 14243 1ca9 00000000 		.4byte	0
 14244 1cad 00000000 		.4byte	0
 14245              	.LLST123:
 14246 1cb1 F4000000 		.4byte	.LVL553
 14247 1cb5 22010000 		.4byte	.LVL558
 14248 1cb9 0100     		.2byte	0x1
 14249 1cbb 55       		.byte	0x55
 14250 1cbc 00000000 		.4byte	0
 14251 1cc0 00000000 		.4byte	0
 14252              	.LLST124:
 14253 1cc4 22010000 		.4byte	.LVL558
 14254 1cc8 3E010000 		.4byte	.LVL559
 14255 1ccc 0100     		.2byte	0x1
 14256 1cce 54       		.byte	0x54
 14257 1ccf 00000000 		.4byte	0
 14258 1cd3 00000000 		.4byte	0
 14259              	.LLST125:
 14260 1cd7 22010000 		.4byte	.LVL558
 14261 1cdb 3E010000 		.4byte	.LVL559
 14262 1cdf 0300     		.2byte	0x3
 14263 1ce1 74       		.byte	0x74
 14264 1ce2 11       		.sleb128 17
 14265 1ce3 9F       		.byte	0x9f
 14266 1ce4 00000000 		.4byte	0
 14267 1ce8 00000000 		.4byte	0
 14268              		.section	.debug_aranges,"",%progbits
 14269 0000 EC000000 		.4byte	0xec
 14270 0004 0200     		.2byte	0x2
 14271 0006 00000000 		.4byte	.Ldebug_info0
 14272 000a 04       		.byte	0x4
 14273 000b 00       		.byte	0
 14274 000c 0000     		.2byte	0
 14275 000e 0000     		.2byte	0
 14276 0010 00000000 		.4byte	.LFB73
 14277 0014 AC000000 		.4byte	.LFE73-.LFB73
 14278 0018 00000000 		.4byte	.LFB79
 14279 001c 38000000 		.4byte	.LFE79-.LFB79
 14280 0020 00000000 		.4byte	.LFB82
 14281 0024 24000000 		.4byte	.LFE82-.LFB82
 14282 0028 00000000 		.4byte	.LFB80
 14283 002c 54000000 		.4byte	.LFE80-.LFB80
 14284 0030 00000000 		.4byte	.LFB89
 14285 0034 6C000000 		.4byte	.LFE89-.LFB89
 14286 0038 00000000 		.4byte	.LFB63
 14287 003c 5C000000 		.4byte	.LFE63-.LFB63
 14288 0040 00000000 		.4byte	.LFB64
 14289 0044 68000000 		.4byte	.LFE64-.LFB64
 14290 0048 00000000 		.4byte	.LFB65
ARM GAS  C:\Users\Administrator\AppData\Local\Temp\ccX9Bf8z.s 			page 299


 14291 004c 74000000 		.4byte	.LFE65-.LFB65
 14292 0050 00000000 		.4byte	.LFB66
 14293 0054 84000000 		.4byte	.LFE66-.LFB66
 14294 0058 00000000 		.4byte	.LFB67
 14295 005c 00010000 		.4byte	.LFE67-.LFB67
 14296 0060 00000000 		.4byte	.LFB68
 14297 0064 78000000 		.4byte	.LFE68-.LFB68
 14298 0068 00000000 		.4byte	.LFB69
 14299 006c 8C000000 		.4byte	.LFE69-.LFB69
 14300 0070 00000000 		.4byte	.LFB70
 14301 0074 98000000 		.4byte	.LFE70-.LFB70
 14302 0078 00000000 		.4byte	.LFB71
 14303 007c 8C000000 		.4byte	.LFE71-.LFB71
 14304 0080 00000000 		.4byte	.LFB87
 14305 0084 1C010000 		.4byte	.LFE87-.LFB87
 14306 0088 00000000 		.4byte	.LFB72
 14307 008c B4000000 		.4byte	.LFE72-.LFB72
 14308 0090 00000000 		.4byte	.LFB75
 14309 0094 DC000000 		.4byte	.LFE75-.LFB75
 14310 0098 00000000 		.4byte	.LFB76
 14311 009c BC000000 		.4byte	.LFE76-.LFB76
 14312 00a0 00000000 		.4byte	.LFB77
 14313 00a4 9E000000 		.4byte	.LFE77-.LFB77
 14314 00a8 00000000 		.4byte	.LFB78
 14315 00ac 78010000 		.4byte	.LFE78-.LFB78
 14316 00b0 00000000 		.4byte	.LFB81
 14317 00b4 4E000000 		.4byte	.LFE81-.LFB81
 14318 00b8 00000000 		.4byte	.LFB84
 14319 00bc A8010000 		.4byte	.LFE84-.LFB84
 14320 00c0 00000000 		.4byte	.LFB85
 14321 00c4 00010000 		.4byte	.LFE85-.LFB85
 14322 00c8 00000000 		.4byte	.LFB86
 14323 00cc 58000000 		.4byte	.LFE86-.LFB86
 14324 00d0 00000000 		.4byte	.LFB88
 14325 00d4 B8000000 		.4byte	.LFE88-.LFB88
 14326 00d8 00000000 		.4byte	.LFB91
 14327 00dc 70010000 		.4byte	.LFE91-.LFB91
 14328 00e0 00000000 		.4byte	.LFB92
 14329 00e4 CC010000 		.4byte	.LFE92-.LFB92
 14330 00e8 00000000 		.4byte	0
 14331 00ec 00000000 		.4byte	0
 14332              		.section	.debug_ranges,"",%progbits
 14333              	.Ldebug_ranges0:
 14334 0000 00000000 		.4byte	.LFB73
 14335 0004 AC000000 		.4byte	.LFE73
 14336 0008 00000000 		.4byte	.LFB79
 14337 000c 38000000 		.4byte	.LFE79
 14338 0010 00000000 		.4byte	.LFB82
 14339 0014 24000000 		.4byte	.LFE82
 14340 0018 00000000 		.4byte	.LFB80
 14341 001c 54000000 		.4byte	.LFE80
 14342 0020 00000000 		.4byte	.LFB89
 14343 0024 6C000000 		.4byte	.LFE89
 14344 0028 00000000 		.4byte	.LFB63
 14345 002c 5C000000 		.4byte	.LFE63
 14346 0030 00000000 		.4byte	.LFB64
 14347 0034 68000000 		.4byte	.LFE64
ARM GAS  C:\Users\Administrator\AppData\Local\Temp\ccX9Bf8z.s 			page 300


 14348 0038 00000000 		.4byte	.LFB65
 14349 003c 74000000 		.4byte	.LFE65
 14350 0040 00000000 		.4byte	.LFB66
 14351 0044 84000000 		.4byte	.LFE66
 14352 0048 00000000 		.4byte	.LFB67
 14353 004c 00010000 		.4byte	.LFE67
 14354 0050 00000000 		.4byte	.LFB68
 14355 0054 78000000 		.4byte	.LFE68
 14356 0058 00000000 		.4byte	.LFB69
 14357 005c 8C000000 		.4byte	.LFE69
 14358 0060 00000000 		.4byte	.LFB70
 14359 0064 98000000 		.4byte	.LFE70
 14360 0068 00000000 		.4byte	.LFB71
 14361 006c 8C000000 		.4byte	.LFE71
 14362 0070 00000000 		.4byte	.LFB87
 14363 0074 1C010000 		.4byte	.LFE87
 14364 0078 00000000 		.4byte	.LFB72
 14365 007c B4000000 		.4byte	.LFE72
 14366 0080 00000000 		.4byte	.LFB75
 14367 0084 DC000000 		.4byte	.LFE75
 14368 0088 00000000 		.4byte	.LFB76
 14369 008c BC000000 		.4byte	.LFE76
 14370 0090 00000000 		.4byte	.LFB77
 14371 0094 9E000000 		.4byte	.LFE77
 14372 0098 00000000 		.4byte	.LFB78
 14373 009c 78010000 		.4byte	.LFE78
 14374 00a0 00000000 		.4byte	.LFB81
 14375 00a4 4E000000 		.4byte	.LFE81
 14376 00a8 00000000 		.4byte	.LFB84
 14377 00ac A8010000 		.4byte	.LFE84
 14378 00b0 00000000 		.4byte	.LFB85
 14379 00b4 00010000 		.4byte	.LFE85
 14380 00b8 00000000 		.4byte	.LFB86
 14381 00bc 58000000 		.4byte	.LFE86
 14382 00c0 00000000 		.4byte	.LFB88
 14383 00c4 B8000000 		.4byte	.LFE88
 14384 00c8 00000000 		.4byte	.LFB91
 14385 00cc 70010000 		.4byte	.LFE91
 14386 00d0 00000000 		.4byte	.LFB92
 14387 00d4 CC010000 		.4byte	.LFE92
 14388 00d8 00000000 		.4byte	0
 14389 00dc 00000000 		.4byte	0
 14390              		.section	.debug_line,"",%progbits
 14391              	.Ldebug_line0:
 14392 0000 CF090000 		.section	.debug_str,"MS",%progbits,1
 14392      02002703 
 14392      00000201 
 14392      FB0E0D00 
 14392      01010101 
 14393              	.LASF122:
 14394 0000 456E6470 		.ascii	"Endpoint_exchange\000"
 14394      6F696E74 
 14394      5F657863 
 14394      68616E67 
 14394      6500
 14395              	.LASF22:
 14396 0012 73697A65 		.ascii	"size_t\000"
ARM GAS  C:\Users\Administrator\AppData\Local\Temp\ccX9Bf8z.s 			page 301


 14396      5F7400
 14397              	.LASF90:
 14398 0019 4359424C 		.ascii	"CYBLE_DIS_CHAR_COUNT\000"
 14398      455F4449 
 14398      535F4348 
 14398      41525F43 
 14398      4F554E54 
 14399              	.LASF23:
 14400 002e 73697A65 		.ascii	"sizetype\000"
 14400      74797065 
 14400      00
 14401              	.LASF203:
 14402 0037 47505253 		.ascii	"GPRSCmdParseFlag1\000"
 14402      436D6450 
 14402      61727365 
 14402      466C6167 
 14402      3100
 14403              	.LASF116:
 14404 0049 50726F74 		.ascii	"Protocol_CmdPluse\000"
 14404      6F636F6C 
 14404      5F436D64 
 14404      506C7573 
 14404      6500
 14405              	.LASF177:
 14406 005b 50726F74 		.ascii	"Protocol_CmdRemoteRestart\000"
 14406      6F636F6C 
 14406      5F436D64 
 14406      52656D6F 
 14406      74655265 
 14407              	.LASF186:
 14408 0075 426C6543 		.ascii	"BleCmdBuf\000"
 14408      6D644275 
 14408      6600
 14409              	.LASF223:
 14410 007f 43617264 		.ascii	"Card_ErrCount\000"
 14410      5F457272 
 14410      436F756E 
 14410      7400
 14411              	.LASF134:
 14412 008d 73656E64 		.ascii	"send_heartbeat\000"
 14412      5F686561 
 14412      72746265 
 14412      617400
 14413              	.LASF37:
 14414 009c 4359424C 		.ascii	"CYBLE_EVT_GAP_DEVICE_CONNECTED\000"
 14414      455F4556 
 14414      545F4741 
 14414      505F4445 
 14414      56494345 
 14415              	.LASF44:
 14416 00bb 4359424C 		.ascii	"CYBLE_EVT_GATT_CONNECT_IND\000"
 14416      455F4556 
 14416      545F4741 
 14416      54545F43 
 14416      4F4E4E45 
 14417              	.LASF176:
 14418 00d6 50726F74 		.ascii	"Protocol_CmdRemoteUpdate\000"
ARM GAS  C:\Users\Administrator\AppData\Local\Temp\ccX9Bf8z.s 			page 302


 14418      6F636F6C 
 14418      5F436D64 
 14418      52656D6F 
 14418      74655570 
 14419              	.LASF105:
 14420 00ef 6E436D64 		.ascii	"nCmdPackLen\000"
 14420      5061636B 
 14420      4C656E00 
 14421              	.LASF17:
 14422 00fb 75696E74 		.ascii	"uint32\000"
 14422      333200
 14423              	.LASF139:
 14424 0102 73656E64 		.ascii	"send_update_req\000"
 14424      5F757064 
 14424      6174655F 
 14424      72657100 
 14425              	.LASF132:
 14426 0112 7569646C 		.ascii	"uidlen\000"
 14426      656E00
 14427              	.LASF187:
 14428 0119 426C6543 		.ascii	"BleCmdValidFlag\000"
 14428      6D645661 
 14428      6C696446 
 14428      6C616700 
 14429              	.LASF110:
 14430 0129 50726F74 		.ascii	"Protocol_CmdSendOpenInfo\000"
 14430      6F636F6C 
 14430      5F436D64 
 14430      53656E64 
 14430      4F70656E 
 14431              	.LASF175:
 14432 0142 7455706C 		.ascii	"tUploadQty\000"
 14432      6F616451 
 14432      747900
 14433              	.LASF216:
 14434 014d 6E657874 		.ascii	"next_allupload_time\000"
 14434      5F616C6C 
 14434      75706C6F 
 14434      61645F74 
 14434      696D6500 
 14435              	.LASF64:
 14436 0161 4359424C 		.ascii	"CYBLE_EVT_GATTS_DATA_SIGNED_CMD_REQ\000"
 14436      455F4556 
 14436      545F4741 
 14436      5454535F 
 14436      44415441 
 14437              	.LASF75:
 14438 0185 4359424C 		.ascii	"CYBLE_EVT_L2CAP_CBFC_RX_CREDIT_IND\000"
 14438      455F4556 
 14438      545F4C32 
 14438      4341505F 
 14438      43424643 
 14439              	.LASF160:
 14440 01a8 50726F74 		.ascii	"Protocol_CmdWriteUID\000"
 14440      6F636F6C 
 14440      5F436D64 
 14440      57726974 
ARM GAS  C:\Users\Administrator\AppData\Local\Temp\ccX9Bf8z.s 			page 303


 14440      65554944 
 14441              	.LASF215:
 14442 01bd 6E657874 		.ascii	"next_gprs_upload_time\000"
 14442      5F677072 
 14442      735F7570 
 14442      6C6F6164 
 14442      5F74696D 
 14443              	.LASF127:
 14444 01d3 54656D70 		.ascii	"TempCrc\000"
 14444      43726300 
 14445              	.LASF232:
 14446 01db 57323551 		.ascii	"W25QXX_Write\000"
 14446      58585F57 
 14446      72697465 
 14446      00
 14447              	.LASF85:
 14448 01e8 4359424C 		.ascii	"CYBLE_DIS_FIRMWARE_REV\000"
 14448      455F4449 
 14448      535F4649 
 14448      524D5741 
 14448      52455F52 
 14449              	.LASF61:
 14450 01ff 4359424C 		.ascii	"CYBLE_EVT_GATTC_HANDLE_VALUE_NTF\000"
 14450      455F4556 
 14450      545F4741 
 14450      5454435F 
 14450      48414E44 
 14451              	.LASF31:
 14452 0220 4359424C 		.ascii	"CYBLE_EVT_GAP_AUTH_REQ\000"
 14452      455F4556 
 14452      545F4741 
 14452      505F4155 
 14452      54485F52 
 14453              	.LASF149:
 14454 0237 63506163 		.ascii	"cPackType\000"
 14454      6B547970 
 14454      6500
 14455              	.LASF254:
 14456 0241 55736572 		.ascii	"UserData_CLR_User\000"
 14456      44617461 
 14456      5F434C52 
 14456      5F557365 
 14456      7200
 14457              	.LASF121:
 14458 0253 64617461 		.ascii	"databuf\000"
 14458      62756600 
 14459              	.LASF104:
 14460 025b 52656342 		.ascii	"RecBuf\000"
 14460      756600
 14461              	.LASF108:
 14462 0262 706F7274 		.ascii	"port_hex\000"
 14462      5F686578 
 14462      00
 14463              	.LASF210:
 14464 026b 436D645F 		.ascii	"Cmd_Revsta\000"
 14464      52657673 
 14464      746100
ARM GAS  C:\Users\Administrator\AppData\Local\Temp\ccX9Bf8z.s 			page 304


 14465              	.LASF118:
 14466 0276 4E65776D 		.ascii	"Newmac\000"
 14466      616300
 14467              	.LASF4:
 14468 027d 5F5F7569 		.ascii	"__uint8_t\000"
 14468      6E74385F 
 14468      7400
 14469              	.LASF195:
 14470 0287 75706461 		.ascii	"update_port\000"
 14470      74655F70 
 14470      6F727400 
 14471              	.LASF248:
 14472 0293 64656C61 		.ascii	"delay_with_ble\000"
 14472      795F7769 
 14472      74685F62 
 14472      6C6500
 14473              	.LASF250:
 14474 02a2 4C65645F 		.ascii	"Led_SetState\000"
 14474      53657453 
 14474      74617465 
 14474      00
 14475              	.LASF184:
 14476 02af 6465765F 		.ascii	"dev_mac\000"
 14476      6D616300 
 14477              	.LASF57:
 14478 02b7 4359424C 		.ascii	"CYBLE_EVT_GATTS_WRITE_CMD_REQ\000"
 14478      455F4556 
 14478      545F4741 
 14478      5454535F 
 14478      57524954 
 14479              	.LASF208:
 14480 02d5 436D6452 		.ascii	"CmdRev_buf\000"
 14480      65765F62 
 14480      756600
 14481              	.LASF261:
 14482 02e0 436C6561 		.ascii	"Clear_AllOPeninfo\000"
 14482      725F416C 
 14482      6C4F5065 
 14482      6E696E66 
 14482      6F00
 14483              	.LASF20:
 14484 02f2 75696E74 		.ascii	"uint64\000"
 14484      363400
 14485              	.LASF6:
 14486 02f9 6C6F6E67 		.ascii	"long int\000"
 14486      20696E74 
 14486      00
 14487              	.LASF181:
 14488 0302 54656D70 		.ascii	"TempCmdBuf\000"
 14488      436D6442 
 14488      756600
 14489              	.LASF25:
 14490 030d 4359424C 		.ascii	"CYBLE_EVT_STACK_ON\000"
 14490      455F4556 
 14490      545F5354 
 14490      41434B5F 
 14490      4F4E00
ARM GAS  C:\Users\Administrator\AppData\Local\Temp\ccX9Bf8z.s 			page 305


 14491              	.LASF84:
 14492 0320 4359424C 		.ascii	"CYBLE_DIS_HARDWARE_REV\000"
 14492      455F4449 
 14492      535F4841 
 14492      52445741 
 14492      52455F52 
 14493              	.LASF163:
 14494 0337 52657443 		.ascii	"RetCode\000"
 14494      6F646500 
 14495              	.LASF142:
 14496 033f 52656164 		.ascii	"ReadDataBuf\000"
 14496      44617461 
 14496      42756600 
 14497              	.LASF191:
 14498 034b 646F6D61 		.ascii	"domain\000"
 14498      696E00
 14499              	.LASF221:
 14500 0352 67707273 		.ascii	"gprs_operation_ErrCount\000"
 14500      5F6F7065 
 14500      72617469 
 14500      6F6E5F45 
 14500      7272436F 
 14501              	.LASF158:
 14502 036a 70554944 		.ascii	"pUID\000"
 14502      00
 14503              	.LASF152:
 14504 036f 55736572 		.ascii	"UserDataLen\000"
 14504      44617461 
 14504      4C656E00 
 14505              	.LASF140:
 14506 037b 70616765 		.ascii	"page\000"
 14506      00
 14507              	.LASF150:
 14508 0380 63436D64 		.ascii	"cCmd\000"
 14508      00
 14509              	.LASF69:
 14510 0385 4359424C 		.ascii	"CYBLE_EVT_L2CAP_COMMAND_REJ\000"
 14510      455F4556 
 14510      545F4C32 
 14510      4341505F 
 14510      434F4D4D 
 14511              	.LASF1:
 14512 03a1 7369676E 		.ascii	"signed char\000"
 14512      65642063 
 14512      68617200 
 14513              	.LASF12:
 14514 03ad 75696E74 		.ascii	"uint8_t\000"
 14514      385F7400 
 14515              	.LASF27:
 14516 03b5 4359424C 		.ascii	"CYBLE_EVT_HARDWARE_ERROR\000"
 14516      455F4556 
 14516      545F4841 
 14516      52445741 
 14516      52455F45 
 14517              	.LASF255:
 14518 03ce 46696E64 		.ascii	"Find_Open_ValidQty\000"
 14518      5F4F7065 
ARM GAS  C:\Users\Administrator\AppData\Local\Temp\ccX9Bf8z.s 			page 306


 14518      6E5F5661 
 14518      6C696451 
 14518      747900
 14519              	.LASF48:
 14520 03e1 4359424C 		.ascii	"CYBLE_EVT_GATTC_READ_BY_GROUP_TYPE_RSP\000"
 14520      455F4556 
 14520      545F4741 
 14520      5454435F 
 14520      52454144 
 14521              	.LASF2:
 14522 0408 756E7369 		.ascii	"unsigned char\000"
 14522      676E6564 
 14522      20636861 
 14522      7200
 14523              	.LASF47:
 14524 0416 4359424C 		.ascii	"CYBLE_EVT_GATTC_XCHNG_MTU_RSP\000"
 14524      455F4556 
 14524      545F4741 
 14524      5454435F 
 14524      5843484E 
 14525              	.LASF249:
 14526 0434 446F6F72 		.ascii	"DoorClose\000"
 14526      436C6F73 
 14526      6500
 14527              	.LASF182:
 14528 043e 436D6450 		.ascii	"CmdPacketTotalSize\000"
 14528      61636B65 
 14528      74546F74 
 14528      616C5369 
 14528      7A6500
 14529              	.LASF235:
 14530 0451 426C6553 		.ascii	"BleSend\000"
 14530      656E6400 
 14531              	.LASF76:
 14532 0459 4359424C 		.ascii	"CYBLE_EVT_L2CAP_CBFC_TX_CREDIT_IND\000"
 14532      455F4556 
 14532      545F4C32 
 14532      4341505F 
 14532      43424643 
 14533              	.LASF73:
 14534 047c 4359424C 		.ascii	"CYBLE_EVT_L2CAP_CBFC_DISCONN_CNF\000"
 14534      455F4556 
 14534      545F4C32 
 14534      4341505F 
 14534      43424643 
 14535              	.LASF51:
 14536 049d 4359424C 		.ascii	"CYBLE_EVT_GATTC_FIND_BY_TYPE_VALUE_RSP\000"
 14536      455F4556 
 14536      545F4741 
 14536      5454435F 
 14536      46494E44 
 14537              	.LASF129:
 14538 04c4 73656E64 		.ascii	"send_send_mac_and_get_blekey\000"
 14538      5F73656E 
 14538      645F6D61 
 14538      635F616E 
 14538      645F6765 
ARM GAS  C:\Users\Administrator\AppData\Local\Temp\ccX9Bf8z.s 			page 307


 14539              	.LASF185:
 14540 04e1 50726F74 		.ascii	"Protocol_CmdParse_BLE\000"
 14540      6F636F6C 
 14540      5F436D64 
 14540      50617273 
 14540      655F424C 
 14541              	.LASF98:
 14542 04f7 73656E64 		.ascii	"send_time\000"
 14542      5F74696D 
 14542      6500
 14543              	.LASF21:
 14544 0501 63686172 		.ascii	"char\000"
 14544      00
 14545              	.LASF251:
 14546 0506 57726974 		.ascii	"Write_OpenInfo\000"
 14546      655F4F70 
 14546      656E496E 
 14546      666F00
 14547              	.LASF54:
 14548 0515 4359424C 		.ascii	"CYBLE_EVT_GATTC_READ_MULTI_RSP\000"
 14548      455F4556 
 14548      545F4741 
 14548      5454435F 
 14548      52454144 
 14549              	.LASF201:
 14550 0534 53656E64 		.ascii	"SendMacFlag\000"
 14550      4D616346 
 14550      6C616700 
 14551              	.LASF244:
 14552 0540 55736572 		.ascii	"UserData_Judge_If_Open\000"
 14552      44617461 
 14552      5F4A7564 
 14552      67655F49 
 14552      665F4F70 
 14553              	.LASF24:
 14554 0557 4359424C 		.ascii	"CYBLE_EVT_HOST_INVALID\000"
 14554      455F4556 
 14554      545F484F 
 14554      53545F49 
 14554      4E56414C 
 14555              	.LASF5:
 14556 056e 5F5F7569 		.ascii	"__uint16_t\000"
 14556      6E743136 
 14556      5F7400
 14557              	.LASF53:
 14558 0579 4359424C 		.ascii	"CYBLE_EVT_GATTC_READ_BLOB_RSP\000"
 14558      455F4556 
 14558      545F4741 
 14558      5454435F 
 14558      52454144 
 14559              	.LASF60:
 14560 0597 4359424C 		.ascii	"CYBLE_EVT_GATTC_EXEC_WRITE_RSP\000"
 14560      455F4556 
 14560      545F4741 
 14560      5454435F 
 14560      45584543 
 14561              	.LASF227:
ARM GAS  C:\Users\Administrator\AppData\Local\Temp\ccX9Bf8z.s 			page 308


 14562 05b6 55706C6F 		.ascii	"UploadStartnum\000"
 14562      61645374 
 14562      6172746E 
 14562      756D00
 14563              	.LASF86:
 14564 05c5 4359424C 		.ascii	"CYBLE_DIS_SOFTWARE_REV\000"
 14564      455F4449 
 14564      535F534F 
 14564      46545741 
 14564      52455F52 
 14565              	.LASF65:
 14566 05dc 4359424C 		.ascii	"CYBLE_EVT_GATTC_STOP_CMD_COMPLETE\000"
 14566      455F4556 
 14566      545F4741 
 14566      5454435F 
 14566      53544F50 
 14567              	.LASF102:
 14568 05fe 50726F74 		.ascii	"Protocol_CmdGetMacAndKey\000"
 14568      6F636F6C 
 14568      5F436D64 
 14568      4765744D 
 14568      6163416E 
 14569              	.LASF246:
 14570 0617 4C65645F 		.ascii	"Led_GreenON\000"
 14570      47726565 
 14570      6E4F4E00 
 14571              	.LASF241:
 14572 0623 64657465 		.ascii	"detect_nfc_card\000"
 14572      63745F6E 
 14572      66635F63 
 14572      61726400 
 14573              	.LASF166:
 14574 0633 6F70656E 		.ascii	"openInfo\000"
 14574      496E666F 
 14574      00
 14575              	.LASF82:
 14576 063c 4359424C 		.ascii	"CYBLE_DIS_MODEL_NUMBER\000"
 14576      455F4449 
 14576      535F4D4F 
 14576      44454C5F 
 14576      4E554D42 
 14577              	.LASF164:
 14578 0653 704D4143 		.ascii	"pMAC\000"
 14578      00
 14579              	.LASF87:
 14580 0658 4359424C 		.ascii	"CYBLE_DIS_SYSTEM_ID\000"
 14580      455F4449 
 14580      535F5359 
 14580      5354454D 
 14580      5F494400 
 14581              	.LASF147:
 14582 066c 50726F74 		.ascii	"Protocol_SendAckPacket\000"
 14582      6F636F6C 
 14582      5F53656E 
 14582      6441636B 
 14582      5061636B 
 14583              	.LASF229:
ARM GAS  C:\Users\Administrator\AppData\Local\Temp\ccX9Bf8z.s 			page 309


 14584 0683 46696E64 		.ascii	"FindAndSet_UploadTime_UploadFlag\000"
 14584      416E6453 
 14584      65745F55 
 14584      706C6F61 
 14584      6454696D 
 14585              	.LASF144:
 14586 06a4 72656376 		.ascii	"recv_page\000"
 14586      5F706167 
 14586      6500
 14587              	.LASF100:
 14588 06ae 626C655F 		.ascii	"ble_key\000"
 14588      6B657900 
 14589              	.LASF173:
 14590 06b6 656E645F 		.ascii	"end_time\000"
 14590      74696D65 
 14590      00
 14591              	.LASF239:
 14592 06bf 47505253 		.ascii	"GPRS_SendHexDataToServer\000"
 14592      5F53656E 
 14592      64486578 
 14592      44617461 
 14592      546F5365 
 14593              	.LASF68:
 14594 06d8 4359424C 		.ascii	"CYBLE_EVT_L2CAP_CONN_PARAM_UPDATE_RSP\000"
 14594      455F4556 
 14594      545F4C32 
 14594      4341505F 
 14594      434F4E4E 
 14595              	.LASF168:
 14596 06fe 50726F74 		.ascii	"Protocol_CmdReadInfo\000"
 14596      6F636F6C 
 14596      5F436D64 
 14596      52656164 
 14596      496E666F 
 14597              	.LASF97:
 14598 0713 6F70656E 		.ascii	"open_time\000"
 14598      5F74696D 
 14598      6500
 14599              	.LASF178:
 14600 071d 50726F74 		.ascii	"Protocol_CmdChangeIP\000"
 14600      6F636F6C 
 14600      5F436D64 
 14600      4368616E 
 14600      67654950 
 14601              	.LASF161:
 14602 0732 50726F74 		.ascii	"Protocol_CmdDelUID\000"
 14602      6F636F6C 
 14602      5F436D64 
 14602      44656C55 
 14602      494400
 14603              	.LASF194:
 14604 0745 75706461 		.ascii	"update_ip\000"
 14604      74655F69 
 14604      7000
 14605              	.LASF34:
 14606 074f 4359424C 		.ascii	"CYBLE_EVT_GAP_AUTH_COMPLETE\000"
 14606      455F4556 
ARM GAS  C:\Users\Administrator\AppData\Local\Temp\ccX9Bf8z.s 			page 310


 14606      545F4741 
 14606      505F4155 
 14606      54485F43 
 14607              	.LASF92:
 14608 076b 63617264 		.ascii	"card_uid\000"
 14608      5F756964 
 14608      00
 14609              	.LASF35:
 14610 0774 4359424C 		.ascii	"CYBLE_EVT_GAP_AUTH_FAILED\000"
 14610      455F4556 
 14610      545F4741 
 14610      505F4155 
 14610      54485F46 
 14611              	.LASF258:
 14612 078e 52656164 		.ascii	"Read_Open_Type\000"
 14612      5F4F7065 
 14612      6E5F5479 
 14612      706500
 14613              	.LASF99:
 14614 079d 6F70656E 		.ascii	"open_door_t\000"
 14614      5F646F6F 
 14614      725F7400 
 14615              	.LASF109:
 14616 07a9 50726F74 		.ascii	"Protocol_CmdGetPreSever\000"
 14616      6F636F6C 
 14616      5F436D64 
 14616      47657450 
 14616      72655365 
 14617              	.LASF8:
 14618 07c1 6C6F6E67 		.ascii	"long unsigned int\000"
 14618      20756E73 
 14618      69676E65 
 14618      6420696E 
 14618      7400
 14619              	.LASF157:
 14620 07d3 44617461 		.ascii	"DataBuf\000"
 14620      42756600 
 14621              	.LASF141:
 14622 07db 50726F74 		.ascii	"Protocol_CmdRemoteDownload\000"
 14622      6F636F6C 
 14622      5F436D64 
 14622      52656D6F 
 14622      7465446F 
 14623              	.LASF156:
 14624 07f6 50726F74 		.ascii	"Protocol_CmdReadUID\000"
 14624      6F636F6C 
 14624      5F436D64 
 14624      52656164 
 14624      55494400 
 14625              	.LASF112:
 14626 080a 7054696D 		.ascii	"pTime\000"
 14626      6500
 14627              	.LASF148:
 14628 0810 436F6D6D 		.ascii	"CommChanle\000"
 14628      4368616E 
 14628      6C6500
 14629              	.LASF128:
ARM GAS  C:\Users\Administrator\AppData\Local\Temp\ccX9Bf8z.s 			page 311


 14630 081b 7061636B 		.ascii	"pack_len\000"
 14630      5F6C656E 
 14630      00
 14631              	.LASF29:
 14632 0824 4359424C 		.ascii	"CYBLE_EVT_STACK_BUSY_STATUS\000"
 14632      455F4556 
 14632      545F5354 
 14632      41434B5F 
 14632      42555359 
 14633              	.LASF179:
 14634 0840 49704E75 		.ascii	"IpNum\000"
 14634      6D00
 14635              	.LASF143:
 14636 0846 64617461 		.ascii	"data_size\000"
 14636      5F73697A 
 14636      6500
 14637              	.LASF83:
 14638 0850 4359424C 		.ascii	"CYBLE_DIS_SERIAL_NUMBER\000"
 14638      455F4449 
 14638      535F5345 
 14638      5249414C 
 14638      5F4E554D 
 14639              	.LASF233:
 14640 0868 566F6963 		.ascii	"VoicePlay\000"
 14640      65506C61 
 14640      7900
 14641              	.LASF40:
 14642 0872 4359424C 		.ascii	"CYBLE_EVT_GAP_CONNECTION_UPDATE_COMPLETE\000"
 14642      455F4556 
 14642      545F4741 
 14642      505F434F 
 14642      4E4E4543 
 14643              	.LASF183:
 14644 089b 50726F74 		.ascii	"Protocol_ClrOpenData_Qty\000"
 14644      6F636F6C 
 14644      5F436C72 
 14644      4F70656E 
 14644      44617461 
 14645              	.LASF91:
 14646 08b4 494E5438 		.ascii	"INT8U\000"
 14646      5500
 14647              	.LASF72:
 14648 08ba 4359424C 		.ascii	"CYBLE_EVT_L2CAP_CBFC_DISCONN_IND\000"
 14648      455F4556 
 14648      545F4C32 
 14648      4341505F 
 14648      43424643 
 14649              	.LASF138:
 14650 08db 616C6172 		.ascii	"alarm_mode\000"
 14650      6D5F6D6F 
 14650      646500
 14651              	.LASF32:
 14652 08e6 4359424C 		.ascii	"CYBLE_EVT_GAP_PASSKEY_ENTRY_REQUEST\000"
 14652      455F4556 
 14652      545F4741 
 14652      505F5041 
 14652      53534B45 
ARM GAS  C:\Users\Administrator\AppData\Local\Temp\ccX9Bf8z.s 			page 312


 14653              	.LASF7:
 14654 090a 5F5F7569 		.ascii	"__uint32_t\000"
 14654      6E743332 
 14654      5F7400
 14655              	.LASF9:
 14656 0915 6C6F6E67 		.ascii	"long long int\000"
 14656      206C6F6E 
 14656      6720696E 
 14656      7400
 14657              	.LASF204:
 14658 0923 47505253 		.ascii	"GPRSCmdParseFlag2\000"
 14658      436D6450 
 14658      61727365 
 14658      466C6167 
 14658      3200
 14659              	.LASF89:
 14660 0935 4359424C 		.ascii	"CYBLE_DIS_PNP_ID\000"
 14660      455F4449 
 14660      535F504E 
 14660      505F4944 
 14660      00
 14661              	.LASF238:
 14662 0946 4D794372 		.ascii	"MyCrc16Check\000"
 14662      63313643 
 14662      6865636B 
 14662      00
 14663              	.LASF19:
 14664 0953 646F7562 		.ascii	"double\000"
 14664      6C6500
 14665              	.LASF78:
 14666 095a 4359424C 		.ascii	"CYBLE_EVT_PENDING_FLASH_WRITE\000"
 14666      455F4556 
 14666      545F5045 
 14666      4E44494E 
 14666      475F464C 
 14667              	.LASF220:
 14668 0978 77616974 		.ascii	"wait_timeout\000"
 14668      5F74696D 
 14668      656F7574 
 14668      00
 14669              	.LASF197:
 14670 0985 75706461 		.ascii	"update_version\000"
 14670      74655F76 
 14670      65727369 
 14670      6F6E00
 14671              	.LASF174:
 14672 0994 6170705F 		.ascii	"app_group\000"
 14672      67726F75 
 14672      7000
 14673              	.LASF154:
 14674 099e 4E6F5074 		.ascii	"NoPtr\000"
 14674      7200
 14675              	.LASF18:
 14676 09a4 666C6F61 		.ascii	"float\000"
 14676      7400
 14677              	.LASF146:
 14678 09aa 436D645F 		.ascii	"Cmd_Protocol_ParaInit\000"
ARM GAS  C:\Users\Administrator\AppData\Local\Temp\ccX9Bf8z.s 			page 313


 14678      50726F74 
 14678      6F636F6C 
 14678      5F506172 
 14678      61496E69 
 14679              	.LASF66:
 14680 09c0 4359424C 		.ascii	"CYBLE_EVT_GATTS_READ_CHAR_VAL_ACCESS_REQ\000"
 14680      455F4556 
 14680      545F4741 
 14680      5454535F 
 14680      52454144 
 14681              	.LASF236:
 14682 09e9 42656570 		.ascii	"BeepPlay_Delay\000"
 14682      506C6179 
 14682      5F44656C 
 14682      617900
 14683              	.LASF162:
 14684 09f8 50726F74 		.ascii	"Protocol_CmdOpenDoor\000"
 14684      6F636F6C 
 14684      5F436D64 
 14684      4F70656E 
 14684      446F6F72 
 14685              	.LASF11:
 14686 0a0d 756E7369 		.ascii	"unsigned int\000"
 14686      676E6564 
 14686      20696E74 
 14686      00
 14687              	.LASF123:
 14688 0a1a 73656E64 		.ascii	"send_get_pre_service_ip\000"
 14688      5F676574 
 14688      5F707265 
 14688      5F736572 
 14688      76696365 
 14689              	.LASF58:
 14690 0a32 4359424C 		.ascii	"CYBLE_EVT_GATTS_PREP_WRITE_REQ\000"
 14690      455F4556 
 14690      545F4741 
 14690      5454535F 
 14690      50524550 
 14691              	.LASF218:
 14692 0a51 75706461 		.ascii	"update_timeout_count\000"
 14692      74655F74 
 14692      696D656F 
 14692      75745F63 
 14692      6F756E74 
 14693              	.LASF155:
 14694 0a66 6E506163 		.ascii	"nPacketLen\000"
 14694      6B65744C 
 14694      656E00
 14695              	.LASF257:
 14696 0a71 4765745F 		.ascii	"Get_Open_Info\000"
 14696      4F70656E 
 14696      5F496E66 
 14696      6F00
 14697              	.LASF88:
 14698 0a7f 4359424C 		.ascii	"CYBLE_DIS_REG_CERT_DATA\000"
 14698      455F4449 
 14698      535F5245 
ARM GAS  C:\Users\Administrator\AppData\Local\Temp\ccX9Bf8z.s 			page 314


 14698      475F4345 
 14698      52545F44 
 14699              	.LASF188:
 14700 0a97 41444352 		.ascii	"ADCResultCenter\000"
 14700      6573756C 
 14700      7443656E 
 14700      74657200 
 14701              	.LASF96:
 14702 0aa7 6F70656E 		.ascii	"open_door\000"
 14702      5F646F6F 
 14702      7200
 14703              	.LASF119:
 14704 0ab1 666C6167 		.ascii	"flag\000"
 14704      00
 14705              	.LASF124:
 14706 0ab6 75617274 		.ascii	"uart_buf\000"
 14706      5F627566 
 14706      00
 14707              	.LASF93:
 14708 0abf 76616C69 		.ascii	"valid_time\000"
 14708      645F7469 
 14708      6D6500
 14709              	.LASF120:
 14710 0aca 63617264 		.ascii	"card_data\000"
 14710      5F646174 
 14710      6100
 14711              	.LASF262:
 14712 0ad4 474E5520 		.ascii	"GNU C 4.9.3 20150303 (release) [ARM/embedded-4_9-br"
 14712      4320342E 
 14712      392E3320 
 14712      32303135 
 14712      30333033 
 14713 0b07 616E6368 		.ascii	"anch revision 221220] -mcpu=cortex-m0 -mthumb -g -O"
 14713      20726576 
 14713      6973696F 
 14713      6E203232 
 14713      31323230 
 14714 0b3a 73202D66 		.ascii	"s -ffunction-sections -ffat-lto-objects\000"
 14714      66756E63 
 14714      74696F6E 
 14714      2D736563 
 14714      74696F6E 
 14715              	.LASF137:
 14716 0b62 73656E64 		.ascii	"send_alarm_info\000"
 14716      5F616C61 
 14716      726D5F69 
 14716      6E666F00 
 14717              	.LASF151:
 14718 0b72 55736572 		.ascii	"UserData\000"
 14718      44617461 
 14718      00
 14719              	.LASF80:
 14720 0b7b 4359424C 		.ascii	"CYBLE_EVT_MAX\000"
 14720      455F4556 
 14720      545F4D41 
 14720      5800
 14721              	.LASF41:
ARM GAS  C:\Users\Administrator\AppData\Local\Temp\ccX9Bf8z.s 			page 315


 14722 0b89 4359424C 		.ascii	"CYBLE_EVT_GAPC_SCAN_START_STOP\000"
 14722      455F4556 
 14722      545F4741 
 14722      50435F53 
 14722      43414E5F 
 14723              	.LASF226:
 14724 0ba8 55706C6F 		.ascii	"UploadQty\000"
 14724      61645174 
 14724      7900
 14725              	.LASF131:
 14726 0bb2 6F70656E 		.ascii	"open_info\000"
 14726      5F696E66 
 14726      6F00
 14727              	.LASF55:
 14728 0bbc 4359424C 		.ascii	"CYBLE_EVT_GATTS_WRITE_REQ\000"
 14728      455F4556 
 14728      545F4741 
 14728      5454535F 
 14728      57524954 
 14729              	.LASF231:
 14730 0bd6 57323551 		.ascii	"W25QXX_Read\000"
 14730      58585F52 
 14730      65616400 
 14731              	.LASF207:
 14732 0be2 52656376 		.ascii	"RecvType\000"
 14732      54797065 
 14732      00
 14733              	.LASF33:
 14734 0beb 4359424C 		.ascii	"CYBLE_EVT_GAP_PASSKEY_DISPLAY_REQUEST\000"
 14734      455F4556 
 14734      545F4741 
 14734      505F5041 
 14734      53534B45 
 14735              	.LASF256:
 14736 0c11 46696E64 		.ascii	"Find_Open_StartNum\000"
 14736      5F4F7065 
 14736      6E5F5374 
 14736      6172744E 
 14736      756D00
 14737              	.LASF52:
 14738 0c24 4359424C 		.ascii	"CYBLE_EVT_GATTC_READ_RSP\000"
 14738      455F4556 
 14738      545F4741 
 14738      5454435F 
 14738      52454144 
 14739              	.LASF95:
 14740 0c3d 75736572 		.ascii	"user_info\000"
 14740      5F696E66 
 14740      6F00
 14741              	.LASF71:
 14742 0c47 4359424C 		.ascii	"CYBLE_EVT_L2CAP_CBFC_CONN_CNF\000"
 14742      455F4556 
 14742      545F4C32 
 14742      4341505F 
 14742      43424643 
 14743              	.LASF126:
 14744 0c65 74696D65 		.ascii	"time_tmp\000"
ARM GAS  C:\Users\Administrator\AppData\Local\Temp\ccX9Bf8z.s 			page 316


 14744      5F746D70 
 14744      00
 14745              	.LASF193:
 14746 0c6e 7072655F 		.ascii	"pre_port\000"
 14746      706F7274 
 14746      00
 14747              	.LASF222:
 14748 0c77 68656172 		.ascii	"heartbeat_SendCount\000"
 14748      74626561 
 14748      745F5365 
 14748      6E64436F 
 14748      756E7400 
 14749              	.LASF135:
 14750 0c8b 6C6F636B 		.ascii	"lock_state\000"
 14750      5F737461 
 14750      746500
 14751              	.LASF39:
 14752 0c96 4359424C 		.ascii	"CYBLE_EVT_GAP_ENCRYPT_CHANGE\000"
 14752      455F4556 
 14752      545F4741 
 14752      505F454E 
 14752      43525950 
 14753              	.LASF94:
 14754 0cb3 75736572 		.ascii	"user_info_t\000"
 14754      5F696E66 
 14754      6F5F7400 
 14755              	.LASF46:
 14756 0cbf 4359424C 		.ascii	"CYBLE_EVT_GATTS_XCNHG_MTU_REQ\000"
 14756      455F4556 
 14756      545F4741 
 14756      5454535F 
 14756      58434E48 
 14757              	.LASF101:
 14758 0cdd 70737472 		.ascii	"pstr\000"
 14758      00
 14759              	.LASF159:
 14760 0ce2 636F6D6D 		.ascii	"comm_chanle\000"
 14760      5F636861 
 14760      6E6C6500 
 14761              	.LASF81:
 14762 0cee 4359424C 		.ascii	"CYBLE_DIS_MANUFACTURER_NAME\000"
 14762      455F4449 
 14762      535F4D41 
 14762      4E554641 
 14762      43545552 
 14763              	.LASF10:
 14764 0d0a 6C6F6E67 		.ascii	"long long unsigned int\000"
 14764      206C6F6E 
 14764      6720756E 
 14764      7369676E 
 14764      65642069 
 14765              	.LASF202:
 14766 0d21 67707273 		.ascii	"gprs_state\000"
 14766      5F737461 
 14766      746500
 14767              	.LASF26:
 14768 0d2c 4359424C 		.ascii	"CYBLE_EVT_TIMEOUT\000"
ARM GAS  C:\Users\Administrator\AppData\Local\Temp\ccX9Bf8z.s 			page 317


 14768      455F4556 
 14768      545F5449 
 14768      4D454F55 
 14768      5400
 14769              	.LASF264:
 14770 0d3e 473A5C50 		.ascii	"G:\\Psoc4_prj\\7.rental_house\\18-04-11\\second_ima"
 14770      736F6334 
 14770      5F70726A 
 14770      5C372E72 
 14770      656E7461 
 14771 0d6d 6765735B 		.ascii	"ges[4-9]\\EntranceGuard_171019-12.50\\EntranceGuard"
 14771      342D395D 
 14771      5C456E74 
 14771      72616E63 
 14771      65477561 
 14772 0d9e 2E637964 		.ascii	".cydsn\000"
 14772      736E00
 14773              	.LASF13:
 14774 0da5 75696E74 		.ascii	"uint16_t\000"
 14774      31365F74 
 14774      00
 14775              	.LASF103:
 14776 0dae 50726F74 		.ascii	"Protocol_CmdSendWarnInfo\000"
 14776      6F636F6C 
 14776      5F436D64 
 14776      53656E64 
 14776      5761726E 
 14777              	.LASF74:
 14778 0dc7 4359424C 		.ascii	"CYBLE_EVT_L2CAP_CBFC_DATA_READ\000"
 14778      455F4556 
 14778      545F4C32 
 14778      4341505F 
 14778      43424643 
 14779              	.LASF153:
 14780 0de6 41707052 		.ascii	"AppResponseBuf\000"
 14780      6573706F 
 14780      6E736542 
 14780      756600
 14781              	.LASF205:
 14782 0df5 47505253 		.ascii	"GPRSCmd_buf1\000"
 14782      436D645F 
 14782      62756631 
 14782      00
 14783              	.LASF206:
 14784 0e02 47505253 		.ascii	"GPRSCmd_buf2\000"
 14784      436D645F 
 14784      62756632 
 14784      00
 14785              	.LASF165:
 14786 0e0f 4F70656E 		.ascii	"OpenType\000"
 14786      54797065 
 14786      00
 14787              	.LASF114:
 14788 0e18 50726F74 		.ascii	"Protocol_CmdTimeCheck\000"
 14788      6F636F6C 
 14788      5F436D64 
 14788      54696D65 
ARM GAS  C:\Users\Administrator\AppData\Local\Temp\ccX9Bf8z.s 			page 318


 14788      43686563 
 14789              	.LASF213:
 14790 0e2e 6E657874 		.ascii	"next_heartbeat_time\000"
 14790      5F686561 
 14790      72746265 
 14790      61745F74 
 14790      696D6500 
 14791              	.LASF237:
 14792 0e42 6D656D73 		.ascii	"memset\000"
 14792      657400
 14793              	.LASF253:
 14794 0e49 5254435F 		.ascii	"RTC_GetUnixTime\000"
 14794      47657455 
 14794      6E697854 
 14794      696D6500 
 14795              	.LASF115:
 14796 0e59 6172725F 		.ascii	"arr_adjtime\000"
 14796      61646A74 
 14796      696D6500 
 14797              	.LASF133:
 14798 0e65 6F70656E 		.ascii	"open_mode\000"
 14798      5F6D6F64 
 14798      6500
 14799              	.LASF50:
 14800 0e6f 4359424C 		.ascii	"CYBLE_EVT_GATTC_FIND_INFO_RSP\000"
 14800      455F4556 
 14800      545F4741 
 14800      5454435F 
 14800      46494E44 
 14801              	.LASF49:
 14802 0e8d 4359424C 		.ascii	"CYBLE_EVT_GATTC_READ_BY_TYPE_RSP\000"
 14802      455F4556 
 14802      545F4741 
 14802      5454435F 
 14802      52454144 
 14803              	.LASF200:
 14804 0eae 496D6167 		.ascii	"Image_size\000"
 14804      655F7369 
 14804      7A6500
 14805              	.LASF113:
 14806 0eb9 7265745F 		.ascii	"ret_code\000"
 14806      636F6465 
 14806      00
 14807              	.LASF240:
 14808 0ec2 6D656D63 		.ascii	"memcmp\000"
 14808      6D7000
 14809              	.LASF56:
 14810 0ec9 4359424C 		.ascii	"CYBLE_EVT_GATTC_WRITE_RSP\000"
 14810      455F4556 
 14810      545F4741 
 14810      5454435F 
 14810      57524954 
 14811              	.LASF214:
 14812 0ee3 6E657874 		.ascii	"next_gprs_operation_time\000"
 14812      5F677072 
 14812      735F6F70 
 14812      65726174 
ARM GAS  C:\Users\Administrator\AppData\Local\Temp\ccX9Bf8z.s 			page 319


 14812      696F6E5F 
 14813              	.LASF243:
 14814 0efc 55736572 		.ascii	"UserData_DEL_User\000"
 14814      44617461 
 14814      5F44454C 
 14814      5F557365 
 14814      7200
 14815              	.LASF242:
 14816 0f0e 55736572 		.ascii	"UserData_Add_User\000"
 14816      44617461 
 14816      5F416464 
 14816      5F557365 
 14816      7200
 14817              	.LASF209:
 14818 0f20 436D645F 		.ascii	"Cmd_Baglen\000"
 14818      4261676C 
 14818      656E00
 14819              	.LASF106:
 14820 0f2b 706F7274 		.ascii	"port_tmp\000"
 14820      5F746D70 
 14820      00
 14821              	.LASF36:
 14822 0f34 4359424C 		.ascii	"CYBLE_EVT_GAPP_ADVERTISEMENT_START_STOP\000"
 14822      455F4556 
 14822      545F4741 
 14822      50505F41 
 14822      44564552 
 14823              	.LASF15:
 14824 0f5c 75696E74 		.ascii	"uint8\000"
 14824      3800
 14825              	.LASF171:
 14826 0f62 656E645F 		.ascii	"end_t\000"
 14826      7400
 14827              	.LASF167:
 14828 0f68 50726F74 		.ascii	"Protocol_CmdClearUID\000"
 14828      6F636F6C 
 14828      5F436D64 
 14828      436C6561 
 14828      72554944 
 14829              	.LASF230:
 14830 0f7d 53657453 		.ascii	"SetSysRTCTime\000"
 14830      79735254 
 14830      4354696D 
 14830      6500
 14831              	.LASF3:
 14832 0f8b 73686F72 		.ascii	"short int\000"
 14832      7420696E 
 14832      7400
 14833              	.LASF212:
 14834 0f95 6375725F 		.ascii	"cur_time\000"
 14834      74696D65 
 14834      00
 14835              	.LASF107:
 14836 0f9e 706F7274 		.ascii	"port_str\000"
 14836      5F737472 
 14836      00
 14837              	.LASF219:
ARM GAS  C:\Users\Administrator\AppData\Local\Temp\ccX9Bf8z.s 			page 320


 14838 0fa7 75706461 		.ascii	"update_timeout_time\000"
 14838      74655F74 
 14838      696D656F 
 14838      75745F74 
 14838      696D6500 
 14839              	.LASF199:
 14840 0fbb 75706461 		.ascii	"update_offset\000"
 14840      74655F6F 
 14840      66667365 
 14840      7400
 14841              	.LASF43:
 14842 0fc9 4359424C 		.ascii	"CYBLE_EVT_GATTC_ERROR_RSP\000"
 14842      455F4556 
 14842      545F4741 
 14842      5454435F 
 14842      4552524F 
 14843              	.LASF247:
 14844 0fe3 446F6F72 		.ascii	"DoorOpen\000"
 14844      4F70656E 
 14844      00
 14845              	.LASF70:
 14846 0fec 4359424C 		.ascii	"CYBLE_EVT_L2CAP_CBFC_CONN_IND\000"
 14846      455F4556 
 14846      545F4C32 
 14846      4341505F 
 14846      43424643 
 14847              	.LASF59:
 14848 100a 4359424C 		.ascii	"CYBLE_EVT_GATTS_EXEC_WRITE_REQ\000"
 14848      455F4556 
 14848      545F4741 
 14848      5454535F 
 14848      45584543 
 14849              	.LASF30:
 14850 1029 4359424C 		.ascii	"CYBLE_EVT_GAPC_SCAN_PROGRESS_RESULT\000"
 14850      455F4556 
 14850      545F4741 
 14850      50435F53 
 14850      43414E5F 
 14851              	.LASF252:
 14852 104d 4C65645F 		.ascii	"Led_RedON\000"
 14852      5265644F 
 14852      4E00
 14853              	.LASF180:
 14854 1057 50726F74 		.ascii	"Protocol_CmdParse\000"
 14854      6F636F6C 
 14854      5F436D64 
 14854      50617273 
 14854      6500
 14855              	.LASF234:
 14856 1069 7374726C 		.ascii	"strlen\000"
 14856      656E00
 14857              	.LASF117:
 14858 1070 50726F74 		.ascii	"Protocol_CmdManufac\000"
 14858      6F636F6C 
 14858      5F436D64 
 14858      4D616E75 
 14858      66616300 
ARM GAS  C:\Users\Administrator\AppData\Local\Temp\ccX9Bf8z.s 			page 321


 14859              	.LASF228:
 14860 1084 6D656D63 		.ascii	"memcpy\000"
 14860      707900
 14861              	.LASF196:
 14862 108b 75706461 		.ascii	"update_flag\000"
 14862      74655F66 
 14862      6C616700 
 14863              	.LASF79:
 14864 1097 4359424C 		.ascii	"CYBLE_EVT_LE_PING_AUTH_TIMEOUT\000"
 14864      455F4556 
 14864      545F4C45 
 14864      5F50494E 
 14864      475F4155 
 14865              	.LASF259:
 14866 10b6 57726974 		.ascii	"Write_UpdateInfo\000"
 14866      655F5570 
 14866      64617465 
 14866      496E666F 
 14866      00
 14867              	.LASF62:
 14868 10c7 4359424C 		.ascii	"CYBLE_EVT_GATTC_HANDLE_VALUE_IND\000"
 14868      455F4556 
 14868      545F4741 
 14868      5454435F 
 14868      48414E44 
 14869              	.LASF14:
 14870 10e8 75696E74 		.ascii	"uint32_t\000"
 14870      33325F74 
 14870      00
 14871              	.LASF111:
 14872 10f1 6F70656E 		.ascii	"opentime\000"
 14872      74696D65 
 14872      00
 14873              	.LASF189:
 14874 10fa 73797374 		.ascii	"system_version\000"
 14874      656D5F76 
 14874      65727369 
 14874      6F6E00
 14875              	.LASF224:
 14876 1109 666C6167 		.ascii	"flag_reboot\000"
 14876      5F726562 
 14876      6F6F7400 
 14877              	.LASF42:
 14878 1115 4359424C 		.ascii	"CYBLE_EVT_GAP_KEYINFO_EXCHNGE_CMPLT\000"
 14878      455F4556 
 14878      545F4741 
 14878      505F4B45 
 14878      59494E46 
 14879              	.LASF198:
 14880 1139 75706461 		.ascii	"update_page\000"
 14880      74655F70 
 14880      61676500 
 14881              	.LASF145:
 14882 1145 63757272 		.ascii	"curr_packet_len\000"
 14882      5F706163 
 14882      6B65745F 
 14882      6C656E00 
ARM GAS  C:\Users\Administrator\AppData\Local\Temp\ccX9Bf8z.s 			page 322


 14883              	.LASF67:
 14884 1155 4359424C 		.ascii	"CYBLE_EVT_L2CAP_CONN_PARAM_UPDATE_REQ\000"
 14884      455F4556 
 14884      545F4C32 
 14884      4341505F 
 14884      434F4E4E 
 14885              	.LASF172:
 14886 117b 73746172 		.ascii	"start_time\000"
 14886      745F7469 
 14886      6D6500
 14887              	.LASF0:
 14888 1186 73686F72 		.ascii	"short unsigned int\000"
 14888      7420756E 
 14888      7369676E 
 14888      65642069 
 14888      6E7400
 14889              	.LASF190:
 14890 1199 4D61635F 		.ascii	"Mac_Addr\000"
 14890      41646472 
 14890      00
 14891              	.LASF263:
 14892 11a2 436F6465 		.ascii	"Code\\UserApp\\Protocol\\CmdProtocol.c\000"
 14892      5C557365 
 14892      72417070 
 14892      5C50726F 
 14892      746F636F 
 14893              	.LASF169:
 14894 11c6 64617461 		.ascii	"data_openinfo\000"
 14894      5F6F7065 
 14894      6E696E66 
 14894      6F00
 14895              	.LASF170:
 14896 11d4 73746172 		.ascii	"start_t\000"
 14896      745F7400 
 14897              	.LASF136:
 14898 11dc 73656E64 		.ascii	"send_time_adjust\000"
 14898      5F74696D 
 14898      655F6164 
 14898      6A757374 
 14898      00
 14899              	.LASF217:
 14900 11ed 75706C6F 		.ascii	"uploadpolling_stop\000"
 14900      6164706F 
 14900      6C6C696E 
 14900      675F7374 
 14900      6F7000
 14901              	.LASF192:
 14902 1200 7072655F 		.ascii	"pre_ip\000"
 14902      697000
 14903              	.LASF28:
 14904 1207 4359424C 		.ascii	"CYBLE_EVT_HCI_STATUS\000"
 14904      455F4556 
 14904      545F4843 
 14904      495F5354 
 14904      41545553 
 14905              	.LASF45:
 14906 121c 4359424C 		.ascii	"CYBLE_EVT_GATT_DISCONNECT_IND\000"
ARM GAS  C:\Users\Administrator\AppData\Local\Temp\ccX9Bf8z.s 			page 323


 14906      455F4556 
 14906      545F4741 
 14906      54545F44 
 14906      4953434F 
 14907              	.LASF77:
 14908 123a 4359424C 		.ascii	"CYBLE_EVT_L2CAP_CBFC_DATA_WRITE_IND\000"
 14908      455F4556 
 14908      545F4C32 
 14908      4341505F 
 14908      43424643 
 14909              	.LASF130:
 14910 125e 73656E64 		.ascii	"send_upload_open_info\000"
 14910      5F75706C 
 14910      6F61645F 
 14910      6F70656E 
 14910      5F696E66 
 14911              	.LASF125:
 14912 1274 74696D65 		.ascii	"time_arr\000"
 14912      5F617272 
 14912      00
 14913              	.LASF38:
 14914 127d 4359424C 		.ascii	"CYBLE_EVT_GAP_DEVICE_DISCONNECTED\000"
 14914      455F4556 
 14914      545F4741 
 14914      505F4445 
 14914      56494345 
 14915              	.LASF260:
 14916 129f 57726974 		.ascii	"Write_CenterIpType\000"
 14916      655F4365 
 14916      6E746572 
 14916      49705479 
 14916      706500
 14917              	.LASF63:
 14918 12b2 4359424C 		.ascii	"CYBLE_EVT_GATTS_HANDLE_VALUE_CNF\000"
 14918      455F4556 
 14918      545F4741 
 14918      5454535F 
 14918      48414E44 
 14919              	.LASF16:
 14920 12d3 75696E74 		.ascii	"uint16\000"
 14920      313600
 14921              	.LASF225:
 14922 12da 4C45445F 		.ascii	"LED_State\000"
 14922      53746174 
 14922      6500
 14923              	.LASF245:
 14924 12e4 55706461 		.ascii	"Updatealarm_check\000"
 14924      7465616C 
 14924      61726D5F 
 14924      63686563 
 14924      6B00
 14925              	.LASF211:
 14926 12f6 436D645F 		.ascii	"Cmd_index\000"
 14926      696E6465 
 14926      7800
 14927              		.ident	"GCC: (GNU Tools for ARM Embedded Processors) 4.9.3 20150303 (release) [ARM/embedded-4_9-br
