ARM GAS  C:\Users\Administrator\AppData\Local\Temp\ccX9Bf8z.s 			page 1


   1              		.cpu cortex-m0
   2              		.fpu softvfp
   3              		.eabi_attribute 20, 1
   4              		.eabi_attribute 21, 1
   5              		.eabi_attribute 23, 3
   6              		.eabi_attribute 24, 1
   7              		.eabi_attribute 25, 1
   8              		.eabi_attribute 26, 1
   9              		.eabi_attribute 30, 4
  10              		.eabi_attribute 34, 0
  11              		.eabi_attribute 18, 4
  12              		.code	16
  13              		.file	"CmdProtocol.c"
  14              		.text
  15              	.Ltext0:
  16              		.cfi_sections	.debug_frame
  17              		.global	__aeabi_uidiv
  18              		.global	__aeabi_uidivmod
  19              		.section	.text.Protocol_CmdGetPreSever,"ax",%progbits
  20              		.align	1
  21              		.code	16
  22              		.thumb_func
  23              		.type	Protocol_CmdGetPreSever, %function
  24              	Protocol_CmdGetPreSever:
  25              	.LFB73:
  26              		.file 1 "Code\\UserApp\\Protocol\\CmdProtocol.c"
   1:Code\UserApp\Protocol/CmdProtocol.c **** //*************************************************************************************************
   2:Code\UserApp\Protocol/CmdProtocol.c **** // File name		: x33AppProtocol.c
   3:Code\UserApp\Protocol/CmdProtocol.c **** // Description		: è“ç‰™åè®®ç›¸å…³å‡½æ•°
   4:Code\UserApp\Protocol/CmdProtocol.c **** // Author			: Keno
   5:Code\UserApp\Protocol/CmdProtocol.c **** // Date				: 2016.8.8
   6:Code\UserApp\Protocol/CmdProtocol.c **** // Version			: V02
   7:Code\UserApp\Protocol/CmdProtocol.c **** //-------------------------------------------------------------------------------------------------
   8:Code\UserApp\Protocol/CmdProtocol.c **** // Info				: 
   9:Code\UserApp\Protocol/CmdProtocol.c **** //*************************************************************************************************
  10:Code\UserApp\Protocol/CmdProtocol.c **** #include "CmdProtocol.h"
  11:Code\UserApp\Protocol/CmdProtocol.c **** 
  12:Code\UserApp\Protocol/CmdProtocol.c **** 
  13:Code\UserApp\Protocol/CmdProtocol.c **** 
  14:Code\UserApp\Protocol/CmdProtocol.c **** //******************************************* å¤–éƒ¨å˜é‡å£°æ˜ **********************************
  15:Code\UserApp\Protocol/CmdProtocol.c **** extern uint8 system_version;
  16:Code\UserApp\Protocol/CmdProtocol.c **** 
  17:Code\UserApp\Protocol/CmdProtocol.c **** extern volatile uint8 Mac_Addr[6];
  18:Code\UserApp\Protocol/CmdProtocol.c **** 
  19:Code\UserApp\Protocol/CmdProtocol.c **** extern uint8 domain[200];
  20:Code\UserApp\Protocol/CmdProtocol.c **** extern uint8 pre_ip[200];
  21:Code\UserApp\Protocol/CmdProtocol.c **** extern uint8 pre_port[5];
  22:Code\UserApp\Protocol/CmdProtocol.c **** extern uint8 update_ip[16];
  23:Code\UserApp\Protocol/CmdProtocol.c **** extern uint8 update_port[5];
  24:Code\UserApp\Protocol/CmdProtocol.c **** extern uint8 update_flag;
  25:Code\UserApp\Protocol/CmdProtocol.c **** extern uint16 update_version;
  26:Code\UserApp\Protocol/CmdProtocol.c **** extern uint16 update_page;
  27:Code\UserApp\Protocol/CmdProtocol.c **** #if 0
  28:Code\UserApp\Protocol/CmdProtocol.c **** extern uint16 update_offset;
  29:Code\UserApp\Protocol/CmdProtocol.c **** extern uint16 Image_size;
  30:Code\UserApp\Protocol/CmdProtocol.c **** #endif
  31:Code\UserApp\Protocol/CmdProtocol.c **** 
ARM GAS  C:\Users\Administrator\AppData\Local\Temp\ccX9Bf8z.s 			page 2


  32:Code\UserApp\Protocol/CmdProtocol.c **** extern uint32 update_offset;
  33:Code\UserApp\Protocol/CmdProtocol.c **** extern uint32 Image_size;
  34:Code\UserApp\Protocol/CmdProtocol.c **** 
  35:Code\UserApp\Protocol/CmdProtocol.c **** extern uint8 SendMacFlag;
  36:Code\UserApp\Protocol/CmdProtocol.c **** extern uint8 gprs_state;
  37:Code\UserApp\Protocol/CmdProtocol.c **** 
  38:Code\UserApp\Protocol/CmdProtocol.c **** extern uint8 GPRSCmdParseFlag1;
  39:Code\UserApp\Protocol/CmdProtocol.c **** extern uint8 GPRSCmdParseFlag2;
  40:Code\UserApp\Protocol/CmdProtocol.c **** extern volatile uint8 GPRSCmd_buf1[DATABUF_SIZE];
  41:Code\UserApp\Protocol/CmdProtocol.c **** extern volatile uint8 GPRSCmd_buf2[DATABUF_SIZE];
  42:Code\UserApp\Protocol/CmdProtocol.c **** 
  43:Code\UserApp\Protocol/CmdProtocol.c **** extern volatile uint8  RecvType;
  44:Code\UserApp\Protocol/CmdProtocol.c **** extern volatile uint8  CmdRev_buf[DATABUF_SIZE];
  45:Code\UserApp\Protocol/CmdProtocol.c **** extern volatile uint16 Cmd_Baglen;
  46:Code\UserApp\Protocol/CmdProtocol.c **** extern volatile uint8  Cmd_Revsta;
  47:Code\UserApp\Protocol/CmdProtocol.c **** extern volatile uint16 Cmd_index;
  48:Code\UserApp\Protocol/CmdProtocol.c **** 
  49:Code\UserApp\Protocol/CmdProtocol.c **** extern uint32 cur_time;
  50:Code\UserApp\Protocol/CmdProtocol.c **** extern uint32 next_network_time;
  51:Code\UserApp\Protocol/CmdProtocol.c **** extern uint32 next_heartbeat_time;
  52:Code\UserApp\Protocol/CmdProtocol.c **** extern uint32 next_gprs_operation_time;
  53:Code\UserApp\Protocol/CmdProtocol.c **** extern uint32 next_gprs_upload_time;									// ä¸‹ä¸€æ¬¡GPRSä¸»åŠ¨ä¸ŠæŠ¥æ—¶é—´				//
  54:Code\UserApp\Protocol/CmdProtocol.c **** extern uint32 next_allupload_time;		
  55:Code\UserApp\Protocol/CmdProtocol.c **** extern uint8  uploadpolling_stop;										// è½®è®­ä¸ŠæŠ¥å¼€é—¨ä¿¡æ¯ åœæ­¢ä½				//
  56:Code\UserApp\Protocol/CmdProtocol.c **** 
  57:Code\UserApp\Protocol/CmdProtocol.c **** 
  58:Code\UserApp\Protocol/CmdProtocol.c **** extern uint8  update_timeout_count;
  59:Code\UserApp\Protocol/CmdProtocol.c **** extern volatile uint32 update_timeout_time;
  60:Code\UserApp\Protocol/CmdProtocol.c **** extern volatile uint32 wait_timeout;
  61:Code\UserApp\Protocol/CmdProtocol.c **** extern uint8  gprs_operation_ErrCount;
  62:Code\UserApp\Protocol/CmdProtocol.c **** extern uint8  heartbeat_SendCount;
  63:Code\UserApp\Protocol/CmdProtocol.c **** 
  64:Code\UserApp\Protocol/CmdProtocol.c **** extern uint8  Card_ErrCount;
  65:Code\UserApp\Protocol/CmdProtocol.c **** extern uint8  flag_reboot;
  66:Code\UserApp\Protocol/CmdProtocol.c **** extern uint8  stop_reboot;
  67:Code\UserApp\Protocol/CmdProtocol.c **** 
  68:Code\UserApp\Protocol/CmdProtocol.c **** extern uint8  LED_State;
  69:Code\UserApp\Protocol/CmdProtocol.c **** 
  70:Code\UserApp\Protocol/CmdProtocol.c **** 
  71:Code\UserApp\Protocol/CmdProtocol.c **** //********************************************* å˜é‡å£°æ˜ **************************************
  72:Code\UserApp\Protocol/CmdProtocol.c **** uint16 UploadQty;
  73:Code\UserApp\Protocol/CmdProtocol.c **** uint16 UploadStartnum;
  74:Code\UserApp\Protocol/CmdProtocol.c **** 
  75:Code\UserApp\Protocol/CmdProtocol.c **** 
  76:Code\UserApp\Protocol/CmdProtocol.c **** 
  77:Code\UserApp\Protocol/CmdProtocol.c **** //******************************************* å¤–éƒ¨å‡½æ•°å£°æ˜ **********************************
  78:Code\UserApp\Protocol/CmdProtocol.c **** extern void delay_with_ble(uint32 ms);
  79:Code\UserApp\Protocol/CmdProtocol.c **** extern void ble_heartbeat(void);
  80:Code\UserApp\Protocol/CmdProtocol.c **** extern void Led_RedON(void);
  81:Code\UserApp\Protocol/CmdProtocol.c **** extern void Led_GreenON(void);
  82:Code\UserApp\Protocol/CmdProtocol.c **** extern void Led_SetState(uint8 Sta);
  83:Code\UserApp\Protocol/CmdProtocol.c **** extern void DoorOpen(void);
  84:Code\UserApp\Protocol/CmdProtocol.c **** extern void DoorClose(void);
  85:Code\UserApp\Protocol/CmdProtocol.c **** extern void Updatealarm_check(void);
  86:Code\UserApp\Protocol/CmdProtocol.c **** 
  87:Code\UserApp\Protocol/CmdProtocol.c **** 
  88:Code\UserApp\Protocol/CmdProtocol.c **** int Endpoint_exchange(uint8 card_data[])
ARM GAS  C:\Users\Administrator\AppData\Local\Temp\ccX9Bf8z.s 			page 3


  89:Code\UserApp\Protocol/CmdProtocol.c **** {
  90:Code\UserApp\Protocol/CmdProtocol.c **** 	uint8 databuf[8] = {0};
  91:Code\UserApp\Protocol/CmdProtocol.c **** 
  92:Code\UserApp\Protocol/CmdProtocol.c **** 	DBG_SOFT_PutStr("Endpoint_exchange1:\n");
  93:Code\UserApp\Protocol/CmdProtocol.c **** 	DBG_SOFT_PrintfHex(card_data,8,16);
  94:Code\UserApp\Protocol/CmdProtocol.c **** 	
  95:Code\UserApp\Protocol/CmdProtocol.c **** 	// å¦‚æœæ˜¯Aå¡ å‰/åé¢4Bæ˜¯0 è½¬æ¢ä½ç½® 
  96:Code\UserApp\Protocol/CmdProtocol.c **** 	if((card_data[4] == 0 && card_data[5] == 0 
  97:Code\UserApp\Protocol/CmdProtocol.c **** 	 && card_data[6] == 0 && card_data[7] == 0) ||
  98:Code\UserApp\Protocol/CmdProtocol.c **** 	   (card_data[0] == 0 && card_data[1] == 0 
  99:Code\UserApp\Protocol/CmdProtocol.c **** 	 && card_data[2] == 0 && card_data[3] == 0))
 100:Code\UserApp\Protocol/CmdProtocol.c **** 	{
 101:Code\UserApp\Protocol/CmdProtocol.c **** 		memcpy(databuf+4, card_data, 4);						// å‰4ä¸ªUIDæ‹·è´åˆ°åå››ä¸ª 
 102:Code\UserApp\Protocol/CmdProtocol.c **** 		memcpy(databuf, card_data+4, 4);						// å4ä¸ªUIDæ‹·è´åˆ°å‰å››ä¸ª 
 103:Code\UserApp\Protocol/CmdProtocol.c **** 		
 104:Code\UserApp\Protocol/CmdProtocol.c **** 		memcpy(card_data,databuf,8);							// å…¨éƒ¨è€ƒå›
 105:Code\UserApp\Protocol/CmdProtocol.c **** 	}
 106:Code\UserApp\Protocol/CmdProtocol.c **** 	DBG_SOFT_PutStr("Endpoint_exchange2:\n");
 107:Code\UserApp\Protocol/CmdProtocol.c **** 	DBG_SOFT_PrintfHex(card_data,8,16);
 108:Code\UserApp\Protocol/CmdProtocol.c **** 	return 0;
 109:Code\UserApp\Protocol/CmdProtocol.c **** }
 110:Code\UserApp\Protocol/CmdProtocol.c **** 
 111:Code\UserApp\Protocol/CmdProtocol.c **** 
 112:Code\UserApp\Protocol/CmdProtocol.c **** 
 113:Code\UserApp\Protocol/CmdProtocol.c **** //*************************************************************************************************
 114:Code\UserApp\Protocol/CmdProtocol.c **** // Function name	: Cmd_Protocol_ParaInit
 115:Code\UserApp\Protocol/CmdProtocol.c **** // Description		: å‘½ä»¤ç›¸å…³å‚æ•°åˆå§‹åŒ–
 116:Code\UserApp\Protocol/CmdProtocol.c **** // Parameter		: none
 117:Code\UserApp\Protocol/CmdProtocol.c **** // Return			: none
 118:Code\UserApp\Protocol/CmdProtocol.c **** //-------------------------------------------------------------------------------------------------
 119:Code\UserApp\Protocol/CmdProtocol.c **** // Info				: 
 120:Code\UserApp\Protocol/CmdProtocol.c **** //*************************************************************************************************
 121:Code\UserApp\Protocol/CmdProtocol.c **** void Cmd_Protocol_ParaInit(void)
 122:Code\UserApp\Protocol/CmdProtocol.c **** {
 123:Code\UserApp\Protocol/CmdProtocol.c **** 	RecvType = 0;
 124:Code\UserApp\Protocol/CmdProtocol.c **** 	Cmd_Baglen = 0;
 125:Code\UserApp\Protocol/CmdProtocol.c **** 	Cmd_Revsta = 0;
 126:Code\UserApp\Protocol/CmdProtocol.c **** 	Cmd_index = 0;
 127:Code\UserApp\Protocol/CmdProtocol.c **** 	GPRSCmdParseFlag1 = RESET;
 128:Code\UserApp\Protocol/CmdProtocol.c **** 	GPRSCmdParseFlag2 = RESET;
 129:Code\UserApp\Protocol/CmdProtocol.c **** 	memset((char *)CmdRev_buf, 0, sizeof(CmdRev_buf));
 130:Code\UserApp\Protocol/CmdProtocol.c **** 	memset((char *)GPRSCmd_buf1, 0, sizeof(GPRSCmd_buf1));
 131:Code\UserApp\Protocol/CmdProtocol.c **** 	memset((char *)GPRSCmd_buf2, 0, sizeof(GPRSCmd_buf2));
 132:Code\UserApp\Protocol/CmdProtocol.c **** }
 133:Code\UserApp\Protocol/CmdProtocol.c **** 
 134:Code\UserApp\Protocol/CmdProtocol.c **** //===ã€å¼€å§‹ã€‘===================== ä¸šåŠ¡å±‚ä¸»åŠ¨ä¸ŠæŠ¥æœåŠ¡å™¨æŒ‡ä»¤ =======================
 135:Code\UserApp\Protocol/CmdProtocol.c **** 
 136:Code\UserApp\Protocol/CmdProtocol.c **** //*************************************************************************************************
 137:Code\UserApp\Protocol/CmdProtocol.c **** // Function name	: send_get_forntserviceip
 138:Code\UserApp\Protocol/CmdProtocol.c **** // Description		: è·å–æœåŠ¡å™¨åœ°å€  0x01
 139:Code\UserApp\Protocol/CmdProtocol.c **** // Parameter		: none
 140:Code\UserApp\Protocol/CmdProtocol.c **** // Return			: none
 141:Code\UserApp\Protocol/CmdProtocol.c **** //-------------------------------------------------------------------------------------------------
 142:Code\UserApp\Protocol/CmdProtocol.c **** // è¯´æ˜				: 
 143:Code\UserApp\Protocol/CmdProtocol.c **** //*************************************************************************************************
 144:Code\UserApp\Protocol/CmdProtocol.c **** uint8_t send_get_pre_service_ip(void)
 145:Code\UserApp\Protocol/CmdProtocol.c **** {
ARM GAS  C:\Users\Administrator\AppData\Local\Temp\ccX9Bf8z.s 			page 4


 146:Code\UserApp\Protocol/CmdProtocol.c **** 	uint8 uart_buf[96];
 147:Code\UserApp\Protocol/CmdProtocol.c **** 	uint8 time_arr[4];
 148:Code\UserApp\Protocol/CmdProtocol.c **** 	uint32_t time_tmp;
 149:Code\UserApp\Protocol/CmdProtocol.c **** 	uint16_t TempCrc = 0;
 150:Code\UserApp\Protocol/CmdProtocol.c **** 	uint16_t cnt = 0;
 151:Code\UserApp\Protocol/CmdProtocol.c **** 	uint16_t i = 0;
 152:Code\UserApp\Protocol/CmdProtocol.c **** 	uint16_t pack_len = 0x0F;
 153:Code\UserApp\Protocol/CmdProtocol.c **** 	
 154:Code\UserApp\Protocol/CmdProtocol.c **** 	uart_buf[cnt++] = 0xef;
 155:Code\UserApp\Protocol/CmdProtocol.c **** 	uart_buf[cnt++] = 0x3a;
 156:Code\UserApp\Protocol/CmdProtocol.c **** 	uart_buf[cnt++] = (pack_len >> 8) & 0xFF;					// åŒ…é•¿åº¦é«˜å­—èŠ‚							//
 157:Code\UserApp\Protocol/CmdProtocol.c **** 	uart_buf[cnt++] = pack_len & 0xFF;							// åŒ…é•¿åº¦ä½å­—èŠ‚							//
 158:Code\UserApp\Protocol/CmdProtocol.c **** 	uart_buf[cnt++] = 0x01;
 159:Code\UserApp\Protocol/CmdProtocol.c **** 	uart_buf[cnt++] = 0x01;
 160:Code\UserApp\Protocol/CmdProtocol.c **** 	uart_buf[cnt++] = 0x01;
 161:Code\UserApp\Protocol/CmdProtocol.c **** 	
 162:Code\UserApp\Protocol/CmdProtocol.c **** 	for(i = 0; i < 6; i++)										// MACåœ°å€								//
 163:Code\UserApp\Protocol/CmdProtocol.c **** 	{
 164:Code\UserApp\Protocol/CmdProtocol.c **** 		uart_buf[cnt++] = Mac_Addr[i];
 165:Code\UserApp\Protocol/CmdProtocol.c **** 	}
 166:Code\UserApp\Protocol/CmdProtocol.c **** 	
 167:Code\UserApp\Protocol/CmdProtocol.c **** 	time_tmp = (uint32)RTC_GetUnixTime();						// æ—¶é—´æˆ³								//
 168:Code\UserApp\Protocol/CmdProtocol.c **** 	LONG2BYTE(time_tmp, time_arr);
 169:Code\UserApp\Protocol/CmdProtocol.c **** 	uart_buf[cnt++] = time_arr[0];
 170:Code\UserApp\Protocol/CmdProtocol.c **** 	uart_buf[cnt++] = time_arr[1];
 171:Code\UserApp\Protocol/CmdProtocol.c **** 	uart_buf[cnt++] = time_arr[2];
 172:Code\UserApp\Protocol/CmdProtocol.c **** 	uart_buf[cnt++] = time_arr[3];
 173:Code\UserApp\Protocol/CmdProtocol.c **** 	
 174:Code\UserApp\Protocol/CmdProtocol.c **** 	TempCrc = MyCrc16Check(uart_buf, pack_len + 0x02);			// CRCæ ¡éªŒ								//
 175:Code\UserApp\Protocol/CmdProtocol.c **** 	uart_buf[cnt++] = (TempCrc >> 8) & 0xFF;
 176:Code\UserApp\Protocol/CmdProtocol.c **** 	uart_buf[cnt++] = TempCrc & 0xFF;
 177:Code\UserApp\Protocol/CmdProtocol.c **** 	
 178:Code\UserApp\Protocol/CmdProtocol.c **** 	GPRS_SendHexDataToServer((uint8_t *)uart_buf, ((uart_buf[2] << 8) + uart_buf[3] + 4));
 179:Code\UserApp\Protocol/CmdProtocol.c **** 	return 0;
 180:Code\UserApp\Protocol/CmdProtocol.c **** }
 181:Code\UserApp\Protocol/CmdProtocol.c **** 
 182:Code\UserApp\Protocol/CmdProtocol.c **** //*************************************************************************************************
 183:Code\UserApp\Protocol/CmdProtocol.c **** // Function name	: send_send_mac_and_get_blekey
 184:Code\UserApp\Protocol/CmdProtocol.c **** // Description		: ç”³æŠ¥macå’Œè·å–blekey  0x02
 185:Code\UserApp\Protocol/CmdProtocol.c **** // Parameter		: none
 186:Code\UserApp\Protocol/CmdProtocol.c **** // Return			: none
 187:Code\UserApp\Protocol/CmdProtocol.c **** //-------------------------------------------------------------------------------------------------
 188:Code\UserApp\Protocol/CmdProtocol.c **** // è¯´æ˜				: 
 189:Code\UserApp\Protocol/CmdProtocol.c **** //*************************************************************************************************
 190:Code\UserApp\Protocol/CmdProtocol.c **** uint8_t send_send_mac_and_get_blekey(void)
 191:Code\UserApp\Protocol/CmdProtocol.c **** {
 192:Code\UserApp\Protocol/CmdProtocol.c **** 	uint8 ver;
 193:Code\UserApp\Protocol/CmdProtocol.c **** 	uint8 uart_buf[96];
 194:Code\UserApp\Protocol/CmdProtocol.c **** 	uint8 time_arr[4];
 195:Code\UserApp\Protocol/CmdProtocol.c **** 	uint32_t time_tmp;
 196:Code\UserApp\Protocol/CmdProtocol.c **** 	uint16_t TempCrc = 0;
 197:Code\UserApp\Protocol/CmdProtocol.c **** 	uint16_t cnt = 0;
 198:Code\UserApp\Protocol/CmdProtocol.c **** 	uint16_t i = 0;
 199:Code\UserApp\Protocol/CmdProtocol.c **** 	uint16_t pack_len = 0x11;
 200:Code\UserApp\Protocol/CmdProtocol.c ****     
 201:Code\UserApp\Protocol/CmdProtocol.c **** 	uart_buf[cnt++] = 0xef;
 202:Code\UserApp\Protocol/CmdProtocol.c **** 	uart_buf[cnt++] = 0x3a;
ARM GAS  C:\Users\Administrator\AppData\Local\Temp\ccX9Bf8z.s 			page 5


 203:Code\UserApp\Protocol/CmdProtocol.c **** 	uart_buf[cnt++] = (pack_len >> 8) & 0xFF;					// åŒ…é•¿åº¦é«˜å­—èŠ‚							//
 204:Code\UserApp\Protocol/CmdProtocol.c **** 	uart_buf[cnt++] = pack_len & 0xFF;							// åŒ…é•¿åº¦ä½å­—èŠ‚							//
 205:Code\UserApp\Protocol/CmdProtocol.c **** 	uart_buf[cnt++] = 0x01;
 206:Code\UserApp\Protocol/CmdProtocol.c **** 	uart_buf[cnt++] = 0x01;
 207:Code\UserApp\Protocol/CmdProtocol.c **** 	uart_buf[cnt++] = 0x02;
 208:Code\UserApp\Protocol/CmdProtocol.c **** 	
 209:Code\UserApp\Protocol/CmdProtocol.c **** 	for(i = 0; i < 6; i++)										// MACåœ°å€								//
 210:Code\UserApp\Protocol/CmdProtocol.c **** 	{
 211:Code\UserApp\Protocol/CmdProtocol.c **** 		uart_buf[cnt++] = Mac_Addr[i];
 212:Code\UserApp\Protocol/CmdProtocol.c **** 	}
 213:Code\UserApp\Protocol/CmdProtocol.c **** 
 214:Code\UserApp\Protocol/CmdProtocol.c **** 	ver = system_version;										// å›ºä»¶ç‰ˆæœ¬å·							//
 215:Code\UserApp\Protocol/CmdProtocol.c **** 	uart_buf[cnt++] = (ver >> 8) & 0xFF;
 216:Code\UserApp\Protocol/CmdProtocol.c **** 	uart_buf[cnt++] = ver & 0xFF;
 217:Code\UserApp\Protocol/CmdProtocol.c **** 	    
 218:Code\UserApp\Protocol/CmdProtocol.c **** 	time_tmp = (uint32)RTC_GetUnixTime();						// æ—¶é—´æˆ³								//
 219:Code\UserApp\Protocol/CmdProtocol.c **** 	LONG2BYTE(time_tmp, time_arr);
 220:Code\UserApp\Protocol/CmdProtocol.c **** 	uart_buf[cnt++] = time_arr[0];
 221:Code\UserApp\Protocol/CmdProtocol.c **** 	uart_buf[cnt++] = time_arr[1];
 222:Code\UserApp\Protocol/CmdProtocol.c **** 	uart_buf[cnt++] = time_arr[2];
 223:Code\UserApp\Protocol/CmdProtocol.c **** 	uart_buf[cnt++] = time_arr[3];
 224:Code\UserApp\Protocol/CmdProtocol.c **** 	
 225:Code\UserApp\Protocol/CmdProtocol.c **** 	TempCrc = MyCrc16Check(uart_buf, pack_len + 0x02);			// CRCæ ¡éªŒ								//
 226:Code\UserApp\Protocol/CmdProtocol.c **** 	uart_buf[cnt++] = (TempCrc >> 8) & 0xFF;
 227:Code\UserApp\Protocol/CmdProtocol.c **** 	uart_buf[cnt++] = TempCrc & 0xFF;
 228:Code\UserApp\Protocol/CmdProtocol.c **** 	
 229:Code\UserApp\Protocol/CmdProtocol.c **** 	GPRS_SendHexDataToServer((uint8_t *)uart_buf, ((uart_buf[2] << 8) + uart_buf[3] + 4));
 230:Code\UserApp\Protocol/CmdProtocol.c **** 	return 0;
 231:Code\UserApp\Protocol/CmdProtocol.c **** }
 232:Code\UserApp\Protocol/CmdProtocol.c **** 
 233:Code\UserApp\Protocol/CmdProtocol.c **** 
 234:Code\UserApp\Protocol/CmdProtocol.c **** //*************************************************************************************************
 235:Code\UserApp\Protocol/CmdProtocol.c **** // Function name	: send_upload_open_info
 236:Code\UserApp\Protocol/CmdProtocol.c **** // Description		: å¼€é—¨ä¿¡æ¯ä¸ŠæŠ¥  0x07
 237:Code\UserApp\Protocol/CmdProtocol.c **** // Parameter		: open_info	: å¼€é—¨ä¿¡æ¯
 238:Code\UserApp\Protocol/CmdProtocol.c **** //					: uidlen	: UIDé•¿åº¦
 239:Code\UserApp\Protocol/CmdProtocol.c **** //					: open_mode	: å¼€é—¨æ–¹å¼
 240:Code\UserApp\Protocol/CmdProtocol.c **** // Return			: none
 241:Code\UserApp\Protocol/CmdProtocol.c **** //-------------------------------------------------------------------------------------------------
 242:Code\UserApp\Protocol/CmdProtocol.c **** // è¯´æ˜				: 
 243:Code\UserApp\Protocol/CmdProtocol.c **** //*************************************************************************************************
 244:Code\UserApp\Protocol/CmdProtocol.c **** uint8_t send_upload_open_info(open_door_t* open_info, uint8_t uidlen, uint8_t open_mode)
 245:Code\UserApp\Protocol/CmdProtocol.c **** {
 246:Code\UserApp\Protocol/CmdProtocol.c **** 	uint8 uart_buf[96];
 247:Code\UserApp\Protocol/CmdProtocol.c **** 	uint8 time_arr[4];
 248:Code\UserApp\Protocol/CmdProtocol.c **** 	uint32_t time_tmp;
 249:Code\UserApp\Protocol/CmdProtocol.c **** 	uint16_t TempCrc = 0;
 250:Code\UserApp\Protocol/CmdProtocol.c **** 	uint16_t cnt = 0;
 251:Code\UserApp\Protocol/CmdProtocol.c **** 	uint16_t i = 0;
 252:Code\UserApp\Protocol/CmdProtocol.c **** 	open_door_t *pstr = open_info;
 253:Code\UserApp\Protocol/CmdProtocol.c ****     uint16_t pack_len = 0x1c;
 254:Code\UserApp\Protocol/CmdProtocol.c **** 		
 255:Code\UserApp\Protocol/CmdProtocol.c **** 	uart_buf[cnt++] = 0xef;
 256:Code\UserApp\Protocol/CmdProtocol.c **** 	uart_buf[cnt++] = 0x3a;
 257:Code\UserApp\Protocol/CmdProtocol.c **** 	uart_buf[cnt++] = (pack_len >> 8) & 0xFF;					// åŒ…é•¿åº¦é«˜å­—èŠ‚							//
 258:Code\UserApp\Protocol/CmdProtocol.c **** 	uart_buf[cnt++] = pack_len & 0xFF;							// åŒ…é•¿åº¦ä½å­—èŠ‚							//
 259:Code\UserApp\Protocol/CmdProtocol.c **** 	uart_buf[cnt++] = 0x01;
ARM GAS  C:\Users\Administrator\AppData\Local\Temp\ccX9Bf8z.s 			page 6


 260:Code\UserApp\Protocol/CmdProtocol.c **** 	uart_buf[cnt++] = 0x01;
 261:Code\UserApp\Protocol/CmdProtocol.c **** 	uart_buf[cnt++] = 0x07;
 262:Code\UserApp\Protocol/CmdProtocol.c **** 	
 263:Code\UserApp\Protocol/CmdProtocol.c **** 	for(i = 0; i < 6; i++)										// MACåœ°å€								//
 264:Code\UserApp\Protocol/CmdProtocol.c **** 	{
 265:Code\UserApp\Protocol/CmdProtocol.c **** 		uart_buf[cnt++] = Mac_Addr[i];
 266:Code\UserApp\Protocol/CmdProtocol.c **** 	}
 267:Code\UserApp\Protocol/CmdProtocol.c **** 	
 268:Code\UserApp\Protocol/CmdProtocol.c **** 	Endpoint_exchange(pstr->card_uid);							// Aå¡æ•°æ®ä½ç½®è½¬æ¢ @ 18-1-17			//
 269:Code\UserApp\Protocol/CmdProtocol.c **** 	{
 270:Code\UserApp\Protocol/CmdProtocol.c **** 		for(i = 0; i < uidlen; i++)								// Bå¡ä¸å˜								//
 271:Code\UserApp\Protocol/CmdProtocol.c **** 		{
 272:Code\UserApp\Protocol/CmdProtocol.c **** 			uart_buf[cnt++] = pstr->card_uid[i];
 273:Code\UserApp\Protocol/CmdProtocol.c **** 		}
 274:Code\UserApp\Protocol/CmdProtocol.c **** 	}
 275:Code\UserApp\Protocol/CmdProtocol.c **** 	
 276:Code\UserApp\Protocol/CmdProtocol.c **** 	uart_buf[cnt++] = open_mode;								// å¼€é—¨æ–¹å¼								//
 277:Code\UserApp\Protocol/CmdProtocol.c **** 	
 278:Code\UserApp\Protocol/CmdProtocol.c **** 	uart_buf[cnt++] = pstr->open_time[0];						// å¼€é—¨æ—¶é—´								//
 279:Code\UserApp\Protocol/CmdProtocol.c **** 	uart_buf[cnt++] = pstr->open_time[1];
 280:Code\UserApp\Protocol/CmdProtocol.c **** 	uart_buf[cnt++] = pstr->open_time[2];
 281:Code\UserApp\Protocol/CmdProtocol.c **** 	uart_buf[cnt++] = pstr->open_time[3];
 282:Code\UserApp\Protocol/CmdProtocol.c **** 	
 283:Code\UserApp\Protocol/CmdProtocol.c **** 	time_tmp = (uint32)RTC_GetUnixTime();						// æ—¶é—´æˆ³								//
 284:Code\UserApp\Protocol/CmdProtocol.c **** 	LONG2BYTE(time_tmp, time_arr);
 285:Code\UserApp\Protocol/CmdProtocol.c **** 	uart_buf[cnt++] = time_arr[0];
 286:Code\UserApp\Protocol/CmdProtocol.c **** 	uart_buf[cnt++] = time_arr[1];
 287:Code\UserApp\Protocol/CmdProtocol.c **** 	uart_buf[cnt++] = time_arr[2];
 288:Code\UserApp\Protocol/CmdProtocol.c **** 	uart_buf[cnt++] = time_arr[3];
 289:Code\UserApp\Protocol/CmdProtocol.c **** 	
 290:Code\UserApp\Protocol/CmdProtocol.c **** 	TempCrc = MyCrc16Check(uart_buf, pack_len + 0x02);			// CRCæ ¡éªŒ								//
 291:Code\UserApp\Protocol/CmdProtocol.c **** 	uart_buf[cnt++] = (TempCrc >> 8) & 0xFF;
 292:Code\UserApp\Protocol/CmdProtocol.c **** 	uart_buf[cnt++] = TempCrc & 0xFF;
 293:Code\UserApp\Protocol/CmdProtocol.c **** 	
 294:Code\UserApp\Protocol/CmdProtocol.c **** 	cur_time = (uint32)RTC_GetUnixTime();
 295:Code\UserApp\Protocol/CmdProtocol.c **** 	if ((cur_time + 300) > next_heartbeat_time)					// ä¸‹ä¸€æ¬¡å¿ƒè·³åœ¨5minä»¥å†…					//
 296:Code\UserApp\Protocol/CmdProtocol.c **** 	{
 297:Code\UserApp\Protocol/CmdProtocol.c **** 		next_heartbeat_time = cur_time + 300;
 298:Code\UserApp\Protocol/CmdProtocol.c **** 	}
 299:Code\UserApp\Protocol/CmdProtocol.c **** 	
 300:Code\UserApp\Protocol/CmdProtocol.c **** 	if ((cur_time + 60) > next_gprs_upload_time)				// ä¸‹æ¬¡è½®è¯¢ä¸ŠæŠ¥çš„æ—¶é—´å»¶é•¿1min æ‰¾ç©ºé—²
 301:Code\UserApp\Protocol/CmdProtocol.c **** 	{
 302:Code\UserApp\Protocol/CmdProtocol.c **** 		next_gprs_upload_time = cur_time + 60;
 303:Code\UserApp\Protocol/CmdProtocol.c **** 	}
 304:Code\UserApp\Protocol/CmdProtocol.c **** 	#if 0
 305:Code\UserApp\Protocol/CmdProtocol.c **** 	if ((cur_time + 15) > next_allupload_time)					// ä¸‹æ¬¡ç«‹å³å¼€é—¨ä¸ŠæŠ¥çš„æ—¶é—´å»¶é•¿15s æ‰¾ç©
 306:Code\UserApp\Protocol/CmdProtocol.c **** 	{
 307:Code\UserApp\Protocol/CmdProtocol.c **** 		next_allupload_time = cur_time + 15;
 308:Code\UserApp\Protocol/CmdProtocol.c **** 	}
 309:Code\UserApp\Protocol/CmdProtocol.c **** 	#endif
 310:Code\UserApp\Protocol/CmdProtocol.c **** 	GPRS_SendHexDataToServer((uint8_t *)uart_buf, ((uart_buf[2] << 8) + uart_buf[3] + 4));
 311:Code\UserApp\Protocol/CmdProtocol.c **** 	
 312:Code\UserApp\Protocol/CmdProtocol.c **** 	uploadpolling_stop = 0;
 313:Code\UserApp\Protocol/CmdProtocol.c **** 	return 0;
 314:Code\UserApp\Protocol/CmdProtocol.c **** }
 315:Code\UserApp\Protocol/CmdProtocol.c **** 
 316:Code\UserApp\Protocol/CmdProtocol.c **** //*************************************************************************************************
ARM GAS  C:\Users\Administrator\AppData\Local\Temp\ccX9Bf8z.s 			page 7


 317:Code\UserApp\Protocol/CmdProtocol.c **** // Function name	: send_heartbeat
 318:Code\UserApp\Protocol/CmdProtocol.c **** // Description		: å¿ƒè·³åŒ…  0x08
 319:Code\UserApp\Protocol/CmdProtocol.c **** // Parameter		: lock_state	: é”å…·çŠ¶æ€
 320:Code\UserApp\Protocol/CmdProtocol.c **** // Return			: none
 321:Code\UserApp\Protocol/CmdProtocol.c **** //-------------------------------------------------------------------------------------------------
 322:Code\UserApp\Protocol/CmdProtocol.c **** // è¯´æ˜				: 
 323:Code\UserApp\Protocol/CmdProtocol.c **** //*************************************************************************************************
 324:Code\UserApp\Protocol/CmdProtocol.c **** uint8_t send_heartbeat(uint8_t lock_state)
 325:Code\UserApp\Protocol/CmdProtocol.c **** {
 326:Code\UserApp\Protocol/CmdProtocol.c **** 	uint8 uart_buf[96];
 327:Code\UserApp\Protocol/CmdProtocol.c **** 	uint8 time_arr[4];
 328:Code\UserApp\Protocol/CmdProtocol.c **** 	uint32_t time_tmp;
 329:Code\UserApp\Protocol/CmdProtocol.c **** 	uint16_t TempCrc = 0;
 330:Code\UserApp\Protocol/CmdProtocol.c **** 	uint16_t cnt = 0;
 331:Code\UserApp\Protocol/CmdProtocol.c **** 	uint16_t i = 0;
 332:Code\UserApp\Protocol/CmdProtocol.c **** 	uint16_t pack_len = 0x10;
 333:Code\UserApp\Protocol/CmdProtocol.c **** 
 334:Code\UserApp\Protocol/CmdProtocol.c **** 		
 335:Code\UserApp\Protocol/CmdProtocol.c **** 	uart_buf[cnt++] = 0xef;
 336:Code\UserApp\Protocol/CmdProtocol.c **** 	uart_buf[cnt++] = 0x3a;
 337:Code\UserApp\Protocol/CmdProtocol.c **** 	uart_buf[cnt++] = (pack_len >> 8) & 0xFF;					// åŒ…é•¿åº¦é«˜å­—èŠ‚							//
 338:Code\UserApp\Protocol/CmdProtocol.c **** 	uart_buf[cnt++] = pack_len & 0xFF;							// åŒ…é•¿åº¦ä½å­—èŠ‚							//
 339:Code\UserApp\Protocol/CmdProtocol.c **** 	uart_buf[cnt++] = 0x01;
 340:Code\UserApp\Protocol/CmdProtocol.c **** 	uart_buf[cnt++] = 0x01;
 341:Code\UserApp\Protocol/CmdProtocol.c **** 	uart_buf[cnt++] = 0x08;
 342:Code\UserApp\Protocol/CmdProtocol.c **** 	
 343:Code\UserApp\Protocol/CmdProtocol.c **** 	for(i = 0; i < 6; i++)										// MACåœ°å€								//
 344:Code\UserApp\Protocol/CmdProtocol.c **** 	{
 345:Code\UserApp\Protocol/CmdProtocol.c **** 		uart_buf[cnt++] = Mac_Addr[i];
 346:Code\UserApp\Protocol/CmdProtocol.c **** 	}
 347:Code\UserApp\Protocol/CmdProtocol.c **** 	
 348:Code\UserApp\Protocol/CmdProtocol.c **** 	uart_buf[cnt++] = lock_state;								// é”å…·çŠ¶æ€								//
 349:Code\UserApp\Protocol/CmdProtocol.c **** 	#if DEF_RSSI
 350:Code\UserApp\Protocol/CmdProtocol.c **** 	Rssi = GPRS_QueryRssi();
 351:Code\UserApp\Protocol/CmdProtocol.c **** 	uart_buf[cnt++] = Rssi;										// GPRSæ¨¡å—ä¿¡å·å¼ºåº¦	@10.31.9.00			//
 352:Code\UserApp\Protocol/CmdProtocol.c **** 	#endif
 353:Code\UserApp\Protocol/CmdProtocol.c **** 	
 354:Code\UserApp\Protocol/CmdProtocol.c **** 	time_tmp = (uint32)RTC_GetUnixTime();						// æ—¶é—´æˆ³								//
 355:Code\UserApp\Protocol/CmdProtocol.c **** 	LONG2BYTE(time_tmp, time_arr);
 356:Code\UserApp\Protocol/CmdProtocol.c **** 	uart_buf[cnt++] = time_arr[0];
 357:Code\UserApp\Protocol/CmdProtocol.c **** 	uart_buf[cnt++] = time_arr[1];
 358:Code\UserApp\Protocol/CmdProtocol.c **** 	uart_buf[cnt++] = time_arr[2];
 359:Code\UserApp\Protocol/CmdProtocol.c **** 	uart_buf[cnt++] = time_arr[3];
 360:Code\UserApp\Protocol/CmdProtocol.c **** 	
 361:Code\UserApp\Protocol/CmdProtocol.c **** 	TempCrc = MyCrc16Check(uart_buf, pack_len + 0x02);			// CRCæ ¡éªŒ								//
 362:Code\UserApp\Protocol/CmdProtocol.c **** 	uart_buf[cnt++] = (TempCrc >> 8) & 0xFF;
 363:Code\UserApp\Protocol/CmdProtocol.c **** 	uart_buf[cnt++] = TempCrc & 0xFF;
 364:Code\UserApp\Protocol/CmdProtocol.c **** 	//DBG_SOFT_PutStr("\nsend_heartbeat:\n");
 365:Code\UserApp\Protocol/CmdProtocol.c **** 	//DBG_SOFT_PrintfHex(uart_buf,32,16);
 366:Code\UserApp\Protocol/CmdProtocol.c **** 	GPRS_SendHexDataToServer((uint8_t *)uart_buf, ((uart_buf[2] << 8) + uart_buf[3] + 4));
 367:Code\UserApp\Protocol/CmdProtocol.c **** 	
 368:Code\UserApp\Protocol/CmdProtocol.c ****     return 0;
 369:Code\UserApp\Protocol/CmdProtocol.c **** }
 370:Code\UserApp\Protocol/CmdProtocol.c **** 
 371:Code\UserApp\Protocol/CmdProtocol.c **** //*************************************************************************************************
 372:Code\UserApp\Protocol/CmdProtocol.c **** // Function name	: send_timeadjust
 373:Code\UserApp\Protocol/CmdProtocol.c **** // Description		: æ—¶é—´æ ¡å‡†  0x0A
ARM GAS  C:\Users\Administrator\AppData\Local\Temp\ccX9Bf8z.s 			page 8


 374:Code\UserApp\Protocol/CmdProtocol.c **** // Parameter		: none
 375:Code\UserApp\Protocol/CmdProtocol.c **** // Return			: none
 376:Code\UserApp\Protocol/CmdProtocol.c **** //-------------------------------------------------------------------------------------------------
 377:Code\UserApp\Protocol/CmdProtocol.c **** // è¯´æ˜				: 
 378:Code\UserApp\Protocol/CmdProtocol.c **** //*************************************************************************************************
 379:Code\UserApp\Protocol/CmdProtocol.c **** uint8_t send_time_adjust(void)
 380:Code\UserApp\Protocol/CmdProtocol.c **** {
 381:Code\UserApp\Protocol/CmdProtocol.c **** 	uint8 uart_buf[96];
 382:Code\UserApp\Protocol/CmdProtocol.c **** 	uint16_t TempCrc = 0;
 383:Code\UserApp\Protocol/CmdProtocol.c **** 	uint16_t cnt = 0;
 384:Code\UserApp\Protocol/CmdProtocol.c **** 	uint16_t i = 0;
 385:Code\UserApp\Protocol/CmdProtocol.c **** 	uint16_t pack_len = 0x0D;
 386:Code\UserApp\Protocol/CmdProtocol.c **** 	
 387:Code\UserApp\Protocol/CmdProtocol.c **** 	uart_buf[cnt++] = 0xef;
 388:Code\UserApp\Protocol/CmdProtocol.c **** 	uart_buf[cnt++] = 0x3a;
 389:Code\UserApp\Protocol/CmdProtocol.c **** 	uart_buf[cnt++] = (pack_len >> 8) & 0xFF;					// åŒ…é•¿åº¦é«˜å­—èŠ‚							//
 390:Code\UserApp\Protocol/CmdProtocol.c **** 	uart_buf[cnt++] = pack_len & 0xFF;							// åŒ…é•¿åº¦ä½å­—èŠ‚							//
 391:Code\UserApp\Protocol/CmdProtocol.c **** 	uart_buf[cnt++] = 0x01;
 392:Code\UserApp\Protocol/CmdProtocol.c **** 	uart_buf[cnt++] = 0x01;
 393:Code\UserApp\Protocol/CmdProtocol.c **** 	uart_buf[cnt++] = 0x0A;
 394:Code\UserApp\Protocol/CmdProtocol.c **** 	
 395:Code\UserApp\Protocol/CmdProtocol.c **** 	for(i = 0; i < 6; i++)										// MACåœ°å€								//
 396:Code\UserApp\Protocol/CmdProtocol.c **** 	{
 397:Code\UserApp\Protocol/CmdProtocol.c **** 		uart_buf[cnt++] = Mac_Addr[i];
 398:Code\UserApp\Protocol/CmdProtocol.c **** 	}
 399:Code\UserApp\Protocol/CmdProtocol.c **** 	
 400:Code\UserApp\Protocol/CmdProtocol.c **** 	uart_buf[cnt++] = 0xff;										// æ—¶é—´æˆ³								//
 401:Code\UserApp\Protocol/CmdProtocol.c **** 	uart_buf[cnt++] = 0xff;
 402:Code\UserApp\Protocol/CmdProtocol.c **** 	uart_buf[cnt++] = 0xff;
 403:Code\UserApp\Protocol/CmdProtocol.c **** 	uart_buf[cnt++] = 0xff;
 404:Code\UserApp\Protocol/CmdProtocol.c **** 	
 405:Code\UserApp\Protocol/CmdProtocol.c **** 	TempCrc = MyCrc16Check(uart_buf, pack_len + 0x02);			// CRCæ ¡éªŒ								//
 406:Code\UserApp\Protocol/CmdProtocol.c **** 	uart_buf[cnt++] = (TempCrc >> 8) & 0xFF;
 407:Code\UserApp\Protocol/CmdProtocol.c **** 	uart_buf[cnt++] = TempCrc & 0xFF;
 408:Code\UserApp\Protocol/CmdProtocol.c **** 	
 409:Code\UserApp\Protocol/CmdProtocol.c **** 	cur_time = (uint32)RTC_GetUnixTime();
 410:Code\UserApp\Protocol/CmdProtocol.c **** 	if ((cur_time + 300) > next_heartbeat_time)					// ä¸‹ä¸€æ¬¡å¿ƒè·³åœ¨5minä»¥å†…					//
 411:Code\UserApp\Protocol/CmdProtocol.c **** 	{
 412:Code\UserApp\Protocol/CmdProtocol.c **** 		next_heartbeat_time = cur_time + 300;
 413:Code\UserApp\Protocol/CmdProtocol.c **** 	}
 414:Code\UserApp\Protocol/CmdProtocol.c **** 	GPRS_SendHexDataToServer((uint8_t *)uart_buf, ((uart_buf[2] << 8) + uart_buf[3] + 4));
 415:Code\UserApp\Protocol/CmdProtocol.c **** 	return 0;
 416:Code\UserApp\Protocol/CmdProtocol.c **** }
 417:Code\UserApp\Protocol/CmdProtocol.c **** 
 418:Code\UserApp\Protocol/CmdProtocol.c **** //*************************************************************************************************
 419:Code\UserApp\Protocol/CmdProtocol.c **** // Function name	: send_alarminfo
 420:Code\UserApp\Protocol/CmdProtocol.c **** // Description		: æŠ¥è­¦ä¿¡æ¯ä¸Šä¼   0x0B
 421:Code\UserApp\Protocol/CmdProtocol.c **** // Parameter		: none
 422:Code\UserApp\Protocol/CmdProtocol.c **** // Return			: none
 423:Code\UserApp\Protocol/CmdProtocol.c **** //-------------------------------------------------------------------------------------------------
 424:Code\UserApp\Protocol/CmdProtocol.c **** // è¯´æ˜				: 
 425:Code\UserApp\Protocol/CmdProtocol.c **** //*************************************************************************************************
 426:Code\UserApp\Protocol/CmdProtocol.c **** uint8_t send_alarm_info(uint8_t alarm_mode)
 427:Code\UserApp\Protocol/CmdProtocol.c **** {
 428:Code\UserApp\Protocol/CmdProtocol.c **** 	uint8 uart_buf[96];
 429:Code\UserApp\Protocol/CmdProtocol.c **** 	uint8 time_arr[4];
 430:Code\UserApp\Protocol/CmdProtocol.c **** 	uint32_t time_tmp;
ARM GAS  C:\Users\Administrator\AppData\Local\Temp\ccX9Bf8z.s 			page 9


 431:Code\UserApp\Protocol/CmdProtocol.c **** 	uint16_t TempCrc = 0;
 432:Code\UserApp\Protocol/CmdProtocol.c **** 	uint16_t cnt = 0;
 433:Code\UserApp\Protocol/CmdProtocol.c **** 	uint16_t i = 0;
 434:Code\UserApp\Protocol/CmdProtocol.c **** 	uint16_t pack_len = 0x10;
 435:Code\UserApp\Protocol/CmdProtocol.c **** 	
 436:Code\UserApp\Protocol/CmdProtocol.c **** 	uart_buf[cnt++] = 0xef;
 437:Code\UserApp\Protocol/CmdProtocol.c **** 	uart_buf[cnt++] = 0x3a;
 438:Code\UserApp\Protocol/CmdProtocol.c **** 	uart_buf[cnt++] = (pack_len >> 8) & 0xFF;					// åŒ…é•¿åº¦é«˜å­—èŠ‚							//
 439:Code\UserApp\Protocol/CmdProtocol.c **** 	uart_buf[cnt++] = pack_len & 0xFF;							// åŒ…é•¿åº¦ä½å­—èŠ‚							//
 440:Code\UserApp\Protocol/CmdProtocol.c **** 	uart_buf[cnt++] = 0x01;
 441:Code\UserApp\Protocol/CmdProtocol.c **** 	uart_buf[cnt++] = 0x01;
 442:Code\UserApp\Protocol/CmdProtocol.c **** 	uart_buf[cnt++] = 0x0B;
 443:Code\UserApp\Protocol/CmdProtocol.c **** 	
 444:Code\UserApp\Protocol/CmdProtocol.c **** 	for(i = 0; i < 6; i++)										// MACåœ°å€								//
 445:Code\UserApp\Protocol/CmdProtocol.c **** 	{
 446:Code\UserApp\Protocol/CmdProtocol.c **** 		uart_buf[cnt++] = Mac_Addr[i];
 447:Code\UserApp\Protocol/CmdProtocol.c **** 	}
 448:Code\UserApp\Protocol/CmdProtocol.c **** 	
 449:Code\UserApp\Protocol/CmdProtocol.c **** 	uart_buf[cnt++] = alarm_mode;								// æŠ¥è­¦ç±»å‹								//
 450:Code\UserApp\Protocol/CmdProtocol.c **** 	
 451:Code\UserApp\Protocol/CmdProtocol.c **** 	time_tmp = (uint32)RTC_GetUnixTime();						// æ—¶é—´æˆ³								//
 452:Code\UserApp\Protocol/CmdProtocol.c **** 	LONG2BYTE(time_tmp, time_arr);
 453:Code\UserApp\Protocol/CmdProtocol.c **** 	uart_buf[cnt++] = time_arr[0];
 454:Code\UserApp\Protocol/CmdProtocol.c **** 	uart_buf[cnt++] = time_arr[1];
 455:Code\UserApp\Protocol/CmdProtocol.c **** 	uart_buf[cnt++] = time_arr[2];
 456:Code\UserApp\Protocol/CmdProtocol.c **** 	uart_buf[cnt++] = time_arr[3];
 457:Code\UserApp\Protocol/CmdProtocol.c **** 	
 458:Code\UserApp\Protocol/CmdProtocol.c **** 	TempCrc = MyCrc16Check(uart_buf, pack_len + 0x02);			// CRCæ ¡éªŒ								//
 459:Code\UserApp\Protocol/CmdProtocol.c **** 	uart_buf[cnt++] = (TempCrc >> 8) & 0xFF;
 460:Code\UserApp\Protocol/CmdProtocol.c **** 	uart_buf[cnt++] = TempCrc & 0xFF;
 461:Code\UserApp\Protocol/CmdProtocol.c **** 	
 462:Code\UserApp\Protocol/CmdProtocol.c **** 	cur_time = (uint32)RTC_GetUnixTime();
 463:Code\UserApp\Protocol/CmdProtocol.c **** 	if ((cur_time + 300) > next_heartbeat_time)					// ä¸‹ä¸€æ¬¡å¿ƒè·³åœ¨5minä»¥å†…					//
 464:Code\UserApp\Protocol/CmdProtocol.c **** 	{
 465:Code\UserApp\Protocol/CmdProtocol.c **** 		next_heartbeat_time = cur_time + 300;
 466:Code\UserApp\Protocol/CmdProtocol.c **** 	}
 467:Code\UserApp\Protocol/CmdProtocol.c **** 	GPRS_SendHexDataToServer((uint8_t *)uart_buf, ((uart_buf[2] << 8) + uart_buf[3] + 4));
 468:Code\UserApp\Protocol/CmdProtocol.c **** 	return 0;
 469:Code\UserApp\Protocol/CmdProtocol.c **** }
 470:Code\UserApp\Protocol/CmdProtocol.c **** 
 471:Code\UserApp\Protocol/CmdProtocol.c **** 
 472:Code\UserApp\Protocol/CmdProtocol.c **** //*************************************************************************************************
 473:Code\UserApp\Protocol/CmdProtocol.c **** // Function name	: send_update_req(uint16 page)
 474:Code\UserApp\Protocol/CmdProtocol.c **** // Description		: è¯·æ±‚ä¸‹å‘å‡çº§åŒ…  0x0F
 475:Code\UserApp\Protocol/CmdProtocol.c **** // Parameter		: none
 476:Code\UserApp\Protocol/CmdProtocol.c **** // Return			: none
 477:Code\UserApp\Protocol/CmdProtocol.c **** //-------------------------------------------------------------------------------------------------
 478:Code\UserApp\Protocol/CmdProtocol.c **** // è¯´æ˜				: 
 479:Code\UserApp\Protocol/CmdProtocol.c **** //*************************************************************************************************
 480:Code\UserApp\Protocol/CmdProtocol.c **** uint8_t send_update_req(uint16 page)
 481:Code\UserApp\Protocol/CmdProtocol.c **** {
 482:Code\UserApp\Protocol/CmdProtocol.c **** 	uint8 uart_buf[96];
 483:Code\UserApp\Protocol/CmdProtocol.c **** 	uint8 time_arr[4];
 484:Code\UserApp\Protocol/CmdProtocol.c **** 	uint32_t time_tmp;
 485:Code\UserApp\Protocol/CmdProtocol.c **** 	uint16_t TempCrc = 0;
 486:Code\UserApp\Protocol/CmdProtocol.c **** 	uint16_t cnt = 0;
 487:Code\UserApp\Protocol/CmdProtocol.c **** 	uint16_t i = 0;
ARM GAS  C:\Users\Administrator\AppData\Local\Temp\ccX9Bf8z.s 			page 10


 488:Code\UserApp\Protocol/CmdProtocol.c **** 	uint16_t pack_len = 0x13;
 489:Code\UserApp\Protocol/CmdProtocol.c **** 	
 490:Code\UserApp\Protocol/CmdProtocol.c **** 	uart_buf[cnt++] = 0xef;
 491:Code\UserApp\Protocol/CmdProtocol.c **** 	uart_buf[cnt++] = 0x3a;
 492:Code\UserApp\Protocol/CmdProtocol.c **** 	uart_buf[cnt++] = (pack_len >> 8) & 0xFF;					// åŒ…é•¿åº¦é«˜å­—èŠ‚							//
 493:Code\UserApp\Protocol/CmdProtocol.c **** 	uart_buf[cnt++] = pack_len & 0xFF;							// åŒ…é•¿åº¦ä½å­—èŠ‚							//
 494:Code\UserApp\Protocol/CmdProtocol.c **** 	uart_buf[cnt++] = 0x01;
 495:Code\UserApp\Protocol/CmdProtocol.c **** 	uart_buf[cnt++] = 0x01;
 496:Code\UserApp\Protocol/CmdProtocol.c **** 	uart_buf[cnt++] = 0x0F;
 497:Code\UserApp\Protocol/CmdProtocol.c **** 	
 498:Code\UserApp\Protocol/CmdProtocol.c **** 	for(i = 0; i < 6; i++)										// MACåœ°å€								//
 499:Code\UserApp\Protocol/CmdProtocol.c **** 	{
 500:Code\UserApp\Protocol/CmdProtocol.c **** 		uart_buf[cnt++] = Mac_Addr[i];
 501:Code\UserApp\Protocol/CmdProtocol.c **** 	}
 502:Code\UserApp\Protocol/CmdProtocol.c **** 	
 503:Code\UserApp\Protocol/CmdProtocol.c **** 	uart_buf[cnt++] = (page >> 8) & 0xFF;						// ç»„å·
 504:Code\UserApp\Protocol/CmdProtocol.c **** 	uart_buf[cnt++] = page & 0xFF;	
 505:Code\UserApp\Protocol/CmdProtocol.c **** 	
 506:Code\UserApp\Protocol/CmdProtocol.c **** 	uart_buf[cnt++] = (update_version>> 8) & 0xFF;				// å‡çº§ç‰ˆæœ¬
 507:Code\UserApp\Protocol/CmdProtocol.c **** 	uart_buf[cnt++] = update_version & 0xFF;								
 508:Code\UserApp\Protocol/CmdProtocol.c **** 		
 509:Code\UserApp\Protocol/CmdProtocol.c **** 	time_tmp = (uint32)RTC_GetUnixTime();						// æ—¶é—´æˆ³								//
 510:Code\UserApp\Protocol/CmdProtocol.c **** 	LONG2BYTE(time_tmp, time_arr);
 511:Code\UserApp\Protocol/CmdProtocol.c **** 	uart_buf[cnt++] = time_arr[0];
 512:Code\UserApp\Protocol/CmdProtocol.c **** 	uart_buf[cnt++] = time_arr[1];
 513:Code\UserApp\Protocol/CmdProtocol.c **** 	uart_buf[cnt++] = time_arr[2];
 514:Code\UserApp\Protocol/CmdProtocol.c **** 	uart_buf[cnt++] = time_arr[3];
 515:Code\UserApp\Protocol/CmdProtocol.c **** 
 516:Code\UserApp\Protocol/CmdProtocol.c **** 	TempCrc = MyCrc16Check(uart_buf, pack_len + 0x02);			// CRCæ ¡éªŒ								//
 517:Code\UserApp\Protocol/CmdProtocol.c **** 	uart_buf[cnt++] = (TempCrc >> 8) & 0xFF;
 518:Code\UserApp\Protocol/CmdProtocol.c **** 	uart_buf[cnt++] = TempCrc & 0xFF;
 519:Code\UserApp\Protocol/CmdProtocol.c **** 	GPRS_SendHexDataToServer((uint8_t *)uart_buf, ((uart_buf[2] << 8) + uart_buf[3] + 4));
 520:Code\UserApp\Protocol/CmdProtocol.c **** 	
 521:Code\UserApp\Protocol/CmdProtocol.c **** 	return 0;
 522:Code\UserApp\Protocol/CmdProtocol.c **** }
 523:Code\UserApp\Protocol/CmdProtocol.c **** 
 524:Code\UserApp\Protocol/CmdProtocol.c **** //*************************************************************************************************
 525:Code\UserApp\Protocol/CmdProtocol.c **** // Function name	: Protocol_SendAckPacket
 526:Code\UserApp\Protocol/CmdProtocol.c **** // Description		: å‘APP(è“ç‰™)å‘é€æ ‡å‡†åº”ç­”åŒ…
 527:Code\UserApp\Protocol/CmdProtocol.c **** // Parameter		: uint8 CommChanle		ä¿¡é“
 528:Code\UserApp\Protocol/CmdProtocol.c **** //                  : uint8 cPackType       0-å‘é€åŒ…ï¼Œ1-åº”ç­”åŒ…
 529:Code\UserApp\Protocol/CmdProtocol.c **** //                  : uint8 cCmd           	å‘½ä»¤ç 
 530:Code\UserApp\Protocol/CmdProtocol.c **** //				    : uint8 *UserData		å¾…å‘é€çš„ç”¨æˆ·æ•°æ®(å†…å®¹)
 531:Code\UserApp\Protocol/CmdProtocol.c **** //				    : uint16 UserDataLen	å¾…å‘é€çš„ç”¨æˆ·æ•°æ®é•¿åº¦ï¼ˆä¸åŒ…å«åº”ç­”ç ï¼‰
 532:Code\UserApp\Protocol/CmdProtocol.c **** // Return			: none
 533:Code\UserApp\Protocol/CmdProtocol.c **** //-------------------------------------------------------------------------------------------------
 534:Code\UserApp\Protocol/CmdProtocol.c **** // Info				: 
 535:Code\UserApp\Protocol/CmdProtocol.c **** //*************************************************************************************************
 536:Code\UserApp\Protocol/CmdProtocol.c **** void Protocol_SendAckPacket(uint8 CommChanle, uint8 cPackType, uint8 cCmd, uint8 *UserData, uint16 
 537:Code\UserApp\Protocol/CmdProtocol.c **** {
 538:Code\UserApp\Protocol/CmdProtocol.c **** 	uint8 AppResponseBuf[256] = {0};
 539:Code\UserApp\Protocol/CmdProtocol.c **** 	uint8 i;
 540:Code\UserApp\Protocol/CmdProtocol.c **** 	uint16 NoPtr;
 541:Code\UserApp\Protocol/CmdProtocol.c **** 	uint16 TempCrc;
 542:Code\UserApp\Protocol/CmdProtocol.c **** 	uint16 nPacketLen;
 543:Code\UserApp\Protocol/CmdProtocol.c **** 	
 544:Code\UserApp\Protocol/CmdProtocol.c **** 	NoPtr = 0;
ARM GAS  C:\Users\Administrator\AppData\Local\Temp\ccX9Bf8z.s 			page 11


 545:Code\UserApp\Protocol/CmdProtocol.c **** 	nPacketLen = UserDataLen + 5;
 546:Code\UserApp\Protocol/CmdProtocol.c **** 	memset(AppResponseBuf, 0, sizeof(AppResponseBuf));
 547:Code\UserApp\Protocol/CmdProtocol.c **** 	AppResponseBuf[NoPtr++] = HEAD_BYTE1;
 548:Code\UserApp\Protocol/CmdProtocol.c **** 	AppResponseBuf[NoPtr++] = HEAD_BYTE2;
 549:Code\UserApp\Protocol/CmdProtocol.c **** 	AppResponseBuf[NoPtr++] = (nPacketLen >> 8) & 0xff;
 550:Code\UserApp\Protocol/CmdProtocol.c **** 	AppResponseBuf[NoPtr++] = nPacketLen & 0xff;
 551:Code\UserApp\Protocol/CmdProtocol.c **** 	AppResponseBuf[NoPtr++] = CommChanle | (cPackType << 4);
 552:Code\UserApp\Protocol/CmdProtocol.c **** 	AppResponseBuf[NoPtr++] = PROTOCOL_VER; 
 553:Code\UserApp\Protocol/CmdProtocol.c **** 	AppResponseBuf[NoPtr++] = cCmd;
 554:Code\UserApp\Protocol/CmdProtocol.c **** 
 555:Code\UserApp\Protocol/CmdProtocol.c **** 	#ifdef	AES_ENCRY
 556:Code\UserApp\Protocol/CmdProtocol.c **** 
 557:Code\UserApp\Protocol/CmdProtocol.c **** 	#else
 558:Code\UserApp\Protocol/CmdProtocol.c **** 
 559:Code\UserApp\Protocol/CmdProtocol.c **** 	#endif
 560:Code\UserApp\Protocol/CmdProtocol.c **** 
 561:Code\UserApp\Protocol/CmdProtocol.c **** 	if (UserDataLen)
 562:Code\UserApp\Protocol/CmdProtocol.c **** 	{
 563:Code\UserApp\Protocol/CmdProtocol.c **** 		for (i = 0; i < UserDataLen; i++)
 564:Code\UserApp\Protocol/CmdProtocol.c **** 		{
 565:Code\UserApp\Protocol/CmdProtocol.c **** 			AppResponseBuf[NoPtr++] = *(UserData + i);
 566:Code\UserApp\Protocol/CmdProtocol.c **** 		}
 567:Code\UserApp\Protocol/CmdProtocol.c **** 	}
 568:Code\UserApp\Protocol/CmdProtocol.c **** 	
 569:Code\UserApp\Protocol/CmdProtocol.c **** 	TempCrc = MyCrc16Check(AppResponseBuf, NoPtr);
 570:Code\UserApp\Protocol/CmdProtocol.c **** 
 571:Code\UserApp\Protocol/CmdProtocol.c **** 	AppResponseBuf[NoPtr++] = (TempCrc >> 8) & 0xFF;
 572:Code\UserApp\Protocol/CmdProtocol.c **** 	AppResponseBuf[NoPtr++] = TempCrc & 0xFF;
 573:Code\UserApp\Protocol/CmdProtocol.c **** 	
 574:Code\UserApp\Protocol/CmdProtocol.c **** 	DBG_SOFT_PutStr("\r\n AppResponseBuf:\r\n");
 575:Code\UserApp\Protocol/CmdProtocol.c **** 	DBG_SOFT_PrintfHex(AppResponseBuf,64,16);
 576:Code\UserApp\Protocol/CmdProtocol.c **** 	
 577:Code\UserApp\Protocol/CmdProtocol.c **** 	if (CommChanle == 0x02)                          			// è“ç‰™é€šé“								//
 578:Code\UserApp\Protocol/CmdProtocol.c **** 	{
 579:Code\UserApp\Protocol/CmdProtocol.c **** 		BleSend(AppResponseBuf, NoPtr);
 580:Code\UserApp\Protocol/CmdProtocol.c ****         #if 0
 581:Code\UserApp\Protocol/CmdProtocol.c **** 		for (i = 0; i < 100; i++)
 582:Code\UserApp\Protocol/CmdProtocol.c ****         {
 583:Code\UserApp\Protocol/CmdProtocol.c ****             ble_heartbeat();
 584:Code\UserApp\Protocol/CmdProtocol.c ****         }
 585:Code\UserApp\Protocol/CmdProtocol.c **** 		#endif
 586:Code\UserApp\Protocol/CmdProtocol.c **** 	}
 587:Code\UserApp\Protocol/CmdProtocol.c **** 	else if(CommChanle == 0x01)                     			// GPRSé€šé“								//
 588:Code\UserApp\Protocol/CmdProtocol.c **** 	{
 589:Code\UserApp\Protocol/CmdProtocol.c **** 		cur_time = (uint32)RTC_GetUnixTime();
 590:Code\UserApp\Protocol/CmdProtocol.c **** 		if ((cur_time + 300) > next_heartbeat_time)				// ä¸‹ä¸€æ¬¡å¿ƒè·³åœ¨5minä»¥å†…					//
 591:Code\UserApp\Protocol/CmdProtocol.c **** 		{
 592:Code\UserApp\Protocol/CmdProtocol.c **** 			next_heartbeat_time = cur_time + 300;
 593:Code\UserApp\Protocol/CmdProtocol.c **** 		}
 594:Code\UserApp\Protocol/CmdProtocol.c **** 	    GPRS_SendHexDataToServer(AppResponseBuf, NoPtr);
 595:Code\UserApp\Protocol/CmdProtocol.c **** 	}
 596:Code\UserApp\Protocol/CmdProtocol.c **** }
 597:Code\UserApp\Protocol/CmdProtocol.c **** 
 598:Code\UserApp\Protocol/CmdProtocol.c **** //===ã€ç»“æŸã€‘===================== ä¸šåŠ¡å±‚ä¸»åŠ¨ä¸ŠæŠ¥æœåŠ¡å™¨æŒ‡ä»¤ =======================
 599:Code\UserApp\Protocol/CmdProtocol.c **** 
 600:Code\UserApp\Protocol/CmdProtocol.c **** 
 601:Code\UserApp\Protocol/CmdProtocol.c **** 
ARM GAS  C:\Users\Administrator\AppData\Local\Temp\ccX9Bf8z.s 			page 12


 602:Code\UserApp\Protocol/CmdProtocol.c **** 
 603:Code\UserApp\Protocol/CmdProtocol.c **** //===ã€å¼€å§‹ã€‘=================== ä¸šåŠ¡å±‚å¤„ç†æ¥æ”¶åˆ°çš„æœåŠ¡å™¨/è“ç‰™æŒ‡ä»¤ ============
 604:Code\UserApp\Protocol/CmdProtocol.c **** 
 605:Code\UserApp\Protocol/CmdProtocol.c **** //*************************************************************************************************
 606:Code\UserApp\Protocol/CmdProtocol.c **** // Function name	: Protocol_CmdGetPreSever
 607:Code\UserApp\Protocol/CmdProtocol.c **** // Description		: ä»ä¸­å¿ƒæœåŠ¡å™¨è·å–å…·ä½“è¦é“¾æ¥çš„å‰ç½®æœåŠ¡å™¨åŸŸåæˆ–IP
 608:Code\UserApp\Protocol/CmdProtocol.c **** // Parameter		: uint8* RecBuf	å‘½ä»¤åŒ…æŒ‡é’ˆ
 609:Code\UserApp\Protocol/CmdProtocol.c **** // Return			: none
 610:Code\UserApp\Protocol/CmdProtocol.c **** //-------------------------------------------------------------------------------------------------
 611:Code\UserApp\Protocol/CmdProtocol.c **** // Info				: 0x01å‘½ä»¤ï¼ŒæœåŠ¡å™¨åº”ç­”
 612:Code\UserApp\Protocol/CmdProtocol.c **** //*************************************************************************************************
 613:Code\UserApp\Protocol/CmdProtocol.c **** static void Protocol_CmdGetPreSever(uint8* RecBuf)
 614:Code\UserApp\Protocol/CmdProtocol.c **** {
  27              		.loc 1 614 0
  28              		.cfi_startproc
  29              	.LVL0:
 615:Code\UserApp\Protocol/CmdProtocol.c **** 	uint8 *pstr = RecBuf;
 616:Code\UserApp\Protocol/CmdProtocol.c **** 	uint8 port_tmp[2];
 617:Code\UserApp\Protocol/CmdProtocol.c **** 	uint8 port_str[5];
 618:Code\UserApp\Protocol/CmdProtocol.c **** 	uint16 port_hex;
 619:Code\UserApp\Protocol/CmdProtocol.c **** 
 620:Code\UserApp\Protocol/CmdProtocol.c **** 	// è·å–å‰ç½®æœåŠ¡å™¨åœ°å€å’Œç«¯å£çš„åº”ç­”ä¿¡æ¯																//
 621:Code\UserApp\Protocol/CmdProtocol.c **** 	pstr += 13;
 622:Code\UserApp\Protocol/CmdProtocol.c **** 	memcpy(domain, pstr, 200);									// 200 å­—èŠ‚IPæˆ–åŸŸå						//
  30              		.loc 1 622 0
  31 0000 011C     		mov	r1, r0
 614:Code\UserApp\Protocol/CmdProtocol.c **** 	uint8 *pstr = RecBuf;
  32              		.loc 1 614 0
  33 0002 70B5     		push	{r4, r5, r6, lr}
  34              		.cfi_def_cfa_offset 16
  35              		.cfi_offset 4, -16
  36              		.cfi_offset 5, -12
  37              		.cfi_offset 6, -8
  38              		.cfi_offset 14, -4
 614:Code\UserApp\Protocol/CmdProtocol.c **** 	uint8 *pstr = RecBuf;
  39              		.loc 1 614 0
  40 0004 061C     		mov	r6, r0
  41              		.loc 1 622 0
  42 0006 224D     		ldr	r5, .L2
  43 0008 C822     		mov	r2, #200
  44 000a 281C     		mov	r0, r5
  45              	.LVL1:
  46 000c 0D31     		add	r1, r1, #13
  47              	.LVL2:
  48 000e FFF7FEFF 		bl	memcpy
  49              	.LVL3:
 623:Code\UserApp\Protocol/CmdProtocol.c **** 	pstr += 200;
 624:Code\UserApp\Protocol/CmdProtocol.c **** 	memcpy(port_tmp, pstr, 2);									// ç«¯å£å·								//
  50              		.loc 1 624 0
  51 0012 331C     		mov	r3, r6
 625:Code\UserApp\Protocol/CmdProtocol.c **** 
 626:Code\UserApp\Protocol/CmdProtocol.c **** 	//port_hex = BYTE2WORD(port_tmp[0], port_tmp[1]);
 627:Code\UserApp\Protocol/CmdProtocol.c **** 	#if 0
 628:Code\UserApp\Protocol/CmdProtocol.c **** 	port_str[0]= port_tmp[0]/0x10 + '0';
 629:Code\UserApp\Protocol/CmdProtocol.c **** 	port_str[1]= port_tmp[0]%0x10 + '0';	
 630:Code\UserApp\Protocol/CmdProtocol.c **** 	port_str[2]= port_tmp[1]/0x10 + '0';
 631:Code\UserApp\Protocol/CmdProtocol.c **** 	port_str[3]= port_tmp[1]%0x10 + '0';
ARM GAS  C:\Users\Administrator\AppData\Local\Temp\ccX9Bf8z.s 			page 13


 632:Code\UserApp\Protocol/CmdProtocol.c **** 	#endif
 633:Code\UserApp\Protocol/CmdProtocol.c **** 
 634:Code\UserApp\Protocol/CmdProtocol.c **** 	port_hex = (port_tmp[0]<<8) + port_tmp[1];
 635:Code\UserApp\Protocol/CmdProtocol.c **** 	port_str[0] = port_hex/1000 + '0';
  52              		.loc 1 635 0
  53 0014 FA21     		mov	r1, #250
 624:Code\UserApp\Protocol/CmdProtocol.c **** 
  54              		.loc 1 624 0
  55 0016 D533     		add	r3, r3, #213
  56              	.LVL4:
 634:Code\UserApp\Protocol/CmdProtocol.c **** 	port_str[0] = port_hex/1000 + '0';
  57              		.loc 1 634 0
  58 0018 1C78     		ldrb	r4, [r3]
 624:Code\UserApp\Protocol/CmdProtocol.c **** 
  59              		.loc 1 624 0
  60 001a D636     		add	r6, r6, #214
  61              	.LVL5:
 634:Code\UserApp\Protocol/CmdProtocol.c **** 	port_str[0] = port_hex/1000 + '0';
  62              		.loc 1 634 0
  63 001c 3378     		ldrb	r3, [r6]
  64              	.LVL6:
  65 001e 2402     		lsl	r4, r4, #8
  66 0020 1C19     		add	r4, r3, r4
  67 0022 A4B2     		uxth	r4, r4
  68              	.LVL7:
  69              		.loc 1 635 0
  70 0024 201C     		mov	r0, r4
  71 0026 8900     		lsl	r1, r1, #2
  72 0028 FFF7FEFF 		bl	__aeabi_uidiv
  73              	.LVL8:
 636:Code\UserApp\Protocol/CmdProtocol.c **** 	port_str[1] = port_hex%1000/100 + '0';	
  74              		.loc 1 636 0
  75 002c FA21     		mov	r1, #250
 637:Code\UserApp\Protocol/CmdProtocol.c **** 	port_str[2] = port_hex%100/10 + '0';
 638:Code\UserApp\Protocol/CmdProtocol.c **** 	port_str[3] = port_hex%10 + '0';
 639:Code\UserApp\Protocol/CmdProtocol.c **** 	port_str[4] = '\0';
 640:Code\UserApp\Protocol/CmdProtocol.c **** 	
 641:Code\UserApp\Protocol/CmdProtocol.c **** 	memcpy(pre_port, port_str, 5);
  76              		.loc 1 641 0
  77 002e 194E     		ldr	r6, .L2+4
  78              	.LVL9:
 635:Code\UserApp\Protocol/CmdProtocol.c **** 	port_str[1] = port_hex%1000/100 + '0';	
  79              		.loc 1 635 0
  80 0030 3030     		add	r0, r0, #48
  81              		.loc 1 641 0
  82 0032 3070     		strb	r0, [r6]
 636:Code\UserApp\Protocol/CmdProtocol.c **** 	port_str[1] = port_hex%1000/100 + '0';	
  83              		.loc 1 636 0
  84 0034 8900     		lsl	r1, r1, #2
  85 0036 201C     		mov	r0, r4
  86 0038 FFF7FEFF 		bl	__aeabi_uidivmod
  87              	.LVL10:
  88 003c 88B2     		uxth	r0, r1
  89 003e 6421     		mov	r1, #100
  90 0040 FFF7FEFF 		bl	__aeabi_uidiv
  91              	.LVL11:
  92 0044 3030     		add	r0, r0, #48
ARM GAS  C:\Users\Administrator\AppData\Local\Temp\ccX9Bf8z.s 			page 14


  93              		.loc 1 641 0
  94 0046 7070     		strb	r0, [r6, #1]
 637:Code\UserApp\Protocol/CmdProtocol.c **** 	port_str[2] = port_hex%100/10 + '0';
  95              		.loc 1 637 0
  96 0048 6421     		mov	r1, #100
  97 004a 201C     		mov	r0, r4
  98 004c FFF7FEFF 		bl	__aeabi_uidivmod
  99              	.LVL12:
 100 0050 88B2     		uxth	r0, r1
 101 0052 0A21     		mov	r1, #10
 102 0054 FFF7FEFF 		bl	__aeabi_uidiv
 103              	.LVL13:
 104 0058 3030     		add	r0, r0, #48
 105              		.loc 1 641 0
 106 005a B070     		strb	r0, [r6, #2]
 638:Code\UserApp\Protocol/CmdProtocol.c **** 	port_str[4] = '\0';
 107              		.loc 1 638 0
 108 005c 0A21     		mov	r1, #10
 109 005e 201C     		mov	r0, r4
 110 0060 FFF7FEFF 		bl	__aeabi_uidivmod
 111              	.LVL14:
 112              		.loc 1 641 0
 113 0064 0024     		mov	r4, #0
 114              	.LVL15:
 638:Code\UserApp\Protocol/CmdProtocol.c **** 	port_str[4] = '\0';
 115              		.loc 1 638 0
 116 0066 3031     		add	r1, r1, #48
 117              		.loc 1 641 0
 118 0068 F170     		strb	r1, [r6, #3]
 119 006a 3471     		strb	r4, [r6, #4]
 642:Code\UserApp\Protocol/CmdProtocol.c **** 	memcpy((char *)pre_ip, (char *)domain, strlen((char *)domain));
 120              		.loc 1 642 0
 121 006c 281C     		mov	r0, r5
 122 006e FFF7FEFF 		bl	strlen
 123              	.LVL16:
 124 0072 291C     		mov	r1, r5
 125 0074 021C     		mov	r2, r0
 126 0076 0848     		ldr	r0, .L2+8
 127 0078 FFF7FEFF 		bl	memcpy
 128              	.LVL17:
 643:Code\UserApp\Protocol/CmdProtocol.c **** 	//len = strlen((char *)domain);
 644:Code\UserApp\Protocol/CmdProtocol.c **** 
 645:Code\UserApp\Protocol/CmdProtocol.c **** 	#if DBG_SOFT_ENNABLE
 646:Code\UserApp\Protocol/CmdProtocol.c **** 	DBG_SOFT_PutString("\nPre_domain:");	
 647:Code\UserApp\Protocol/CmdProtocol.c **** 	DBG_SOFT_PutArray(domain, strlen((char *)domain));
 648:Code\UserApp\Protocol/CmdProtocol.c **** 	DBG_SOFT_PutString("\nPre_PORT:");
 649:Code\UserApp\Protocol/CmdProtocol.c **** 	DBG_SOFT_PutArray(port_str, 4);
 650:Code\UserApp\Protocol/CmdProtocol.c **** 	DBG_SOFT_PutString("\n");
 651:Code\UserApp\Protocol/CmdProtocol.c **** 	#endif
 652:Code\UserApp\Protocol/CmdProtocol.c **** 	
 653:Code\UserApp\Protocol/CmdProtocol.c **** 	//===ã€å¼€å§‹ã€‘=== è®¾å¤‡å±‚çš„å¤„ç† ==========================================================
 654:Code\UserApp\Protocol/CmdProtocol.c **** 	gprs_state = GET_PRE_IP;
 129              		.loc 1 654 0
 130 007c 0222     		mov	r2, #2
 131 007e 074B     		ldr	r3, .L2+12
 655:Code\UserApp\Protocol/CmdProtocol.c **** 	gprs_operation_ErrCount = 0;
 656:Code\UserApp\Protocol/CmdProtocol.c **** 	next_gprs_operation_time = cur_time;
ARM GAS  C:\Users\Administrator\AppData\Local\Temp\ccX9Bf8z.s 			page 15


 657:Code\UserApp\Protocol/CmdProtocol.c **** 	//===ã€ç»“æŸã€‘=== è®¾å¤‡å±‚çš„å¤„ç† ==========================================================
 658:Code\UserApp\Protocol/CmdProtocol.c **** 
 659:Code\UserApp\Protocol/CmdProtocol.c **** 	DBG_PRINTF("leaving %s\n", __FUNCTION__);
 660:Code\UserApp\Protocol/CmdProtocol.c **** }
 132              		.loc 1 660 0
 133              		@ sp needed
 654:Code\UserApp\Protocol/CmdProtocol.c **** 	gprs_operation_ErrCount = 0;
 134              		.loc 1 654 0
 135 0080 1A70     		strb	r2, [r3]
 655:Code\UserApp\Protocol/CmdProtocol.c **** 	gprs_operation_ErrCount = 0;
 136              		.loc 1 655 0
 137 0082 074B     		ldr	r3, .L2+16
 138 0084 1C70     		strb	r4, [r3]
 656:Code\UserApp\Protocol/CmdProtocol.c **** 	//===ã€ç»“æŸã€‘=== è®¾å¤‡å±‚çš„å¤„ç† ==========================================================
 139              		.loc 1 656 0
 140 0086 074B     		ldr	r3, .L2+20
 141 0088 1A68     		ldr	r2, [r3]
 142 008a 074B     		ldr	r3, .L2+24
 143 008c 1A60     		str	r2, [r3]
 144              		.loc 1 660 0
 145 008e 70BD     		pop	{r4, r5, r6, pc}
 146              	.L3:
 147              		.align	2
 148              	.L2:
 149 0090 00000000 		.word	domain
 150 0094 00000000 		.word	pre_port
 151 0098 00000000 		.word	pre_ip
 152 009c 00000000 		.word	gprs_state
 153 00a0 00000000 		.word	gprs_operation_ErrCount
 154 00a4 00000000 		.word	cur_time
 155 00a8 00000000 		.word	next_gprs_operation_time
 156              		.cfi_endproc
 157              	.LFE73:
 158              		.size	Protocol_CmdGetPreSever, .-Protocol_CmdGetPreSever
 159              		.section	.text.Protocol_CmdSendOpenInfo,"ax",%progbits
 160              		.align	1
 161              		.code	16
 162              		.thumb_func
 163              		.type	Protocol_CmdSendOpenInfo, %function
 164              	Protocol_CmdSendOpenInfo:
 165              	.LFB79:
 661:Code\UserApp\Protocol/CmdProtocol.c **** 
 662:Code\UserApp\Protocol/CmdProtocol.c **** //*************************************************************************************************
 663:Code\UserApp\Protocol/CmdProtocol.c **** // Function name	: Protocol_CmdGetMacAndKey
 664:Code\UserApp\Protocol/CmdProtocol.c **** // Description		: æ™ºèƒ½é—¨ç¦å‘æœåŠ¡å™¨ç”³æŠ¥MAC ç å¹¶è·å–è“ç‰™å¯†é’¥æŒ‡ä»¤ï¼ˆæ™ºèƒ½é—¨ç¦â†
 665:Code\UserApp\Protocol/CmdProtocol.c **** // Parameter		: uint8* RecBuf	å‘½ä»¤åŒ…æŒ‡é’ˆ
 666:Code\UserApp\Protocol/CmdProtocol.c **** // Return			: none
 667:Code\UserApp\Protocol/CmdProtocol.c **** //-------------------------------------------------------------------------------------------------
 668:Code\UserApp\Protocol/CmdProtocol.c **** // Info				: 0x02å‘½ä»¤ï¼ŒæœåŠ¡å™¨åº”ç­”
 669:Code\UserApp\Protocol/CmdProtocol.c **** //*************************************************************************************************
 670:Code\UserApp\Protocol/CmdProtocol.c **** static void Protocol_CmdGetMacAndKey(uint8* RecBuf)
 671:Code\UserApp\Protocol/CmdProtocol.c **** {
 672:Code\UserApp\Protocol/CmdProtocol.c **** 	uint8 ble_key[6];
 673:Code\UserApp\Protocol/CmdProtocol.c **** 	uint8 *pstr = RecBuf;
 674:Code\UserApp\Protocol/CmdProtocol.c **** 	
 675:Code\UserApp\Protocol/CmdProtocol.c **** 	// è·å–MACåœ°å€å’Œè“ç‰™é’¥åŒ™å‘½ä»¤çš„åº”ç­”åŒ…																//
 676:Code\UserApp\Protocol/CmdProtocol.c **** 	pstr += 13;
ARM GAS  C:\Users\Administrator\AppData\Local\Temp\ccX9Bf8z.s 			page 16


 677:Code\UserApp\Protocol/CmdProtocol.c **** 	#if 0
 678:Code\UserApp\Protocol/CmdProtocol.c **** 	uint8 ptime[4] = {0};
 679:Code\UserApp\Protocol/CmdProtocol.c **** 	memcpy(ptime, pstr, 4);										// æ—¶é—´æˆ³								//
 680:Code\UserApp\Protocol/CmdProtocol.c **** 	cur_time = BYTE2LONG(ptime[0], ptime[1], ptime[2], ptime[3]);
 681:Code\UserApp\Protocol/CmdProtocol.c **** 	RTC_SetUnixTime(cur_time);
 682:Code\UserApp\Protocol/CmdProtocol.c **** 	#endif
 683:Code\UserApp\Protocol/CmdProtocol.c **** 	
 684:Code\UserApp\Protocol/CmdProtocol.c **** 	pstr += 4;
 685:Code\UserApp\Protocol/CmdProtocol.c **** 	memcpy(ble_key, pstr, 6);									// 6å­—èŠ‚è“ç‰™å¯†é’¥						//
 686:Code\UserApp\Protocol/CmdProtocol.c **** 	
 687:Code\UserApp\Protocol/CmdProtocol.c **** 	//===ã€å¼€å§‹ã€‘=== è®¾å¤‡å±‚çš„å¤„ç† ==========================================================
 688:Code\UserApp\Protocol/CmdProtocol.c **** 	SendMacFlag = 1;
 689:Code\UserApp\Protocol/CmdProtocol.c **** 	gprs_state = NORMAL_COMM;
 690:Code\UserApp\Protocol/CmdProtocol.c **** 	gprs_operation_ErrCount = 0;
 691:Code\UserApp\Protocol/CmdProtocol.c **** 	next_gprs_operation_time = cur_time;
 692:Code\UserApp\Protocol/CmdProtocol.c **** 	//===ã€ç»“æŸã€‘=== è®¾å¤‡å±‚çš„å¤„ç† ==========================================================
 693:Code\UserApp\Protocol/CmdProtocol.c **** 	
 694:Code\UserApp\Protocol/CmdProtocol.c **** 	DBG_PRINTF("leaving %s\n", __FUNCTION__);
 695:Code\UserApp\Protocol/CmdProtocol.c **** }
 696:Code\UserApp\Protocol/CmdProtocol.c **** 
 697:Code\UserApp\Protocol/CmdProtocol.c **** //*************************************************************************************************
 698:Code\UserApp\Protocol/CmdProtocol.c **** // Function name	: Protocol_CmdReadUID
 699:Code\UserApp\Protocol/CmdProtocol.c **** // Description		: å¹³å° --> ä»æ™ºèƒ½é—¨ç¦è¯»å–ä¸€æ¡UID æŒ‡ä»¤ 
 700:Code\UserApp\Protocol/CmdProtocol.c **** // Parameter		: uint8* RecBuf	å‘½ä»¤åŒ…æŒ‡é’ˆ
 701:Code\UserApp\Protocol/CmdProtocol.c **** // Return			: none
 702:Code\UserApp\Protocol/CmdProtocol.c **** //-------------------------------------------------------------------------------------------------
 703:Code\UserApp\Protocol/CmdProtocol.c **** // Info				: 0x03å‘½ä»¤ï¼ŒæœåŠ¡å™¨å‘é€
 704:Code\UserApp\Protocol/CmdProtocol.c **** //*************************************************************************************************
 705:Code\UserApp\Protocol/CmdProtocol.c **** static void Protocol_CmdReadUID(uint8* RecBuf)
 706:Code\UserApp\Protocol/CmdProtocol.c **** {
 707:Code\UserApp\Protocol/CmdProtocol.c **** 	uint8 ret;
 708:Code\UserApp\Protocol/CmdProtocol.c **** 	uint8 DataBuf[64];
 709:Code\UserApp\Protocol/CmdProtocol.c **** 	uint8 *pT = DataBuf;
 710:Code\UserApp\Protocol/CmdProtocol.c **** 	uint8 pUID[8] = {0};
 711:Code\UserApp\Protocol/CmdProtocol.c **** 	uint8 comm_chanle = RecBuf[4];								// å–å‡ºä¿¡é“å€¼							//
 712:Code\UserApp\Protocol/CmdProtocol.c **** 	uint16 nCmdPackLen;
 713:Code\UserApp\Protocol/CmdProtocol.c **** 
 714:Code\UserApp\Protocol/CmdProtocol.c **** 	nCmdPackLen= (RecBuf[2]<<8) + RecBuf[3] + 4;
 715:Code\UserApp\Protocol/CmdProtocol.c **** 	 
 716:Code\UserApp\Protocol/CmdProtocol.c **** 	memset(pT, 0, sizeof(DataBuf));
 717:Code\UserApp\Protocol/CmdProtocol.c **** 	
 718:Code\UserApp\Protocol/CmdProtocol.c **** 	//if (0 != memcmp((uint8 *)Mac_Addr, pMAC, BD_ADDR_LEN))
 719:Code\UserApp\Protocol/CmdProtocol.c **** 	
 720:Code\UserApp\Protocol/CmdProtocol.c **** 	memcpy(pT, RecBuf + 7, 6);			  						// å–å‡ºMACåœ°å€ï¼Œç†è®ºåº”åŠ ä¸ŠMACæ ¡éªŒ		//
 721:Code\UserApp\Protocol/CmdProtocol.c **** 	pT += 6;
 722:Code\UserApp\Protocol/CmdProtocol.c **** 	
 723:Code\UserApp\Protocol/CmdProtocol.c **** 	//===ã€å¼€å§‹ã€‘=== è®¾å¤‡å±‚çš„å¤„ç† ==========================================================
 724:Code\UserApp\Protocol/CmdProtocol.c **** 	VoicePlay((uint8)Sound_PleasePutCard);						// ä»è®¾å¤‡è¯»å–ä¸€å¼ uid == PUID			//
 725:Code\UserApp\Protocol/CmdProtocol.c **** 	wait_timeout = 20000;
 726:Code\UserApp\Protocol/CmdProtocol.c **** 	ret = RET_ERR;
 727:Code\UserApp\Protocol/CmdProtocol.c **** 	DBG_SOFT_PutStr("\nProtocol_CmdReadUID\n");
 728:Code\UserApp\Protocol/CmdProtocol.c **** 	while (wait_timeout > 0)
 729:Code\UserApp\Protocol/CmdProtocol.c **** 	{
 730:Code\UserApp\Protocol/CmdProtocol.c **** 		ret = detect_nfc_card(pUID, CARD_UID_LEN);
 731:Code\UserApp\Protocol/CmdProtocol.c **** 		// æ»¤é™¤ä¸å‡†ç¡®çš„å¡ID
 732:Code\UserApp\Protocol/CmdProtocol.c **** 		if((pUID[0] == 0) && (pUID[1] == 0) &&(pUID[2] == 0) && (pUID[3] == 0))
 733:Code\UserApp\Protocol/CmdProtocol.c **** 		{
ARM GAS  C:\Users\Administrator\AppData\Local\Temp\ccX9Bf8z.s 			page 17


 734:Code\UserApp\Protocol/CmdProtocol.c **** 			continue;
 735:Code\UserApp\Protocol/CmdProtocol.c **** 		}
 736:Code\UserApp\Protocol/CmdProtocol.c **** 		if (ret == RET_OK)
 737:Code\UserApp\Protocol/CmdProtocol.c **** 		{
 738:Code\UserApp\Protocol/CmdProtocol.c **** 			VoicePlay((uint8)Sound_ReadCardSuccess);
 739:Code\UserApp\Protocol/CmdProtocol.c **** 			break;
 740:Code\UserApp\Protocol/CmdProtocol.c **** 		}
 741:Code\UserApp\Protocol/CmdProtocol.c **** 	}
 742:Code\UserApp\Protocol/CmdProtocol.c **** 	if(wait_timeout == 0)										// è¶…æ—¶æ’­æŠ¥
 743:Code\UserApp\Protocol/CmdProtocol.c **** 	{	
 744:Code\UserApp\Protocol/CmdProtocol.c **** 		memset(pUID,0xFF,7);									// è¶…æ—¶UID æ›¿ä»£å€¼ FFFFFFFFFFFFFF03
 745:Code\UserApp\Protocol/CmdProtocol.c **** 		pUID[7] = 0x03;
 746:Code\UserApp\Protocol/CmdProtocol.c **** 		VoicePlay((uint8)Sound_TIMEOUT);
 747:Code\UserApp\Protocol/CmdProtocol.c **** 	}
 748:Code\UserApp\Protocol/CmdProtocol.c **** 	
 749:Code\UserApp\Protocol/CmdProtocol.c **** 	//===ã€ç»“æŸã€‘=== è®¾å¤‡å±‚çš„å¤„ç† ==========================================================
 750:Code\UserApp\Protocol/CmdProtocol.c **** 	
 751:Code\UserApp\Protocol/CmdProtocol.c **** 	Endpoint_exchange(pUID);									// Aå¡æ•°æ®ä½ç½®è½¬æ¢ @ 18-1-17			//
 752:Code\UserApp\Protocol/CmdProtocol.c **** 	
 753:Code\UserApp\Protocol/CmdProtocol.c **** 	memcpy(pT, pUID, 8);										// å¤åˆ¶è¯»åˆ°çš„å¡UID						//
 754:Code\UserApp\Protocol/CmdProtocol.c **** 	pT += 8;
 755:Code\UserApp\Protocol/CmdProtocol.c **** 
 756:Code\UserApp\Protocol/CmdProtocol.c **** 	memcpy(pT, RecBuf + nCmdPackLen - 6, 4);					// æ‹·è´æ—¶é—´æˆ³							//
 757:Code\UserApp\Protocol/CmdProtocol.c **** 	pT += 4;
 758:Code\UserApp\Protocol/CmdProtocol.c **** 	
 759:Code\UserApp\Protocol/CmdProtocol.c **** 	if (ret == RET_ERR)											// æ²¡è¯»åˆ°å¡ï¼Œå›ä¼ ç»“æœç å¤±è´¥				//
 760:Code\UserApp\Protocol/CmdProtocol.c **** 	{
 761:Code\UserApp\Protocol/CmdProtocol.c **** 		*pT = RT_Timeout_ERR;									// è¶…æ—¶ä¸ŠæŠ¥								//
 762:Code\UserApp\Protocol/CmdProtocol.c **** 	}
 763:Code\UserApp\Protocol/CmdProtocol.c **** 	else
 764:Code\UserApp\Protocol/CmdProtocol.c **** 	{
 765:Code\UserApp\Protocol/CmdProtocol.c **** 		*pT = RT_SUCC;
 766:Code\UserApp\Protocol/CmdProtocol.c **** 	}
 767:Code\UserApp\Protocol/CmdProtocol.c **** 	
 768:Code\UserApp\Protocol/CmdProtocol.c **** 	Protocol_SendAckPacket(comm_chanle, PACK_RESP, RecBuf[6], DataBuf, 19);
 769:Code\UserApp\Protocol/CmdProtocol.c **** 	
 770:Code\UserApp\Protocol/CmdProtocol.c **** 	DBG_PRINTF("leaving %s\n", __FUNCTION__);
 771:Code\UserApp\Protocol/CmdProtocol.c **** }
 772:Code\UserApp\Protocol/CmdProtocol.c **** 
 773:Code\UserApp\Protocol/CmdProtocol.c **** //*************************************************************************************************
 774:Code\UserApp\Protocol/CmdProtocol.c **** // Function name	: Protocol_CmdWriteUID
 775:Code\UserApp\Protocol/CmdProtocol.c **** // Description		: å¹³å° --> å†™ä¸€æ¡UIDå’Œæœ‰æ•ˆæœŸåˆ°æ™ºèƒ½é—¨ç¦æŒ‡ä»¤
 776:Code\UserApp\Protocol/CmdProtocol.c **** // Parameter		: uint8* GPRSCmdBuf	å‘½ä»¤åŒ…æŒ‡é’ˆ
 777:Code\UserApp\Protocol/CmdProtocol.c **** // Return			: none
 778:Code\UserApp\Protocol/CmdProtocol.c **** //-------------------------------------------------------------------------------------------------
 779:Code\UserApp\Protocol/CmdProtocol.c **** // Info				: 0x04å‘½ä»¤ï¼ŒæœåŠ¡å™¨å‘é€
 780:Code\UserApp\Protocol/CmdProtocol.c **** //*************************************************************************************************
 781:Code\UserApp\Protocol/CmdProtocol.c **** static void Protocol_CmdWriteUID(uint8* RecBuf)
 782:Code\UserApp\Protocol/CmdProtocol.c **** {
 783:Code\UserApp\Protocol/CmdProtocol.c **** 	uint8 DataBuf[64];
 784:Code\UserApp\Protocol/CmdProtocol.c **** 	uint8 *pT = DataBuf;
 785:Code\UserApp\Protocol/CmdProtocol.c **** 	uint8 pUID[8];
 786:Code\UserApp\Protocol/CmdProtocol.c **** 	uint8 pTime[4];
 787:Code\UserApp\Protocol/CmdProtocol.c **** 	uint8 comm_chanle = RecBuf[4];								// å–å‡ºä¿¡é“å€¼							//
 788:Code\UserApp\Protocol/CmdProtocol.c **** 	user_info_t user_info;
 789:Code\UserApp\Protocol/CmdProtocol.c **** 	uint16 nCmdPackLen;
 790:Code\UserApp\Protocol/CmdProtocol.c **** 	
ARM GAS  C:\Users\Administrator\AppData\Local\Temp\ccX9Bf8z.s 			page 18


 791:Code\UserApp\Protocol/CmdProtocol.c ****     nCmdPackLen= (RecBuf[2] << 8) + RecBuf[3] + 4;
 792:Code\UserApp\Protocol/CmdProtocol.c ****     
 793:Code\UserApp\Protocol/CmdProtocol.c **** 	memset(pT, 0, sizeof(DataBuf));
 794:Code\UserApp\Protocol/CmdProtocol.c **** 	memcpy(pT, RecBuf + 7, 6);									// å–å‡ºMACåœ°å€ï¼Œç†è®ºåº”åŠ ä¸ŠMACæ ¡éªŒ		//
 795:Code\UserApp\Protocol/CmdProtocol.c **** 	pT += 6;
 796:Code\UserApp\Protocol/CmdProtocol.c **** 	
 797:Code\UserApp\Protocol/CmdProtocol.c **** 	memcpy(pT, RecBuf + 13, 8);									// å–å‡ºuid								//
 798:Code\UserApp\Protocol/CmdProtocol.c **** 	memcpy(pUID, RecBuf + 13, 8);
 799:Code\UserApp\Protocol/CmdProtocol.c **** 	pT += 8;
 800:Code\UserApp\Protocol/CmdProtocol.c **** 	
 801:Code\UserApp\Protocol/CmdProtocol.c **** 	memcpy(pT, RecBuf + 21, 4);									// å–å‡ºæœ‰æ•ˆæ—¥æœŸ							//
 802:Code\UserApp\Protocol/CmdProtocol.c **** 	memcpy(pTime, RecBuf + 21, 4);	
 803:Code\UserApp\Protocol/CmdProtocol.c **** 	pT += 4;
 804:Code\UserApp\Protocol/CmdProtocol.c **** 	memcpy(pT, RecBuf + nCmdPackLen - 6, 4);					// æ—¶é—´æˆ³								//
 805:Code\UserApp\Protocol/CmdProtocol.c **** 	pT += 4;
 806:Code\UserApp\Protocol/CmdProtocol.c ****     
 807:Code\UserApp\Protocol/CmdProtocol.c **** 	//===ã€å¼€å§‹ã€‘=== è®¾å¤‡å±‚çš„å¤„ç† ==========================================================
 808:Code\UserApp\Protocol/CmdProtocol.c **** 	Endpoint_exchange(pUID);									// Aå¡æ•°æ®ä½ç½®è½¬æ¢ @ 18-1-17			//
 809:Code\UserApp\Protocol/CmdProtocol.c **** 	
 810:Code\UserApp\Protocol/CmdProtocol.c **** 	memcpy(user_info.card_uid, pUID, 8);
 811:Code\UserApp\Protocol/CmdProtocol.c **** 	memcpy(user_info.valid_time, pTime, 4);
 812:Code\UserApp\Protocol/CmdProtocol.c **** 	if (TRUE == UserData_Add_User(&user_info))
 813:Code\UserApp\Protocol/CmdProtocol.c **** 	{
 814:Code\UserApp\Protocol/CmdProtocol.c **** 		VoicePlay((uint8)Sound_REG_SUCCESS);
 815:Code\UserApp\Protocol/CmdProtocol.c **** 		*pT = RT_SUCC;
 816:Code\UserApp\Protocol/CmdProtocol.c **** 	}
 817:Code\UserApp\Protocol/CmdProtocol.c **** 	else
 818:Code\UserApp\Protocol/CmdProtocol.c **** 	{
 819:Code\UserApp\Protocol/CmdProtocol.c **** 		VoicePlay((uint8)Sound_REG_FAILURE);
 820:Code\UserApp\Protocol/CmdProtocol.c **** 		*pT = RT_FAIL;
 821:Code\UserApp\Protocol/CmdProtocol.c **** 	}
 822:Code\UserApp\Protocol/CmdProtocol.c **** 	//===ã€ç»“æŸã€‘=== è®¾å¤‡å±‚çš„å¤„ç† ==========================================================
 823:Code\UserApp\Protocol/CmdProtocol.c **** 	
 824:Code\UserApp\Protocol/CmdProtocol.c **** 	Protocol_SendAckPacket(comm_chanle, PACK_RESP, RecBuf[6], DataBuf, 23);
 825:Code\UserApp\Protocol/CmdProtocol.c **** 	
 826:Code\UserApp\Protocol/CmdProtocol.c **** 	#if DBG_SOFT_ENNABLE
 827:Code\UserApp\Protocol/CmdProtocol.c **** 	test_Flash();
 828:Code\UserApp\Protocol/CmdProtocol.c **** 	#endif
 829:Code\UserApp\Protocol/CmdProtocol.c **** 	
 830:Code\UserApp\Protocol/CmdProtocol.c **** 	DBG_PRINTF("leaving %s\n", __FUNCTION__);
 831:Code\UserApp\Protocol/CmdProtocol.c **** }
 832:Code\UserApp\Protocol/CmdProtocol.c **** 
 833:Code\UserApp\Protocol/CmdProtocol.c **** //*************************************************************************************************
 834:Code\UserApp\Protocol/CmdProtocol.c **** // Function name	: Protocol_CmdDelUID
 835:Code\UserApp\Protocol/CmdProtocol.c **** // Description		: å¹³å° -->ä»æ™ºèƒ½é—¨ç¦åˆ é™¤ä¸€æ¡UID æŒ‡ä»¤
 836:Code\UserApp\Protocol/CmdProtocol.c **** // Parameter		: uint8* RecBuf	å‘½ä»¤åŒ…æŒ‡é’ˆ
 837:Code\UserApp\Protocol/CmdProtocol.c **** // Return			: none
 838:Code\UserApp\Protocol/CmdProtocol.c **** //-------------------------------------------------------------------------------------------------
 839:Code\UserApp\Protocol/CmdProtocol.c **** // Info				: 0x05å‘½ä»¤ï¼ŒæœåŠ¡å™¨å‘é€
 840:Code\UserApp\Protocol/CmdProtocol.c **** //*************************************************************************************************
 841:Code\UserApp\Protocol/CmdProtocol.c **** static void Protocol_CmdDelUID(uint8* RecBuf)
 842:Code\UserApp\Protocol/CmdProtocol.c **** {
 843:Code\UserApp\Protocol/CmdProtocol.c **** 	uint8 ret = 0;
 844:Code\UserApp\Protocol/CmdProtocol.c **** 	uint8 DataBuf[64];
 845:Code\UserApp\Protocol/CmdProtocol.c **** 	uint8 *pT = DataBuf;
 846:Code\UserApp\Protocol/CmdProtocol.c **** 	uint8 pUID[8];
 847:Code\UserApp\Protocol/CmdProtocol.c **** 	uint8 comm_chanle = RecBuf[4];								// å–å‡ºä¿¡é“å€¼							//
ARM GAS  C:\Users\Administrator\AppData\Local\Temp\ccX9Bf8z.s 			page 19


 848:Code\UserApp\Protocol/CmdProtocol.c **** 	uint16 nCmdPackLen;
 849:Code\UserApp\Protocol/CmdProtocol.c **** 
 850:Code\UserApp\Protocol/CmdProtocol.c **** 	nCmdPackLen= (RecBuf[2]<<8) + RecBuf[3] + 4;
 851:Code\UserApp\Protocol/CmdProtocol.c **** 	 
 852:Code\UserApp\Protocol/CmdProtocol.c **** 	memset(pT, 0, sizeof(DataBuf));
 853:Code\UserApp\Protocol/CmdProtocol.c **** 	memcpy(pT, RecBuf + 7, 6);									// å–å‡ºMACåœ°å€ï¼Œç†è®ºåº”åŠ ä¸ŠMACæ ¡éªŒ		//
 854:Code\UserApp\Protocol/CmdProtocol.c **** 	pT += 6;
 855:Code\UserApp\Protocol/CmdProtocol.c **** 
 856:Code\UserApp\Protocol/CmdProtocol.c **** 	memcpy(pT, RecBuf + 13, 8);									// å–å‡ºuid								//
 857:Code\UserApp\Protocol/CmdProtocol.c **** 	memcpy(pUID, RecBuf + 13, 8);
 858:Code\UserApp\Protocol/CmdProtocol.c **** 	pT += 8;
 859:Code\UserApp\Protocol/CmdProtocol.c **** 
 860:Code\UserApp\Protocol/CmdProtocol.c **** 	memcpy(pT, RecBuf + nCmdPackLen - 6, 4);					// æ—¶é—´æˆ³								//
 861:Code\UserApp\Protocol/CmdProtocol.c **** 	pT += 4;
 862:Code\UserApp\Protocol/CmdProtocol.c ****  	
 863:Code\UserApp\Protocol/CmdProtocol.c **** 	//===ã€å¼€å§‹ã€‘=== è®¾å¤‡å±‚çš„å¤„ç† ==========================================================
 864:Code\UserApp\Protocol/CmdProtocol.c **** 	Endpoint_exchange(pUID);									// Aå¡æ•°æ®ä½ç½®è½¬æ¢ @ 18-1-17			//
 865:Code\UserApp\Protocol/CmdProtocol.c **** 	
 866:Code\UserApp\Protocol/CmdProtocol.c **** 	ret = UserData_DEL_User(pUID);
 867:Code\UserApp\Protocol/CmdProtocol.c **** 	if (TRUE == ret)
 868:Code\UserApp\Protocol/CmdProtocol.c **** 	{
 869:Code\UserApp\Protocol/CmdProtocol.c **** 		VoicePlay((uint8)Sound_DELETE_SUCCESS);
 870:Code\UserApp\Protocol/CmdProtocol.c **** 		*pT = RT_SUCC;
 871:Code\UserApp\Protocol/CmdProtocol.c **** 	}
 872:Code\UserApp\Protocol/CmdProtocol.c **** 	else if(RT_Invalid_ERR == ret)
 873:Code\UserApp\Protocol/CmdProtocol.c **** 	{
 874:Code\UserApp\Protocol/CmdProtocol.c **** 		VoicePlay((uint8)Sound_DELETE_FAILURE);
 875:Code\UserApp\Protocol/CmdProtocol.c **** 		*pT = RT_Invalid_ERR;
 876:Code\UserApp\Protocol/CmdProtocol.c **** 	}
 877:Code\UserApp\Protocol/CmdProtocol.c **** 	else if(FALSE == ret)
 878:Code\UserApp\Protocol/CmdProtocol.c **** 	{
 879:Code\UserApp\Protocol/CmdProtocol.c **** 		VoicePlay((uint8)Sound_DELETE_FAILURE);
 880:Code\UserApp\Protocol/CmdProtocol.c **** 		*pT = RT_FAIL;
 881:Code\UserApp\Protocol/CmdProtocol.c **** 	}
 882:Code\UserApp\Protocol/CmdProtocol.c **** 	
 883:Code\UserApp\Protocol/CmdProtocol.c **** 	
 884:Code\UserApp\Protocol/CmdProtocol.c **** 	//===ã€ç»“æŸã€‘=== è®¾å¤‡å±‚çš„å¤„ç† ==========================================================
 885:Code\UserApp\Protocol/CmdProtocol.c **** 	
 886:Code\UserApp\Protocol/CmdProtocol.c **** 	Protocol_SendAckPacket(comm_chanle, PACK_RESP, RecBuf[6], DataBuf, 19);	
 887:Code\UserApp\Protocol/CmdProtocol.c **** 	
 888:Code\UserApp\Protocol/CmdProtocol.c **** 	#if DBG_SOFT_ENNABLE
 889:Code\UserApp\Protocol/CmdProtocol.c **** 	test_Flash();
 890:Code\UserApp\Protocol/CmdProtocol.c **** 	#endif
 891:Code\UserApp\Protocol/CmdProtocol.c **** 	
 892:Code\UserApp\Protocol/CmdProtocol.c **** 	DBG_PRINTF("leaving %s\n", __FUNCTION__);
 893:Code\UserApp\Protocol/CmdProtocol.c **** }  
 894:Code\UserApp\Protocol/CmdProtocol.c **** 
 895:Code\UserApp\Protocol/CmdProtocol.c **** //*************************************************************************************************
 896:Code\UserApp\Protocol/CmdProtocol.c **** // Function name	: Protocol_CmdOpenDoor
 897:Code\UserApp\Protocol/CmdProtocol.c **** // Description		: APP(æˆ–å¹³å°)é€šè¿‡é¢„å®šçš„ä¿¡é“å‘æ™ºèƒ½é—¨ç¦å‘å‡ºå¼€é—¨å‘½ä»¤ï¼Œæ™ºèƒ½é—¨ç
 898:Code\UserApp\Protocol/CmdProtocol.c **** // Parameter		: uint8* RecBuf	å‘½ä»¤åŒ…æŒ‡é’ˆ
 899:Code\UserApp\Protocol/CmdProtocol.c **** // Return			: none
 900:Code\UserApp\Protocol/CmdProtocol.c **** //-------------------------------------------------------------------------------------------------
 901:Code\UserApp\Protocol/CmdProtocol.c **** // Info				: 0x06å‘½ä»¤ï¼ŒæœåŠ¡å™¨å‘é€
 902:Code\UserApp\Protocol/CmdProtocol.c **** //*************************************************************************************************
 903:Code\UserApp\Protocol/CmdProtocol.c **** static void Protocol_CmdOpenDoor(uint8* RecBuf)
 904:Code\UserApp\Protocol/CmdProtocol.c **** {
ARM GAS  C:\Users\Administrator\AppData\Local\Temp\ccX9Bf8z.s 			page 20


 905:Code\UserApp\Protocol/CmdProtocol.c **** 	uint8 ret = 0;
 906:Code\UserApp\Protocol/CmdProtocol.c **** 	uint8 RetCode = RT_SUCC;
 907:Code\UserApp\Protocol/CmdProtocol.c **** 	uint8 DataBuf[256];
 908:Code\UserApp\Protocol/CmdProtocol.c **** 	uint8 pUID[8];
 909:Code\UserApp\Protocol/CmdProtocol.c **** 	uint8 pMAC[6];
 910:Code\UserApp\Protocol/CmdProtocol.c **** 	uint8 pTime[4];
 911:Code\UserApp\Protocol/CmdProtocol.c **** 	uint8 OpenType;  
 912:Code\UserApp\Protocol/CmdProtocol.c **** 	uint8 *pT=DataBuf;
 913:Code\UserApp\Protocol/CmdProtocol.c **** 	uint8 comm_chanle = RecBuf[4];								// å–å‡ºä¿¡é“å€¼							//
 914:Code\UserApp\Protocol/CmdProtocol.c **** 	uint16 nCmdPackLen;
 915:Code\UserApp\Protocol/CmdProtocol.c **** 	user_info_t user_info;
 916:Code\UserApp\Protocol/CmdProtocol.c **** 	open_door_t openInfo;
 917:Code\UserApp\Protocol/CmdProtocol.c **** 
 918:Code\UserApp\Protocol/CmdProtocol.c ****     nCmdPackLen= (RecBuf[2] << 8) + RecBuf[3] + 4;
 919:Code\UserApp\Protocol/CmdProtocol.c **** 	
 920:Code\UserApp\Protocol/CmdProtocol.c **** 	memset(&openInfo, 0, sizeof(open_door_t));
 921:Code\UserApp\Protocol/CmdProtocol.c ****     memset(pT, 0, sizeof(DataBuf));
 922:Code\UserApp\Protocol/CmdProtocol.c ****     
 923:Code\UserApp\Protocol/CmdProtocol.c **** 	memcpy(pT, RecBuf + 7, 6);									// å–å‡ºMACåœ°å€ï¼Œç†è®ºåº”åŠ ä¸ŠMACæ ¡éªŒ		//
 924:Code\UserApp\Protocol/CmdProtocol.c ****     memcpy(pMAC, RecBuf + 7, 6);
 925:Code\UserApp\Protocol/CmdProtocol.c **** 	pT += 6;
 926:Code\UserApp\Protocol/CmdProtocol.c **** 	
 927:Code\UserApp\Protocol/CmdProtocol.c **** 	memcpy(pT, RecBuf + 13, 8);									// å–å‡ºuid								//
 928:Code\UserApp\Protocol/CmdProtocol.c **** 	memcpy(pUID, RecBuf + 13,8);
 929:Code\UserApp\Protocol/CmdProtocol.c ****     pT += 8;
 930:Code\UserApp\Protocol/CmdProtocol.c **** 	
 931:Code\UserApp\Protocol/CmdProtocol.c ****     *pT = *(RecBuf + 13 + 8);									// å¼€é—¨æ–¹å¼								//
 932:Code\UserApp\Protocol/CmdProtocol.c **** 	OpenType = *(RecBuf + 13 + 8);
 933:Code\UserApp\Protocol/CmdProtocol.c **** 	pT += 1;
 934:Code\UserApp\Protocol/CmdProtocol.c **** 	
 935:Code\UserApp\Protocol/CmdProtocol.c ****     memcpy(pT, RecBuf + nCmdPackLen - 6, 4);					// æ—¶é—´æˆ³								//
 936:Code\UserApp\Protocol/CmdProtocol.c ****     memcpy(pTime, RecBuf + nCmdPackLen - 6, 4);
 937:Code\UserApp\Protocol/CmdProtocol.c **** 	pT += 4;
 938:Code\UserApp\Protocol/CmdProtocol.c **** 	
 939:Code\UserApp\Protocol/CmdProtocol.c **** 	//===ã€å¼€å§‹ã€‘=== è®¾å¤‡å±‚çš„å¤„ç† ==========================================================
 940:Code\UserApp\Protocol/CmdProtocol.c **** 	Endpoint_exchange(pUID);									// Aå¡æ•°æ®ä½ç½®è½¬æ¢ @ 18-1-17			//
 941:Code\UserApp\Protocol/CmdProtocol.c **** 	
 942:Code\UserApp\Protocol/CmdProtocol.c **** 	memcpy(user_info.card_uid, pUID, 8);
 943:Code\UserApp\Protocol/CmdProtocol.c **** 	memcpy(user_info.valid_time, pTime, 4);
 944:Code\UserApp\Protocol/CmdProtocol.c **** 	
 945:Code\UserApp\Protocol/CmdProtocol.c **** 	if (0 != memcmp((uint8 *)Mac_Addr, pMAC, BD_ADDR_LEN))
 946:Code\UserApp\Protocol/CmdProtocol.c **** 	{
 947:Code\UserApp\Protocol/CmdProtocol.c **** 		RetCode = RT_FAIL;										// ä¸¢å¼ƒï¼Ÿ
 948:Code\UserApp\Protocol/CmdProtocol.c **** 	}
 949:Code\UserApp\Protocol/CmdProtocol.c **** 	else
 950:Code\UserApp\Protocol/CmdProtocol.c **** 	{ 
 951:Code\UserApp\Protocol/CmdProtocol.c **** 		
 952:Code\UserApp\Protocol/CmdProtocol.c **** 		ret = UserData_Judge_If_Open(&user_info);
 953:Code\UserApp\Protocol/CmdProtocol.c **** 		if (RT_UID_ERR == ret)
 954:Code\UserApp\Protocol/CmdProtocol.c **** 		{
 955:Code\UserApp\Protocol/CmdProtocol.c **** 			RetCode = RT_UID_ERR;
 956:Code\UserApp\Protocol/CmdProtocol.c **** 		}
 957:Code\UserApp\Protocol/CmdProtocol.c **** 		else if(RT_ValidTime_ERR == ret)
 958:Code\UserApp\Protocol/CmdProtocol.c **** 		{
 959:Code\UserApp\Protocol/CmdProtocol.c **** 			RetCode = RT_ValidTime_ERR;
 960:Code\UserApp\Protocol/CmdProtocol.c **** 		}
 961:Code\UserApp\Protocol/CmdProtocol.c **** 		else if (TRUE == ret)
ARM GAS  C:\Users\Administrator\AppData\Local\Temp\ccX9Bf8z.s 			page 21


 962:Code\UserApp\Protocol/CmdProtocol.c **** 		{
 963:Code\UserApp\Protocol/CmdProtocol.c **** 			RetCode = RT_SUCC;
 964:Code\UserApp\Protocol/CmdProtocol.c **** 		}
 965:Code\UserApp\Protocol/CmdProtocol.c **** 	}
 966:Code\UserApp\Protocol/CmdProtocol.c **** 	*pT = RetCode;
 967:Code\UserApp\Protocol/CmdProtocol.c **** 	//===ã€ç»“æŸã€‘=== è®¾å¤‡å±‚çš„å¤„ç† ==========================================================
 968:Code\UserApp\Protocol/CmdProtocol.c **** 	
 969:Code\UserApp\Protocol/CmdProtocol.c **** 	Protocol_SendAckPacket(comm_chanle, PACK_RESP, RecBuf[6], DataBuf, 20);
 970:Code\UserApp\Protocol/CmdProtocol.c **** 		
 971:Code\UserApp\Protocol/CmdProtocol.c **** 	if (RetCode == RT_SUCC)
 972:Code\UserApp\Protocol/CmdProtocol.c **** 	{
 973:Code\UserApp\Protocol/CmdProtocol.c **** 		//===ã€å¼€å§‹ã€‘=== è®¾å¤‡å±‚çš„å¤„ç† =========================================================
 974:Code\UserApp\Protocol/CmdProtocol.c **** 	    Led_GreenON();
 975:Code\UserApp\Protocol/CmdProtocol.c **** 		VoicePlay((uint8)Sound_VERIFY_SUCCESS);
 976:Code\UserApp\Protocol/CmdProtocol.c ****         DoorOpen();
 977:Code\UserApp\Protocol/CmdProtocol.c **** 		delay_with_ble(2000);
 978:Code\UserApp\Protocol/CmdProtocol.c **** 		DoorClose();
 979:Code\UserApp\Protocol/CmdProtocol.c **** 		Led_SetState(LED_State);
 980:Code\UserApp\Protocol/CmdProtocol.c **** 		
 981:Code\UserApp\Protocol/CmdProtocol.c **** 		memcpy(openInfo.card_uid, pUID, CARD_UID_LEN);
 982:Code\UserApp\Protocol/CmdProtocol.c **** 		memcpy(openInfo.open_time, pTime, 4);
 983:Code\UserApp\Protocol/CmdProtocol.c **** 		memset(pTime, 0, 4);
 984:Code\UserApp\Protocol/CmdProtocol.c **** 		memcpy(openInfo.send_time, pTime, 4);
 985:Code\UserApp\Protocol/CmdProtocol.c **** 		Write_OpenInfo(&openInfo, OpenType);
 986:Code\UserApp\Protocol/CmdProtocol.c **** 		//===ã€ç»“æŸã€‘=== è®¾å¤‡å±‚çš„å¤„ç† =========================================================
 987:Code\UserApp\Protocol/CmdProtocol.c **** 		#if 0
 988:Code\UserApp\Protocol/CmdProtocol.c **** 		cur_time = (uint32)RTC_GetUnixTime();
 989:Code\UserApp\Protocol/CmdProtocol.c **** 		if ((cur_time + 300) > next_heartbeat_time)					// ä¸‹ä¸€æ¬¡å¿ƒè·³åœ¨30ç§’ä»¥å†…				//
 990:Code\UserApp\Protocol/CmdProtocol.c **** 		{
 991:Code\UserApp\Protocol/CmdProtocol.c **** 			next_heartbeat_time = cur_time + 300;
 992:Code\UserApp\Protocol/CmdProtocol.c **** 		}
 993:Code\UserApp\Protocol/CmdProtocol.c **** 		#endif
 994:Code\UserApp\Protocol/CmdProtocol.c **** 		if (gprs_state == NORMAL_COMM)
 995:Code\UserApp\Protocol/CmdProtocol.c **** 		{
 996:Code\UserApp\Protocol/CmdProtocol.c **** 			cur_time = (uint32)RTC_GetUnixTime();
 997:Code\UserApp\Protocol/CmdProtocol.c **** 			if(cur_time > next_allupload_time)
 998:Code\UserApp\Protocol/CmdProtocol.c **** 			{
 999:Code\UserApp\Protocol/CmdProtocol.c **** 				next_allupload_time = cur_time + 15;
1000:Code\UserApp\Protocol/CmdProtocol.c **** 				send_upload_open_info(&openInfo, CARD_UID_LEN, OpenType);
1001:Code\UserApp\Protocol/CmdProtocol.c **** 			}
1002:Code\UserApp\Protocol/CmdProtocol.c **** 		}
1003:Code\UserApp\Protocol/CmdProtocol.c **** 	}
1004:Code\UserApp\Protocol/CmdProtocol.c **** 	else
1005:Code\UserApp\Protocol/CmdProtocol.c **** 	{
1006:Code\UserApp\Protocol/CmdProtocol.c **** 		Card_ErrCount++;
1007:Code\UserApp\Protocol/CmdProtocol.c **** 		Led_RedON();
1008:Code\UserApp\Protocol/CmdProtocol.c **** 		VoicePlay(Sound_VERIFY_FAILURE);
1009:Code\UserApp\Protocol/CmdProtocol.c **** 		delay_with_ble(800);
1010:Code\UserApp\Protocol/CmdProtocol.c **** 	}
1011:Code\UserApp\Protocol/CmdProtocol.c **** 		
1012:Code\UserApp\Protocol/CmdProtocol.c **** 	DBG_PRINTF("leaving %s\n", __FUNCTION__);
1013:Code\UserApp\Protocol/CmdProtocol.c **** }
1014:Code\UserApp\Protocol/CmdProtocol.c **** 
1015:Code\UserApp\Protocol/CmdProtocol.c **** //*************************************************************************************************
1016:Code\UserApp\Protocol/CmdProtocol.c **** // Function name	: Protocol_CmdSendOpenInfo
1017:Code\UserApp\Protocol/CmdProtocol.c **** // Description		: å¼€é—¨ä¿¡æ¯ä¸ŠæŠ¥åˆ°æœåŠ¡å™¨æŒ‡ä»¤ï¼ˆæ™ºèƒ½é—¨ç¦â†’æœåŠ¡å™¨ï¼‰
1018:Code\UserApp\Protocol/CmdProtocol.c **** // Parameter		: uint8* RecBuf	å‘½ä»¤åŒ…æŒ‡é’ˆ
ARM GAS  C:\Users\Administrator\AppData\Local\Temp\ccX9Bf8z.s 			page 22


1019:Code\UserApp\Protocol/CmdProtocol.c **** // Return			: none
1020:Code\UserApp\Protocol/CmdProtocol.c **** //-------------------------------------------------------------------------------------------------
1021:Code\UserApp\Protocol/CmdProtocol.c **** // Info				: 0x07å‘½ä»¤ï¼ŒæœåŠ¡å™¨åº”ç­”
1022:Code\UserApp\Protocol/CmdProtocol.c **** //*************************************************************************************************
1023:Code\UserApp\Protocol/CmdProtocol.c **** static void Protocol_CmdSendOpenInfo(uint8* RecBuf)
1024:Code\UserApp\Protocol/CmdProtocol.c **** {
 166              		.loc 1 1024 0
 167              		.cfi_startproc
 168              	.LVL18:
 169 0000 13B5     		push	{r0, r1, r4, lr}
 170              		.cfi_def_cfa_offset 16
 171              		.cfi_offset 0, -16
 172              		.cfi_offset 1, -12
 173              		.cfi_offset 4, -8
 174              		.cfi_offset 14, -4
1025:Code\UserApp\Protocol/CmdProtocol.c **** 	//===ã€å¼€å§‹ã€‘=== è®¾å¤‡å±‚çš„å¤„ç† ==========================================================
1026:Code\UserApp\Protocol/CmdProtocol.c **** 	uint8 opentime[4] = {0};
1027:Code\UserApp\Protocol/CmdProtocol.c **** 	uint8 pTime[4] = {0};
1028:Code\UserApp\Protocol/CmdProtocol.c **** 	uint8 ret_code = 0;
1029:Code\UserApp\Protocol/CmdProtocol.c **** 	
1030:Code\UserApp\Protocol/CmdProtocol.c **** 	memcpy(opentime, RecBuf + 22, 4);								// å¼€é—¨æ—¶é—´							//
 175              		.loc 1 1030 0
 176 0002 011C     		mov	r1, r0
1024:Code\UserApp\Protocol/CmdProtocol.c **** 	//===ã€å¼€å§‹ã€‘=== è®¾å¤‡å±‚çš„å¤„ç† ==========================================================
 177              		.loc 1 1024 0
 178 0004 041C     		mov	r4, r0
 179              		.loc 1 1030 0
 180 0006 1631     		add	r1, r1, #22
 181 0008 0422     		mov	r2, #4
 182 000a 6846     		mov	r0, sp
 183              	.LVL19:
 184 000c FFF7FEFF 		bl	memcpy
 185              	.LVL20:
1031:Code\UserApp\Protocol/CmdProtocol.c **** 	memcpy(pTime, RecBuf + 26, 4);									// æ—¶é—´æˆ³ -- è®°ä½œå‘é€æ—¶é—´ 			//
 186              		.loc 1 1031 0
 187 0010 211C     		mov	r1, r4
 188 0012 01A8     		add	r0, sp, #4
 189 0014 1A31     		add	r1, r1, #26
 190 0016 0422     		mov	r2, #4
 191 0018 FFF7FEFF 		bl	memcpy
 192              	.LVL21:
1032:Code\UserApp\Protocol/CmdProtocol.c **** 	ret_code =  RecBuf[30];											// ç»“æœç 							//
1033:Code\UserApp\Protocol/CmdProtocol.c **** 	
1034:Code\UserApp\Protocol/CmdProtocol.c **** 	if(ret_code == 0x01)
 193              		.loc 1 1034 0
 194 001c A37F     		ldrb	r3, [r4, #30]
 195 001e 012B     		cmp	r3, #1
 196 0020 03D1     		bne	.L5
1035:Code\UserApp\Protocol/CmdProtocol.c **** 		FindAndSet_UploadTime_UploadFlag(opentime, pTime);
 197              		.loc 1 1035 0
 198 0022 6846     		mov	r0, sp
 199 0024 01A9     		add	r1, sp, #4
 200 0026 FFF7FEFF 		bl	FindAndSet_UploadTime_UploadFlag
 201              	.LVL22:
 202              	.L5:
1036:Code\UserApp\Protocol/CmdProtocol.c **** 	else
1037:Code\UserApp\Protocol/CmdProtocol.c **** 	{	
ARM GAS  C:\Users\Administrator\AppData\Local\Temp\ccX9Bf8z.s 			page 23


1038:Code\UserApp\Protocol/CmdProtocol.c **** 		//Fail_openinfo
1039:Code\UserApp\Protocol/CmdProtocol.c **** 		DBG_SOFT_PutStr("\r\n 07 reponse err:\r\n");
1040:Code\UserApp\Protocol/CmdProtocol.c **** 		DBG_SOFT_PrintfHex(&ret_code,1,16);		
1041:Code\UserApp\Protocol/CmdProtocol.c **** 	}	
1042:Code\UserApp\Protocol/CmdProtocol.c **** 	//===ã€ç»“æŸã€‘=== è®¾å¤‡å±‚çš„å¤„ç† ==========================================================
1043:Code\UserApp\Protocol/CmdProtocol.c **** 	
1044:Code\UserApp\Protocol/CmdProtocol.c **** 	#if DBG_SOFT_ENNABLE
1045:Code\UserApp\Protocol/CmdProtocol.c **** 	test_Flash();
1046:Code\UserApp\Protocol/CmdProtocol.c **** 	#endif
1047:Code\UserApp\Protocol/CmdProtocol.c **** 	
1048:Code\UserApp\Protocol/CmdProtocol.c **** 	next_allupload_time = (uint32)RTC_GetUnixTime(); 				// æ¢å¤å»¶æ—¶ä¸ŠæŠ¥çš„æ—¶å»¶				//
 203              		.loc 1 1048 0
 204 002a FFF7FEFF 		bl	RTC_GetUnixTime
 205              	.LVL23:
 206 002e 014B     		ldr	r3, .L7
1049:Code\UserApp\Protocol/CmdProtocol.c **** 	
1050:Code\UserApp\Protocol/CmdProtocol.c **** 	DBG_PRINTF("leaving %s\n", __FUNCTION__);
1051:Code\UserApp\Protocol/CmdProtocol.c **** } 
 207              		.loc 1 1051 0
 208              		@ sp needed
1048:Code\UserApp\Protocol/CmdProtocol.c **** 	
 209              		.loc 1 1048 0
 210 0030 1860     		str	r0, [r3]
 211              	.LVL24:
 212              		.loc 1 1051 0
 213 0032 13BD     		pop	{r0, r1, r4, pc}
 214              	.L8:
 215              		.align	2
 216              	.L7:
 217 0034 00000000 		.word	next_allupload_time
 218              		.cfi_endproc
 219              	.LFE79:
 220              		.size	Protocol_CmdSendOpenInfo, .-Protocol_CmdSendOpenInfo
 221              		.section	.text.Protocol_CmdTimeCheck,"ax",%progbits
 222              		.align	1
 223              		.code	16
 224              		.thumb_func
 225              		.type	Protocol_CmdTimeCheck, %function
 226              	Protocol_CmdTimeCheck:
 227              	.LFB82:
1052:Code\UserApp\Protocol/CmdProtocol.c **** 
1053:Code\UserApp\Protocol/CmdProtocol.c **** //*************************************************************************************************
1054:Code\UserApp\Protocol/CmdProtocol.c **** // Function name	: Protocol_CmdPluse
1055:Code\UserApp\Protocol/CmdProtocol.c **** // Description		: å¿ƒè·³åŒ…ç»™æœåŠ¡å™¨ï¼ˆæ™ºèƒ½é—¨ç¦â†’æœåŠ¡å™¨ï¼‰
1056:Code\UserApp\Protocol/CmdProtocol.c **** // Parameter		: uint8* RecBuf	å‘½ä»¤åŒ…æŒ‡é’ˆ
1057:Code\UserApp\Protocol/CmdProtocol.c **** // Return			: none
1058:Code\UserApp\Protocol/CmdProtocol.c **** //-------------------------------------------------------------------------------------------------
1059:Code\UserApp\Protocol/CmdProtocol.c **** // Info				: 0x08å‘½ä»¤ï¼ŒæœåŠ¡å™¨åº”ç­”
1060:Code\UserApp\Protocol/CmdProtocol.c **** //*************************************************************************************************
1061:Code\UserApp\Protocol/CmdProtocol.c **** static void Protocol_CmdPluse(uint8* RecBuf)
1062:Code\UserApp\Protocol/CmdProtocol.c **** {
1063:Code\UserApp\Protocol/CmdProtocol.c **** 	uint8 ret;
1064:Code\UserApp\Protocol/CmdProtocol.c **** 	uint8 *pstr = RecBuf;
1065:Code\UserApp\Protocol/CmdProtocol.c **** 	uint8 arr_adjtime[4] = {0};
1066:Code\UserApp\Protocol/CmdProtocol.c **** 	uint16 nCmdPackLen = (RecBuf[2] << 8) + RecBuf[3] + 4;
1067:Code\UserApp\Protocol/CmdProtocol.c **** 	
1068:Code\UserApp\Protocol/CmdProtocol.c **** 	//===ã€å¼€å§‹ã€‘=== è®¾å¤‡å±‚çš„å¤„ç† ==========================================================
ARM GAS  C:\Users\Administrator\AppData\Local\Temp\ccX9Bf8z.s 			page 24


1069:Code\UserApp\Protocol/CmdProtocol.c **** 	heartbeat_SendCount = 0;										// æ”¶åˆ°ï¼Œé”™è¯¯æ¬¡æ•°æ¸…é›¶				//
1070:Code\UserApp\Protocol/CmdProtocol.c **** 	ret = *(pstr + nCmdPackLen - 3);
1071:Code\UserApp\Protocol/CmdProtocol.c **** 	if (ret == RT_SUCC)
1072:Code\UserApp\Protocol/CmdProtocol.c **** 	{
1073:Code\UserApp\Protocol/CmdProtocol.c **** 		pstr += 17;
1074:Code\UserApp\Protocol/CmdProtocol.c **** 		memcpy(arr_adjtime, pstr, 4);
1075:Code\UserApp\Protocol/CmdProtocol.c **** 		SetSysRTCTime(arr_adjtime);
1076:Code\UserApp\Protocol/CmdProtocol.c **** 		cur_time = (uint32)RTC_GetUnixTime();						// æ›´æ–°æ—¶é—´							//
1077:Code\UserApp\Protocol/CmdProtocol.c **** 		next_heartbeat_time = cur_time + 300;
1078:Code\UserApp\Protocol/CmdProtocol.c **** 	}
1079:Code\UserApp\Protocol/CmdProtocol.c **** 	Updatealarm_check();
1080:Code\UserApp\Protocol/CmdProtocol.c **** 	
1081:Code\UserApp\Protocol/CmdProtocol.c **** 	//===ã€ç»“æŸã€‘=== è®¾å¤‡å±‚çš„å¤„ç† ==========================================================
1082:Code\UserApp\Protocol/CmdProtocol.c **** 	
1083:Code\UserApp\Protocol/CmdProtocol.c **** 	
1084:Code\UserApp\Protocol/CmdProtocol.c **** 	DBG_PRINTF("leaving %s\n", __FUNCTION__);
1085:Code\UserApp\Protocol/CmdProtocol.c **** }  
1086:Code\UserApp\Protocol/CmdProtocol.c **** 
1087:Code\UserApp\Protocol/CmdProtocol.c **** //*************************************************************************************************
1088:Code\UserApp\Protocol/CmdProtocol.c **** // Function name	: Protocol_CmdClearUID
1089:Code\UserApp\Protocol/CmdProtocol.c **** // Description		: æ¸…ç©ºæ™ºèƒ½é—¨ç¦æ‰€æœ‰UID å’Œæœ‰æ•ˆæœŸæŒ‡ä»¤
1090:Code\UserApp\Protocol/CmdProtocol.c **** // Parameter		: uint8* RecBuf	å‘½ä»¤åŒ…æŒ‡é’ˆ
1091:Code\UserApp\Protocol/CmdProtocol.c **** // Return			: none
1092:Code\UserApp\Protocol/CmdProtocol.c **** //-------------------------------------------------------------------------------------------------
1093:Code\UserApp\Protocol/CmdProtocol.c **** // Info				: 0x09å‘½ä»¤ï¼ŒæœåŠ¡å™¨å‘é€
1094:Code\UserApp\Protocol/CmdProtocol.c **** //*************************************************************************************************
1095:Code\UserApp\Protocol/CmdProtocol.c **** static void Protocol_CmdClearUID(uint8* RecBuf)
1096:Code\UserApp\Protocol/CmdProtocol.c **** {
1097:Code\UserApp\Protocol/CmdProtocol.c **** 	uint8 RetCode = RT_SUCC;
1098:Code\UserApp\Protocol/CmdProtocol.c **** 	uint8 DataBuf[64];
1099:Code\UserApp\Protocol/CmdProtocol.c **** 	uint8 *pT = DataBuf;
1100:Code\UserApp\Protocol/CmdProtocol.c **** 	uint8 comm_chanle = RecBuf[4];								// å–å‡ºä¿¡é“å€¼							//
1101:Code\UserApp\Protocol/CmdProtocol.c **** 		 
1102:Code\UserApp\Protocol/CmdProtocol.c **** 	memset(pT, 0, sizeof(DataBuf));
1103:Code\UserApp\Protocol/CmdProtocol.c **** 	memcpy(pT, RecBuf + 7, 10);									// å–å‡ºMACåœ°å€å’Œæ—¶é—´æˆ³					//
1104:Code\UserApp\Protocol/CmdProtocol.c **** 	pT += 10;
1105:Code\UserApp\Protocol/CmdProtocol.c **** 
1106:Code\UserApp\Protocol/CmdProtocol.c **** 	//===ã€å¼€å§‹ã€‘=== è®¾å¤‡å±‚çš„å¤„ç† ==========================================================
1107:Code\UserApp\Protocol/CmdProtocol.c **** 	if (TRUE == UserData_CLR_User())
1108:Code\UserApp\Protocol/CmdProtocol.c **** 	{
1109:Code\UserApp\Protocol/CmdProtocol.c **** 		RetCode = RT_SUCC;
1110:Code\UserApp\Protocol/CmdProtocol.c **** 		VoicePlay((uint8)Sound_EMPTY_SUCCESS);
1111:Code\UserApp\Protocol/CmdProtocol.c **** 	}
1112:Code\UserApp\Protocol/CmdProtocol.c **** 	else
1113:Code\UserApp\Protocol/CmdProtocol.c **** 	{
1114:Code\UserApp\Protocol/CmdProtocol.c **** 		RetCode = RT_FAIL;
1115:Code\UserApp\Protocol/CmdProtocol.c **** 		VoicePlay((uint8)Sound_EMPTY_FAILURE);
1116:Code\UserApp\Protocol/CmdProtocol.c **** 	}
1117:Code\UserApp\Protocol/CmdProtocol.c **** 	//===ã€ç»“æŸã€‘=== è®¾å¤‡å±‚çš„å¤„ç† ==========================================================
1118:Code\UserApp\Protocol/CmdProtocol.c **** 
1119:Code\UserApp\Protocol/CmdProtocol.c **** 	*pT = RetCode;
1120:Code\UserApp\Protocol/CmdProtocol.c **** 	Protocol_SendAckPacket(comm_chanle, PACK_RESP, RecBuf[6], DataBuf, 11);
1121:Code\UserApp\Protocol/CmdProtocol.c **** 	
1122:Code\UserApp\Protocol/CmdProtocol.c **** 	#if DBG_SOFT_ENNABLE
1123:Code\UserApp\Protocol/CmdProtocol.c **** 	Clear_AllOPeninfo();
1124:Code\UserApp\Protocol/CmdProtocol.c **** 	#endif
1125:Code\UserApp\Protocol/CmdProtocol.c **** 	
ARM GAS  C:\Users\Administrator\AppData\Local\Temp\ccX9Bf8z.s 			page 25


1126:Code\UserApp\Protocol/CmdProtocol.c **** 	DBG_PRINTF("leaving %s\n", __FUNCTION__);
1127:Code\UserApp\Protocol/CmdProtocol.c **** }  
1128:Code\UserApp\Protocol/CmdProtocol.c **** 
1129:Code\UserApp\Protocol/CmdProtocol.c **** //*************************************************************************************************
1130:Code\UserApp\Protocol/CmdProtocol.c **** // Function name	: Protocol_CmdTimeCheck
1131:Code\UserApp\Protocol/CmdProtocol.c **** // Description		: æ—¶é—´æ ¡å‡†è¯·æ±‚ï¼ˆæ™ºèƒ½é—¨ç¦â†’æœåŠ¡å™¨ï¼‰
1132:Code\UserApp\Protocol/CmdProtocol.c **** // Parameter		: uint8* RecBuf	å‘½ä»¤åŒ…æŒ‡é’ˆ
1133:Code\UserApp\Protocol/CmdProtocol.c **** // Return			: none
1134:Code\UserApp\Protocol/CmdProtocol.c **** //-------------------------------------------------------------------------------------------------
1135:Code\UserApp\Protocol/CmdProtocol.c **** // Info				: 0x0Aå‘½ä»¤ï¼ŒæœåŠ¡å™¨åº”ç­”
1136:Code\UserApp\Protocol/CmdProtocol.c **** //*************************************************************************************************
1137:Code\UserApp\Protocol/CmdProtocol.c **** static void Protocol_CmdTimeCheck(uint8* RecBuf)
1138:Code\UserApp\Protocol/CmdProtocol.c **** {	
 228              		.loc 1 1138 0
 229              		.cfi_startproc
 230              	.LVL25:
 231 0000 07B5     		push	{r0, r1, r2, lr}
 232              		.cfi_def_cfa_offset 16
 233              		.cfi_offset 0, -16
 234              		.cfi_offset 1, -12
 235              		.cfi_offset 2, -8
 236              		.cfi_offset 14, -4
1139:Code\UserApp\Protocol/CmdProtocol.c **** 	uint8 *pstr = RecBuf;
1140:Code\UserApp\Protocol/CmdProtocol.c **** 	uint8 arr_adjtime[4] = {0};
1141:Code\UserApp\Protocol/CmdProtocol.c **** 	
1142:Code\UserApp\Protocol/CmdProtocol.c **** 	//===ã€å¼€å§‹ã€‘=== è®¾å¤‡å±‚çš„å¤„ç† ==========================================================
1143:Code\UserApp\Protocol/CmdProtocol.c **** 	pstr += 17;
1144:Code\UserApp\Protocol/CmdProtocol.c **** 	memcpy(arr_adjtime, pstr, 4);
 237              		.loc 1 1144 0
 238 0002 011C     		mov	r1, r0
 239 0004 0422     		mov	r2, #4
 240 0006 1131     		add	r1, r1, #17
 241              	.LVL26:
 242 0008 01A8     		add	r0, sp, #4
 243              	.LVL27:
 244 000a FFF7FEFF 		bl	memcpy
 245              	.LVL28:
1145:Code\UserApp\Protocol/CmdProtocol.c **** 	SetSysRTCTime(arr_adjtime);
 246              		.loc 1 1145 0
 247 000e 01A8     		add	r0, sp, #4
 248 0010 FFF7FEFF 		bl	SetSysRTCTime
 249              	.LVL29:
1146:Code\UserApp\Protocol/CmdProtocol.c **** 	cur_time = (uint32)RTC_GetUnixTime();
 250              		.loc 1 1146 0
 251 0014 FFF7FEFF 		bl	RTC_GetUnixTime
 252              	.LVL30:
 253 0018 014B     		ldr	r3, .L10
1147:Code\UserApp\Protocol/CmdProtocol.c **** 	//===ã€ç»“æŸã€‘=== è®¾å¤‡å±‚çš„å¤„ç† ==========================================================
1148:Code\UserApp\Protocol/CmdProtocol.c ****  
1149:Code\UserApp\Protocol/CmdProtocol.c **** 	DBG_PRINTF("leaving %s\n", __FUNCTION__);
1150:Code\UserApp\Protocol/CmdProtocol.c **** }  
 254              		.loc 1 1150 0
 255              		@ sp needed
1146:Code\UserApp\Protocol/CmdProtocol.c **** 	cur_time = (uint32)RTC_GetUnixTime();
 256              		.loc 1 1146 0
 257 001a 1860     		str	r0, [r3]
 258              		.loc 1 1150 0
ARM GAS  C:\Users\Administrator\AppData\Local\Temp\ccX9Bf8z.s 			page 26


 259 001c 07BD     		pop	{r0, r1, r2, pc}
 260              	.L11:
 261 001e C046     		.align	2
 262              	.L10:
 263 0020 00000000 		.word	cur_time
 264              		.cfi_endproc
 265              	.LFE82:
 266              		.size	Protocol_CmdTimeCheck, .-Protocol_CmdTimeCheck
 267              		.section	.text.Protocol_CmdPluse,"ax",%progbits
 268              		.align	1
 269              		.code	16
 270              		.thumb_func
 271              		.type	Protocol_CmdPluse, %function
 272              	Protocol_CmdPluse:
 273              	.LFB80:
1062:Code\UserApp\Protocol/CmdProtocol.c **** 	uint8 ret;
 274              		.loc 1 1062 0
 275              		.cfi_startproc
 276              	.LVL31:
 277 0000 07B5     		push	{r0, r1, r2, lr}
 278              		.cfi_def_cfa_offset 16
 279              		.cfi_offset 0, -16
 280              		.cfi_offset 1, -12
 281              		.cfi_offset 2, -8
 282              		.cfi_offset 14, -4
1065:Code\UserApp\Protocol/CmdProtocol.c **** 	uint16 nCmdPackLen = (RecBuf[2] << 8) + RecBuf[3] + 4;
 283              		.loc 1 1065 0
 284 0002 0021     		mov	r1, #0
1066:Code\UserApp\Protocol/CmdProtocol.c **** 	
 285              		.loc 1 1066 0
 286 0004 C378     		ldrb	r3, [r0, #3]
1065:Code\UserApp\Protocol/CmdProtocol.c **** 	uint16 nCmdPackLen = (RecBuf[2] << 8) + RecBuf[3] + 4;
 287              		.loc 1 1065 0
 288 0006 0191     		str	r1, [sp, #4]
 289 0008 1A1D     		add	r2, r3, #4
1066:Code\UserApp\Protocol/CmdProtocol.c **** 	
 290              		.loc 1 1066 0
 291 000a 8378     		ldrb	r3, [r0, #2]
 292 000c 1B02     		lsl	r3, r3, #8
 293 000e D318     		add	r3, r2, r3
 294 0010 9BB2     		uxth	r3, r3
 295              	.LVL32:
1069:Code\UserApp\Protocol/CmdProtocol.c **** 	ret = *(pstr + nCmdPackLen - 3);
 296              		.loc 1 1069 0
 297 0012 0D4A     		ldr	r2, .L14
1070:Code\UserApp\Protocol/CmdProtocol.c **** 	if (ret == RT_SUCC)
 298              		.loc 1 1070 0
 299 0014 C318     		add	r3, r0, r3
 300              	.LVL33:
1069:Code\UserApp\Protocol/CmdProtocol.c **** 	ret = *(pstr + nCmdPackLen - 3);
 301              		.loc 1 1069 0
 302 0016 1170     		strb	r1, [r2]
 303              	.LVL34:
1070:Code\UserApp\Protocol/CmdProtocol.c **** 	if (ret == RT_SUCC)
 304              		.loc 1 1070 0
 305 0018 033B     		sub	r3, r3, #3
1071:Code\UserApp\Protocol/CmdProtocol.c **** 	{
ARM GAS  C:\Users\Administrator\AppData\Local\Temp\ccX9Bf8z.s 			page 27


 306              		.loc 1 1071 0
 307 001a 1B78     		ldrb	r3, [r3]
 308 001c 012B     		cmp	r3, #1
 309 001e 10D1     		bne	.L13
 310              	.LVL35:
1074:Code\UserApp\Protocol/CmdProtocol.c **** 		SetSysRTCTime(arr_adjtime);
 311              		.loc 1 1074 0
 312 0020 011C     		mov	r1, r0
 313 0022 0422     		mov	r2, #4
 314 0024 1131     		add	r1, r1, #17
 315              	.LVL36:
 316 0026 01A8     		add	r0, sp, #4
 317              	.LVL37:
 318 0028 FFF7FEFF 		bl	memcpy
 319              	.LVL38:
1075:Code\UserApp\Protocol/CmdProtocol.c **** 		cur_time = (uint32)RTC_GetUnixTime();						// æ›´æ–°æ—¶é—´							//
 320              		.loc 1 1075 0
 321 002c 01A8     		add	r0, sp, #4
 322 002e FFF7FEFF 		bl	SetSysRTCTime
 323              	.LVL39:
1076:Code\UserApp\Protocol/CmdProtocol.c **** 		next_heartbeat_time = cur_time + 300;
 324              		.loc 1 1076 0
 325 0032 FFF7FEFF 		bl	RTC_GetUnixTime
 326              	.LVL40:
 327 0036 054B     		ldr	r3, .L14+4
 328 0038 1860     		str	r0, [r3]
1077:Code\UserApp\Protocol/CmdProtocol.c **** 	}
 329              		.loc 1 1077 0
 330 003a 2D30     		add	r0, r0, #45
 331 003c 044B     		ldr	r3, .L14+8
 332 003e FF30     		add	r0, r0, #255
 333 0040 1860     		str	r0, [r3]
 334              	.LVL41:
 335              	.L13:
1079:Code\UserApp\Protocol/CmdProtocol.c **** 	
 336              		.loc 1 1079 0
 337 0042 FFF7FEFF 		bl	Updatealarm_check
 338              	.LVL42:
1085:Code\UserApp\Protocol/CmdProtocol.c **** 
 339              		.loc 1 1085 0
 340              		@ sp needed
 341 0046 07BD     		pop	{r0, r1, r2, pc}
 342              	.L15:
 343              		.align	2
 344              	.L14:
 345 0048 00000000 		.word	heartbeat_SendCount
 346 004c 00000000 		.word	cur_time
 347 0050 00000000 		.word	next_heartbeat_time
 348              		.cfi_endproc
 349              	.LFE80:
 350              		.size	Protocol_CmdPluse, .-Protocol_CmdPluse
 351              		.section	.text.Protocol_CmdManufac,"ax",%progbits
 352              		.align	1
 353              		.code	16
 354              		.thumb_func
 355              		.type	Protocol_CmdManufac, %function
 356              	Protocol_CmdManufac:
ARM GAS  C:\Users\Administrator\AppData\Local\Temp\ccX9Bf8z.s 			page 28


 357              	.LFB89:
1151:Code\UserApp\Protocol/CmdProtocol.c **** 
1152:Code\UserApp\Protocol/CmdProtocol.c **** //*************************************************************************************************
1153:Code\UserApp\Protocol/CmdProtocol.c **** // Function name	: Protocol_CmdSendWarnInfo
1154:Code\UserApp\Protocol/CmdProtocol.c **** // Description		: æŠ¥è­¦ä¿¡æ¯ä¸ŠæŠ¥åˆ°æœåŠ¡å™¨æŒ‡ä»¤ï¼ˆæ™ºèƒ½é—¨ç¦â†’æœåŠ¡å™¨ï¼‰
1155:Code\UserApp\Protocol/CmdProtocol.c **** // Parameter		: uint8* RecBuf	å‘½ä»¤åŒ…æŒ‡é’ˆ
1156:Code\UserApp\Protocol/CmdProtocol.c **** // Return			: none
1157:Code\UserApp\Protocol/CmdProtocol.c **** //-------------------------------------------------------------------------------------------------
1158:Code\UserApp\Protocol/CmdProtocol.c **** // Info				: 0x0Bå‘½ä»¤ï¼ŒæœåŠ¡å™¨åº”ç­”
1159:Code\UserApp\Protocol/CmdProtocol.c **** //*************************************************************************************************
1160:Code\UserApp\Protocol/CmdProtocol.c **** static void Protocol_CmdSendWarnInfo(uint8* RecBuf)
1161:Code\UserApp\Protocol/CmdProtocol.c **** {
1162:Code\UserApp\Protocol/CmdProtocol.c **** 	uint8 *pstr = RecBuf;
1163:Code\UserApp\Protocol/CmdProtocol.c **** 	uint8 nCmdPackLen= (RecBuf[2] << 8) + RecBuf[3] + 4;
1164:Code\UserApp\Protocol/CmdProtocol.c **** 
1165:Code\UserApp\Protocol/CmdProtocol.c **** 	//===ã€å¼€å§‹ã€‘=== è®¾å¤‡å±‚çš„å¤„ç† ==========================================================
1166:Code\UserApp\Protocol/CmdProtocol.c **** 	//
1167:Code\UserApp\Protocol/CmdProtocol.c **** 	//æ£€æŸ¥æŠ¥è­¦çš„åº”ç­”åŒ…æ˜¯å¦æˆåŠŸ,å¦‚å¤±è´¥éœ€é‡æ–°ä¸ŠæŠ¥ï¼Œæš‚æ—¶ä¸åš
1168:Code\UserApp\Protocol/CmdProtocol.c **** 	//
1169:Code\UserApp\Protocol/CmdProtocol.c **** 	//===ã€å¼€å§‹ã€‘=== è®¾å¤‡å±‚çš„å¤„ç† ==========================================================
1170:Code\UserApp\Protocol/CmdProtocol.c **** 		
1171:Code\UserApp\Protocol/CmdProtocol.c **** 	DBG_PRINTF("leaving %s\n", __FUNCTION__);
1172:Code\UserApp\Protocol/CmdProtocol.c **** }  
1173:Code\UserApp\Protocol/CmdProtocol.c **** 
1174:Code\UserApp\Protocol/CmdProtocol.c **** //*************************************************************************************************
1175:Code\UserApp\Protocol/CmdProtocol.c **** // Function name	: Protocol_CmdReadInfo
1176:Code\UserApp\Protocol/CmdProtocol.c **** // Description		: è¯»å–ç»™å®šæ—¶é—´èŒƒå›´å†…å¼€é—¨æ—¥å¿—æŒ‡ä»¤
1177:Code\UserApp\Protocol/CmdProtocol.c **** // Parameter		: uint8* RecBuf	å‘½ä»¤åŒ…æŒ‡é’ˆ
1178:Code\UserApp\Protocol/CmdProtocol.c **** // Return			: none
1179:Code\UserApp\Protocol/CmdProtocol.c **** //-------------------------------------------------------------------------------------------------
1180:Code\UserApp\Protocol/CmdProtocol.c **** // Info				: 0x0Cå‘½ä»¤ï¼ŒæœåŠ¡å™¨å‘é€
1181:Code\UserApp\Protocol/CmdProtocol.c **** //uint16 UploadQty;
1182:Code\UserApp\Protocol/CmdProtocol.c **** //uint16 UploadStartnum;
1183:Code\UserApp\Protocol/CmdProtocol.c **** //*************************************************************************************************
1184:Code\UserApp\Protocol/CmdProtocol.c **** static void Protocol_CmdReadInfo(uint8* RecBuf)
1185:Code\UserApp\Protocol/CmdProtocol.c **** {
1186:Code\UserApp\Protocol/CmdProtocol.c **** 	uint8 i;
1187:Code\UserApp\Protocol/CmdProtocol.c **** 	uint8 RetCode = RT_SUCC;
1188:Code\UserApp\Protocol/CmdProtocol.c **** 	uint8 DataBuf[256];
1189:Code\UserApp\Protocol/CmdProtocol.c **** 	uint8 *pT = DataBuf;
1190:Code\UserApp\Protocol/CmdProtocol.c **** 	uint8 comm_chanle = RecBuf[4];								// å–å‡ºä¿¡é“å€¼							//
1191:Code\UserApp\Protocol/CmdProtocol.c **** 	uint8 data_openinfo[256];
1192:Code\UserApp\Protocol/CmdProtocol.c **** 	uint8  start_t[4];
1193:Code\UserApp\Protocol/CmdProtocol.c **** 	uint8  end_t[4];
1194:Code\UserApp\Protocol/CmdProtocol.c **** 	uint32 start_time;
1195:Code\UserApp\Protocol/CmdProtocol.c **** 	uint32 end_time;
1196:Code\UserApp\Protocol/CmdProtocol.c **** 	uint16 app_group = 0;
1197:Code\UserApp\Protocol/CmdProtocol.c **** 	uint16 nCmdPackLen = (RecBuf[2] << 8) + RecBuf[3] + 4;
1198:Code\UserApp\Protocol/CmdProtocol.c **** 	uint16 tUploadQty;											// å­˜æ”¾æœ¬æ¬¡å‘é€çš„é•¿åº¦					//
1199:Code\UserApp\Protocol/CmdProtocol.c **** 	uint8 cmd;
1200:Code\UserApp\Protocol/CmdProtocol.c **** 	
1201:Code\UserApp\Protocol/CmdProtocol.c ****     memset(pT, 0, sizeof(DataBuf));
1202:Code\UserApp\Protocol/CmdProtocol.c **** 	cmd = RecBuf[6];
1203:Code\UserApp\Protocol/CmdProtocol.c **** 	memcpy(pT, RecBuf + 7, 6);								// å–å‡ºMACåœ°å€å’Œæ—¶é—´æˆ³					//
1204:Code\UserApp\Protocol/CmdProtocol.c ****     pT += 6;
1205:Code\UserApp\Protocol/CmdProtocol.c **** 	
1206:Code\UserApp\Protocol/CmdProtocol.c **** 	//===ã€å¼€å§‹ã€‘=== è®¾å¤‡å±‚çš„å¤„ç† ==========================================================
ARM GAS  C:\Users\Administrator\AppData\Local\Temp\ccX9Bf8z.s 			page 29


1207:Code\UserApp\Protocol/CmdProtocol.c **** 	app_group = (RecBuf[21] << 8) + RecBuf[22];					// ç»„å·									//
1208:Code\UserApp\Protocol/CmdProtocol.c **** 	
1209:Code\UserApp\Protocol/CmdProtocol.c **** 	if (app_group == 1)
1210:Code\UserApp\Protocol/CmdProtocol.c **** 	{
1211:Code\UserApp\Protocol/CmdProtocol.c **** 		memcpy(start_t, RecBuf + 13, 4);           				// å–å§‹æœ«æ—¶é—´							//
1212:Code\UserApp\Protocol/CmdProtocol.c **** 		memcpy(end_t, RecBuf + 13 + 4, 4);
1213:Code\UserApp\Protocol/CmdProtocol.c **** 		start_time = BYTE2LONG(start_t[0], start_t[1], start_t[2], start_t[3]);
1214:Code\UserApp\Protocol/CmdProtocol.c **** 		end_time = BYTE2LONG(end_t[0], end_t[1], end_t[2], end_t[3]);
1215:Code\UserApp\Protocol/CmdProtocol.c **** 		
1216:Code\UserApp\Protocol/CmdProtocol.c **** 		if(start_time > end_time)
1217:Code\UserApp\Protocol/CmdProtocol.c **** 		{
1218:Code\UserApp\Protocol/CmdProtocol.c **** 			RetCode = RT_StartOrEnd_ERR;
1219:Code\UserApp\Protocol/CmdProtocol.c **** 		}
1220:Code\UserApp\Protocol/CmdProtocol.c **** 		
1221:Code\UserApp\Protocol/CmdProtocol.c **** 		UploadQty = Find_Open_ValidQty(start_time, end_time);
1222:Code\UserApp\Protocol/CmdProtocol.c **** 		if (UploadQty > 0)
1223:Code\UserApp\Protocol/CmdProtocol.c **** 		{
1224:Code\UserApp\Protocol/CmdProtocol.c **** 			UploadStartnum = Find_Open_StartNum(start_time);
1225:Code\UserApp\Protocol/CmdProtocol.c **** 		}
1226:Code\UserApp\Protocol/CmdProtocol.c **** 	}
1227:Code\UserApp\Protocol/CmdProtocol.c **** 	
1228:Code\UserApp\Protocol/CmdProtocol.c **** 	if (UploadQty <= OPENDATA_UPPAGE_LEN)
1229:Code\UserApp\Protocol/CmdProtocol.c **** 	{
1230:Code\UserApp\Protocol/CmdProtocol.c **** 		*pT++ = 0;												// ç»„å·									//
1231:Code\UserApp\Protocol/CmdProtocol.c **** 		*pT++ = 0;
1232:Code\UserApp\Protocol/CmdProtocol.c **** 		
1233:Code\UserApp\Protocol/CmdProtocol.c **** 		tUploadQty = UploadQty;
1234:Code\UserApp\Protocol/CmdProtocol.c **** 		memcpy(pT, &tUploadQty, 1);								// æœ¬æ¬¡å‘é€æ•°é‡							//
1235:Code\UserApp\Protocol/CmdProtocol.c **** 		pT += 1;
1236:Code\UserApp\Protocol/CmdProtocol.c **** 		
1237:Code\UserApp\Protocol/CmdProtocol.c **** 		for (i = 0; i < tUploadQty; i++)
1238:Code\UserApp\Protocol/CmdProtocol.c **** 		{
1239:Code\UserApp\Protocol/CmdProtocol.c **** 		    Get_Open_Info(UploadStartnum + i, 1, data_openinfo);
1240:Code\UserApp\Protocol/CmdProtocol.c **** 		    memcpy(pT, data_openinfo, 16);
1241:Code\UserApp\Protocol/CmdProtocol.c **** 		    pT += 16;
1242:Code\UserApp\Protocol/CmdProtocol.c **** 			*pT++ = Read_Open_Type(UploadStartnum + i);			// å¼€é—¨æ–¹å¼								//
1243:Code\UserApp\Protocol/CmdProtocol.c **** 		}
1244:Code\UserApp\Protocol/CmdProtocol.c **** 		UploadQty = 0;
1245:Code\UserApp\Protocol/CmdProtocol.c **** 		UploadStartnum = 0;
1246:Code\UserApp\Protocol/CmdProtocol.c **** 	}
1247:Code\UserApp\Protocol/CmdProtocol.c **** 	else
1248:Code\UserApp\Protocol/CmdProtocol.c **** 	{
1249:Code\UserApp\Protocol/CmdProtocol.c **** 		*pT++ = RecBuf[21];										// ç»„å·									//
1250:Code\UserApp\Protocol/CmdProtocol.c **** 		*pT++ = RecBuf[22];
1251:Code\UserApp\Protocol/CmdProtocol.c **** 		
1252:Code\UserApp\Protocol/CmdProtocol.c **** 		tUploadQty = OPENDATA_UPPAGE_LEN;
1253:Code\UserApp\Protocol/CmdProtocol.c **** 		*pT++ = OPENDATA_UPPAGE_LEN;							// æœ¬æ¬¡å‘é€æ•°é‡							//
1254:Code\UserApp\Protocol/CmdProtocol.c **** 		
1255:Code\UserApp\Protocol/CmdProtocol.c **** 		for (i = 0; i < OPENDATA_UPPAGE_LEN; i++)
1256:Code\UserApp\Protocol/CmdProtocol.c **** 		{
1257:Code\UserApp\Protocol/CmdProtocol.c **** 		    Get_Open_Info(UploadStartnum + i, 1, data_openinfo);
1258:Code\UserApp\Protocol/CmdProtocol.c **** 		    memcpy(pT, data_openinfo, 16);
1259:Code\UserApp\Protocol/CmdProtocol.c **** 		    pT += 16;
1260:Code\UserApp\Protocol/CmdProtocol.c **** 			*pT++ = Read_Open_Type(UploadStartnum + i);			// å¼€é—¨æ–¹å¼								//
1261:Code\UserApp\Protocol/CmdProtocol.c **** 		}
1262:Code\UserApp\Protocol/CmdProtocol.c **** 		UploadQty -= tUploadQty;
1263:Code\UserApp\Protocol/CmdProtocol.c **** 		UploadStartnum += tUploadQty;
ARM GAS  C:\Users\Administrator\AppData\Local\Temp\ccX9Bf8z.s 			page 30


1264:Code\UserApp\Protocol/CmdProtocol.c **** 	}
1265:Code\UserApp\Protocol/CmdProtocol.c **** 	
1266:Code\UserApp\Protocol/CmdProtocol.c **** 	memcpy(pT, RecBuf + nCmdPackLen - 6, 4);					// æ—¶é—´æˆ³								//
1267:Code\UserApp\Protocol/CmdProtocol.c **** 	pT += 4;        
1268:Code\UserApp\Protocol/CmdProtocol.c **** 
1269:Code\UserApp\Protocol/CmdProtocol.c **** 	*pT = RetCode;												// ç»“æœç 								//
1270:Code\UserApp\Protocol/CmdProtocol.c **** 	
1271:Code\UserApp\Protocol/CmdProtocol.c **** 	Protocol_SendAckPacket(comm_chanle, PACK_RESP, cmd, DataBuf, 14 + (tUploadQty * (1 + sizeof(open_d
1272:Code\UserApp\Protocol/CmdProtocol.c **** 	
1273:Code\UserApp\Protocol/CmdProtocol.c **** 	#if DBG_SOFT_ENNABLE
1274:Code\UserApp\Protocol/CmdProtocol.c **** 	test_Flash();
1275:Code\UserApp\Protocol/CmdProtocol.c **** 	#endif
1276:Code\UserApp\Protocol/CmdProtocol.c **** 	
1277:Code\UserApp\Protocol/CmdProtocol.c **** 	DBG_PRINTF("leaving %s\n", __FUNCTION__);
1278:Code\UserApp\Protocol/CmdProtocol.c **** }
1279:Code\UserApp\Protocol/CmdProtocol.c **** 
1280:Code\UserApp\Protocol/CmdProtocol.c **** //*************************************************************************************************
1281:Code\UserApp\Protocol/CmdProtocol.c **** // Function name	: Protocol_CmdRemoteUpdate
1282:Code\UserApp\Protocol/CmdProtocol.c **** // Description		: æœåŠ¡å™¨å‘æ™ºèƒ½é—¨ç¦å‘é€è¿œç¨‹å‡çº§æŒ‡ä»¤ï¼ˆæœåŠ¡å™¨â†’æ™ºèƒ½é—¨ç¦ï¼‰
1283:Code\UserApp\Protocol/CmdProtocol.c **** // Parameter		: uint8* RecBuf	å‘½ä»¤åŒ…æŒ‡é’ˆ
1284:Code\UserApp\Protocol/CmdProtocol.c **** // Return			: none
1285:Code\UserApp\Protocol/CmdProtocol.c **** //-------------------------------------------------------------------------------------------------
1286:Code\UserApp\Protocol/CmdProtocol.c **** // Info				: 0x0Då‘½ä»¤ï¼ŒæœåŠ¡å™¨å‘é€
1287:Code\UserApp\Protocol/CmdProtocol.c **** //*************************************************************************************************
1288:Code\UserApp\Protocol/CmdProtocol.c **** static void Protocol_CmdRemoteUpdate(uint8* RecBuf)
1289:Code\UserApp\Protocol/CmdProtocol.c **** {
1290:Code\UserApp\Protocol/CmdProtocol.c **** 	uint8 RetCode = RT_SUCC;
1291:Code\UserApp\Protocol/CmdProtocol.c **** 	uint8 DataBuf[64];
1292:Code\UserApp\Protocol/CmdProtocol.c **** 	uint8 *pT = DataBuf;
1293:Code\UserApp\Protocol/CmdProtocol.c **** 	uint8 comm_chanle = RecBuf[4];								// å–å‡ºä¿¡é“å€¼							//
1294:Code\UserApp\Protocol/CmdProtocol.c **** 	uint8 port_str[4];
1295:Code\UserApp\Protocol/CmdProtocol.c **** 	uint16 port_hex;
1296:Code\UserApp\Protocol/CmdProtocol.c **** 	
1297:Code\UserApp\Protocol/CmdProtocol.c **** 	memcpy(pT, RecBuf + 7, 6);									// å–å‡ºMACåœ°å€ï¼Œç†è®ºåº”åŠ ä¸ŠMACæ ¡éªŒ		//
1298:Code\UserApp\Protocol/CmdProtocol.c **** 	pT += 6;
1299:Code\UserApp\Protocol/CmdProtocol.c **** 	
1300:Code\UserApp\Protocol/CmdProtocol.c **** 	memcpy(domain, RecBuf + 13, 200);							// 200å­—èŠ‚IPæˆ–åŸŸå						//
1301:Code\UserApp\Protocol/CmdProtocol.c **** 	memcpy((char *)update_ip, (char *)domain, strlen((char *)domain));
1302:Code\UserApp\Protocol/CmdProtocol.c **** 	
1303:Code\UserApp\Protocol/CmdProtocol.c **** 	port_hex = (RecBuf[213] << 8) + RecBuf[214];				// ç«¯å£å·								//
1304:Code\UserApp\Protocol/CmdProtocol.c **** 	port_str[0]= port_hex/1000 + '0';
1305:Code\UserApp\Protocol/CmdProtocol.c **** 	port_str[1]= port_hex%1000/100 + '0';
1306:Code\UserApp\Protocol/CmdProtocol.c **** 	port_str[2]= port_hex%100/10 + '0';
1307:Code\UserApp\Protocol/CmdProtocol.c **** 	port_str[3]= port_hex%10 + '0';
1308:Code\UserApp\Protocol/CmdProtocol.c **** 	memcpy(update_port, port_str, 4);
1309:Code\UserApp\Protocol/CmdProtocol.c **** 	
1310:Code\UserApp\Protocol/CmdProtocol.c **** 	*pT++ = RecBuf[215];										// å‡çº§ç‰ˆæœ¬								//
1311:Code\UserApp\Protocol/CmdProtocol.c **** 	*pT++ = RecBuf[216];
1312:Code\UserApp\Protocol/CmdProtocol.c **** 	update_version = (RecBuf[215] << 8) + RecBuf[216];
1313:Code\UserApp\Protocol/CmdProtocol.c **** 	
1314:Code\UserApp\Protocol/CmdProtocol.c **** 	memcpy(pT, RecBuf + 219, 4);								// æ—¶é—´æˆ³								//
1315:Code\UserApp\Protocol/CmdProtocol.c **** 	pT += 4;
1316:Code\UserApp\Protocol/CmdProtocol.c **** 	
1317:Code\UserApp\Protocol/CmdProtocol.c **** 	if (update_version <= system_version)
1318:Code\UserApp\Protocol/CmdProtocol.c **** 	{
1319:Code\UserApp\Protocol/CmdProtocol.c **** 		RetCode = RT_NEWEST;
1320:Code\UserApp\Protocol/CmdProtocol.c **** 	}
ARM GAS  C:\Users\Administrator\AppData\Local\Temp\ccX9Bf8z.s 			page 31


1321:Code\UserApp\Protocol/CmdProtocol.c **** 	else
1322:Code\UserApp\Protocol/CmdProtocol.c **** 	{
1323:Code\UserApp\Protocol/CmdProtocol.c **** 		if (0 == strlen((char *)update_ip))
1324:Code\UserApp\Protocol/CmdProtocol.c **** 		{
1325:Code\UserApp\Protocol/CmdProtocol.c **** 			RetCode = RT_IPorPort_ERR;
1326:Code\UserApp\Protocol/CmdProtocol.c **** 		}
1327:Code\UserApp\Protocol/CmdProtocol.c **** 		else
1328:Code\UserApp\Protocol/CmdProtocol.c **** 		{
1329:Code\UserApp\Protocol/CmdProtocol.c **** 			//å­˜ä¸‹å¾…å‡çº§ç‰ˆæœ¬å·å’Œå‡çº§æ ‡å¿—ä½ é‡å¯çš„æ—¶å€™åˆ¤æ–­falg==1å’Œç³»ç»Ÿç‰ˆæœ¬å·å’Œå®
1330:Code\UserApp\Protocol/CmdProtocol.c **** 			update_flag = 1;
1331:Code\UserApp\Protocol/CmdProtocol.c **** 			Write_UpdateInfo(update_flag,update_version);
1332:Code\UserApp\Protocol/CmdProtocol.c **** 			RetCode = RT_SUCC;
1333:Code\UserApp\Protocol/CmdProtocol.c **** 		}
1334:Code\UserApp\Protocol/CmdProtocol.c **** 	}
1335:Code\UserApp\Protocol/CmdProtocol.c **** 	
1336:Code\UserApp\Protocol/CmdProtocol.c **** 	*pT++ = RetCode;
1337:Code\UserApp\Protocol/CmdProtocol.c **** 	Protocol_SendAckPacket(comm_chanle, PACK_RESP, RecBuf[6], DataBuf, 13);
1338:Code\UserApp\Protocol/CmdProtocol.c **** 	
1339:Code\UserApp\Protocol/CmdProtocol.c **** 	//===ã€å¼€å§‹ã€‘=== è®¾å¤‡å±‚çš„å¤„ç† ==========================================================
1340:Code\UserApp\Protocol/CmdProtocol.c **** 	
1341:Code\UserApp\Protocol/CmdProtocol.c **** 	//===ã€ç»“æŸã€‘=== è®¾å¤‡å±‚çš„å¤„ç† ==========================================================
1342:Code\UserApp\Protocol/CmdProtocol.c **** 
1343:Code\UserApp\Protocol/CmdProtocol.c **** 	
1344:Code\UserApp\Protocol/CmdProtocol.c **** 	DBG_PRINTF("leaving %s\n", __FUNCTION__);
1345:Code\UserApp\Protocol/CmdProtocol.c **** }  
1346:Code\UserApp\Protocol/CmdProtocol.c **** 
1347:Code\UserApp\Protocol/CmdProtocol.c **** //*************************************************************************************************
1348:Code\UserApp\Protocol/CmdProtocol.c **** // Function name	: Protocol_CmdRemoteRestart
1349:Code\UserApp\Protocol/CmdProtocol.c **** // Description		: æœåŠ¡å™¨å‘æ™ºèƒ½é—¨ç¦å‘é€è¿œç¨‹é‡å¯æŒ‡ä»¤ï¼ˆæœåŠ¡å™¨â†’æ™ºèƒ½é—¨ç¦ï¼‰
1350:Code\UserApp\Protocol/CmdProtocol.c **** // Parameter		: uint8* RecBuf	å‘½ä»¤åŒ…æŒ‡é’ˆ
1351:Code\UserApp\Protocol/CmdProtocol.c **** // Return			: none
1352:Code\UserApp\Protocol/CmdProtocol.c **** //-------------------------------------------------------------------------------------------------
1353:Code\UserApp\Protocol/CmdProtocol.c **** // Info				: 0x0Eå‘½ä»¤ï¼ŒæœåŠ¡å™¨å‘é€
1354:Code\UserApp\Protocol/CmdProtocol.c **** //*************************************************************************************************
1355:Code\UserApp\Protocol/CmdProtocol.c **** static void Protocol_CmdRemoteRestart(uint8* RecBuf)
1356:Code\UserApp\Protocol/CmdProtocol.c **** {
1357:Code\UserApp\Protocol/CmdProtocol.c ****     uint8 RetCode = RT_SUCC;
1358:Code\UserApp\Protocol/CmdProtocol.c ****     uint8 DataBuf[64];
1359:Code\UserApp\Protocol/CmdProtocol.c **** 	uint8 *pT = DataBuf;
1360:Code\UserApp\Protocol/CmdProtocol.c ****     uint8 comm_chanle = RecBuf[4];								// å–å‡ºä¿¡é“å€¼							//
1361:Code\UserApp\Protocol/CmdProtocol.c ****     uint16 nCmdPackLen;
1362:Code\UserApp\Protocol/CmdProtocol.c ****     
1363:Code\UserApp\Protocol/CmdProtocol.c ****     nCmdPackLen= (RecBuf[2] << 8) + RecBuf[3] + 4;
1364:Code\UserApp\Protocol/CmdProtocol.c **** 	 
1365:Code\UserApp\Protocol/CmdProtocol.c ****     memset(pT, 0, sizeof(DataBuf));
1366:Code\UserApp\Protocol/CmdProtocol.c ****     memcpy(pT, RecBuf + 7, 6);									// å–å‡ºMACåœ°å€ï¼Œç†è®ºåº”åŠ ä¸ŠMACæ ¡éªŒ		//
1367:Code\UserApp\Protocol/CmdProtocol.c ****     pT += 6; 
1368:Code\UserApp\Protocol/CmdProtocol.c ****     
1369:Code\UserApp\Protocol/CmdProtocol.c **** 	memcpy(pT, RecBuf + nCmdPackLen - 6, 4);					// æ—¶é—´æˆ³								//
1370:Code\UserApp\Protocol/CmdProtocol.c ****     pT += 4; 
1371:Code\UserApp\Protocol/CmdProtocol.c ****     
1372:Code\UserApp\Protocol/CmdProtocol.c **** 	*pT = RetCode;
1373:Code\UserApp\Protocol/CmdProtocol.c ****  
1374:Code\UserApp\Protocol/CmdProtocol.c **** 	//===ã€å¼€å§‹ã€‘=== è®¾å¤‡å±‚çš„å¤„ç† ==========================================================
1375:Code\UserApp\Protocol/CmdProtocol.c **** 	flag_reboot = 1;
1376:Code\UserApp\Protocol/CmdProtocol.c **** 	//===ã€ç»“æŸã€‘=== è®¾å¤‡å±‚çš„å¤„ç† ==========================================================
1377:Code\UserApp\Protocol/CmdProtocol.c **** 	
ARM GAS  C:\Users\Administrator\AppData\Local\Temp\ccX9Bf8z.s 			page 32


1378:Code\UserApp\Protocol/CmdProtocol.c **** 	Protocol_SendAckPacket(comm_chanle, PACK_RESP, RecBuf[6], DataBuf, 11);
1379:Code\UserApp\Protocol/CmdProtocol.c **** 	
1380:Code\UserApp\Protocol/CmdProtocol.c **** 	DBG_PRINTF("leaving %s\n", __FUNCTION__);
1381:Code\UserApp\Protocol/CmdProtocol.c **** } 
1382:Code\UserApp\Protocol/CmdProtocol.c **** 
1383:Code\UserApp\Protocol/CmdProtocol.c **** //*************************************************************************************************
1384:Code\UserApp\Protocol/CmdProtocol.c **** // Function name	: Protocol_CmdRemoteDownload
1385:Code\UserApp\Protocol/CmdProtocol.c **** // Description		: å¤–éƒ¨äº‘æœåŠ¡å™¨ä¸‹è½½å‡çº§åŒ…ï¼ˆæ™ºèƒ½é—¨ç¦ - æœåŠ¡å™¨ä»¶ï¼‰
1386:Code\UserApp\Protocol/CmdProtocol.c **** // Parameter		: uint8* RecBuf	å‘½ä»¤åŒ…æŒ‡é’ˆ
1387:Code\UserApp\Protocol/CmdProtocol.c **** // Return			: none
1388:Code\UserApp\Protocol/CmdProtocol.c **** //-------------------------------------------------------------------------------------------------
1389:Code\UserApp\Protocol/CmdProtocol.c **** // Info				: 0x0Få‘½ä»¤ï¼ŒæœåŠ¡å™¨åº”ç­”
1390:Code\UserApp\Protocol/CmdProtocol.c **** //-------------------------------------------------------------------------------------------------
1391:Code\UserApp\Protocol/CmdProtocol.c **** //					: 
1392:Code\UserApp\Protocol/CmdProtocol.c **** //*************************************************************************************************
1393:Code\UserApp\Protocol/CmdProtocol.c **** static void Protocol_CmdRemoteDownload(uint8* RecBuf)
1394:Code\UserApp\Protocol/CmdProtocol.c **** {
1395:Code\UserApp\Protocol/CmdProtocol.c **** 	uint8 ReadDataBuf[DATABUF_SIZE];
1396:Code\UserApp\Protocol/CmdProtocol.c **** 	uint8 data_size[4];
1397:Code\UserApp\Protocol/CmdProtocol.c **** 	uint16 recv_page;
1398:Code\UserApp\Protocol/CmdProtocol.c **** 	uint16 nCmdPackLen= (RecBuf[2] << 8) + RecBuf[3];
1399:Code\UserApp\Protocol/CmdProtocol.c **** 	uint16 curr_packet_len = nCmdPackLen - 18;					// å½“å‰å‡çº§æ•°æ®åŒ…å†…å®¹é•¿åº¦				//
1400:Code\UserApp\Protocol/CmdProtocol.c **** 	
1401:Code\UserApp\Protocol/CmdProtocol.c **** 	recv_page = (RecBuf[13] << 8) + RecBuf[14];					// è·å–ç»„å·å€¼							//
1402:Code\UserApp\Protocol/CmdProtocol.c **** 	
1403:Code\UserApp\Protocol/CmdProtocol.c **** 	DBG_SOFT_PutString("Protocol_CmdRemoteDownload-->recv_page:");
1404:Code\UserApp\Protocol/CmdProtocol.c **** 	DBG_SOFT_PutHexInt(recv_page);
1405:Code\UserApp\Protocol/CmdProtocol.c **** 	DBG_SOFT_PutString("\n");
1406:Code\UserApp\Protocol/CmdProtocol.c **** 	
1407:Code\UserApp\Protocol/CmdProtocol.c **** 	//===ã€å¼€å§‹ã€‘=== è®¾å¤‡å±‚çš„å¤„ç† ==========================================================
1408:Code\UserApp\Protocol/CmdProtocol.c **** 	if ((recv_page == update_page) || (recv_page == 0))
1409:Code\UserApp\Protocol/CmdProtocol.c **** 	{
1410:Code\UserApp\Protocol/CmdProtocol.c **** 		W25QXX_Write(RecBuf + 15, W25X_IMAGESTART_ADDR + update_offset, curr_packet_len);
1411:Code\UserApp\Protocol/CmdProtocol.c **** 		W25QXX_Read(ReadDataBuf, W25X_IMAGESTART_ADDR + update_offset, curr_packet_len);
1412:Code\UserApp\Protocol/CmdProtocol.c **** 		if (memcmp(RecBuf + 15, ReadDataBuf, curr_packet_len) == 0)
1413:Code\UserApp\Protocol/CmdProtocol.c **** 		{
1414:Code\UserApp\Protocol/CmdProtocol.c **** 			update_offset +=  curr_packet_len;
1415:Code\UserApp\Protocol/CmdProtocol.c **** 			if (recv_page != 0)
1416:Code\UserApp\Protocol/CmdProtocol.c **** 			{	
1417:Code\UserApp\Protocol/CmdProtocol.c **** 				update_page += 1;
1418:Code\UserApp\Protocol/CmdProtocol.c **** 				Image_size += curr_packet_len;
1419:Code\UserApp\Protocol/CmdProtocol.c **** 				send_update_req(update_page);
1420:Code\UserApp\Protocol/CmdProtocol.c **** 				update_timeout_time = 10000;
1421:Code\UserApp\Protocol/CmdProtocol.c **** 				update_timeout_count = 0;
1422:Code\UserApp\Protocol/CmdProtocol.c **** 			}
1423:Code\UserApp\Protocol/CmdProtocol.c **** 			else
1424:Code\UserApp\Protocol/CmdProtocol.c **** 			{
1425:Code\UserApp\Protocol/CmdProtocol.c **** 				Image_size += curr_packet_len;
1426:Code\UserApp\Protocol/CmdProtocol.c **** 				data_size[2] = (uint8)(update_offset >> 24);
1427:Code\UserApp\Protocol/CmdProtocol.c **** 				data_size[3] = (uint8)(update_offset >> 16);	// é«˜ä½åœ¨å[2-3]
1428:Code\UserApp\Protocol/CmdProtocol.c **** 				data_size[0] = (uint8)(update_offset >> 8);
1429:Code\UserApp\Protocol/CmdProtocol.c **** 				data_size[1] = (uint8)update_offset;
1430:Code\UserApp\Protocol/CmdProtocol.c **** 				
1431:Code\UserApp\Protocol/CmdProtocol.c **** 				W25QXX_Write(data_size, W25X_IMAGE_METDATA_ADDR, 4);
1432:Code\UserApp\Protocol/CmdProtocol.c **** 				gprs_state = UPDATE_FINISH;
1433:Code\UserApp\Protocol/CmdProtocol.c **** 			}
1434:Code\UserApp\Protocol/CmdProtocol.c **** 		}
ARM GAS  C:\Users\Administrator\AppData\Local\Temp\ccX9Bf8z.s 			page 33


1435:Code\UserApp\Protocol/CmdProtocol.c **** 		else
1436:Code\UserApp\Protocol/CmdProtocol.c **** 		{
1437:Code\UserApp\Protocol/CmdProtocol.c **** 			update_timeout_count++;
1438:Code\UserApp\Protocol/CmdProtocol.c **** 			if (update_timeout_count >= 3)
1439:Code\UserApp\Protocol/CmdProtocol.c **** 			{
1440:Code\UserApp\Protocol/CmdProtocol.c **** 				update_timeout_count = 0;
1441:Code\UserApp\Protocol/CmdProtocol.c **** 				gprs_state = NEED_INIT;
1442:Code\UserApp\Protocol/CmdProtocol.c **** 			}
1443:Code\UserApp\Protocol/CmdProtocol.c **** 			else
1444:Code\UserApp\Protocol/CmdProtocol.c **** 			{
1445:Code\UserApp\Protocol/CmdProtocol.c **** 				Cmd_Protocol_ParaInit();
1446:Code\UserApp\Protocol/CmdProtocol.c **** 				send_update_req(update_page);
1447:Code\UserApp\Protocol/CmdProtocol.c **** 				update_timeout_time = 10000;
1448:Code\UserApp\Protocol/CmdProtocol.c **** 			}
1449:Code\UserApp\Protocol/CmdProtocol.c **** 		}
1450:Code\UserApp\Protocol/CmdProtocol.c **** 	}
1451:Code\UserApp\Protocol/CmdProtocol.c **** 	else
1452:Code\UserApp\Protocol/CmdProtocol.c **** 	{
1453:Code\UserApp\Protocol/CmdProtocol.c **** 		update_timeout_count++;
1454:Code\UserApp\Protocol/CmdProtocol.c **** 		if (update_timeout_count >= 3)
1455:Code\UserApp\Protocol/CmdProtocol.c **** 		{
1456:Code\UserApp\Protocol/CmdProtocol.c **** 			update_timeout_count = 0;
1457:Code\UserApp\Protocol/CmdProtocol.c **** 			gprs_state = NEED_INIT;
1458:Code\UserApp\Protocol/CmdProtocol.c **** 		}
1459:Code\UserApp\Protocol/CmdProtocol.c **** 		else
1460:Code\UserApp\Protocol/CmdProtocol.c **** 		{
1461:Code\UserApp\Protocol/CmdProtocol.c **** 			Cmd_Protocol_ParaInit();
1462:Code\UserApp\Protocol/CmdProtocol.c **** 			send_update_req(update_page);
1463:Code\UserApp\Protocol/CmdProtocol.c **** 			update_timeout_time = 10000;
1464:Code\UserApp\Protocol/CmdProtocol.c **** 		}
1465:Code\UserApp\Protocol/CmdProtocol.c **** 	}
1466:Code\UserApp\Protocol/CmdProtocol.c **** 	//===ã€ç»“æŸã€‘=== è®¾å¤‡å±‚çš„å¤„ç† ==========================================================
1467:Code\UserApp\Protocol/CmdProtocol.c **** 	
1468:Code\UserApp\Protocol/CmdProtocol.c **** 	DBG_PRINTF("leaving %s\n", __FUNCTION__);
1469:Code\UserApp\Protocol/CmdProtocol.c **** }
1470:Code\UserApp\Protocol/CmdProtocol.c **** 
1471:Code\UserApp\Protocol/CmdProtocol.c **** //*************************************************************************************************
1472:Code\UserApp\Protocol/CmdProtocol.c **** // Function name	: Protocol_CmdChangeIP
1473:Code\UserApp\Protocol/CmdProtocol.c **** // Description		: æ›´æ”¹ä¸­å¿ƒæœåŠ¡å™¨åœ°å€ï¼ˆæœåŠ¡å™¨/APP - æ™ºèƒ½é—¨ç¦ï¼‰
1474:Code\UserApp\Protocol/CmdProtocol.c **** // Parameter		: uint8* RecBuf	å‘½ä»¤åŒ…æŒ‡é’ˆ
1475:Code\UserApp\Protocol/CmdProtocol.c **** // Return			: none
1476:Code\UserApp\Protocol/CmdProtocol.c **** //-------------------------------------------------------------------------------------------------
1477:Code\UserApp\Protocol/CmdProtocol.c **** // Info				: 0x10å‘½ä»¤ï¼ŒæœåŠ¡å™¨å‘é€
1478:Code\UserApp\Protocol/CmdProtocol.c **** //*************************************************************************************************
1479:Code\UserApp\Protocol/CmdProtocol.c **** static void Protocol_CmdChangeIP(uint8* RecBuf)
1480:Code\UserApp\Protocol/CmdProtocol.c **** {
1481:Code\UserApp\Protocol/CmdProtocol.c ****     uint8 RetCode = RT_SUCC;
1482:Code\UserApp\Protocol/CmdProtocol.c ****     uint8 DataBuf[64];
1483:Code\UserApp\Protocol/CmdProtocol.c **** 	uint8 *pT = DataBuf;
1484:Code\UserApp\Protocol/CmdProtocol.c ****     uint8 comm_chanle = RecBuf[4];                              // å–å‡ºä¿¡é“å€¼							//
1485:Code\UserApp\Protocol/CmdProtocol.c ****     uint16 nCmdPackLen;
1486:Code\UserApp\Protocol/CmdProtocol.c ****     uint8 IpNum;
1487:Code\UserApp\Protocol/CmdProtocol.c **** 	
1488:Code\UserApp\Protocol/CmdProtocol.c ****     nCmdPackLen= (RecBuf[2] << 8) + RecBuf[3] + 4;
1489:Code\UserApp\Protocol/CmdProtocol.c **** 	 
1490:Code\UserApp\Protocol/CmdProtocol.c ****     memset(pT, 0, sizeof(DataBuf));
1491:Code\UserApp\Protocol/CmdProtocol.c ****     memcpy(pT, RecBuf + 7, 6);									// å–å‡ºMACåœ°å€ï¼Œç†è®ºåº”åŠ ä¸ŠMACæ ¡éªŒ		//
ARM GAS  C:\Users\Administrator\AppData\Local\Temp\ccX9Bf8z.s 			page 34


1492:Code\UserApp\Protocol/CmdProtocol.c ****     pT += 6; 
1493:Code\UserApp\Protocol/CmdProtocol.c ****     
1494:Code\UserApp\Protocol/CmdProtocol.c **** 	*pT++ = RecBuf[13];
1495:Code\UserApp\Protocol/CmdProtocol.c **** 	IpNum = RecBuf[13];
1496:Code\UserApp\Protocol/CmdProtocol.c **** 	
1497:Code\UserApp\Protocol/CmdProtocol.c **** 	if ((IpNum == 0) || (IpNum > 5))
1498:Code\UserApp\Protocol/CmdProtocol.c **** 	{
1499:Code\UserApp\Protocol/CmdProtocol.c **** 		RetCode = RT_IP_NUM_ERR;
1500:Code\UserApp\Protocol/CmdProtocol.c **** 	}
1501:Code\UserApp\Protocol/CmdProtocol.c **** 	
1502:Code\UserApp\Protocol/CmdProtocol.c **** 	memcpy(pT, RecBuf + nCmdPackLen - 6, 4);					// æ—¶é—´æˆ³								//
1503:Code\UserApp\Protocol/CmdProtocol.c ****     pT += 4; 
1504:Code\UserApp\Protocol/CmdProtocol.c ****     
1505:Code\UserApp\Protocol/CmdProtocol.c **** 	*pT = RetCode;
1506:Code\UserApp\Protocol/CmdProtocol.c **** 	
1507:Code\UserApp\Protocol/CmdProtocol.c **** 	Protocol_SendAckPacket(comm_chanle, PACK_RESP, RecBuf[6], DataBuf, 12);
1508:Code\UserApp\Protocol/CmdProtocol.c **** 	
1509:Code\UserApp\Protocol/CmdProtocol.c **** 	//===ã€å¼€å§‹ã€‘=== è®¾å¤‡å±‚çš„å¤„ç† ==========================================================
1510:Code\UserApp\Protocol/CmdProtocol.c **** 	if (IpNum == 0x01)											 // æµ‹è¯•æœåŸŸå1							//
1511:Code\UserApp\Protocol/CmdProtocol.c **** 	{
1512:Code\UserApp\Protocol/CmdProtocol.c **** 		Write_CenterIpType(IpNum);
1513:Code\UserApp\Protocol/CmdProtocol.c **** 		VoicePlay(Sound_ShortDI);
1514:Code\UserApp\Protocol/CmdProtocol.c **** 	}
1515:Code\UserApp\Protocol/CmdProtocol.c **** 	else if (IpNum == 0x02)
1516:Code\UserApp\Protocol/CmdProtocol.c **** 	{
1517:Code\UserApp\Protocol/CmdProtocol.c **** 		VoicePlay(Sound_ShortDI);
1518:Code\UserApp\Protocol/CmdProtocol.c **** 		BeepPlay_Delay(300);
1519:Code\UserApp\Protocol/CmdProtocol.c **** 		VoicePlay(Sound_ShortDI);
1520:Code\UserApp\Protocol/CmdProtocol.c **** 	}
1521:Code\UserApp\Protocol/CmdProtocol.c **** 	else if (IpNum == 0x03)
1522:Code\UserApp\Protocol/CmdProtocol.c **** 	{
1523:Code\UserApp\Protocol/CmdProtocol.c **** 		VoicePlay(Sound_ShortDI);
1524:Code\UserApp\Protocol/CmdProtocol.c **** 		BeepPlay_Delay(300);
1525:Code\UserApp\Protocol/CmdProtocol.c **** 		VoicePlay(Sound_ShortDI);
1526:Code\UserApp\Protocol/CmdProtocol.c **** 		BeepPlay_Delay(300);
1527:Code\UserApp\Protocol/CmdProtocol.c **** 		VoicePlay(Sound_ShortDI);
1528:Code\UserApp\Protocol/CmdProtocol.c **** 	}
1529:Code\UserApp\Protocol/CmdProtocol.c **** 	else if (IpNum == 0x04)
1530:Code\UserApp\Protocol/CmdProtocol.c **** 	{
1531:Code\UserApp\Protocol/CmdProtocol.c **** 		VoicePlay(Sound_LongDI);
1532:Code\UserApp\Protocol/CmdProtocol.c **** 	}
1533:Code\UserApp\Protocol/CmdProtocol.c **** 	else if (IpNum == 0x05)										// æ­£å¼æœåŸŸå							//
1534:Code\UserApp\Protocol/CmdProtocol.c **** 	{
1535:Code\UserApp\Protocol/CmdProtocol.c **** 		Write_CenterIpType(IpNum);
1536:Code\UserApp\Protocol/CmdProtocol.c **** 		VoicePlay(Sound_LongDI);
1537:Code\UserApp\Protocol/CmdProtocol.c **** 		BeepPlay_Delay(300);
1538:Code\UserApp\Protocol/CmdProtocol.c **** 		VoicePlay(Sound_ShortDI);
1539:Code\UserApp\Protocol/CmdProtocol.c **** 	}
1540:Code\UserApp\Protocol/CmdProtocol.c **** 	
1541:Code\UserApp\Protocol/CmdProtocol.c **** 	flag_reboot = 1;
1542:Code\UserApp\Protocol/CmdProtocol.c **** 	//===ã€ç»“æŸã€‘=== è®¾å¤‡å±‚çš„å¤„ç† ==========================================================
1543:Code\UserApp\Protocol/CmdProtocol.c **** 	
1544:Code\UserApp\Protocol/CmdProtocol.c **** 	DBG_PRINTF("leaving %s\n", __FUNCTION__);
1545:Code\UserApp\Protocol/CmdProtocol.c **** }
1546:Code\UserApp\Protocol/CmdProtocol.c **** 
1547:Code\UserApp\Protocol/CmdProtocol.c **** 
1548:Code\UserApp\Protocol/CmdProtocol.c **** //*************************************************************************************************
ARM GAS  C:\Users\Administrator\AppData\Local\Temp\ccX9Bf8z.s 			page 35


1549:Code\UserApp\Protocol/CmdProtocol.c **** // Function name	: Protocol_CmdManufac
1550:Code\UserApp\Protocol/CmdProtocol.c **** // Description		: è“ç‰™çƒ§å†™è®¾å¤‡MACåŠŸèƒ½
1551:Code\UserApp\Protocol/CmdProtocol.c **** // Parameter		: uint8* RecBuf	å‘½ä»¤åŒ…æŒ‡é’ˆ
1552:Code\UserApp\Protocol/CmdProtocol.c **** // Return			: none
1553:Code\UserApp\Protocol/CmdProtocol.c **** //-------------------------------------------------------------------------------------------------
1554:Code\UserApp\Protocol/CmdProtocol.c **** // Info				: 0xF1å‘½ä»¤ï¼Œæ‰‹æœºå‘é€
1555:Code\UserApp\Protocol/CmdProtocol.c **** //*************************************************************************************************
1556:Code\UserApp\Protocol/CmdProtocol.c **** static void Protocol_CmdManufac(uint8* RecBuf)
1557:Code\UserApp\Protocol/CmdProtocol.c **** {
 358              		.loc 1 1557 0
 359              		.cfi_startproc
 360              	.LVL43:
 361 0000 F0B5     		push	{r4, r5, r6, r7, lr}
 362              		.cfi_def_cfa_offset 20
 363              		.cfi_offset 4, -20
 364              		.cfi_offset 5, -16
 365              		.cfi_offset 6, -12
 366              		.cfi_offset 7, -8
 367              		.cfi_offset 14, -4
1558:Code\UserApp\Protocol/CmdProtocol.c **** 	uint8 Newmac[6] = {0};
1559:Code\UserApp\Protocol/CmdProtocol.c **** 		//1.å–å‡ºmac å†™å…¥æœ¬åœ°flash
1560:Code\UserApp\Protocol/CmdProtocol.c **** 	memcpy(Newmac, RecBuf+13, 6);
 368              		.loc 1 1560 0
 369 0002 011C     		mov	r1, r0
 370 0004 0626     		mov	r6, #6
1557:Code\UserApp\Protocol/CmdProtocol.c **** 	uint8 Newmac[6] = {0};
 371              		.loc 1 1557 0
 372 0006 85B0     		sub	sp, sp, #20
 373              		.cfi_def_cfa_offset 40
 374              		.loc 1 1560 0
 375 0008 02AC     		add	r4, sp, #8
 376 000a 321C     		mov	r2, r6
 377 000c 0D31     		add	r1, r1, #13
 378 000e 201C     		mov	r0, r4
 379              	.LVL44:
 380 0010 FFF7FEFF 		bl	memcpy
 381              	.LVL45:
1561:Code\UserApp\Protocol/CmdProtocol.c **** 	uint8 flag = 0;
 382              		.loc 1 1561 0
 383 0014 6B46     		mov	r3, sp
 384 0016 DF1D     		add	r7, r3, #7
 385 0018 0023     		mov	r3, #0
1562:Code\UserApp\Protocol/CmdProtocol.c **** 	W25QXX_Read(&flag, MACFLAG_BASE, 1);
 386              		.loc 1 1562 0
 387 001a 381C     		mov	r0, r7
 388 001c 1149     		ldr	r1, .L17
 389 001e 0122     		mov	r2, #1
1561:Code\UserApp\Protocol/CmdProtocol.c **** 	uint8 flag = 0;
 390              		.loc 1 1561 0
 391 0020 3B70     		strb	r3, [r7]
 392              		.loc 1 1562 0
 393 0022 FFF7FEFF 		bl	W25QXX_Read
 394              	.LVL46:
1563:Code\UserApp\Protocol/CmdProtocol.c **** 	
1564:Code\UserApp\Protocol/CmdProtocol.c **** 	if(DEBUG_PRJ == 1)
1565:Code\UserApp\Protocol/CmdProtocol.c **** 	{	//2.æµ‹è¯•ç¨‹åº æ­£ç¡®åˆ™æ’­æ”¾é•¿éŸ³ å¯ä»¥é‡å¤å†™
1566:Code\UserApp\Protocol/CmdProtocol.c **** 		if((Newmac[0] = 0x06) && (Newmac[1] = 0x01))
ARM GAS  C:\Users\Administrator\AppData\Local\Temp\ccX9Bf8z.s 			page 36


1567:Code\UserApp\Protocol/CmdProtocol.c **** 		{
1568:Code\UserApp\Protocol/CmdProtocol.c **** 			
1569:Code\UserApp\Protocol/CmdProtocol.c **** 			flag = 1;
1570:Code\UserApp\Protocol/CmdProtocol.c **** 			W25QXX_Write(Newmac, MAC_BASE, (uint16)sizeof(Newmac));
 395              		.loc 1 1570 0
 396 0026 C921     		mov	r1, #201
1566:Code\UserApp\Protocol/CmdProtocol.c **** 		{
 397              		.loc 1 1566 0
 398 0028 0125     		mov	r5, #1
 399              		.loc 1 1570 0
 400 002a 201C     		mov	r0, r4
 401 002c 321C     		mov	r2, r6
 402 002e 4902     		lsl	r1, r1, #9
1566:Code\UserApp\Protocol/CmdProtocol.c **** 		{
 403              		.loc 1 1566 0
 404 0030 2670     		strb	r6, [r4]
 405 0032 6570     		strb	r5, [r4, #1]
1569:Code\UserApp\Protocol/CmdProtocol.c **** 			W25QXX_Write(Newmac, MAC_BASE, (uint16)sizeof(Newmac));
 406              		.loc 1 1569 0
 407 0034 3D70     		strb	r5, [r7]
 408              		.loc 1 1570 0
 409 0036 FFF7FEFF 		bl	W25QXX_Write
 410              	.LVL47:
1571:Code\UserApp\Protocol/CmdProtocol.c **** 			W25QXX_Write(&flag, MACFLAG_BASE, 1);
 411              		.loc 1 1571 0
 412 003a 2A1C     		mov	r2, r5
 413 003c 381C     		mov	r0, r7
 414 003e 0949     		ldr	r1, .L17
 415 0040 FFF7FEFF 		bl	W25QXX_Write
 416              	.LVL48:
1572:Code\UserApp\Protocol/CmdProtocol.c **** 			VoicePlay((uint8)Sound_REG_SUCCESS);	
 417              		.loc 1 1572 0
 418 0044 0420     		mov	r0, #4
 419 0046 FFF7FEFF 		bl	VoicePlay
 420              	.LVL49:
1573:Code\UserApp\Protocol/CmdProtocol.c **** 		}
1574:Code\UserApp\Protocol/CmdProtocol.c **** 		else
1575:Code\UserApp\Protocol/CmdProtocol.c **** 		{
1576:Code\UserApp\Protocol/CmdProtocol.c **** 			//3.é”™è¯¯åˆ™æ’­æŠ¥çŸ­éŸ³3å£°
1577:Code\UserApp\Protocol/CmdProtocol.c **** 			VoicePlay((uint8)Sound_VERIFY_FAILURE);
1578:Code\UserApp\Protocol/CmdProtocol.c **** 			
1579:Code\UserApp\Protocol/CmdProtocol.c **** 		}
1580:Code\UserApp\Protocol/CmdProtocol.c **** 	
1581:Code\UserApp\Protocol/CmdProtocol.c **** 	}
1582:Code\UserApp\Protocol/CmdProtocol.c **** 	
1583:Code\UserApp\Protocol/CmdProtocol.c **** 	else if(DEBUG_PRJ == 0)
1584:Code\UserApp\Protocol/CmdProtocol.c **** 	{	//2.å‡ºå‚ç¨‹åº åªèƒ½å†™ä¸€æ¬¡		
1585:Code\UserApp\Protocol/CmdProtocol.c **** 		if((Newmac[0] = 0x06) && (Newmac[1] = 0x01) && (flag != 1))
1586:Code\UserApp\Protocol/CmdProtocol.c **** 		{
1587:Code\UserApp\Protocol/CmdProtocol.c **** 			
1588:Code\UserApp\Protocol/CmdProtocol.c **** 			flag = 1;
1589:Code\UserApp\Protocol/CmdProtocol.c **** 			W25QXX_Write(Newmac, MAC_BASE, (uint16)sizeof(Newmac));
1590:Code\UserApp\Protocol/CmdProtocol.c **** 			W25QXX_Write(&flag, MACFLAG_BASE, 1);
1591:Code\UserApp\Protocol/CmdProtocol.c **** 			VoicePlay((uint8)Sound_REG_SUCCESS);	
1592:Code\UserApp\Protocol/CmdProtocol.c **** 		}
1593:Code\UserApp\Protocol/CmdProtocol.c **** 		else
1594:Code\UserApp\Protocol/CmdProtocol.c **** 		{
ARM GAS  C:\Users\Administrator\AppData\Local\Temp\ccX9Bf8z.s 			page 37


1595:Code\UserApp\Protocol/CmdProtocol.c **** 			//3.é”™è¯¯åˆ™æ’­æŠ¥çŸ­éŸ³3å£°
1596:Code\UserApp\Protocol/CmdProtocol.c **** 			VoicePlay((uint8)Sound_VERIFY_FAILURE);
1597:Code\UserApp\Protocol/CmdProtocol.c **** 		}
1598:Code\UserApp\Protocol/CmdProtocol.c **** 	}
1599:Code\UserApp\Protocol/CmdProtocol.c **** 	
1600:Code\UserApp\Protocol/CmdProtocol.c **** 	BleSend(Newmac, 6);											// è“ç‰™åº”ç­”
 421              		.loc 1 1600 0
 422 004a 311C     		mov	r1, r6
 423 004c 201C     		mov	r0, r4
 424 004e FFF7FEFF 		bl	BleSend
 425              	.LVL50:
1601:Code\UserApp\Protocol/CmdProtocol.c **** 	BeepPlay_Delay(1000);
 426              		.loc 1 1601 0
 427 0052 FA20     		mov	r0, #250
 428 0054 8000     		lsl	r0, r0, #2
 429 0056 FFF7FEFF 		bl	BeepPlay_Delay
 430              	.LVL51:
1602:Code\UserApp\Protocol/CmdProtocol.c **** 	flag_reboot = 1;	
 431              		.loc 1 1602 0
 432 005a 034B     		ldr	r3, .L17+4
 433 005c 1D70     		strb	r5, [r3]
1603:Code\UserApp\Protocol/CmdProtocol.c **** }
 434              		.loc 1 1603 0
 435 005e 05B0     		add	sp, sp, #20
 436              		@ sp needed
 437 0060 F0BD     		pop	{r4, r5, r6, r7, pc}
 438              	.L18:
 439 0062 C046     		.align	2
 440              	.L17:
 441 0064 06920100 		.word	102918
 442 0068 00000000 		.word	flag_reboot
 443              		.cfi_endproc
 444              	.LFE89:
 445              		.size	Protocol_CmdManufac, .-Protocol_CmdManufac
 446              		.section	.text.Endpoint_exchange,"ax",%progbits
 447              		.align	1
 448              		.global	Endpoint_exchange
 449              		.code	16
 450              		.thumb_func
 451              		.type	Endpoint_exchange, %function
 452              	Endpoint_exchange:
 453              	.LFB63:
  89:Code\UserApp\Protocol/CmdProtocol.c **** 	uint8 databuf[8] = {0};
 454              		.loc 1 89 0
 455              		.cfi_startproc
 456              	.LVL52:
  90:Code\UserApp\Protocol/CmdProtocol.c **** 
 457              		.loc 1 90 0
 458 0000 0023     		mov	r3, #0
  89:Code\UserApp\Protocol/CmdProtocol.c **** 	uint8 databuf[8] = {0};
 459              		.loc 1 89 0
 460 0002 13B5     		push	{r0, r1, r4, lr}
 461              		.cfi_def_cfa_offset 16
 462              		.cfi_offset 0, -16
 463              		.cfi_offset 1, -12
 464              		.cfi_offset 4, -8
 465              		.cfi_offset 14, -4
ARM GAS  C:\Users\Administrator\AppData\Local\Temp\ccX9Bf8z.s 			page 38


  90:Code\UserApp\Protocol/CmdProtocol.c **** 
 466              		.loc 1 90 0
 467 0004 0093     		str	r3, [sp]
 468 0006 0193     		str	r3, [sp, #4]
  96:Code\UserApp\Protocol/CmdProtocol.c **** 	 && card_data[6] == 0 && card_data[7] == 0) ||
 469              		.loc 1 96 0
 470 0008 0379     		ldrb	r3, [r0, #4]
 471 000a 002B     		cmp	r3, #0
 472 000c 08D1     		bne	.L20
  96:Code\UserApp\Protocol/CmdProtocol.c **** 	 && card_data[6] == 0 && card_data[7] == 0) ||
 473              		.loc 1 96 0 is_stmt 0 discriminator 1
 474 000e 4379     		ldrb	r3, [r0, #5]
 475 0010 002B     		cmp	r3, #0
 476 0012 05D1     		bne	.L20
  97:Code\UserApp\Protocol/CmdProtocol.c **** 	   (card_data[0] == 0 && card_data[1] == 0 
 477              		.loc 1 97 0 is_stmt 1
 478 0014 8379     		ldrb	r3, [r0, #6]
 479 0016 002B     		cmp	r3, #0
 480 0018 02D1     		bne	.L20
  97:Code\UserApp\Protocol/CmdProtocol.c **** 	   (card_data[0] == 0 && card_data[1] == 0 
 481              		.loc 1 97 0 is_stmt 0 discriminator 1
 482 001a C379     		ldrb	r3, [r0, #7]
 483 001c 002B     		cmp	r3, #0
 484 001e 0BD0     		beq	.L21
 485              	.L20:
  97:Code\UserApp\Protocol/CmdProtocol.c **** 	   (card_data[0] == 0 && card_data[1] == 0 
 486              		.loc 1 97 0 discriminator 3
 487 0020 0378     		ldrb	r3, [r0]
 488 0022 002B     		cmp	r3, #0
 489 0024 18D1     		bne	.L22
  98:Code\UserApp\Protocol/CmdProtocol.c **** 	 && card_data[2] == 0 && card_data[3] == 0))
 490              		.loc 1 98 0 is_stmt 1
 491 0026 4378     		ldrb	r3, [r0, #1]
 492 0028 002B     		cmp	r3, #0
 493 002a 15D1     		bne	.L22
  99:Code\UserApp\Protocol/CmdProtocol.c **** 	{
 494              		.loc 1 99 0
 495 002c 8378     		ldrb	r3, [r0, #2]
 496 002e 002B     		cmp	r3, #0
 497 0030 12D1     		bne	.L22
  99:Code\UserApp\Protocol/CmdProtocol.c **** 	{
 498              		.loc 1 99 0 is_stmt 0 discriminator 1
 499 0032 C378     		ldrb	r3, [r0, #3]
 500 0034 002B     		cmp	r3, #0
 501 0036 0FD1     		bne	.L22
 502              	.L21:
 503 0038 041C     		mov	r4, r0
 101:Code\UserApp\Protocol/CmdProtocol.c **** 		memcpy(databuf, card_data+4, 4);						// å4ä¸ªUIDæ‹·è´åˆ°å‰å››ä¸ª 
 504              		.loc 1 101 0 is_stmt 1
 505 003a 0422     		mov	r2, #4
 506 003c 211C     		mov	r1, r4
 507 003e 01A8     		add	r0, sp, #4
 508              	.LVL53:
 509 0040 FFF7FEFF 		bl	memcpy
 510              	.LVL54:
 102:Code\UserApp\Protocol/CmdProtocol.c **** 		
 511              		.loc 1 102 0
ARM GAS  C:\Users\Administrator\AppData\Local\Temp\ccX9Bf8z.s 			page 39


 512 0044 211D     		add	r1, r4, #4
 513 0046 0422     		mov	r2, #4
 514 0048 6846     		mov	r0, sp
 515 004a FFF7FEFF 		bl	memcpy
 516              	.LVL55:
 104:Code\UserApp\Protocol/CmdProtocol.c **** 	}
 517              		.loc 1 104 0
 518 004e 201C     		mov	r0, r4
 519 0050 6946     		mov	r1, sp
 520 0052 0822     		mov	r2, #8
 521 0054 FFF7FEFF 		bl	memcpy
 522              	.LVL56:
 523              	.L22:
 109:Code\UserApp\Protocol/CmdProtocol.c **** 
 524              		.loc 1 109 0
 525 0058 0020     		mov	r0, #0
 526              		@ sp needed
 527 005a 16BD     		pop	{r1, r2, r4, pc}
 528              		.cfi_endproc
 529              	.LFE63:
 530              		.size	Endpoint_exchange, .-Endpoint_exchange
 531              		.section	.text.Cmd_Protocol_ParaInit,"ax",%progbits
 532              		.align	1
 533              		.global	Cmd_Protocol_ParaInit
 534              		.code	16
 535              		.thumb_func
 536              		.type	Cmd_Protocol_ParaInit, %function
 537              	Cmd_Protocol_ParaInit:
 538              	.LFB64:
 122:Code\UserApp\Protocol/CmdProtocol.c **** 	RecvType = 0;
 539              		.loc 1 122 0
 540              		.cfi_startproc
 541 0000 38B5     		push	{r3, r4, r5, lr}
 542              		.cfi_def_cfa_offset 16
 543              		.cfi_offset 3, -16
 544              		.cfi_offset 4, -12
 545              		.cfi_offset 5, -8
 546              		.cfi_offset 14, -4
 123:Code\UserApp\Protocol/CmdProtocol.c **** 	Cmd_Baglen = 0;
 547              		.loc 1 123 0
 548 0002 0024     		mov	r4, #0
 549 0004 0E4B     		ldr	r3, .L27
 129:Code\UserApp\Protocol/CmdProtocol.c **** 	memset((char *)GPRSCmd_buf1, 0, sizeof(GPRSCmd_buf1));
 550              		.loc 1 129 0
 551 0006 0F4D     		ldr	r5, .L27+4
 123:Code\UserApp\Protocol/CmdProtocol.c **** 	Cmd_Baglen = 0;
 552              		.loc 1 123 0
 553 0008 1C70     		strb	r4, [r3]
 124:Code\UserApp\Protocol/CmdProtocol.c **** 	Cmd_Revsta = 0;
 554              		.loc 1 124 0
 555 000a 0F4B     		ldr	r3, .L27+8
 129:Code\UserApp\Protocol/CmdProtocol.c **** 	memset((char *)GPRSCmd_buf1, 0, sizeof(GPRSCmd_buf1));
 556              		.loc 1 129 0
 557 000c 2A1C     		mov	r2, r5
 124:Code\UserApp\Protocol/CmdProtocol.c **** 	Cmd_Revsta = 0;
 558              		.loc 1 124 0
 559 000e 1C80     		strh	r4, [r3]
ARM GAS  C:\Users\Administrator\AppData\Local\Temp\ccX9Bf8z.s 			page 40


 125:Code\UserApp\Protocol/CmdProtocol.c **** 	Cmd_index = 0;
 560              		.loc 1 125 0
 561 0010 0E4B     		ldr	r3, .L27+12
 129:Code\UserApp\Protocol/CmdProtocol.c **** 	memset((char *)GPRSCmd_buf1, 0, sizeof(GPRSCmd_buf1));
 562              		.loc 1 129 0
 563 0012 211C     		mov	r1, r4
 125:Code\UserApp\Protocol/CmdProtocol.c **** 	Cmd_index = 0;
 564              		.loc 1 125 0
 565 0014 1C70     		strb	r4, [r3]
 126:Code\UserApp\Protocol/CmdProtocol.c **** 	GPRSCmdParseFlag1 = RESET;
 566              		.loc 1 126 0
 567 0016 0E4B     		ldr	r3, .L27+16
 129:Code\UserApp\Protocol/CmdProtocol.c **** 	memset((char *)GPRSCmd_buf1, 0, sizeof(GPRSCmd_buf1));
 568              		.loc 1 129 0
 569 0018 0E48     		ldr	r0, .L27+20
 126:Code\UserApp\Protocol/CmdProtocol.c **** 	GPRSCmdParseFlag1 = RESET;
 570              		.loc 1 126 0
 571 001a 1C80     		strh	r4, [r3]
 127:Code\UserApp\Protocol/CmdProtocol.c **** 	GPRSCmdParseFlag2 = RESET;
 572              		.loc 1 127 0
 573 001c 0E4B     		ldr	r3, .L27+24
 132:Code\UserApp\Protocol/CmdProtocol.c **** 
 574              		.loc 1 132 0
 575              		@ sp needed
 127:Code\UserApp\Protocol/CmdProtocol.c **** 	GPRSCmdParseFlag2 = RESET;
 576              		.loc 1 127 0
 577 001e 1C70     		strb	r4, [r3]
 128:Code\UserApp\Protocol/CmdProtocol.c **** 	memset((char *)CmdRev_buf, 0, sizeof(CmdRev_buf));
 578              		.loc 1 128 0
 579 0020 0E4B     		ldr	r3, .L27+28
 580 0022 1C70     		strb	r4, [r3]
 129:Code\UserApp\Protocol/CmdProtocol.c **** 	memset((char *)GPRSCmd_buf1, 0, sizeof(GPRSCmd_buf1));
 581              		.loc 1 129 0
 582 0024 FFF7FEFF 		bl	memset
 583              	.LVL57:
 130:Code\UserApp\Protocol/CmdProtocol.c **** 	memset((char *)GPRSCmd_buf2, 0, sizeof(GPRSCmd_buf2));
 584              		.loc 1 130 0
 585 0028 2A1C     		mov	r2, r5
 586 002a 211C     		mov	r1, r4
 587 002c 0C48     		ldr	r0, .L27+32
 588 002e FFF7FEFF 		bl	memset
 589              	.LVL58:
 131:Code\UserApp\Protocol/CmdProtocol.c **** }
 590              		.loc 1 131 0
 591 0032 2A1C     		mov	r2, r5
 592 0034 211C     		mov	r1, r4
 593 0036 0B48     		ldr	r0, .L27+36
 594 0038 FFF7FEFF 		bl	memset
 595              	.LVL59:
 132:Code\UserApp\Protocol/CmdProtocol.c **** 
 596              		.loc 1 132 0
 597 003c 38BD     		pop	{r3, r4, r5, pc}
 598              	.L28:
 599 003e C046     		.align	2
 600              	.L27:
 601 0040 00000000 		.word	RecvType
 602 0044 1A040000 		.word	1050
ARM GAS  C:\Users\Administrator\AppData\Local\Temp\ccX9Bf8z.s 			page 41


 603 0048 00000000 		.word	Cmd_Baglen
 604 004c 00000000 		.word	Cmd_Revsta
 605 0050 00000000 		.word	Cmd_index
 606 0054 00000000 		.word	CmdRev_buf
 607 0058 00000000 		.word	GPRSCmdParseFlag1
 608 005c 00000000 		.word	GPRSCmdParseFlag2
 609 0060 00000000 		.word	GPRSCmd_buf1
 610 0064 00000000 		.word	GPRSCmd_buf2
 611              		.cfi_endproc
 612              	.LFE64:
 613              		.size	Cmd_Protocol_ParaInit, .-Cmd_Protocol_ParaInit
 614              		.section	.text.send_get_pre_service_ip,"ax",%progbits
 615              		.align	1
 616              		.global	send_get_pre_service_ip
 617              		.code	16
 618              		.thumb_func
 619              		.type	send_get_pre_service_ip, %function
 620              	send_get_pre_service_ip:
 621              	.LFB65:
 145:Code\UserApp\Protocol/CmdProtocol.c **** 	uint8 uart_buf[96];
 622              		.loc 1 145 0
 623              		.cfi_startproc
 624              	.LVL60:
 625 0000 00B5     		push	{lr}
 626              		.cfi_def_cfa_offset 4
 627              		.cfi_offset 14, -4
 628 0002 99B0     		sub	sp, sp, #100
 629              		.cfi_def_cfa_offset 104
 154:Code\UserApp\Protocol/CmdProtocol.c **** 	uart_buf[cnt++] = 0x3a;
 630              		.loc 1 154 0
 631 0004 6A46     		mov	r2, sp
 632 0006 EF23     		mov	r3, #239
 633 0008 1370     		strb	r3, [r2]
 634              	.LVL61:
 155:Code\UserApp\Protocol/CmdProtocol.c **** 	uart_buf[cnt++] = (pack_len >> 8) & 0xFF;					// åŒ…é•¿åº¦é«˜å­—èŠ‚							//
 635              		.loc 1 155 0
 636 000a B53B     		sub	r3, r3, #181
 637 000c 5370     		strb	r3, [r2, #1]
 638              	.LVL62:
 156:Code\UserApp\Protocol/CmdProtocol.c **** 	uart_buf[cnt++] = pack_len & 0xFF;							// åŒ…é•¿åº¦ä½å­—èŠ‚							//
 639              		.loc 1 156 0
 640 000e 0023     		mov	r3, #0
 157:Code\UserApp\Protocol/CmdProtocol.c **** 	uart_buf[cnt++] = 0x01;
 641              		.loc 1 157 0
 642 0010 6946     		mov	r1, sp
 156:Code\UserApp\Protocol/CmdProtocol.c **** 	uart_buf[cnt++] = pack_len & 0xFF;							// åŒ…é•¿åº¦ä½å­—èŠ‚							//
 643              		.loc 1 156 0
 644 0012 9370     		strb	r3, [r2, #2]
 645              	.LVL63:
 157:Code\UserApp\Protocol/CmdProtocol.c **** 	uart_buf[cnt++] = 0x01;
 646              		.loc 1 157 0
 647 0014 0F22     		mov	r2, #15
 648 0016 CA70     		strb	r2, [r1, #3]
 649              	.LVL64:
 158:Code\UserApp\Protocol/CmdProtocol.c **** 	uart_buf[cnt++] = 0x01;
 650              		.loc 1 158 0
 651 0018 0E3A     		sub	r2, r2, #14
ARM GAS  C:\Users\Administrator\AppData\Local\Temp\ccX9Bf8z.s 			page 42


 652 001a 0A71     		strb	r2, [r1, #4]
 653              	.LVL65:
 159:Code\UserApp\Protocol/CmdProtocol.c **** 	uart_buf[cnt++] = 0x01;
 654              		.loc 1 159 0
 655 001c 4A71     		strb	r2, [r1, #5]
 656              	.LVL66:
 160:Code\UserApp\Protocol/CmdProtocol.c **** 	
 657              		.loc 1 160 0
 658 001e 8A71     		strb	r2, [r1, #6]
 659              	.LVL67:
 660              	.L30:
 164:Code\UserApp\Protocol/CmdProtocol.c **** 	}
 661              		.loc 1 164 0 discriminator 3
 662 0020 134A     		ldr	r2, .L31
 663 0022 D15C     		ldrb	r1, [r2, r3]
 664 0024 1A1C     		mov	r2, r3
 665 0026 0133     		add	r3, r3, #1
 666              	.LVL68:
 667 0028 6A44     		add	r2, r2, sp
 668 002a D171     		strb	r1, [r2, #7]
 162:Code\UserApp\Protocol/CmdProtocol.c **** 	{
 669              		.loc 1 162 0 discriminator 3
 670 002c 062B     		cmp	r3, #6
 671 002e F7D1     		bne	.L30
 167:Code\UserApp\Protocol/CmdProtocol.c **** 	LONG2BYTE(time_tmp, time_arr);
 672              		.loc 1 167 0
 673 0030 FFF7FEFF 		bl	RTC_GetUnixTime
 674              	.LVL69:
 169:Code\UserApp\Protocol/CmdProtocol.c **** 	uart_buf[cnt++] = time_arr[1];
 675              		.loc 1 169 0
 676 0034 6A46     		mov	r2, sp
 168:Code\UserApp\Protocol/CmdProtocol.c **** 	uart_buf[cnt++] = time_arr[0];
 677              		.loc 1 168 0
 678 0036 030E     		lsr	r3, r0, #24
 169:Code\UserApp\Protocol/CmdProtocol.c **** 	uart_buf[cnt++] = time_arr[1];
 679              		.loc 1 169 0
 680 0038 5373     		strb	r3, [r2, #13]
 681              	.LVL70:
 168:Code\UserApp\Protocol/CmdProtocol.c **** 	uart_buf[cnt++] = time_arr[0];
 682              		.loc 1 168 0
 683 003a 030C     		lsr	r3, r0, #16
 170:Code\UserApp\Protocol/CmdProtocol.c **** 	uart_buf[cnt++] = time_arr[2];
 684              		.loc 1 170 0
 685 003c 9373     		strb	r3, [r2, #14]
 686              	.LVL71:
 172:Code\UserApp\Protocol/CmdProtocol.c **** 	
 687              		.loc 1 172 0
 688 003e 1074     		strb	r0, [r2, #16]
 168:Code\UserApp\Protocol/CmdProtocol.c **** 	uart_buf[cnt++] = time_arr[0];
 689              		.loc 1 168 0
 690 0040 030A     		lsr	r3, r0, #8
 174:Code\UserApp\Protocol/CmdProtocol.c **** 	uart_buf[cnt++] = (TempCrc >> 8) & 0xFF;
 691              		.loc 1 174 0
 692 0042 1121     		mov	r1, #17
 693 0044 6846     		mov	r0, sp
 694              	.LVL72:
 171:Code\UserApp\Protocol/CmdProtocol.c **** 	uart_buf[cnt++] = time_arr[3];
ARM GAS  C:\Users\Administrator\AppData\Local\Temp\ccX9Bf8z.s 			page 43


 695              		.loc 1 171 0
 696 0046 D373     		strb	r3, [r2, #15]
 697              	.LVL73:
 174:Code\UserApp\Protocol/CmdProtocol.c **** 	uart_buf[cnt++] = (TempCrc >> 8) & 0xFF;
 698              		.loc 1 174 0
 699 0048 FFF7FEFF 		bl	MyCrc16Check
 700              	.LVL74:
 175:Code\UserApp\Protocol/CmdProtocol.c **** 	uart_buf[cnt++] = TempCrc & 0xFF;
 701              		.loc 1 175 0
 702 004c 6A46     		mov	r2, sp
 703 004e 030A     		lsr	r3, r0, #8
 704 0050 5374     		strb	r3, [r2, #17]
 705              	.LVL75:
 176:Code\UserApp\Protocol/CmdProtocol.c **** 	
 706              		.loc 1 176 0
 707 0052 6B46     		mov	r3, sp
 178:Code\UserApp\Protocol/CmdProtocol.c **** 	return 0;
 708              		.loc 1 178 0
 709 0054 D178     		ldrb	r1, [r2, #3]
 176:Code\UserApp\Protocol/CmdProtocol.c **** 	
 710              		.loc 1 176 0
 711 0056 9074     		strb	r0, [r2, #18]
 712 0058 0A1D     		add	r2, r1, #4
 178:Code\UserApp\Protocol/CmdProtocol.c **** 	return 0;
 713              		.loc 1 178 0
 714 005a 9978     		ldrb	r1, [r3, #2]
 715 005c 6846     		mov	r0, sp
 716              	.LVL76:
 717 005e 0B02     		lsl	r3, r1, #8
 718 0060 D118     		add	r1, r2, r3
 719 0062 89B2     		uxth	r1, r1
 720 0064 FFF7FEFF 		bl	GPRS_SendHexDataToServer
 721              	.LVL77:
 180:Code\UserApp\Protocol/CmdProtocol.c **** 
 722              		.loc 1 180 0
 723 0068 0020     		mov	r0, #0
 724 006a 19B0     		add	sp, sp, #100
 725              		@ sp needed
 726 006c 00BD     		pop	{pc}
 727              	.L32:
 728 006e C046     		.align	2
 729              	.L31:
 730 0070 00000000 		.word	Mac_Addr
 731              		.cfi_endproc
 732              	.LFE65:
 733              		.size	send_get_pre_service_ip, .-send_get_pre_service_ip
 734              		.section	.text.send_send_mac_and_get_blekey,"ax",%progbits
 735              		.align	1
 736              		.global	send_send_mac_and_get_blekey
 737              		.code	16
 738              		.thumb_func
 739              		.type	send_send_mac_and_get_blekey, %function
 740              	send_send_mac_and_get_blekey:
 741              	.LFB66:
 191:Code\UserApp\Protocol/CmdProtocol.c **** 	uint8 ver;
 742              		.loc 1 191 0
 743              		.cfi_startproc
ARM GAS  C:\Users\Administrator\AppData\Local\Temp\ccX9Bf8z.s 			page 44


 744              	.LVL78:
 745 0000 10B5     		push	{r4, lr}
 746              		.cfi_def_cfa_offset 8
 747              		.cfi_offset 4, -8
 748              		.cfi_offset 14, -4
 749 0002 98B0     		sub	sp, sp, #96
 750              		.cfi_def_cfa_offset 104
 201:Code\UserApp\Protocol/CmdProtocol.c **** 	uart_buf[cnt++] = 0x3a;
 751              		.loc 1 201 0
 752 0004 6A46     		mov	r2, sp
 753 0006 EF23     		mov	r3, #239
 754 0008 1370     		strb	r3, [r2]
 755              	.LVL79:
 202:Code\UserApp\Protocol/CmdProtocol.c **** 	uart_buf[cnt++] = (pack_len >> 8) & 0xFF;					// åŒ…é•¿åº¦é«˜å­—èŠ‚							//
 756              		.loc 1 202 0
 757 000a B53B     		sub	r3, r3, #181
 758 000c 5370     		strb	r3, [r2, #1]
 759              	.LVL80:
 203:Code\UserApp\Protocol/CmdProtocol.c **** 	uart_buf[cnt++] = pack_len & 0xFF;							// åŒ…é•¿åº¦ä½å­—èŠ‚							//
 760              		.loc 1 203 0
 761 000e 0023     		mov	r3, #0
 204:Code\UserApp\Protocol/CmdProtocol.c **** 	uart_buf[cnt++] = 0x01;
 762              		.loc 1 204 0
 763 0010 6946     		mov	r1, sp
 203:Code\UserApp\Protocol/CmdProtocol.c **** 	uart_buf[cnt++] = pack_len & 0xFF;							// åŒ…é•¿åº¦ä½å­—èŠ‚							//
 764              		.loc 1 203 0
 765 0012 9370     		strb	r3, [r2, #2]
 766              	.LVL81:
 204:Code\UserApp\Protocol/CmdProtocol.c **** 	uart_buf[cnt++] = 0x01;
 767              		.loc 1 204 0
 768 0014 1122     		mov	r2, #17
 769 0016 CA70     		strb	r2, [r1, #3]
 770              	.LVL82:
 205:Code\UserApp\Protocol/CmdProtocol.c **** 	uart_buf[cnt++] = 0x01;
 771              		.loc 1 205 0
 772 0018 103A     		sub	r2, r2, #16
 773 001a 0A71     		strb	r2, [r1, #4]
 774              	.LVL83:
 206:Code\UserApp\Protocol/CmdProtocol.c **** 	uart_buf[cnt++] = 0x02;
 775              		.loc 1 206 0
 776 001c 4A71     		strb	r2, [r1, #5]
 777              	.LVL84:
 207:Code\UserApp\Protocol/CmdProtocol.c **** 	
 778              		.loc 1 207 0
 779 001e 0132     		add	r2, r2, #1
 780 0020 8A71     		strb	r2, [r1, #6]
 781              	.LVL85:
 782              	.L34:
 211:Code\UserApp\Protocol/CmdProtocol.c **** 	}
 783              		.loc 1 211 0 discriminator 3
 784 0022 164A     		ldr	r2, .L35
 785 0024 D15C     		ldrb	r1, [r2, r3]
 786 0026 1A1C     		mov	r2, r3
 787 0028 0133     		add	r3, r3, #1
 788              	.LVL86:
 789 002a 6A44     		add	r2, r2, sp
 790 002c D171     		strb	r1, [r2, #7]
ARM GAS  C:\Users\Administrator\AppData\Local\Temp\ccX9Bf8z.s 			page 45


 209:Code\UserApp\Protocol/CmdProtocol.c **** 	{
 791              		.loc 1 209 0 discriminator 3
 792 002e 062B     		cmp	r3, #6
 793 0030 F7D1     		bne	.L34
 215:Code\UserApp\Protocol/CmdProtocol.c **** 	uart_buf[cnt++] = ver & 0xFF;
 794              		.loc 1 215 0
 795 0032 6A46     		mov	r2, sp
 796 0034 0024     		mov	r4, #0
 214:Code\UserApp\Protocol/CmdProtocol.c **** 	uart_buf[cnt++] = (ver >> 8) & 0xFF;
 797              		.loc 1 214 0
 798 0036 124B     		ldr	r3, .L35+4
 215:Code\UserApp\Protocol/CmdProtocol.c **** 	uart_buf[cnt++] = ver & 0xFF;
 799              		.loc 1 215 0
 800 0038 5473     		strb	r4, [r2, #13]
 214:Code\UserApp\Protocol/CmdProtocol.c **** 	uart_buf[cnt++] = (ver >> 8) & 0xFF;
 801              		.loc 1 214 0
 802 003a 1B78     		ldrb	r3, [r3]
 803              	.LVL87:
 216:Code\UserApp\Protocol/CmdProtocol.c **** 	    
 804              		.loc 1 216 0
 805 003c 9373     		strb	r3, [r2, #14]
 218:Code\UserApp\Protocol/CmdProtocol.c **** 	LONG2BYTE(time_tmp, time_arr);
 806              		.loc 1 218 0
 807 003e FFF7FEFF 		bl	RTC_GetUnixTime
 808              	.LVL88:
 220:Code\UserApp\Protocol/CmdProtocol.c **** 	uart_buf[cnt++] = time_arr[1];
 809              		.loc 1 220 0
 810 0042 6A46     		mov	r2, sp
 219:Code\UserApp\Protocol/CmdProtocol.c **** 	uart_buf[cnt++] = time_arr[0];
 811              		.loc 1 219 0
 812 0044 030E     		lsr	r3, r0, #24
 220:Code\UserApp\Protocol/CmdProtocol.c **** 	uart_buf[cnt++] = time_arr[1];
 813              		.loc 1 220 0
 814 0046 D373     		strb	r3, [r2, #15]
 815              	.LVL89:
 219:Code\UserApp\Protocol/CmdProtocol.c **** 	uart_buf[cnt++] = time_arr[0];
 816              		.loc 1 219 0
 817 0048 030C     		lsr	r3, r0, #16
 221:Code\UserApp\Protocol/CmdProtocol.c **** 	uart_buf[cnt++] = time_arr[2];
 818              		.loc 1 221 0
 819 004a 1374     		strb	r3, [r2, #16]
 820              	.LVL90:
 223:Code\UserApp\Protocol/CmdProtocol.c **** 	
 821              		.loc 1 223 0
 822 004c 9074     		strb	r0, [r2, #18]
 219:Code\UserApp\Protocol/CmdProtocol.c **** 	uart_buf[cnt++] = time_arr[0];
 823              		.loc 1 219 0
 824 004e 030A     		lsr	r3, r0, #8
 225:Code\UserApp\Protocol/CmdProtocol.c **** 	uart_buf[cnt++] = (TempCrc >> 8) & 0xFF;
 825              		.loc 1 225 0
 826 0050 1321     		mov	r1, #19
 827 0052 6846     		mov	r0, sp
 828              	.LVL91:
 222:Code\UserApp\Protocol/CmdProtocol.c **** 	uart_buf[cnt++] = time_arr[3];
 829              		.loc 1 222 0
 830 0054 5374     		strb	r3, [r2, #17]
 831              	.LVL92:
ARM GAS  C:\Users\Administrator\AppData\Local\Temp\ccX9Bf8z.s 			page 46


 225:Code\UserApp\Protocol/CmdProtocol.c **** 	uart_buf[cnt++] = (TempCrc >> 8) & 0xFF;
 832              		.loc 1 225 0
 833 0056 FFF7FEFF 		bl	MyCrc16Check
 834              	.LVL93:
 226:Code\UserApp\Protocol/CmdProtocol.c **** 	uart_buf[cnt++] = TempCrc & 0xFF;
 835              		.loc 1 226 0
 836 005a 6A46     		mov	r2, sp
 837 005c 030A     		lsr	r3, r0, #8
 838 005e D374     		strb	r3, [r2, #19]
 839              	.LVL94:
 227:Code\UserApp\Protocol/CmdProtocol.c **** 	
 840              		.loc 1 227 0
 841 0060 6B46     		mov	r3, sp
 229:Code\UserApp\Protocol/CmdProtocol.c **** 	return 0;
 842              		.loc 1 229 0
 843 0062 D178     		ldrb	r1, [r2, #3]
 227:Code\UserApp\Protocol/CmdProtocol.c **** 	
 844              		.loc 1 227 0
 845 0064 1075     		strb	r0, [r2, #20]
 846 0066 0A1D     		add	r2, r1, #4
 229:Code\UserApp\Protocol/CmdProtocol.c **** 	return 0;
 847              		.loc 1 229 0
 848 0068 9978     		ldrb	r1, [r3, #2]
 849 006a 6846     		mov	r0, sp
 850              	.LVL95:
 851 006c 0B02     		lsl	r3, r1, #8
 852 006e D118     		add	r1, r2, r3
 853 0070 89B2     		uxth	r1, r1
 854 0072 FFF7FEFF 		bl	GPRS_SendHexDataToServer
 855              	.LVL96:
 231:Code\UserApp\Protocol/CmdProtocol.c **** 
 856              		.loc 1 231 0
 857 0076 201C     		mov	r0, r4
 858 0078 18B0     		add	sp, sp, #96
 859              		@ sp needed
 860 007a 10BD     		pop	{r4, pc}
 861              	.L36:
 862              		.align	2
 863              	.L35:
 864 007c 00000000 		.word	Mac_Addr
 865 0080 00000000 		.word	system_version
 866              		.cfi_endproc
 867              	.LFE66:
 868              		.size	send_send_mac_and_get_blekey, .-send_send_mac_and_get_blekey
 869              		.section	.text.send_upload_open_info,"ax",%progbits
 870              		.align	1
 871              		.global	send_upload_open_info
 872              		.code	16
 873              		.thumb_func
 874              		.type	send_upload_open_info, %function
 875              	send_upload_open_info:
 876              	.LFB67:
 245:Code\UserApp\Protocol/CmdProtocol.c **** 	uint8 uart_buf[96];
 877              		.loc 1 245 0
 878              		.cfi_startproc
 879              	.LVL97:
 880 0000 F0B5     		push	{r4, r5, r6, r7, lr}
ARM GAS  C:\Users\Administrator\AppData\Local\Temp\ccX9Bf8z.s 			page 47


 881              		.cfi_def_cfa_offset 20
 882              		.cfi_offset 4, -20
 883              		.cfi_offset 5, -16
 884              		.cfi_offset 6, -12
 885              		.cfi_offset 7, -8
 886              		.cfi_offset 14, -4
 887 0002 99B0     		sub	sp, sp, #100
 888              		.cfi_def_cfa_offset 120
 255:Code\UserApp\Protocol/CmdProtocol.c **** 	uart_buf[cnt++] = 0x3a;
 889              		.loc 1 255 0
 890 0004 EF23     		mov	r3, #239
 245:Code\UserApp\Protocol/CmdProtocol.c **** 	uint8 uart_buf[96];
 891              		.loc 1 245 0
 892 0006 161C     		mov	r6, r2
 255:Code\UserApp\Protocol/CmdProtocol.c **** 	uart_buf[cnt++] = 0x3a;
 893              		.loc 1 255 0
 894 0008 6A46     		mov	r2, sp
 895              	.LVL98:
 896 000a 1370     		strb	r3, [r2]
 256:Code\UserApp\Protocol/CmdProtocol.c **** 	uart_buf[cnt++] = (pack_len >> 8) & 0xFF;					// åŒ…é•¿åº¦é«˜å­—èŠ‚							//
 897              		.loc 1 256 0
 898 000c B53B     		sub	r3, r3, #181
 899 000e 5370     		strb	r3, [r2, #1]
 257:Code\UserApp\Protocol/CmdProtocol.c **** 	uart_buf[cnt++] = pack_len & 0xFF;							// åŒ…é•¿åº¦ä½å­—èŠ‚							//
 900              		.loc 1 257 0
 901 0010 0023     		mov	r3, #0
 245:Code\UserApp\Protocol/CmdProtocol.c **** 	uint8 uart_buf[96];
 902              		.loc 1 245 0
 903 0012 0F1C     		mov	r7, r1
 257:Code\UserApp\Protocol/CmdProtocol.c **** 	uart_buf[cnt++] = pack_len & 0xFF;							// åŒ…é•¿åº¦ä½å­—èŠ‚							//
 904              		.loc 1 257 0
 905 0014 9370     		strb	r3, [r2, #2]
 258:Code\UserApp\Protocol/CmdProtocol.c **** 	uart_buf[cnt++] = 0x01;
 906              		.loc 1 258 0
 907 0016 6946     		mov	r1, sp
 908              	.LVL99:
 909 0018 1C22     		mov	r2, #28
 245:Code\UserApp\Protocol/CmdProtocol.c **** 	uint8 uart_buf[96];
 910              		.loc 1 245 0
 911 001a 051C     		mov	r5, r0
 912              	.LVL100:
 258:Code\UserApp\Protocol/CmdProtocol.c **** 	uart_buf[cnt++] = 0x01;
 913              		.loc 1 258 0
 914 001c CA70     		strb	r2, [r1, #3]
 915              	.LVL101:
 259:Code\UserApp\Protocol/CmdProtocol.c **** 	uart_buf[cnt++] = 0x01;
 916              		.loc 1 259 0
 917 001e 1B3A     		sub	r2, r2, #27
 918 0020 0A71     		strb	r2, [r1, #4]
 919              	.LVL102:
 260:Code\UserApp\Protocol/CmdProtocol.c **** 	uart_buf[cnt++] = 0x07;
 920              		.loc 1 260 0
 921 0022 4A71     		strb	r2, [r1, #5]
 922              	.LVL103:
 261:Code\UserApp\Protocol/CmdProtocol.c **** 	
 923              		.loc 1 261 0
 924 0024 0632     		add	r2, r2, #6
ARM GAS  C:\Users\Administrator\AppData\Local\Temp\ccX9Bf8z.s 			page 48


 925 0026 8A71     		strb	r2, [r1, #6]
 926              	.LVL104:
 927              	.L38:
 265:Code\UserApp\Protocol/CmdProtocol.c **** 	}
 928              		.loc 1 265 0 discriminator 3
 929 0028 304A     		ldr	r2, .L44
 930 002a D15C     		ldrb	r1, [r2, r3]
 931 002c 1A1C     		mov	r2, r3
 932 002e 0133     		add	r3, r3, #1
 933              	.LVL105:
 934 0030 6A44     		add	r2, r2, sp
 935 0032 D171     		strb	r1, [r2, #7]
 263:Code\UserApp\Protocol/CmdProtocol.c **** 	{
 936              		.loc 1 263 0 discriminator 3
 937 0034 062B     		cmp	r3, #6
 938 0036 F7D1     		bne	.L38
 268:Code\UserApp\Protocol/CmdProtocol.c **** 	{
 939              		.loc 1 268 0
 940 0038 281C     		mov	r0, r5
 941              	.LVL106:
 942 003a FFF7FEFF 		bl	Endpoint_exchange
 943              	.LVL107:
 270:Code\UserApp\Protocol/CmdProtocol.c **** 		{
 944              		.loc 1 270 0
 945 003e 0023     		mov	r3, #0
 946              	.LVL108:
 947              	.L39:
 270:Code\UserApp\Protocol/CmdProtocol.c **** 		{
 948              		.loc 1 270 0 is_stmt 0 discriminator 1
 949 0040 BCB2     		uxth	r4, r7
 950 0042 9AB2     		uxth	r2, r3
 951 0044 A242     		cmp	r2, r4
 952 0046 05D2     		bcs	.L43
 953              	.LVL109:
 954 0048 1A1C     		mov	r2, r3
 272:Code\UserApp\Protocol/CmdProtocol.c **** 		}
 955              		.loc 1 272 0 is_stmt 1 discriminator 3
 956 004a E95C     		ldrb	r1, [r5, r3]
 957 004c 6A44     		add	r2, r2, sp
 958 004e 5173     		strb	r1, [r2, #13]
 959              	.LVL110:
 960 0050 0133     		add	r3, r3, #1
 961              	.LVL111:
 962 0052 F5E7     		b	.L39
 963              	.LVL112:
 964              	.L43:
 276:Code\UserApp\Protocol/CmdProtocol.c **** 	
 965              		.loc 1 276 0
 966 0054 231C     		mov	r3, r4
 967              	.LVL113:
 968 0056 6A46     		mov	r2, sp
 969              	.LVL114:
 278:Code\UserApp\Protocol/CmdProtocol.c **** 	uart_buf[cnt++] = pstr->open_time[1];
 970              		.loc 1 278 0
 971 0058 6946     		mov	r1, sp
 276:Code\UserApp\Protocol/CmdProtocol.c **** 	
 972              		.loc 1 276 0
ARM GAS  C:\Users\Administrator\AppData\Local\Temp\ccX9Bf8z.s 			page 49


 973 005a 0D33     		add	r3, r3, #13
 974 005c D654     		strb	r6, [r2, r3]
 975              	.LVL115:
 278:Code\UserApp\Protocol/CmdProtocol.c **** 	uart_buf[cnt++] = pstr->open_time[1];
 976              		.loc 1 278 0
 977 005e 2A7A     		ldrb	r2, [r5, #8]
 978 0060 0133     		add	r3, r3, #1
 979 0062 CA54     		strb	r2, [r1, r3]
 980              	.LVL116:
 279:Code\UserApp\Protocol/CmdProtocol.c **** 	uart_buf[cnt++] = pstr->open_time[2];
 981              		.loc 1 279 0
 982 0064 6A7A     		ldrb	r2, [r5, #9]
 983 0066 0133     		add	r3, r3, #1
 984 0068 CA54     		strb	r2, [r1, r3]
 985              	.LVL117:
 280:Code\UserApp\Protocol/CmdProtocol.c **** 	uart_buf[cnt++] = pstr->open_time[3];
 986              		.loc 1 280 0
 987 006a AA7A     		ldrb	r2, [r5, #10]
 988 006c 0133     		add	r3, r3, #1
 989 006e CA54     		strb	r2, [r1, r3]
 990              	.LVL118:
 281:Code\UserApp\Protocol/CmdProtocol.c **** 	
 991              		.loc 1 281 0
 992 0070 EA7A     		ldrb	r2, [r5, #11]
 993 0072 0133     		add	r3, r3, #1
 994 0074 CA54     		strb	r2, [r1, r3]
 283:Code\UserApp\Protocol/CmdProtocol.c **** 	LONG2BYTE(time_tmp, time_arr);
 995              		.loc 1 283 0
 996 0076 FFF7FEFF 		bl	RTC_GetUnixTime
 997              	.LVL119:
 285:Code\UserApp\Protocol/CmdProtocol.c **** 	uart_buf[cnt++] = time_arr[1];
 998              		.loc 1 285 0
 999 007a 231C     		mov	r3, r4
 1000 007c 6946     		mov	r1, sp
 284:Code\UserApp\Protocol/CmdProtocol.c **** 	uart_buf[cnt++] = time_arr[0];
 1001              		.loc 1 284 0
 1002 007e 020E     		lsr	r2, r0, #24
 285:Code\UserApp\Protocol/CmdProtocol.c **** 	uart_buf[cnt++] = time_arr[1];
 1003              		.loc 1 285 0
 1004 0080 1233     		add	r3, r3, #18
 1005 0082 CA54     		strb	r2, [r1, r3]
 1006              	.LVL120:
 284:Code\UserApp\Protocol/CmdProtocol.c **** 	uart_buf[cnt++] = time_arr[0];
 1007              		.loc 1 284 0
 1008 0084 020C     		lsr	r2, r0, #16
 286:Code\UserApp\Protocol/CmdProtocol.c **** 	uart_buf[cnt++] = time_arr[2];
 1009              		.loc 1 286 0
 1010 0086 0133     		add	r3, r3, #1
 1011 0088 CA54     		strb	r2, [r1, r3]
 1012              	.LVL121:
 284:Code\UserApp\Protocol/CmdProtocol.c **** 	uart_buf[cnt++] = time_arr[0];
 1013              		.loc 1 284 0
 1014 008a 020A     		lsr	r2, r0, #8
 287:Code\UserApp\Protocol/CmdProtocol.c **** 	uart_buf[cnt++] = time_arr[3];
 1015              		.loc 1 287 0
 1016 008c 0133     		add	r3, r3, #1
 1017 008e CA54     		strb	r2, [r1, r3]
ARM GAS  C:\Users\Administrator\AppData\Local\Temp\ccX9Bf8z.s 			page 50


 1018              	.LVL122:
 288:Code\UserApp\Protocol/CmdProtocol.c **** 	
 1019              		.loc 1 288 0
 1020 0090 0133     		add	r3, r3, #1
 1021 0092 C854     		strb	r0, [r1, r3]
 290:Code\UserApp\Protocol/CmdProtocol.c **** 	uart_buf[cnt++] = (TempCrc >> 8) & 0xFF;
 1022              		.loc 1 290 0
 1023 0094 1E21     		mov	r1, #30
 1024 0096 6846     		mov	r0, sp
 1025              	.LVL123:
 1026 0098 FFF7FEFF 		bl	MyCrc16Check
 1027              	.LVL124:
 291:Code\UserApp\Protocol/CmdProtocol.c **** 	uart_buf[cnt++] = TempCrc & 0xFF;
 1028              		.loc 1 291 0
 1029 009c 231C     		mov	r3, r4
 1030 009e 6946     		mov	r1, sp
 1031 00a0 1633     		add	r3, r3, #22
 1032 00a2 020A     		lsr	r2, r0, #8
 292:Code\UserApp\Protocol/CmdProtocol.c **** 	
 1033              		.loc 1 292 0
 1034 00a4 1734     		add	r4, r4, #23
 1035              	.LVL125:
 291:Code\UserApp\Protocol/CmdProtocol.c **** 	uart_buf[cnt++] = TempCrc & 0xFF;
 1036              		.loc 1 291 0
 1037 00a6 CA54     		strb	r2, [r1, r3]
 292:Code\UserApp\Protocol/CmdProtocol.c **** 	
 1038              		.loc 1 292 0
 1039 00a8 0855     		strb	r0, [r1, r4]
 294:Code\UserApp\Protocol/CmdProtocol.c **** 	if ((cur_time + 300) > next_heartbeat_time)					// ä¸‹ä¸€æ¬¡å¿ƒè·³åœ¨5minä»¥å†…					//
 1040              		.loc 1 294 0
 1041 00aa FFF7FEFF 		bl	RTC_GetUnixTime
 1042              	.LVL126:
 295:Code\UserApp\Protocol/CmdProtocol.c **** 	{
 1043              		.loc 1 295 0
 1044 00ae 021C     		mov	r2, r0
 294:Code\UserApp\Protocol/CmdProtocol.c **** 	if ((cur_time + 300) > next_heartbeat_time)					// ä¸‹ä¸€æ¬¡å¿ƒè·³åœ¨5minä»¥å†…					//
 1045              		.loc 1 294 0
 1046 00b0 0F4B     		ldr	r3, .L44+4
 295:Code\UserApp\Protocol/CmdProtocol.c **** 	{
 1047              		.loc 1 295 0
 1048 00b2 2D32     		add	r2, r2, #45
 294:Code\UserApp\Protocol/CmdProtocol.c **** 	if ((cur_time + 300) > next_heartbeat_time)					// ä¸‹ä¸€æ¬¡å¿ƒè·³åœ¨5minä»¥å†…					//
 1049              		.loc 1 294 0
 1050 00b4 1860     		str	r0, [r3]
 295:Code\UserApp\Protocol/CmdProtocol.c **** 	{
 1051              		.loc 1 295 0
 1052 00b6 0F4B     		ldr	r3, .L44+8
 1053 00b8 FF32     		add	r2, r2, #255
 1054 00ba 1968     		ldr	r1, [r3]
 1055 00bc 8A42     		cmp	r2, r1
 1056 00be 00D9     		bls	.L41
 297:Code\UserApp\Protocol/CmdProtocol.c **** 	}
 1057              		.loc 1 297 0
 1058 00c0 1A60     		str	r2, [r3]
 1059              	.L41:
 300:Code\UserApp\Protocol/CmdProtocol.c **** 	{
 1060              		.loc 1 300 0
ARM GAS  C:\Users\Administrator\AppData\Local\Temp\ccX9Bf8z.s 			page 51


 1061 00c2 0D4B     		ldr	r3, .L44+12
 1062 00c4 3C30     		add	r0, r0, #60
 1063 00c6 1A68     		ldr	r2, [r3]
 1064 00c8 9042     		cmp	r0, r2
 1065 00ca 00D9     		bls	.L42
 302:Code\UserApp\Protocol/CmdProtocol.c **** 	}
 1066              		.loc 1 302 0
 1067 00cc 1860     		str	r0, [r3]
 1068              	.L42:
 310:Code\UserApp\Protocol/CmdProtocol.c **** 	
 1069              		.loc 1 310 0
 1070 00ce 6B46     		mov	r3, sp
 1071 00d0 D978     		ldrb	r1, [r3, #3]
 1072 00d2 6846     		mov	r0, sp
 1073 00d4 0A1D     		add	r2, r1, #4
 1074 00d6 9978     		ldrb	r1, [r3, #2]
 1075 00d8 0B02     		lsl	r3, r1, #8
 1076 00da D118     		add	r1, r2, r3
 1077 00dc 89B2     		uxth	r1, r1
 1078 00de FFF7FEFF 		bl	GPRS_SendHexDataToServer
 1079              	.LVL127:
 312:Code\UserApp\Protocol/CmdProtocol.c **** 	return 0;
 1080              		.loc 1 312 0
 1081 00e2 0020     		mov	r0, #0
 1082 00e4 054B     		ldr	r3, .L44+16
 1083 00e6 1870     		strb	r0, [r3]
 314:Code\UserApp\Protocol/CmdProtocol.c **** 
 1084              		.loc 1 314 0
 1085 00e8 19B0     		add	sp, sp, #100
 1086              		@ sp needed
 1087              	.LVL128:
 1088 00ea F0BD     		pop	{r4, r5, r6, r7, pc}
 1089              	.L45:
 1090              		.align	2
 1091              	.L44:
 1092 00ec 00000000 		.word	Mac_Addr
 1093 00f0 00000000 		.word	cur_time
 1094 00f4 00000000 		.word	next_heartbeat_time
 1095 00f8 00000000 		.word	next_gprs_upload_time
 1096 00fc 00000000 		.word	uploadpolling_stop
 1097              		.cfi_endproc
 1098              	.LFE67:
 1099              		.size	send_upload_open_info, .-send_upload_open_info
 1100              		.section	.text.send_heartbeat,"ax",%progbits
 1101              		.align	1
 1102              		.global	send_heartbeat
 1103              		.code	16
 1104              		.thumb_func
 1105              		.type	send_heartbeat, %function
 1106              	send_heartbeat:
 1107              	.LFB68:
 325:Code\UserApp\Protocol/CmdProtocol.c **** 	uint8 uart_buf[96];
 1108              		.loc 1 325 0
 1109              		.cfi_startproc
 1110              	.LVL129:
 1111 0000 00B5     		push	{lr}
 1112              		.cfi_def_cfa_offset 4
ARM GAS  C:\Users\Administrator\AppData\Local\Temp\ccX9Bf8z.s 			page 52


 1113              		.cfi_offset 14, -4
 1114 0002 99B0     		sub	sp, sp, #100
 1115              		.cfi_def_cfa_offset 104
 335:Code\UserApp\Protocol/CmdProtocol.c **** 	uart_buf[cnt++] = 0x3a;
 1116              		.loc 1 335 0
 1117 0004 6A46     		mov	r2, sp
 1118 0006 EF23     		mov	r3, #239
 1119 0008 1370     		strb	r3, [r2]
 1120              	.LVL130:
 336:Code\UserApp\Protocol/CmdProtocol.c **** 	uart_buf[cnt++] = (pack_len >> 8) & 0xFF;					// åŒ…é•¿åº¦é«˜å­—èŠ‚							//
 1121              		.loc 1 336 0
 1122 000a B53B     		sub	r3, r3, #181
 1123 000c 5370     		strb	r3, [r2, #1]
 1124              	.LVL131:
 337:Code\UserApp\Protocol/CmdProtocol.c **** 	uart_buf[cnt++] = pack_len & 0xFF;							// åŒ…é•¿åº¦ä½å­—èŠ‚							//
 1125              		.loc 1 337 0
 1126 000e 0023     		mov	r3, #0
 338:Code\UserApp\Protocol/CmdProtocol.c **** 	uart_buf[cnt++] = 0x01;
 1127              		.loc 1 338 0
 1128 0010 6946     		mov	r1, sp
 337:Code\UserApp\Protocol/CmdProtocol.c **** 	uart_buf[cnt++] = pack_len & 0xFF;							// åŒ…é•¿åº¦ä½å­—èŠ‚							//
 1129              		.loc 1 337 0
 1130 0012 9370     		strb	r3, [r2, #2]
 1131              	.LVL132:
 338:Code\UserApp\Protocol/CmdProtocol.c **** 	uart_buf[cnt++] = 0x01;
 1132              		.loc 1 338 0
 1133 0014 1022     		mov	r2, #16
 1134 0016 CA70     		strb	r2, [r1, #3]
 1135              	.LVL133:
 339:Code\UserApp\Protocol/CmdProtocol.c **** 	uart_buf[cnt++] = 0x01;
 1136              		.loc 1 339 0
 1137 0018 0F3A     		sub	r2, r2, #15
 1138 001a 0A71     		strb	r2, [r1, #4]
 1139              	.LVL134:
 340:Code\UserApp\Protocol/CmdProtocol.c **** 	uart_buf[cnt++] = 0x08;
 1140              		.loc 1 340 0
 1141 001c 4A71     		strb	r2, [r1, #5]
 1142              	.LVL135:
 341:Code\UserApp\Protocol/CmdProtocol.c **** 	
 1143              		.loc 1 341 0
 1144 001e 0732     		add	r2, r2, #7
 1145 0020 8A71     		strb	r2, [r1, #6]
 1146              	.LVL136:
 1147              	.L47:
 345:Code\UserApp\Protocol/CmdProtocol.c **** 	}
 1148              		.loc 1 345 0 discriminator 3
 1149 0022 144A     		ldr	r2, .L48
 1150 0024 D15C     		ldrb	r1, [r2, r3]
 1151 0026 1A1C     		mov	r2, r3
 1152 0028 0133     		add	r3, r3, #1
 1153              	.LVL137:
 1154 002a 6A44     		add	r2, r2, sp
 1155 002c D171     		strb	r1, [r2, #7]
 343:Code\UserApp\Protocol/CmdProtocol.c **** 	{
 1156              		.loc 1 343 0 discriminator 3
 1157 002e 062B     		cmp	r3, #6
 1158 0030 F7D1     		bne	.L47
ARM GAS  C:\Users\Administrator\AppData\Local\Temp\ccX9Bf8z.s 			page 53


 1159              	.LVL138:
 348:Code\UserApp\Protocol/CmdProtocol.c **** 	#if DEF_RSSI
 1160              		.loc 1 348 0
 1161 0032 6B46     		mov	r3, sp
 1162 0034 5873     		strb	r0, [r3, #13]
 354:Code\UserApp\Protocol/CmdProtocol.c **** 	LONG2BYTE(time_tmp, time_arr);
 1163              		.loc 1 354 0
 1164 0036 FFF7FEFF 		bl	RTC_GetUnixTime
 1165              	.LVL139:
 356:Code\UserApp\Protocol/CmdProtocol.c **** 	uart_buf[cnt++] = time_arr[1];
 1166              		.loc 1 356 0
 1167 003a 6A46     		mov	r2, sp
 355:Code\UserApp\Protocol/CmdProtocol.c **** 	uart_buf[cnt++] = time_arr[0];
 1168              		.loc 1 355 0
 1169 003c 030E     		lsr	r3, r0, #24
 356:Code\UserApp\Protocol/CmdProtocol.c **** 	uart_buf[cnt++] = time_arr[1];
 1170              		.loc 1 356 0
 1171 003e 9373     		strb	r3, [r2, #14]
 1172              	.LVL140:
 355:Code\UserApp\Protocol/CmdProtocol.c **** 	uart_buf[cnt++] = time_arr[0];
 1173              		.loc 1 355 0
 1174 0040 030C     		lsr	r3, r0, #16
 357:Code\UserApp\Protocol/CmdProtocol.c **** 	uart_buf[cnt++] = time_arr[2];
 1175              		.loc 1 357 0
 1176 0042 D373     		strb	r3, [r2, #15]
 1177              	.LVL141:
 359:Code\UserApp\Protocol/CmdProtocol.c **** 	
 1178              		.loc 1 359 0
 1179 0044 5074     		strb	r0, [r2, #17]
 355:Code\UserApp\Protocol/CmdProtocol.c **** 	uart_buf[cnt++] = time_arr[0];
 1180              		.loc 1 355 0
 1181 0046 030A     		lsr	r3, r0, #8
 361:Code\UserApp\Protocol/CmdProtocol.c **** 	uart_buf[cnt++] = (TempCrc >> 8) & 0xFF;
 1182              		.loc 1 361 0
 1183 0048 1221     		mov	r1, #18
 1184 004a 6846     		mov	r0, sp
 1185              	.LVL142:
 358:Code\UserApp\Protocol/CmdProtocol.c **** 	uart_buf[cnt++] = time_arr[3];
 1186              		.loc 1 358 0
 1187 004c 1374     		strb	r3, [r2, #16]
 1188              	.LVL143:
 361:Code\UserApp\Protocol/CmdProtocol.c **** 	uart_buf[cnt++] = (TempCrc >> 8) & 0xFF;
 1189              		.loc 1 361 0
 1190 004e FFF7FEFF 		bl	MyCrc16Check
 1191              	.LVL144:
 362:Code\UserApp\Protocol/CmdProtocol.c **** 	uart_buf[cnt++] = TempCrc & 0xFF;
 1192              		.loc 1 362 0
 1193 0052 6A46     		mov	r2, sp
 1194 0054 030A     		lsr	r3, r0, #8
 1195 0056 9374     		strb	r3, [r2, #18]
 1196              	.LVL145:
 363:Code\UserApp\Protocol/CmdProtocol.c **** 	//DBG_SOFT_PutStr("\nsend_heartbeat:\n");
 1197              		.loc 1 363 0
 1198 0058 6B46     		mov	r3, sp
 366:Code\UserApp\Protocol/CmdProtocol.c **** 	
 1199              		.loc 1 366 0
 1200 005a D178     		ldrb	r1, [r2, #3]
ARM GAS  C:\Users\Administrator\AppData\Local\Temp\ccX9Bf8z.s 			page 54


 363:Code\UserApp\Protocol/CmdProtocol.c **** 	//DBG_SOFT_PutStr("\nsend_heartbeat:\n");
 1201              		.loc 1 363 0
 1202 005c D074     		strb	r0, [r2, #19]
 1203 005e 0A1D     		add	r2, r1, #4
 366:Code\UserApp\Protocol/CmdProtocol.c **** 	
 1204              		.loc 1 366 0
 1205 0060 9978     		ldrb	r1, [r3, #2]
 1206 0062 6846     		mov	r0, sp
 1207              	.LVL146:
 1208 0064 0B02     		lsl	r3, r1, #8
 1209 0066 D118     		add	r1, r2, r3
 1210 0068 89B2     		uxth	r1, r1
 1211 006a FFF7FEFF 		bl	GPRS_SendHexDataToServer
 1212              	.LVL147:
 369:Code\UserApp\Protocol/CmdProtocol.c **** 
 1213              		.loc 1 369 0
 1214 006e 0020     		mov	r0, #0
 1215 0070 19B0     		add	sp, sp, #100
 1216              		@ sp needed
 1217 0072 00BD     		pop	{pc}
 1218              	.L49:
 1219              		.align	2
 1220              	.L48:
 1221 0074 00000000 		.word	Mac_Addr
 1222              		.cfi_endproc
 1223              	.LFE68:
 1224              		.size	send_heartbeat, .-send_heartbeat
 1225              		.section	.text.send_time_adjust,"ax",%progbits
 1226              		.align	1
 1227              		.global	send_time_adjust
 1228              		.code	16
 1229              		.thumb_func
 1230              		.type	send_time_adjust, %function
 1231              	send_time_adjust:
 1232              	.LFB69:
 380:Code\UserApp\Protocol/CmdProtocol.c **** 	uint8 uart_buf[96];
 1233              		.loc 1 380 0
 1234              		.cfi_startproc
 1235              	.LVL148:
 1236 0000 00B5     		push	{lr}
 1237              		.cfi_def_cfa_offset 4
 1238              		.cfi_offset 14, -4
 1239 0002 99B0     		sub	sp, sp, #100
 1240              		.cfi_def_cfa_offset 104
 387:Code\UserApp\Protocol/CmdProtocol.c **** 	uart_buf[cnt++] = 0x3a;
 1241              		.loc 1 387 0
 1242 0004 6A46     		mov	r2, sp
 1243 0006 EF23     		mov	r3, #239
 1244 0008 1370     		strb	r3, [r2]
 1245              	.LVL149:
 388:Code\UserApp\Protocol/CmdProtocol.c **** 	uart_buf[cnt++] = (pack_len >> 8) & 0xFF;					// åŒ…é•¿åº¦é«˜å­—èŠ‚							//
 1246              		.loc 1 388 0
 1247 000a B53B     		sub	r3, r3, #181
 1248 000c 5370     		strb	r3, [r2, #1]
 1249              	.LVL150:
 389:Code\UserApp\Protocol/CmdProtocol.c **** 	uart_buf[cnt++] = pack_len & 0xFF;							// åŒ…é•¿åº¦ä½å­—èŠ‚							//
 1250              		.loc 1 389 0
ARM GAS  C:\Users\Administrator\AppData\Local\Temp\ccX9Bf8z.s 			page 55


 1251 000e 0023     		mov	r3, #0
 390:Code\UserApp\Protocol/CmdProtocol.c **** 	uart_buf[cnt++] = 0x01;
 1252              		.loc 1 390 0
 1253 0010 6946     		mov	r1, sp
 389:Code\UserApp\Protocol/CmdProtocol.c **** 	uart_buf[cnt++] = pack_len & 0xFF;							// åŒ…é•¿åº¦ä½å­—èŠ‚							//
 1254              		.loc 1 389 0
 1255 0012 9370     		strb	r3, [r2, #2]
 1256              	.LVL151:
 390:Code\UserApp\Protocol/CmdProtocol.c **** 	uart_buf[cnt++] = 0x01;
 1257              		.loc 1 390 0
 1258 0014 0D22     		mov	r2, #13
 1259 0016 CA70     		strb	r2, [r1, #3]
 1260              	.LVL152:
 391:Code\UserApp\Protocol/CmdProtocol.c **** 	uart_buf[cnt++] = 0x01;
 1261              		.loc 1 391 0
 1262 0018 0C3A     		sub	r2, r2, #12
 1263 001a 0A71     		strb	r2, [r1, #4]
 1264              	.LVL153:
 392:Code\UserApp\Protocol/CmdProtocol.c **** 	uart_buf[cnt++] = 0x0A;
 1265              		.loc 1 392 0
 1266 001c 4A71     		strb	r2, [r1, #5]
 1267              	.LVL154:
 393:Code\UserApp\Protocol/CmdProtocol.c **** 	
 1268              		.loc 1 393 0
 1269 001e 0932     		add	r2, r2, #9
 1270 0020 8A71     		strb	r2, [r1, #6]
 1271              	.LVL155:
 1272              	.L51:
 397:Code\UserApp\Protocol/CmdProtocol.c **** 	}
 1273              		.loc 1 397 0 discriminator 3
 1274 0022 174A     		ldr	r2, .L53
 1275 0024 D15C     		ldrb	r1, [r2, r3]
 1276 0026 1A1C     		mov	r2, r3
 1277 0028 0133     		add	r3, r3, #1
 1278              	.LVL156:
 1279 002a 6A44     		add	r2, r2, sp
 1280 002c D171     		strb	r1, [r2, #7]
 395:Code\UserApp\Protocol/CmdProtocol.c **** 	{
 1281              		.loc 1 395 0 discriminator 3
 1282 002e 062B     		cmp	r3, #6
 1283 0030 F7D1     		bne	.L51
 1284              	.LVL157:
 400:Code\UserApp\Protocol/CmdProtocol.c **** 	uart_buf[cnt++] = 0xff;
 1285              		.loc 1 400 0
 1286 0032 6A46     		mov	r2, sp
 1287 0034 F933     		add	r3, r3, #249
 405:Code\UserApp\Protocol/CmdProtocol.c **** 	uart_buf[cnt++] = (TempCrc >> 8) & 0xFF;
 1288              		.loc 1 405 0
 1289 0036 0F21     		mov	r1, #15
 1290 0038 6846     		mov	r0, sp
 400:Code\UserApp\Protocol/CmdProtocol.c **** 	uart_buf[cnt++] = 0xff;
 1291              		.loc 1 400 0
 1292 003a 5373     		strb	r3, [r2, #13]
 1293              	.LVL158:
 401:Code\UserApp\Protocol/CmdProtocol.c **** 	uart_buf[cnt++] = 0xff;
 1294              		.loc 1 401 0
 1295 003c 9373     		strb	r3, [r2, #14]
ARM GAS  C:\Users\Administrator\AppData\Local\Temp\ccX9Bf8z.s 			page 56


 1296              	.LVL159:
 402:Code\UserApp\Protocol/CmdProtocol.c **** 	uart_buf[cnt++] = 0xff;
 1297              		.loc 1 402 0
 1298 003e D373     		strb	r3, [r2, #15]
 1299              	.LVL160:
 403:Code\UserApp\Protocol/CmdProtocol.c **** 	
 1300              		.loc 1 403 0
 1301 0040 1374     		strb	r3, [r2, #16]
 405:Code\UserApp\Protocol/CmdProtocol.c **** 	uart_buf[cnt++] = (TempCrc >> 8) & 0xFF;
 1302              		.loc 1 405 0
 1303 0042 FFF7FEFF 		bl	MyCrc16Check
 1304              	.LVL161:
 406:Code\UserApp\Protocol/CmdProtocol.c **** 	uart_buf[cnt++] = TempCrc & 0xFF;
 1305              		.loc 1 406 0
 1306 0046 6A46     		mov	r2, sp
 1307 0048 030A     		lsr	r3, r0, #8
 1308 004a 5374     		strb	r3, [r2, #17]
 1309              	.LVL162:
 407:Code\UserApp\Protocol/CmdProtocol.c **** 	
 1310              		.loc 1 407 0
 1311 004c 9074     		strb	r0, [r2, #18]
 409:Code\UserApp\Protocol/CmdProtocol.c **** 	if ((cur_time + 300) > next_heartbeat_time)					// ä¸‹ä¸€æ¬¡å¿ƒè·³åœ¨5minä»¥å†…					//
 1312              		.loc 1 409 0
 1313 004e FFF7FEFF 		bl	RTC_GetUnixTime
 1314              	.LVL163:
 1315 0052 0C4B     		ldr	r3, .L53+4
 1316 0054 1860     		str	r0, [r3]
 410:Code\UserApp\Protocol/CmdProtocol.c **** 	{
 1317              		.loc 1 410 0
 1318 0056 0C4B     		ldr	r3, .L53+8
 1319 0058 2D30     		add	r0, r0, #45
 1320 005a 1A68     		ldr	r2, [r3]
 1321 005c FF30     		add	r0, r0, #255
 1322 005e 9042     		cmp	r0, r2
 1323 0060 00D9     		bls	.L52
 412:Code\UserApp\Protocol/CmdProtocol.c **** 	}
 1324              		.loc 1 412 0
 1325 0062 1860     		str	r0, [r3]
 1326              	.L52:
 414:Code\UserApp\Protocol/CmdProtocol.c **** 	return 0;
 1327              		.loc 1 414 0
 1328 0064 6B46     		mov	r3, sp
 1329 0066 D978     		ldrb	r1, [r3, #3]
 1330 0068 6846     		mov	r0, sp
 1331 006a 0A1D     		add	r2, r1, #4
 1332 006c 9978     		ldrb	r1, [r3, #2]
 1333 006e 0B02     		lsl	r3, r1, #8
 1334 0070 D118     		add	r1, r2, r3
 1335 0072 89B2     		uxth	r1, r1
 1336 0074 FFF7FEFF 		bl	GPRS_SendHexDataToServer
 1337              	.LVL164:
 416:Code\UserApp\Protocol/CmdProtocol.c **** 
 1338              		.loc 1 416 0
 1339 0078 0020     		mov	r0, #0
 1340 007a 19B0     		add	sp, sp, #100
 1341              		@ sp needed
 1342 007c 00BD     		pop	{pc}
ARM GAS  C:\Users\Administrator\AppData\Local\Temp\ccX9Bf8z.s 			page 57


 1343              	.L54:
 1344 007e C046     		.align	2
 1345              	.L53:
 1346 0080 00000000 		.word	Mac_Addr
 1347 0084 00000000 		.word	cur_time
 1348 0088 00000000 		.word	next_heartbeat_time
 1349              		.cfi_endproc
 1350              	.LFE69:
 1351              		.size	send_time_adjust, .-send_time_adjust
 1352              		.section	.text.send_alarm_info,"ax",%progbits
 1353              		.align	1
 1354              		.global	send_alarm_info
 1355              		.code	16
 1356              		.thumb_func
 1357              		.type	send_alarm_info, %function
 1358              	send_alarm_info:
 1359              	.LFB70:
 427:Code\UserApp\Protocol/CmdProtocol.c **** 	uint8 uart_buf[96];
 1360              		.loc 1 427 0
 1361              		.cfi_startproc
 1362              	.LVL165:
 1363 0000 00B5     		push	{lr}
 1364              		.cfi_def_cfa_offset 4
 1365              		.cfi_offset 14, -4
 1366 0002 99B0     		sub	sp, sp, #100
 1367              		.cfi_def_cfa_offset 104
 436:Code\UserApp\Protocol/CmdProtocol.c **** 	uart_buf[cnt++] = 0x3a;
 1368              		.loc 1 436 0
 1369 0004 6A46     		mov	r2, sp
 1370 0006 EF23     		mov	r3, #239
 1371 0008 1370     		strb	r3, [r2]
 1372              	.LVL166:
 437:Code\UserApp\Protocol/CmdProtocol.c **** 	uart_buf[cnt++] = (pack_len >> 8) & 0xFF;					// åŒ…é•¿åº¦é«˜å­—èŠ‚							//
 1373              		.loc 1 437 0
 1374 000a B53B     		sub	r3, r3, #181
 1375 000c 5370     		strb	r3, [r2, #1]
 1376              	.LVL167:
 438:Code\UserApp\Protocol/CmdProtocol.c **** 	uart_buf[cnt++] = pack_len & 0xFF;							// åŒ…é•¿åº¦ä½å­—èŠ‚							//
 1377              		.loc 1 438 0
 1378 000e 0023     		mov	r3, #0
 439:Code\UserApp\Protocol/CmdProtocol.c **** 	uart_buf[cnt++] = 0x01;
 1379              		.loc 1 439 0
 1380 0010 6946     		mov	r1, sp
 438:Code\UserApp\Protocol/CmdProtocol.c **** 	uart_buf[cnt++] = pack_len & 0xFF;							// åŒ…é•¿åº¦ä½å­—èŠ‚							//
 1381              		.loc 1 438 0
 1382 0012 9370     		strb	r3, [r2, #2]
 1383              	.LVL168:
 439:Code\UserApp\Protocol/CmdProtocol.c **** 	uart_buf[cnt++] = 0x01;
 1384              		.loc 1 439 0
 1385 0014 1022     		mov	r2, #16
 1386 0016 CA70     		strb	r2, [r1, #3]
 1387              	.LVL169:
 440:Code\UserApp\Protocol/CmdProtocol.c **** 	uart_buf[cnt++] = 0x01;
 1388              		.loc 1 440 0
 1389 0018 0F3A     		sub	r2, r2, #15
 1390 001a 0A71     		strb	r2, [r1, #4]
 1391              	.LVL170:
ARM GAS  C:\Users\Administrator\AppData\Local\Temp\ccX9Bf8z.s 			page 58


 441:Code\UserApp\Protocol/CmdProtocol.c **** 	uart_buf[cnt++] = 0x0B;
 1392              		.loc 1 441 0
 1393 001c 4A71     		strb	r2, [r1, #5]
 1394              	.LVL171:
 442:Code\UserApp\Protocol/CmdProtocol.c **** 	
 1395              		.loc 1 442 0
 1396 001e 0A32     		add	r2, r2, #10
 1397 0020 8A71     		strb	r2, [r1, #6]
 1398              	.LVL172:
 1399              	.L56:
 446:Code\UserApp\Protocol/CmdProtocol.c **** 	}
 1400              		.loc 1 446 0 discriminator 3
 1401 0022 1A4A     		ldr	r2, .L58
 1402 0024 D15C     		ldrb	r1, [r2, r3]
 1403 0026 1A1C     		mov	r2, r3
 1404 0028 0133     		add	r3, r3, #1
 1405              	.LVL173:
 1406 002a 6A44     		add	r2, r2, sp
 1407 002c D171     		strb	r1, [r2, #7]
 444:Code\UserApp\Protocol/CmdProtocol.c **** 	{
 1408              		.loc 1 444 0 discriminator 3
 1409 002e 062B     		cmp	r3, #6
 1410 0030 F7D1     		bne	.L56
 1411              	.LVL174:
 449:Code\UserApp\Protocol/CmdProtocol.c **** 	
 1412              		.loc 1 449 0
 1413 0032 6B46     		mov	r3, sp
 1414 0034 5873     		strb	r0, [r3, #13]
 451:Code\UserApp\Protocol/CmdProtocol.c **** 	LONG2BYTE(time_tmp, time_arr);
 1415              		.loc 1 451 0
 1416 0036 FFF7FEFF 		bl	RTC_GetUnixTime
 1417              	.LVL175:
 453:Code\UserApp\Protocol/CmdProtocol.c **** 	uart_buf[cnt++] = time_arr[1];
 1418              		.loc 1 453 0
 1419 003a 6A46     		mov	r2, sp
 452:Code\UserApp\Protocol/CmdProtocol.c **** 	uart_buf[cnt++] = time_arr[0];
 1420              		.loc 1 452 0
 1421 003c 030E     		lsr	r3, r0, #24
 453:Code\UserApp\Protocol/CmdProtocol.c **** 	uart_buf[cnt++] = time_arr[1];
 1422              		.loc 1 453 0
 1423 003e 9373     		strb	r3, [r2, #14]
 1424              	.LVL176:
 452:Code\UserApp\Protocol/CmdProtocol.c **** 	uart_buf[cnt++] = time_arr[0];
 1425              		.loc 1 452 0
 1426 0040 030C     		lsr	r3, r0, #16
 454:Code\UserApp\Protocol/CmdProtocol.c **** 	uart_buf[cnt++] = time_arr[2];
 1427              		.loc 1 454 0
 1428 0042 D373     		strb	r3, [r2, #15]
 1429              	.LVL177:
 456:Code\UserApp\Protocol/CmdProtocol.c **** 	
 1430              		.loc 1 456 0
 1431 0044 5074     		strb	r0, [r2, #17]
 452:Code\UserApp\Protocol/CmdProtocol.c **** 	uart_buf[cnt++] = time_arr[0];
 1432              		.loc 1 452 0
 1433 0046 030A     		lsr	r3, r0, #8
 458:Code\UserApp\Protocol/CmdProtocol.c **** 	uart_buf[cnt++] = (TempCrc >> 8) & 0xFF;
 1434              		.loc 1 458 0
ARM GAS  C:\Users\Administrator\AppData\Local\Temp\ccX9Bf8z.s 			page 59


 1435 0048 1221     		mov	r1, #18
 1436 004a 6846     		mov	r0, sp
 1437              	.LVL178:
 455:Code\UserApp\Protocol/CmdProtocol.c **** 	uart_buf[cnt++] = time_arr[3];
 1438              		.loc 1 455 0
 1439 004c 1374     		strb	r3, [r2, #16]
 1440              	.LVL179:
 458:Code\UserApp\Protocol/CmdProtocol.c **** 	uart_buf[cnt++] = (TempCrc >> 8) & 0xFF;
 1441              		.loc 1 458 0
 1442 004e FFF7FEFF 		bl	MyCrc16Check
 1443              	.LVL180:
 459:Code\UserApp\Protocol/CmdProtocol.c **** 	uart_buf[cnt++] = TempCrc & 0xFF;
 1444              		.loc 1 459 0
 1445 0052 6A46     		mov	r2, sp
 1446 0054 030A     		lsr	r3, r0, #8
 1447 0056 9374     		strb	r3, [r2, #18]
 1448              	.LVL181:
 460:Code\UserApp\Protocol/CmdProtocol.c **** 	
 1449              		.loc 1 460 0
 1450 0058 D074     		strb	r0, [r2, #19]
 462:Code\UserApp\Protocol/CmdProtocol.c **** 	if ((cur_time + 300) > next_heartbeat_time)					// ä¸‹ä¸€æ¬¡å¿ƒè·³åœ¨5minä»¥å†…					//
 1451              		.loc 1 462 0
 1452 005a FFF7FEFF 		bl	RTC_GetUnixTime
 1453              	.LVL182:
 1454 005e 0C4B     		ldr	r3, .L58+4
 1455 0060 1860     		str	r0, [r3]
 463:Code\UserApp\Protocol/CmdProtocol.c **** 	{
 1456              		.loc 1 463 0
 1457 0062 0C4B     		ldr	r3, .L58+8
 1458 0064 2D30     		add	r0, r0, #45
 1459 0066 1A68     		ldr	r2, [r3]
 1460 0068 FF30     		add	r0, r0, #255
 1461 006a 9042     		cmp	r0, r2
 1462 006c 00D9     		bls	.L57
 465:Code\UserApp\Protocol/CmdProtocol.c **** 	}
 1463              		.loc 1 465 0
 1464 006e 1860     		str	r0, [r3]
 1465              	.L57:
 467:Code\UserApp\Protocol/CmdProtocol.c **** 	return 0;
 1466              		.loc 1 467 0
 1467 0070 6B46     		mov	r3, sp
 1468 0072 D978     		ldrb	r1, [r3, #3]
 1469 0074 6846     		mov	r0, sp
 1470 0076 0A1D     		add	r2, r1, #4
 1471 0078 9978     		ldrb	r1, [r3, #2]
 1472 007a 0B02     		lsl	r3, r1, #8
 1473 007c D118     		add	r1, r2, r3
 1474 007e 89B2     		uxth	r1, r1
 1475 0080 FFF7FEFF 		bl	GPRS_SendHexDataToServer
 1476              	.LVL183:
 469:Code\UserApp\Protocol/CmdProtocol.c **** 
 1477              		.loc 1 469 0
 1478 0084 0020     		mov	r0, #0
 1479 0086 19B0     		add	sp, sp, #100
 1480              		@ sp needed
 1481 0088 00BD     		pop	{pc}
 1482              	.L59:
ARM GAS  C:\Users\Administrator\AppData\Local\Temp\ccX9Bf8z.s 			page 60


 1483 008a C046     		.align	2
 1484              	.L58:
 1485 008c 00000000 		.word	Mac_Addr
 1486 0090 00000000 		.word	cur_time
 1487 0094 00000000 		.word	next_heartbeat_time
 1488              		.cfi_endproc
 1489              	.LFE70:
 1490              		.size	send_alarm_info, .-send_alarm_info
 1491              		.section	.text.send_update_req,"ax",%progbits
 1492              		.align	1
 1493              		.global	send_update_req
 1494              		.code	16
 1495              		.thumb_func
 1496              		.type	send_update_req, %function
 1497              	send_update_req:
 1498              	.LFB71:
 481:Code\UserApp\Protocol/CmdProtocol.c **** 	uint8 uart_buf[96];
 1499              		.loc 1 481 0
 1500              		.cfi_startproc
 1501              	.LVL184:
 1502 0000 00B5     		push	{lr}
 1503              		.cfi_def_cfa_offset 4
 1504              		.cfi_offset 14, -4
 1505 0002 99B0     		sub	sp, sp, #100
 1506              		.cfi_def_cfa_offset 104
 490:Code\UserApp\Protocol/CmdProtocol.c **** 	uart_buf[cnt++] = 0x3a;
 1507              		.loc 1 490 0
 1508 0004 6A46     		mov	r2, sp
 1509 0006 EF23     		mov	r3, #239
 1510 0008 1370     		strb	r3, [r2]
 1511              	.LVL185:
 491:Code\UserApp\Protocol/CmdProtocol.c **** 	uart_buf[cnt++] = (pack_len >> 8) & 0xFF;					// åŒ…é•¿åº¦é«˜å­—èŠ‚							//
 1512              		.loc 1 491 0
 1513 000a B53B     		sub	r3, r3, #181
 1514 000c 5370     		strb	r3, [r2, #1]
 1515              	.LVL186:
 492:Code\UserApp\Protocol/CmdProtocol.c **** 	uart_buf[cnt++] = pack_len & 0xFF;							// åŒ…é•¿åº¦ä½å­—èŠ‚							//
 1516              		.loc 1 492 0
 1517 000e 0023     		mov	r3, #0
 493:Code\UserApp\Protocol/CmdProtocol.c **** 	uart_buf[cnt++] = 0x01;
 1518              		.loc 1 493 0
 1519 0010 6946     		mov	r1, sp
 492:Code\UserApp\Protocol/CmdProtocol.c **** 	uart_buf[cnt++] = pack_len & 0xFF;							// åŒ…é•¿åº¦ä½å­—èŠ‚							//
 1520              		.loc 1 492 0
 1521 0012 9370     		strb	r3, [r2, #2]
 1522              	.LVL187:
 493:Code\UserApp\Protocol/CmdProtocol.c **** 	uart_buf[cnt++] = 0x01;
 1523              		.loc 1 493 0
 1524 0014 1322     		mov	r2, #19
 1525 0016 CA70     		strb	r2, [r1, #3]
 1526              	.LVL188:
 494:Code\UserApp\Protocol/CmdProtocol.c **** 	uart_buf[cnt++] = 0x01;
 1527              		.loc 1 494 0
 1528 0018 123A     		sub	r2, r2, #18
 1529 001a 0A71     		strb	r2, [r1, #4]
 1530              	.LVL189:
 495:Code\UserApp\Protocol/CmdProtocol.c **** 	uart_buf[cnt++] = 0x0F;
ARM GAS  C:\Users\Administrator\AppData\Local\Temp\ccX9Bf8z.s 			page 61


 1531              		.loc 1 495 0
 1532 001c 4A71     		strb	r2, [r1, #5]
 1533              	.LVL190:
 496:Code\UserApp\Protocol/CmdProtocol.c **** 	
 1534              		.loc 1 496 0
 1535 001e 0E32     		add	r2, r2, #14
 1536 0020 8A71     		strb	r2, [r1, #6]
 1537              	.LVL191:
 1538              	.L61:
 500:Code\UserApp\Protocol/CmdProtocol.c **** 	}
 1539              		.loc 1 500 0 discriminator 3
 1540 0022 184A     		ldr	r2, .L62
 1541 0024 D15C     		ldrb	r1, [r2, r3]
 1542 0026 1A1C     		mov	r2, r3
 1543 0028 0133     		add	r3, r3, #1
 1544              	.LVL192:
 1545 002a 6A44     		add	r2, r2, sp
 1546 002c D171     		strb	r1, [r2, #7]
 498:Code\UserApp\Protocol/CmdProtocol.c **** 	{
 1547              		.loc 1 498 0 discriminator 3
 1548 002e 062B     		cmp	r3, #6
 1549 0030 F7D1     		bne	.L61
 1550              	.LVL193:
 503:Code\UserApp\Protocol/CmdProtocol.c **** 	uart_buf[cnt++] = page & 0xFF;	
 1551              		.loc 1 503 0
 1552 0032 6A46     		mov	r2, sp
 506:Code\UserApp\Protocol/CmdProtocol.c **** 	uart_buf[cnt++] = update_version & 0xFF;								
 1553              		.loc 1 506 0
 1554 0034 6946     		mov	r1, sp
 503:Code\UserApp\Protocol/CmdProtocol.c **** 	uart_buf[cnt++] = page & 0xFF;	
 1555              		.loc 1 503 0
 1556 0036 030A     		lsr	r3, r0, #8
 1557 0038 5373     		strb	r3, [r2, #13]
 1558              	.LVL194:
 506:Code\UserApp\Protocol/CmdProtocol.c **** 	uart_buf[cnt++] = update_version & 0xFF;								
 1559              		.loc 1 506 0
 1560 003a 134B     		ldr	r3, .L62+4
 504:Code\UserApp\Protocol/CmdProtocol.c **** 	
 1561              		.loc 1 504 0
 1562 003c 9073     		strb	r0, [r2, #14]
 1563              	.LVL195:
 506:Code\UserApp\Protocol/CmdProtocol.c **** 	uart_buf[cnt++] = update_version & 0xFF;								
 1564              		.loc 1 506 0
 1565 003e 1B88     		ldrh	r3, [r3]
 1566 0040 1A0A     		lsr	r2, r3, #8
 1567 0042 CA73     		strb	r2, [r1, #15]
 1568              	.LVL196:
 507:Code\UserApp\Protocol/CmdProtocol.c **** 		
 1569              		.loc 1 507 0
 1570 0044 0B74     		strb	r3, [r1, #16]
 509:Code\UserApp\Protocol/CmdProtocol.c **** 	LONG2BYTE(time_tmp, time_arr);
 1571              		.loc 1 509 0
 1572 0046 FFF7FEFF 		bl	RTC_GetUnixTime
 1573              	.LVL197:
 511:Code\UserApp\Protocol/CmdProtocol.c **** 	uart_buf[cnt++] = time_arr[1];
 1574              		.loc 1 511 0
 1575 004a 6A46     		mov	r2, sp
ARM GAS  C:\Users\Administrator\AppData\Local\Temp\ccX9Bf8z.s 			page 62


 510:Code\UserApp\Protocol/CmdProtocol.c **** 	uart_buf[cnt++] = time_arr[0];
 1576              		.loc 1 510 0
 1577 004c 030E     		lsr	r3, r0, #24
 511:Code\UserApp\Protocol/CmdProtocol.c **** 	uart_buf[cnt++] = time_arr[1];
 1578              		.loc 1 511 0
 1579 004e 5374     		strb	r3, [r2, #17]
 1580              	.LVL198:
 510:Code\UserApp\Protocol/CmdProtocol.c **** 	uart_buf[cnt++] = time_arr[0];
 1581              		.loc 1 510 0
 1582 0050 030C     		lsr	r3, r0, #16
 512:Code\UserApp\Protocol/CmdProtocol.c **** 	uart_buf[cnt++] = time_arr[2];
 1583              		.loc 1 512 0
 1584 0052 9374     		strb	r3, [r2, #18]
 1585              	.LVL199:
 514:Code\UserApp\Protocol/CmdProtocol.c **** 
 1586              		.loc 1 514 0
 1587 0054 1075     		strb	r0, [r2, #20]
 510:Code\UserApp\Protocol/CmdProtocol.c **** 	uart_buf[cnt++] = time_arr[0];
 1588              		.loc 1 510 0
 1589 0056 030A     		lsr	r3, r0, #8
 516:Code\UserApp\Protocol/CmdProtocol.c **** 	uart_buf[cnt++] = (TempCrc >> 8) & 0xFF;
 1590              		.loc 1 516 0
 1591 0058 1521     		mov	r1, #21
 1592 005a 6846     		mov	r0, sp
 1593              	.LVL200:
 513:Code\UserApp\Protocol/CmdProtocol.c **** 	uart_buf[cnt++] = time_arr[3];
 1594              		.loc 1 513 0
 1595 005c D374     		strb	r3, [r2, #19]
 1596              	.LVL201:
 516:Code\UserApp\Protocol/CmdProtocol.c **** 	uart_buf[cnt++] = (TempCrc >> 8) & 0xFF;
 1597              		.loc 1 516 0
 1598 005e FFF7FEFF 		bl	MyCrc16Check
 1599              	.LVL202:
 517:Code\UserApp\Protocol/CmdProtocol.c **** 	uart_buf[cnt++] = TempCrc & 0xFF;
 1600              		.loc 1 517 0
 1601 0062 6A46     		mov	r2, sp
 1602 0064 030A     		lsr	r3, r0, #8
 1603 0066 5375     		strb	r3, [r2, #21]
 1604              	.LVL203:
 518:Code\UserApp\Protocol/CmdProtocol.c **** 	GPRS_SendHexDataToServer((uint8_t *)uart_buf, ((uart_buf[2] << 8) + uart_buf[3] + 4));
 1605              		.loc 1 518 0
 1606 0068 6B46     		mov	r3, sp
 519:Code\UserApp\Protocol/CmdProtocol.c **** 	
 1607              		.loc 1 519 0
 1608 006a D178     		ldrb	r1, [r2, #3]
 518:Code\UserApp\Protocol/CmdProtocol.c **** 	GPRS_SendHexDataToServer((uint8_t *)uart_buf, ((uart_buf[2] << 8) + uart_buf[3] + 4));
 1609              		.loc 1 518 0
 1610 006c 9075     		strb	r0, [r2, #22]
 1611 006e 0A1D     		add	r2, r1, #4
 519:Code\UserApp\Protocol/CmdProtocol.c **** 	
 1612              		.loc 1 519 0
 1613 0070 9978     		ldrb	r1, [r3, #2]
 1614 0072 6846     		mov	r0, sp
 1615              	.LVL204:
 1616 0074 0B02     		lsl	r3, r1, #8
 1617 0076 D118     		add	r1, r2, r3
 1618 0078 89B2     		uxth	r1, r1
ARM GAS  C:\Users\Administrator\AppData\Local\Temp\ccX9Bf8z.s 			page 63


 1619 007a FFF7FEFF 		bl	GPRS_SendHexDataToServer
 1620              	.LVL205:
 522:Code\UserApp\Protocol/CmdProtocol.c **** 
 1621              		.loc 1 522 0
 1622 007e 0020     		mov	r0, #0
 1623 0080 19B0     		add	sp, sp, #100
 1624              		@ sp needed
 1625 0082 00BD     		pop	{pc}
 1626              	.L63:
 1627              		.align	2
 1628              	.L62:
 1629 0084 00000000 		.word	Mac_Addr
 1630 0088 00000000 		.word	update_version
 1631              		.cfi_endproc
 1632              	.LFE71:
 1633              		.size	send_update_req, .-send_update_req
 1634              		.section	.text.Protocol_CmdRemoteDownload,"ax",%progbits
 1635              		.align	1
 1636              		.code	16
 1637              		.thumb_func
 1638              		.type	Protocol_CmdRemoteDownload, %function
 1639              	Protocol_CmdRemoteDownload:
 1640              	.LFB87:
1394:Code\UserApp\Protocol/CmdProtocol.c **** 	uint8 ReadDataBuf[DATABUF_SIZE];
 1641              		.loc 1 1394 0
 1642              		.cfi_startproc
 1643              	.LVL206:
 1644 0000 F0B5     		push	{r4, r5, r6, r7, lr}
 1645              		.cfi_def_cfa_offset 20
 1646              		.cfi_offset 4, -20
 1647              		.cfi_offset 5, -16
 1648              		.cfi_offset 6, -12
 1649              		.cfi_offset 7, -8
 1650              		.cfi_offset 14, -4
1401:Code\UserApp\Protocol/CmdProtocol.c **** 	
 1651              		.loc 1 1401 0
 1652 0002 457B     		ldrb	r5, [r0, #13]
 1653 0004 827B     		ldrb	r2, [r0, #14]
1408:Code\UserApp\Protocol/CmdProtocol.c **** 	{
 1654              		.loc 1 1408 0
 1655 0006 3B4F     		ldr	r7, .L74
1401:Code\UserApp\Protocol/CmdProtocol.c **** 	
 1656              		.loc 1 1401 0
 1657 0008 2D02     		lsl	r5, r5, #8
1394:Code\UserApp\Protocol/CmdProtocol.c **** 	uint8 ReadDataBuf[DATABUF_SIZE];
 1658              		.loc 1 1394 0
 1659 000a 3B4C     		ldr	r4, .L74+4
1401:Code\UserApp\Protocol/CmdProtocol.c **** 	
 1660              		.loc 1 1401 0
 1661 000c 5519     		add	r5, r2, r5
1408:Code\UserApp\Protocol/CmdProtocol.c **** 	{
 1662              		.loc 1 1408 0
 1663 000e 3A88     		ldrh	r2, [r7]
1401:Code\UserApp\Protocol/CmdProtocol.c **** 	
 1664              		.loc 1 1401 0
 1665 0010 ADB2     		uxth	r5, r5
1394:Code\UserApp\Protocol/CmdProtocol.c **** 	uint8 ReadDataBuf[DATABUF_SIZE];
ARM GAS  C:\Users\Administrator\AppData\Local\Temp\ccX9Bf8z.s 			page 64


 1666              		.loc 1 1394 0
 1667 0012 A544     		add	sp, sp, r4
 1668              		.cfi_def_cfa_offset 1080
1398:Code\UserApp\Protocol/CmdProtocol.c **** 	uint16 curr_packet_len = nCmdPackLen - 18;					// å½“å‰å‡çº§æ•°æ®åŒ…å†…å®¹é•¿åº¦				//
 1669              		.loc 1 1398 0
 1670 0014 C378     		ldrb	r3, [r0, #3]
 1671 0016 8478     		ldrb	r4, [r0, #2]
 1672              	.LVL207:
1408:Code\UserApp\Protocol/CmdProtocol.c **** 	{
 1673              		.loc 1 1408 0
 1674 0018 AA42     		cmp	r2, r5
 1675 001a 01D0     		beq	.L65
1408:Code\UserApp\Protocol/CmdProtocol.c **** 	{
 1676              		.loc 1 1408 0 is_stmt 0 discriminator 1
 1677 001c 002D     		cmp	r5, #0
 1678 001e 56D1     		bne	.L66
 1679              	.L65:
1410:Code\UserApp\Protocol/CmdProtocol.c **** 		W25QXX_Read(ReadDataBuf, W25X_IMAGESTART_ADDR + update_offset, curr_packet_len);
 1680              		.loc 1 1410 0 is_stmt 1
 1681 0020 0F30     		add	r0, r0, #15
 1682              	.LVL208:
 1683 0022 061C     		mov	r6, r0
 1684 0024 354F     		ldr	r7, .L74+8
 1685 0026 123B     		sub	r3, r3, #18
 1686              	.LVL209:
1398:Code\UserApp\Protocol/CmdProtocol.c **** 	uint16 curr_packet_len = nCmdPackLen - 18;					// å½“å‰å‡çº§æ•°æ®åŒ…å†…å®¹é•¿åº¦				//
 1687              		.loc 1 1398 0
 1688 0028 2402     		lsl	r4, r4, #8
 1689              	.LVL210:
1399:Code\UserApp\Protocol/CmdProtocol.c **** 	
 1690              		.loc 1 1399 0
 1691 002a 1C19     		add	r4, r3, r4
1410:Code\UserApp\Protocol/CmdProtocol.c **** 		W25QXX_Read(ReadDataBuf, W25X_IMAGESTART_ADDR + update_offset, curr_packet_len);
 1692              		.loc 1 1410 0
 1693 002c 344A     		ldr	r2, .L74+12
 1694 002e 3B68     		ldr	r3, [r7]
 1695              	.LVL211:
1399:Code\UserApp\Protocol/CmdProtocol.c **** 	
 1696              		.loc 1 1399 0
 1697 0030 A4B2     		uxth	r4, r4
1410:Code\UserApp\Protocol/CmdProtocol.c **** 		W25QXX_Read(ReadDataBuf, W25X_IMAGESTART_ADDR + update_offset, curr_packet_len);
 1698              		.loc 1 1410 0
 1699 0032 9918     		add	r1, r3, r2
 1700 0034 221C     		mov	r2, r4
 1701 0036 FFF7FEFF 		bl	W25QXX_Write
 1702              	.LVL212:
1411:Code\UserApp\Protocol/CmdProtocol.c **** 		if (memcmp(RecBuf + 15, ReadDataBuf, curr_packet_len) == 0)
 1703              		.loc 1 1411 0
 1704 003a 3B68     		ldr	r3, [r7]
 1705 003c 304A     		ldr	r2, .L74+12
 1706 003e 01A8     		add	r0, sp, #4
 1707 0040 9918     		add	r1, r3, r2
 1708 0042 221C     		mov	r2, r4
 1709 0044 FFF7FEFF 		bl	W25QXX_Read
 1710              	.LVL213:
1412:Code\UserApp\Protocol/CmdProtocol.c **** 		{
 1711              		.loc 1 1412 0
ARM GAS  C:\Users\Administrator\AppData\Local\Temp\ccX9Bf8z.s 			page 65


 1712 0048 301C     		mov	r0, r6
 1713 004a 01A9     		add	r1, sp, #4
 1714 004c 221C     		mov	r2, r4
 1715 004e FFF7FEFF 		bl	memcmp
 1716              	.LVL214:
 1717 0052 061E     		sub	r6, r0, #0
 1718              	.LVL215:
 1719 0054 28D1     		bne	.L67
1414:Code\UserApp\Protocol/CmdProtocol.c **** 			if (recv_page != 0)
 1720              		.loc 1 1414 0
 1721 0056 3B68     		ldr	r3, [r7]
 1722 0058 2A4A     		ldr	r2, .L74+16
 1723 005a E318     		add	r3, r4, r3
 1724 005c 3B60     		str	r3, [r7]
1415:Code\UserApp\Protocol/CmdProtocol.c **** 			{	
 1725              		.loc 1 1415 0
 1726 005e 002D     		cmp	r5, #0
 1727 0060 0FD0     		beq	.L68
1417:Code\UserApp\Protocol/CmdProtocol.c **** 				Image_size += curr_packet_len;
 1728              		.loc 1 1417 0
 1729 0062 244B     		ldr	r3, .L74
 1730 0064 1888     		ldrh	r0, [r3]
 1731 0066 0130     		add	r0, r0, #1
 1732 0068 80B2     		uxth	r0, r0
 1733 006a 1880     		strh	r0, [r3]
1418:Code\UserApp\Protocol/CmdProtocol.c **** 				send_update_req(update_page);
 1734              		.loc 1 1418 0
 1735 006c 1368     		ldr	r3, [r2]
 1736 006e E418     		add	r4, r4, r3
 1737 0070 1460     		str	r4, [r2]
1419:Code\UserApp\Protocol/CmdProtocol.c **** 				update_timeout_time = 10000;
 1738              		.loc 1 1419 0
 1739 0072 FFF7FEFF 		bl	send_update_req
 1740              	.LVL216:
1420:Code\UserApp\Protocol/CmdProtocol.c **** 				update_timeout_count = 0;
 1741              		.loc 1 1420 0
 1742 0076 244B     		ldr	r3, .L74+20
 1743 0078 244A     		ldr	r2, .L74+24
 1744 007a 1A60     		str	r2, [r3]
1421:Code\UserApp\Protocol/CmdProtocol.c **** 			}
 1745              		.loc 1 1421 0
 1746 007c 244B     		ldr	r3, .L74+28
 1747 007e 1E70     		strb	r6, [r3]
 1748 0080 34E0     		b	.L64
 1749              	.L68:
1425:Code\UserApp\Protocol/CmdProtocol.c **** 				data_size[2] = (uint8)(update_offset >> 24);
 1750              		.loc 1 1425 0
 1751 0082 1168     		ldr	r1, [r2]
1431:Code\UserApp\Protocol/CmdProtocol.c **** 				gprs_state = UPDATE_FINISH;
 1752              		.loc 1 1431 0
 1753 0084 6846     		mov	r0, sp
1425:Code\UserApp\Protocol/CmdProtocol.c **** 				data_size[2] = (uint8)(update_offset >> 24);
 1754              		.loc 1 1425 0
 1755 0086 6418     		add	r4, r4, r1
1426:Code\UserApp\Protocol/CmdProtocol.c **** 				data_size[3] = (uint8)(update_offset >> 16);	// é«˜ä½åœ¨å[2-3]
 1756              		.loc 1 1426 0
 1757 0088 6946     		mov	r1, sp
ARM GAS  C:\Users\Administrator\AppData\Local\Temp\ccX9Bf8z.s 			page 66


1425:Code\UserApp\Protocol/CmdProtocol.c **** 				data_size[2] = (uint8)(update_offset >> 24);
 1758              		.loc 1 1425 0
 1759 008a 1460     		str	r4, [r2]
1426:Code\UserApp\Protocol/CmdProtocol.c **** 				data_size[3] = (uint8)(update_offset >> 16);	// é«˜ä½åœ¨å[2-3]
 1760              		.loc 1 1426 0
 1761 008c 1A0E     		lsr	r2, r3, #24
 1762 008e 8A70     		strb	r2, [r1, #2]
1427:Code\UserApp\Protocol/CmdProtocol.c **** 				data_size[0] = (uint8)(update_offset >> 8);
 1763              		.loc 1 1427 0
 1764 0090 1A0C     		lsr	r2, r3, #16
 1765 0092 CA70     		strb	r2, [r1, #3]
1428:Code\UserApp\Protocol/CmdProtocol.c **** 				data_size[1] = (uint8)update_offset;
 1766              		.loc 1 1428 0
 1767 0094 1A0A     		lsr	r2, r3, #8
 1768 0096 0A70     		strb	r2, [r1]
1429:Code\UserApp\Protocol/CmdProtocol.c **** 				
 1769              		.loc 1 1429 0
 1770 0098 4B70     		strb	r3, [r1, #1]
1431:Code\UserApp\Protocol/CmdProtocol.c **** 				gprs_state = UPDATE_FINISH;
 1771              		.loc 1 1431 0
 1772 009a C821     		mov	r1, #200
 1773 009c 0422     		mov	r2, #4
 1774 009e 8902     		lsl	r1, r1, #10
 1775 00a0 FFF7FEFF 		bl	W25QXX_Write
 1776              	.LVL217:
1432:Code\UserApp\Protocol/CmdProtocol.c **** 			}
 1777              		.loc 1 1432 0
 1778 00a4 0B22     		mov	r2, #11
 1779 00a6 0AE0     		b	.L72
 1780              	.L67:
1437:Code\UserApp\Protocol/CmdProtocol.c **** 			if (update_timeout_count >= 3)
 1781              		.loc 1 1437 0
 1782 00a8 194A     		ldr	r2, .L74+28
 1783 00aa 1378     		ldrb	r3, [r2]
 1784 00ac 0133     		add	r3, r3, #1
 1785 00ae DBB2     		uxtb	r3, r3
 1786 00b0 1370     		strb	r3, [r2]
1438:Code\UserApp\Protocol/CmdProtocol.c **** 			{
 1787              		.loc 1 1438 0
 1788 00b2 022B     		cmp	r3, #2
 1789 00b4 06D9     		bls	.L70
 1790              	.L71:
1440:Code\UserApp\Protocol/CmdProtocol.c **** 				gprs_state = NEED_INIT;
 1791              		.loc 1 1440 0
 1792 00b6 0022     		mov	r2, #0
 1793 00b8 154B     		ldr	r3, .L74+28
 1794 00ba 1A70     		strb	r2, [r3]
1441:Code\UserApp\Protocol/CmdProtocol.c **** 			}
 1795              		.loc 1 1441 0
 1796 00bc 0632     		add	r2, r2, #6
 1797              	.L72:
 1798 00be 154B     		ldr	r3, .L74+32
 1799 00c0 1A70     		strb	r2, [r3]
 1800 00c2 13E0     		b	.L64
 1801              	.L70:
1445:Code\UserApp\Protocol/CmdProtocol.c **** 				send_update_req(update_page);
 1802              		.loc 1 1445 0
ARM GAS  C:\Users\Administrator\AppData\Local\Temp\ccX9Bf8z.s 			page 67


 1803 00c4 FFF7FEFF 		bl	Cmd_Protocol_ParaInit
 1804              	.LVL218:
1446:Code\UserApp\Protocol/CmdProtocol.c **** 				update_timeout_time = 10000;
 1805              		.loc 1 1446 0
 1806 00c8 0A4B     		ldr	r3, .L74
 1807 00ca 1888     		ldrh	r0, [r3]
 1808 00cc 09E0     		b	.L73
 1809              	.LVL219:
 1810              	.L66:
1453:Code\UserApp\Protocol/CmdProtocol.c **** 		if (update_timeout_count >= 3)
 1811              		.loc 1 1453 0
 1812 00ce 104A     		ldr	r2, .L74+28
 1813 00d0 1378     		ldrb	r3, [r2]
 1814              	.LVL220:
 1815 00d2 0133     		add	r3, r3, #1
 1816 00d4 DBB2     		uxtb	r3, r3
 1817 00d6 1370     		strb	r3, [r2]
1454:Code\UserApp\Protocol/CmdProtocol.c **** 		{
 1818              		.loc 1 1454 0
 1819 00d8 022B     		cmp	r3, #2
 1820 00da ECD8     		bhi	.L71
1461:Code\UserApp\Protocol/CmdProtocol.c **** 			send_update_req(update_page);
 1821              		.loc 1 1461 0
 1822 00dc FFF7FEFF 		bl	Cmd_Protocol_ParaInit
 1823              	.LVL221:
1462:Code\UserApp\Protocol/CmdProtocol.c **** 			update_timeout_time = 10000;
 1824              		.loc 1 1462 0
 1825 00e0 3888     		ldrh	r0, [r7]
 1826              	.L73:
 1827 00e2 FFF7FEFF 		bl	send_update_req
 1828              	.LVL222:
1463:Code\UserApp\Protocol/CmdProtocol.c **** 		}
 1829              		.loc 1 1463 0
 1830 00e6 094A     		ldr	r2, .L74+24
 1831 00e8 074B     		ldr	r3, .L74+20
 1832 00ea 1A60     		str	r2, [r3]
 1833              	.L64:
1469:Code\UserApp\Protocol/CmdProtocol.c **** 
 1834              		.loc 1 1469 0
 1835 00ec 0A4B     		ldr	r3, .L74+36
 1836 00ee 9D44     		add	sp, sp, r3
 1837              		@ sp needed
 1838              	.LVL223:
 1839 00f0 F0BD     		pop	{r4, r5, r6, r7, pc}
 1840              	.L75:
 1841 00f2 C046     		.align	2
 1842              	.L74:
 1843 00f4 00000000 		.word	update_page
 1844 00f8 DCFBFFFF 		.word	-1060
 1845 00fc 00000000 		.word	update_offset
 1846 0100 00210300 		.word	205056
 1847 0104 00000000 		.word	Image_size
 1848 0108 00000000 		.word	update_timeout_time
 1849 010c 10270000 		.word	10000
 1850 0110 00000000 		.word	update_timeout_count
 1851 0114 00000000 		.word	gprs_state
 1852 0118 24040000 		.word	1060
ARM GAS  C:\Users\Administrator\AppData\Local\Temp\ccX9Bf8z.s 			page 68


 1853              		.cfi_endproc
 1854              	.LFE87:
 1855              		.size	Protocol_CmdRemoteDownload, .-Protocol_CmdRemoteDownload
 1856              		.section	.text.Protocol_SendAckPacket,"ax",%progbits
 1857              		.align	1
 1858              		.global	Protocol_SendAckPacket
 1859              		.code	16
 1860              		.thumb_func
 1861              		.type	Protocol_SendAckPacket, %function
 1862              	Protocol_SendAckPacket:
 1863              	.LFB72:
 537:Code\UserApp\Protocol/CmdProtocol.c **** 	uint8 AppResponseBuf[256] = {0};
 1864              		.loc 1 537 0
 1865              		.cfi_startproc
 1866              	.LVL224:
 1867 0000 F0B5     		push	{r4, r5, r6, r7, lr}
 1868              		.cfi_def_cfa_offset 20
 1869              		.cfi_offset 4, -20
 1870              		.cfi_offset 5, -16
 1871              		.cfi_offset 6, -12
 1872              		.cfi_offset 7, -8
 1873              		.cfi_offset 14, -4
 1874 0002 C3B0     		sub	sp, sp, #268
 1875              		.cfi_def_cfa_offset 288
 537:Code\UserApp\Protocol/CmdProtocol.c **** 	uint8 AppResponseBuf[256] = {0};
 1876              		.loc 1 537 0
 1877 0004 0092     		str	r2, [sp]
 546:Code\UserApp\Protocol/CmdProtocol.c **** 	AppResponseBuf[NoPtr++] = HEAD_BYTE1;
 1878              		.loc 1 546 0
 1879 0006 8022     		mov	r2, #128
 1880              	.LVL225:
 537:Code\UserApp\Protocol/CmdProtocol.c **** 	uint8 AppResponseBuf[256] = {0};
 1881              		.loc 1 537 0
 1882 0008 061C     		mov	r6, r0
 1883 000a 0C1C     		mov	r4, r1
 1884 000c 0193     		str	r3, [sp, #4]
 546:Code\UserApp\Protocol/CmdProtocol.c **** 	AppResponseBuf[NoPtr++] = HEAD_BYTE1;
 1885              		.loc 1 546 0
 1886 000e 5200     		lsl	r2, r2, #1
 537:Code\UserApp\Protocol/CmdProtocol.c **** 	uint8 AppResponseBuf[256] = {0};
 1887              		.loc 1 537 0
 1888 0010 48AB     		add	r3, sp, #288
 1889              	.LVL226:
 546:Code\UserApp\Protocol/CmdProtocol.c **** 	AppResponseBuf[NoPtr++] = HEAD_BYTE1;
 1890              		.loc 1 546 0
 1891 0012 02A8     		add	r0, sp, #8
 1892              	.LVL227:
 1893 0014 0021     		mov	r1, #0
 1894              	.LVL228:
 537:Code\UserApp\Protocol/CmdProtocol.c **** 	uint8 AppResponseBuf[256] = {0};
 1895              		.loc 1 537 0
 1896 0016 1F88     		ldrh	r7, [r3]
 546:Code\UserApp\Protocol/CmdProtocol.c **** 	AppResponseBuf[NoPtr++] = HEAD_BYTE1;
 1897              		.loc 1 546 0
 1898 0018 FFF7FEFF 		bl	memset
 1899              	.LVL229:
 547:Code\UserApp\Protocol/CmdProtocol.c **** 	AppResponseBuf[NoPtr++] = HEAD_BYTE2;
ARM GAS  C:\Users\Administrator\AppData\Local\Temp\ccX9Bf8z.s 			page 69


 1900              		.loc 1 547 0
 1901 001c EF23     		mov	r3, #239
 1902 001e 02AA     		add	r2, sp, #8
 545:Code\UserApp\Protocol/CmdProtocol.c **** 	memset(AppResponseBuf, 0, sizeof(AppResponseBuf));
 1903              		.loc 1 545 0
 1904 0020 7D1D     		add	r5, r7, #5
 547:Code\UserApp\Protocol/CmdProtocol.c **** 	AppResponseBuf[NoPtr++] = HEAD_BYTE2;
 1905              		.loc 1 547 0
 1906 0022 1370     		strb	r3, [r2]
 545:Code\UserApp\Protocol/CmdProtocol.c **** 	memset(AppResponseBuf, 0, sizeof(AppResponseBuf));
 1907              		.loc 1 545 0
 1908 0024 ADB2     		uxth	r5, r5
 1909              	.LVL230:
 548:Code\UserApp\Protocol/CmdProtocol.c **** 	AppResponseBuf[NoPtr++] = (nPacketLen >> 8) & 0xff;
 1910              		.loc 1 548 0
 1911 0026 B53B     		sub	r3, r3, #181
 1912 0028 5370     		strb	r3, [r2, #1]
 1913              	.LVL231:
 549:Code\UserApp\Protocol/CmdProtocol.c **** 	AppResponseBuf[NoPtr++] = nPacketLen & 0xff;
 1914              		.loc 1 549 0
 1915 002a 2B0A     		lsr	r3, r5, #8
 1916 002c 9370     		strb	r3, [r2, #2]
 1917              	.LVL232:
 552:Code\UserApp\Protocol/CmdProtocol.c **** 	AppResponseBuf[NoPtr++] = cCmd;
 1918              		.loc 1 552 0
 1919 002e 0123     		mov	r3, #1
 551:Code\UserApp\Protocol/CmdProtocol.c **** 	AppResponseBuf[NoPtr++] = PROTOCOL_VER; 
 1920              		.loc 1 551 0
 1921 0030 2401     		lsl	r4, r4, #4
 1922 0032 3443     		orr	r4, r6
 1923 0034 1471     		strb	r4, [r2, #4]
 552:Code\UserApp\Protocol/CmdProtocol.c **** 	AppResponseBuf[NoPtr++] = cCmd;
 1924              		.loc 1 552 0
 1925 0036 5371     		strb	r3, [r2, #5]
 550:Code\UserApp\Protocol/CmdProtocol.c **** 	AppResponseBuf[NoPtr++] = CommChanle | (cPackType << 4);
 1926              		.loc 1 550 0
 1927 0038 D570     		strb	r5, [r2, #3]
 1928              	.LVL233:
 553:Code\UserApp\Protocol/CmdProtocol.c **** 
 1929              		.loc 1 553 0
 1930 003a 131C     		mov	r3, r2
 1931 003c 6A46     		mov	r2, sp
 1932 003e 1278     		ldrb	r2, [r2]
 1933 0040 0724     		mov	r4, #7
 1934 0042 9A71     		strb	r2, [r3, #6]
 561:Code\UserApp\Protocol/CmdProtocol.c **** 	{
 1935              		.loc 1 561 0
 1936 0044 002F     		cmp	r7, #0
 1937 0046 0AD0     		beq	.L78
 1938              	.LVL234:
 1939              	.L77:
 1940 0048 E31F     		sub	r3, r4, #7
 1941 004a DBB2     		uxtb	r3, r3
 1942              	.LVL235:
 563:Code\UserApp\Protocol/CmdProtocol.c **** 		{
 1943              		.loc 1 563 0 discriminator 1
 1944 004c BB42     		cmp	r3, r7
ARM GAS  C:\Users\Administrator\AppData\Local\Temp\ccX9Bf8z.s 			page 70


 1945 004e 06D2     		bcs	.L78
 565:Code\UserApp\Protocol/CmdProtocol.c **** 		}
 1946              		.loc 1 565 0 discriminator 3
 1947 0050 0199     		ldr	r1, [sp, #4]
 1948 0052 621C     		add	r2, r4, #1
 1949              	.LVL236:
 1950 0054 CB5C     		ldrb	r3, [r1, r3]
 1951              	.LVL237:
 1952 0056 02A9     		add	r1, sp, #8
 1953 0058 0B55     		strb	r3, [r1, r4]
 1954              	.LVL238:
 1955 005a 94B2     		uxth	r4, r2
 1956 005c F4E7     		b	.L77
 1957              	.LVL239:
 1958              	.L78:
 569:Code\UserApp\Protocol/CmdProtocol.c **** 
 1959              		.loc 1 569 0
 1960 005e 211C     		mov	r1, r4
 1961 0060 02A8     		add	r0, sp, #8
 1962 0062 FFF7FEFF 		bl	MyCrc16Check
 1963              	.LVL240:
 571:Code\UserApp\Protocol/CmdProtocol.c **** 	AppResponseBuf[NoPtr++] = TempCrc & 0xFF;
 1964              		.loc 1 571 0
 1965 0066 02AA     		add	r2, sp, #8
 1966 0068 030A     		lsr	r3, r0, #8
 1967 006a 1355     		strb	r3, [r2, r4]
 572:Code\UserApp\Protocol/CmdProtocol.c **** 	
 1968              		.loc 1 572 0
 1969 006c A51C     		add	r5, r4, #2
 1970              	.LVL241:
 571:Code\UserApp\Protocol/CmdProtocol.c **** 	AppResponseBuf[NoPtr++] = TempCrc & 0xFF;
 1971              		.loc 1 571 0
 1972 006e 0134     		add	r4, r4, #1
 1973              	.LVL242:
 572:Code\UserApp\Protocol/CmdProtocol.c **** 	
 1974              		.loc 1 572 0
 1975 0070 A4B2     		uxth	r4, r4
 1976 0072 ADB2     		uxth	r5, r5
 1977              	.LVL243:
 1978 0074 1055     		strb	r0, [r2, r4]
 577:Code\UserApp\Protocol/CmdProtocol.c **** 	{
 1979              		.loc 1 577 0
 1980 0076 022E     		cmp	r6, #2
 1981 0078 04D1     		bne	.L80
 579:Code\UserApp\Protocol/CmdProtocol.c ****         #if 0
 1982              		.loc 1 579 0
 1983 007a 101C     		mov	r0, r2
 1984              	.LVL244:
 1985 007c 291C     		mov	r1, r5
 1986 007e FFF7FEFF 		bl	BleSend
 1987              	.LVL245:
 1988 0082 10E0     		b	.L76
 1989              	.LVL246:
 1990              	.L80:
 587:Code\UserApp\Protocol/CmdProtocol.c **** 	{
 1991              		.loc 1 587 0
 1992 0084 012E     		cmp	r6, #1
ARM GAS  C:\Users\Administrator\AppData\Local\Temp\ccX9Bf8z.s 			page 71


 1993 0086 0ED1     		bne	.L76
 589:Code\UserApp\Protocol/CmdProtocol.c **** 		if ((cur_time + 300) > next_heartbeat_time)				// ä¸‹ä¸€æ¬¡å¿ƒè·³åœ¨5minä»¥å†…					//
 1994              		.loc 1 589 0
 1995 0088 FFF7FEFF 		bl	RTC_GetUnixTime
 1996              	.LVL247:
 1997 008c 074B     		ldr	r3, .L84
 1998 008e 1860     		str	r0, [r3]
 590:Code\UserApp\Protocol/CmdProtocol.c **** 		{
 1999              		.loc 1 590 0
 2000 0090 074B     		ldr	r3, .L84+4
 2001 0092 2D30     		add	r0, r0, #45
 2002 0094 1A68     		ldr	r2, [r3]
 2003 0096 FF30     		add	r0, r0, #255
 2004 0098 9042     		cmp	r0, r2
 2005 009a 00D9     		bls	.L82
 592:Code\UserApp\Protocol/CmdProtocol.c **** 		}
 2006              		.loc 1 592 0
 2007 009c 1860     		str	r0, [r3]
 2008              	.L82:
 594:Code\UserApp\Protocol/CmdProtocol.c **** 	}
 2009              		.loc 1 594 0
 2010 009e 02A8     		add	r0, sp, #8
 2011 00a0 291C     		mov	r1, r5
 2012 00a2 FFF7FEFF 		bl	GPRS_SendHexDataToServer
 2013              	.LVL248:
 2014              	.L76:
 596:Code\UserApp\Protocol/CmdProtocol.c **** 
 2015              		.loc 1 596 0
 2016 00a6 43B0     		add	sp, sp, #268
 2017              		@ sp needed
 2018              	.LVL249:
 2019              	.LVL250:
 2020 00a8 F0BD     		pop	{r4, r5, r6, r7, pc}
 2021              	.L85:
 2022 00aa C046     		.align	2
 2023              	.L84:
 2024 00ac 00000000 		.word	cur_time
 2025 00b0 00000000 		.word	next_heartbeat_time
 2026              		.cfi_endproc
 2027              	.LFE72:
 2028              		.size	Protocol_SendAckPacket, .-Protocol_SendAckPacket
 2029              		.section	.text.Protocol_CmdReadUID,"ax",%progbits
 2030              		.align	1
 2031              		.code	16
 2032              		.thumb_func
 2033              		.type	Protocol_CmdReadUID, %function
 2034              	Protocol_CmdReadUID:
 2035              	.LFB75:
 706:Code\UserApp\Protocol/CmdProtocol.c **** 	uint8 ret;
 2036              		.loc 1 706 0
 2037              		.cfi_startproc
 2038              	.LVL251:
 2039 0000 F0B5     		push	{r4, r5, r6, r7, lr}
 2040              		.cfi_def_cfa_offset 20
 2041              		.cfi_offset 4, -20
 2042              		.cfi_offset 5, -16
 2043              		.cfi_offset 6, -12
ARM GAS  C:\Users\Administrator\AppData\Local\Temp\ccX9Bf8z.s 			page 72


 2044              		.cfi_offset 7, -8
 2045              		.cfi_offset 14, -4
 710:Code\UserApp\Protocol/CmdProtocol.c **** 	uint8 comm_chanle = RecBuf[4];								// å–å‡ºä¿¡é“å€¼							//
 2046              		.loc 1 710 0
 2047 0002 0025     		mov	r5, #0
 706:Code\UserApp\Protocol/CmdProtocol.c **** 	uint8 ret;
 2048              		.loc 1 706 0
 2049 0004 061C     		mov	r6, r0
 714:Code\UserApp\Protocol/CmdProtocol.c **** 	 
 2050              		.loc 1 714 0
 2051 0006 C178     		ldrb	r1, [r0, #3]
 711:Code\UserApp\Protocol/CmdProtocol.c **** 	uint16 nCmdPackLen;
 2052              		.loc 1 711 0
 2053 0008 0379     		ldrb	r3, [r0, #4]
 2054 000a 0A1D     		add	r2, r1, #4
 714:Code\UserApp\Protocol/CmdProtocol.c **** 	 
 2055              		.loc 1 714 0
 2056 000c 8178     		ldrb	r1, [r0, #2]
 706:Code\UserApp\Protocol/CmdProtocol.c **** 	uint8 ret;
 2057              		.loc 1 706 0
 2058 000e 97B0     		sub	sp, sp, #92
 2059              		.cfi_def_cfa_offset 112
 2060              	.LVL252:
 711:Code\UserApp\Protocol/CmdProtocol.c **** 	uint16 nCmdPackLen;
 2061              		.loc 1 711 0
 2062 0010 0293     		str	r3, [sp, #8]
 2063              	.LVL253:
 714:Code\UserApp\Protocol/CmdProtocol.c **** 	 
 2064              		.loc 1 714 0
 2065 0012 0B02     		lsl	r3, r1, #8
 2066 0014 D118     		add	r1, r2, r3
 2067 0016 8BB2     		uxth	r3, r1
 716:Code\UserApp\Protocol/CmdProtocol.c **** 	
 2068              		.loc 1 716 0
 2069 0018 4022     		mov	r2, #64
 2070 001a 291C     		mov	r1, r5
 710:Code\UserApp\Protocol/CmdProtocol.c **** 	uint8 comm_chanle = RecBuf[4];								// å–å‡ºä¿¡é“å€¼							//
 2071              		.loc 1 710 0
 2072 001c 04AC     		add	r4, sp, #16
 716:Code\UserApp\Protocol/CmdProtocol.c **** 	
 2073              		.loc 1 716 0
 2074 001e 06A8     		add	r0, sp, #24
 2075              	.LVL254:
 714:Code\UserApp\Protocol/CmdProtocol.c **** 	 
 2076              		.loc 1 714 0
 2077 0020 0393     		str	r3, [sp, #12]
 2078              	.LVL255:
 710:Code\UserApp\Protocol/CmdProtocol.c **** 	uint8 comm_chanle = RecBuf[4];								// å–å‡ºä¿¡é“å€¼							//
 2079              		.loc 1 710 0
 2080 0022 0495     		str	r5, [sp, #16]
 2081 0024 6560     		str	r5, [r4, #4]
 716:Code\UserApp\Protocol/CmdProtocol.c **** 	
 2082              		.loc 1 716 0
 2083 0026 FFF7FEFF 		bl	memset
 2084              	.LVL256:
 720:Code\UserApp\Protocol/CmdProtocol.c **** 	pT += 6;
 2085              		.loc 1 720 0
ARM GAS  C:\Users\Administrator\AppData\Local\Temp\ccX9Bf8z.s 			page 73


 2086 002a F11D     		add	r1, r6, #7
 2087 002c 0622     		mov	r2, #6
 2088 002e 06A8     		add	r0, sp, #24
 2089              	.LVL257:
 2090 0030 FFF7FEFF 		bl	memcpy
 2091              	.LVL258:
 724:Code\UserApp\Protocol/CmdProtocol.c **** 	wait_timeout = 20000;
 2092              		.loc 1 724 0
 2093 0034 0D20     		mov	r0, #13
 2094 0036 FFF7FEFF 		bl	VoicePlay
 2095              	.LVL259:
 725:Code\UserApp\Protocol/CmdProtocol.c **** 	ret = RET_ERR;
 2096              		.loc 1 725 0
 2097 003a 264F     		ldr	r7, .L99
 2098 003c 264B     		ldr	r3, .L99+4
 2099 003e 3B60     		str	r3, [r7]
 2100              	.LVL260:
 2101              	.L87:
 728:Code\UserApp\Protocol/CmdProtocol.c **** 	{
 2102              		.loc 1 728 0
 2103 0040 3B68     		ldr	r3, [r7]
 2104 0042 002B     		cmp	r3, #0
 2105 0044 16D0     		beq	.L90
 730:Code\UserApp\Protocol/CmdProtocol.c **** 		// æ»¤é™¤ä¸å‡†ç¡®çš„å¡ID
 2106              		.loc 1 730 0
 2107 0046 201C     		mov	r0, r4
 2108 0048 0821     		mov	r1, #8
 2109 004a FFF7FEFF 		bl	detect_nfc_card
 2110              	.LVL261:
 732:Code\UserApp\Protocol/CmdProtocol.c **** 		{
 2111              		.loc 1 732 0
 2112 004e 2278     		ldrb	r2, [r4]
 730:Code\UserApp\Protocol/CmdProtocol.c **** 		// æ»¤é™¤ä¸å‡†ç¡®çš„å¡ID
 2113              		.loc 1 730 0
 2114 0050 051C     		mov	r5, r0
 2115              	.LVL262:
 2116 0052 031C     		mov	r3, r0
 732:Code\UserApp\Protocol/CmdProtocol.c **** 		{
 2117              		.loc 1 732 0
 2118 0054 002A     		cmp	r2, #0
 2119 0056 08D1     		bne	.L88
 732:Code\UserApp\Protocol/CmdProtocol.c **** 		{
 2120              		.loc 1 732 0 is_stmt 0 discriminator 1
 2121 0058 6278     		ldrb	r2, [r4, #1]
 2122 005a 002A     		cmp	r2, #0
 2123 005c 05D1     		bne	.L88
 732:Code\UserApp\Protocol/CmdProtocol.c **** 		{
 2124              		.loc 1 732 0 discriminator 2
 2125 005e A278     		ldrb	r2, [r4, #2]
 2126 0060 002A     		cmp	r2, #0
 2127 0062 02D1     		bne	.L88
 732:Code\UserApp\Protocol/CmdProtocol.c **** 		{
 2128              		.loc 1 732 0 discriminator 3
 2129 0064 E278     		ldrb	r2, [r4, #3]
 2130 0066 002A     		cmp	r2, #0
 2131 0068 EAD0     		beq	.L87
 2132              	.L88:
ARM GAS  C:\Users\Administrator\AppData\Local\Temp\ccX9Bf8z.s 			page 74


 736:Code\UserApp\Protocol/CmdProtocol.c **** 		{
 2133              		.loc 1 736 0 is_stmt 1
 2134 006a 012B     		cmp	r3, #1
 2135 006c E8D1     		bne	.L87
 738:Code\UserApp\Protocol/CmdProtocol.c **** 			break;
 2136              		.loc 1 738 0
 2137 006e 0E20     		mov	r0, #14
 2138 0070 FFF7FEFF 		bl	VoicePlay
 2139              	.LVL263:
 2140              	.L90:
 742:Code\UserApp\Protocol/CmdProtocol.c **** 	{	
 2141              		.loc 1 742 0
 2142 0074 3B68     		ldr	r3, [r7]
 2143 0076 002B     		cmp	r3, #0
 2144 0078 09D1     		bne	.L92
 744:Code\UserApp\Protocol/CmdProtocol.c **** 		pUID[7] = 0x03;
 2145              		.loc 1 744 0
 2146 007a 201C     		mov	r0, r4
 2147 007c FF21     		mov	r1, #255
 2148 007e 0722     		mov	r2, #7
 2149 0080 FFF7FEFF 		bl	memset
 2150              	.LVL264:
 745:Code\UserApp\Protocol/CmdProtocol.c **** 		VoicePlay((uint8)Sound_TIMEOUT);
 2151              		.loc 1 745 0
 2152 0084 0323     		mov	r3, #3
 746:Code\UserApp\Protocol/CmdProtocol.c **** 	}
 2153              		.loc 1 746 0
 2154 0086 1220     		mov	r0, #18
 745:Code\UserApp\Protocol/CmdProtocol.c **** 		VoicePlay((uint8)Sound_TIMEOUT);
 2155              		.loc 1 745 0
 2156 0088 E371     		strb	r3, [r4, #7]
 746:Code\UserApp\Protocol/CmdProtocol.c **** 	}
 2157              		.loc 1 746 0
 2158 008a FFF7FEFF 		bl	VoicePlay
 2159              	.LVL265:
 2160              	.L92:
 751:Code\UserApp\Protocol/CmdProtocol.c **** 	
 2161              		.loc 1 751 0
 2162 008e 201C     		mov	r0, r4
 2163 0090 FFF7FEFF 		bl	Endpoint_exchange
 2164              	.LVL266:
 753:Code\UserApp\Protocol/CmdProtocol.c **** 	pT += 8;
 2165              		.loc 1 753 0
 2166 0094 1620     		mov	r0, #22
 2167 0096 02AB     		add	r3, sp, #8
 2168              	.LVL267:
 2169 0098 C018     		add	r0, r0, r3
 2170 009a 211C     		mov	r1, r4
 2171 009c 0822     		mov	r2, #8
 2172 009e FFF7FEFF 		bl	memcpy
 2173              	.LVL268:
 756:Code\UserApp\Protocol/CmdProtocol.c **** 	pT += 4;
 2174              		.loc 1 756 0
 2175 00a2 1E20     		mov	r0, #30
 2176 00a4 0399     		ldr	r1, [sp, #12]
 2177 00a6 02AB     		add	r3, sp, #8
 2178              	.LVL269:
ARM GAS  C:\Users\Administrator\AppData\Local\Temp\ccX9Bf8z.s 			page 75


 2179 00a8 0639     		sub	r1, r1, #6
 2180 00aa C018     		add	r0, r0, r3
 2181 00ac 7118     		add	r1, r6, r1
 2182 00ae 0422     		mov	r2, #4
 2183 00b0 FFF7FEFF 		bl	memcpy
 2184              	.LVL270:
 753:Code\UserApp\Protocol/CmdProtocol.c **** 	pT += 8;
 2185              		.loc 1 753 0
 2186 00b4 06AF     		add	r7, sp, #24
 761:Code\UserApp\Protocol/CmdProtocol.c **** 	}
 2187              		.loc 1 761 0
 2188 00b6 0F23     		mov	r3, #15
 759:Code\UserApp\Protocol/CmdProtocol.c **** 	{
 2189              		.loc 1 759 0
 2190 00b8 002D     		cmp	r5, #0
 2191 00ba 00D0     		beq	.L98
 765:Code\UserApp\Protocol/CmdProtocol.c **** 	}
 2192              		.loc 1 765 0
 2193 00bc 0123     		mov	r3, #1
 2194              	.L98:
 2195 00be BB74     		strb	r3, [r7, #18]
 768:Code\UserApp\Protocol/CmdProtocol.c **** 	
 2196              		.loc 1 768 0
 2197 00c0 1323     		mov	r3, #19
 2198 00c2 B279     		ldrb	r2, [r6, #6]
 2199 00c4 0093     		str	r3, [sp]
 2200 00c6 0298     		ldr	r0, [sp, #8]
 2201 00c8 0121     		mov	r1, #1
 2202 00ca 3B1C     		mov	r3, r7
 2203 00cc FFF7FEFF 		bl	Protocol_SendAckPacket
 2204              	.LVL271:
 771:Code\UserApp\Protocol/CmdProtocol.c **** 
 2205              		.loc 1 771 0
 2206 00d0 17B0     		add	sp, sp, #92
 2207              		@ sp needed
 2208              	.LVL272:
 2209              	.LVL273:
 2210 00d2 F0BD     		pop	{r4, r5, r6, r7, pc}
 2211              	.L100:
 2212              		.align	2
 2213              	.L99:
 2214 00d4 00000000 		.word	wait_timeout
 2215 00d8 204E0000 		.word	20000
 2216              		.cfi_endproc
 2217              	.LFE75:
 2218              		.size	Protocol_CmdReadUID, .-Protocol_CmdReadUID
 2219              		.section	.text.Protocol_CmdWriteUID,"ax",%progbits
 2220              		.align	1
 2221              		.code	16
 2222              		.thumb_func
 2223              		.type	Protocol_CmdWriteUID, %function
 2224              	Protocol_CmdWriteUID:
 2225              	.LFB76:
 782:Code\UserApp\Protocol/CmdProtocol.c **** 	uint8 DataBuf[64];
 2226              		.loc 1 782 0
 2227              		.cfi_startproc
 2228              	.LVL274:
ARM GAS  C:\Users\Administrator\AppData\Local\Temp\ccX9Bf8z.s 			page 76


 2229 0000 F0B5     		push	{r4, r5, r6, r7, lr}
 2230              		.cfi_def_cfa_offset 20
 2231              		.cfi_offset 4, -20
 2232              		.cfi_offset 5, -16
 2233              		.cfi_offset 6, -12
 2234              		.cfi_offset 7, -8
 2235              		.cfi_offset 14, -4
 2236 0002 041C     		mov	r4, r0
 791:Code\UserApp\Protocol/CmdProtocol.c ****     
 2237              		.loc 1 791 0
 2238 0004 C178     		ldrb	r1, [r0, #3]
 787:Code\UserApp\Protocol/CmdProtocol.c **** 	user_info_t user_info;
 2239              		.loc 1 787 0
 2240 0006 0379     		ldrb	r3, [r0, #4]
 2241 0008 0A1D     		add	r2, r1, #4
 791:Code\UserApp\Protocol/CmdProtocol.c ****     
 2242              		.loc 1 791 0
 2243 000a 8178     		ldrb	r1, [r0, #2]
 782:Code\UserApp\Protocol/CmdProtocol.c **** 	uint8 DataBuf[64];
 2244              		.loc 1 782 0
 2245 000c 9BB0     		sub	sp, sp, #108
 2246              		.cfi_def_cfa_offset 128
 2247              	.LVL275:
 787:Code\UserApp\Protocol/CmdProtocol.c **** 	user_info_t user_info;
 2248              		.loc 1 787 0
 2249 000e 0293     		str	r3, [sp, #8]
 2250              	.LVL276:
 791:Code\UserApp\Protocol/CmdProtocol.c ****     
 2251              		.loc 1 791 0
 2252 0010 0B02     		lsl	r3, r1, #8
 2253 0012 D118     		add	r1, r2, r3
 793:Code\UserApp\Protocol/CmdProtocol.c **** 	memcpy(pT, RecBuf + 7, 6);									// å–å‡ºMACåœ°å€ï¼Œç†è®ºåº”åŠ ä¸ŠMACæ ¡éªŒ		//
 2254              		.loc 1 793 0
 2255 0014 0AAE     		add	r6, sp, #40
 2256              	.LVL277:
 791:Code\UserApp\Protocol/CmdProtocol.c ****     
 2257              		.loc 1 791 0
 2258 0016 8BB2     		uxth	r3, r1
 793:Code\UserApp\Protocol/CmdProtocol.c **** 	memcpy(pT, RecBuf + 7, 6);									// å–å‡ºMACåœ°å€ï¼Œç†è®ºåº”åŠ ä¸ŠMACæ ¡éªŒ		//
 2259              		.loc 1 793 0
 2260 0018 4022     		mov	r2, #64
 2261 001a 0021     		mov	r1, #0
 2262 001c 301C     		mov	r0, r6
 2263              	.LVL278:
 791:Code\UserApp\Protocol/CmdProtocol.c ****     
 2264              		.loc 1 791 0
 2265 001e 0393     		str	r3, [sp, #12]
 2266              	.LVL279:
 797:Code\UserApp\Protocol/CmdProtocol.c **** 	memcpy(pUID, RecBuf + 13, 8);
 2267              		.loc 1 797 0
 2268 0020 271C     		mov	r7, r4
 793:Code\UserApp\Protocol/CmdProtocol.c **** 	memcpy(pT, RecBuf + 7, 6);									// å–å‡ºMACåœ°å€ï¼Œç†è®ºåº”åŠ ä¸ŠMACæ ¡éªŒ		//
 2269              		.loc 1 793 0
 2270 0022 FFF7FEFF 		bl	memset
 2271              	.LVL280:
 794:Code\UserApp\Protocol/CmdProtocol.c **** 	pT += 6;
 2272              		.loc 1 794 0
ARM GAS  C:\Users\Administrator\AppData\Local\Temp\ccX9Bf8z.s 			page 77


 2273 0026 E11D     		add	r1, r4, #7
 2274 0028 0622     		mov	r2, #6
 2275 002a 301C     		mov	r0, r6
 2276 002c FFF7FEFF 		bl	memcpy
 2277              	.LVL281:
 797:Code\UserApp\Protocol/CmdProtocol.c **** 	memcpy(pUID, RecBuf + 13, 8);
 2278              		.loc 1 797 0
 2279 0030 2620     		mov	r0, #38
 2280 0032 02AB     		add	r3, sp, #8
 2281              	.LVL282:
 2282 0034 0D37     		add	r7, r7, #13
 2283 0036 C018     		add	r0, r0, r3
 2284 0038 391C     		mov	r1, r7
 798:Code\UserApp\Protocol/CmdProtocol.c **** 	pT += 8;
 2285              		.loc 1 798 0
 2286 003a 05AD     		add	r5, sp, #20
 797:Code\UserApp\Protocol/CmdProtocol.c **** 	memcpy(pUID, RecBuf + 13, 8);
 2287              		.loc 1 797 0
 2288 003c 0822     		mov	r2, #8
 2289 003e FFF7FEFF 		bl	memcpy
 2290              	.LVL283:
 798:Code\UserApp\Protocol/CmdProtocol.c **** 	pT += 8;
 2291              		.loc 1 798 0
 2292 0042 391C     		mov	r1, r7
 2293 0044 281C     		mov	r0, r5
 2294 0046 0822     		mov	r2, #8
 2295 0048 FFF7FEFF 		bl	memcpy
 2296              	.LVL284:
 801:Code\UserApp\Protocol/CmdProtocol.c **** 	memcpy(pTime, RecBuf + 21, 4);	
 2297              		.loc 1 801 0
 2298 004c 2E20     		mov	r0, #46
 2299 004e 02AB     		add	r3, sp, #8
 2300              	.LVL285:
 2301 0050 0837     		add	r7, r7, #8
 2302 0052 C018     		add	r0, r0, r3
 2303 0054 391C     		mov	r1, r7
 2304 0056 0422     		mov	r2, #4
 2305 0058 FFF7FEFF 		bl	memcpy
 2306              	.LVL286:
 802:Code\UserApp\Protocol/CmdProtocol.c **** 	pT += 4;
 2307              		.loc 1 802 0
 2308 005c 391C     		mov	r1, r7
 2309 005e 0422     		mov	r2, #4
 2310 0060 04A8     		add	r0, sp, #16
 2311 0062 FFF7FEFF 		bl	memcpy
 2312              	.LVL287:
 804:Code\UserApp\Protocol/CmdProtocol.c **** 	pT += 4;
 2313              		.loc 1 804 0
 2314 0066 3220     		mov	r0, #50
 2315 0068 039B     		ldr	r3, [sp, #12]
 2316 006a 0422     		mov	r2, #4
 2317 006c 991F     		sub	r1, r3, #6
 2318 006e 02AB     		add	r3, sp, #8
 2319              	.LVL288:
 2320 0070 6118     		add	r1, r4, r1
 2321 0072 C018     		add	r0, r0, r3
 2322 0074 FFF7FEFF 		bl	memcpy
ARM GAS  C:\Users\Administrator\AppData\Local\Temp\ccX9Bf8z.s 			page 78


 2323              	.LVL289:
 808:Code\UserApp\Protocol/CmdProtocol.c **** 	
 2324              		.loc 1 808 0
 2325 0078 281C     		mov	r0, r5
 2326 007a FFF7FEFF 		bl	Endpoint_exchange
 2327              	.LVL290:
 810:Code\UserApp\Protocol/CmdProtocol.c **** 	memcpy(user_info.valid_time, pTime, 4);
 2328              		.loc 1 810 0
 2329 007e 07A8     		add	r0, sp, #28
 2330 0080 031C     		mov	r3, r0
 2331 0082 06CD     		ldmia	r5!, {r1, r2}
 2332 0084 06C3     		stmia	r3!, {r1, r2}
 811:Code\UserApp\Protocol/CmdProtocol.c **** 	if (TRUE == UserData_Add_User(&user_info))
 2333              		.loc 1 811 0
 2334 0086 049B     		ldr	r3, [sp, #16]
 2335 0088 8360     		str	r3, [r0, #8]
 812:Code\UserApp\Protocol/CmdProtocol.c **** 	{
 2336              		.loc 1 812 0
 2337 008a FFF7FEFF 		bl	UserData_Add_User
 2338              	.LVL291:
 2339 008e 051E     		sub	r5, r0, #0
 2340 0090 012D     		cmp	r5, #1
 2341 0092 04D1     		bne	.L102
 814:Code\UserApp\Protocol/CmdProtocol.c **** 		*pT = RT_SUCC;
 2342              		.loc 1 814 0
 2343 0094 0420     		mov	r0, #4
 2344 0096 FFF7FEFF 		bl	VoicePlay
 2345              	.LVL292:
 815:Code\UserApp\Protocol/CmdProtocol.c **** 	}
 2346              		.loc 1 815 0
 2347 009a B575     		strb	r5, [r6, #22]
 2348 009c 04E0     		b	.L103
 2349              	.L102:
 819:Code\UserApp\Protocol/CmdProtocol.c **** 		*pT = RT_FAIL;
 2350              		.loc 1 819 0
 2351 009e 0520     		mov	r0, #5
 2352 00a0 FFF7FEFF 		bl	VoicePlay
 2353              	.LVL293:
 820:Code\UserApp\Protocol/CmdProtocol.c **** 	}
 2354              		.loc 1 820 0
 2355 00a4 0223     		mov	r3, #2
 2356 00a6 B375     		strb	r3, [r6, #22]
 2357              	.L103:
 824:Code\UserApp\Protocol/CmdProtocol.c **** 	
 2358              		.loc 1 824 0
 2359 00a8 1723     		mov	r3, #23
 2360 00aa A279     		ldrb	r2, [r4, #6]
 2361 00ac 0093     		str	r3, [sp]
 2362 00ae 0298     		ldr	r0, [sp, #8]
 2363 00b0 0121     		mov	r1, #1
 2364 00b2 331C     		mov	r3, r6
 2365 00b4 FFF7FEFF 		bl	Protocol_SendAckPacket
 2366              	.LVL294:
 831:Code\UserApp\Protocol/CmdProtocol.c **** 
 2367              		.loc 1 831 0
 2368 00b8 1BB0     		add	sp, sp, #108
 2369              		@ sp needed
ARM GAS  C:\Users\Administrator\AppData\Local\Temp\ccX9Bf8z.s 			page 79


 2370              	.LVL295:
 2371              	.LVL296:
 2372 00ba F0BD     		pop	{r4, r5, r6, r7, pc}
 2373              		.cfi_endproc
 2374              	.LFE76:
 2375              		.size	Protocol_CmdWriteUID, .-Protocol_CmdWriteUID
 2376              		.section	.text.Protocol_CmdDelUID,"ax",%progbits
 2377              		.align	1
 2378              		.code	16
 2379              		.thumb_func
 2380              		.type	Protocol_CmdDelUID, %function
 2381              	Protocol_CmdDelUID:
 2382              	.LFB77:
 842:Code\UserApp\Protocol/CmdProtocol.c **** 	uint8 ret = 0;
 2383              		.loc 1 842 0
 2384              		.cfi_startproc
 2385              	.LVL297:
 2386 0000 F0B5     		push	{r4, r5, r6, r7, lr}
 2387              		.cfi_def_cfa_offset 20
 2388              		.cfi_offset 4, -20
 2389              		.cfi_offset 5, -16
 2390              		.cfi_offset 6, -12
 2391              		.cfi_offset 7, -8
 2392              		.cfi_offset 14, -4
 2393 0002 041C     		mov	r4, r0
 850:Code\UserApp\Protocol/CmdProtocol.c **** 	 
 2394              		.loc 1 850 0
 2395 0004 C178     		ldrb	r1, [r0, #3]
 842:Code\UserApp\Protocol/CmdProtocol.c **** 	uint8 ret = 0;
 2396              		.loc 1 842 0
 2397 0006 97B0     		sub	sp, sp, #92
 2398              		.cfi_def_cfa_offset 112
 2399              	.LVL298:
 2400 0008 0A1D     		add	r2, r1, #4
 850:Code\UserApp\Protocol/CmdProtocol.c **** 	 
 2401              		.loc 1 850 0
 2402 000a 8178     		ldrb	r1, [r0, #2]
 852:Code\UserApp\Protocol/CmdProtocol.c **** 	memcpy(pT, RecBuf + 7, 6);									// å–å‡ºMACåœ°å€ï¼Œç†è®ºåº”åŠ ä¸ŠMACæ ¡éªŒ		//
