ARM GAS  C:\Users\zhiantec\AppData\Local\Temp\ccgrxDvF.s 			page 1


   1              		.cpu cortex-m0
   2              		.fpu softvfp
   3              		.eabi_attribute 20, 1
   4              		.eabi_attribute 21, 1
   5              		.eabi_attribute 23, 3
   6              		.eabi_attribute 24, 1
   7              		.eabi_attribute 25, 1
   8              		.eabi_attribute 26, 1
   9              		.eabi_attribute 30, 4
  10              		.eabi_attribute 34, 0
  11              		.eabi_attribute 18, 4
  12              		.code	16
  13              		.file	"cyfitter_cfg.c"
  14              		.text
  15              	.Ltext0:
  16              		.cfi_sections	.debug_frame
  17              		.section	.psocinit,"ax",%progbits
  18              		.align	1
  19              		.global	cyfitter_cfg
  20              		.code	16
  21              		.thumb_func
  22              		.type	cyfitter_cfg, %function
  23              	cyfitter_cfg:
  24              	.LFB8:
  25              		.file 1 "Generated_Source\\PSoC4\\cyfitter_cfg.c"
   1:Generated_Source\PSoC4/cyfitter_cfg.c **** /*******************************************************************************
   2:Generated_Source\PSoC4/cyfitter_cfg.c **** * File Name: cyfitter_cfg.c
   3:Generated_Source\PSoC4/cyfitter_cfg.c **** * 
   4:Generated_Source\PSoC4/cyfitter_cfg.c **** * PSoC Creator  4.0
   5:Generated_Source\PSoC4/cyfitter_cfg.c **** *
   6:Generated_Source\PSoC4/cyfitter_cfg.c **** * Description:
   7:Generated_Source\PSoC4/cyfitter_cfg.c **** * This file contains device initialization code.
   8:Generated_Source\PSoC4/cyfitter_cfg.c **** * Except for the user defined sections in CyClockStartupError(), this file should not be modified.
   9:Generated_Source\PSoC4/cyfitter_cfg.c **** * This file is automatically generated by PSoC Creator.
  10:Generated_Source\PSoC4/cyfitter_cfg.c **** *
  11:Generated_Source\PSoC4/cyfitter_cfg.c **** ********************************************************************************
  12:Generated_Source\PSoC4/cyfitter_cfg.c **** * Copyright (c) 2007-2016 Cypress Semiconductor.  All rights reserved.
  13:Generated_Source\PSoC4/cyfitter_cfg.c **** * You may use this file only in accordance with the license, terms, conditions, 
  14:Generated_Source\PSoC4/cyfitter_cfg.c **** * disclaimers, and limitations in the end user license agreement accompanying 
  15:Generated_Source\PSoC4/cyfitter_cfg.c **** * the software package with which this file was provided.
  16:Generated_Source\PSoC4/cyfitter_cfg.c **** ********************************************************************************/
  17:Generated_Source\PSoC4/cyfitter_cfg.c **** 
  18:Generated_Source\PSoC4/cyfitter_cfg.c **** #include <string.h>
  19:Generated_Source\PSoC4/cyfitter_cfg.c **** #include "cytypes.h"
  20:Generated_Source\PSoC4/cyfitter_cfg.c **** #include "cydevice_trm.h"
  21:Generated_Source\PSoC4/cyfitter_cfg.c **** #include "cyfitter.h"
  22:Generated_Source\PSoC4/cyfitter_cfg.c **** #include "CyLib.h"
  23:Generated_Source\PSoC4/cyfitter_cfg.c **** #include "cyfitter_cfg.h"
  24:Generated_Source\PSoC4/cyfitter_cfg.c **** 
  25:Generated_Source\PSoC4/cyfitter_cfg.c **** 
  26:Generated_Source\PSoC4/cyfitter_cfg.c **** #if defined(__GNUC__) || defined(__ARMCC_VERSION)
  27:Generated_Source\PSoC4/cyfitter_cfg.c ****     #define CYPACKED 
  28:Generated_Source\PSoC4/cyfitter_cfg.c ****     #define CYPACKED_ATTR __attribute__ ((packed))
  29:Generated_Source\PSoC4/cyfitter_cfg.c ****     #define CYALIGNED __attribute__ ((aligned))
  30:Generated_Source\PSoC4/cyfitter_cfg.c ****     #define CY_CFG_UNUSED __attribute__ ((unused))
  31:Generated_Source\PSoC4/cyfitter_cfg.c ****     #ifndef CY_CFG_SECTION
  32:Generated_Source\PSoC4/cyfitter_cfg.c ****         #define CY_CFG_SECTION __attribute__ ((section(".psocinit")))
ARM GAS  C:\Users\zhiantec\AppData\Local\Temp\ccgrxDvF.s 			page 2


  33:Generated_Source\PSoC4/cyfitter_cfg.c ****     #endif
  34:Generated_Source\PSoC4/cyfitter_cfg.c ****     
  35:Generated_Source\PSoC4/cyfitter_cfg.c ****     #if defined(__ARMCC_VERSION)
  36:Generated_Source\PSoC4/cyfitter_cfg.c ****         #define CY_CFG_MEMORY_BARRIER() __memory_changed()
  37:Generated_Source\PSoC4/cyfitter_cfg.c ****     #else
  38:Generated_Source\PSoC4/cyfitter_cfg.c ****         #define CY_CFG_MEMORY_BARRIER() __sync_synchronize()
  39:Generated_Source\PSoC4/cyfitter_cfg.c ****     #endif
  40:Generated_Source\PSoC4/cyfitter_cfg.c ****     
  41:Generated_Source\PSoC4/cyfitter_cfg.c **** #elif defined(__ICCARM__)
  42:Generated_Source\PSoC4/cyfitter_cfg.c ****     #include <intrinsics.h>
  43:Generated_Source\PSoC4/cyfitter_cfg.c **** 
  44:Generated_Source\PSoC4/cyfitter_cfg.c ****     #define CYPACKED __packed
  45:Generated_Source\PSoC4/cyfitter_cfg.c ****     #define CYPACKED_ATTR 
  46:Generated_Source\PSoC4/cyfitter_cfg.c ****     #define CYALIGNED _Pragma("data_alignment=4")
  47:Generated_Source\PSoC4/cyfitter_cfg.c ****     #define CY_CFG_UNUSED _Pragma("diag_suppress=Pe177")
  48:Generated_Source\PSoC4/cyfitter_cfg.c ****     #define CY_CFG_SECTION _Pragma("location=\".psocinit\"")
  49:Generated_Source\PSoC4/cyfitter_cfg.c ****     
  50:Generated_Source\PSoC4/cyfitter_cfg.c ****     #define CY_CFG_MEMORY_BARRIER() __DMB()
  51:Generated_Source\PSoC4/cyfitter_cfg.c ****     
  52:Generated_Source\PSoC4/cyfitter_cfg.c **** #else
  53:Generated_Source\PSoC4/cyfitter_cfg.c ****     #error Unsupported toolchain
  54:Generated_Source\PSoC4/cyfitter_cfg.c **** #endif
  55:Generated_Source\PSoC4/cyfitter_cfg.c **** 
  56:Generated_Source\PSoC4/cyfitter_cfg.c **** 
  57:Generated_Source\PSoC4/cyfitter_cfg.c **** CY_CFG_UNUSED
  58:Generated_Source\PSoC4/cyfitter_cfg.c **** static void CYMEMZERO(void *s, size_t n);
  59:Generated_Source\PSoC4/cyfitter_cfg.c **** CY_CFG_UNUSED
  60:Generated_Source\PSoC4/cyfitter_cfg.c **** static void CYMEMZERO(void *s, size_t n)
  61:Generated_Source\PSoC4/cyfitter_cfg.c **** {
  62:Generated_Source\PSoC4/cyfitter_cfg.c **** 	(void)memset(s, 0, n);
  63:Generated_Source\PSoC4/cyfitter_cfg.c **** }
  64:Generated_Source\PSoC4/cyfitter_cfg.c **** CY_CFG_UNUSED
  65:Generated_Source\PSoC4/cyfitter_cfg.c **** static void CYCONFIGCPY(void *dest, const void *src, size_t n);
  66:Generated_Source\PSoC4/cyfitter_cfg.c **** CY_CFG_UNUSED
  67:Generated_Source\PSoC4/cyfitter_cfg.c **** static void CYCONFIGCPY(void *dest, const void *src, size_t n)
  68:Generated_Source\PSoC4/cyfitter_cfg.c **** {
  69:Generated_Source\PSoC4/cyfitter_cfg.c **** 	(void)memcpy(dest, src, n);
  70:Generated_Source\PSoC4/cyfitter_cfg.c **** }
  71:Generated_Source\PSoC4/cyfitter_cfg.c **** CY_CFG_UNUSED
  72:Generated_Source\PSoC4/cyfitter_cfg.c **** static void CYCONFIGCPYCODE(void *dest, const void *src, size_t n);
  73:Generated_Source\PSoC4/cyfitter_cfg.c **** CY_CFG_UNUSED
  74:Generated_Source\PSoC4/cyfitter_cfg.c **** static void CYCONFIGCPYCODE(void *dest, const void *src, size_t n)
  75:Generated_Source\PSoC4/cyfitter_cfg.c **** {
  76:Generated_Source\PSoC4/cyfitter_cfg.c **** 	(void)memcpy(dest, src, n);
  77:Generated_Source\PSoC4/cyfitter_cfg.c **** }
  78:Generated_Source\PSoC4/cyfitter_cfg.c **** 
  79:Generated_Source\PSoC4/cyfitter_cfg.c **** 
  80:Generated_Source\PSoC4/cyfitter_cfg.c **** 
  81:Generated_Source\PSoC4/cyfitter_cfg.c **** 
  82:Generated_Source\PSoC4/cyfitter_cfg.c **** /* Clock startup error codes                                                   */
  83:Generated_Source\PSoC4/cyfitter_cfg.c **** #define CYCLOCKSTART_NO_ERROR    0u
  84:Generated_Source\PSoC4/cyfitter_cfg.c **** #define CYCLOCKSTART_XTAL_ERROR  1u
  85:Generated_Source\PSoC4/cyfitter_cfg.c **** #define CYCLOCKSTART_32KHZ_ERROR 2u
  86:Generated_Source\PSoC4/cyfitter_cfg.c **** #define CYCLOCKSTART_PLL_ERROR   3u
  87:Generated_Source\PSoC4/cyfitter_cfg.c **** 
  88:Generated_Source\PSoC4/cyfitter_cfg.c **** 
  89:Generated_Source\PSoC4/cyfitter_cfg.c **** #ifdef CY_NEED_CYCLOCKSTARTUPERROR
ARM GAS  C:\Users\zhiantec\AppData\Local\Temp\ccgrxDvF.s 			page 3


  90:Generated_Source\PSoC4/cyfitter_cfg.c **** /*******************************************************************************
  91:Generated_Source\PSoC4/cyfitter_cfg.c **** * Function Name: CyClockStartupError
  92:Generated_Source\PSoC4/cyfitter_cfg.c **** ********************************************************************************
  93:Generated_Source\PSoC4/cyfitter_cfg.c **** * Summary:
  94:Generated_Source\PSoC4/cyfitter_cfg.c **** *  If an error is encountered during clock configuration (crystal startup error,
  95:Generated_Source\PSoC4/cyfitter_cfg.c **** *  PLL lock error, etc.), the system will end up here.  Unless reimplemented by
  96:Generated_Source\PSoC4/cyfitter_cfg.c **** *  the customer, this function will stop in an infinite loop.
  97:Generated_Source\PSoC4/cyfitter_cfg.c **** *
  98:Generated_Source\PSoC4/cyfitter_cfg.c **** * Parameters:
  99:Generated_Source\PSoC4/cyfitter_cfg.c **** *   void
 100:Generated_Source\PSoC4/cyfitter_cfg.c **** *
 101:Generated_Source\PSoC4/cyfitter_cfg.c **** * Return:
 102:Generated_Source\PSoC4/cyfitter_cfg.c **** *   void
 103:Generated_Source\PSoC4/cyfitter_cfg.c **** *
 104:Generated_Source\PSoC4/cyfitter_cfg.c **** *******************************************************************************/
 105:Generated_Source\PSoC4/cyfitter_cfg.c **** CY_CFG_UNUSED
 106:Generated_Source\PSoC4/cyfitter_cfg.c **** static void CyClockStartupError(uint8 errorCode);
 107:Generated_Source\PSoC4/cyfitter_cfg.c **** CY_CFG_UNUSED
 108:Generated_Source\PSoC4/cyfitter_cfg.c **** static void CyClockStartupError(uint8 errorCode)
 109:Generated_Source\PSoC4/cyfitter_cfg.c **** {
 110:Generated_Source\PSoC4/cyfitter_cfg.c ****     /* To remove the compiler warning if errorCode not used.                */
 111:Generated_Source\PSoC4/cyfitter_cfg.c ****     errorCode = errorCode;
 112:Generated_Source\PSoC4/cyfitter_cfg.c **** 
 113:Generated_Source\PSoC4/cyfitter_cfg.c ****     /* If we have a clock startup error (bad MHz crystal, PLL lock, etc.),  */
 114:Generated_Source\PSoC4/cyfitter_cfg.c ****     /* we will end up here to allow the customer to implement something to  */
 115:Generated_Source\PSoC4/cyfitter_cfg.c ****     /* deal with the clock condition.                                       */
 116:Generated_Source\PSoC4/cyfitter_cfg.c **** 
 117:Generated_Source\PSoC4/cyfitter_cfg.c **** #ifdef CY_CFG_CLOCK_STARTUP_ERROR_CALLBACK
 118:Generated_Source\PSoC4/cyfitter_cfg.c **** 	CY_CFG_Clock_Startup_ErrorCallback();
 119:Generated_Source\PSoC4/cyfitter_cfg.c **** #else
 120:Generated_Source\PSoC4/cyfitter_cfg.c **** 	/*  If not using CY_CFG_CLOCK_STARTUP_ERROR_CALLBACK, place your clock startup code here. */
 121:Generated_Source\PSoC4/cyfitter_cfg.c ****     /* `#START CyClockStartupError` */
 122:Generated_Source\PSoC4/cyfitter_cfg.c **** 
 123:Generated_Source\PSoC4/cyfitter_cfg.c **** 
 124:Generated_Source\PSoC4/cyfitter_cfg.c **** 
 125:Generated_Source\PSoC4/cyfitter_cfg.c ****     /* `#END` */
 126:Generated_Source\PSoC4/cyfitter_cfg.c **** 
 127:Generated_Source\PSoC4/cyfitter_cfg.c ****     /* If nothing else, stop here since the clocks have not started         */
 128:Generated_Source\PSoC4/cyfitter_cfg.c ****     /* correctly.                                                           */
 129:Generated_Source\PSoC4/cyfitter_cfg.c ****     while(1) {}
 130:Generated_Source\PSoC4/cyfitter_cfg.c **** #endif /* CY_CFG_CLOCK_STARTUP_ERROR_CALLBACK */ 
 131:Generated_Source\PSoC4/cyfitter_cfg.c **** }
 132:Generated_Source\PSoC4/cyfitter_cfg.c **** #endif
 133:Generated_Source\PSoC4/cyfitter_cfg.c **** 
 134:Generated_Source\PSoC4/cyfitter_cfg.c **** #define CY_CFG_BASE_ADDR_COUNT 5u
 135:Generated_Source\PSoC4/cyfitter_cfg.c **** CYPACKED typedef struct
 136:Generated_Source\PSoC4/cyfitter_cfg.c **** {
 137:Generated_Source\PSoC4/cyfitter_cfg.c **** 	uint8 offset;
 138:Generated_Source\PSoC4/cyfitter_cfg.c **** 	uint8 value;
 139:Generated_Source\PSoC4/cyfitter_cfg.c **** } CYPACKED_ATTR cy_cfg_addrvalue_t;
 140:Generated_Source\PSoC4/cyfitter_cfg.c **** 
 141:Generated_Source\PSoC4/cyfitter_cfg.c **** 
 142:Generated_Source\PSoC4/cyfitter_cfg.c **** 
 143:Generated_Source\PSoC4/cyfitter_cfg.c **** /*******************************************************************************
 144:Generated_Source\PSoC4/cyfitter_cfg.c **** * Function Name: cfg_write_bytes32
 145:Generated_Source\PSoC4/cyfitter_cfg.c **** ********************************************************************************
 146:Generated_Source\PSoC4/cyfitter_cfg.c **** * Summary:
ARM GAS  C:\Users\zhiantec\AppData\Local\Temp\ccgrxDvF.s 			page 4


 147:Generated_Source\PSoC4/cyfitter_cfg.c **** *  This function is used for setting up the chip configuration areas that
 148:Generated_Source\PSoC4/cyfitter_cfg.c **** *  contain relatively sparse data.
 149:Generated_Source\PSoC4/cyfitter_cfg.c **** *
 150:Generated_Source\PSoC4/cyfitter_cfg.c **** * Parameters:
 151:Generated_Source\PSoC4/cyfitter_cfg.c **** *   void
 152:Generated_Source\PSoC4/cyfitter_cfg.c **** *
 153:Generated_Source\PSoC4/cyfitter_cfg.c **** * Return:
 154:Generated_Source\PSoC4/cyfitter_cfg.c **** *   void
 155:Generated_Source\PSoC4/cyfitter_cfg.c **** *
 156:Generated_Source\PSoC4/cyfitter_cfg.c **** *******************************************************************************/
 157:Generated_Source\PSoC4/cyfitter_cfg.c **** static void cfg_write_bytes32(const uint32 addr_table[], const cy_cfg_addrvalue_t data_table[]);
 158:Generated_Source\PSoC4/cyfitter_cfg.c **** static void cfg_write_bytes32(const uint32 addr_table[], const cy_cfg_addrvalue_t data_table[])
 159:Generated_Source\PSoC4/cyfitter_cfg.c **** {
 160:Generated_Source\PSoC4/cyfitter_cfg.c **** 	/* For 32-bit little-endian architectures */
 161:Generated_Source\PSoC4/cyfitter_cfg.c **** 	uint32 i, j = 0u;
 162:Generated_Source\PSoC4/cyfitter_cfg.c **** 	for (i = 0u; i < CY_CFG_BASE_ADDR_COUNT; i++)
 163:Generated_Source\PSoC4/cyfitter_cfg.c **** 	{
 164:Generated_Source\PSoC4/cyfitter_cfg.c **** 		uint32 baseAddr = addr_table[i];
 165:Generated_Source\PSoC4/cyfitter_cfg.c **** 		uint8 count = (uint8)baseAddr;
 166:Generated_Source\PSoC4/cyfitter_cfg.c **** 		baseAddr &= 0xFFFFFF00u;
 167:Generated_Source\PSoC4/cyfitter_cfg.c **** 		while (count != 0u)
 168:Generated_Source\PSoC4/cyfitter_cfg.c **** 		{
 169:Generated_Source\PSoC4/cyfitter_cfg.c **** 			CY_SET_XTND_REG8((void CYFAR *)(baseAddr + data_table[j].offset), data_table[j].value);
 170:Generated_Source\PSoC4/cyfitter_cfg.c **** 			j++;
 171:Generated_Source\PSoC4/cyfitter_cfg.c **** 			count--;
 172:Generated_Source\PSoC4/cyfitter_cfg.c **** 		}
 173:Generated_Source\PSoC4/cyfitter_cfg.c **** 	}
 174:Generated_Source\PSoC4/cyfitter_cfg.c **** }
 175:Generated_Source\PSoC4/cyfitter_cfg.c **** 
 176:Generated_Source\PSoC4/cyfitter_cfg.c **** 
 177:Generated_Source\PSoC4/cyfitter_cfg.c **** /*******************************************************************************
 178:Generated_Source\PSoC4/cyfitter_cfg.c **** * Function Name: ClockSetup
 179:Generated_Source\PSoC4/cyfitter_cfg.c **** ********************************************************************************
 180:Generated_Source\PSoC4/cyfitter_cfg.c **** *
 181:Generated_Source\PSoC4/cyfitter_cfg.c **** * Summary:
 182:Generated_Source\PSoC4/cyfitter_cfg.c **** *   Performs the initialization of all of the clocks in the device based on the
 183:Generated_Source\PSoC4/cyfitter_cfg.c **** *   settings in the Clock tab of the DWR.  This includes enabling the requested
 184:Generated_Source\PSoC4/cyfitter_cfg.c **** *   clocks and setting the necessary dividers to produce the desired frequency. 
 185:Generated_Source\PSoC4/cyfitter_cfg.c **** *
 186:Generated_Source\PSoC4/cyfitter_cfg.c **** * Parameters:
 187:Generated_Source\PSoC4/cyfitter_cfg.c **** *   void
 188:Generated_Source\PSoC4/cyfitter_cfg.c **** *
 189:Generated_Source\PSoC4/cyfitter_cfg.c **** * Return:
 190:Generated_Source\PSoC4/cyfitter_cfg.c **** *   void
 191:Generated_Source\PSoC4/cyfitter_cfg.c **** *
 192:Generated_Source\PSoC4/cyfitter_cfg.c **** *******************************************************************************/
 193:Generated_Source\PSoC4/cyfitter_cfg.c **** static void ClockSetup(void);
 194:Generated_Source\PSoC4/cyfitter_cfg.c **** CY_CFG_SECTION
 195:Generated_Source\PSoC4/cyfitter_cfg.c **** static void ClockSetup(void)
 196:Generated_Source\PSoC4/cyfitter_cfg.c **** {
 197:Generated_Source\PSoC4/cyfitter_cfg.c **** 
 198:Generated_Source\PSoC4/cyfitter_cfg.c **** 	/* Set Flash Cycles based on max possible frequency in case a glitch occurs during ClockSetup(). *
 199:Generated_Source\PSoC4/cyfitter_cfg.c **** 	CY_SET_REG32((void CYXDATA *)(CYREG_CPUSS_FLASH_CTL), (0x0012u));
 200:Generated_Source\PSoC4/cyfitter_cfg.c **** 
 201:Generated_Source\PSoC4/cyfitter_cfg.c **** 	/* Start the WCO */
 202:Generated_Source\PSoC4/cyfitter_cfg.c **** 	CySysClkWcoStart();
 203:Generated_Source\PSoC4/cyfitter_cfg.c **** 	CyDelayCycles(12000000u); /* WCO may take up to 500ms to start */
ARM GAS  C:\Users\zhiantec\AppData\Local\Temp\ccgrxDvF.s 			page 5


 204:Generated_Source\PSoC4/cyfitter_cfg.c **** 	(void)CySysClkWcoSetPowerMode(CY_SYS_CLK_WCO_LPM);    /* Switch to the low power mode */
 205:Generated_Source\PSoC4/cyfitter_cfg.c **** 
 206:Generated_Source\PSoC4/cyfitter_cfg.c **** 	/* Setup and trim IMO based on desired frequency. */
 207:Generated_Source\PSoC4/cyfitter_cfg.c **** 	CySysClkWriteImoFreq(48u);
 208:Generated_Source\PSoC4/cyfitter_cfg.c **** 	/* CYDEV_CLK_ILO_CONFIG Starting address: CYDEV_CLK_ILO_CONFIG */
 209:Generated_Source\PSoC4/cyfitter_cfg.c **** 	CY_SET_XTND_REG32((void CYFAR *)(CYREG_CLK_ILO_CONFIG), 0x80000006u);
 210:Generated_Source\PSoC4/cyfitter_cfg.c **** 
 211:Generated_Source\PSoC4/cyfitter_cfg.c **** 	/* CYDEV_WDT_CONFIG Starting address: CYDEV_WDT_CONFIG */
 212:Generated_Source\PSoC4/cyfitter_cfg.c **** 	CY_SET_XTND_REG32((void CYFAR *)(CYREG_WDT_CONFIG), 0x40000000u);
 213:Generated_Source\PSoC4/cyfitter_cfg.c **** 
 214:Generated_Source\PSoC4/cyfitter_cfg.c **** 
 215:Generated_Source\PSoC4/cyfitter_cfg.c **** 	/* Enable fast start mode for XO */
 216:Generated_Source\PSoC4/cyfitter_cfg.c **** 	CY_SET_REG32((void*)CYREG_BLE_BLERD_BB_XO, CY_GET_REG32((void*)CYREG_BLE_BLERD_BB_XO) | (uint32)0x
 217:Generated_Source\PSoC4/cyfitter_cfg.c **** 	CY_SET_XTND_REG32((void CYFAR *)(CYREG_BLE_BLERD_BB_XO_CAPTRIM), 0x00002D6Au);
 218:Generated_Source\PSoC4/cyfitter_cfg.c **** 	/*Set XTAL(ECO) divider*/
 219:Generated_Source\PSoC4/cyfitter_cfg.c **** 	CY_SET_XTND_REG32((void CYFAR *)(CYREG_BLE_BLESS_XTAL_CLK_DIV_CONFIG), 0x00000000u);
 220:Generated_Source\PSoC4/cyfitter_cfg.c **** 	/* Disable Crystal Stable Interrupt before enabling ECO */
 221:Generated_Source\PSoC4/cyfitter_cfg.c **** 	CY_SET_REG32((void*)CYREG_BLE_BLESS_LL_DSM_CTRL, CY_GET_REG32((void*)CYREG_BLE_BLESS_LL_DSM_CTRL) 
 222:Generated_Source\PSoC4/cyfitter_cfg.c **** 	/* Start the ECO and do not check status since it is not needed for HFCLK */
 223:Generated_Source\PSoC4/cyfitter_cfg.c **** 	(void)CySysClkEcoStart(2000u);
 224:Generated_Source\PSoC4/cyfitter_cfg.c **** 	CyDelayUs(1500u); /* Wait to stabalize */
 225:Generated_Source\PSoC4/cyfitter_cfg.c **** 
 226:Generated_Source\PSoC4/cyfitter_cfg.c **** 	/* Setup phase aligned clocks */
 227:Generated_Source\PSoC4/cyfitter_cfg.c **** 	CY_SET_REG32((void *)CYREG_PERI_DIV_16_CTL2, 0x00002F00u);
 228:Generated_Source\PSoC4/cyfitter_cfg.c **** 	CY_SET_REG32((void *)CYREG_PERI_DIV_CMD, 0x8000FF42u);
 229:Generated_Source\PSoC4/cyfitter_cfg.c **** 	CY_SET_REG32((void *)CYREG_PERI_DIV_16_CTL1, 0x00002F00u);
 230:Generated_Source\PSoC4/cyfitter_cfg.c **** 	CY_SET_REG32((void *)CYREG_PERI_DIV_CMD, 0x8000FF41u);
 231:Generated_Source\PSoC4/cyfitter_cfg.c **** 	CY_SET_REG32((void *)CYREG_PERI_DIV_16_CTL0, 0x00002200u);
 232:Generated_Source\PSoC4/cyfitter_cfg.c **** 	CY_SET_REG32((void *)CYREG_PERI_DIV_CMD, 0x8000FF40u);
 233:Generated_Source\PSoC4/cyfitter_cfg.c **** 
 234:Generated_Source\PSoC4/cyfitter_cfg.c **** 	/* CYDEV_CLK_IMO_CONFIG Starting address: CYDEV_CLK_IMO_CONFIG */
 235:Generated_Source\PSoC4/cyfitter_cfg.c **** 	CY_SET_XTND_REG32((void CYFAR *)(CYREG_CLK_IMO_CONFIG), 0x80000000u);
 236:Generated_Source\PSoC4/cyfitter_cfg.c **** 
 237:Generated_Source\PSoC4/cyfitter_cfg.c **** 	/* CYDEV_CLK_SELECT Starting address: CYDEV_CLK_SELECT */
 238:Generated_Source\PSoC4/cyfitter_cfg.c **** 	CY_SET_XTND_REG32((void CYFAR *)(CYREG_CLK_SELECT), 0x00040000u);
 239:Generated_Source\PSoC4/cyfitter_cfg.c **** 
 240:Generated_Source\PSoC4/cyfitter_cfg.c **** 	/* CYDEV_PERI_PCLK_CTL8 Starting address: CYDEV_PERI_PCLK_CTL8 */
 241:Generated_Source\PSoC4/cyfitter_cfg.c **** 	CY_SET_XTND_REG32((void CYFAR *)(CYREG_PERI_PCLK_CTL8), 0x00000042u);
 242:Generated_Source\PSoC4/cyfitter_cfg.c **** 
 243:Generated_Source\PSoC4/cyfitter_cfg.c **** 	/* CYDEV_PERI_PCLK_CTL7 Starting address: CYDEV_PERI_PCLK_CTL7 */
 244:Generated_Source\PSoC4/cyfitter_cfg.c **** 	CY_SET_XTND_REG32((void CYFAR *)(CYREG_PERI_PCLK_CTL7), 0x00000041u);
 245:Generated_Source\PSoC4/cyfitter_cfg.c **** 
 246:Generated_Source\PSoC4/cyfitter_cfg.c **** 	/* CYDEV_PERI_PCLK_CTL1 Starting address: CYDEV_PERI_PCLK_CTL1 */
 247:Generated_Source\PSoC4/cyfitter_cfg.c **** 	CY_SET_XTND_REG32((void CYFAR *)(CYREG_PERI_PCLK_CTL1), 0x00000040u);
 248:Generated_Source\PSoC4/cyfitter_cfg.c **** 
 249:Generated_Source\PSoC4/cyfitter_cfg.c **** 	CY_SET_XTND_REG32((void CYFAR *)(CYREG_WDT_CONFIG), 0x40000000u);
 250:Generated_Source\PSoC4/cyfitter_cfg.c **** }
 251:Generated_Source\PSoC4/cyfitter_cfg.c **** 
 252:Generated_Source\PSoC4/cyfitter_cfg.c **** 
 253:Generated_Source\PSoC4/cyfitter_cfg.c **** /* Analog API Functions */
 254:Generated_Source\PSoC4/cyfitter_cfg.c **** 
 255:Generated_Source\PSoC4/cyfitter_cfg.c **** 
 256:Generated_Source\PSoC4/cyfitter_cfg.c **** /*******************************************************************************
 257:Generated_Source\PSoC4/cyfitter_cfg.c **** * Function Name: AnalogSetDefault
 258:Generated_Source\PSoC4/cyfitter_cfg.c **** ********************************************************************************
 259:Generated_Source\PSoC4/cyfitter_cfg.c **** *
 260:Generated_Source\PSoC4/cyfitter_cfg.c **** * Summary:
ARM GAS  C:\Users\zhiantec\AppData\Local\Temp\ccgrxDvF.s 			page 6


 261:Generated_Source\PSoC4/cyfitter_cfg.c **** *  Sets up the analog portions of the chip to default values based on chip
 262:Generated_Source\PSoC4/cyfitter_cfg.c **** *  configuration options from the project.
 263:Generated_Source\PSoC4/cyfitter_cfg.c **** *
 264:Generated_Source\PSoC4/cyfitter_cfg.c **** * Parameters:
 265:Generated_Source\PSoC4/cyfitter_cfg.c **** *  void
 266:Generated_Source\PSoC4/cyfitter_cfg.c **** *
 267:Generated_Source\PSoC4/cyfitter_cfg.c **** * Return:
 268:Generated_Source\PSoC4/cyfitter_cfg.c **** *  void
 269:Generated_Source\PSoC4/cyfitter_cfg.c **** *
 270:Generated_Source\PSoC4/cyfitter_cfg.c **** *******************************************************************************/
 271:Generated_Source\PSoC4/cyfitter_cfg.c **** static void AnalogSetDefault(void);
 272:Generated_Source\PSoC4/cyfitter_cfg.c **** static void AnalogSetDefault(void)
 273:Generated_Source\PSoC4/cyfitter_cfg.c **** {
 274:Generated_Source\PSoC4/cyfitter_cfg.c **** 	CY_SET_XTND_REG32((void CYFAR *)CYREG_CTBM0_DFT_CTRL, 0x00000003u);
 275:Generated_Source\PSoC4/cyfitter_cfg.c **** 	CY_SET_XTND_REG32((void CYFAR *)CYREG_CTBM1_DFT_CTRL, 0x00000003u);
 276:Generated_Source\PSoC4/cyfitter_cfg.c **** 	CY_SET_XTND_REG32((void CYFAR *)CYREG_PASS_DSAB_DSAB_CTRL, 0x00000000u);
 277:Generated_Source\PSoC4/cyfitter_cfg.c **** }
 278:Generated_Source\PSoC4/cyfitter_cfg.c **** 
 279:Generated_Source\PSoC4/cyfitter_cfg.c **** #define CY_AMUX_UNUSED CYREG_CM0_ROM_DWT
 280:Generated_Source\PSoC4/cyfitter_cfg.c **** 
 281:Generated_Source\PSoC4/cyfitter_cfg.c **** 
 282:Generated_Source\PSoC4/cyfitter_cfg.c **** /*******************************************************************************
 283:Generated_Source\PSoC4/cyfitter_cfg.c **** * Function Name: cyfitter_cfg
 284:Generated_Source\PSoC4/cyfitter_cfg.c **** ********************************************************************************
 285:Generated_Source\PSoC4/cyfitter_cfg.c **** * Summary:
 286:Generated_Source\PSoC4/cyfitter_cfg.c **** *  This function is called by the start-up code for the selected device. It
 287:Generated_Source\PSoC4/cyfitter_cfg.c **** *  performs all of the necessary device configuration based on the design
 288:Generated_Source\PSoC4/cyfitter_cfg.c **** *  settings.  This includes settings from the Design Wide Resources (DWR) such
 289:Generated_Source\PSoC4/cyfitter_cfg.c **** *  as Clocks and Pins as well as any component configuration that is necessary.
 290:Generated_Source\PSoC4/cyfitter_cfg.c **** *
 291:Generated_Source\PSoC4/cyfitter_cfg.c **** * Parameters:  
 292:Generated_Source\PSoC4/cyfitter_cfg.c **** *   void
 293:Generated_Source\PSoC4/cyfitter_cfg.c **** *
 294:Generated_Source\PSoC4/cyfitter_cfg.c **** * Return:
 295:Generated_Source\PSoC4/cyfitter_cfg.c **** *   void
 296:Generated_Source\PSoC4/cyfitter_cfg.c **** *
 297:Generated_Source\PSoC4/cyfitter_cfg.c **** *******************************************************************************/
 298:Generated_Source\PSoC4/cyfitter_cfg.c **** CY_CFG_SECTION
 299:Generated_Source\PSoC4/cyfitter_cfg.c **** void cyfitter_cfg(void)
 300:Generated_Source\PSoC4/cyfitter_cfg.c **** {
  26              		.loc 1 300 0
  27              		.cfi_startproc
  28 0000 F8B5     		push	{r3, r4, r5, r6, r7, lr}
  29              		.cfi_def_cfa_offset 24
  30              		.cfi_offset 3, -24
  31              		.cfi_offset 4, -20
  32              		.cfi_offset 5, -16
  33              		.cfi_offset 6, -12
  34              		.cfi_offset 7, -8
  35              		.cfi_offset 14, -4
 301:Generated_Source\PSoC4/cyfitter_cfg.c **** 	/* Disable interrupts by default. Let user enable if/when they want. */
 302:Generated_Source\PSoC4/cyfitter_cfg.c **** 	CyGlobalIntDisable;
  36              		.loc 1 302 0
  37              	@ 302 "Generated_Source\PSoC4\cyfitter_cfg.c" 1
  38 0002 72B6     		CPSID   i
  39              	@ 0 "" 2
 303:Generated_Source\PSoC4/cyfitter_cfg.c **** 
ARM GAS  C:\Users\zhiantec\AppData\Local\Temp\ccgrxDvF.s 			page 7


 304:Generated_Source\PSoC4/cyfitter_cfg.c **** 	CY_SET_XTND_REG32((void CYFAR *)(CYREG_BLE_BLESS_LL_DSM_CTRL), 0x00000000u);
  40              		.loc 1 304 0
  41              		.code	16
  42 0004 0025     		mov	r5, #0
 305:Generated_Source\PSoC4/cyfitter_cfg.c **** 
 306:Generated_Source\PSoC4/cyfitter_cfg.c **** 	/* Enable the clock in the interrupt controller for the routed interrupts */
 307:Generated_Source\PSoC4/cyfitter_cfg.c **** 	CY_SET_REG8((void *)CYREG_UDB_UDBIF_INT_CLK_CTL, 0x01u);
  43              		.loc 1 307 0
  44 0006 0122     		mov	r2, #1
  45 0008 644B     		ldr	r3, .L7
 304:Generated_Source\PSoC4/cyfitter_cfg.c **** 
  46              		.loc 1 304 0
  47 000a 654C     		ldr	r4, .L7+4
  48              	.LBB14:
  49              	.LBB15:
  50              	.LBB16:
  51              	.LBB17:
  62:Generated_Source\PSoC4/cyfitter_cfg.c **** }
  52              		.loc 1 62 0
  53 000c 291C     		mov	r1, r5
  54              	.LBE17:
  55              	.LBE16:
  56              	.LBE15:
  57              	.LBE14:
 304:Generated_Source\PSoC4/cyfitter_cfg.c **** 
  58              		.loc 1 304 0
  59 000e 2560     		str	r5, [r4]
  60              		.loc 1 307 0
  61 0010 1A70     		strb	r2, [r3]
  62              	.LVL0:
  63              	.LBB24:
  64              	.LBB20:
  65              	.LBB19:
  66              	.LBB18:
  62:Generated_Source\PSoC4/cyfitter_cfg.c **** }
  67              		.loc 1 62 0
  68 0012 8022     		mov	r2, #128
  69 0014 6348     		ldr	r0, .L7+8
  70 0016 D200     		lsl	r2, r2, #3
  71 0018 FFF7FEFF 		bl	memset
  72              	.LVL1:
  73 001c 8022     		mov	r2, #128
  74 001e 291C     		mov	r1, r5
  75 0020 6148     		ldr	r0, .L7+12
  76 0022 D200     		lsl	r2, r2, #3
  77 0024 FFF7FEFF 		bl	memset
  78              	.LVL2:
  79 0028 291C     		mov	r1, r5
  80 002a 281C     		mov	r0, r5
  81              	.LVL3:
  82              	.L4:
  83              	.LBE18:
  84              	.LBE19:
  85              	.LBE20:
  86              	.LBB21:
  87              	.LBB22:
  88              	.LBB23:
ARM GAS  C:\Users\zhiantec\AppData\Local\Temp\ccgrxDvF.s 			page 8


 164:Generated_Source\PSoC4/cyfitter_cfg.c **** 		uint8 count = (uint8)baseAddr;
  89              		.loc 1 164 0
  90 002c 5F4F     		ldr	r7, .L7+16
 166:Generated_Source\PSoC4/cyfitter_cfg.c **** 		while (count != 0u)
  91              		.loc 1 166 0
  92 002e FF25     		mov	r5, #255
 164:Generated_Source\PSoC4/cyfitter_cfg.c **** 		uint8 count = (uint8)baseAddr;
  93              		.loc 1 164 0
  94 0030 CA59     		ldr	r2, [r1, r7]
  95              	.LVL4:
  96 0032 4300     		lsl	r3, r0, #1
 166:Generated_Source\PSoC4/cyfitter_cfg.c **** 		while (count != 0u)
  97              		.loc 1 166 0
  98 0034 161C     		mov	r6, r2
  99 0036 AE43     		bic	r6, r5
 100              	.LVL5:
 101 0038 1540     		and	r5, r2
 102 003a 4019     		add	r0, r0, r5
 103              	.LVL6:
 104 003c 4200     		lsl	r2, r0, #1
 105              	.LVL7:
 106 003e 1437     		add	r7, r7, #20
 107              	.LVL8:
 108 0040 0133     		add	r3, r3, #1
 109 0042 0132     		add	r2, r2, #1
 110 0044 FB18     		add	r3, r7, r3
 111 0046 BA18     		add	r2, r7, r2
 112              	.LVL9:
 113              	.L2:
 167:Generated_Source\PSoC4/cyfitter_cfg.c **** 		{
 114              		.loc 1 167 0
 115 0048 9342     		cmp	r3, r2
 116 004a 06D0     		beq	.L6
 117 004c 5D1E     		sub	r5, r3, #1
 169:Generated_Source\PSoC4/cyfitter_cfg.c **** 			j++;
 118              		.loc 1 169 0
 119 004e 2D78     		ldrb	r5, [r5]
 120 0050 1F78     		ldrb	r7, [r3]
 121 0052 AD19     		add	r5, r5, r6
 122 0054 2F70     		strb	r7, [r5]
 123 0056 0233     		add	r3, r3, #2
 124 0058 F6E7     		b	.L2
 125              	.L6:
 126              	.LVL10:
 127 005a 0431     		add	r1, r1, #4
 128              	.LBE23:
 162:Generated_Source\PSoC4/cyfitter_cfg.c **** 	{
 129              		.loc 1 162 0
 130 005c 1429     		cmp	r1, #20
 131 005e E5D1     		bne	.L4
 132              	.LBE22:
 133              	.LBE21:
 308:Generated_Source\PSoC4/cyfitter_cfg.c **** 	{
 309:Generated_Source\PSoC4/cyfitter_cfg.c **** 		static const uint32 CYCODE cy_cfg_addr_table[] = {
 310:Generated_Source\PSoC4/cyfitter_cfg.c **** 			0x400F3101u, /* Base address: 0x400F3100 Count: 1 */
 311:Generated_Source\PSoC4/cyfitter_cfg.c **** 			0x400F4004u, /* Base address: 0x400F4000 Count: 4 */
 312:Generated_Source\PSoC4/cyfitter_cfg.c **** 			0x400F4104u, /* Base address: 0x400F4100 Count: 4 */
ARM GAS  C:\Users\zhiantec\AppData\Local\Temp\ccgrxDvF.s 			page 9


 313:Generated_Source\PSoC4/cyfitter_cfg.c **** 			0x400F4203u, /* Base address: 0x400F4200 Count: 3 */
 314:Generated_Source\PSoC4/cyfitter_cfg.c **** 			0x400F6002u, /* Base address: 0x400F6000 Count: 2 */
 315:Generated_Source\PSoC4/cyfitter_cfg.c **** 		};
 316:Generated_Source\PSoC4/cyfitter_cfg.c **** 
 317:Generated_Source\PSoC4/cyfitter_cfg.c **** 		static const cy_cfg_addrvalue_t CYCODE cy_cfg_data_table[] = {
 318:Generated_Source\PSoC4/cyfitter_cfg.c **** 			{0xE2u, 0x08u},
 319:Generated_Source\PSoC4/cyfitter_cfg.c **** 			{0x67u, 0x80u},
 320:Generated_Source\PSoC4/cyfitter_cfg.c **** 			{0x87u, 0x40u},
 321:Generated_Source\PSoC4/cyfitter_cfg.c **** 			{0xD8u, 0x80u},
 322:Generated_Source\PSoC4/cyfitter_cfg.c **** 			{0xE2u, 0x10u},
 323:Generated_Source\PSoC4/cyfitter_cfg.c **** 			{0x17u, 0x10u},
 324:Generated_Source\PSoC4/cyfitter_cfg.c **** 			{0x6Fu, 0x10u},
 325:Generated_Source\PSoC4/cyfitter_cfg.c **** 			{0xC4u, 0x80u},
 326:Generated_Source\PSoC4/cyfitter_cfg.c **** 			{0xDAu, 0x80u},
 327:Generated_Source\PSoC4/cyfitter_cfg.c **** 			{0x13u, 0x08u},
 328:Generated_Source\PSoC4/cyfitter_cfg.c **** 			{0x87u, 0x08u},
 329:Generated_Source\PSoC4/cyfitter_cfg.c **** 			{0xC4u, 0x08u},
 330:Generated_Source\PSoC4/cyfitter_cfg.c **** 			{0x02u, 0x01u},
 331:Generated_Source\PSoC4/cyfitter_cfg.c **** 			{0x11u, 0x01u},
 332:Generated_Source\PSoC4/cyfitter_cfg.c **** 		};
 333:Generated_Source\PSoC4/cyfitter_cfg.c **** 
 334:Generated_Source\PSoC4/cyfitter_cfg.c **** 
 335:Generated_Source\PSoC4/cyfitter_cfg.c **** 
 336:Generated_Source\PSoC4/cyfitter_cfg.c **** 		CYPACKED typedef struct {
 337:Generated_Source\PSoC4/cyfitter_cfg.c **** 			void CYFAR *address;
 338:Generated_Source\PSoC4/cyfitter_cfg.c **** 			uint16 size;
 339:Generated_Source\PSoC4/cyfitter_cfg.c **** 		} CYPACKED_ATTR cfg_memset_t;
 340:Generated_Source\PSoC4/cyfitter_cfg.c **** 
 341:Generated_Source\PSoC4/cyfitter_cfg.c **** 		static const cfg_memset_t CYCODE cfg_memset_list [] = {
 342:Generated_Source\PSoC4/cyfitter_cfg.c **** 			/* address, size */
 343:Generated_Source\PSoC4/cyfitter_cfg.c **** 			{(void CYFAR *)(CYDEV_UDB_P0_U0_BASE), 1024u},
 344:Generated_Source\PSoC4/cyfitter_cfg.c **** 			{(void CYFAR *)(CYDEV_UDB_DSI0_BASE), 1024u},
 345:Generated_Source\PSoC4/cyfitter_cfg.c **** 		};
 346:Generated_Source\PSoC4/cyfitter_cfg.c **** 
 347:Generated_Source\PSoC4/cyfitter_cfg.c **** 		uint8 CYDATA i;
 348:Generated_Source\PSoC4/cyfitter_cfg.c **** 
 349:Generated_Source\PSoC4/cyfitter_cfg.c **** 		/* Zero out critical memory blocks before beginning configuration */
 350:Generated_Source\PSoC4/cyfitter_cfg.c **** 		for (i = 0u; i < (sizeof(cfg_memset_list)/sizeof(cfg_memset_list[0])); i++)
 351:Generated_Source\PSoC4/cyfitter_cfg.c **** 		{
 352:Generated_Source\PSoC4/cyfitter_cfg.c **** 			const cfg_memset_t CYCODE * CYDATA ms = &cfg_memset_list[i];
 353:Generated_Source\PSoC4/cyfitter_cfg.c **** 			CYMEMZERO(ms->address, (size_t)(uint32)(ms->size));
 354:Generated_Source\PSoC4/cyfitter_cfg.c **** 		}
 355:Generated_Source\PSoC4/cyfitter_cfg.c **** 
 356:Generated_Source\PSoC4/cyfitter_cfg.c **** 		cfg_write_bytes32(cy_cfg_addr_table, cy_cfg_data_table);
 357:Generated_Source\PSoC4/cyfitter_cfg.c **** 
 358:Generated_Source\PSoC4/cyfitter_cfg.c **** 		/* HSIOM Starting address: CYDEV_HSIOM_BASE */
 359:Generated_Source\PSoC4/cyfitter_cfg.c **** 		CY_SET_XTND_REG32((void CYFAR *)(CYDEV_HSIOM_BASE), 0xEE300000u);
 134              		.loc 1 359 0
 135 0060 534A     		ldr	r2, .L7+20
 136 0062 544B     		ldr	r3, .L7+24
 360:Generated_Source\PSoC4/cyfitter_cfg.c **** 		CY_SET_XTND_REG32((void CYFAR *)(CYREG_HSIOM_PORT_SEL1), 0x00990000u);
 361:Generated_Source\PSoC4/cyfitter_cfg.c **** 
 362:Generated_Source\PSoC4/cyfitter_cfg.c **** 		/* UDB_PA_0 Starting address: CYDEV_UDB_PA0_BASE */
 363:Generated_Source\PSoC4/cyfitter_cfg.c **** 		CY_SET_XTND_REG32((void CYFAR *)(CYDEV_UDB_PA0_BASE), 0x00990000u);
 364:Generated_Source\PSoC4/cyfitter_cfg.c **** 		CY_SET_XTND_REG32((void CYFAR *)(CYREG_UDB_PA0_CFG8), 0x0C000000u);
 137              		.loc 1 364 0
 138 0064 C020     		mov	r0, #192
ARM GAS  C:\Users\zhiantec\AppData\Local\Temp\ccgrxDvF.s 			page 10


 139              	.LVL11:
 359:Generated_Source\PSoC4/cyfitter_cfg.c **** 		CY_SET_XTND_REG32((void CYFAR *)(CYREG_HSIOM_PORT_SEL1), 0x00990000u);
 140              		.loc 1 359 0
 141 0066 1A60     		str	r2, [r3]
 360:Generated_Source\PSoC4/cyfitter_cfg.c **** 		CY_SET_XTND_REG32((void CYFAR *)(CYREG_HSIOM_PORT_SEL1), 0x00990000u);
 142              		.loc 1 360 0
 143 0068 9923     		mov	r3, #153
 365:Generated_Source\PSoC4/cyfitter_cfg.c **** 
 366:Generated_Source\PSoC4/cyfitter_cfg.c **** 		/* UDB_PA_1 Starting address: CYDEV_UDB_PA1_BASE */
 367:Generated_Source\PSoC4/cyfitter_cfg.c **** 		CY_SET_XTND_REG32((void CYFAR *)(CYDEV_UDB_PA1_BASE), 0x00990000u);
 368:Generated_Source\PSoC4/cyfitter_cfg.c **** 
 369:Generated_Source\PSoC4/cyfitter_cfg.c **** 		/* UDB_PA_2 Starting address: CYDEV_UDB_PA2_BASE */
 370:Generated_Source\PSoC4/cyfitter_cfg.c **** 		CY_SET_XTND_REG32((void CYFAR *)(CYDEV_UDB_PA2_BASE), 0x00990000u);
 371:Generated_Source\PSoC4/cyfitter_cfg.c **** 
 372:Generated_Source\PSoC4/cyfitter_cfg.c **** 		/* UDB_PA_3 Starting address: CYDEV_UDB_PA3_BASE */
 373:Generated_Source\PSoC4/cyfitter_cfg.c **** 		CY_SET_XTND_REG32((void CYFAR *)(CYDEV_UDB_PA3_BASE), 0x00990000u);
 374:Generated_Source\PSoC4/cyfitter_cfg.c **** 		CY_SET_XTND_REG32((void CYFAR *)(CYREG_UDB_PA3_CFG4), 0x40000000u);
 144              		.loc 1 374 0
 145 006a 8026     		mov	r6, #128
 146              	.LVL12:
 375:Generated_Source\PSoC4/cyfitter_cfg.c **** 
 376:Generated_Source\PSoC4/cyfitter_cfg.c **** 		/* INT_SELECT Starting address: CYDEV_CPUSS_INT_SEL */
 377:Generated_Source\PSoC4/cyfitter_cfg.c **** 		CY_SET_XTND_REG32((void CYFAR *)(CYREG_CPUSS_INT_SEL), 0x00000002u);
 147              		.loc 1 377 0
 148 006c 0225     		mov	r5, #2
 378:Generated_Source\PSoC4/cyfitter_cfg.c **** 
 379:Generated_Source\PSoC4/cyfitter_cfg.c **** 		/* INT_CONFIG Starting address: CYDEV_UDB_INT_CFG */
 380:Generated_Source\PSoC4/cyfitter_cfg.c **** 		CY_SET_XTND_REG32((void CYFAR *)(CYREG_UDB_INT_CFG), 0x00000002u);
 381:Generated_Source\PSoC4/cyfitter_cfg.c **** 
 382:Generated_Source\PSoC4/cyfitter_cfg.c **** 		/* Enable digital routing */
 383:Generated_Source\PSoC4/cyfitter_cfg.c **** 		CY_SET_XTND_REG8((void *)CYREG_UDB_UDBIF_BANK_CTL, CY_GET_XTND_REG8((void *)CYREG_UDB_UDBIF_BANK_
 384:Generated_Source\PSoC4/cyfitter_cfg.c **** 
 385:Generated_Source\PSoC4/cyfitter_cfg.c **** 		/* Enable UDB array */
 386:Generated_Source\PSoC4/cyfitter_cfg.c **** 		CY_SET_XTND_REG8((void *)CYREG_UDB_UDBIF_WAIT_CFG, (uint8)((CY_GET_XTND_REG8((void *)CYREG_UDB_UD
 149              		.loc 1 386 0
 150 006e 3C27     		mov	r7, #60
 360:Generated_Source\PSoC4/cyfitter_cfg.c **** 
 151              		.loc 1 360 0
 152 0070 514A     		ldr	r2, .L7+28
 153 0072 1B04     		lsl	r3, r3, #16
 154 0074 1360     		str	r3, [r2]
 363:Generated_Source\PSoC4/cyfitter_cfg.c **** 		CY_SET_XTND_REG32((void CYFAR *)(CYREG_UDB_PA0_CFG8), 0x0C000000u);
 155              		.loc 1 363 0
 156 0076 514A     		ldr	r2, .L7+32
 364:Generated_Source\PSoC4/cyfitter_cfg.c **** 
 157              		.loc 1 364 0
 158 0078 0005     		lsl	r0, r0, #20
 363:Generated_Source\PSoC4/cyfitter_cfg.c **** 		CY_SET_XTND_REG32((void CYFAR *)(CYREG_UDB_PA0_CFG8), 0x0C000000u);
 159              		.loc 1 363 0
 160 007a 1360     		str	r3, [r2]
 364:Generated_Source\PSoC4/cyfitter_cfg.c **** 
 161              		.loc 1 364 0
 162 007c 504A     		ldr	r2, .L7+36
 374:Generated_Source\PSoC4/cyfitter_cfg.c **** 
 163              		.loc 1 374 0
 164 007e F605     		lsl	r6, r6, #23
 364:Generated_Source\PSoC4/cyfitter_cfg.c **** 
ARM GAS  C:\Users\zhiantec\AppData\Local\Temp\ccgrxDvF.s 			page 11


 165              		.loc 1 364 0
 166 0080 1060     		str	r0, [r2]
 367:Generated_Source\PSoC4/cyfitter_cfg.c **** 
 167              		.loc 1 367 0
 168 0082 504A     		ldr	r2, .L7+40
 169              		.loc 1 386 0
 170 0084 5048     		ldr	r0, .L7+44
 367:Generated_Source\PSoC4/cyfitter_cfg.c **** 
 171              		.loc 1 367 0
 172 0086 1360     		str	r3, [r2]
 370:Generated_Source\PSoC4/cyfitter_cfg.c **** 
 173              		.loc 1 370 0
 174 0088 504A     		ldr	r2, .L7+48
 175              	.LBE24:
 387:Generated_Source\PSoC4/cyfitter_cfg.c **** 		CY_SET_XTND_REG8((void *)CYREG_UDB_UDBIF_BANK_CTL, (uint8)(CY_GET_XTND_REG8((void *)CYREG_UDB_UDB
 388:Generated_Source\PSoC4/cyfitter_cfg.c **** 	}
 389:Generated_Source\PSoC4/cyfitter_cfg.c **** 
 390:Generated_Source\PSoC4/cyfitter_cfg.c **** 	/* Perform second pass device configuration. These items must be configured in specific order afte
 391:Generated_Source\PSoC4/cyfitter_cfg.c **** 	/* IOPINS0_0 Starting address: CYDEV_GPIO_PRT0_BASE */
 392:Generated_Source\PSoC4/cyfitter_cfg.c **** 	CY_SET_XTND_REG32((void CYFAR *)(CYDEV_GPIO_PRT0_BASE), 0x00000022u);
 393:Generated_Source\PSoC4/cyfitter_cfg.c **** 	CY_SET_XTND_REG32((void CYFAR *)(CYREG_GPIO_PRT0_PC), 0x00DB6C0Eu);
 394:Generated_Source\PSoC4/cyfitter_cfg.c **** 
 395:Generated_Source\PSoC4/cyfitter_cfg.c **** 	/* IOPINS0_1 Starting address: CYDEV_GPIO_PRT1_BASE */
 396:Generated_Source\PSoC4/cyfitter_cfg.c **** 	CY_SET_XTND_REG32((void CYFAR *)(CYDEV_GPIO_PRT1_BASE), 0x000000A4u);
 397:Generated_Source\PSoC4/cyfitter_cfg.c **** 	CY_SET_XTND_REG32((void CYFAR *)(CYREG_GPIO_PRT1_PC), 0x00231C76u);
 398:Generated_Source\PSoC4/cyfitter_cfg.c **** 	CY_SET_XTND_REG32((void CYFAR *)(CYREG_GPIO_PRT1_PC2), 0x00000020u);
 399:Generated_Source\PSoC4/cyfitter_cfg.c **** 
 400:Generated_Source\PSoC4/cyfitter_cfg.c **** 	/* IOPINS0_2 Starting address: CYDEV_GPIO_PRT2_BASE */
 401:Generated_Source\PSoC4/cyfitter_cfg.c **** 	CY_SET_XTND_REG32((void CYFAR *)(CYDEV_GPIO_PRT2_BASE), 0x00000070u);
 402:Generated_Source\PSoC4/cyfitter_cfg.c **** 	CY_SET_XTND_REG32((void CYFAR *)(CYREG_GPIO_PRT2_PC), 0x00109000u);
 403:Generated_Source\PSoC4/cyfitter_cfg.c **** 
 404:Generated_Source\PSoC4/cyfitter_cfg.c **** 	/* IOPINS0_3 Starting address: CYDEV_GPIO_PRT3_BASE */
 405:Generated_Source\PSoC4/cyfitter_cfg.c **** 	CY_SET_XTND_REG32((void CYFAR *)(CYDEV_GPIO_PRT3_BASE), 0x0000008Bu);
 406:Generated_Source\PSoC4/cyfitter_cfg.c **** 	CY_SET_XTND_REG32((void CYFAR *)(CYREG_GPIO_PRT3_PC), 0x005B63A4u);
 407:Generated_Source\PSoC4/cyfitter_cfg.c **** 	CY_SET_XTND_REG32((void CYFAR *)(CYREG_GPIO_PRT3_INTR_CFG), 0x00008000u);
 408:Generated_Source\PSoC4/cyfitter_cfg.c **** 
 409:Generated_Source\PSoC4/cyfitter_cfg.c **** 
 410:Generated_Source\PSoC4/cyfitter_cfg.c **** 	/* Setup clocks based on selections from Clock DWR */
 411:Generated_Source\PSoC4/cyfitter_cfg.c **** 	ClockSetup();
 412:Generated_Source\PSoC4/cyfitter_cfg.c **** 
 413:Generated_Source\PSoC4/cyfitter_cfg.c **** 	/* Perform basic analog initialization to defaults */
 414:Generated_Source\PSoC4/cyfitter_cfg.c **** 	AnalogSetDefault();
 415:Generated_Source\PSoC4/cyfitter_cfg.c **** 
 416:Generated_Source\PSoC4/cyfitter_cfg.c **** }
 176              		.loc 1 416 0
 177              		@ sp needed
 178              	.LBB25:
 370:Generated_Source\PSoC4/cyfitter_cfg.c **** 
 179              		.loc 1 370 0
 180 008a 1360     		str	r3, [r2]
 373:Generated_Source\PSoC4/cyfitter_cfg.c **** 		CY_SET_XTND_REG32((void CYFAR *)(CYREG_UDB_PA3_CFG4), 0x40000000u);
 181              		.loc 1 373 0
 182 008c 504A     		ldr	r2, .L7+52
 183 008e 1360     		str	r3, [r2]
 374:Generated_Source\PSoC4/cyfitter_cfg.c **** 
 184              		.loc 1 374 0
 185 0090 504B     		ldr	r3, .L7+56
ARM GAS  C:\Users\zhiantec\AppData\Local\Temp\ccgrxDvF.s 			page 12


 383:Generated_Source\PSoC4/cyfitter_cfg.c **** 
 186              		.loc 1 383 0
 187 0092 514A     		ldr	r2, .L7+60
 374:Generated_Source\PSoC4/cyfitter_cfg.c **** 
 188              		.loc 1 374 0
 189 0094 1E60     		str	r6, [r3]
 377:Generated_Source\PSoC4/cyfitter_cfg.c **** 
 190              		.loc 1 377 0
 191 0096 514B     		ldr	r3, .L7+64
 192 0098 1D60     		str	r5, [r3]
 380:Generated_Source\PSoC4/cyfitter_cfg.c **** 
 193              		.loc 1 380 0
 194 009a 514B     		ldr	r3, .L7+68
 195 009c 1D60     		str	r5, [r3]
 383:Generated_Source\PSoC4/cyfitter_cfg.c **** 
 196              		.loc 1 383 0
 197 009e 1378     		ldrb	r3, [r2]
 198 00a0 2B43     		orr	r3, r5
 199 00a2 1370     		strb	r3, [r2]
 386:Generated_Source\PSoC4/cyfitter_cfg.c **** 		CY_SET_XTND_REG8((void *)CYREG_UDB_UDBIF_BANK_CTL, (uint8)(CY_GET_XTND_REG8((void *)CYREG_UDB_UDB
 200              		.loc 1 386 0
 201 00a4 0378     		ldrb	r3, [r0]
 202 00a6 BB43     		bic	r3, r7
 203 00a8 1943     		orr	r1, r3
 204              	.LVL13:
 205 00aa C9B2     		uxtb	r1, r1
 206 00ac 0170     		strb	r1, [r0]
 387:Generated_Source\PSoC4/cyfitter_cfg.c **** 	}
 207              		.loc 1 387 0
 208 00ae 1621     		mov	r1, #22
 209 00b0 1378     		ldrb	r3, [r2]
 210              	.LBE25:
 211              	.LBB26:
 212              	.LBB27:
 212:Generated_Source\PSoC4/cyfitter_cfg.c **** 
 213              		.loc 1 212 0
 214 00b2 4C4F     		ldr	r7, .L7+72
 215              	.LBE27:
 216              	.LBE26:
 217              	.LBB30:
 387:Generated_Source\PSoC4/cyfitter_cfg.c **** 	}
 218              		.loc 1 387 0
 219 00b4 0B43     		orr	r3, r1
 220 00b6 1370     		strb	r3, [r2]
 221              	.LBE30:
 392:Generated_Source\PSoC4/cyfitter_cfg.c **** 	CY_SET_XTND_REG32((void CYFAR *)(CYREG_GPIO_PRT0_PC), 0x00DB6C0Eu);
 222              		.loc 1 392 0
 223 00b8 2222     		mov	r2, #34
 224 00ba 4B4B     		ldr	r3, .L7+76
 225 00bc 1A60     		str	r2, [r3]
 393:Generated_Source\PSoC4/cyfitter_cfg.c **** 
 226              		.loc 1 393 0
 227 00be 4B4A     		ldr	r2, .L7+80
 228 00c0 4B4B     		ldr	r3, .L7+84
 229 00c2 1A60     		str	r2, [r3]
 396:Generated_Source\PSoC4/cyfitter_cfg.c **** 	CY_SET_XTND_REG32((void CYFAR *)(CYREG_GPIO_PRT1_PC), 0x00231C76u);
 230              		.loc 1 396 0
ARM GAS  C:\Users\zhiantec\AppData\Local\Temp\ccgrxDvF.s 			page 13


 231 00c4 A422     		mov	r2, #164
 232 00c6 4B4B     		ldr	r3, .L7+88
 233 00c8 1A60     		str	r2, [r3]
 397:Generated_Source\PSoC4/cyfitter_cfg.c **** 	CY_SET_XTND_REG32((void CYFAR *)(CYREG_GPIO_PRT1_PC2), 0x00000020u);
 234              		.loc 1 397 0
 235 00ca 4B4A     		ldr	r2, .L7+92
 236 00cc 4B4B     		ldr	r3, .L7+96
 237 00ce 1A60     		str	r2, [r3]
 398:Generated_Source\PSoC4/cyfitter_cfg.c **** 
 238              		.loc 1 398 0
 239 00d0 2022     		mov	r2, #32
 240 00d2 4B4B     		ldr	r3, .L7+100
 241 00d4 1A60     		str	r2, [r3]
 401:Generated_Source\PSoC4/cyfitter_cfg.c **** 	CY_SET_XTND_REG32((void CYFAR *)(CYREG_GPIO_PRT2_PC), 0x00109000u);
 242              		.loc 1 401 0
 243 00d6 4B4B     		ldr	r3, .L7+104
 244 00d8 5032     		add	r2, r2, #80
 245 00da 1A60     		str	r2, [r3]
 402:Generated_Source\PSoC4/cyfitter_cfg.c **** 
 246              		.loc 1 402 0
 247 00dc 4A4A     		ldr	r2, .L7+108
 248 00de 4B4B     		ldr	r3, .L7+112
 249 00e0 1A60     		str	r2, [r3]
 405:Generated_Source\PSoC4/cyfitter_cfg.c **** 	CY_SET_XTND_REG32((void CYFAR *)(CYREG_GPIO_PRT3_PC), 0x005B63A4u);
 250              		.loc 1 405 0
 251 00e2 8B22     		mov	r2, #139
 252 00e4 4A4B     		ldr	r3, .L7+116
 253 00e6 1A60     		str	r2, [r3]
 406:Generated_Source\PSoC4/cyfitter_cfg.c **** 	CY_SET_XTND_REG32((void CYFAR *)(CYREG_GPIO_PRT3_INTR_CFG), 0x00008000u);
 254              		.loc 1 406 0
 255 00e8 4A4A     		ldr	r2, .L7+120
 256 00ea 4B4B     		ldr	r3, .L7+124
 257 00ec 1A60     		str	r2, [r3]
 407:Generated_Source\PSoC4/cyfitter_cfg.c **** 
 258              		.loc 1 407 0
 259 00ee 8022     		mov	r2, #128
 260 00f0 4A4B     		ldr	r3, .L7+128
 261 00f2 1202     		lsl	r2, r2, #8
 262 00f4 1A60     		str	r2, [r3]
 263              	.LBB31:
 264              	.LBB28:
 199:Generated_Source\PSoC4/cyfitter_cfg.c **** 
 265              		.loc 1 199 0
 266 00f6 1222     		mov	r2, #18
 267 00f8 494B     		ldr	r3, .L7+132
 268 00fa 1A60     		str	r2, [r3]
 202:Generated_Source\PSoC4/cyfitter_cfg.c **** 	CyDelayCycles(12000000u); /* WCO may take up to 500ms to start */
 269              		.loc 1 202 0
 270 00fc FFF7FEFF 		bl	CySysClkWcoStart
 271              	.LVL14:
 203:Generated_Source\PSoC4/cyfitter_cfg.c **** 	(void)CySysClkWcoSetPowerMode(CY_SYS_CLK_WCO_LPM);    /* Switch to the low power mode */
 272              		.loc 1 203 0
 273 0100 4848     		ldr	r0, .L7+136
 274 0102 FFF7FEFF 		bl	CyDelayCycles
 275              	.LVL15:
 204:Generated_Source\PSoC4/cyfitter_cfg.c **** 
 276              		.loc 1 204 0
ARM GAS  C:\Users\zhiantec\AppData\Local\Temp\ccgrxDvF.s 			page 14


 277 0106 0120     		mov	r0, #1
 278 0108 FFF7FEFF 		bl	CySysClkWcoSetPowerMode
 279              	.LVL16:
 207:Generated_Source\PSoC4/cyfitter_cfg.c **** 	/* CYDEV_CLK_ILO_CONFIG Starting address: CYDEV_CLK_ILO_CONFIG */
 280              		.loc 1 207 0
 281 010c 3020     		mov	r0, #48
 282 010e FFF7FEFF 		bl	CySysClkWriteImoFreq
 283              	.LVL17:
 209:Generated_Source\PSoC4/cyfitter_cfg.c **** 
 284              		.loc 1 209 0
 285 0112 454A     		ldr	r2, .L7+140
 286 0114 454B     		ldr	r3, .L7+144
 223:Generated_Source\PSoC4/cyfitter_cfg.c **** 	CyDelayUs(1500u); /* Wait to stabalize */
 287              		.loc 1 223 0
 288 0116 FA20     		mov	r0, #250
 209:Generated_Source\PSoC4/cyfitter_cfg.c **** 
 289              		.loc 1 209 0
 290 0118 1A60     		str	r2, [r3]
 216:Generated_Source\PSoC4/cyfitter_cfg.c **** 	CY_SET_XTND_REG32((void CYFAR *)(CYREG_BLE_BLERD_BB_XO_CAPTRIM), 0x00002D6Au);
 291              		.loc 1 216 0
 292 011a 454A     		ldr	r2, .L7+148
 212:Generated_Source\PSoC4/cyfitter_cfg.c **** 
 293              		.loc 1 212 0
 294 011c 3E60     		str	r6, [r7]
 216:Generated_Source\PSoC4/cyfitter_cfg.c **** 	CY_SET_XTND_REG32((void CYFAR *)(CYREG_BLE_BLERD_BB_XO_CAPTRIM), 0x00002D6Au);
 295              		.loc 1 216 0
 296 011e 1368     		ldr	r3, [r2]
 223:Generated_Source\PSoC4/cyfitter_cfg.c **** 	CyDelayUs(1500u); /* Wait to stabalize */
 297              		.loc 1 223 0
 298 0120 C000     		lsl	r0, r0, #3
 216:Generated_Source\PSoC4/cyfitter_cfg.c **** 	CY_SET_XTND_REG32((void CYFAR *)(CYREG_BLE_BLERD_BB_XO_CAPTRIM), 0x00002D6Au);
 299              		.loc 1 216 0
 300 0122 1D43     		orr	r5, r3
 301 0124 1560     		str	r5, [r2]
 219:Generated_Source\PSoC4/cyfitter_cfg.c **** 	/* Disable Crystal Stable Interrupt before enabling ECO */
 302              		.loc 1 219 0
 303 0126 0025     		mov	r5, #0
 217:Generated_Source\PSoC4/cyfitter_cfg.c **** 	/*Set XTAL(ECO) divider*/
 304              		.loc 1 217 0
 305 0128 424A     		ldr	r2, .L7+152
 306 012a 434B     		ldr	r3, .L7+156
 307 012c 1A60     		str	r2, [r3]
 221:Generated_Source\PSoC4/cyfitter_cfg.c **** 	/* Start the ECO and do not check status since it is not needed for HFCLK */
 308              		.loc 1 221 0
 309 012e 0822     		mov	r2, #8
 219:Generated_Source\PSoC4/cyfitter_cfg.c **** 	/* Disable Crystal Stable Interrupt before enabling ECO */
 310              		.loc 1 219 0
 311 0130 424B     		ldr	r3, .L7+160
 312 0132 1D60     		str	r5, [r3]
 221:Generated_Source\PSoC4/cyfitter_cfg.c **** 	/* Start the ECO and do not check status since it is not needed for HFCLK */
 313              		.loc 1 221 0
 314 0134 2368     		ldr	r3, [r4]
 315 0136 9343     		bic	r3, r2
 316 0138 2360     		str	r3, [r4]
 223:Generated_Source\PSoC4/cyfitter_cfg.c **** 	CyDelayUs(1500u); /* Wait to stabalize */
 317              		.loc 1 223 0
 318 013a FFF7FEFF 		bl	CySysClkEcoStart
ARM GAS  C:\Users\zhiantec\AppData\Local\Temp\ccgrxDvF.s 			page 15


 319              	.LVL18:
 224:Generated_Source\PSoC4/cyfitter_cfg.c **** 
 320              		.loc 1 224 0
 321 013e 4048     		ldr	r0, .L7+164
 322 0140 FFF7FEFF 		bl	CyDelayUs
 323              	.LVL19:
 227:Generated_Source\PSoC4/cyfitter_cfg.c **** 	CY_SET_REG32((void *)CYREG_PERI_DIV_CMD, 0x8000FF42u);
 324              		.loc 1 227 0
 325 0144 BC22     		mov	r2, #188
 326 0146 3F4B     		ldr	r3, .L7+168
 327 0148 9201     		lsl	r2, r2, #6
 328 014a 1A60     		str	r2, [r3]
 228:Generated_Source\PSoC4/cyfitter_cfg.c **** 	CY_SET_REG32((void *)CYREG_PERI_DIV_16_CTL1, 0x00002F00u);
 329              		.loc 1 228 0
 330 014c 3E49     		ldr	r1, .L7+172
 331 014e 3F4B     		ldr	r3, .L7+176
 332 0150 1960     		str	r1, [r3]
 229:Generated_Source\PSoC4/cyfitter_cfg.c **** 	CY_SET_REG32((void *)CYREG_PERI_DIV_CMD, 0x8000FF41u);
 333              		.loc 1 229 0
 334 0152 3F49     		ldr	r1, .L7+180
 335 0154 0A60     		str	r2, [r1]
 231:Generated_Source\PSoC4/cyfitter_cfg.c **** 	CY_SET_REG32((void *)CYREG_PERI_DIV_CMD, 0x8000FF40u);
 336              		.loc 1 231 0
 337 0156 8821     		mov	r1, #136
 230:Generated_Source\PSoC4/cyfitter_cfg.c **** 	CY_SET_REG32((void *)CYREG_PERI_DIV_16_CTL0, 0x00002200u);
 338              		.loc 1 230 0
 339 0158 3E4A     		ldr	r2, .L7+184
 231:Generated_Source\PSoC4/cyfitter_cfg.c **** 	CY_SET_REG32((void *)CYREG_PERI_DIV_CMD, 0x8000FF40u);
 340              		.loc 1 231 0
 341 015a 8901     		lsl	r1, r1, #6
 230:Generated_Source\PSoC4/cyfitter_cfg.c **** 	CY_SET_REG32((void *)CYREG_PERI_DIV_16_CTL0, 0x00002200u);
 342              		.loc 1 230 0
 343 015c 1A60     		str	r2, [r3]
 231:Generated_Source\PSoC4/cyfitter_cfg.c **** 	CY_SET_REG32((void *)CYREG_PERI_DIV_CMD, 0x8000FF40u);
 344              		.loc 1 231 0
 345 015e 3E4A     		ldr	r2, .L7+188
 346 0160 1160     		str	r1, [r2]
 232:Generated_Source\PSoC4/cyfitter_cfg.c **** 
 347              		.loc 1 232 0
 348 0162 3E4A     		ldr	r2, .L7+192
 349 0164 1A60     		str	r2, [r3]
 235:Generated_Source\PSoC4/cyfitter_cfg.c **** 
 350              		.loc 1 235 0
 351 0166 8022     		mov	r2, #128
 352 0168 3D4B     		ldr	r3, .L7+196
 353 016a 1206     		lsl	r2, r2, #24
 354 016c 1A60     		str	r2, [r3]
 238:Generated_Source\PSoC4/cyfitter_cfg.c **** 
 355              		.loc 1 238 0
 356 016e 8022     		mov	r2, #128
 357 0170 3C4B     		ldr	r3, .L7+200
 358 0172 D202     		lsl	r2, r2, #11
 359 0174 1A60     		str	r2, [r3]
 241:Generated_Source\PSoC4/cyfitter_cfg.c **** 
 360              		.loc 1 241 0
 361 0176 4222     		mov	r2, #66
 362 0178 3B4B     		ldr	r3, .L7+204
ARM GAS  C:\Users\zhiantec\AppData\Local\Temp\ccgrxDvF.s 			page 16


 363 017a 1A60     		str	r2, [r3]
 244:Generated_Source\PSoC4/cyfitter_cfg.c **** 
 364              		.loc 1 244 0
 365 017c 3B4B     		ldr	r3, .L7+208
 366 017e 013A     		sub	r2, r2, #1
 367 0180 1A60     		str	r2, [r3]
 247:Generated_Source\PSoC4/cyfitter_cfg.c **** 
 368              		.loc 1 247 0
 369 0182 3B4B     		ldr	r3, .L7+212
 370 0184 013A     		sub	r2, r2, #1
 371 0186 1A60     		str	r2, [r3]
 372              	.LBE28:
 373              	.LBE31:
 374              	.LBB32:
 375              	.LBB33:
 274:Generated_Source\PSoC4/cyfitter_cfg.c **** 	CY_SET_XTND_REG32((void CYFAR *)CYREG_CTBM1_DFT_CTRL, 0x00000003u);
 376              		.loc 1 274 0
 377 0188 0323     		mov	r3, #3
 378 018a 3A4A     		ldr	r2, .L7+216
 379              	.LBE33:
 380              	.LBE32:
 381              	.LBB35:
 382              	.LBB29:
 249:Generated_Source\PSoC4/cyfitter_cfg.c **** }
 383              		.loc 1 249 0
 384 018c 3E60     		str	r6, [r7]
 385              	.LBE29:
 386              	.LBE35:
 387              	.LBB36:
 388              	.LBB34:
 274:Generated_Source\PSoC4/cyfitter_cfg.c **** 	CY_SET_XTND_REG32((void CYFAR *)CYREG_CTBM1_DFT_CTRL, 0x00000003u);
 389              		.loc 1 274 0
 390 018e 1360     		str	r3, [r2]
 275:Generated_Source\PSoC4/cyfitter_cfg.c **** 	CY_SET_XTND_REG32((void CYFAR *)CYREG_PASS_DSAB_DSAB_CTRL, 0x00000000u);
 391              		.loc 1 275 0
 392 0190 394A     		ldr	r2, .L7+220
 393 0192 1360     		str	r3, [r2]
 276:Generated_Source\PSoC4/cyfitter_cfg.c **** }
 394              		.loc 1 276 0
 395 0194 394B     		ldr	r3, .L7+224
 396 0196 1D60     		str	r5, [r3]
 397              	.LBE34:
 398              	.LBE36:
 399              		.loc 1 416 0
 400 0198 F8BD     		pop	{r3, r4, r5, r6, r7, pc}
 401              	.L8:
 402 019a C046     		.align	2
 403              	.L7:
 404 019c 1C700F40 		.word	1074753564
 405 01a0 6CF02E40 		.word	1076818028
 406 01a4 00300F40 		.word	1074737152
 407 01a8 00400F40 		.word	1074741248
 408 01ac 00000000 		.word	.LANCHOR0
 409 01b0 000030EE 		.word	-298844160
 410 01b4 00000240 		.word	1073872896
 411 01b8 00010240 		.word	1073873152
 412 01bc 00500F40 		.word	1074745344
ARM GAS  C:\Users\zhiantec\AppData\Local\Temp\ccgrxDvF.s 			page 17


 413 01c0 08500F40 		.word	1074745352
 414 01c4 10500F40 		.word	1074745360
 415 01c8 01700F40 		.word	1074753537
 416 01cc 20500F40 		.word	1074745376
 417 01d0 30500F40 		.word	1074745392
 418 01d4 34500F40 		.word	1074745396
 419 01d8 00700F40 		.word	1074753536
 420 01dc 20001040 		.word	1074790432
 421 01e0 00800F40 		.word	1074757632
 422 01e4 0C020B40 		.word	1074463244
 423 01e8 00000440 		.word	1074003968
 424 01ec 0E6CDB00 		.word	14380046
 425 01f0 08000440 		.word	1074003976
 426 01f4 00010440 		.word	1074004224
 427 01f8 761C2300 		.word	2301046
 428 01fc 08010440 		.word	1074004232
 429 0200 18010440 		.word	1074004248
 430 0204 00020440 		.word	1074004480
 431 0208 00901000 		.word	1085440
 432 020c 08020440 		.word	1074004488
 433 0210 00030440 		.word	1074004736
 434 0214 A4635B00 		.word	5989284
 435 0218 08030440 		.word	1074004744
 436 021c 0C030440 		.word	1074004748
 437 0220 30001040 		.word	1074790448
 438 0224 001BB700 		.word	12000000
 439 0228 06000080 		.word	-2147483642
 440 022c 04010B40 		.word	1074462980
 441 0230 78002E40 		.word	1076756600
 442 0234 6A2D0000 		.word	11626
 443 0238 7C002E40 		.word	1076756604
 444 023c 64F02E40 		.word	1076818020
 445 0240 DC050000 		.word	1500
 446 0244 08030140 		.word	1073808136
 447 0248 42FF0080 		.word	-2147418302
 448 024c 00000140 		.word	1073807360
 449 0250 04030140 		.word	1073808132
 450 0254 41FF0080 		.word	-2147418303
 451 0258 00030140 		.word	1073808128
 452 025c 40FF0080 		.word	-2147418304
 453 0260 08010B40 		.word	1074462984
 454 0264 00010B40 		.word	1074462976
 455 0268 20010140 		.word	1073807648
 456 026c 1C010140 		.word	1073807644
 457 0270 04010140 		.word	1073807620
 458 0274 30003040 		.word	1076887600
 459 0278 30003140 		.word	1076953136
 460 027c 000E3F40 		.word	1077874176
 461              		.cfi_endproc
 462              	.LFE8:
 463              		.size	cyfitter_cfg, .-cyfitter_cfg
 464              		.section	.rodata
 465              		.align	2
 466              		.set	.LANCHOR0,. + 0
 467              		.type	cy_cfg_addr_table.4779, %object
 468              		.size	cy_cfg_addr_table.4779, 20
 469              	cy_cfg_addr_table.4779:
ARM GAS  C:\Users\zhiantec\AppData\Local\Temp\ccgrxDvF.s 			page 18


 470 0000 01310F40 		.word	1074737409
 471 0004 04400F40 		.word	1074741252
 472 0008 04410F40 		.word	1074741508
 473 000c 03420F40 		.word	1074741763
 474 0010 02600F40 		.word	1074749442
 475              		.type	cy_cfg_data_table.4780, %object
 476              		.size	cy_cfg_data_table.4780, 28
 477              	cy_cfg_data_table.4780:
 478 0014 E2       		.byte	-30
 479 0015 08       		.byte	8
 480 0016 67       		.byte	103
 481 0017 80       		.byte	-128
 482 0018 87       		.byte	-121
 483 0019 40       		.byte	64
 484 001a D8       		.byte	-40
 485 001b 80       		.byte	-128
 486 001c E2       		.byte	-30
 487 001d 10       		.byte	16
 488 001e 17       		.byte	23
 489 001f 10       		.byte	16
 490 0020 6F       		.byte	111
 491 0021 10       		.byte	16
 492 0022 C4       		.byte	-60
 493 0023 80       		.byte	-128
 494 0024 DA       		.byte	-38
 495 0025 80       		.byte	-128
 496 0026 13       		.byte	19
 497 0027 08       		.byte	8
 498 0028 87       		.byte	-121
 499 0029 08       		.byte	8
 500 002a C4       		.byte	-60
 501 002b 08       		.byte	8
 502 002c 02       		.byte	2
 503 002d 01       		.byte	1
 504 002e 11       		.byte	17
 505 002f 01       		.byte	1
 506              		.text
 507              	.Letext0:
 508              		.file 2 "c:\\program files (x86)\\cypress\\psoc creator\\4.0\\psoc creator\\import\\gnu\\arm\\4.9.
 509              		.file 3 "Generated_Source\\PSoC4\\cytypes.h"
 510              		.file 4 "Generated_Source\\PSoC4\\CyLib.h"
 511              		.file 5 "Generated_Source\\PSoC4\\CyLFClk.h"