ARM GAS  C:\Users\Administrator\AppData\Local\Temp\cckW6Rlm.s 			page 1


   1              		.cpu cortex-m0
   2              		.fpu softvfp
   3              		.eabi_attribute 20, 1
   4              		.eabi_attribute 21, 1
   5              		.eabi_attribute 23, 3
   6              		.eabi_attribute 24, 1
   7              		.eabi_attribute 25, 1
   8              		.eabi_attribute 26, 1
   9              		.eabi_attribute 30, 4
  10              		.eabi_attribute 34, 0
  11              		.eabi_attribute 18, 4
  12              		.code	16
  13              		.file	"flash_spi.c"
  14              		.text
  15              	.Ltext0:
  16              		.cfi_sections	.debug_frame
  17              		.section	.text.FLASH_SPI_Send_Dat,"ax",%progbits
  18              		.align	1
  19              		.code	16
  20              		.thumb_func
  21              		.type	FLASH_SPI_Send_Dat, %function
  22              	FLASH_SPI_Send_Dat:
  23              	.LFB64:
  24              		.file 1 "Code\\Device\\W25Q80\\flash_spi.c"
   1:Code\Device\W25Q80/flash_spi.c **** //*************************************************************************************************
   2:Code\Device\W25Q80/flash_spi.c **** // File name		: flash_spi.c
   3:Code\Device\W25Q80/flash_spi.c **** // Description		: 模拟flash_spi的相关函数
   4:Code\Device\W25Q80/flash_spi.c **** // Author			: Keno
   5:Code\Device\W25Q80/flash_spi.c **** // Date				: 2016.11.14
   6:Code\Device\W25Q80/flash_spi.c **** // Version			: V02
   7:Code\Device\W25Q80/flash_spi.c **** //*************************************************************************************************
   8:Code\Device\W25Q80/flash_spi.c **** #include "flash_spi.h"
   9:Code\Device\W25Q80/flash_spi.c **** 
  10:Code\Device\W25Q80/flash_spi.c **** 
  11:Code\Device\W25Q80/flash_spi.c **** //*************************************************************************************************
  12:Code\Device\W25Q80/flash_spi.c **** // Function name	: FLASH_FLASH_SPI_Init
  13:Code\Device\W25Q80/flash_spi.c **** // Description		: FLASH_FLASH_SPI的初始化
  14:Code\Device\W25Q80/flash_spi.c **** // Parameter		: none
  15:Code\Device\W25Q80/flash_spi.c **** // Return			: none
  16:Code\Device\W25Q80/flash_spi.c **** //-------------------------------------------------------------------------------------------------
  17:Code\Device\W25Q80/flash_spi.c **** // Info				: 
  18:Code\Device\W25Q80/flash_spi.c **** //*************************************************************************************************
  19:Code\Device\W25Q80/flash_spi.c **** void FLASH_SPI_Init(void)
  20:Code\Device\W25Q80/flash_spi.c **** {
  21:Code\Device\W25Q80/flash_spi.c **** 	FLASH_DISABLE();
  22:Code\Device\W25Q80/flash_spi.c **** 	FLASH_SCK_RESET();
  23:Code\Device\W25Q80/flash_spi.c **** 	FLASH_MOSI_RESET();
  24:Code\Device\W25Q80/flash_spi.c **** }
  25:Code\Device\W25Q80/flash_spi.c **** 
  26:Code\Device\W25Q80/flash_spi.c **** //*************************************************************************************************
  27:Code\Device\W25Q80/flash_spi.c **** // Function name	: FLASH_SPI_Send_Dat
  28:Code\Device\W25Q80/flash_spi.c **** // Description		: 发送一字节数据
  29:Code\Device\W25Q80/flash_spi.c **** // Parameter		: none
  30:Code\Device\W25Q80/flash_spi.c **** // Return			: none
  31:Code\Device\W25Q80/flash_spi.c **** //-------------------------------------------------------------------------------------------------
  32:Code\Device\W25Q80/flash_spi.c **** // Info				: 
  33:Code\Device\W25Q80/flash_spi.c **** //*************************************************************************************************
ARM GAS  C:\Users\Administrator\AppData\Local\Temp\cckW6Rlm.s 			page 2


  34:Code\Device\W25Q80/flash_spi.c **** static void FLASH_SPI_Send_Dat(INT8U dat)
  35:Code\Device\W25Q80/flash_spi.c **** {
  25              		.loc 1 35 0
  26              		.cfi_startproc
  27              	.LVL0:
  28 0000 38B5     		push	{r3, r4, r5, lr}
  29              		.cfi_def_cfa_offset 16
  30              		.cfi_offset 3, -16
  31              		.cfi_offset 4, -12
  32              		.cfi_offset 5, -8
  33              		.cfi_offset 14, -4
  34              		.loc 1 35 0
  35 0002 051C     		mov	r5, r0
  36              	.LVL1:
  37 0004 0824     		mov	r4, #8
  38              	.LVL2:
  39              	.L4:
  36:Code\Device\W25Q80/flash_spi.c **** 	INT8U i;
  37:Code\Device\W25Q80/flash_spi.c **** 	for (i = 0; i < 8; i++)
  38:Code\Device\W25Q80/flash_spi.c **** 	{
  39:Code\Device\W25Q80/flash_spi.c **** 		FLASH_SCK_RESET();
  40              		.loc 1 39 0
  41 0006 0020     		mov	r0, #0
  42 0008 FFF7FEFF 		bl	FLASH_SCK_Write
  43              	.LVL3:
  40:Code\Device\W25Q80/flash_spi.c **** 		CyDelayUs(1);
  44              		.loc 1 40 0
  45 000c 0120     		mov	r0, #1
  46 000e FFF7FEFF 		bl	CyDelayUs
  47              	.LVL4:
  41:Code\Device\W25Q80/flash_spi.c **** 		if (dat & 0x80)
  48              		.loc 1 41 0
  49 0012 6BB2     		sxtb	r3, r5
  42:Code\Device\W25Q80/flash_spi.c **** 			FLASH_MOSI_SET();
  50              		.loc 1 42 0
  51 0014 0120     		mov	r0, #1
  41:Code\Device\W25Q80/flash_spi.c **** 		if (dat & 0x80)
  52              		.loc 1 41 0
  53 0016 002B     		cmp	r3, #0
  54 0018 00DB     		blt	.L5
  43:Code\Device\W25Q80/flash_spi.c **** 		else
  44:Code\Device\W25Q80/flash_spi.c **** 			FLASH_MOSI_RESET();
  55              		.loc 1 44 0
  56 001a 0020     		mov	r0, #0
  57              	.L5:
  58 001c FFF7FEFF 		bl	FLASH_MOSI_Write
  59              	.LVL5:
  45:Code\Device\W25Q80/flash_spi.c **** 		CyDelayUs(1);
  60              		.loc 1 45 0
  61 0020 0120     		mov	r0, #1
  62 0022 FFF7FEFF 		bl	CyDelayUs
  63              	.LVL6:
  64 0026 013C     		sub	r4, r4, #1
  65              	.LVL7:
  46:Code\Device\W25Q80/flash_spi.c **** 		dat <<= 1;
  47:Code\Device\W25Q80/flash_spi.c **** 		FLASH_SCK_SET();
  66              		.loc 1 47 0
ARM GAS  C:\Users\Administrator\AppData\Local\Temp\cckW6Rlm.s 			page 3


  67 0028 0120     		mov	r0, #1
  68 002a FFF7FEFF 		bl	FLASH_SCK_Write
  69              	.LVL8:
  46:Code\Device\W25Q80/flash_spi.c **** 		dat <<= 1;
  70              		.loc 1 46 0
  71 002e 6D00     		lsl	r5, r5, #1
  72              	.LVL9:
  48:Code\Device\W25Q80/flash_spi.c **** 		CyDelayUs(2);
  73              		.loc 1 48 0
  74 0030 0220     		mov	r0, #2
  75 0032 E4B2     		uxtb	r4, r4
  46:Code\Device\W25Q80/flash_spi.c **** 		dat <<= 1;
  76              		.loc 1 46 0
  77 0034 EDB2     		uxtb	r5, r5
  78              	.LVL10:
  79              		.loc 1 48 0
  80 0036 FFF7FEFF 		bl	CyDelayUs
  81              	.LVL11:
  37:Code\Device\W25Q80/flash_spi.c **** 	{
  82              		.loc 1 37 0
  83 003a 002C     		cmp	r4, #0
  84 003c E3D1     		bne	.L4
  49:Code\Device\W25Q80/flash_spi.c **** 	}
  50:Code\Device\W25Q80/flash_spi.c **** 	FLASH_SCK_RESET();
  85              		.loc 1 50 0
  86 003e 201C     		mov	r0, r4
  87 0040 FFF7FEFF 		bl	FLASH_SCK_Write
  88              	.LVL12:
  51:Code\Device\W25Q80/flash_spi.c **** 	CyDelayUs(10);
  89              		.loc 1 51 0
  90 0044 0A20     		mov	r0, #10
  91 0046 FFF7FEFF 		bl	CyDelayUs
  92              	.LVL13:
  52:Code\Device\W25Q80/flash_spi.c **** }
  93              		.loc 1 52 0
  94              		@ sp needed
  95              	.LVL14:
  96 004a 38BD     		pop	{r3, r4, r5, pc}
  97              		.cfi_endproc
  98              	.LFE64:
  99              		.size	FLASH_SPI_Send_Dat, .-FLASH_SPI_Send_Dat
 100              		.section	.text.FLASH_SPI_Receive_Dat,"ax",%progbits
 101              		.align	1
 102              		.code	16
 103              		.thumb_func
 104              		.type	FLASH_SPI_Receive_Dat, %function
 105              	FLASH_SPI_Receive_Dat:
 106              	.LFB65:
  53:Code\Device\W25Q80/flash_spi.c **** 
  54:Code\Device\W25Q80/flash_spi.c **** //*************************************************************************************************
  55:Code\Device\W25Q80/flash_spi.c **** // Function name	: FLASH_SPI_Receive_Dat
  56:Code\Device\W25Q80/flash_spi.c **** // Description		: 接收一字节数据
  57:Code\Device\W25Q80/flash_spi.c **** // Parameter		: none
  58:Code\Device\W25Q80/flash_spi.c **** // Return			: none
  59:Code\Device\W25Q80/flash_spi.c **** //-------------------------------------------------------------------------------------------------
  60:Code\Device\W25Q80/flash_spi.c **** // Info				: 
  61:Code\Device\W25Q80/flash_spi.c **** //*************************************************************************************************
ARM GAS  C:\Users\Administrator\AppData\Local\Temp\cckW6Rlm.s 			page 4


  62:Code\Device\W25Q80/flash_spi.c **** static INT8U FLASH_SPI_Receive_Dat(void)
  63:Code\Device\W25Q80/flash_spi.c **** {
 107              		.loc 1 63 0
 108              		.cfi_startproc
 109              	.LVL15:
 110 0000 38B5     		push	{r3, r4, r5, lr}
 111              		.cfi_def_cfa_offset 16
 112              		.cfi_offset 3, -16
 113              		.cfi_offset 4, -12
 114              		.cfi_offset 5, -8
 115              		.cfi_offset 14, -4
 116              		.loc 1 63 0
 117 0002 0825     		mov	r5, #8
  64:Code\Device\W25Q80/flash_spi.c **** 	INT8U i ,dat = 0;
 118              		.loc 1 64 0
 119 0004 0024     		mov	r4, #0
 120              	.LVL16:
 121              	.L9:
  65:Code\Device\W25Q80/flash_spi.c **** 	for (i = 0; i < 8; i++)
  66:Code\Device\W25Q80/flash_spi.c **** 	{
  67:Code\Device\W25Q80/flash_spi.c **** 		FLASH_SCK_RESET();
 122              		.loc 1 67 0
 123 0006 0020     		mov	r0, #0
 124 0008 FFF7FEFF 		bl	FLASH_SCK_Write
 125              	.LVL17:
  68:Code\Device\W25Q80/flash_spi.c **** 		CyDelayUs(1);
  69:Code\Device\W25Q80/flash_spi.c **** 		dat <<= 1;
 126              		.loc 1 69 0
 127 000c 6400     		lsl	r4, r4, #1
 128              	.LVL18:
  68:Code\Device\W25Q80/flash_spi.c **** 		CyDelayUs(1);
 129              		.loc 1 68 0
 130 000e 0120     		mov	r0, #1
 131 0010 FFF7FEFF 		bl	CyDelayUs
 132              	.LVL19:
 133              		.loc 1 69 0
 134 0014 E4B2     		uxtb	r4, r4
 135              	.LVL20:
  70:Code\Device\W25Q80/flash_spi.c **** 		if(FLASH_MISO_Read())
 136              		.loc 1 70 0
 137 0016 FFF7FEFF 		bl	FLASH_MISO_Read
 138              	.LVL21:
 139 001a 0028     		cmp	r0, #0
 140 001c 01D0     		beq	.L8
  71:Code\Device\W25Q80/flash_spi.c **** 			dat |= 0x01;
 141              		.loc 1 71 0
 142 001e 0123     		mov	r3, #1
 143 0020 1C43     		orr	r4, r3
 144              	.LVL22:
 145              	.L8:
  72:Code\Device\W25Q80/flash_spi.c **** 		else
  73:Code\Device\W25Q80/flash_spi.c **** 			dat &= 0xfe;
  74:Code\Device\W25Q80/flash_spi.c **** 		CyDelayUs(1);
 146              		.loc 1 74 0 discriminator 2
 147 0022 0120     		mov	r0, #1
 148 0024 FFF7FEFF 		bl	CyDelayUs
 149              	.LVL23:
ARM GAS  C:\Users\Administrator\AppData\Local\Temp\cckW6Rlm.s 			page 5


 150 0028 013D     		sub	r5, r5, #1
 151              	.LVL24:
  75:Code\Device\W25Q80/flash_spi.c **** 		FLASH_SCK_SET();
 152              		.loc 1 75 0 discriminator 2
 153 002a 0120     		mov	r0, #1
 154 002c FFF7FEFF 		bl	FLASH_SCK_Write
 155              	.LVL25:
 156 0030 EDB2     		uxtb	r5, r5
  76:Code\Device\W25Q80/flash_spi.c **** 		CyDelayUs(2);
 157              		.loc 1 76 0 discriminator 2
 158 0032 0220     		mov	r0, #2
 159 0034 FFF7FEFF 		bl	CyDelayUs
 160              	.LVL26:
  65:Code\Device\W25Q80/flash_spi.c **** 	{
 161              		.loc 1 65 0 discriminator 2
 162 0038 002D     		cmp	r5, #0
 163 003a E4D1     		bne	.L9
  77:Code\Device\W25Q80/flash_spi.c **** 	}
  78:Code\Device\W25Q80/flash_spi.c **** 	FLASH_SCK_RESET();
 164              		.loc 1 78 0
 165 003c 281C     		mov	r0, r5
 166 003e FFF7FEFF 		bl	FLASH_SCK_Write
 167              	.LVL27:
  79:Code\Device\W25Q80/flash_spi.c **** 	CyDelayUs(10);
 168              		.loc 1 79 0
 169 0042 0A20     		mov	r0, #10
 170 0044 FFF7FEFF 		bl	CyDelayUs
 171              	.LVL28:
  80:Code\Device\W25Q80/flash_spi.c **** 	return dat;
  81:Code\Device\W25Q80/flash_spi.c **** }
 172              		.loc 1 81 0
 173              		@ sp needed
 174 0048 201C     		mov	r0, r4
 175              	.LVL29:
 176 004a 38BD     		pop	{r3, r4, r5, pc}
 177              		.cfi_endproc
 178              	.LFE65:
 179              		.size	FLASH_SPI_Receive_Dat, .-FLASH_SPI_Receive_Dat
 180              		.section	.text.FLASH_SPI_Init,"ax",%progbits
 181              		.align	1
 182              		.global	FLASH_SPI_Init
 183              		.code	16
 184              		.thumb_func
 185              		.type	FLASH_SPI_Init, %function
 186              	FLASH_SPI_Init:
 187              	.LFB63:
  20:Code\Device\W25Q80/flash_spi.c **** 	FLASH_DISABLE();
 188              		.loc 1 20 0
 189              		.cfi_startproc
 190 0000 08B5     		push	{r3, lr}
 191              		.cfi_def_cfa_offset 8
 192              		.cfi_offset 3, -8
 193              		.cfi_offset 14, -4
  21:Code\Device\W25Q80/flash_spi.c **** 	FLASH_SCK_RESET();
 194              		.loc 1 21 0
 195 0002 0120     		mov	r0, #1
 196 0004 FFF7FEFF 		bl	FLASH_NCS_Write
ARM GAS  C:\Users\Administrator\AppData\Local\Temp\cckW6Rlm.s 			page 6


 197              	.LVL30:
  22:Code\Device\W25Q80/flash_spi.c **** 	FLASH_MOSI_RESET();
 198              		.loc 1 22 0
 199 0008 0020     		mov	r0, #0
 200 000a FFF7FEFF 		bl	FLASH_SCK_Write
 201              	.LVL31:
  23:Code\Device\W25Q80/flash_spi.c **** }
 202              		.loc 1 23 0
 203 000e 0020     		mov	r0, #0
 204 0010 FFF7FEFF 		bl	FLASH_MOSI_Write
 205              	.LVL32:
  24:Code\Device\W25Q80/flash_spi.c **** 
 206              		.loc 1 24 0
 207              		@ sp needed
 208 0014 08BD     		pop	{r3, pc}
 209              		.cfi_endproc
 210              	.LFE63:
 211              		.size	FLASH_SPI_Init, .-FLASH_SPI_Init
 212              		.section	.text.flash_spi_SetReg,"ax",%progbits
 213              		.align	1
 214              		.global	flash_spi_SetReg
 215              		.code	16
 216              		.thumb_func
 217              		.type	flash_spi_SetReg, %function
 218              	flash_spi_SetReg:
 219              	.LFB66:
  82:Code\Device\W25Q80/flash_spi.c **** 
  83:Code\Device\W25Q80/flash_spi.c **** //*************************************************************************************************
  84:Code\Device\W25Q80/flash_spi.c **** // Function name	: flash_spi_SetReg
  85:Code\Device\W25Q80/flash_spi.c **** // Description		: 设置寄存器
  86:Code\Device\W25Q80/flash_spi.c **** // Parameter		: ucRegAddr	: 地址
  87:Code\Device\W25Q80/flash_spi.c **** //					: ucRegVal	: 数据
  88:Code\Device\W25Q80/flash_spi.c **** // Return			: none
  89:Code\Device\W25Q80/flash_spi.c **** //-------------------------------------------------------------------------------------------------
  90:Code\Device\W25Q80/flash_spi.c **** // Info				: 
  91:Code\Device\W25Q80/flash_spi.c **** //*************************************************************************************************
  92:Code\Device\W25Q80/flash_spi.c **** uint8_t flash_spi_SetReg(uint8_t ucRegAddr, uint8_t ucRegVal)
  93:Code\Device\W25Q80/flash_spi.c **** {
 220              		.loc 1 93 0
 221              		.cfi_startproc
 222              	.LVL33:
 223 0000 38B5     		push	{r3, r4, r5, lr}
 224              		.cfi_def_cfa_offset 16
 225              		.cfi_offset 3, -16
 226              		.cfi_offset 4, -12
 227              		.cfi_offset 5, -8
 228              		.cfi_offset 14, -4
 229              		.loc 1 93 0
 230 0002 041C     		mov	r4, r0
 231 0004 0D1C     		mov	r5, r1
  94:Code\Device\W25Q80/flash_spi.c **** 	FLASH_ENABLE();
 232              		.loc 1 94 0
 233 0006 0020     		mov	r0, #0
 234              	.LVL34:
  95:Code\Device\W25Q80/flash_spi.c **** 	FLASH_SPI_Send_Dat(ucRegAddr << 1);
 235              		.loc 1 95 0
 236 0008 6400     		lsl	r4, r4, #1
ARM GAS  C:\Users\Administrator\AppData\Local\Temp\cckW6Rlm.s 			page 7


  94:Code\Device\W25Q80/flash_spi.c **** 	FLASH_ENABLE();
 237              		.loc 1 94 0
 238 000a FFF7FEFF 		bl	FLASH_NCS_Write
 239              	.LVL35:
 240              		.loc 1 95 0
 241 000e E0B2     		uxtb	r0, r4
 242 0010 FFF7FEFF 		bl	FLASH_SPI_Send_Dat
 243              	.LVL36:
  96:Code\Device\W25Q80/flash_spi.c **** 	FLASH_SPI_Send_Dat(ucRegVal);
 244              		.loc 1 96 0
 245 0014 281C     		mov	r0, r5
 246 0016 FFF7FEFF 		bl	FLASH_SPI_Send_Dat
 247              	.LVL37:
  97:Code\Device\W25Q80/flash_spi.c **** 	FLASH_DISABLE();
 248              		.loc 1 97 0
 249 001a 0120     		mov	r0, #1
 250 001c FFF7FEFF 		bl	FLASH_NCS_Write
 251              	.LVL38:
  98:Code\Device\W25Q80/flash_spi.c ****     return TRUE;
  99:Code\Device\W25Q80/flash_spi.c **** }
 252              		.loc 1 99 0
 253              		@ sp needed
 254 0020 0120     		mov	r0, #1
 255 0022 38BD     		pop	{r3, r4, r5, pc}
 256              		.cfi_endproc
 257              	.LFE66:
 258              		.size	flash_spi_SetReg, .-flash_spi_SetReg
 259              		.section	.text.flash_spi_GetReg,"ax",%progbits
 260              		.align	1
 261              		.global	flash_spi_GetReg
 262              		.code	16
 263              		.thumb_func
 264              		.type	flash_spi_GetReg, %function
 265              	flash_spi_GetReg:
 266              	.LFB67:
 100:Code\Device\W25Q80/flash_spi.c **** 
 101:Code\Device\W25Q80/flash_spi.c **** //*************************************************************************************************
 102:Code\Device\W25Q80/flash_spi.c **** // Function name	: flash_spi_SetReg
 103:Code\Device\W25Q80/flash_spi.c **** // Description		: 读取寄存器
 104:Code\Device\W25Q80/flash_spi.c **** // Parameter		: ucRegAddr	: 地址
 105:Code\Device\W25Q80/flash_spi.c **** // Return			: none
 106:Code\Device\W25Q80/flash_spi.c **** //-------------------------------------------------------------------------------------------------
 107:Code\Device\W25Q80/flash_spi.c **** // Info				: 
 108:Code\Device\W25Q80/flash_spi.c **** //*************************************************************************************************
 109:Code\Device\W25Q80/flash_spi.c **** uint8_t flash_spi_GetReg(uint8_t ucRegAddr)
 110:Code\Device\W25Q80/flash_spi.c **** {
 267              		.loc 1 110 0
 268              		.cfi_startproc
 269              	.LVL39:
 270 0000 10B5     		push	{r4, lr}
 271              		.cfi_def_cfa_offset 8
 272              		.cfi_offset 4, -8
 273              		.cfi_offset 14, -4
 274              		.loc 1 110 0
 275 0002 041C     		mov	r4, r0
 111:Code\Device\W25Q80/flash_spi.c **** 	uint8_t ucRegVal;
 112:Code\Device\W25Q80/flash_spi.c **** 	FLASH_ENABLE();
ARM GAS  C:\Users\Administrator\AppData\Local\Temp\cckW6Rlm.s 			page 8


 276              		.loc 1 112 0
 277 0004 0020     		mov	r0, #0
 278              	.LVL40:
 279 0006 FFF7FEFF 		bl	FLASH_NCS_Write
 280              	.LVL41:
 113:Code\Device\W25Q80/flash_spi.c **** 	FLASH_SPI_Send_Dat(0x80 | (ucRegAddr << 1));
 281              		.loc 1 113 0
 282 000a 8020     		mov	r0, #128
 283 000c 6400     		lsl	r4, r4, #1
 284 000e 4042     		neg	r0, r0
 285 0010 0443     		orr	r4, r0
 286 0012 E0B2     		uxtb	r0, r4
 287 0014 FFF7FEFF 		bl	FLASH_SPI_Send_Dat
 288              	.LVL42:
 114:Code\Device\W25Q80/flash_spi.c **** 	//FLASH_SPI_Send_Dat(0x00);
 115:Code\Device\W25Q80/flash_spi.c **** 	ucRegVal = FLASH_SPI_Receive_Dat();
 289              		.loc 1 115 0
 290 0018 FFF7FEFF 		bl	FLASH_SPI_Receive_Dat
 291              	.LVL43:
 292 001c 041C     		mov	r4, r0
 293              	.LVL44:
 116:Code\Device\W25Q80/flash_spi.c **** 	FLASH_DISABLE();
 294              		.loc 1 116 0
 295 001e 0120     		mov	r0, #1
 296 0020 FFF7FEFF 		bl	FLASH_NCS_Write
 297              	.LVL45:
 117:Code\Device\W25Q80/flash_spi.c ****     return ucRegVal;
 118:Code\Device\W25Q80/flash_spi.c **** }
 298              		.loc 1 118 0
 299              		@ sp needed
 300 0024 201C     		mov	r0, r4
 301              	.LVL46:
 302 0026 10BD     		pop	{r4, pc}
 303              		.cfi_endproc
 304              	.LFE67:
 305              		.size	flash_spi_GetReg, .-flash_spi_GetReg
 306              		.section	.text.flash_spi_GetReg2,"ax",%progbits
 307              		.align	1
 308              		.global	flash_spi_GetReg2
 309              		.code	16
 310              		.thumb_func
 311              		.type	flash_spi_GetReg2, %function
 312              	flash_spi_GetReg2:
 313              	.LFB68:
 119:Code\Device\W25Q80/flash_spi.c **** 
 120:Code\Device\W25Q80/flash_spi.c **** //*************************************************************************************************
 121:Code\Device\W25Q80/flash_spi.c **** // Function name	: flash_spi_SetReg
 122:Code\Device\W25Q80/flash_spi.c **** // Description		: 读取寄存器
 123:Code\Device\W25Q80/flash_spi.c **** // Parameter		: ucRegAddr	: 地址
 124:Code\Device\W25Q80/flash_spi.c **** // Return			: none
 125:Code\Device\W25Q80/flash_spi.c **** //-------------------------------------------------------------------------------------------------
 126:Code\Device\W25Q80/flash_spi.c **** // Info				: 
 127:Code\Device\W25Q80/flash_spi.c **** //*************************************************************************************************
 128:Code\Device\W25Q80/flash_spi.c **** uint8_t flash_spi_GetReg2(uint8_t ucRegAddr, uint8_t *p)
 129:Code\Device\W25Q80/flash_spi.c **** {
 314              		.loc 1 129 0
 315              		.cfi_startproc
ARM GAS  C:\Users\Administrator\AppData\Local\Temp\cckW6Rlm.s 			page 9


 316              	.LVL47:
 317 0000 38B5     		push	{r3, r4, r5, lr}
 318              		.cfi_def_cfa_offset 16
 319              		.cfi_offset 3, -16
 320              		.cfi_offset 4, -12
 321              		.cfi_offset 5, -8
 322              		.cfi_offset 14, -4
 323              		.loc 1 129 0
 324 0002 041C     		mov	r4, r0
 130:Code\Device\W25Q80/flash_spi.c **** 	FLASH_ENABLE();
 325              		.loc 1 130 0
 326 0004 0020     		mov	r0, #0
 327              	.LVL48:
 129:Code\Device\W25Q80/flash_spi.c **** 	FLASH_ENABLE();
 328              		.loc 1 129 0
 329 0006 0D1C     		mov	r5, r1
 330              		.loc 1 130 0
 331 0008 FFF7FEFF 		bl	FLASH_NCS_Write
 332              	.LVL49:
 131:Code\Device\W25Q80/flash_spi.c **** 	FLASH_SPI_Send_Dat(0x80 | (ucRegAddr << 1));
 333              		.loc 1 131 0
 334 000c 8020     		mov	r0, #128
 335 000e 6400     		lsl	r4, r4, #1
 336 0010 4042     		neg	r0, r0
 337 0012 0443     		orr	r4, r0
 338 0014 E0B2     		uxtb	r0, r4
 339 0016 FFF7FEFF 		bl	FLASH_SPI_Send_Dat
 340              	.LVL50:
 132:Code\Device\W25Q80/flash_spi.c **** 	//FLASH_SPI_Send_Dat(0x00);
 133:Code\Device\W25Q80/flash_spi.c **** 	*p = FLASH_SPI_Receive_Dat();
 341              		.loc 1 133 0
 342 001a FFF7FEFF 		bl	FLASH_SPI_Receive_Dat
 343              	.LVL51:
 344 001e 2870     		strb	r0, [r5]
 134:Code\Device\W25Q80/flash_spi.c **** 	FLASH_DISABLE();
 345              		.loc 1 134 0
 346 0020 0120     		mov	r0, #1
 347 0022 FFF7FEFF 		bl	FLASH_NCS_Write
 348              	.LVL52:
 135:Code\Device\W25Q80/flash_spi.c ****     return TRUE;
 136:Code\Device\W25Q80/flash_spi.c **** }
 349              		.loc 1 136 0
 350              		@ sp needed
 351 0026 0120     		mov	r0, #1
 352              	.LVL53:
 353 0028 38BD     		pop	{r3, r4, r5, pc}
 354              		.cfi_endproc
 355              	.LFE68:
 356              		.size	flash_spi_GetReg2, .-flash_spi_GetReg2
 357              		.section	.text.FLASH_SPIRead_Sequence,"ax",%progbits
 358              		.align	1
 359              		.global	FLASH_SPIRead_Sequence
 360              		.code	16
 361              		.thumb_func
 362              		.type	FLASH_SPIRead_Sequence, %function
 363              	FLASH_SPIRead_Sequence:
 364              	.LFB69:
ARM GAS  C:\Users\Administrator\AppData\Local\Temp\cckW6Rlm.s 			page 10


 137:Code\Device\W25Q80/flash_spi.c **** 
 138:Code\Device\W25Q80/flash_spi.c **** /**************************************************************************************************
 139:Code\Device\W25Q80/flash_spi.c **** // Function name	: FLASH_SPIRead_Sequence
 140:Code\Device\W25Q80/flash_spi.c **** // Description		: FLASH_SPI读FIFO寄存器的值
 141:Code\Device\W25Q80/flash_spi.c **** // Parameter		: sequence_length 	: 数据长度
 142:Code\Device\W25Q80/flash_spi.c **** //					: ucRegAddr			: 寄存器地址
 143:Code\Device\W25Q80/flash_spi.c **** //					: *reg_value		: 数据指针
 144:Code\Device\W25Q80/flash_spi.c **** // Return			: none
 145:Code\Device\W25Q80/flash_spi.c **** //-------------------------------------------------------------------------------------------------
 146:Code\Device\W25Q80/flash_spi.c **** // Info				: 
 147:Code\Device\W25Q80/flash_spi.c **** ***************************************************************************************************
 148:Code\Device\W25Q80/flash_spi.c **** void FLASH_SPIRead_Sequence(uint8_t sequence_length, uint8_t ucRegAddr, uint8_t *reg_value)
 149:Code\Device\W25Q80/flash_spi.c **** {
 365              		.loc 1 149 0
 366              		.cfi_startproc
 367              	.LVL54:
 368 0000 70B5     		push	{r4, r5, r6, lr}
 369              		.cfi_def_cfa_offset 16
 370              		.cfi_offset 4, -16
 371              		.cfi_offset 5, -12
 372              		.cfi_offset 6, -8
 373              		.cfi_offset 14, -4
 150:Code\Device\W25Q80/flash_spi.c **** 	uint8_t i;
 151:Code\Device\W25Q80/flash_spi.c **** 	if (sequence_length == 0)
 374              		.loc 1 151 0
 375 0002 0028     		cmp	r0, #0
 376 0004 0AD0     		beq	.L17
 377 0006 141C     		mov	r4, r2
 378 0008 0E1C     		mov	r6, r1
 379 000a 1518     		add	r5, r2, r0
 380              	.LVL55:
 381              	.L19:
 152:Code\Device\W25Q80/flash_spi.c **** 		return;
 153:Code\Device\W25Q80/flash_spi.c **** 	for (i = 0; i < sequence_length; i++)
 382              		.loc 1 153 0 discriminator 1
 383 000c AC42     		cmp	r4, r5
 384 000e 05D0     		beq	.L17
 154:Code\Device\W25Q80/flash_spi.c **** 	{
 155:Code\Device\W25Q80/flash_spi.c **** 		*(reg_value + i) = flash_spi_GetReg(ucRegAddr);
 385              		.loc 1 155 0 discriminator 3
 386 0010 301C     		mov	r0, r6
 387 0012 FFF7FEFF 		bl	flash_spi_GetReg
 388              	.LVL56:
 389 0016 2070     		strb	r0, [r4]
 390              	.LVL57:
 391 0018 0134     		add	r4, r4, #1
 392              	.LVL58:
 393 001a F7E7     		b	.L19
 394              	.L17:
 156:Code\Device\W25Q80/flash_spi.c **** 	}
 157:Code\Device\W25Q80/flash_spi.c **** 	return;
 158:Code\Device\W25Q80/flash_spi.c **** }
 395              		.loc 1 158 0
 396              		@ sp needed
 397 001c 70BD     		pop	{r4, r5, r6, pc}
 398              		.cfi_endproc
 399              	.LFE69:
ARM GAS  C:\Users\Administrator\AppData\Local\Temp\cckW6Rlm.s 			page 11


 400              		.size	FLASH_SPIRead_Sequence, .-FLASH_SPIRead_Sequence
 401              		.section	.text.FLASH_SPIWrite_Sequence,"ax",%progbits
 402              		.align	1
 403              		.global	FLASH_SPIWrite_Sequence
 404              		.code	16
 405              		.thumb_func
 406              		.type	FLASH_SPIWrite_Sequence, %function
 407              	FLASH_SPIWrite_Sequence:
 408              	.LFB70:
 159:Code\Device\W25Q80/flash_spi.c **** 
 160:Code\Device\W25Q80/flash_spi.c **** /**************************************************************************************************
 161:Code\Device\W25Q80/flash_spi.c **** // Function name	: FLASH_SPIWrite_Sequence
 162:Code\Device\W25Q80/flash_spi.c **** // Description		: FLASH_SPI写FIFO的值
 163:Code\Device\W25Q80/flash_spi.c **** // Parameter		: sequence_length 数据长度 
 164:Code\Device\W25Q80/flash_spi.c **** //					: ucRegAddr：寄存器地址  
 165:Code\Device\W25Q80/flash_spi.c **** //					: *reg_value 数据指针
 166:Code\Device\W25Q80/flash_spi.c **** // Return			: none
 167:Code\Device\W25Q80/flash_spi.c **** //-------------------------------------------------------------------------------------------------
 168:Code\Device\W25Q80/flash_spi.c **** // Info				: 
 169:Code\Device\W25Q80/flash_spi.c **** ***************************************************************************************************
 170:Code\Device\W25Q80/flash_spi.c **** void FLASH_SPIWrite_Sequence(uint8_t sequence_length, uint8_t ucRegAddr, uint8_t *reg_value)
 171:Code\Device\W25Q80/flash_spi.c **** {
 409              		.loc 1 171 0
 410              		.cfi_startproc
 411              	.LVL59:
 412 0000 70B5     		push	{r4, r5, r6, lr}
 413              		.cfi_def_cfa_offset 16
 414              		.cfi_offset 4, -16
 415              		.cfi_offset 5, -12
 416              		.cfi_offset 6, -8
 417              		.cfi_offset 14, -4
 172:Code\Device\W25Q80/flash_spi.c **** 	uint8_t i;
 173:Code\Device\W25Q80/flash_spi.c **** 	if (sequence_length == 0)
 418              		.loc 1 173 0
 419 0002 0028     		cmp	r0, #0
 420 0004 0AD0     		beq	.L24
 421 0006 141C     		mov	r4, r2
 422 0008 0E1C     		mov	r6, r1
 423 000a 1518     		add	r5, r2, r0
 424              	.LVL60:
 425              	.L26:
 174:Code\Device\W25Q80/flash_spi.c **** 		return;
 175:Code\Device\W25Q80/flash_spi.c **** 	for (i = 0; i < sequence_length; i++)
 426              		.loc 1 175 0 discriminator 1
 427 000c AC42     		cmp	r4, r5
 428 000e 05D0     		beq	.L24
 176:Code\Device\W25Q80/flash_spi.c **** 	{
 177:Code\Device\W25Q80/flash_spi.c **** 		flash_spi_SetReg(ucRegAddr, *(reg_value + i));
 429              		.loc 1 177 0 discriminator 3
 430 0010 2178     		ldrb	r1, [r4]
 431 0012 301C     		mov	r0, r6
 432 0014 FFF7FEFF 		bl	flash_spi_SetReg
 433              	.LVL61:
 434 0018 0134     		add	r4, r4, #1
 435              	.LVL62:
 436 001a F7E7     		b	.L26
 437              	.L24:
ARM GAS  C:\Users\Administrator\AppData\Local\Temp\cckW6Rlm.s 			page 12


 178:Code\Device\W25Q80/flash_spi.c **** 	}
 179:Code\Device\W25Q80/flash_spi.c **** 	return;
 180:Code\Device\W25Q80/flash_spi.c **** }
 438              		.loc 1 180 0
 439              		@ sp needed
 440 001c 70BD     		pop	{r4, r5, r6, pc}
 441              		.cfi_endproc
 442              	.LFE70:
 443              		.size	FLASH_SPIWrite_Sequence, .-FLASH_SPIWrite_Sequence
 444              		.section	.text.FLASH_ReadWriteByte,"ax",%progbits
 445              		.align	1
 446              		.global	FLASH_ReadWriteByte
 447              		.code	16
 448              		.thumb_func
 449              		.type	FLASH_ReadWriteByte, %function
 450              	FLASH_ReadWriteByte:
 451              	.LFB71:
 181:Code\Device\W25Q80/flash_spi.c **** 
 182:Code\Device\W25Q80/flash_spi.c **** /**************************************************************************************************
 183:Code\Device\W25Q80/flash_spi.c **** // Function name	: FLASH_ReadWriteByte
 184:Code\Device\W25Q80/flash_spi.c **** // Description		: w25qxx 命令值
 185:Code\Device\W25Q80/flash_spi.c **** // Parameter		: uint8_t txdata 
 186:Code\Device\W25Q80/flash_spi.c **** //					:   
 187:Code\Device\W25Q80/flash_spi.c **** //					: 
 188:Code\Device\W25Q80/flash_spi.c **** // Return			: uint8_t
 189:Code\Device\W25Q80/flash_spi.c **** //-------------------------------------------------------------------------------------------------
 190:Code\Device\W25Q80/flash_spi.c **** // Info				: 
 191:Code\Device\W25Q80/flash_spi.c **** ***************************************************************************************************
 192:Code\Device\W25Q80/flash_spi.c **** #if 1
 193:Code\Device\W25Q80/flash_spi.c **** uint8_t FLASH_ReadWriteByte(uint8_t txdata, uint8 cmd_flag)
 194:Code\Device\W25Q80/flash_spi.c **** {
 452              		.loc 1 194 0
 453              		.cfi_startproc
 454              	.LVL63:
 455 0000 08B5     		push	{r3, lr}
 456              		.cfi_def_cfa_offset 8
 457              		.cfi_offset 3, -8
 458              		.cfi_offset 14, -4
 195:Code\Device\W25Q80/flash_spi.c **** 	if (cmd_flag == Flash_cmdRead)					
 459              		.loc 1 195 0
 460 0002 0129     		cmp	r1, #1
 461 0004 02D1     		bne	.L32
 196:Code\Device\W25Q80/flash_spi.c **** 	{
 197:Code\Device\W25Q80/flash_spi.c **** 		return FLASH_SPI_Receive_Dat();					// 如果cmd_flag 是1 表示读取指令 
 462              		.loc 1 197 0
 463 0006 FFF7FEFF 		bl	FLASH_SPI_Receive_Dat
 464              	.LVL64:
 465 000a 02E0     		b	.L33
 466              	.LVL65:
 467              	.L32:
 198:Code\Device\W25Q80/flash_spi.c **** 	}
 199:Code\Device\W25Q80/flash_spi.c **** 	else
 200:Code\Device\W25Q80/flash_spi.c **** 	{
 201:Code\Device\W25Q80/flash_spi.c **** 		FLASH_SPI_Send_Dat(txdata);						// 如果cmd_flag 是0 表示写入指令 
 468              		.loc 1 201 0
 469 000c FFF7FEFF 		bl	FLASH_SPI_Send_Dat
 470              	.LVL66:
ARM GAS  C:\Users\Administrator\AppData\Local\Temp\cckW6Rlm.s 			page 13


 202:Code\Device\W25Q80/flash_spi.c **** 		return 0;
 471              		.loc 1 202 0
 472 0010 0020     		mov	r0, #0
 473              	.L33:
 203:Code\Device\W25Q80/flash_spi.c **** 	}
 204:Code\Device\W25Q80/flash_spi.c **** }
 474              		.loc 1 204 0
 475              		@ sp needed
 476 0012 08BD     		pop	{r3, pc}
 477              		.cfi_endproc
 478              	.LFE71:
 479              		.size	FLASH_ReadWriteByte, .-FLASH_ReadWriteByte
 480              		.text
 481              	.Letext0:
 482              		.file 2 "c:\\program files (x86)\\cypress\\psoc creator\\4.0\\psoc creator\\import\\gnu\\arm\\4.9.
 483              		.file 3 "c:\\program files (x86)\\cypress\\psoc creator\\4.0\\psoc creator\\import\\gnu\\arm\\4.9.
 484              		.file 4 "Generated_Source\\PSoC4/cytypes.h"
 485              		.file 5 ".\\Code\\Common/config.h"
 486              		.file 6 "Generated_Source\\PSoC4/FLASH_SCK.h"
 487              		.file 7 "Generated_Source\\PSoC4/CyLib.h"
 488              		.file 8 "Generated_Source\\PSoC4/FLASH_MOSI.h"
 489              		.file 9 "Generated_Source\\PSoC4/FLASH_MISO.h"
 490              		.file 10 "Generated_Source\\PSoC4/FLASH_NCS.h"