ARM GAS  C:\Users\Administrator\AppData\Local\Temp\ccRw9dYt.s 			page 1


   1              		.cpu cortex-m0
   2              		.fpu softvfp
   3              		.eabi_attribute 20, 1
   4              		.eabi_attribute 21, 1
   5              		.eabi_attribute 23, 3
   6              		.eabi_attribute 24, 1
   7              		.eabi_attribute 25, 1
   8              		.eabi_attribute 26, 1
   9              		.eabi_attribute 30, 4
  10              		.eabi_attribute 34, 0
  11              		.eabi_attribute 18, 4
  12              		.code	16
  13              		.file	"isr.c"
  14              		.text
  15              	.Ltext0:
  16              		.cfi_sections	.debug_frame
  17              		.section	.text.WDT_Interrupt,"ax",%progbits
  18              		.align	1
  19              		.global	WDT_Interrupt
  20              		.code	16
  21              		.thumb_func
  22              		.type	WDT_Interrupt, %function
  23              	WDT_Interrupt:
  24              	.LFB63:
  25              		.file 1 "Code\\UserApp\\isr.c"
   1:Code\UserApp/isr.c **** //*************************************************************************************************
   2:Code\UserApp/isr.c **** // File name		: isr.c
   3:Code\UserApp/isr.c **** // Description		: 中断服务的相关信息
   4:Code\UserApp/isr.c **** // Author			: Keno
   5:Code\UserApp/isr.c **** // Date				: 2016.8.8
   6:Code\UserApp/isr.c **** // Version			: V02
   7:Code\UserApp/isr.c **** //-------------------------------------------------------------------------------------------------
   8:Code\UserApp/isr.c **** // Info				: 
   9:Code\UserApp/isr.c **** //*************************************************************************************************
  10:Code\UserApp/isr.c **** #include "isr.h"
  11:Code\UserApp/isr.c **** 
  12:Code\UserApp/isr.c **** 
  13:Code\UserApp/isr.c **** 
  14:Code\UserApp/isr.c **** //*************************************************************************************************
  15:Code\UserApp/isr.c **** // Function name	: WDT_Interrupt
  16:Code\UserApp/isr.c **** // Description		: 看门狗中断
  17:Code\UserApp/isr.c **** // Parameter		: none
  18:Code\UserApp/isr.c **** // Return			: none
  19:Code\UserApp/isr.c **** //-------------------------------------------------------------------------------------------------
  20:Code\UserApp/isr.c **** // Info				: 
  21:Code\UserApp/isr.c **** //*************************************************************************************************
  22:Code\UserApp/isr.c **** CY_ISR(WDT_Interrupt)
  23:Code\UserApp/isr.c **** {
  26              		.loc 1 23 0
  27              		.cfi_startproc
  28 0000 08B5     		push	{r3, lr}
  29              		.cfi_def_cfa_offset 8
  30              		.cfi_offset 3, -8
  31              		.cfi_offset 14, -4
  24:Code\UserApp/isr.c **** 	if (CySysWdtGetInterruptSource() & CY_SYS_WDT_COUNTER0_INT)
  32              		.loc 1 24 0
  33 0002 FFF7FEFF 		bl	CySysWdtGetInterruptSource
ARM GAS  C:\Users\Administrator\AppData\Local\Temp\ccRw9dYt.s 			page 2


  34              	.LVL0:
  35 0006 0423     		mov	r3, #4
  36 0008 1842     		tst	r0, r3
  37 000a 06D0     		beq	.L1
  25:Code\UserApp/isr.c **** 	{
  26:Code\UserApp/isr.c **** 		/* Clear interrupts state */
  27:Code\UserApp/isr.c **** 		CySysWdtClearInterrupt(CY_SYS_WDT_COUNTER0_INT);
  38              		.loc 1 27 0
  39 000c 181C     		mov	r0, r3
  40 000e FFF7FEFF 		bl	CySysWdtClearInterrupt
  41              	.LVL1:
  28:Code\UserApp/isr.c ****     	WDT_ISR_ClearPending();
  42              		.loc 1 28 0
  43 0012 FFF7FEFF 		bl	WDT_ISR_ClearPending
  44              	.LVL2:
  29:Code\UserApp/isr.c **** 		RTC_Update();
  45              		.loc 1 29 0
  46 0016 FFF7FEFF 		bl	RTC_Update
  47              	.LVL3:
  48              	.L1:
  30:Code\UserApp/isr.c **** 	}
  31:Code\UserApp/isr.c **** }
  49              		.loc 1 31 0
  50              		@ sp needed
  51 001a 08BD     		pop	{r3, pc}
  52              		.cfi_endproc
  53              	.LFE63:
  54              		.size	WDT_Interrupt, .-WDT_Interrupt
  55              		.section	.text.SYSTICK_IRQ_INTERRUPT,"ax",%progbits
  56              		.align	1
  57              		.global	SYSTICK_IRQ_INTERRUPT
  58              		.code	16
  59              		.thumb_func
  60              		.type	SYSTICK_IRQ_INTERRUPT, %function
  61              	SYSTICK_IRQ_INTERRUPT:
  62              	.LFB64:
  32:Code\UserApp/isr.c **** 
  33:Code\UserApp/isr.c **** //*************************************************************************************************
  34:Code\UserApp/isr.c **** // Function name	: SYSTICK_IRQ_INTERRUPT
  35:Code\UserApp/isr.c **** // Description		: SYSTICK定时器中断的服务函数
  36:Code\UserApp/isr.c **** // Parameter		: none
  37:Code\UserApp/isr.c **** // Return			: none
  38:Code\UserApp/isr.c **** //-------------------------------------------------------------------------------------------------
  39:Code\UserApp/isr.c **** // Info				: 1ms进入中断一次
  40:Code\UserApp/isr.c **** //*************************************************************************************************
  41:Code\UserApp/isr.c **** CY_ISR(SYSTICK_IRQ_INTERRUPT)
  42:Code\UserApp/isr.c **** {
  63              		.loc 1 42 0
  64              		.cfi_startproc
  43:Code\UserApp/isr.c **** 
  44:Code\UserApp/isr.c **** }
  65              		.loc 1 44 0
  66              		@ sp needed
  67 0000 7047     		bx	lr
  68              		.cfi_endproc
  69              	.LFE64:
  70              		.size	SYSTICK_IRQ_INTERRUPT, .-SYSTICK_IRQ_INTERRUPT
ARM GAS  C:\Users\Administrator\AppData\Local\Temp\ccRw9dYt.s 			page 3


  71              		.section	.text.Timer_InterruptHandler,"ax",%progbits
  72              		.align	1
  73              		.global	Timer_InterruptHandler
  74              		.code	16
  75              		.thumb_func
  76              		.type	Timer_InterruptHandler, %function
  77              	Timer_InterruptHandler:
  78              	.LFB65:
  45:Code\UserApp/isr.c **** 
  46:Code\UserApp/isr.c **** //*************************************************************************************************
  47:Code\UserApp/isr.c **** // Function name	: Timer_InterruptHandler
  48:Code\UserApp/isr.c **** // Description		: 定时器中断的服务函数
  49:Code\UserApp/isr.c **** // Parameter		: none
  50:Code\UserApp/isr.c **** // Return			: none
  51:Code\UserApp/isr.c **** //-------------------------------------------------------------------------------------------------
  52:Code\UserApp/isr.c **** // Info				:
  53:Code\UserApp/isr.c **** //*************************************************************************************************
  54:Code\UserApp/isr.c **** CY_ISR(Timer_InterruptHandler)
  55:Code\UserApp/isr.c **** {
  79              		.loc 1 55 0
  80              		.cfi_startproc
  56:Code\UserApp/isr.c **** 	Timer_100ms_WriteCounter(1000);
  81              		.loc 1 56 0
  82 0000 FA20     		mov	r0, #250
  55:Code\UserApp/isr.c **** 	Timer_100ms_WriteCounter(1000);
  83              		.loc 1 55 0
  84 0002 08B5     		push	{r3, lr}
  85              		.cfi_def_cfa_offset 8
  86              		.cfi_offset 3, -8
  87              		.cfi_offset 14, -4
  88              		.loc 1 56 0
  89 0004 8000     		lsl	r0, r0, #2
  90 0006 FFF7FEFF 		bl	Timer_100ms_WriteCounter
  91              	.LVL4:
  57:Code\UserApp/isr.c **** 	Timer_100ms_ClearInterrupt(Timer_100ms__INTR_MASK_CC_MATCH);
  92              		.loc 1 57 0
  93 000a 0220     		mov	r0, #2
  94 000c FFF7FEFF 		bl	Timer_100ms_ClearInterrupt
  95              	.LVL5:
  58:Code\UserApp/isr.c **** 	WaitTimeOut();
  59:Code\UserApp/isr.c **** 	RecvTimeOut();
  60:Code\UserApp/isr.c **** 	UpdateTimeOut();
  61:Code\UserApp/isr.c **** 	BeepPlay_WaitTime();									// 蜂鸣器计时器								//
  62:Code\UserApp/isr.c ****     CardCheckTimeOut();
  63:Code\UserApp/isr.c **** }
  96              		.loc 1 63 0
  97              		@ sp needed
  58:Code\UserApp/isr.c **** 	WaitTimeOut();
  98              		.loc 1 58 0
  99 0010 FFF7FEFF 		bl	WaitTimeOut
 100              	.LVL6:
  59:Code\UserApp/isr.c **** 	UpdateTimeOut();
 101              		.loc 1 59 0
 102 0014 FFF7FEFF 		bl	RecvTimeOut
 103              	.LVL7:
  60:Code\UserApp/isr.c **** 	BeepPlay_WaitTime();									// 蜂鸣器计时器								//
 104              		.loc 1 60 0
ARM GAS  C:\Users\Administrator\AppData\Local\Temp\ccRw9dYt.s 			page 4


 105 0018 FFF7FEFF 		bl	UpdateTimeOut
 106              	.LVL8:
  61:Code\UserApp/isr.c ****     CardCheckTimeOut();
 107              		.loc 1 61 0
 108 001c FFF7FEFF 		bl	BeepPlay_WaitTime
 109              	.LVL9:
  62:Code\UserApp/isr.c **** }
 110              		.loc 1 62 0
 111 0020 FFF7FEFF 		bl	CardCheckTimeOut
 112              	.LVL10:
 113              		.loc 1 63 0
 114 0024 08BD     		pop	{r3, pc}
 115              		.cfi_endproc
 116              	.LFE65:
 117              		.size	Timer_InterruptHandler, .-Timer_InterruptHandler
 118              		.section	.text.RX_IRQ_INTERRUPT,"ax",%progbits
 119              		.align	1
 120              		.global	RX_IRQ_INTERRUPT
 121              		.code	16
 122              		.thumb_func
 123              		.type	RX_IRQ_INTERRUPT, %function
 124              	RX_IRQ_INTERRUPT:
 125              	.LFB66:
  64:Code\UserApp/isr.c **** 
  65:Code\UserApp/isr.c **** //*************************************************************************************************
  66:Code\UserApp/isr.c **** // Function name	: RX_IRQ_INTERRUPT
  67:Code\UserApp/isr.c **** // Description		: 串口中断的服务函数
  68:Code\UserApp/isr.c **** // Parameter		: none
  69:Code\UserApp/isr.c **** // Return			: none
  70:Code\UserApp/isr.c **** //-------------------------------------------------------------------------------------------------
  71:Code\UserApp/isr.c **** // Info				:
  72:Code\UserApp/isr.c **** //*************************************************************************************************
  73:Code\UserApp/isr.c **** CY_ISR(RX_IRQ_INTERRUPT)
  74:Code\UserApp/isr.c **** {
 126              		.loc 1 74 0
 127              		.cfi_startproc
 128 0000 08B5     		push	{r3, lr}
 129              		.cfi_def_cfa_offset 8
 130              		.cfi_offset 3, -8
 131              		.cfi_offset 14, -4
  75:Code\UserApp/isr.c **** 	#if 0 
  76:Code\UserApp/isr.c ****     uint8 i, rxData;
  77:Code\UserApp/isr.c **** 	uint32 qty;
  78:Code\UserApp/isr.c **** 	
  79:Code\UserApp/isr.c **** 	if (UART_433_GetRxInterruptSourceMasked() & UART_433_INTR_RX_NOT_EMPTY)
  80:Code\UserApp/isr.c **** 	{
  81:Code\UserApp/isr.c **** 		qty = UART_433_SpiUartGetRxBufferSize();
  82:Code\UserApp/isr.c **** 		for (i = 0; i < qty; i++)
  83:Code\UserApp/isr.c **** 		{
  84:Code\UserApp/isr.c **** 			rxData = UART_433_SpiUartReadRxData();
  85:Code\UserApp/isr.c **** 			Uart433Recv(rxData);
  86:Code\UserApp/isr.c **** 		}
  87:Code\UserApp/isr.c **** 	}
  88:Code\UserApp/isr.c ****     UART_433_SpiUartClearRxBuffer();
  89:Code\UserApp/isr.c **** 	#endif
  90:Code\UserApp/isr.c **** 	// 优化数据接收速率问题！ @chensq 03-07
  91:Code\UserApp/isr.c **** 	if (0u != UART_433_SpiUartGetRxBufferSize())
ARM GAS  C:\Users\Administrator\AppData\Local\Temp\ccRw9dYt.s 			page 5


 132              		.loc 1 91 0
 133 0002 FFF7FEFF 		bl	UART_433_SpiUartGetRxBufferSize
 134              	.LVL11:
 135 0006 0028     		cmp	r0, #0
 136 0008 04D0     		beq	.L10
  92:Code\UserApp/isr.c **** 	{
  93:Code\UserApp/isr.c **** 		Uart433Recv(UART_433_RX_FIFO_RD_REG);	
 137              		.loc 1 93 0
 138 000a 044B     		ldr	r3, .L14
 139 000c 1868     		ldr	r0, [r3]
 140 000e C0B2     		uxtb	r0, r0
 141 0010 FFF7FEFF 		bl	Uart433Recv
 142              	.LVL12:
 143              	.L10:
  94:Code\UserApp/isr.c **** 	}
  95:Code\UserApp/isr.c **** 		
  96:Code\UserApp/isr.c ****     UART_433_ClearRxInterruptSource(UART_433_INTR_RX_NOT_EMPTY);
 144              		.loc 1 96 0
 145 0014 0422     		mov	r2, #4
 146 0016 024B     		ldr	r3, .L14+4
  97:Code\UserApp/isr.c **** }
 147              		.loc 1 97 0
 148              		@ sp needed
  96:Code\UserApp/isr.c **** }
 149              		.loc 1 96 0
 150 0018 1A60     		str	r2, [r3]
 151              		.loc 1 97 0
 152 001a 08BD     		pop	{r3, pc}
 153              	.L15:
 154              		.align	2
 155              	.L14:
 156 001c 40032440 		.word	1076101952
 157 0020 C00F2440 		.word	1076105152
 158              		.cfi_endproc
 159              	.LFE66:
 160              		.size	RX_IRQ_INTERRUPT, .-RX_IRQ_INTERRUPT
 161              		.text
 162              	.Letext0:
 163              		.file 2 "Generated_Source\\PSoC4/cytypes.h"
 164              		.file 3 "Generated_Source\\PSoC4/WDT_ISR.h"
 165              		.file 4 "Generated_Source\\PSoC4/RTC.h"
 166              		.file 5 "Generated_Source\\PSoC4/CyLFClk.h"
 167              		.file 6 "Generated_Source\\PSoC4/Timer_100ms.h"
 168              		.file 7 "Code\\UserApp\\isr.h"
 169              		.file 8 ".\\Code\\UserApp\\Voice/voice.h"
 170              		.file 9 "Generated_Source\\PSoC4/UART_433_SPI_UART.h"
 171              		.file 10 ".\\Code\\Device\\GPRS/Uart433.h"