ARM GAS  C:\Users\Administrator\AppData\Local\Temp\ccNLOfxN.s 			page 1


   1              		.cpu cortex-m0
   2              		.fpu softvfp
   3              		.eabi_attribute 20, 1
   4              		.eabi_attribute 21, 1
   5              		.eabi_attribute 23, 3
   6              		.eabi_attribute 24, 1
   7              		.eabi_attribute 25, 1
   8              		.eabi_attribute 26, 1
   9              		.eabi_attribute 30, 4
  10              		.eabi_attribute 34, 0
  11              		.eabi_attribute 18, 4
  12              		.code	16
  13              		.file	"main.c"
  14              		.text
  15              	.Ltext0:
  16              		.cfi_sections	.debug_frame
  17              		.section	.text.AppCallback,"ax",%progbits
  18              		.align	1
  19              		.global	AppCallback
  20              		.code	16
  21              		.thumb_func
  22              		.type	AppCallback, %function
  23              	AppCallback:
  24              	.LFB63:
  25              		.file 1 "main.c"
   1:main.c        **** //*************************************************************************************************
   2:main.c        **** // File name		: main.c
   3:main.c        **** // Description		: 门禁系统的相关函数
   4:main.c        **** // Author			: Keno
   5:main.c        **** // Date				: 2016.8.8
   6:main.c        **** // Version			: V02
   7:main.c        **** //-------------------------------------------------------------------------------------------------
   8:main.c        **** // Info				: 
   9:main.c        **** //*************************************************************************************************
  10:main.c        **** #include "main.h"
  11:main.c        **** 
  12:main.c        **** 
  13:main.c        **** //*************************************************************************************************
  14:main.c        **** // Function name	: AppCallback
  15:main.c        **** // Description		: 蓝牙的回调函数
  16:main.c        **** // Parameter		: event
  17:main.c        **** //					: eventParam
  18:main.c        **** // Return			: none
  19:main.c        **** //-------------------------------------------------------------------------------------------------
  20:main.c        **** // Info				: 
  21:main.c        **** //*************************************************************************************************
  22:main.c        **** void AppCallback(uint32 event, void* eventParam)
  23:main.c        **** {
  26              		.loc 1 23 0
  27              		.cfi_startproc
  28              	.LVL0:
  29 0000 7FB5     		push	{r0, r1, r2, r3, r4, r5, r6, lr}
  30              		.cfi_def_cfa_offset 32
  31              		.cfi_offset 0, -32
  32              		.cfi_offset 1, -28
  33              		.cfi_offset 2, -24
  34              		.cfi_offset 3, -20
ARM GAS  C:\Users\Administrator\AppData\Local\Temp\ccNLOfxN.s 			page 2


  35              		.cfi_offset 4, -16
  36              		.cfi_offset 5, -12
  37              		.cfi_offset 6, -8
  38              		.cfi_offset 14, -4
  39              		.loc 1 23 0
  40 0002 0B1C     		mov	r3, r1
  24:main.c        ****     CYBLE_API_RESULT_T apiResult;
  25:main.c        ****     CYBLE_GAP_BD_ADDR_T localAddr;
  26:main.c        ****     CYBLE_GAP_AUTH_INFO_T *authInfo;
  27:main.c        ****     CYBLE_BLESS_PWR_IN_DB_T bleSsPowerLevel;
  28:main.c        ****     uint8 i;
  29:main.c        **** 	CYBLE_GATTS_WRITE_CMD_REQ_PARAM_T *locationWCRP = (CYBLE_GATTS_WRITE_CMD_REQ_PARAM_T *)eventParam;
  30:main.c        **** 	
  31:main.c        ****     switch (event)
  41              		.loc 1 31 0
  42 0004 2828     		cmp	r0, #40
  43 0006 29D0     		beq	.L3
  44 0008 02D8     		bhi	.L4
  45 000a 0128     		cmp	r0, #1
  46 000c 09D0     		beq	.L5
  47 000e 2CE0     		b	.L1
  48              	.L4:
  49 0010 4C28     		cmp	r0, #76
  50 0012 27D0     		beq	.L6
  51 0014 4E28     		cmp	r0, #78
  52 0016 28D1     		bne	.L1
  32:main.c        **** 	{
  33:main.c        ****         /**********************************************************
  34:main.c        ****         *                       General Events
  35:main.c        ****         ***********************************************************/
  36:main.c        **** 		case CYBLE_EVT_STACK_ON: /* This event received when component is Started */
  37:main.c        **** 			/* Set Tx Power Level for advertising and connection channels */
  38:main.c        ****             bleSsPowerLevel.blePwrLevelInDbm = CYBLE_LL_PWR_LVL_NEG_12_DBM;
  39:main.c        ****             bleSsPowerLevel.bleSsChId = CYBLE_LL_ADV_CH_TYPE;
  40:main.c        ****             (void) CyBle_SetTxPowerLevel (&bleSsPowerLevel);
  41:main.c        **** 			
  42:main.c        **** 			if (Read_Mac_Flag == 0)
  43:main.c        **** 			{
  44:main.c        ****             	DBG_PRINTF("Bluetooth On, StartAdvertisement with addr: \n");
  45:main.c        ****             	localAddr.type = 0u;
  46:main.c        ****             	CyBle_GetDeviceAddress(&localAddr);
  47:main.c        ****             	for(i = CYBLE_GAP_BD_ADDR_SIZE; i > 0u; i--)
  48:main.c        ****             	{
  49:main.c        ****                 	DBG_PRINTF("%2.2x", localAddr.bdAddr[i-1]);
  50:main.c        ****             	}
  51:main.c        **** 				DBG_PRINTF("\n");
  52:main.c        **** 				
  53:main.c        **** 				for (i = CYBLE_GAP_BD_ADDR_SIZE; i > 0u; i--)
  54:main.c        **** 				{
  55:main.c        **** 					Mac_Addr[CYBLE_GAP_BD_ADDR_SIZE - i] = localAddr.bdAddr[i - 1];
  56:main.c        **** 				}
  57:main.c        **** 				Read_Mac_Flag = 1;				
  58:main.c        **** 				
  59:main.c        **** 			}
  60:main.c        **** 			
  61:main.c        **** 			/* Enter into discoverable mode so that remote can search it. */
  62:main.c        ****             apiResult = CyBle_GappStartAdvertisement(CYBLE_ADVERTISING_FAST);
ARM GAS  C:\Users\Administrator\AppData\Local\Temp\ccNLOfxN.s 			page 3


  63:main.c        ****             if(apiResult != CYBLE_ERROR_OK)
  64:main.c        ****             {
  65:main.c        ****                 DBG_PRINTF("StartAdvertisement API Error: %d \r\n", apiResult);
  66:main.c        ****             }
  67:main.c        **** 			DBG_PRINTF("\r\n");
  68:main.c        ****             break;
  69:main.c        **** 		case CYBLE_EVT_TIMEOUT: 
  70:main.c        ****             DBG_PRINTF("CYBLE_EVT_TIMEOUT: %x \r\n", *(CYBLE_TO_REASON_CODE_T *)eventParam);
  71:main.c        **** 			break;
  72:main.c        **** 		case CYBLE_EVT_HARDWARE_ERROR:    /* This event indicates that some internal HW error has occurre
  73:main.c        ****             DBG_PRINTF("Hardware Error \r\n");
  74:main.c        **** 			break;
  75:main.c        ****         case CYBLE_EVT_HCI_STATUS:
  76:main.c        ****             DBG_PRINTF("CYBLE_EVT_HCI_STATUS: %x \r\n", *(uint8 *)eventParam);
  77:main.c        **** 			break;
  78:main.c        **** 
  79:main.c        ****         /**********************************************************
  80:main.c        ****         *                       GAP Events
  81:main.c        ****         ***********************************************************/
  82:main.c        ****         case CYBLE_EVT_GAP_AUTH_REQ:
  83:main.c        ****             DBG_PRINTF("CYBLE_EVT_AUTH_REQ: security=%x, bonding=%x, ekeySize=%x, err=%x \r\n", 
  84:main.c        ****                 (*(CYBLE_GAP_AUTH_INFO_T *)eventParam).security, 
  85:main.c        ****                 (*(CYBLE_GAP_AUTH_INFO_T *)eventParam).bonding, 
  86:main.c        ****                 (*(CYBLE_GAP_AUTH_INFO_T *)eventParam).ekeySize, 
  87:main.c        ****                 (*(CYBLE_GAP_AUTH_INFO_T *)eventParam).authErr);
  88:main.c        ****             break;
  89:main.c        ****         case CYBLE_EVT_GAP_PASSKEY_ENTRY_REQUEST:
  90:main.c        ****             DBG_PRINTF("CYBLE_EVT_PASSKEY_ENTRY_REQUEST \r\n");
  91:main.c        ****             break;
  92:main.c        ****         case CYBLE_EVT_GAP_PASSKEY_DISPLAY_REQUEST:
  93:main.c        ****             DBG_PRINTF("CYBLE_EVT_PASSKEY_DISPLAY_REQUEST %6.6ld \r\n", *(uint32 *)eventParam);
  94:main.c        ****             break;
  95:main.c        ****         case CYBLE_EVT_GAP_AUTH_COMPLETE:
  96:main.c        ****             authInfo = (CYBLE_GAP_AUTH_INFO_T *)eventParam;
  97:main.c        ****             (void)authInfo;
  98:main.c        ****             DBG_PRINTF("AUTH_COMPLETE: security:%x, bonding:%x, ekeySize:%x, authErr %x \r\n", 
  99:main.c        ****                                     authInfo->security, authInfo->bonding, authInfo->ekeySize, auth
 100:main.c        ****             break;
 101:main.c        ****         case CYBLE_EVT_GAP_AUTH_FAILED:
 102:main.c        ****             DBG_PRINTF("CYBLE_EVT_AUTH_FAILED: %x \r\n", *(uint8 *)eventParam);
 103:main.c        ****             break;
 104:main.c        ****         case CYBLE_EVT_GAPP_ADVERTISEMENT_START_STOP:
 105:main.c        ****             DBG_PRINTF("CYBLE_EVT_GAPP_ADVERTISEMENT_START_STOP, state: %x\r\n", CyBle_GetState());
 106:main.c        ****             if(CYBLE_STATE_DISCONNECTED == CyBle_GetState())
 107:main.c        ****             {   
 108:main.c        ****                 /* Fast and slow advertising period complete, go to low power  
 109:main.c        ****                  * mode (Hibernate mode) and wait for an external
 110:main.c        ****                  * user event to wake up the device again */
 111:main.c        ****                 DBG_PRINTF("Hibernate \r\n");
 112:main.c        ****             #if (DEBUG_UART_ENABLED == ENABLED)
 113:main.c        ****             	//while((UART_DEB_SpiUartGetTxBufferSize() + UART_DEB_GET_TX_FIFO_SR_VALID) != 0);
 114:main.c        ****             #endif /* (DEBUG_UART_ENABLED == ENABLED) */
 115:main.c        ****             }
 116:main.c        ****             break;
 117:main.c        ****         case CYBLE_EVT_GAP_DEVICE_CONNECTED:
 118:main.c        ****             DBG_PRINTF("CYBLE_EVT_GAP_DEVICE_CONNECTED: %x \r\n", *(uint8 *)eventParam);
 119:main.c        ****             break;
ARM GAS  C:\Users\Administrator\AppData\Local\Temp\ccNLOfxN.s 			page 4


 120:main.c        ****         case CYBLE_EVT_GAP_DEVICE_DISCONNECTED:
 121:main.c        ****             DBG_PRINTF("CYBLE_EVT_GAP_DEVICE_DISCONNECTED\r\n");
 122:main.c        ****             /* Put the device to discoverable mode so that remote can search it. */
 123:main.c        ****             apiResult = CyBle_GappStartAdvertisement(CYBLE_ADVERTISING_FAST);
 124:main.c        ****             if(apiResult != CYBLE_ERROR_OK)
 125:main.c        ****             {
 126:main.c        ****                 DBG_PRINTF("StartAdvertisement API Error: %x \r\n", apiResult);
 127:main.c        ****             }
 128:main.c        ****             break;
 129:main.c        ****         case CYBLE_EVT_GAP_ENCRYPT_CHANGE:
 130:main.c        ****             DBG_PRINTF("ENCRYPT_CHANGE: %x \r\n", *(uint8 *)eventParam);
 131:main.c        ****             break;
 132:main.c        ****         case CYBLE_EVT_GAPC_CONNECTION_UPDATE_COMPLETE:
 133:main.c        ****             DBG_PRINTF("CYBLE_EVT_CONNECTION_UPDATE_COMPLETE: %x \r\n", *(uint8 *)eventParam);
 134:main.c        ****             break;
 135:main.c        ****         case CYBLE_EVT_GAP_KEYINFO_EXCHNGE_CMPLT:
 136:main.c        ****             DBG_PRINTF("CYBLE_EVT_GAP_KEYINFO_EXCHNGE_CMPLT \r\n");
 137:main.c        ****             break;
 138:main.c        **** 
 139:main.c        ****         /**********************************************************
 140:main.c        ****         *                       GATT Events
 141:main.c        ****         ***********************************************************/
 142:main.c        ****         case CYBLE_EVT_GATT_CONNECT_IND:
 143:main.c        ****             DBG_PRINTF("CYBLE_EVT_GATT_CONNECT_IND: %x, %x \r\n", cyBle_connHandle.attId, cyBle_con
 144:main.c        ****             break;
 145:main.c        ****         case CYBLE_EVT_GATT_DISCONNECT_IND:
 146:main.c        ****             DBG_PRINTF("CYBLE_EVT_GATT_DISCONNECT_IND \r\n");
 147:main.c        ****             break;
 148:main.c        ****         case CYBLE_EVT_GATTS_WRITE_REQ:
 149:main.c        ****             DBG_PRINTF("CYBLE_EVT_GATT_WRITE_REQ: %x = ",((CYBLE_GATTS_WRITE_REQ_PARAM_T *)eventPar
 150:main.c        ****             (void)CyBle_GattsWriteRsp(((CYBLE_GATTS_WRITE_REQ_PARAM_T *)eventParam)->connHandle);
 151:main.c        ****             break;
 152:main.c        **** 		case CYBLE_EVT_GATTS_WRITE_CMD_REQ: 
 153:main.c        **** 			DBG_PRINTF("CYBLE_EVT_GATT_WRITE_CMD_REQ: = 0x%03xu \n",((CYBLE_GATTS_WRITE_CMD_REQ_PARAM_T *)ev
 154:main.c        **** 			//该属性的句柄值:
 155:main.c        **** 			DBG_PRINTF("locationWCRP->handleValPair.value.attrHandle =0x%03xu\n",locationWCRP->handleValPair
 156:main.c        **** 			//数据长度:
 157:main.c        **** 			DBG_PRINTF("locationWCRP->handleValPair.value.len = %d\n",locationWCRP->handleValPair.value.len)
 158:main.c        **** 			//数据actualen长度:
 159:main.c        **** 			DBG_PRINTF("locationWCRP->handleValPair.value.actualLen = 0x%x\n",locationWCRP->handleValPair.va
 160:main.c        **** 			//数据内容:
 161:main.c        **** 			//DBG_SOFT_PrintfHex(locationWCRP->handleValPair.value.val,locationWCRP->handleValPair.value.len
 162:main.c        **** 			BleRecv(locationWCRP->handleValPair.value.val, locationWCRP->handleValPair.value.len);
  53              		.loc 1 162 0
  54 0018 0989     		ldrh	r1, [r1, #8]
  55              	.LVL1:
  56 001a 5868     		ldr	r0, [r3, #4]
  57              	.LVL2:
  58 001c FFF7FEFF 		bl	BleRecv
  59              	.LVL3:
 163:main.c        ****             break;
  60              		.loc 1 163 0
  61 0020 23E0     		b	.L1
  62              	.LVL4:
  63              	.L5:
  64              	.LBB4:
  65              	.LBB5:
ARM GAS  C:\Users\Administrator\AppData\Local\Temp\ccNLOfxN.s 			page 5


  38:main.c        ****             bleSsPowerLevel.bleSsChId = CYBLE_LL_ADV_CH_TYPE;
  66              		.loc 1 38 0
  67 0022 0223     		mov	r3, #2
  68 0024 01A8     		add	r0, sp, #4
  69              	.LVL5:
  70 0026 0370     		strb	r3, [r0]
  39:main.c        ****             (void) CyBle_SetTxPowerLevel (&bleSsPowerLevel);
  71              		.loc 1 39 0
  72 0028 0023     		mov	r3, #0
  73 002a 4370     		strb	r3, [r0, #1]
  40:main.c        **** 			
  74              		.loc 1 40 0
  75 002c FFF7FEFF 		bl	CyBle_SetTxPowerLevel
  76              	.LVL6:
  42:main.c        **** 			{
  77              		.loc 1 42 0
  78 0030 0E4A     		ldr	r2, .L11
  79 0032 1378     		ldrb	r3, [r2]
  80 0034 161C     		mov	r6, r2
  81 0036 DCB2     		uxtb	r4, r3
  82 0038 002C     		cmp	r4, #0
  83 003a 0FD1     		bne	.L3
  45:main.c        ****             	CyBle_GetDeviceAddress(&localAddr);
  84              		.loc 1 45 0
  85 003c 02AD     		add	r5, sp, #8
  46:main.c        ****             	for(i = CYBLE_GAP_BD_ADDR_SIZE; i > 0u; i--)
  86              		.loc 1 46 0
  87 003e 281C     		mov	r0, r5
  45:main.c        ****             	CyBle_GetDeviceAddress(&localAddr);
  88              		.loc 1 45 0
  89 0040 AC71     		strb	r4, [r5, #6]
  46:main.c        ****             	for(i = CYBLE_GAP_BD_ADDR_SIZE; i > 0u; i--)
  90              		.loc 1 46 0
  91 0042 FFF7FEFF 		bl	CyBle_GetDeviceAddress
  92              	.LVL7:
  93 0046 231C     		mov	r3, r4
  94              	.LVL8:
  95              	.L9:
  96 0048 E918     		add	r1, r5, r3
  55:main.c        **** 				}
  97              		.loc 1 55 0
  98 004a 4879     		ldrb	r0, [r1, #5]
  99 004c 0849     		ldr	r1, .L11+4
 100 004e 5A42     		neg	r2, r3
 101 0050 013B     		sub	r3, r3, #1
 102              	.LVL9:
 103 0052 8854     		strb	r0, [r1, r2]
  53:main.c        **** 				{
 104              		.loc 1 53 0
 105 0054 9A1D     		add	r2, r3, #6
 106 0056 F7D1     		bne	.L9
  57:main.c        **** 				
 107              		.loc 1 57 0
 108 0058 0733     		add	r3, r3, #7
 109 005a 3370     		strb	r3, [r6]
 110              	.LVL10:
 111              	.L3:
ARM GAS  C:\Users\Administrator\AppData\Local\Temp\ccNLOfxN.s 			page 6


 112              	.LBE5:
 113              	.LBE4:
 123:main.c        ****             if(apiResult != CYBLE_ERROR_OK)
 114              		.loc 1 123 0
 115 005c 0020     		mov	r0, #0
 116 005e FFF7FEFF 		bl	CyBle_GappStartAdvertisement
 117              	.LVL11:
 128:main.c        ****         case CYBLE_EVT_GAP_ENCRYPT_CHANGE:
 118              		.loc 1 128 0
 119 0062 02E0     		b	.L1
 120              	.LVL12:
 121              	.L6:
 150:main.c        ****             break;
 122              		.loc 1 150 0
 123 0064 0868     		ldr	r0, [r1]
 124              	.LVL13:
 125 0066 FFF7FEFF 		bl	CyBle_GattsWriteRsp
 126              	.LVL14:
 127              	.L1:
 164:main.c        ****         case CYBLE_EVT_GATTS_INDICATION_ENABLED:
 165:main.c        ****             DBG_PRINTF("CYBLE_EVT_GATTS_INDICATION_ENABLED \r\n");
 166:main.c        ****             break;
 167:main.c        ****         case CYBLE_EVT_GATTS_INDICATION_DISABLED:
 168:main.c        ****             DBG_PRINTF("CYBLE_EVT_GATTS_INDICATION_DISABLED \r\n");
 169:main.c        ****             break;
 170:main.c        ****         case CYBLE_EVT_GATTS_READ_CHAR_VAL_ACCESS_REQ:
 171:main.c        ****             /* Triggered on server side when client sends read request and when
 172:main.c        ****             * characteristic has CYBLE_GATT_DB_ATTR_CHAR_VAL_RD_EVENT property set.
 173:main.c        ****             * This event could be ignored by application unless it need to response
 174:main.c        ****             * by error response which needs to be set in gattErrorCode field of
 175:main.c        ****             * event parameter. */
 176:main.c        ****             DBG_PRINTF("CYBLE_EVT_GATTS_READ_CHAR_VAL_ACCESS_REQ: handle: %x \r\n", 
 177:main.c        ****                 ((CYBLE_GATTS_CHAR_VAL_READ_REQ_T *)eventParam)->attrHandle);
 178:main.c        ****             break;
 179:main.c        **** 
 180:main.c        ****         /**********************************************************
 181:main.c        ****         *                       Other Events
 182:main.c        ****         ***********************************************************/
 183:main.c        ****         case CYBLE_EVT_PENDING_FLASH_WRITE:
 184:main.c        ****             /* Inform application that flash write is pending. Stack internal data 
 185:main.c        ****             * structures are modified and require to be stored in Flash using 
 186:main.c        ****             * CyBle_StoreBondingData() */
 187:main.c        ****             DBG_PRINTF("CYBLE_EVT_PENDING_FLASH_WRITE\r\n");
 188:main.c        ****             break;
 189:main.c        **** 
 190:main.c        **** 		default:
 191:main.c        ****             DBG_PRINTF("OTHER event: %lx \r\n", event);
 192:main.c        **** 			break;
 193:main.c        **** 	}
 194:main.c        **** }
 128              		.loc 1 194 0
 129              		@ sp needed
 130 006a 7FBD     		pop	{r0, r1, r2, r3, r4, r5, r6, pc}
 131              	.L12:
 132              		.align	2
 133              	.L11:
 134 006c 00000000 		.word	Read_Mac_Flag
ARM GAS  C:\Users\Administrator\AppData\Local\Temp\ccNLOfxN.s 			page 7


 135 0070 00000000 		.word	Mac_Addr
 136              		.cfi_endproc
 137              	.LFE63:
 138              		.size	AppCallback, .-AppCallback
 139              		.section	.text.LowPowerImplementation,"ax",%progbits
 140              		.align	1
 141              		.global	LowPowerImplementation
 142              		.code	16
 143              		.thumb_func
 144              		.type	LowPowerImplementation, %function
 145              	LowPowerImplementation:
 146              	.LFB64:
 195:main.c        **** 
 196:main.c        **** //*************************************************************************************************
 197:main.c        **** // Function name	: LowPowerImplementation
 198:main.c        **** // Description		: 进入低功耗睡眠的函数
 199:main.c        **** // Parameter		: none
 200:main.c        **** // Return			: none
 201:main.c        **** //-------------------------------------------------------------------------------------------------
 202:main.c        **** // Info				: 
 203:main.c        **** //*************************************************************************************************
 204:main.c        **** void LowPowerImplementation(void)
 205:main.c        **** {
 147              		.loc 1 205 0
 148              		.cfi_startproc
 149 0000 38B5     		push	{r3, r4, r5, lr}
 150              		.cfi_def_cfa_offset 16
 151              		.cfi_offset 3, -16
 152              		.cfi_offset 4, -12
 153              		.cfi_offset 5, -8
 154              		.cfi_offset 14, -4
 206:main.c        ****     CYBLE_LP_MODE_T bleMode;
 207:main.c        ****     uint8 interruptStatus;
 208:main.c        ****     
 209:main.c        ****     /* For advertising and connected states, implement deep sleep 
 210:main.c        ****      * functionality to achieve low power in the system. For more details
 211:main.c        ****      * on the low power implementation, refer to the Low Power Application 
 212:main.c        ****      * Note.
 213:main.c        ****      */
 214:main.c        ****     if((CyBle_GetState() == CYBLE_STATE_ADVERTISING) || 
 155              		.loc 1 214 0
 156 0002 124B     		ldr	r3, .L26
 157 0004 1B78     		ldrb	r3, [r3]
 158 0006 023B     		sub	r3, r3, #2
 159 0008 012B     		cmp	r3, #1
 160 000a 1DD8     		bhi	.L13
 215:main.c        ****        (CyBle_GetState() == CYBLE_STATE_CONNECTED))
 216:main.c        ****     {
 217:main.c        ****         /* Request BLE subsystem to enter into Deep-Sleep mode between connection and advertising i
 218:main.c        ****         bleMode = CyBle_EnterLPM(CYBLE_BLESS_DEEPSLEEP);
 161              		.loc 1 218 0
 162 000c 0320     		mov	r0, #3
 163 000e FFF7FEFF 		bl	CyBle_EnterLPM
 164              	.LVL15:
 165 0012 051C     		mov	r5, r0
 166              	.LVL16:
 219:main.c        ****         /* Disable global interrupts */
ARM GAS  C:\Users\Administrator\AppData\Local\Temp\ccNLOfxN.s 			page 8


 220:main.c        ****         interruptStatus = CyEnterCriticalSection();
 167              		.loc 1 220 0
 168 0014 FFF7FEFF 		bl	CyEnterCriticalSection
 169              	.LVL17:
 170 0018 041C     		mov	r4, r0
 171              	.LVL18:
 221:main.c        ****         /* When BLE subsystem has been put into Deep-Sleep mode */
 222:main.c        ****         if(bleMode == CYBLE_BLESS_DEEPSLEEP)
 172              		.loc 1 222 0
 173 001a 032D     		cmp	r5, #3
 174 001c 0BD1     		bne	.L15
 223:main.c        ****         {
 224:main.c        ****             /* And it is still there or ECO is on */
 225:main.c        ****             if((CyBle_GetBleSsState() == CYBLE_BLESS_STATE_ECO_ON) || 
 175              		.loc 1 225 0
 176 001e FFF7FEFF 		bl	CyBle_GetBleSsState
 177              	.LVL19:
 178 0022 0428     		cmp	r0, #4
 179 0024 02D1     		bne	.L16
 180              	.L18:
 226:main.c        ****                (CyBle_GetBleSsState() == CYBLE_BLESS_STATE_DEEPSLEEP))
 227:main.c        ****             {
 228:main.c        ****             #if (DEBUG_UART_ENABLED == ENABLED)
 229:main.c        ****                 /* Put the CPU into the Deep-Sleep mode when all debug information has been sent */
 230:main.c        ****                 if((UART_433_SpiUartGetTxBufferSize() + UART_433_GET_TX_FIFO_SR_VALID) == 0u)
 231:main.c        ****                 {
 232:main.c        ****                     CySysPmDeepSleep();
 233:main.c        ****                 }
 234:main.c        ****                 else /* Put the CPU into Sleep mode and let SCB to continue sending debug data */
 235:main.c        ****                 {
 236:main.c        ****                     CySysPmSleep();
 237:main.c        ****                 }
 238:main.c        ****             #else
 239:main.c        ****                 CySysPmDeepSleep();
 181              		.loc 1 239 0
 182 0026 FFF7FEFF 		bl	CySysPmDeepSleep
 183              	.LVL20:
 184 002a 0AE0     		b	.L17
 185              	.L16:
 226:main.c        ****                (CyBle_GetBleSsState() == CYBLE_BLESS_STATE_DEEPSLEEP))
 186              		.loc 1 226 0 discriminator 1
 187 002c FFF7FEFF 		bl	CyBle_GetBleSsState
 188              	.LVL21:
 225:main.c        ****                (CyBle_GetBleSsState() == CYBLE_BLESS_STATE_DEEPSLEEP))
 189              		.loc 1 225 0 discriminator 1
 190 0030 0628     		cmp	r0, #6
 191 0032 06D1     		bne	.L17
 192 0034 F7E7     		b	.L18
 193              	.L15:
 240:main.c        ****             #endif /* (DEBUG_UART_ENABLED == ENABLED) */
 241:main.c        ****             }
 242:main.c        ****         }
 243:main.c        ****         else /* When BLE subsystem has been put into Sleep mode or is active */
 244:main.c        ****         {
 245:main.c        ****             /* And hardware doesn't finish Tx/Rx opeation - put the CPU into Sleep mode */
 246:main.c        ****             if(CyBle_GetBleSsState() != CYBLE_BLESS_STATE_EVENT_CLOSE)
 194              		.loc 1 246 0
ARM GAS  C:\Users\Administrator\AppData\Local\Temp\ccNLOfxN.s 			page 9


 195 0036 FFF7FEFF 		bl	CyBle_GetBleSsState
 196              	.LVL22:
 197 003a 0228     		cmp	r0, #2
 198 003c 01D0     		beq	.L17
 247:main.c        ****             {
 248:main.c        ****                 CySysPmSleep();
 199              		.loc 1 248 0
 200 003e FFF7FEFF 		bl	CySysPmSleep
 201              	.LVL23:
 202              	.L17:
 249:main.c        ****             }
 250:main.c        ****         }
 251:main.c        ****         /* Enable global interrupt */
 252:main.c        ****         CyExitCriticalSection(interruptStatus);
 203              		.loc 1 252 0
 204 0042 201C     		mov	r0, r4
 205 0044 FFF7FEFF 		bl	CyExitCriticalSection
 206              	.LVL24:
 207              	.L13:
 253:main.c        ****     }
 254:main.c        **** }
 208              		.loc 1 254 0
 209              		@ sp needed
 210 0048 38BD     		pop	{r3, r4, r5, pc}
 211              	.L27:
 212 004a C046     		.align	2
 213              	.L26:
 214 004c 00000000 		.word	cyBle_state
 215              		.cfi_endproc
 216              	.LFE64:
 217              		.size	LowPowerImplementation, .-LowPowerImplementation
 218              		.section	.text.Led_AllOff,"ax",%progbits
 219              		.align	1
 220              		.global	Led_AllOff
 221              		.code	16
 222              		.thumb_func
 223              		.type	Led_AllOff, %function
 224              	Led_AllOff:
 225              	.LFB67:
 255:main.c        **** 
 256:main.c        **** //*************************************************************************************************
 257:main.c        **** // Function name	: ble_heartbeat
 258:main.c        **** // Description		: 蓝牙的心跳包
 259:main.c        **** // Parameter		: none
 260:main.c        **** // Return			: none
 261:main.c        **** //-------------------------------------------------------------------------------------------------
 262:main.c        **** // Info				: 
 263:main.c        **** //*************************************************************************************************
 264:main.c        **** void ble_heartbeat(void)
 265:main.c        **** {
 266:main.c        ****     uint16 i;
 267:main.c        ****     
 268:main.c        **** 	WDT_FeedDog();
 269:main.c        ****     for (i = 0; i < 50; i++)
 270:main.c        ****     {
 271:main.c        **** 	    CyBle_ProcessEvents();
 272:main.c        **** 	}
ARM GAS  C:\Users\Administrator\AppData\Local\Temp\ccNLOfxN.s 			page 10


 273:main.c        ****     
 274:main.c        ****     #if 1
 275:main.c        ****     if (BleCmdValidFlag == 1)
 276:main.c        ****     {
 277:main.c        **** 		Protocol_CmdParse_BLE();
 278:main.c        ****     }
 279:main.c        ****     #endif
 280:main.c        ****     
 281:main.c        ****     if ((gprs_state != NORMAL_COMM) && (gprs_state != UPDATE_CONNECT) &&
 282:main.c        ****         (gprs_state != WAIT_UPDATE) && (gprs_state != UPDATE_FINISH))
 283:main.c        ****     {
 284:main.c        ****         if (CardCheck_CountTime > 1000)
 285:main.c        ****         {
 286:main.c        ****             CardCheck_CountTime = 0;
 287:main.c        ****             CARD_Tick();
 288:main.c        ****         }
 289:main.c        ****     }
 290:main.c        **** }
 291:main.c        **** 
 292:main.c        **** //*************************************************************************************************
 293:main.c        **** // Function name	: delay_with_ble
 294:main.c        **** // Description		: 带蓝牙心跳的延时函数
 295:main.c        **** // Parameter		: ms	: 延时时间
 296:main.c        **** // Return			: none
 297:main.c        **** //-------------------------------------------------------------------------------------------------
 298:main.c        **** // Info				: 
 299:main.c        **** //*************************************************************************************************
 300:main.c        **** void delay_with_ble(uint32 ms)
 301:main.c        **** {
 302:main.c        **** 	uint32 loop = 0;
 303:main.c        **** 	for (loop = 0; loop < ms / 5; loop++)
 304:main.c        **** 	{
 305:main.c        **** 		CyDelay(5);
 306:main.c        **** 		ble_heartbeat();
 307:main.c        **** 	}
 308:main.c        **** }
 309:main.c        **** 
 310:main.c        **** //*************************************************************************************************
 311:main.c        **** // Function name	: Led_AllOff
 312:main.c        **** // Description		: 关闭所有LED灯
 313:main.c        **** // Parameter		: none
 314:main.c        **** // Return			: none
 315:main.c        **** //-------------------------------------------------------------------------------------------------
 316:main.c        **** // Info				: 
 317:main.c        **** //*************************************************************************************************
 318:main.c        **** void Led_AllOff(void)
 319:main.c        **** {
 226              		.loc 1 319 0
 227              		.cfi_startproc
 228 0000 08B5     		push	{r3, lr}
 229              		.cfi_def_cfa_offset 8
 230              		.cfi_offset 3, -8
 231              		.cfi_offset 14, -4
 320:main.c        ****     LED_RED_Write(1);
 232              		.loc 1 320 0
 233 0002 0120     		mov	r0, #1
 234 0004 FFF7FEFF 		bl	LED_RED_Write
ARM GAS  C:\Users\Administrator\AppData\Local\Temp\ccNLOfxN.s 			page 11


 235              	.LVL25:
 321:main.c        ****     LED_BLUE_Write(1);
 236              		.loc 1 321 0
 237 0008 0120     		mov	r0, #1
 238 000a FFF7FEFF 		bl	LED_BLUE_Write
 239              	.LVL26:
 322:main.c        ****     LED_GREEN_Write(1);
 240              		.loc 1 322 0
 241 000e 0120     		mov	r0, #1
 242 0010 FFF7FEFF 		bl	LED_GREEN_Write
 243              	.LVL27:
 323:main.c        **** }
 244              		.loc 1 323 0
 245              		@ sp needed
 246 0014 08BD     		pop	{r3, pc}
 247              		.cfi_endproc
 248              	.LFE67:
 249              		.size	Led_AllOff, .-Led_AllOff
 250              		.section	.text.Led_RedON,"ax",%progbits
 251              		.align	1
 252              		.global	Led_RedON
 253              		.code	16
 254              		.thumb_func
 255              		.type	Led_RedON, %function
 256              	Led_RedON:
 257              	.LFB68:
 324:main.c        **** 
 325:main.c        **** //*************************************************************************************************
 326:main.c        **** // Function name	: Led_RedON
 327:main.c        **** // Description		: 红灯亮
 328:main.c        **** // Parameter		: none
 329:main.c        **** // Return			: none
 330:main.c        **** //-------------------------------------------------------------------------------------------------
 331:main.c        **** // Info				: 
 332:main.c        **** //*************************************************************************************************
 333:main.c        **** void Led_RedON(void)
 334:main.c        **** {
 258              		.loc 1 334 0
 259              		.cfi_startproc
 260 0000 08B5     		push	{r3, lr}
 261              		.cfi_def_cfa_offset 8
 262              		.cfi_offset 3, -8
 263              		.cfi_offset 14, -4
 335:main.c        ****     Led_AllOff();
 264              		.loc 1 335 0
 265 0002 FFF7FEFF 		bl	Led_AllOff
 266              	.LVL28:
 336:main.c        **** 	LED_RED_Write(0);
 267              		.loc 1 336 0
 268 0006 0020     		mov	r0, #0
 269 0008 FFF7FEFF 		bl	LED_RED_Write
 270              	.LVL29:
 337:main.c        **** }
 271              		.loc 1 337 0
 272              		@ sp needed
 273 000c 08BD     		pop	{r3, pc}
 274              		.cfi_endproc
ARM GAS  C:\Users\Administrator\AppData\Local\Temp\ccNLOfxN.s 			page 12


 275              	.LFE68:
 276              		.size	Led_RedON, .-Led_RedON
 277              		.section	.text.Led_GreenON,"ax",%progbits
 278              		.align	1
 279              		.global	Led_GreenON
 280              		.code	16
 281              		.thumb_func
 282              		.type	Led_GreenON, %function
 283              	Led_GreenON:
 284              	.LFB69:
 338:main.c        **** 
 339:main.c        **** //*************************************************************************************************
 340:main.c        **** // Function name	: Led_GreenON
 341:main.c        **** // Description		: 绿灯亮
 342:main.c        **** // Parameter		: none
 343:main.c        **** // Return			: none
 344:main.c        **** //-------------------------------------------------------------------------------------------------
 345:main.c        **** // Info				: 
 346:main.c        **** //*************************************************************************************************
 347:main.c        **** void Led_GreenON(void)
 348:main.c        **** {
 285              		.loc 1 348 0
 286              		.cfi_startproc
 287 0000 08B5     		push	{r3, lr}
 288              		.cfi_def_cfa_offset 8
 289              		.cfi_offset 3, -8
 290              		.cfi_offset 14, -4
 349:main.c        ****     Led_AllOff();
 291              		.loc 1 349 0
 292 0002 FFF7FEFF 		bl	Led_AllOff
 293              	.LVL30:
 350:main.c        **** 	LED_GREEN_Write(0);
 294              		.loc 1 350 0
 295 0006 0020     		mov	r0, #0
 296 0008 FFF7FEFF 		bl	LED_GREEN_Write
 297              	.LVL31:
 351:main.c        **** }
 298              		.loc 1 351 0
 299              		@ sp needed
 300 000c 08BD     		pop	{r3, pc}
 301              		.cfi_endproc
 302              	.LFE69:
 303              		.size	Led_GreenON, .-Led_GreenON
 304              		.section	.text.Led_BlueON,"ax",%progbits
 305              		.align	1
 306              		.global	Led_BlueON
 307              		.code	16
 308              		.thumb_func
 309              		.type	Led_BlueON, %function
 310              	Led_BlueON:
 311              	.LFB70:
 352:main.c        **** 
 353:main.c        **** //*************************************************************************************************
 354:main.c        **** // Function name	: Led_BlueON
 355:main.c        **** // Description		: 蓝灯亮
 356:main.c        **** // Parameter		: none
 357:main.c        **** // Return			: none
ARM GAS  C:\Users\Administrator\AppData\Local\Temp\ccNLOfxN.s 			page 13


 358:main.c        **** //-------------------------------------------------------------------------------------------------
 359:main.c        **** // Info				: 
 360:main.c        **** //*************************************************************************************************
 361:main.c        **** void Led_BlueON(void)
 362:main.c        **** {
 312              		.loc 1 362 0
 313              		.cfi_startproc
 314 0000 08B5     		push	{r3, lr}
 315              		.cfi_def_cfa_offset 8
 316              		.cfi_offset 3, -8
 317              		.cfi_offset 14, -4
 363:main.c        ****     Led_AllOff();
 318              		.loc 1 363 0
 319 0002 FFF7FEFF 		bl	Led_AllOff
 320              	.LVL32:
 364:main.c        **** 	LED_BLUE_Write(0);
 321              		.loc 1 364 0
 322 0006 0020     		mov	r0, #0
 323 0008 FFF7FEFF 		bl	LED_BLUE_Write
 324              	.LVL33:
 365:main.c        **** }
 325              		.loc 1 365 0
 326              		@ sp needed
 327 000c 08BD     		pop	{r3, pc}
 328              		.cfi_endproc
 329              	.LFE70:
 330              		.size	Led_BlueON, .-Led_BlueON
 331              		.section	.text.Led_SetState,"ax",%progbits
 332              		.align	1
 333              		.global	Led_SetState
 334              		.code	16
 335              		.thumb_func
 336              		.type	Led_SetState, %function
 337              	Led_SetState:
 338              	.LFB71:
 366:main.c        **** 
 367:main.c        **** //*************************************************************************************************
 368:main.c        **** // Function name	: Led_SetState
 369:main.c        **** // Description		: 设置LED的状态
 370:main.c        **** // Parameter		: Sta	: 待设置的状态
 371:main.c        **** // Return			: none
 372:main.c        **** //-------------------------------------------------------------------------------------------------
 373:main.c        **** // Info				: 
 374:main.c        **** //*************************************************************************************************
 375:main.c        **** void Led_SetState(uint8 Sta)
 376:main.c        **** {
 339              		.loc 1 376 0
 340              		.cfi_startproc
 341              	.LVL34:
 342 0000 08B5     		push	{r3, lr}
 343              		.cfi_def_cfa_offset 8
 344              		.cfi_offset 3, -8
 345              		.cfi_offset 14, -4
 377:main.c        **** 	if (Sta == 0)
 346              		.loc 1 377 0
 347 0002 0028     		cmp	r0, #0
 348 0004 02D1     		bne	.L33
ARM GAS  C:\Users\Administrator\AppData\Local\Temp\ccNLOfxN.s 			page 14


 378:main.c        **** 	{
 379:main.c        **** 		Led_AllOff();
 349              		.loc 1 379 0
 350 0006 FFF7FEFF 		bl	Led_AllOff
 351              	.LVL35:
 352 000a 0DE0     		b	.L32
 353              	.LVL36:
 354              	.L33:
 380:main.c        **** 	}
 381:main.c        **** 	else if (Sta == 1)
 355              		.loc 1 381 0
 356 000c 0128     		cmp	r0, #1
 357 000e 02D1     		bne	.L35
 382:main.c        **** 	{
 383:main.c        **** 		Led_RedON();
 358              		.loc 1 383 0
 359 0010 FFF7FEFF 		bl	Led_RedON
 360              	.LVL37:
 361 0014 08E0     		b	.L32
 362              	.LVL38:
 363              	.L35:
 384:main.c        **** 	}
 385:main.c        **** 	else if (Sta == 2)
 364              		.loc 1 385 0
 365 0016 0228     		cmp	r0, #2
 366 0018 02D1     		bne	.L36
 386:main.c        **** 	{
 387:main.c        **** 		Led_GreenON();
 367              		.loc 1 387 0
 368 001a FFF7FEFF 		bl	Led_GreenON
 369              	.LVL39:
 370 001e 03E0     		b	.L32
 371              	.LVL40:
 372              	.L36:
 388:main.c        **** 	}
 389:main.c        **** 	else if (Sta == 3)
 373              		.loc 1 389 0
 374 0020 0328     		cmp	r0, #3
 375 0022 01D1     		bne	.L32
 390:main.c        **** 	{
 391:main.c        **** 		Led_BlueON();
 376              		.loc 1 391 0
 377 0024 FFF7FEFF 		bl	Led_BlueON
 378              	.LVL41:
 379              	.L32:
 392:main.c        **** 	}
 393:main.c        **** }
 380              		.loc 1 393 0
 381              		@ sp needed
 382 0028 08BD     		pop	{r3, pc}
 383              		.cfi_endproc
 384              	.LFE71:
 385              		.size	Led_SetState, .-Led_SetState
 386              		.section	.text.DoorOpen,"ax",%progbits
 387              		.align	1
 388              		.global	DoorOpen
 389              		.code	16
ARM GAS  C:\Users\Administrator\AppData\Local\Temp\ccNLOfxN.s 			page 15


 390              		.thumb_func
 391              		.type	DoorOpen, %function
 392              	DoorOpen:
 393              	.LFB72:
 394:main.c        **** 
 395:main.c        **** //*************************************************************************************************
 396:main.c        **** // Function name	: DoorOpen
 397:main.c        **** // Description		: 门打开
 398:main.c        **** // Parameter		: none
 399:main.c        **** // Return			: none
 400:main.c        **** //-------------------------------------------------------------------------------------------------
 401:main.c        **** // Info				: 
 402:main.c        **** //*************************************************************************************************
 403:main.c        **** void DoorOpen(void)
 404:main.c        **** {
 394              		.loc 1 404 0
 395              		.cfi_startproc
 396 0000 08B5     		push	{r3, lr}
 397              		.cfi_def_cfa_offset 8
 398              		.cfi_offset 3, -8
 399              		.cfi_offset 14, -4
 405:main.c        ****     DOOR_OPEN_Write(1);
 400              		.loc 1 405 0
 401 0002 0120     		mov	r0, #1
 402 0004 FFF7FEFF 		bl	DOOR_OPEN_Write
 403              	.LVL42:
 406:main.c        **** }
 404              		.loc 1 406 0
 405              		@ sp needed
 406 0008 08BD     		pop	{r3, pc}
 407              		.cfi_endproc
 408              	.LFE72:
 409              		.size	DoorOpen, .-DoorOpen
 410              		.section	.text.DoorClose,"ax",%progbits
 411              		.align	1
 412              		.global	DoorClose
 413              		.code	16
 414              		.thumb_func
 415              		.type	DoorClose, %function
 416              	DoorClose:
 417              	.LFB73:
 407:main.c        **** 
 408:main.c        **** //*************************************************************************************************
 409:main.c        **** // Function name	: DoorClose
 410:main.c        **** // Description		: 门关闭
 411:main.c        **** // Parameter		: none
 412:main.c        **** // Return			: none
 413:main.c        **** //-------------------------------------------------------------------------------------------------
 414:main.c        **** // Info				: 
 415:main.c        **** //*************************************************************************************************
 416:main.c        **** void DoorClose(void)
 417:main.c        **** {
 418              		.loc 1 417 0
 419              		.cfi_startproc
 420 0000 08B5     		push	{r3, lr}
 421              		.cfi_def_cfa_offset 8
 422              		.cfi_offset 3, -8
ARM GAS  C:\Users\Administrator\AppData\Local\Temp\ccNLOfxN.s 			page 16


 423              		.cfi_offset 14, -4
 418:main.c        ****     DOOR_OPEN_Write(0);
 424              		.loc 1 418 0
 425 0002 0020     		mov	r0, #0
 426 0004 FFF7FEFF 		bl	DOOR_OPEN_Write
 427              	.LVL43:
 419:main.c        **** }
 428              		.loc 1 419 0
 429              		@ sp needed
 430 0008 08BD     		pop	{r3, pc}
 431              		.cfi_endproc
 432              	.LFE73:
 433              		.size	DoorClose, .-DoorClose
 434              		.section	.text.WaitTimeOut,"ax",%progbits
 435              		.align	1
 436              		.global	WaitTimeOut
 437              		.code	16
 438              		.thumb_func
 439              		.type	WaitTimeOut, %function
 440              	WaitTimeOut:
 441              	.LFB79:
 420:main.c        **** 
 421:main.c        **** //*************************************************************************************************
 422:main.c        **** // Function name	: GPRS_SetON
 423:main.c        **** // Description		: GPRS PowerKey On
 424:main.c        **** // Parameter		: none
 425:main.c        **** // Return			: none
 426:main.c        **** //-------------------------------------------------------------------------------------------------
 427:main.c        **** // Info				: GPRS模组开机操作
 428:main.c        **** //*************************************************************************************************
 429:main.c        **** void GPRS_SetON(void)
 430:main.c        **** {
 431:main.c        **** 	uint16 count = 0;
 432:main.c        **** 	
 433:main.c        **** 	if (GPRS_STATE_Read() == 1)
 434:main.c        **** 	{	// 如果是关机状态 执行开机
 435:main.c        **** 		CyDelay(30);
 436:main.c        **** 		GPRS_PWRKEY_Write(1);
 437:main.c        **** 		while ((GPRS_STATE_Read() == 1) && (count <= 30))
 438:main.c        **** 		{
 439:main.c        **** 			delay_with_ble(100);
 440:main.c        **** 			count++;
 441:main.c        **** 		}
 442:main.c        **** 		GPRS_PWRKEY_Write(0);
 443:main.c        **** 	}
 444:main.c        **** }
 445:main.c        **** 
 446:main.c        **** //*************************************************************************************************
 447:main.c        **** // Function name	: GPRSPowerOn
 448:main.c        **** // Description		: GPRS上电
 449:main.c        **** // Parameter		: none
 450:main.c        **** // Return			: none
 451:main.c        **** //-------------------------------------------------------------------------------------------------
 452:main.c        **** // Info				: 
 453:main.c        **** //*************************************************************************************************
 454:main.c        **** void GPRSPowerOn(void)
 455:main.c        **** {
ARM GAS  C:\Users\Administrator\AppData\Local\Temp\ccNLOfxN.s 			page 17


 456:main.c        **** 	uint8 count = 0;
 457:main.c        **** 	
 458:main.c        **** 	if (GPRS_STATE_Read() == 1)
 459:main.c        **** 	{	// 如果是关机状态
 460:main.c        **** 		CyDelay(30);
 461:main.c        **** 		GPRS_PWRKEY_Write(1);
 462:main.c        **** 		while ((GPRS_STATE_Read() == 1) && (count <= 30))
 463:main.c        **** 		{
 464:main.c        **** 			delay_with_ble(100);
 465:main.c        **** 			count++;
 466:main.c        **** 		}
 467:main.c        **** 		GPRS_PWRKEY_Write(0);
 468:main.c        **** 		GPRS_WaitInitFinish();
 469:main.c        **** 		delay_with_ble(3000);						// 等待3s
 470:main.c        **** 		
 471:main.c        **** 		GPRS_QuerySimCard();
 472:main.c        **** 		delay_with_ble(4000);						// 等待网络注册 连接
 473:main.c        **** 		wait_timeout = 30000;						// 等待超时 30s
 474:main.c        **** 		while(wait_timeout > 0)
 475:main.c        **** 		{
 476:main.c        **** 			if(TRUE == GPRS_QueryCREG())			// 查询网络注册情况 AT+CREG? 
 477:main.c        **** 			{
 478:main.c        **** 				break;		
 479:main.c        **** 			}
 480:main.c        **** 			else
 481:main.c        **** 			{
 482:main.c        **** 				delay_with_ble(1500);	
 483:main.c        **** 			}
 484:main.c        **** 		}
 485:main.c        **** 		delay_with_ble(500);
 486:main.c        **** 		if(0 == GPRS_QueryRssi())					// 查询信号情况 AT+CSQ 不查没关系，除非是排除0 
 487:main.c        **** 		{
 488:main.c        **** 		}		
 489:main.c        **** 		GPRS_SetAPN();								// 设置APN情况 AT+CGDCONT=1,"IP","CMNET" 
 490:main.c        **** 		delay_with_ble(500);	
 491:main.c        **** 		GPRS_SetActive();							// 激活PDP上下文 AT+CGACT=1,1  (6311-R开启)
 492:main.c        **** 	}
 493:main.c        **** }
 494:main.c        **** 
 495:main.c        **** //*************************************************************************************************
 496:main.c        **** // Function name	: GPRSPowerOn
 497:main.c        **** // Description		: GPRS上电
 498:main.c        **** // Parameter		: none
 499:main.c        **** // Return			: none
 500:main.c        **** //-------------------------------------------------------------------------------------------------
 501:main.c        **** // Info				: 
 502:main.c        **** //*************************************************************************************************
 503:main.c        **** void GPRSPowerOn_0321(void)
 504:main.c        **** {
 505:main.c        **** 	GPRS_SetON();
 506:main.c        **** 	
 507:main.c        **** 	cmd433_INT_ISR_StartEx(RX_IRQ_INTERRUPT);						// 开启串口接收中断					//
 508:main.c        ****     UART_433_Start();												// 串口初始化						//
 509:main.c        **** 	
 510:main.c        **** 	GPRS_WaitInitFinish();
 511:main.c        **** 	//delay_with_ble(3000);						// 等待3s
 512:main.c        **** 	delay_with_ble(2000);						// 等待3s
ARM GAS  C:\Users\Administrator\AppData\Local\Temp\ccNLOfxN.s 			page 18


 513:main.c        **** 	GPRS_QuerySimCard();
 514:main.c        **** 	delay_with_ble(4000);						// 等待网络注册 连接
 515:main.c        **** 	wait_timeout = 30000;						// 等待超时 30s
 516:main.c        **** 	while(wait_timeout > 0)
 517:main.c        **** 	{
 518:main.c        **** 		if(TRUE == GPRS_QueryCREG())			// 查询网络注册情况 AT+CREG? 
 519:main.c        **** 		{
 520:main.c        **** 			break;		
 521:main.c        **** 		}
 522:main.c        **** 		else
 523:main.c        **** 		{
 524:main.c        **** 			delay_with_ble(1500);	
 525:main.c        **** 		}
 526:main.c        **** 	}
 527:main.c        **** 	delay_with_ble(500);
 528:main.c        **** 	if(0 == GPRS_QueryRssi())					// 查询信号情况 AT+CSQ 不查没关系，除非是排除0 
 529:main.c        **** 	{
 530:main.c        **** 	}		
 531:main.c        **** 	GPRS_SetAPN();								// 设置APN情况 AT+CGDCONT=1,"IP","CMNET" 
 532:main.c        **** 	delay_with_ble(500);	
 533:main.c        **** 	GPRS_SetActive();							// 激活PDP上下文 AT+CGACT=1,1  (6311-R开启)
 534:main.c        **** 
 535:main.c        **** }
 536:main.c        **** 
 537:main.c        **** 
 538:main.c        **** //*************************************************************************************************
 539:main.c        **** // Function name	: GPRSPowerDown
 540:main.c        **** // Description		: GPRS掉电
 541:main.c        **** // Parameter		: none
 542:main.c        **** // Return			: none
 543:main.c        **** //-------------------------------------------------------------------------------------------------
 544:main.c        **** // Info				: 
 545:main.c        **** //*************************************************************************************************
 546:main.c        **** void GPRSPowerDown(void)
 547:main.c        **** {
 548:main.c        **** 	uint8 count = 0;
 549:main.c        **** 	
 550:main.c        **** 	if (GPRS_STATE_Read() == 0)
 551:main.c        **** 	{
 552:main.c        **** 		GPRS_PWRKEY_Write(1);
 553:main.c        **** 		while ((GPRS_STATE_Read() == 0) && (count <= 30))
 554:main.c        **** 		{
 555:main.c        **** 			delay_with_ble(100);
 556:main.c        **** 			count++;
 557:main.c        **** 		}
 558:main.c        **** 		GPRS_PWRKEY_Write(0);
 559:main.c        **** 	}
 560:main.c        ****     delay_with_ble(10000);
 561:main.c        **** }
 562:main.c        **** 
 563:main.c        **** //*************************************************************************************************
 564:main.c        **** // Function name	: ResetGPRS
 565:main.c        **** // Description		: 复位GPRS模块
 566:main.c        **** // Parameter		: none
 567:main.c        **** // Return			: none
 568:main.c        **** //-------------------------------------------------------------------------------------------------
 569:main.c        **** // Info				: 
ARM GAS  C:\Users\Administrator\AppData\Local\Temp\ccNLOfxN.s 			page 19


 570:main.c        **** //*************************************************************************************************
 571:main.c        **** void ResetGPRS(void)
 572:main.c        **** {
 573:main.c        ****     GPRS_RESET_Write(1);
 574:main.c        **** 	delay_with_ble(25);
 575:main.c        **** 	GPRS_RESET_Write(0);
 576:main.c        **** }
 577:main.c        **** 
 578:main.c        **** //*************************************************************************************************
 579:main.c        **** // Function name	: WaitTimeOut
 580:main.c        **** // Description		: 通用等待超时时间
 581:main.c        **** // Parameter		: none
 582:main.c        **** // Return			: none
 583:main.c        **** //-------------------------------------------------------------------------------------------------
 584:main.c        **** // Info				: 
 585:main.c        **** //*************************************************************************************************
 586:main.c        **** void WaitTimeOut(void)
 587:main.c        **** {				
 442              		.loc 1 587 0
 443              		.cfi_startproc
 588:main.c        **** 	if (wait_timeout > 0)
 444              		.loc 1 588 0
 445 0000 034B     		ldr	r3, .L44
 446 0002 1A68     		ldr	r2, [r3]
 447 0004 002A     		cmp	r2, #0
 448 0006 02D0     		beq	.L39
 589:main.c        ****     {
 590:main.c        ****         wait_timeout--;
 449              		.loc 1 590 0
 450 0008 1A68     		ldr	r2, [r3]
 451 000a 013A     		sub	r2, r2, #1
 452 000c 1A60     		str	r2, [r3]
 453              	.L39:
 591:main.c        ****     }
 592:main.c        **** }
 454              		.loc 1 592 0
 455              		@ sp needed
 456 000e 7047     		bx	lr
 457              	.L45:
 458              		.align	2
 459              	.L44:
 460 0010 00000000 		.word	wait_timeout
 461              		.cfi_endproc
 462              	.LFE79:
 463              		.size	WaitTimeOut, .-WaitTimeOut
 464              		.section	.text.CardCheckTimeOut,"ax",%progbits
 465              		.align	1
 466              		.global	CardCheckTimeOut
 467              		.code	16
 468              		.thumb_func
 469              		.type	CardCheckTimeOut, %function
 470              	CardCheckTimeOut:
 471              	.LFB80:
 593:main.c        **** //*************************************************************************************************
 594:main.c        **** // Function name	: CardCheckTimeOut
 595:main.c        **** // Description		: 刷卡计时
 596:main.c        **** // Parameter		: none
ARM GAS  C:\Users\Administrator\AppData\Local\Temp\ccNLOfxN.s 			page 20


 597:main.c        **** // Return			: none
 598:main.c        **** //-------------------------------------------------------------------------------------------------
 599:main.c        **** // Info				: 
 600:main.c        **** //*************************************************************************************************
 601:main.c        **** void CardCheckTimeOut(void)
 602:main.c        **** {				
 472              		.loc 1 602 0
 473              		.cfi_startproc
 603:main.c        **** 	if (CardCheck_CountTime <10000)
 474              		.loc 1 603 0
 475 0000 044B     		ldr	r3, .L48
 476 0002 054A     		ldr	r2, .L48+4
 477 0004 1968     		ldr	r1, [r3]
 478 0006 9142     		cmp	r1, r2
 479 0008 02D8     		bhi	.L46
 604:main.c        ****     {
 605:main.c        ****         CardCheck_CountTime++;
 480              		.loc 1 605 0
 481 000a 1A68     		ldr	r2, [r3]
 482 000c 0132     		add	r2, r2, #1
 483 000e 1A60     		str	r2, [r3]
 484              	.L46:
 606:main.c        ****     }
 607:main.c        **** }
 485              		.loc 1 607 0
 486              		@ sp needed
 487 0010 7047     		bx	lr
 488              	.L49:
 489 0012 C046     		.align	2
 490              	.L48:
 491 0014 00000000 		.word	.LANCHOR0
 492 0018 0F270000 		.word	9999
 493              		.cfi_endproc
 494              	.LFE80:
 495              		.size	CardCheckTimeOut, .-CardCheckTimeOut
 496              		.section	.text.RecvTimeOut,"ax",%progbits
 497              		.align	1
 498              		.global	RecvTimeOut
 499              		.code	16
 500              		.thumb_func
 501              		.type	RecvTimeOut, %function
 502              	RecvTimeOut:
 503              	.LFB81:
 608:main.c        **** 
 609:main.c        **** //*************************************************************************************************
 610:main.c        **** // Function name	: RecvTimeOut
 611:main.c        **** // Description		: GPRS收到包头后，到整个包收完的超时时间
 612:main.c        **** // Parameter		: none
 613:main.c        **** // Return			: none
 614:main.c        **** //-------------------------------------------------------------------------------------------------
 615:main.c        **** // Info				: 
 616:main.c        **** //*************************************************************************************************
 617:main.c        **** void RecvTimeOut(void)
 618:main.c        **** {				
 504              		.loc 1 618 0
 505              		.cfi_startproc
 619:main.c        **** 	if (recv_timeout > 0)
ARM GAS  C:\Users\Administrator\AppData\Local\Temp\ccNLOfxN.s 			page 21


 506              		.loc 1 619 0
 507 0000 034B     		ldr	r3, .L55
 508 0002 1A68     		ldr	r2, [r3]
 509 0004 002A     		cmp	r2, #0
 510 0006 02D0     		beq	.L50
 620:main.c        ****     {
 621:main.c        ****         recv_timeout--;
 511              		.loc 1 621 0
 512 0008 1A68     		ldr	r2, [r3]
 513 000a 013A     		sub	r2, r2, #1
 514 000c 1A60     		str	r2, [r3]
 515              	.L50:
 622:main.c        ****     }
 623:main.c        **** }
 516              		.loc 1 623 0
 517              		@ sp needed
 518 000e 7047     		bx	lr
 519              	.L56:
 520              		.align	2
 521              	.L55:
 522 0010 00000000 		.word	recv_timeout
 523              		.cfi_endproc
 524              	.LFE81:
 525              		.size	RecvTimeOut, .-RecvTimeOut
 526              		.section	.text.UpdateTimeOut,"ax",%progbits
 527              		.align	1
 528              		.global	UpdateTimeOut
 529              		.code	16
 530              		.thumb_func
 531              		.type	UpdateTimeOut, %function
 532              	UpdateTimeOut:
 533              	.LFB82:
 624:main.c        **** 
 625:main.c        **** //*************************************************************************************************
 626:main.c        **** // Function name	: UpdateTimeOut
 627:main.c        **** // Description		: 在线升级超时时间
 628:main.c        **** // Parameter		: none
 629:main.c        **** // Return			: none
 630:main.c        **** //-------------------------------------------------------------------------------------------------
 631:main.c        **** // Info				: 
 632:main.c        **** //*************************************************************************************************
 633:main.c        **** void UpdateTimeOut(void)
 634:main.c        **** {				
 534              		.loc 1 634 0
 535              		.cfi_startproc
 635:main.c        **** 	if (update_timeout_time > 0)
 536              		.loc 1 635 0
 537 0000 034B     		ldr	r3, .L62
 538 0002 5A68     		ldr	r2, [r3, #4]
 539 0004 002A     		cmp	r2, #0
 540 0006 02D0     		beq	.L57
 636:main.c        ****     {
 637:main.c        ****         update_timeout_time--;
 541              		.loc 1 637 0
 542 0008 5A68     		ldr	r2, [r3, #4]
 543 000a 013A     		sub	r2, r2, #1
 544 000c 5A60     		str	r2, [r3, #4]
ARM GAS  C:\Users\Administrator\AppData\Local\Temp\ccNLOfxN.s 			page 22


 545              	.L57:
 638:main.c        ****     }
 639:main.c        **** }
 546              		.loc 1 639 0
 547              		@ sp needed
 548 000e 7047     		bx	lr
 549              	.L63:
 550              		.align	2
 551              	.L62:
 552 0010 00000000 		.word	.LANCHOR0
 553              		.cfi_endproc
 554              	.LFE82:
 555              		.size	UpdateTimeOut, .-UpdateTimeOut
 556              		.section	.text.Reboot_Check,"ax",%progbits
 557              		.align	1
 558              		.global	Reboot_Check
 559              		.code	16
 560              		.thumb_func
 561              		.type	Reboot_Check, %function
 562              	Reboot_Check:
 563              	.LFB83:
 640:main.c        **** 
 641:main.c        **** //*************************************************************************************************
 642:main.c        **** // Function name	: Reboot_Check
 643:main.c        **** // Description		: 重启检测
 644:main.c        **** // Parameter		: none
 645:main.c        **** // Return			: none
 646:main.c        **** //-------------------------------------------------------------------------------------------------
 647:main.c        **** // Info				: 
 648:main.c        **** //*************************************************************************************************
 649:main.c        **** void Reboot_Check(void)
 650:main.c        **** {
 564              		.loc 1 650 0
 565              		.cfi_startproc
 566 0000 08B5     		push	{r3, lr}
 567              		.cfi_def_cfa_offset 8
 568              		.cfi_offset 3, -8
 569              		.cfi_offset 14, -4
 651:main.c        ****     if ((flag_reboot == 1) && (stop_reboot == 0))
 570              		.loc 1 651 0
 571 0002 064B     		ldr	r3, .L66
 572 0004 1A78     		ldrb	r2, [r3]
 573 0006 012A     		cmp	r2, #1
 574 0008 06D1     		bne	.L64
 575              	.LBB8:
 576              	.LBB9:
 577 000a 054A     		ldr	r2, .L66+4
 578 000c 1278     		ldrb	r2, [r2]
 579 000e 002A     		cmp	r2, #0
 580 0010 02D1     		bne	.L64
 652:main.c        ****     {
 653:main.c        ****         flag_reboot = 0;
 581              		.loc 1 653 0
 582 0012 1A70     		strb	r2, [r3]
 654:main.c        ****         CySoftwareReset();
 583              		.loc 1 654 0
 584 0014 FFF7FEFF 		bl	CySoftwareReset
ARM GAS  C:\Users\Administrator\AppData\Local\Temp\ccNLOfxN.s 			page 23


 585              	.LVL44:
 586              	.L64:
 587              	.LBE9:
 588              	.LBE8:
 655:main.c        ****     }
 656:main.c        **** }
 589              		.loc 1 656 0
 590              		@ sp needed
 591 0018 08BD     		pop	{r3, pc}
 592              	.L67:
 593 001a C046     		.align	2
 594              	.L66:
 595 001c 00000000 		.word	flag_reboot
 596 0020 00000000 		.word	stop_reboot
 597              		.cfi_endproc
 598              	.LFE83:
 599              		.size	Reboot_Check, .-Reboot_Check
 600              		.section	.text.Updatealarm_check,"ax",%progbits
 601              		.align	1
 602              		.global	Updatealarm_check
 603              		.code	16
 604              		.thumb_func
 605              		.type	Updatealarm_check, %function
 606              	Updatealarm_check:
 607              	.LFB84:
 657:main.c        **** 
 658:main.c        **** //*************************************************************************************************
 659:main.c        **** // Function name	: Updatealarm_check
 660:main.c        **** // Description		: 重启检测
 661:main.c        **** // Parameter		: none
 662:main.c        **** // Return			: none
 663:main.c        **** //-------------------------------------------------------------------------------------------------
 664:main.c        **** // Info				: 查看是否升级记录 有，检查是否升级成功 若失败上报失败信息
 665:main.c        **** //*************************************************************************************************
 666:main.c        **** void Updatealarm_check(void)
 667:main.c        **** {
 608              		.loc 1 667 0
 609              		.cfi_startproc
 668:main.c        **** 	uint8 tmp[3] = {0};
 610              		.loc 1 668 0
 611 0000 0023     		mov	r3, #0
 667:main.c        **** 	uint8 tmp[3] = {0};
 612              		.loc 1 667 0
 613 0002 13B5     		push	{r0, r1, r4, lr}
 614              		.cfi_def_cfa_offset 16
 615              		.cfi_offset 0, -16
 616              		.cfi_offset 1, -12
 617              		.cfi_offset 4, -8
 618              		.cfi_offset 14, -4
 619              		.loc 1 668 0
 620 0004 01AC     		add	r4, sp, #4
 621 0006 2380     		strh	r3, [r4]
 622 0008 A370     		strb	r3, [r4, #2]
 623              	.LVL45:
 669:main.c        **** 	uint8 flag = 0;
 670:main.c        **** 	uint16 firmver;
 671:main.c        **** 	
ARM GAS  C:\Users\Administrator\AppData\Local\Temp\ccNLOfxN.s 			page 24


 672:main.c        **** 	if ((gprs_state == NORMAL_COMM)&&(update_report == 0))
 624              		.loc 1 672 0
 625 000a 134B     		ldr	r3, .L75
 626 000c 1B78     		ldrb	r3, [r3]
 627 000e 052B     		cmp	r3, #5
 628 0010 21D1     		bne	.L68
 629              		.loc 1 672 0 is_stmt 0 discriminator 1
 630 0012 124B     		ldr	r3, .L75+4
 631 0014 1A78     		ldrb	r2, [r3]
 632 0016 002A     		cmp	r2, #0
 633 0018 1DD1     		bne	.L68
 673:main.c        **** 	{
 674:main.c        **** 		DBG_SOFT_PutStr("\npolling update info:\n");
 675:main.c        **** 		update_report = 1;
 634              		.loc 1 675 0 is_stmt 1
 635 001a 0132     		add	r2, r2, #1
 636 001c 1A70     		strb	r2, [r3]
 676:main.c        **** 		W25QXX_Read((uint8 *)&tmp, UPDATE_SYSTEMVER, 3);
 637              		.loc 1 676 0
 638 001e 201C     		mov	r0, r4
 639 0020 0F49     		ldr	r1, .L75+8
 640 0022 0232     		add	r2, r2, #2
 641 0024 FFF7FEFF 		bl	W25QXX_Read
 642              	.LVL46:
 677:main.c        **** 		flag = tmp[2];
 678:main.c        **** 		DBG_SOFT_PrintfHex(tmp,3,16);
 679:main.c        **** 		if(flag == 1)
 643              		.loc 1 679 0
 644 0028 A378     		ldrb	r3, [r4, #2]
 645 002a 012B     		cmp	r3, #1
 646 002c 13D1     		bne	.L68
 680:main.c        **** 		{
 681:main.c        **** 			firmver = (tmp[0] <<8) | tmp[1];
 647              		.loc 1 681 0
 648 002e 2378     		ldrb	r3, [r4]
 649 0030 6278     		ldrb	r2, [r4, #1]
 650 0032 1B02     		lsl	r3, r3, #8
 651 0034 1343     		orr	r3, r2
 652              	.LVL47:
 653 0036 0B4A     		ldr	r2, .L75+12
 682:main.c        **** 			if(firmver == SYSTEM_VERSION)
 654              		.loc 1 682 0
 655 0038 0A2B     		cmp	r3, #10
 656 003a 01D1     		bne	.L72
 683:main.c        **** 			{
 684:main.c        **** 				//上报报警 升级ok信息
 685:main.c        **** 				EnterGuide_State = ALARM_UpdateOk;
 657              		.loc 1 685 0
 658 003c 013B     		sub	r3, r3, #1
 659              	.LVL48:
 660 003e 02E0     		b	.L74
 661              	.LVL49:
 662              	.L72:
 686:main.c        **** 			}
 687:main.c        **** 			else if(firmver > SYSTEM_VERSION)
 663              		.loc 1 687 0
 664 0040 0A2B     		cmp	r3, #10
ARM GAS  C:\Users\Administrator\AppData\Local\Temp\ccNLOfxN.s 			page 25


 665 0042 01D9     		bls	.L73
 688:main.c        **** 			{
 689:main.c        **** 				//上报报警 升级ERR信息
 690:main.c        **** 				EnterGuide_State = ALARM_UpdateErr;
 666              		.loc 1 690 0
 667 0044 0A23     		mov	r3, #10
 668              	.LVL50:
 669              	.L74:
 670 0046 1372     		strb	r3, [r2, #8]
 671              	.L73:
 691:main.c        **** 			
 692:main.c        **** 			}
 693:main.c        **** 			send_alarm_info(EnterGuide_State);						// 升级是否成功报警					//	
 672              		.loc 1 693 0
 673 0048 107A     		ldrb	r0, [r2, #8]
 674 004a FFF7FEFF 		bl	send_alarm_info
 675              	.LVL51:
 694:main.c        **** 			
 695:main.c        **** 			flag =  0;
 696:main.c        **** 			firmver = SYSTEM_VERSION;
 697:main.c        **** 			Write_UpdateInfo(flag, firmver);						// 清空 还原升级信息				//
 676              		.loc 1 697 0
 677 004e 0020     		mov	r0, #0
 678 0050 0A21     		mov	r1, #10
 679 0052 FFF7FEFF 		bl	Write_UpdateInfo
 680              	.LVL52:
 681              	.L68:
 698:main.c        **** 		}	
 699:main.c        ****  	}
 700:main.c        **** }
 682              		.loc 1 700 0
 683              		@ sp needed
 684 0056 13BD     		pop	{r0, r1, r4, pc}
 685              	.L76:
 686              		.align	2
 687              	.L75:
 688 0058 00000000 		.word	gprs_state
 689 005c 00000000 		.word	update_report
 690 0060 03910100 		.word	102659
 691 0064 00000000 		.word	.LANCHOR0
 692              		.cfi_endproc
 693              	.LFE84:
 694              		.size	Updatealarm_check, .-Updatealarm_check
 695              		.section	.text.CARD_Tick,"ax",%progbits
 696              		.align	1
 697              		.global	CARD_Tick
 698              		.code	16
 699              		.thumb_func
 700              		.type	CARD_Tick, %function
 701              	CARD_Tick:
 702              	.LFB87:
 701:main.c        **** 
 702:main.c        **** //*************************************************************************************************
 703:main.c        **** // Function name	: BLE_Tick
 704:main.c        **** // Description		: 蓝牙的处理
 705:main.c        **** // Parameter		: none
 706:main.c        **** // Return			: none
ARM GAS  C:\Users\Administrator\AppData\Local\Temp\ccNLOfxN.s 			page 26


 707:main.c        **** //-------------------------------------------------------------------------------------------------
 708:main.c        **** // Info				: 
 709:main.c        **** //*************************************************************************************************
 710:main.c        **** void BLE_Tick(void)
 711:main.c        **** {
 712:main.c        **** 	ble_heartbeat();
 713:main.c        **** 	if(CyBle_GetState() == CYBLE_STATE_CONNECTED)
 714:main.c        **** 	{
 715:main.c        **** 		if (BleCmdValidFlag == 1)
 716:main.c        ****         {					
 717:main.c        **** 			Protocol_CmdParse();
 718:main.c        **** 			BleCmdValidFlag = 0;
 719:main.c        **** 			DBG_PRINTF("BLE handle cmd done.\n");
 720:main.c        **** 		}
 721:main.c        **** 	}
 722:main.c        **** }
 723:main.c        **** 
 724:main.c        **** //*************************************************************************************************
 725:main.c        **** // Function name	: GPRS_Tick
 726:main.c        **** // Description		: GPRS的处理
 727:main.c        **** // Parameter		: none
 728:main.c        **** // Return			: none
 729:main.c        **** //-------------------------------------------------------------------------------------------------
 730:main.c        **** // Info				: 
 731:main.c        **** //*************************************************************************************************
 732:main.c        **** void GPRS_Tick(void)
 733:main.c        **** {
 734:main.c        **** 	uint8 ret;
 735:main.c        **** 	uint32 count = 0;
 736:main.c        **** 	
 737:main.c        **** 	if ((GPRSCmdParseFlag1 == 1) || (GPRSCmdParseFlag2 == 1))		// 服务器发出的命令					//
 738:main.c        **** 	{
 739:main.c        **** 		Protocol_CmdParse();
 740:main.c        **** 	}
 741:main.c        **** 	
 742:main.c        **** 	if (update_flag == 1)
 743:main.c        **** 	{
 744:main.c        **** 		update_flag = 0;
 745:main.c        **** 		gprs_state = NEED_UPDATE;									// 开始断开当前前置服务器连接		//
 746:main.c        **** 	}
 747:main.c        **** 	
 748:main.c        **** 	//--实时检测STATUS管脚状态，如果是关机状态 立即执行重启开机操作
 749:main.c        **** 	if (GPRS_STATE_Read() == 1)
 750:main.c        **** 	{	
 751:main.c        ****         #if 0
 752:main.c        **** 		GPRS_PWRKEY_Write(1);
 753:main.c        **** 		while ((GPRS_STATE_Read() == 0) && (count <= 30))
 754:main.c        **** 		{
 755:main.c        **** 			delay_with_ble(100);
 756:main.c        **** 			count++;
 757:main.c        **** 		}
 758:main.c        **** 		GPRS_PWRKEY_Write(0);
 759:main.c        **** 		#endif
 760:main.c        **** 		flag_reboot = 1;
 761:main.c        ****         Reboot_Check();
 762:main.c        **** 		
 763:main.c        **** 	}
ARM GAS  C:\Users\Administrator\AppData\Local\Temp\ccNLOfxN.s 			page 27


 764:main.c        **** 	//-------------------------------------------------------------
 765:main.c        **** 	
 766:main.c        **** 	cur_time = (uint32)RTC_GetUnixTime();
 767:main.c        **** 	if (gprs_state == INIT)
 768:main.c        **** 	{
 769:main.c        **** 		LED_State = RED;
 770:main.c        **** 		Led_SetState(LED_State);
 771:main.c        **** 		if (cur_time > next_gprs_operation_time)
 772:main.c        **** 		{
 773:main.c        **** 			if (gprs_operation_ErrCount >= gprs_resetCount)						// 中心服务器3次连不上，则复位
 774:main.c        **** 			{
 775:main.c        **** 				gprs_state = NEED_INIT;
 776:main.c        **** 			}
 777:main.c        **** 			else
 778:main.c        **** 			{
 779:main.c        **** 				next_gprs_operation_time = cur_time + 5;                        // 5s一次尝试连接服务
 780:main.c        **** 				gprs_operation_ErrCount++;
 781:main.c        **** 				ret = GPRS_ConnectCenterServer();
 782:main.c        **** 				if (ret == TRUE)
 783:main.c        **** 				{
 784:main.c        **** 					gprs_state = CEN_CONNECT;
 785:main.c        **** 					next_gprs_operation_time = cur_time;
 786:main.c        **** 					gprs_operation_ErrCount = 0;
 787:main.c        **** 				}
 788:main.c        **** 			}
 789:main.c        **** 		}
 790:main.c        **** 	}
 791:main.c        **** 	else if (gprs_state == CEN_CONNECT)
 792:main.c        **** 	{
 793:main.c        **** 		LED_State = RED;
 794:main.c        **** 		Led_SetState(LED_State);
 795:main.c        **** 		if (cur_time > next_gprs_operation_time)
 796:main.c        **** 		{
 797:main.c        **** 			if (gprs_operation_ErrCount > gprs_resetCount)
 798:main.c        **** 			{
 799:main.c        **** 				gprs_state = NEED_INIT;
 800:main.c        **** 			}
 801:main.c        **** 			else
 802:main.c        **** 			{
 803:main.c        **** 				next_gprs_operation_time = cur_time + 20;
 804:main.c        **** 				gprs_operation_ErrCount++;
 805:main.c        **** 				send_get_pre_service_ip();
 806:main.c        **** 			}
 807:main.c        **** 		}
 808:main.c        **** 	}
 809:main.c        **** 	else if (gprs_state == GET_PRE_IP)
 810:main.c        **** 	{
 811:main.c        **** 		LED_State = RED;
 812:main.c        **** 		Led_SetState(LED_State);
 813:main.c        **** 		if (cur_time > next_gprs_operation_time)
 814:main.c        **** 		{
 815:main.c        **** 			if (gprs_operation_ErrCount > gprs_resetCount)
 816:main.c        **** 			{
 817:main.c        **** 				gprs_state = NEED_INIT;
 818:main.c        **** 			}
 819:main.c        **** 			else
 820:main.c        **** 			{
ARM GAS  C:\Users\Administrator\AppData\Local\Temp\ccNLOfxN.s 			page 28


 821:main.c        **** 				next_gprs_operation_time = cur_time + 5;
 822:main.c        **** 				gprs_operation_ErrCount++;
 823:main.c        **** 				ret =  GPRS_ClosedConnect();
 824:main.c        **** 				if (ret == TRUE)
 825:main.c        **** 				{
 826:main.c        **** 					gprs_state = CEN_CLOSED;
 827:main.c        **** 					next_gprs_operation_time = cur_time;
 828:main.c        **** 					gprs_operation_ErrCount = 0;
 829:main.c        **** 				}
 830:main.c        **** 			}
 831:main.c        **** 		}
 832:main.c        **** 	}
 833:main.c        **** 	else if (gprs_state == CEN_CLOSED)
 834:main.c        **** 	{
 835:main.c        **** 		LED_State = RED;
 836:main.c        **** 		Led_SetState(LED_State);
 837:main.c        **** 		if (gprs_operation_ErrCount > 3)
 838:main.c        **** 		{
 839:main.c        **** 			gprs_state = INIT;
 840:main.c        **** 		}
 841:main.c        **** 		else if (cur_time > next_gprs_operation_time)
 842:main.c        **** 		{
 843:main.c        **** 			next_gprs_operation_time = cur_time + 5;
 844:main.c        **** 			gprs_operation_ErrCount++;
 845:main.c        **** 			ret = GPRS_ConnectPreServer();
 846:main.c        **** 			if (ret == TRUE)
 847:main.c        **** 			{
 848:main.c        **** 				gprs_state = PRE_CONNECT;
 849:main.c        **** 				next_gprs_operation_time = cur_time;
 850:main.c        **** 				gprs_operation_ErrCount = 0;
 851:main.c        **** 			}
 852:main.c        **** 		}
 853:main.c        **** 	}
 854:main.c        **** 	else if (gprs_state == PRE_CONNECT)
 855:main.c        **** 	{
 856:main.c        **** 		LED_State = RED;
 857:main.c        **** 		Led_SetState(LED_State);
 858:main.c        **** 		if (gprs_operation_ErrCount > 3)
 859:main.c        **** 		{
 860:main.c        **** 			gprs_state = INIT;
 861:main.c        **** 		}
 862:main.c        **** 		else if (cur_time > next_gprs_operation_time)
 863:main.c        **** 		{
 864:main.c        **** 			next_gprs_operation_time = cur_time + 20;
 865:main.c        **** 			gprs_operation_ErrCount++;
 866:main.c        ****             send_send_mac_and_get_blekey();
 867:main.c        ****             #if 0
 868:main.c        **** 			if (SendMacFlag == 0)
 869:main.c        **** 			{
 870:main.c        **** 				send_send_mac_and_get_blekey();
 871:main.c        **** 			}
 872:main.c        **** 			else
 873:main.c        **** 			{
 874:main.c        **** 				gprs_state = NORMAL_COMM;
 875:main.c        **** 			}
 876:main.c        ****             #endif
 877:main.c        **** 		}
ARM GAS  C:\Users\Administrator\AppData\Local\Temp\ccNLOfxN.s 			page 29


 878:main.c        **** 	}
 879:main.c        ****     #if 0
 880:main.c        **** 	else if (gprs_state == NORMAL_COMM)
 881:main.c        **** 	{
 882:main.c        **** 		LED_State = GREEN;
 883:main.c        **** 		Led_SetState(LED_State);
 884:main.c        **** 		if (cur_time > next_heartbeat_time)
 885:main.c        **** 		{
 886:main.c        **** 			EnterGuide_State = DoorClosed;
 887:main.c        **** 			send_heartbeat(EnterGuide_State);
 888:main.c        **** 			heartbeat_SendCount++;
 889:main.c        **** 			if (heartbeat_SendCount > 1)
 890:main.c        **** 			{
 891:main.c        **** 				gprs_state = NEED_INIT;
 892:main.c        **** 			}
 893:main.c        **** 			else
 894:main.c        **** 			{
 895:main.c        **** 				cur_time = (uint32)RTC_GetUnixTime();
 896:main.c        **** 				next_heartbeat_time = cur_time + 300;
 897:main.c        **** 			}
 898:main.c        **** 		}
 899:main.c        **** 		GPRS_CheckIfRecvClosed();									// 检查网络是否断开，并设置相关状态	//
 900:main.c        **** 	}
 901:main.c        ****     #endif
 902:main.c        ****     #if 1
 903:main.c        ****     else if (gprs_state == NORMAL_COMM)
 904:main.c        **** 	{
 905:main.c        **** 		LED_State = GREEN;
 906:main.c        **** 		Led_SetState(LED_State);
 907:main.c        ****         
 908:main.c        ****         if (cur_time > heartbeat_lasttime + 60)                 // 超过一分钟 检测一次回
 909:main.c        ****         {
 910:main.c        ****             if (heartbeat_SendCount > 0)                        // 没有回复
 911:main.c        ****             {               		                   
 912:main.c        ****                 EnterGuide_State = DoorClosed;	
 913:main.c        ****                 send_heartbeat(EnterGuide_State);
 914:main.c        ****                 heartbeat_SendCount++;
 915:main.c        ****                 cur_time = (uint32)RTC_GetUnixTime();
 916:main.c        ****                 heartbeat_lasttime = cur_time;
 917:main.c        ****                 next_heartbeat_time = cur_time + 300;
 918:main.c        ****                 if (heartbeat_SendCount > 3)
 919:main.c        ****     			{
 920:main.c        ****     				gprs_state = NEED_INIT;
 921:main.c        ****     			}
 922:main.c        ****             }
 923:main.c        ****                   
 924:main.c        ****     		if (cur_time > next_heartbeat_time)
 925:main.c        ****     		{
 926:main.c        ****     			EnterGuide_State = DoorClosed;
 927:main.c        ****                 send_heartbeat(EnterGuide_State);
 928:main.c        ****     			heartbeat_SendCount++;
 929:main.c        ****     			cur_time = (uint32)RTC_GetUnixTime();
 930:main.c        ****                 heartbeat_lasttime = cur_time;
 931:main.c        ****     			next_heartbeat_time = cur_time + 300;
 932:main.c        ****     		}
 933:main.c        ****             
 934:main.c        ****         }
ARM GAS  C:\Users\Administrator\AppData\Local\Temp\ccNLOfxN.s 			page 30


 935:main.c        **** 		GPRS_CheckIfRecvClosed();									// 检查网络是否断开，并设置相关状态	//
 936:main.c        **** 	}
 937:main.c        ****     #endif
 938:main.c        ****     
 939:main.c        **** 	else if (gprs_state == NEED_INIT)
 940:main.c        **** 	{
 941:main.c        **** 		LED_State = RED;
 942:main.c        **** 		Led_SetState(LED_State);
 943:main.c        **** 		GPRS_ClosedConnect();										// 重启各设备之前 关闭连接 释放资源
 944:main.c        ****         GPRSPowerDown();										    // 开 关机操作
 945:main.c        ****        
 946:main.c        ****         #if 0
 947:main.c        ****         reboot_count = Read_RebootType();
 948:main.c        ****         if ((reboot_count == 0xFF) || (reboot_count == 0x00))
 949:main.c        ****         {
 950:main.c        ****             GPRS_ClosedConnect();
 951:main.c        ****             ResetGPRS();
 952:main.c        ****             reboot_count = 1;
 953:main.c        ****         }
 954:main.c        ****         else if (reboot_count == 2)
 955:main.c        ****         {
 956:main.c        ****             GPRSPowerDown();										// 开 关机操作
 957:main.c        ****             reboot_count = 0;
 958:main.c        ****         }
 959:main.c        ****         else
 960:main.c        ****         {
 961:main.c        ****             
 962:main.c        ****             ResetGPRS();
 963:main.c        ****             reboot_count = 2;
 964:main.c        ****         }
 965:main.c        ****         Write_RebootType(reboot_count);
 966:main.c        ****         #endif
 967:main.c        ****         gprs_state = INIT;
 968:main.c        ****         flag_reboot = 1;
 969:main.c        ****         Reboot_Check();
 970:main.c        **** 	}
 971:main.c        ****     
 972:main.c        **** 	else if (gprs_state == NEED_UPDATE)
 973:main.c        **** 	{
 974:main.c        **** 		LED_State = RED;
 975:main.c        **** 		Led_SetState(LED_State);
 976:main.c        **** 		if (cur_time > next_gprs_operation_time)
 977:main.c        **** 		{
 978:main.c        **** 			if (gprs_operation_ErrCount > gprs_resetCount)
 979:main.c        **** 			{
 980:main.c        **** 				gprs_state = NEED_INIT;
 981:main.c        **** 			}
 982:main.c        **** 			else
 983:main.c        **** 			{
 984:main.c        **** 				next_gprs_operation_time = cur_time + 5;
 985:main.c        **** 				gprs_operation_ErrCount++;
 986:main.c        **** 				ret =  GPRS_ClosedConnect();
 987:main.c        **** 				if (ret == TRUE)
 988:main.c        **** 				{
 989:main.c        **** 					gprs_state = PRE_CLOSED;
 990:main.c        **** 					next_gprs_operation_time = cur_time;
 991:main.c        **** 					gprs_operation_ErrCount = 0;
ARM GAS  C:\Users\Administrator\AppData\Local\Temp\ccNLOfxN.s 			page 31


 992:main.c        **** 				}
 993:main.c        **** 			}
 994:main.c        **** 		}
 995:main.c        **** 	}
 996:main.c        **** 	else if (gprs_state == PRE_CLOSED)
 997:main.c        **** 	{
 998:main.c        **** 		LED_State = RED;
 999:main.c        **** 		Led_SetState(LED_State);
1000:main.c        **** 		if (gprs_operation_ErrCount > 3)
1001:main.c        **** 		{
1002:main.c        **** 			gprs_state = INIT;
1003:main.c        **** 		}
1004:main.c        **** 		else if (cur_time > next_gprs_operation_time)
1005:main.c        **** 		{
1006:main.c        **** 			next_gprs_operation_time = cur_time + 10;
1007:main.c        **** 			gprs_operation_ErrCount++;
1008:main.c        **** 			ret = GPRS_ConnectUpdateServer();
1009:main.c        **** 			if (ret == TRUE)
1010:main.c        **** 			{
1011:main.c        **** 				gprs_state = UPDATE_CONNECT;
1012:main.c        **** 				next_gprs_operation_time = cur_time;
1013:main.c        **** 				gprs_operation_ErrCount = 0;
1014:main.c        **** 			}
1015:main.c        **** 		}
1016:main.c        **** 	}
1017:main.c        **** 	else if (gprs_state == UPDATE_CONNECT)
1018:main.c        **** 	{
1019:main.c        **** 		LED_State = BLUE;
1020:main.c        **** 		Led_SetState(LED_State);
1021:main.c        **** 		Cmd_Protocol_ParaInit();
1022:main.c        **** 		update_page = 1;
1023:main.c        **** 		send_update_req(update_page);
1024:main.c        **** 		update_timeout_time = 20000;
1025:main.c        **** 		update_timeout_count = 0;
1026:main.c        **** 		gprs_state = WAIT_UPDATE;
1027:main.c        **** 	}
1028:main.c        **** 	else if (gprs_state == WAIT_UPDATE)
1029:main.c        **** 	{
1030:main.c        **** 		if (update_timeout_time == 0)
1031:main.c        **** 		{
1032:main.c        **** 			update_timeout_count++;
1033:main.c        **** 			if (update_timeout_count >= gprs_resetCount)
1034:main.c        **** 			{
1035:main.c        **** 				update_timeout_count = 0;
1036:main.c        **** 				GPRS_ClosedConnect();							// 下载升级包超时 关闭连接退出升级
1037:main.c        **** 				gprs_state = INIT;
1038:main.c        **** 			}
1039:main.c        **** 			else
1040:main.c        **** 			{
1041:main.c        **** 				Cmd_Protocol_ParaInit();
1042:main.c        **** 				send_update_req(update_page);
1043:main.c        **** 				update_timeout_time = 10000;
1044:main.c        **** 			}
1045:main.c        **** 		}
1046:main.c        **** 	}
1047:main.c        **** 	else if (gprs_state == UPDATE_FINISH)
1048:main.c        **** 	{
ARM GAS  C:\Users\Administrator\AppData\Local\Temp\ccNLOfxN.s 			page 32


1049:main.c        **** 		GPRS_ClosedConnect();									// 下载升级包超完成 关闭连接 释放资源
1050:main.c        **** 		stop_reboot = 0x01;
1051:main.c        **** 		Bootloadable_Load();
1052:main.c        **** 	}
1053:main.c        **** }
1054:main.c        **** 
1055:main.c        **** 
1056:main.c        **** //*************************************************************************************************
1057:main.c        **** // Function name	: CARD_Tick
1058:main.c        **** // Description		: 刷卡验证并处理
1059:main.c        **** // Parameter		: none
1060:main.c        **** // Return			: none
1061:main.c        **** //-------------------------------------------------------------------------------------------------
1062:main.c        **** // Info				: 
1063:main.c        **** //*************************************************************************************************
1064:main.c        **** #if card_test
1065:main.c        **** void CARD_Tick(void)
1066:main.c        **** {
1067:main.c        **** 	uint8 i;
1068:main.c        **** 	uint8 ret;
1069:main.c        **** 	uint8 card_id[8] = {0};
1070:main.c        **** 	uint8 arr_time[4];
1071:main.c        **** 	uint32 cur_time;
1072:main.c        **** 	user_info_t user_info;
1073:main.c        ****     open_door_t openInfo_card;
1074:main.c        **** 	uint8 ic_buf[64] = {0x01,0x02,0x03,0x04,0x05};
1075:main.c        **** 	
1076:main.c        **** 	uint8_t statues;
1077:main.c        ****     uint8_t picc_atqa[2];                                               
1078:main.c        ****     //static uint8_t picc_uid[15];                                        
1079:main.c        ****     //uint8_t picc_sak[3];                                                
1080:main.c        ****     uint8_t key[6]= {0xFF,0xFF,0xFF,0xFF,0xFF,0xFF};       				// 不同的卡是不是不一样   
1081:main.c        **** 	uint8_t key_b04[6]= {0xff,0xff,0xfe,0xef,0xfa,0xaf};       			// block4-5 的加密密钥
1082:main.c        ****     
1083:main.c        **** 	uint8_t blockAddr;
1084:main.c        ****     uint8_t blockData[16];
1085:main.c        ****     uint32_t rec_len;
1086:main.c        ****     uint8_t pupi[4];
1087:main.c        ****     uint8_t buff[12];
1088:main.c        **** 	
1089:main.c        **** 	
1090:main.c        **** 	//==if(RET_ERR == Read_nfc_card2(card_id))
1091:main.c        **** 	//==	return;
1092:main.c        **** 	
1093:main.c        **** 	FM175X_SoftReset( );  
1094:main.c        **** 	Set_Rf( 3 );                                                /* 打开双天线                  */
1095:main.c        **** 	Pcd_ConfigISOType( 0 );                                     /* ISO14443寄存器初始化        *
1096:main.c        **** 	statues = TypeA_CardActive( picc_atqa,picc_uid,picc_sak );  /* 激活A卡片                   */
1097:main.c        **** 	if ( statues == TRUE ) 
1098:main.c        **** 	{
1099:main.c        **** 		DBG_SOFT_PutStr("\nCardUID:");
1100:main.c        **** 		DBG_SOFT_PrintfHex(picc_uid,8,16);
1101:main.c        **** 		memcpy(card_id, picc_uid, 4);
1102:main.c        **** 
1103:main.c        **** 	}
1104:main.c        **** 	else 
1105:main.c        **** 	{
ARM GAS  C:\Users\Administrator\AppData\Local\Temp\ccNLOfxN.s 			page 33


1106:main.c        **** 		//DBG_SOFT_PutStr("No Card!\r\n");
1107:main.c        **** 		TypeA_Halt( 0 );  	 					 				/* 卡片睡眠 					*/
1108:main.c        **** 		return;
1109:main.c        **** 	}
1110:main.c        **** 	
1111:main.c        **** #if 0	
1112:main.c        **** 	for(i = 0; i < 16; i++)										// 先读取16扇区数据
1113:main.c        **** 	{
1114:main.c        **** 		// 先读0区块
1115:main.c        **** 		blockAddr = i;
1116:main.c        **** 		if((i >= 4)&&(i <= 7))
1117:main.c        **** 		{
1118:main.c        **** 			statues = Mifare_Auth(0x00,blockAddr>>2,key_b04,picc_uid);      /* 密钥认证                 
1119:main.c        **** 		}
1120:main.c        **** 		else
1121:main.c        **** 			statues = Mifare_Auth(0x00,blockAddr>>2,key,picc_uid);      	/* 密钥认证                    
1122:main.c        **** 		
1123:main.c        **** 		if(statues  == TRUE)
1124:main.c        **** 		{
1125:main.c        **** 			DBG_SOFT_PutStr("Auth OK!\r\n");
1126:main.c        **** 		}
1127:main.c        **** 		else
1128:main.c        **** 		{
1129:main.c        **** 			DBG_SOFT_PutStr("Auth Err!\r\n");
1130:main.c        **** 			return ;
1131:main.c        **** 		}	
1132:main.c        **** 		statues = Mifare_Blockread(blockAddr,blockData);            /* 读块               		   */
1133:main.c        **** 		if(statues  == TRUE)
1134:main.c        **** 		{
1135:main.c        **** 			DBG_SOFT_PutStr("Read OK @Block ");
1136:main.c        **** 			DBG_SOFT_PrintfHex(&blockAddr,1,16);
1137:main.c        **** 			DBG_SOFT_PrintfHex(blockData,16,16);
1138:main.c        **** 		}
1139:main.c        **** 		else
1140:main.c        **** 		{
1141:main.c        **** 			DBG_SOFT_PutStr("Read Err!\r\n");
1142:main.c        **** 			return ;
1143:main.c        **** 		}
1144:main.c        **** 		
1145:main.c        **** 		if(i == 0)
1146:main.c        **** 		{
1147:main.c        **** 			memcpy(card_id,blockData,4);
1148:main.c        **** 		}
1149:main.c        **** 	}	
1150:main.c        **** 
1151:main.c        **** 	if(1 == IsCardLegality(card_id))
1152:main.c        **** 	{
1153:main.c        **** 		DBG_SOFT_PutStr("IsCardLegality OK!\n");
1154:main.c        **** 	}
1155:main.c        **** 	else 
1156:main.c        **** 		DBG_SOFT_PutStr("IsCardLegality ERR!\n");
1157:main.c        **** 	
1158:main.c        **** 	TypeA_Halt( 0 );  	 					 					// 卡片睡眠 					
1159:main.c        **** #endif
1160:main.c        **** 	CardBlock_Rd(5,blockData);
1161:main.c        **** 	DBG_SOFT_PutStr("\nCardBlock_Rd data @ Block 5:\n");
1162:main.c        **** 	DBG_SOFT_PrintfHex(blockData,16,16);
ARM GAS  C:\Users\Administrator\AppData\Local\Temp\ccNLOfxN.s 			page 34


1163:main.c        **** 
1164:main.c        **** 	if(1 == IsCardLegality(card_id))
1165:main.c        **** 	{
1166:main.c        **** 		DBG_SOFT_PutStr("\nIsCardLegality ok!\n");				// 合法性验证
1167:main.c        **** 	}
1168:main.c        **** 	
1169:main.c        **** 	CardInfoUpdate();
1170:main.c        **** 	
1171:main.c        **** 
1172:main.c        **** 	#if 0
1173:main.c        **** 	blockAddr = 0x04;
1174:main.c        **** 	statues = Mifare_Blockwrite(blockAddr,blockData);			/* 写块	 				   */
1175:main.c        **** 	if(statues  == TRUE)
1176:main.c        **** 	{
1177:main.c        **** 		DBG_SOFT_PutStr("Write OK!\r\n");
1178:main.c        **** 	}
1179:main.c        **** 	else
1180:main.c        **** 	{
1181:main.c        **** 		DBG_SOFT_PutStr("Write Err!\r\n");
1182:main.c        **** 		return ;
1183:main.c        **** 	}
1184:main.c        **** 	#endif
1185:main.c        **** 	#if 0
1186:main.c        **** 	// 写完后 再读出来
1187:main.c        **** 	statues = Mifare_Blockread(blockAddr,blockData);            /* 再读块  01             		   */
1188:main.c        **** 	if(statues  == TRUE)
1189:main.c        **** 	{
1190:main.c        **** 		DBG_SOFT_PutStr("Read OK!\r\n");
1191:main.c        **** 		DBG_SOFT_PrintfHex(blockData,16,16);
1192:main.c        **** 	}
1193:main.c        **** 	else
1194:main.c        **** 	{
1195:main.c        **** 		DBG_SOFT_PutStr("Read Err!\r\n");
1196:main.c        **** 		return ;
1197:main.c        **** 	}
1198:main.c        **** 	#endif
1199:main.c        **** 	
1200:main.c        **** 	#if 0
1201:main.c        **** 	for(i = 0; i < 64; i++)
1202:main.c        **** 	{
1203:main.c        **** 		ic_buf[i]  = i;
1204:main.c        **** 	}
1205:main.c        **** 	if(TRUE == Mifare_Blockwrite(3,ic_buf))
1206:main.c        **** 	{
1207:main.c        **** 		DBG_SOFT_PutStr("\nWrite card Block OK!\n");
1208:main.c        **** 	}
1209:main.c        **** 	else
1210:main.c        **** 	{
1211:main.c        **** 		DBG_SOFT_PutStr("\nWrite card Block Failed!\n");
1212:main.c        **** 	}
1213:main.c        **** 	
1214:main.c        **** 	//如果读到卡 取出卡片的64个块的数据 打印
1215:main.c        **** 	for(i = 0; i < 64; i++)
1216:main.c        **** 	{
1217:main.c        **** 		if(TRUE == Mifare_Blockread(i, ic_buf))
1218:main.c        **** 		{
1219:main.c        **** 			#if DBG_SOFT_ENNABLE
ARM GAS  C:\Users\Administrator\AppData\Local\Temp\ccNLOfxN.s 			page 35


1220:main.c        **** 			//memset(cur_readuid, 0, 8);
1221:main.c        **** 			//memcpy(card_id,card_id,8);
1222:main.c        **** 			DBG_SOFT_PutStr("\nCur Read card Block @i =");
1223:main.c        **** 			DBG_SOFT_PrintfHex(&i,1,16);
1224:main.c        **** 			DBG_SOFT_PrintfHex(ic_buf,16,16);
1225:main.c        **** 			#endif	
1226:main.c        **** 		}
1227:main.c        **** 		else
1228:main.c        **** 		{
1229:main.c        **** 			DBG_SOFT_PutStr("\nRead card Block Failed!\n");
1230:main.c        **** 		}
1231:main.c        **** 	}
1232:main.c        **** 	#endif
1233:main.c        **** 	
1234:main.c        **** 	for (i = 0; i < 2; i++)
1235:main.c        **** 	{
1236:main.c        **** 	    Led_AllOff();
1237:main.c        **** 		delay_with_ble(100);
1238:main.c        **** 		Led_BlueON();
1239:main.c        **** 		delay_with_ble(100);
1240:main.c        **** 	}
1241:main.c        **** 	
1242:main.c        **** 	cur_time = (uint32)RTC_GetUnixTime();
1243:main.c        **** 	LONG2BYTE(cur_time, arr_time);
1244:main.c        **** 	memcpy(user_info.card_uid, card_id, CARD_UID_LEN);
1245:main.c        **** 	memcpy(user_info.valid_time, arr_time, 4);
1246:main.c        **** 	
1247:main.c        **** 	if (1 == UserData_Judge_If_Open(&user_info))
1248:main.c        **** 	{
1249:main.c        **** 		Led_GreenON();
1250:main.c        **** 		DoorOpen();
1251:main.c        **** 		VoicePlay((uint8)Sound_VERIFY_SUCCESS);
1252:main.c        **** 		
1253:main.c        **** 		memset(&openInfo_card, 0, sizeof(open_door_t));
1254:main.c        **** 		memcpy(openInfo_card.card_uid, card_id, CARD_UID_LEN);
1255:main.c        **** 		memcpy(openInfo_card.open_time, arr_time, 4);
1256:main.c        **** 		memset(arr_time, 0, 4);
1257:main.c        **** 		memcpy(openInfo_card.send_time, arr_time, 4);
1258:main.c        **** 		Write_OpenInfo(&openInfo_card, CARD_OPEN);
1259:main.c        **** 		
1260:main.c        **** 		if (gprs_state == NORMAL_COMM)
1261:main.c        **** 		{
1262:main.c        **** 			cur_time = (uint32)RTC_GetUnixTime();
1263:main.c        **** 			if(cur_time > next_allupload_time)
1264:main.c        **** 			{
1265:main.c        **** 				next_allupload_time = cur_time + 15;
1266:main.c        **** 				send_upload_open_info(&openInfo_card, CARD_UID_LEN, CARD_OPEN);				
1267:main.c        **** 			}						
1268:main.c        **** 		}
1269:main.c        **** 		
1270:main.c        **** 		DoorClose();
1271:main.c        **** 	}
1272:main.c        **** 	else
1273:main.c        **** 	{
1274:main.c        **** 		Card_ErrCount++;
1275:main.c        **** 		Led_RedON();
1276:main.c        **** 		VoicePlay(Sound_VERIFY_FAILURE);
ARM GAS  C:\Users\Administrator\AppData\Local\Temp\ccNLOfxN.s 			page 36


1277:main.c        **** 		delay_with_ble(800);
1278:main.c        **** 	}
1279:main.c        **** 	Led_SetState(LED_State);										// LED的状态切回刷卡前的状态		//
1280:main.c        **** 	
1281:main.c        **** Err_Check:
1282:main.c        **** 	if (Card_ErrCount >= 5)
1283:main.c        **** 	{
1284:main.c        **** 		Card_ErrCount = 0;
1285:main.c        **** 		if (gprs_state == NORMAL_COMM)
1286:main.c        **** 		{
1287:main.c        **** 			EnterGuide_State = ALARM_ErrOpenQty;
1288:main.c        **** 			send_alarm_info(EnterGuide_State);						// 开门错误5次报警					//
1289:main.c        **** 		}
1290:main.c        **** 	}
1291:main.c        **** }
1292:main.c        **** #endif
1293:main.c        **** 
1294:main.c        **** 
1295:main.c        **** #if card_scan //扫描scan
1296:main.c        **** //*************************************************************************************************
1297:main.c        **** // Function name	: CARD_Tick
1298:main.c        **** // Description		: 刷卡验证并处理
1299:main.c        **** // Parameter		: none
1300:main.c        **** // Return			: none
1301:main.c        **** //-------------------------------------------------------------------------------------------------
1302:main.c        **** // Info				: 
1303:main.c        **** //*************************************************************************************************
1304:main.c        **** void CARD_Tick(void)
1305:main.c        **** {
 703              		.loc 1 1305 0
 704              		.cfi_startproc
1306:main.c        **** 	uint8 i;
1307:main.c        **** 
1308:main.c        **** 	uint8 card_id[8] = {0};
 705              		.loc 1 1308 0
 706 0000 0023     		mov	r3, #0
1305:main.c        **** 	uint8 i;
 707              		.loc 1 1305 0
 708 0002 70B5     		push	{r4, r5, r6, lr}
 709              		.cfi_def_cfa_offset 16
 710              		.cfi_offset 4, -16
 711              		.cfi_offset 5, -12
 712              		.cfi_offset 6, -8
 713              		.cfi_offset 14, -4
 714 0004 8AB0     		sub	sp, sp, #40
 715              		.cfi_def_cfa_offset 56
 716              		.loc 1 1308 0
 717 0006 01AC     		add	r4, sp, #4
1309:main.c        **** 	uint8 arr_time[4];
1310:main.c        **** 	uint32 cur_time;
1311:main.c        **** 	user_info_t user_info;
1312:main.c        ****     open_door_t openInfo_card;
1313:main.c        **** 	
1314:main.c        **** 	
1315:main.c        **** 	if(0 == CardScan(card_id))							// 先读A卡
 718              		.loc 1 1315 0
 719 0008 201C     		mov	r0, r4
ARM GAS  C:\Users\Administrator\AppData\Local\Temp\ccNLOfxN.s 			page 37


1308:main.c        **** 	uint8 arr_time[4];
 720              		.loc 1 1308 0
 721 000a 0193     		str	r3, [sp, #4]
 722 000c 6360     		str	r3, [r4, #4]
 723              		.loc 1 1315 0
 724 000e FFF7FEFF 		bl	CardScan
 725              	.LVL53:
 726 0012 0028     		cmp	r0, #0
 727 0014 2AD0     		beq	.L78
 728              	.L82:
 729              	.LVL54:
1316:main.c        **** 	{
1317:main.c        **** 		if(0 == nfc_detect_type_b(card_id, 8))			// 未读到 再读B卡
1318:main.c        **** 		{
1319:main.c        **** 			return ;
1320:main.c        **** 		}	
1321:main.c        **** 	}
1322:main.c        **** 	
1323:main.c        **** 	for (i = 0; i < 2; i++)
1324:main.c        **** 	{
1325:main.c        **** 	    Led_AllOff();
 730              		.loc 1 1325 0
 731 0016 FFF7FEFF 		bl	Led_AllOff
 732              	.LVL55:
1326:main.c        **** 		delay_with_ble(100);
 733              		.loc 1 1326 0
 734 001a 6420     		mov	r0, #100
 735 001c FFF7FEFF 		bl	delay_with_ble
 736              	.LVL56:
1327:main.c        **** 		Led_BlueON();
 737              		.loc 1 1327 0
 738 0020 FFF7FEFF 		bl	Led_BlueON
 739              	.LVL57:
1328:main.c        **** 		delay_with_ble(100);
 740              		.loc 1 1328 0
 741 0024 6420     		mov	r0, #100
 742 0026 FFF7FEFF 		bl	delay_with_ble
 743              	.LVL58:
1325:main.c        **** 		delay_with_ble(100);
 744              		.loc 1 1325 0
 745 002a FFF7FEFF 		bl	Led_AllOff
 746              	.LVL59:
1326:main.c        **** 		Led_BlueON();
 747              		.loc 1 1326 0
 748 002e 6420     		mov	r0, #100
 749 0030 FFF7FEFF 		bl	delay_with_ble
 750              	.LVL60:
1327:main.c        **** 		delay_with_ble(100);
 751              		.loc 1 1327 0
 752 0034 FFF7FEFF 		bl	Led_BlueON
 753              	.LVL61:
 754              		.loc 1 1328 0
 755 0038 6420     		mov	r0, #100
 756 003a FFF7FEFF 		bl	delay_with_ble
 757              	.LVL62:
1329:main.c        **** 	}
1330:main.c        **** 
ARM GAS  C:\Users\Administrator\AppData\Local\Temp\ccNLOfxN.s 			page 38


1331:main.c        **** 	DBG_SOFT_PutStr("\nGet Card UID:");	
1332:main.c        **** 	DBG_SOFT_PrintfHex(card_id,8,16);
1333:main.c        **** 	
1334:main.c        **** 	cur_time = (uint32)RTC_GetUnixTime();
 758              		.loc 1 1334 0
 759 003e FFF7FEFF 		bl	RTC_GetUnixTime
 760              	.LVL63:
1335:main.c        **** 	LONG2BYTE(cur_time, arr_time);
 761              		.loc 1 1335 0
 762 0042 6A46     		mov	r2, sp
 763 0044 030E     		lsr	r3, r0, #24
 764 0046 1370     		strb	r3, [r2]
 765 0048 030C     		lsr	r3, r0, #16
 766 004a D070     		strb	r0, [r2, #3]
 767 004c 5370     		strb	r3, [r2, #1]
 768 004e 030A     		lsr	r3, r0, #8
1336:main.c        **** 	memcpy(user_info.card_uid, card_id, CARD_UID_LEN);
 769              		.loc 1 1336 0
 770 0050 03A8     		add	r0, sp, #12
 771              	.LVL64:
1335:main.c        **** 	LONG2BYTE(cur_time, arr_time);
 772              		.loc 1 1335 0
 773 0052 9370     		strb	r3, [r2, #2]
 774              		.loc 1 1336 0
 775 0054 031C     		mov	r3, r0
 776 0056 221C     		mov	r2, r4
 777 0058 22CA     		ldmia	r2!, {r1, r5}
 778 005a 22C3     		stmia	r3!, {r1, r5}
1337:main.c        **** 	memcpy(user_info.valid_time, arr_time, 4);
 779              		.loc 1 1337 0
 780 005c 009B     		ldr	r3, [sp]
 781 005e 8360     		str	r3, [r0, #8]
1338:main.c        **** 	
1339:main.c        **** 	if (1 == UserData_Judge_If_Open(&user_info))
 782              		.loc 1 1339 0
 783 0060 FFF7FEFF 		bl	UserData_Judge_If_Open
 784              	.LVL65:
 785 0064 2A4E     		ldr	r6, .L96
 786 0066 0128     		cmp	r0, #1
 787 0068 33D1     		bne	.L94
 788 006a 06E0     		b	.L95
 789              	.LVL66:
 790              	.L78:
1317:main.c        **** 		{
 791              		.loc 1 1317 0
 792 006c 201C     		mov	r0, r4
 793 006e 0821     		mov	r1, #8
 794 0070 FFF7FEFF 		bl	nfc_detect_type_b
 795              	.LVL67:
 796 0074 0028     		cmp	r0, #0
 797 0076 49D0     		beq	.L77
 798 0078 CDE7     		b	.L82
 799              	.LVL68:
 800              	.L95:
1340:main.c        **** 	{
1341:main.c        **** 		Led_GreenON();
 801              		.loc 1 1341 0
ARM GAS  C:\Users\Administrator\AppData\Local\Temp\ccNLOfxN.s 			page 39


 802 007a FFF7FEFF 		bl	Led_GreenON
 803              	.LVL69:
1342:main.c        **** 		DoorOpen();
1343:main.c        **** 		VoicePlay((uint8)Sound_VERIFY_SUCCESS);
1344:main.c        **** 		
1345:main.c        **** 		memset(&openInfo_card, 0, sizeof(open_door_t));
 804              		.loc 1 1345 0
 805 007e 06AD     		add	r5, sp, #24
1342:main.c        **** 		DoorOpen();
 806              		.loc 1 1342 0
 807 0080 FFF7FEFF 		bl	DoorOpen
 808              	.LVL70:
1343:main.c        **** 		
 809              		.loc 1 1343 0
 810 0084 0A20     		mov	r0, #10
 811 0086 FFF7FEFF 		bl	VoicePlay
 812              	.LVL71:
 813              		.loc 1 1345 0
 814 008a 0021     		mov	r1, #0
 815 008c 1022     		mov	r2, #16
 816 008e 281C     		mov	r0, r5
 817 0090 FFF7FEFF 		bl	memset
 818              	.LVL72:
1346:main.c        **** 		memcpy(openInfo_card.card_uid, card_id, CARD_UID_LEN);
 819              		.loc 1 1346 0
 820 0094 2B1C     		mov	r3, r5
 821 0096 06CC     		ldmia	r4!, {r1, r2}
 822 0098 06C3     		stmia	r3!, {r1, r2}
1347:main.c        **** 		memcpy(openInfo_card.open_time, arr_time, 4);
 823              		.loc 1 1347 0
 824 009a 009B     		ldr	r3, [sp]
1348:main.c        **** 		memset(arr_time, 0, 4);
1349:main.c        **** 		memcpy(openInfo_card.send_time, arr_time, 4);
1350:main.c        **** 		Write_OpenInfo(&openInfo_card, CARD_OPEN);
 825              		.loc 1 1350 0
 826 009c 281C     		mov	r0, r5
1347:main.c        **** 		memcpy(openInfo_card.open_time, arr_time, 4);
 827              		.loc 1 1347 0
 828 009e AB60     		str	r3, [r5, #8]
1348:main.c        **** 		memset(arr_time, 0, 4);
 829              		.loc 1 1348 0
 830 00a0 0023     		mov	r3, #0
 831              		.loc 1 1350 0
 832 00a2 0721     		mov	r1, #7
1348:main.c        **** 		memset(arr_time, 0, 4);
 833              		.loc 1 1348 0
 834 00a4 0093     		str	r3, [sp]
 835              		.loc 1 1350 0
 836 00a6 FFF7FEFF 		bl	Write_OpenInfo
 837              	.LVL73:
1351:main.c        **** 		
1352:main.c        **** 		if (gprs_state == NORMAL_COMM)
 838              		.loc 1 1352 0
 839 00aa 1A4B     		ldr	r3, .L96+4
 840 00ac 1B78     		ldrb	r3, [r3]
 841 00ae 052B     		cmp	r3, #5
 842 00b0 0CD1     		bne	.L84
ARM GAS  C:\Users\Administrator\AppData\Local\Temp\ccNLOfxN.s 			page 40


1353:main.c        **** 		{
1354:main.c        **** 			cur_time = (uint32)RTC_GetUnixTime();
 843              		.loc 1 1354 0
 844 00b2 FFF7FEFF 		bl	RTC_GetUnixTime
 845              	.LVL74:
1355:main.c        **** 			if(cur_time > next_allupload_time)
 846              		.loc 1 1355 0
 847 00b6 184B     		ldr	r3, .L96+8
 848 00b8 1A68     		ldr	r2, [r3]
 849 00ba 9042     		cmp	r0, r2
 850 00bc 06D9     		bls	.L84
1356:main.c        **** 			{
1357:main.c        **** 				next_allupload_time = cur_time + 15;
 851              		.loc 1 1357 0
 852 00be 0F30     		add	r0, r0, #15
 853              	.LVL75:
 854 00c0 1860     		str	r0, [r3]
1358:main.c        **** 				send_upload_open_info(&openInfo_card, CARD_UID_LEN, CARD_OPEN);				
 855              		.loc 1 1358 0
 856 00c2 0821     		mov	r1, #8
 857 00c4 281C     		mov	r0, r5
 858              	.LVL76:
 859 00c6 0722     		mov	r2, #7
 860 00c8 FFF7FEFF 		bl	send_upload_open_info
 861              	.LVL77:
 862              	.L84:
1359:main.c        **** 			}						
1360:main.c        **** 		}
1361:main.c        **** 		
1362:main.c        **** 		DoorClose();
 863              		.loc 1 1362 0
 864 00cc FFF7FEFF 		bl	DoorClose
 865              	.LVL78:
 866 00d0 0BE0     		b	.L86
 867              	.L94:
1363:main.c        **** 	}
1364:main.c        **** 	else
1365:main.c        **** 	{
1366:main.c        **** 		Card_ErrCount++;
 868              		.loc 1 1366 0
 869 00d2 3378     		ldrb	r3, [r6]
 870 00d4 0133     		add	r3, r3, #1
 871 00d6 3370     		strb	r3, [r6]
1367:main.c        **** 		Led_RedON();
 872              		.loc 1 1367 0
 873 00d8 FFF7FEFF 		bl	Led_RedON
 874              	.LVL79:
1368:main.c        **** 		VoicePlay(Sound_VERIFY_FAILURE);
 875              		.loc 1 1368 0
 876 00dc 0B20     		mov	r0, #11
 877 00de FFF7FEFF 		bl	VoicePlay
 878              	.LVL80:
1369:main.c        **** 		delay_with_ble(800);
 879              		.loc 1 1369 0
 880 00e2 C820     		mov	r0, #200
 881 00e4 8000     		lsl	r0, r0, #2
 882 00e6 FFF7FEFF 		bl	delay_with_ble
ARM GAS  C:\Users\Administrator\AppData\Local\Temp\ccNLOfxN.s 			page 41


 883              	.LVL81:
 884              	.L86:
1370:main.c        **** 	}
1371:main.c        **** 	Led_SetState(LED_State);										// LED的状态切回刷卡前的状态		//
 885              		.loc 1 1371 0
 886 00ea 0C4C     		ldr	r4, .L96+12
 887 00ec 607A     		ldrb	r0, [r4, #9]
 888 00ee FFF7FEFF 		bl	Led_SetState
 889              	.LVL82:
 890              	.LDL1:
1372:main.c        **** 	
1373:main.c        **** Err_Check:
1374:main.c        **** 	if (Card_ErrCount >= 5)
 891              		.loc 1 1374 0
 892 00f2 3378     		ldrb	r3, [r6]
 893 00f4 042B     		cmp	r3, #4
 894 00f6 09D9     		bls	.L77
1375:main.c        **** 	{
1376:main.c        **** 		Card_ErrCount = 0;
 895              		.loc 1 1376 0
 896 00f8 0023     		mov	r3, #0
 897 00fa 3370     		strb	r3, [r6]
1377:main.c        **** 		if (gprs_state == NORMAL_COMM)
 898              		.loc 1 1377 0
 899 00fc 054B     		ldr	r3, .L96+4
 900 00fe 1B78     		ldrb	r3, [r3]
 901 0100 052B     		cmp	r3, #5
 902 0102 03D1     		bne	.L77
1378:main.c        **** 		{
1379:main.c        **** 			EnterGuide_State = ALARM_ErrOpenQty;
 903              		.loc 1 1379 0
 904 0104 0320     		mov	r0, #3
 905 0106 2072     		strb	r0, [r4, #8]
1380:main.c        **** 			send_alarm_info(EnterGuide_State);						// 开门错误5次报警					//
 906              		.loc 1 1380 0
 907 0108 FFF7FEFF 		bl	send_alarm_info
 908              	.LVL83:
 909              	.L77:
1381:main.c        **** 		}
1382:main.c        **** 	}
1383:main.c        **** 	
1384:main.c        **** }
 910              		.loc 1 1384 0
 911 010c 0AB0     		add	sp, sp, #40
 912              		@ sp needed
 913 010e 70BD     		pop	{r4, r5, r6, pc}
 914              	.L97:
 915              		.align	2
 916              	.L96:
 917 0110 00000000 		.word	Card_ErrCount
 918 0114 00000000 		.word	gprs_state
 919 0118 00000000 		.word	next_allupload_time
 920 011c 00000000 		.word	.LANCHOR0
 921              		.cfi_endproc
 922              	.LFE87:
 923              		.size	CARD_Tick, .-CARD_Tick
 924              		.section	.text.ble_heartbeat,"ax",%progbits
ARM GAS  C:\Users\Administrator\AppData\Local\Temp\ccNLOfxN.s 			page 42


 925              		.align	1
 926              		.global	ble_heartbeat
 927              		.code	16
 928              		.thumb_func
 929              		.type	ble_heartbeat, %function
 930              	ble_heartbeat:
 931              	.LFB65:
 265:main.c        ****     uint16 i;
 932              		.loc 1 265 0
 933              		.cfi_startproc
 934 0000 10B5     		push	{r4, lr}
 935              		.cfi_def_cfa_offset 8
 936              		.cfi_offset 4, -8
 937              		.cfi_offset 14, -4
 268:main.c        ****     for (i = 0; i < 50; i++)
 938              		.loc 1 268 0
 939 0002 FFF7FEFF 		bl	WDT_FeedDog
 940              	.LVL84:
 941 0006 3224     		mov	r4, #50
 942              	.LVL85:
 943              	.L99:
 944 0008 013C     		sub	r4, r4, #1
 945              	.LVL86:
 946 000a A4B2     		uxth	r4, r4
 271:main.c        **** 	}
 947              		.loc 1 271 0 discriminator 3
 948 000c FFF7FEFF 		bl	CyBle_ProcessEvents
 949              	.LVL87:
 269:main.c        ****     {
 950              		.loc 1 269 0 discriminator 3
 951 0010 002C     		cmp	r4, #0
 952 0012 F9D1     		bne	.L99
 275:main.c        ****     {
 953              		.loc 1 275 0
 954 0014 0B4B     		ldr	r3, .L105
 955 0016 1B78     		ldrb	r3, [r3]
 956 0018 012B     		cmp	r3, #1
 957 001a 01D1     		bne	.L100
 277:main.c        ****     }
 958              		.loc 1 277 0
 959 001c FFF7FEFF 		bl	Protocol_CmdParse_BLE
 960              	.LVL88:
 961              	.L100:
 281:main.c        ****         (gprs_state != WAIT_UPDATE) && (gprs_state != UPDATE_FINISH))
 962              		.loc 1 281 0
 963 0020 094B     		ldr	r3, .L105+4
 964 0022 1B78     		ldrb	r3, [r3]
 965 0024 052B     		cmp	r3, #5
 966 0026 0CD0     		beq	.L98
 281:main.c        ****         (gprs_state != WAIT_UPDATE) && (gprs_state != UPDATE_FINISH))
 967              		.loc 1 281 0 is_stmt 0 discriminator 1
 968 0028 093B     		sub	r3, r3, #9
 969 002a 022B     		cmp	r3, #2
 970 002c 09D9     		bls	.L98
 971              	.LBB12:
 972              	.LBB13:
 284:main.c        ****         {
ARM GAS  C:\Users\Administrator\AppData\Local\Temp\ccNLOfxN.s 			page 43


 973              		.loc 1 284 0 is_stmt 1
 974 002e FA22     		mov	r2, #250
 975 0030 064B     		ldr	r3, .L105+8
 976 0032 9200     		lsl	r2, r2, #2
 977 0034 1968     		ldr	r1, [r3]
 978 0036 9142     		cmp	r1, r2
 979 0038 03D9     		bls	.L98
 286:main.c        ****             CARD_Tick();
 980              		.loc 1 286 0
 981 003a 0022     		mov	r2, #0
 982 003c 1A60     		str	r2, [r3]
 287:main.c        ****         }
 983              		.loc 1 287 0
 984 003e FFF7FEFF 		bl	CARD_Tick
 985              	.LVL89:
 986              	.L98:
 987              	.LBE13:
 988              	.LBE12:
 290:main.c        **** 
 989              		.loc 1 290 0
 990              		@ sp needed
 991 0042 10BD     		pop	{r4, pc}
 992              	.L106:
 993              		.align	2
 994              	.L105:
 995 0044 00000000 		.word	BleCmdValidFlag
 996 0048 00000000 		.word	gprs_state
 997 004c 00000000 		.word	.LANCHOR0
 998              		.cfi_endproc
 999              	.LFE65:
 1000              		.size	ble_heartbeat, .-ble_heartbeat
 1001              		.global	__aeabi_uidiv
 1002              		.section	.text.delay_with_ble,"ax",%progbits
 1003              		.align	1
 1004              		.global	delay_with_ble
 1005              		.code	16
 1006              		.thumb_func
 1007              		.type	delay_with_ble, %function
 1008              	delay_with_ble:
 1009              	.LFB66:
 301:main.c        **** 	uint32 loop = 0;
 1010              		.loc 1 301 0
 1011              		.cfi_startproc
 1012              	.LVL90:
 1013 0000 38B5     		push	{r3, r4, r5, lr}
 1014              		.cfi_def_cfa_offset 16
 1015              		.cfi_offset 3, -16
 1016              		.cfi_offset 4, -12
 1017              		.cfi_offset 5, -8
 1018              		.cfi_offset 14, -4
 303:main.c        **** 	{
 1019              		.loc 1 303 0
 1020 0002 0521     		mov	r1, #5
 1021 0004 FFF7FEFF 		bl	__aeabi_uidiv
 1022              	.LVL91:
 1023 0008 0024     		mov	r4, #0
 1024 000a 051C     		mov	r5, r0
ARM GAS  C:\Users\Administrator\AppData\Local\Temp\ccNLOfxN.s 			page 44


 1025              	.LVL92:
 1026              	.L108:
 303:main.c        **** 	{
 1027              		.loc 1 303 0 is_stmt 0 discriminator 1
 1028 000c AC42     		cmp	r4, r5
 1029 000e 06D0     		beq	.L110
 305:main.c        **** 		ble_heartbeat();
 1030              		.loc 1 305 0 is_stmt 1 discriminator 3
 1031 0010 0520     		mov	r0, #5
 1032 0012 FFF7FEFF 		bl	CyDelay
 1033              	.LVL93:
 303:main.c        **** 	{
 1034              		.loc 1 303 0 discriminator 3
 1035 0016 0134     		add	r4, r4, #1
 1036              	.LVL94:
 306:main.c        **** 	}
 1037              		.loc 1 306 0 discriminator 3
 1038 0018 FFF7FEFF 		bl	ble_heartbeat
 1039              	.LVL95:
 1040 001c F6E7     		b	.L108
 1041              	.L110:
 308:main.c        **** 
 1042              		.loc 1 308 0
 1043              		@ sp needed
 1044              	.LVL96:
 1045 001e 38BD     		pop	{r3, r4, r5, pc}
 1046              		.cfi_endproc
 1047              	.LFE66:
 1048              		.size	delay_with_ble, .-delay_with_ble
 1049              		.section	.text.GPRS_SetON,"ax",%progbits
 1050              		.align	1
 1051              		.global	GPRS_SetON
 1052              		.code	16
 1053              		.thumb_func
 1054              		.type	GPRS_SetON, %function
 1055              	GPRS_SetON:
 1056              	.LFB74:
 430:main.c        **** 	uint16 count = 0;
 1057              		.loc 1 430 0
 1058              		.cfi_startproc
 1059              	.LVL97:
 1060 0000 10B5     		push	{r4, lr}
 1061              		.cfi_def_cfa_offset 8
 1062              		.cfi_offset 4, -8
 1063              		.cfi_offset 14, -4
 433:main.c        **** 	{	// 如果是关机状态 执行开机
 1064              		.loc 1 433 0
 1065 0002 FFF7FEFF 		bl	GPRS_STATE_Read
 1066              	.LVL98:
 1067 0006 041E     		sub	r4, r0, #0
 1068 0008 012C     		cmp	r4, #1
 1069 000a 15D1     		bne	.L111
 1070              	.LBB16:
 1071              	.LBB17:
 435:main.c        **** 		GPRS_PWRKEY_Write(1);
 1072              		.loc 1 435 0
 1073 000c 1E20     		mov	r0, #30
ARM GAS  C:\Users\Administrator\AppData\Local\Temp\ccNLOfxN.s 			page 45


 1074 000e FFF7FEFF 		bl	CyDelay
 1075              	.LVL99:
 436:main.c        **** 		while ((GPRS_STATE_Read() == 1) && (count <= 30))
 1076              		.loc 1 436 0
 1077 0012 201C     		mov	r0, r4
 1078 0014 FFF7FEFF 		bl	GPRS_PWRKEY_Write
 1079              	.LVL100:
 1080 0018 1F34     		add	r4, r4, #31
 1081              	.L113:
 1082              	.LVL101:
 437:main.c        **** 		{
 1083              		.loc 1 437 0
 1084 001a FFF7FEFF 		bl	GPRS_STATE_Read
 1085              	.LVL102:
 1086 001e 0128     		cmp	r0, #1
 1087 0020 07D1     		bne	.L114
 1088 0022 013C     		sub	r4, r4, #1
 1089              	.LVL103:
 1090 0024 A4B2     		uxth	r4, r4
 1091 0026 002C     		cmp	r4, #0
 1092 0028 03D0     		beq	.L114
 439:main.c        **** 			count++;
 1093              		.loc 1 439 0
 1094 002a 6420     		mov	r0, #100
 1095 002c FFF7FEFF 		bl	delay_with_ble
 1096              	.LVL104:
 1097 0030 F3E7     		b	.L113
 1098              	.LVL105:
 1099              	.L114:
 442:main.c        **** 	}
 1100              		.loc 1 442 0
 1101 0032 0020     		mov	r0, #0
 1102 0034 FFF7FEFF 		bl	GPRS_PWRKEY_Write
 1103              	.LVL106:
 1104              	.L111:
 1105              	.LBE17:
 1106              	.LBE16:
 444:main.c        **** 
 1107              		.loc 1 444 0
 1108              		@ sp needed
 1109 0038 10BD     		pop	{r4, pc}
 1110              		.cfi_endproc
 1111              	.LFE74:
 1112              		.size	GPRS_SetON, .-GPRS_SetON
 1113              		.section	.text.GPRSPowerOn,"ax",%progbits
 1114              		.align	1
 1115              		.global	GPRSPowerOn
 1116              		.code	16
 1117              		.thumb_func
 1118              		.type	GPRSPowerOn, %function
 1119              	GPRSPowerOn:
 1120              	.LFB75:
 455:main.c        **** 	uint8 count = 0;
 1121              		.loc 1 455 0
 1122              		.cfi_startproc
 1123              	.LVL107:
 1124 0000 10B5     		push	{r4, lr}
ARM GAS  C:\Users\Administrator\AppData\Local\Temp\ccNLOfxN.s 			page 46


 1125              		.cfi_def_cfa_offset 8
 1126              		.cfi_offset 4, -8
 1127              		.cfi_offset 14, -4
 458:main.c        **** 	{	// 如果是关机状态
 1128              		.loc 1 458 0
 1129 0002 FFF7FEFF 		bl	GPRS_STATE_Read
 1130              	.LVL108:
 1131 0006 041E     		sub	r4, r0, #0
 1132 0008 012C     		cmp	r4, #1
 1133 000a 3ED1     		bne	.L116
 460:main.c        **** 		GPRS_PWRKEY_Write(1);
 1134              		.loc 1 460 0
 1135 000c 1E20     		mov	r0, #30
 1136 000e FFF7FEFF 		bl	CyDelay
 1137              	.LVL109:
 461:main.c        **** 		while ((GPRS_STATE_Read() == 1) && (count <= 30))
 1138              		.loc 1 461 0
 1139 0012 201C     		mov	r0, r4
 1140 0014 FFF7FEFF 		bl	GPRS_PWRKEY_Write
 1141              	.LVL110:
 462:main.c        **** 		{
 1142              		.loc 1 462 0
 1143 0018 1F34     		add	r4, r4, #31
 1144              	.LVL111:
 1145              	.L118:
 1146 001a FFF7FEFF 		bl	GPRS_STATE_Read
 1147              	.LVL112:
 1148 001e 0128     		cmp	r0, #1
 1149 0020 07D1     		bne	.L119
 1150 0022 013C     		sub	r4, r4, #1
 1151              	.LVL113:
 1152 0024 E4B2     		uxtb	r4, r4
 462:main.c        **** 		{
 1153              		.loc 1 462 0 is_stmt 0 discriminator 1
 1154 0026 002C     		cmp	r4, #0
 1155 0028 03D0     		beq	.L119
 464:main.c        **** 			count++;
 1156              		.loc 1 464 0 is_stmt 1
 1157 002a 6420     		mov	r0, #100
 1158 002c FFF7FEFF 		bl	delay_with_ble
 1159              	.LVL114:
 1160 0030 F3E7     		b	.L118
 1161              	.LVL115:
 1162              	.L119:
 467:main.c        **** 		GPRS_WaitInitFinish();
 1163              		.loc 1 467 0
 1164 0032 0020     		mov	r0, #0
 1165 0034 FFF7FEFF 		bl	GPRS_PWRKEY_Write
 1166              	.LVL116:
 468:main.c        **** 		delay_with_ble(3000);						// 等待3s
 1167              		.loc 1 468 0
 1168 0038 FFF7FEFF 		bl	GPRS_WaitInitFinish
 1169              	.LVL117:
 469:main.c        **** 		
 1170              		.loc 1 469 0
 1171 003c 1348     		ldr	r0, .L125
 1172 003e FFF7FEFF 		bl	delay_with_ble
ARM GAS  C:\Users\Administrator\AppData\Local\Temp\ccNLOfxN.s 			page 47


 1173              	.LVL118:
 471:main.c        **** 		delay_with_ble(4000);						// 等待网络注册 连接
 1174              		.loc 1 471 0
 1175 0042 FFF7FEFF 		bl	GPRS_QuerySimCard
 1176              	.LVL119:
 472:main.c        **** 		wait_timeout = 30000;						// 等待超时 30s
 1177              		.loc 1 472 0
 1178 0046 FA20     		mov	r0, #250
 1179 0048 0001     		lsl	r0, r0, #4
 1180 004a FFF7FEFF 		bl	delay_with_ble
 1181              	.LVL120:
 473:main.c        **** 		while(wait_timeout > 0)
 1182              		.loc 1 473 0
 1183 004e 104B     		ldr	r3, .L125+4
 1184 0050 104A     		ldr	r2, .L125+8
 1185 0052 1C1C     		mov	r4, r3
 1186 0054 1A60     		str	r2, [r3]
 1187              	.L121:
 474:main.c        **** 		{
 1188              		.loc 1 474 0
 1189 0056 2368     		ldr	r3, [r4]
 1190 0058 002B     		cmp	r3, #0
 1191 005a 03D0     		beq	.L124
 476:main.c        **** 			{
 1192              		.loc 1 476 0
 1193 005c FFF7FEFF 		bl	GPRS_QueryCREG
 1194              	.LVL121:
 1195 0060 0128     		cmp	r0, #1
 1196 0062 0ED1     		bne	.L122
 1197              	.L124:
 485:main.c        **** 		if(0 == GPRS_QueryRssi())					// 查询信号情况 AT+CSQ 不查没关系，除非是排除0 
 1198              		.loc 1 485 0
 1199 0064 FA20     		mov	r0, #250
 1200 0066 4000     		lsl	r0, r0, #1
 1201 0068 FFF7FEFF 		bl	delay_with_ble
 1202              	.LVL122:
 486:main.c        **** 		{
 1203              		.loc 1 486 0
 1204 006c FFF7FEFF 		bl	GPRS_QueryRssi
 1205              	.LVL123:
 489:main.c        **** 		delay_with_ble(500);	
 1206              		.loc 1 489 0
 1207 0070 FFF7FEFF 		bl	GPRS_SetAPN
 1208              	.LVL124:
 490:main.c        **** 		GPRS_SetActive();							// 激活PDP上下文 AT+CGACT=1,1  (6311-R开启)
 1209              		.loc 1 490 0
 1210 0074 FA20     		mov	r0, #250
 1211 0076 4000     		lsl	r0, r0, #1
 1212 0078 FFF7FEFF 		bl	delay_with_ble
 1213              	.LVL125:
 491:main.c        **** 	}
 1214              		.loc 1 491 0
 1215 007c FFF7FEFF 		bl	GPRS_SetActive
 1216              	.LVL126:
 1217 0080 03E0     		b	.L116
 1218              	.L122:
 482:main.c        **** 			}
ARM GAS  C:\Users\Administrator\AppData\Local\Temp\ccNLOfxN.s 			page 48


 1219              		.loc 1 482 0
 1220 0082 0548     		ldr	r0, .L125+12
 1221 0084 FFF7FEFF 		bl	delay_with_ble
 1222              	.LVL127:
 1223 0088 E5E7     		b	.L121
 1224              	.L116:
 493:main.c        **** 
 1225              		.loc 1 493 0
 1226              		@ sp needed
 1227 008a 10BD     		pop	{r4, pc}
 1228              	.L126:
 1229              		.align	2
 1230              	.L125:
 1231 008c B80B0000 		.word	3000
 1232 0090 00000000 		.word	wait_timeout
 1233 0094 30750000 		.word	30000
 1234 0098 DC050000 		.word	1500
 1235              		.cfi_endproc
 1236              	.LFE75:
 1237              		.size	GPRSPowerOn, .-GPRSPowerOn
 1238              		.section	.text.GPRSPowerOn_0321,"ax",%progbits
 1239              		.align	1
 1240              		.global	GPRSPowerOn_0321
 1241              		.code	16
 1242              		.thumb_func
 1243              		.type	GPRSPowerOn_0321, %function
 1244              	GPRSPowerOn_0321:
 1245              	.LFB76:
 504:main.c        **** 	GPRS_SetON();
 1246              		.loc 1 504 0
 1247              		.cfi_startproc
 1248 0000 10B5     		push	{r4, lr}
 1249              		.cfi_def_cfa_offset 8
 1250              		.cfi_offset 4, -8
 1251              		.cfi_offset 14, -4
 505:main.c        **** 	
 1252              		.loc 1 505 0
 1253 0002 FFF7FEFF 		bl	GPRS_SetON
 1254              	.LVL128:
 507:main.c        ****     UART_433_Start();												// 串口初始化						//
 1255              		.loc 1 507 0
 1256 0006 1748     		ldr	r0, .L133
 1257 0008 FFF7FEFF 		bl	cmd433_INT_ISR_StartEx
 1258              	.LVL129:
 508:main.c        **** 	
 1259              		.loc 1 508 0
 1260 000c FFF7FEFF 		bl	UART_433_Start
 1261              	.LVL130:
 510:main.c        **** 	//delay_with_ble(3000);						// 等待3s
 1262              		.loc 1 510 0
 1263 0010 FFF7FEFF 		bl	GPRS_WaitInitFinish
 1264              	.LVL131:
 512:main.c        **** 	GPRS_QuerySimCard();
 1265              		.loc 1 512 0
 1266 0014 FA20     		mov	r0, #250
 1267 0016 C000     		lsl	r0, r0, #3
 1268 0018 FFF7FEFF 		bl	delay_with_ble
ARM GAS  C:\Users\Administrator\AppData\Local\Temp\ccNLOfxN.s 			page 49


 1269              	.LVL132:
 513:main.c        **** 	delay_with_ble(4000);						// 等待网络注册 连接
 1270              		.loc 1 513 0
 1271 001c FFF7FEFF 		bl	GPRS_QuerySimCard
 1272              	.LVL133:
 514:main.c        **** 	wait_timeout = 30000;						// 等待超时 30s
 1273              		.loc 1 514 0
 1274 0020 FA20     		mov	r0, #250
 1275 0022 0001     		lsl	r0, r0, #4
 1276 0024 FFF7FEFF 		bl	delay_with_ble
 1277              	.LVL134:
 515:main.c        **** 	while(wait_timeout > 0)
 1278              		.loc 1 515 0
 1279 0028 0F4B     		ldr	r3, .L133+4
 1280 002a 104A     		ldr	r2, .L133+8
 1281 002c 1C1C     		mov	r4, r3
 1282 002e 1A60     		str	r2, [r3]
 1283              	.L128:
 516:main.c        **** 	{
 1284              		.loc 1 516 0
 1285 0030 2368     		ldr	r3, [r4]
 1286 0032 002B     		cmp	r3, #0
 1287 0034 03D0     		beq	.L131
 518:main.c        **** 		{
 1288              		.loc 1 518 0
 1289 0036 FFF7FEFF 		bl	GPRS_QueryCREG
 1290              	.LVL135:
 1291 003a 0128     		cmp	r0, #1
 1292 003c 0ED1     		bne	.L129
 1293              	.L131:
 527:main.c        **** 	if(0 == GPRS_QueryRssi())					// 查询信号情况 AT+CSQ 不查没关系，除非是排除0 
 1294              		.loc 1 527 0
 1295 003e FA20     		mov	r0, #250
 1296 0040 4000     		lsl	r0, r0, #1
 1297 0042 FFF7FEFF 		bl	delay_with_ble
 1298              	.LVL136:
 528:main.c        **** 	{
 1299              		.loc 1 528 0
 1300 0046 FFF7FEFF 		bl	GPRS_QueryRssi
 1301              	.LVL137:
 531:main.c        **** 	delay_with_ble(500);	
 1302              		.loc 1 531 0
 1303 004a FFF7FEFF 		bl	GPRS_SetAPN
 1304              	.LVL138:
 532:main.c        **** 	GPRS_SetActive();							// 激活PDP上下文 AT+CGACT=1,1  (6311-R开启)
 1305              		.loc 1 532 0
 1306 004e FA20     		mov	r0, #250
 1307 0050 4000     		lsl	r0, r0, #1
 1308 0052 FFF7FEFF 		bl	delay_with_ble
 1309              	.LVL139:
 535:main.c        **** 
 1310              		.loc 1 535 0
 1311              		@ sp needed
 533:main.c        **** 
 1312              		.loc 1 533 0
 1313 0056 FFF7FEFF 		bl	GPRS_SetActive
 1314              	.LVL140:
ARM GAS  C:\Users\Administrator\AppData\Local\Temp\ccNLOfxN.s 			page 50


 535:main.c        **** 
 1315              		.loc 1 535 0
 1316 005a 10BD     		pop	{r4, pc}
 1317              	.L129:
 524:main.c        **** 		}
 1318              		.loc 1 524 0
 1319 005c 0448     		ldr	r0, .L133+12
 1320 005e FFF7FEFF 		bl	delay_with_ble
 1321              	.LVL141:
 1322 0062 E5E7     		b	.L128
 1323              	.L134:
 1324              		.align	2
 1325              	.L133:
 1326 0064 00000000 		.word	RX_IRQ_INTERRUPT
 1327 0068 00000000 		.word	wait_timeout
 1328 006c 30750000 		.word	30000
 1329 0070 DC050000 		.word	1500
 1330              		.cfi_endproc
 1331              	.LFE76:
 1332              		.size	GPRSPowerOn_0321, .-GPRSPowerOn_0321
 1333              		.section	.text.GPRSPowerDown,"ax",%progbits
 1334              		.align	1
 1335              		.global	GPRSPowerDown
 1336              		.code	16
 1337              		.thumb_func
 1338              		.type	GPRSPowerDown, %function
 1339              	GPRSPowerDown:
 1340              	.LFB77:
 547:main.c        **** 	uint8 count = 0;
 1341              		.loc 1 547 0
 1342              		.cfi_startproc
 1343              	.LVL142:
 1344 0000 10B5     		push	{r4, lr}
 1345              		.cfi_def_cfa_offset 8
 1346              		.cfi_offset 4, -8
 1347              		.cfi_offset 14, -4
 550:main.c        **** 	{
 1348              		.loc 1 550 0
 1349 0002 FFF7FEFF 		bl	GPRS_STATE_Read
 1350              	.LVL143:
 1351 0006 0028     		cmp	r0, #0
 1352 0008 12D1     		bne	.L136
 552:main.c        **** 		while ((GPRS_STATE_Read() == 0) && (count <= 30))
 1353              		.loc 1 552 0
 1354 000a 0130     		add	r0, r0, #1
 1355 000c FFF7FEFF 		bl	GPRS_PWRKEY_Write
 1356              	.LVL144:
 553:main.c        **** 		{
 1357              		.loc 1 553 0
 1358 0010 2024     		mov	r4, #32
 1359              	.LVL145:
 1360              	.L137:
 1361 0012 FFF7FEFF 		bl	GPRS_STATE_Read
 1362              	.LVL146:
 1363 0016 0028     		cmp	r0, #0
 1364 0018 07D1     		bne	.L138
 1365 001a 013C     		sub	r4, r4, #1
ARM GAS  C:\Users\Administrator\AppData\Local\Temp\ccNLOfxN.s 			page 51


 1366              	.LVL147:
 1367 001c E4B2     		uxtb	r4, r4
 553:main.c        **** 		{
 1368              		.loc 1 553 0 is_stmt 0 discriminator 1
 1369 001e 002C     		cmp	r4, #0
 1370 0020 03D0     		beq	.L138
 555:main.c        **** 			count++;
 1371              		.loc 1 555 0 is_stmt 1
 1372 0022 6420     		mov	r0, #100
 1373 0024 FFF7FEFF 		bl	delay_with_ble
 1374              	.LVL148:
 1375 0028 F3E7     		b	.L137
 1376              	.LVL149:
 1377              	.L138:
 558:main.c        **** 	}
 1378              		.loc 1 558 0
 1379 002a 0020     		mov	r0, #0
 1380 002c FFF7FEFF 		bl	GPRS_PWRKEY_Write
 1381              	.LVL150:
 1382              	.L136:
 560:main.c        **** }
 1383              		.loc 1 560 0
 1384 0030 0148     		ldr	r0, .L140
 1385 0032 FFF7FEFF 		bl	delay_with_ble
 1386              	.LVL151:
 561:main.c        **** 
 1387              		.loc 1 561 0
 1388              		@ sp needed
 1389 0036 10BD     		pop	{r4, pc}
 1390              	.L141:
 1391              		.align	2
 1392              	.L140:
 1393 0038 10270000 		.word	10000
 1394              		.cfi_endproc
 1395              	.LFE77:
 1396              		.size	GPRSPowerDown, .-GPRSPowerDown
 1397              		.section	.text.GPRS_Tick,"ax",%progbits
 1398              		.align	1
 1399              		.global	GPRS_Tick
 1400              		.code	16
 1401              		.thumb_func
 1402              		.type	GPRS_Tick, %function
 1403              	GPRS_Tick:
 1404              	.LFB86:
 733:main.c        **** 	uint8 ret;
 1405              		.loc 1 733 0
 1406              		.cfi_startproc
 1407              	.LVL152:
 1408 0000 F7B5     		push	{r0, r1, r2, r4, r5, r6, r7, lr}
 1409              		.cfi_def_cfa_offset 32
 1410              		.cfi_offset 0, -32
 1411              		.cfi_offset 1, -28
 1412              		.cfi_offset 2, -24
 1413              		.cfi_offset 4, -20
 1414              		.cfi_offset 5, -16
 1415              		.cfi_offset 6, -12
 1416              		.cfi_offset 7, -8
ARM GAS  C:\Users\Administrator\AppData\Local\Temp\ccNLOfxN.s 			page 52


 1417              		.cfi_offset 14, -4
 737:main.c        **** 	{
 1418              		.loc 1 737 0
 1419 0002 B64B     		ldr	r3, .L179
 1420 0004 1B78     		ldrb	r3, [r3]
 1421 0006 012B     		cmp	r3, #1
 1422 0008 03D0     		beq	.L143
 737:main.c        **** 	{
 1423              		.loc 1 737 0 is_stmt 0 discriminator 1
 1424 000a B54B     		ldr	r3, .L179+4
 1425 000c 1B78     		ldrb	r3, [r3]
 1426 000e 012B     		cmp	r3, #1
 1427 0010 01D1     		bne	.L144
 1428              	.L143:
 739:main.c        **** 	}
 1429              		.loc 1 739 0 is_stmt 1
 1430 0012 FFF7FEFF 		bl	Protocol_CmdParse
 1431              	.LVL153:
 1432              	.L144:
 742:main.c        **** 	{
 1433              		.loc 1 742 0
 1434 0016 B34B     		ldr	r3, .L179+8
 1435 0018 B34D     		ldr	r5, .L179+12
 1436 001a 1A78     		ldrb	r2, [r3]
 1437 001c 012A     		cmp	r2, #1
 1438 001e 03D1     		bne	.L145
 744:main.c        **** 		gprs_state = NEED_UPDATE;									// 开始断开当前前置服务器连接		//
 1439              		.loc 1 744 0
 1440 0020 0022     		mov	r2, #0
 1441 0022 1A70     		strb	r2, [r3]
 745:main.c        **** 	}
 1442              		.loc 1 745 0
 1443 0024 0723     		mov	r3, #7
 1444 0026 2B70     		strb	r3, [r5]
 1445              	.L145:
 749:main.c        **** 	{	
 1446              		.loc 1 749 0
 1447 0028 FFF7FEFF 		bl	GPRS_STATE_Read
 1448              	.LVL154:
 1449 002c 0128     		cmp	r0, #1
 1450 002e 03D1     		bne	.L146
 760:main.c        ****         Reboot_Check();
 1451              		.loc 1 760 0
 1452 0030 AE4B     		ldr	r3, .L179+16
 1453 0032 1870     		strb	r0, [r3]
 761:main.c        **** 		
 1454              		.loc 1 761 0
 1455 0034 FFF7FEFF 		bl	Reboot_Check
 1456              	.LVL155:
 1457              	.L146:
 766:main.c        **** 	if (gprs_state == INIT)
 1458              		.loc 1 766 0
 1459 0038 FFF7FEFF 		bl	RTC_GetUnixTime
 1460              	.LVL156:
 1461 003c AC4E     		ldr	r6, .L179+20
 767:main.c        **** 	{
 1462              		.loc 1 767 0
ARM GAS  C:\Users\Administrator\AppData\Local\Temp\ccNLOfxN.s 			page 53


 1463 003e 2C78     		ldrb	r4, [r5]
 766:main.c        **** 	if (gprs_state == INIT)
 1464              		.loc 1 766 0
 1465 0040 3060     		str	r0, [r6]
 1466 0042 371C     		mov	r7, r6
 767:main.c        **** 	{
 1467              		.loc 1 767 0
 1468 0044 002C     		cmp	r4, #0
 1469 0046 20D1     		bne	.L147
 769:main.c        **** 		Led_SetState(LED_State);
 1470              		.loc 1 769 0
 1471 0048 0123     		mov	r3, #1
 1472 004a AA4A     		ldr	r2, .L179+24
 1473 004c 5372     		strb	r3, [r2, #9]
 1474              	.LVL157:
 1475              	.LBB38:
 1476              	.LBB39:
 383:main.c        **** 	}
 1477              		.loc 1 383 0
 1478 004e FFF7FEFF 		bl	Led_RedON
 1479              	.LVL158:
 1480              	.LBE39:
 1481              	.LBE38:
 771:main.c        **** 		{
 1482              		.loc 1 771 0
 1483 0052 A94F     		ldr	r7, .L179+28
 1484 0054 3268     		ldr	r2, [r6]
 1485 0056 3B68     		ldr	r3, [r7]
 1486 0058 9A42     		cmp	r2, r3
 1487 005a 00D8     		bhi	.LCB1291
 1488 005c 3DE1     		b	.L142	@long jump
 1489              	.LCB1291:
 773:main.c        **** 			{
 1490              		.loc 1 773 0
 1491 005e A54B     		ldr	r3, .L179+24
 1492 0060 9B7A     		ldrb	r3, [r3, #10]
 1493 0062 092B     		cmp	r3, #9
 1494 0064 01D9     		bls	.L150
 1495              	.LVL159:
 1496              	.L153:
 775:main.c        **** 			}
 1497              		.loc 1 775 0
 1498 0066 0623     		mov	r3, #6
 1499 0068 4BE0     		b	.L175
 1500              	.LVL160:
 1501              	.L150:
 779:main.c        **** 				gprs_operation_ErrCount++;
 1502              		.loc 1 779 0
 1503 006a 0532     		add	r2, r2, #5
 1504 006c 3A60     		str	r2, [r7]
 780:main.c        **** 				ret = GPRS_ConnectCenterServer();
 1505              		.loc 1 780 0
 1506 006e A14A     		ldr	r2, .L179+24
 1507 0070 0133     		add	r3, r3, #1
 1508 0072 9372     		strb	r3, [r2, #10]
 781:main.c        **** 				if (ret == TRUE)
 1509              		.loc 1 781 0
ARM GAS  C:\Users\Administrator\AppData\Local\Temp\ccNLOfxN.s 			page 54


 1510 0074 FFF7FEFF 		bl	GPRS_ConnectCenterServer
 1511              	.LVL161:
 782:main.c        **** 				{
 1512              		.loc 1 782 0
 1513 0078 0128     		cmp	r0, #1
 1514 007a 00D0     		beq	.LCB1313
 1515 007c 2DE1     		b	.L142	@long jump
 1516              	.LCB1313:
 785:main.c        **** 					gprs_operation_ErrCount = 0;
 1517              		.loc 1 785 0
 1518 007e 3368     		ldr	r3, [r6]
 784:main.c        **** 					next_gprs_operation_time = cur_time;
 1519              		.loc 1 784 0
 1520 0080 2870     		strb	r0, [r5]
 785:main.c        **** 					gprs_operation_ErrCount = 0;
 1521              		.loc 1 785 0
 1522 0082 3B60     		str	r3, [r7]
 786:main.c        **** 				}
 1523              		.loc 1 786 0
 1524 0084 9B4B     		ldr	r3, .L179+24
 1525 0086 9C72     		strb	r4, [r3, #10]
 1526 0088 27E1     		b	.L142
 1527              	.LVL162:
 1528              	.L147:
 791:main.c        **** 	{
 1529              		.loc 1 791 0
 1530 008a 012C     		cmp	r4, #1
 1531 008c 13D1     		bne	.L152
 793:main.c        **** 		Led_SetState(LED_State);
 1532              		.loc 1 793 0
 1533 008e 994F     		ldr	r7, .L179+24
 1534 0090 7C72     		strb	r4, [r7, #9]
 1535              	.LVL163:
 1536              	.LBB40:
 1537              	.LBB41:
 383:main.c        **** 	}
 1538              		.loc 1 383 0
 1539 0092 FFF7FEFF 		bl	Led_RedON
 1540              	.LVL164:
 1541              	.LBE41:
 1542              	.LBE40:
 795:main.c        **** 		{
 1543              		.loc 1 795 0
 1544 0096 9849     		ldr	r1, .L179+28
 1545 0098 3268     		ldr	r2, [r6]
 1546 009a 0B68     		ldr	r3, [r1]
 1547 009c 9A42     		cmp	r2, r3
 1548 009e 00D8     		bhi	.LCB1342
 1549 00a0 1BE1     		b	.L142	@long jump
 1550              	.LCB1342:
 797:main.c        **** 			{
 1551              		.loc 1 797 0
 1552 00a2 BB7A     		ldrb	r3, [r7, #10]
 1553 00a4 0A2B     		cmp	r3, #10
 1554 00a6 DED8     		bhi	.L153
 803:main.c        **** 				gprs_operation_ErrCount++;
 1555              		.loc 1 803 0
ARM GAS  C:\Users\Administrator\AppData\Local\Temp\ccNLOfxN.s 			page 55


 1556 00a8 1432     		add	r2, r2, #20
 804:main.c        **** 				send_get_pre_service_ip();
 1557              		.loc 1 804 0
 1558 00aa 0133     		add	r3, r3, #1
 803:main.c        **** 				gprs_operation_ErrCount++;
 1559              		.loc 1 803 0
 1560 00ac 0A60     		str	r2, [r1]
 804:main.c        **** 				send_get_pre_service_ip();
 1561              		.loc 1 804 0
 1562 00ae BB72     		strb	r3, [r7, #10]
 805:main.c        **** 			}
 1563              		.loc 1 805 0
 1564 00b0 FFF7FEFF 		bl	send_get_pre_service_ip
 1565              	.LVL165:
 1566 00b4 11E1     		b	.L142
 1567              	.LVL166:
 1568              	.L152:
 809:main.c        **** 	{
 1569              		.loc 1 809 0
 1570 00b6 022C     		cmp	r4, #2
 1571 00b8 18D1     		bne	.L154
 811:main.c        **** 		Led_SetState(LED_State);
 1572              		.loc 1 811 0
 1573 00ba 0123     		mov	r3, #1
 1574 00bc 8D4C     		ldr	r4, .L179+24
 1575 00be 6372     		strb	r3, [r4, #9]
 1576              	.LVL167:
 1577              	.LBB42:
 1578              	.LBB43:
 383:main.c        **** 	}
 1579              		.loc 1 383 0
 1580 00c0 FFF7FEFF 		bl	Led_RedON
 1581              	.LVL168:
 1582              	.LBE43:
 1583              	.LBE42:
 813:main.c        **** 		{
 1584              		.loc 1 813 0
 1585 00c4 8C4F     		ldr	r7, .L179+28
 1586 00c6 3268     		ldr	r2, [r6]
 1587 00c8 3B68     		ldr	r3, [r7]
 1588 00ca 9A42     		cmp	r2, r3
 1589 00cc 00D8     		bhi	.LCB1374
 1590 00ce 04E1     		b	.L142	@long jump
 1591              	.LCB1374:
 815:main.c        **** 			{
 1592              		.loc 1 815 0
 1593 00d0 A37A     		ldrb	r3, [r4, #10]
 1594 00d2 0A2B     		cmp	r3, #10
 1595 00d4 C7D8     		bhi	.L153
 822:main.c        **** 				ret =  GPRS_ClosedConnect();
 1596              		.loc 1 822 0
 1597 00d6 0133     		add	r3, r3, #1
 821:main.c        **** 				gprs_operation_ErrCount++;
 1598              		.loc 1 821 0
 1599 00d8 0532     		add	r2, r2, #5
 822:main.c        **** 				ret =  GPRS_ClosedConnect();
 1600              		.loc 1 822 0
ARM GAS  C:\Users\Administrator\AppData\Local\Temp\ccNLOfxN.s 			page 56


 1601 00da A372     		strb	r3, [r4, #10]
 821:main.c        **** 				gprs_operation_ErrCount++;
 1602              		.loc 1 821 0
 1603 00dc 3A60     		str	r2, [r7]
 823:main.c        **** 				if (ret == TRUE)
 1604              		.loc 1 823 0
 1605 00de FFF7FEFF 		bl	GPRS_ClosedConnect
 1606              	.LVL169:
 826:main.c        **** 					next_gprs_operation_time = cur_time;
 1607              		.loc 1 826 0
 1608 00e2 0323     		mov	r3, #3
 824:main.c        **** 				{
 1609              		.loc 1 824 0
 1610 00e4 0128     		cmp	r0, #1
 1611 00e6 00D0     		beq	.LCB1387
 1612 00e8 F7E0     		b	.L142	@long jump
 1613              	.LCB1387:
 1614 00ea 1CE0     		b	.L176
 1615              	.LVL170:
 1616              	.L154:
 833:main.c        **** 	{
 1617              		.loc 1 833 0
 1618 00ec 032C     		cmp	r4, #3
 1619 00ee 20D1     		bne	.L155
 835:main.c        **** 		Led_SetState(LED_State);
 1620              		.loc 1 835 0
 1621 00f0 0123     		mov	r3, #1
 1622 00f2 804C     		ldr	r4, .L179+24
 1623 00f4 6372     		strb	r3, [r4, #9]
 1624              	.LVL171:
 1625              	.LBB44:
 1626              	.LBB45:
 383:main.c        **** 	}
 1627              		.loc 1 383 0
 1628 00f6 FFF7FEFF 		bl	Led_RedON
 1629              	.LVL172:
 1630              	.LBE45:
 1631              	.LBE44:
 837:main.c        **** 		{
 1632              		.loc 1 837 0
 1633 00fa A37A     		ldrb	r3, [r4, #10]
 1634 00fc 032B     		cmp	r3, #3
 1635 00fe 02D9     		bls	.L156
 1636              	.LVL173:
 1637              	.L158:
 839:main.c        **** 		}
 1638              		.loc 1 839 0
 1639 0100 0023     		mov	r3, #0
 1640              	.L175:
 1641 0102 2B70     		strb	r3, [r5]
 1642 0104 E9E0     		b	.L142
 1643              	.LVL174:
 1644              	.L156:
 841:main.c        **** 		{
 1645              		.loc 1 841 0
 1646 0106 7C4F     		ldr	r7, .L179+28
 1647 0108 3268     		ldr	r2, [r6]
ARM GAS  C:\Users\Administrator\AppData\Local\Temp\ccNLOfxN.s 			page 57


 1648 010a 3968     		ldr	r1, [r7]
 1649 010c 8A42     		cmp	r2, r1
 1650 010e 00D8     		bhi	.LCB1425
 1651 0110 E3E0     		b	.L142	@long jump
 1652              	.LCB1425:
 843:main.c        **** 			gprs_operation_ErrCount++;
 1653              		.loc 1 843 0
 1654 0112 0532     		add	r2, r2, #5
 844:main.c        **** 			ret = GPRS_ConnectPreServer();
 1655              		.loc 1 844 0
 1656 0114 0133     		add	r3, r3, #1
 843:main.c        **** 			gprs_operation_ErrCount++;
 1657              		.loc 1 843 0
 1658 0116 3A60     		str	r2, [r7]
 844:main.c        **** 			ret = GPRS_ConnectPreServer();
 1659              		.loc 1 844 0
 1660 0118 A372     		strb	r3, [r4, #10]
 845:main.c        **** 			if (ret == TRUE)
 1661              		.loc 1 845 0
 1662 011a FFF7FEFF 		bl	GPRS_ConnectPreServer
 1663              	.LVL175:
 846:main.c        **** 			{
 1664              		.loc 1 846 0
 1665 011e 0128     		cmp	r0, #1
 1666 0120 00D0     		beq	.LCB1434
 1667 0122 DAE0     		b	.L142	@long jump
 1668              	.LCB1434:
 848:main.c        **** 				next_gprs_operation_time = cur_time;
 1669              		.loc 1 848 0
 1670 0124 0423     		mov	r3, #4
 1671              	.LVL176:
 1672              	.L176:
 1673 0126 2B70     		strb	r3, [r5]
 849:main.c        **** 				gprs_operation_ErrCount = 0;
 1674              		.loc 1 849 0
 1675 0128 3368     		ldr	r3, [r6]
 1676 012a 3B60     		str	r3, [r7]
 1677              	.L177:
 850:main.c        **** 			}
 1678              		.loc 1 850 0
 1679 012c 0023     		mov	r3, #0
 1680 012e A372     		strb	r3, [r4, #10]
 1681 0130 D3E0     		b	.L142
 1682              	.LVL177:
 1683              	.L155:
 854:main.c        **** 	{
 1684              		.loc 1 854 0
 1685 0132 042C     		cmp	r4, #4
 1686 0134 14D1     		bne	.L157
 856:main.c        **** 		Led_SetState(LED_State);
 1687              		.loc 1 856 0
 1688 0136 0123     		mov	r3, #1
 1689 0138 6E4C     		ldr	r4, .L179+24
 1690 013a 6372     		strb	r3, [r4, #9]
 1691              	.LVL178:
 1692              	.LBB46:
 1693              	.LBB47:
ARM GAS  C:\Users\Administrator\AppData\Local\Temp\ccNLOfxN.s 			page 58


 383:main.c        **** 	}
 1694              		.loc 1 383 0
 1695 013c FFF7FEFF 		bl	Led_RedON
 1696              	.LVL179:
 1697              	.LBE47:
 1698              	.LBE46:
 858:main.c        **** 		{
 1699              		.loc 1 858 0
 1700 0140 A37A     		ldrb	r3, [r4, #10]
 1701 0142 032B     		cmp	r3, #3
 1702 0144 DCD8     		bhi	.L158
 862:main.c        **** 		{
 1703              		.loc 1 862 0
 1704 0146 6C49     		ldr	r1, .L179+28
 1705 0148 3268     		ldr	r2, [r6]
 1706 014a 0868     		ldr	r0, [r1]
 1707 014c 8242     		cmp	r2, r0
 1708 014e 00D8     		bhi	.LCB1474
 1709 0150 C3E0     		b	.L142	@long jump
 1710              	.LCB1474:
 864:main.c        **** 			gprs_operation_ErrCount++;
 1711              		.loc 1 864 0
 1712 0152 1432     		add	r2, r2, #20
 865:main.c        ****             send_send_mac_and_get_blekey();
 1713              		.loc 1 865 0
 1714 0154 0133     		add	r3, r3, #1
 864:main.c        **** 			gprs_operation_ErrCount++;
 1715              		.loc 1 864 0
 1716 0156 0A60     		str	r2, [r1]
 865:main.c        ****             send_send_mac_and_get_blekey();
 1717              		.loc 1 865 0
 1718 0158 A372     		strb	r3, [r4, #10]
 866:main.c        ****             #if 0
 1719              		.loc 1 866 0
 1720 015a FFF7FEFF 		bl	send_send_mac_and_get_blekey
 1721              	.LVL180:
 1722 015e BCE0     		b	.L142
 1723              	.LVL181:
 1724              	.L157:
 903:main.c        **** 	{
 1725              		.loc 1 903 0
 1726 0160 052C     		cmp	r4, #5
 1727 0162 3AD1     		bne	.L159
 905:main.c        **** 		Led_SetState(LED_State);
 1728              		.loc 1 905 0
 1729 0164 0223     		mov	r3, #2
 1730 0166 634C     		ldr	r4, .L179+24
 1731 0168 6372     		strb	r3, [r4, #9]
 1732              	.LVL182:
 1733              	.LBB48:
 1734              	.LBB49:
 387:main.c        **** 	}
 1735              		.loc 1 387 0
 1736 016a FFF7FEFF 		bl	Led_GreenON
 1737              	.LVL183:
 1738              	.LBE49:
 1739              	.LBE48:
ARM GAS  C:\Users\Administrator\AppData\Local\Temp\ccNLOfxN.s 			page 59


 908:main.c        ****         {
 1740              		.loc 1 908 0
 1741 016e 634A     		ldr	r2, .L179+32
 1742 0170 1368     		ldr	r3, [r2]
 1743 0172 0192     		str	r2, [sp, #4]
 1744 0174 3268     		ldr	r2, [r6]
 1745 0176 3C33     		add	r3, r3, #60
 1746 0178 9A42     		cmp	r2, r3
 1747 017a 2BD9     		bls	.L161
 910:main.c        ****             {               		                   
 1748              		.loc 1 910 0
 1749 017c E37A     		ldrb	r3, [r4, #11]
 1750 017e 604E     		ldr	r6, .L179+36
 1751 0180 002B     		cmp	r3, #0
 1752 0182 14D0     		beq	.L163
 912:main.c        ****                 send_heartbeat(EnterGuide_State);
 1753              		.loc 1 912 0
 1754 0184 0223     		mov	r3, #2
 913:main.c        ****                 heartbeat_SendCount++;
 1755              		.loc 1 913 0
 1756 0186 181C     		mov	r0, r3
 912:main.c        ****                 send_heartbeat(EnterGuide_State);
 1757              		.loc 1 912 0
 1758 0188 2372     		strb	r3, [r4, #8]
 913:main.c        ****                 heartbeat_SendCount++;
 1759              		.loc 1 913 0
 1760 018a FFF7FEFF 		bl	send_heartbeat
 1761              	.LVL184:
 914:main.c        ****                 cur_time = (uint32)RTC_GetUnixTime();
 1762              		.loc 1 914 0
 1763 018e E37A     		ldrb	r3, [r4, #11]
 1764 0190 0133     		add	r3, r3, #1
 1765 0192 E372     		strb	r3, [r4, #11]
 915:main.c        ****                 heartbeat_lasttime = cur_time;
 1766              		.loc 1 915 0
 1767 0194 FFF7FEFF 		bl	RTC_GetUnixTime
 1768              	.LVL185:
 916:main.c        ****                 next_heartbeat_time = cur_time + 300;
 1769              		.loc 1 916 0
 1770 0198 019B     		ldr	r3, [sp, #4]
 915:main.c        ****                 heartbeat_lasttime = cur_time;
 1771              		.loc 1 915 0
 1772 019a 3860     		str	r0, [r7]
 916:main.c        ****                 next_heartbeat_time = cur_time + 300;
 1773              		.loc 1 916 0
 1774 019c 1860     		str	r0, [r3]
 917:main.c        ****                 if (heartbeat_SendCount > 3)
 1775              		.loc 1 917 0
 1776 019e 2D30     		add	r0, r0, #45
 918:main.c        ****     			{
 1777              		.loc 1 918 0
 1778 01a0 E37A     		ldrb	r3, [r4, #11]
 917:main.c        ****                 if (heartbeat_SendCount > 3)
 1779              		.loc 1 917 0
 1780 01a2 FF30     		add	r0, r0, #255
 1781 01a4 3060     		str	r0, [r6]
 918:main.c        ****     			{
ARM GAS  C:\Users\Administrator\AppData\Local\Temp\ccNLOfxN.s 			page 60


 1782              		.loc 1 918 0
 1783 01a6 032B     		cmp	r3, #3
 1784 01a8 01D9     		bls	.L163
 920:main.c        ****     			}
 1785              		.loc 1 920 0
 1786 01aa 0623     		mov	r3, #6
 1787 01ac 2B70     		strb	r3, [r5]
 1788              	.L163:
 924:main.c        ****     		{
 1789              		.loc 1 924 0
 1790 01ae 3B68     		ldr	r3, [r7]
 1791 01b0 3268     		ldr	r2, [r6]
 1792 01b2 9342     		cmp	r3, r2
 1793 01b4 0ED9     		bls	.L161
 926:main.c        ****                 send_heartbeat(EnterGuide_State);
 1794              		.loc 1 926 0
 1795 01b6 0220     		mov	r0, #2
 1796 01b8 2072     		strb	r0, [r4, #8]
 927:main.c        ****     			heartbeat_SendCount++;
 1797              		.loc 1 927 0
 1798 01ba FFF7FEFF 		bl	send_heartbeat
 1799              	.LVL186:
 928:main.c        ****     			cur_time = (uint32)RTC_GetUnixTime();
 1800              		.loc 1 928 0
 1801 01be E37A     		ldrb	r3, [r4, #11]
 1802 01c0 0133     		add	r3, r3, #1
 1803 01c2 E372     		strb	r3, [r4, #11]
 929:main.c        ****                 heartbeat_lasttime = cur_time;
 1804              		.loc 1 929 0
 1805 01c4 FFF7FEFF 		bl	RTC_GetUnixTime
 1806              	.LVL187:
 930:main.c        ****     			next_heartbeat_time = cur_time + 300;
 1807              		.loc 1 930 0
 1808 01c8 019B     		ldr	r3, [sp, #4]
 929:main.c        ****                 heartbeat_lasttime = cur_time;
 1809              		.loc 1 929 0
 1810 01ca 3860     		str	r0, [r7]
 930:main.c        ****     			next_heartbeat_time = cur_time + 300;
 1811              		.loc 1 930 0
 1812 01cc 1860     		str	r0, [r3]
 931:main.c        ****     		}
 1813              		.loc 1 931 0
 1814 01ce 2D30     		add	r0, r0, #45
 1815 01d0 FF30     		add	r0, r0, #255
 1816 01d2 3060     		str	r0, [r6]
 1817              	.L161:
 935:main.c        **** 	}
 1818              		.loc 1 935 0
 1819 01d4 FFF7FEFF 		bl	GPRS_CheckIfRecvClosed
 1820              	.LVL188:
 1821 01d8 7FE0     		b	.L142
 1822              	.LVL189:
 1823              	.L159:
 939:main.c        **** 	{
 1824              		.loc 1 939 0
 1825 01da 062C     		cmp	r4, #6
 1826 01dc 0FD1     		bne	.L166
ARM GAS  C:\Users\Administrator\AppData\Local\Temp\ccNLOfxN.s 			page 61


 941:main.c        **** 		Led_SetState(LED_State);
 1827              		.loc 1 941 0
 1828 01de 454B     		ldr	r3, .L179+24
 1829 01e0 053C     		sub	r4, r4, #5
 1830 01e2 5C72     		strb	r4, [r3, #9]
 1831              	.LVL190:
 1832              	.LBB50:
 1833              	.LBB51:
 383:main.c        **** 	}
 1834              		.loc 1 383 0
 1835 01e4 FFF7FEFF 		bl	Led_RedON
 1836              	.LVL191:
 1837              	.LBE51:
 1838              	.LBE50:
 943:main.c        ****         GPRSPowerDown();										    // 开 关机操作
 1839              		.loc 1 943 0
 1840 01e8 FFF7FEFF 		bl	GPRS_ClosedConnect
 1841              	.LVL192:
 944:main.c        ****        
 1842              		.loc 1 944 0
 1843 01ec FFF7FEFF 		bl	GPRSPowerDown
 1844              	.LVL193:
 967:main.c        ****         flag_reboot = 1;
 1845              		.loc 1 967 0
 1846 01f0 0023     		mov	r3, #0
 1847 01f2 2B70     		strb	r3, [r5]
 968:main.c        ****         Reboot_Check();
 1848              		.loc 1 968 0
 1849 01f4 3D4B     		ldr	r3, .L179+16
 1850 01f6 1C70     		strb	r4, [r3]
 969:main.c        **** 	}
 1851              		.loc 1 969 0
 1852 01f8 FFF7FEFF 		bl	Reboot_Check
 1853              	.LVL194:
 1854 01fc 6DE0     		b	.L142
 1855              	.LVL195:
 1856              	.L166:
 972:main.c        **** 	{
 1857              		.loc 1 972 0
 1858 01fe 072C     		cmp	r4, #7
 1859 0200 17D1     		bne	.L167
 974:main.c        **** 		Led_SetState(LED_State);
 1860              		.loc 1 974 0
 1861 0202 0123     		mov	r3, #1
 1862 0204 3B4C     		ldr	r4, .L179+24
 1863 0206 6372     		strb	r3, [r4, #9]
 1864              	.LVL196:
 1865              	.LBB52:
 1866              	.LBB53:
 383:main.c        **** 	}
 1867              		.loc 1 383 0
 1868 0208 FFF7FEFF 		bl	Led_RedON
 1869              	.LVL197:
 1870              	.LBE53:
 1871              	.LBE52:
 976:main.c        **** 		{
 1872              		.loc 1 976 0
ARM GAS  C:\Users\Administrator\AppData\Local\Temp\ccNLOfxN.s 			page 62


 1873 020c 3268     		ldr	r2, [r6]
 1874 020e 3A4E     		ldr	r6, .L179+28
 1875 0210 3368     		ldr	r3, [r6]
 1876 0212 9A42     		cmp	r2, r3
 1877 0214 61D9     		bls	.L142
 978:main.c        **** 			{
 1878              		.loc 1 978 0
 1879 0216 A37A     		ldrb	r3, [r4, #10]
 1880 0218 0A2B     		cmp	r3, #10
 1881 021a 00D9     		bls	.LCB1610
 1882 021c 23E7     		b	.L153	@long jump
 1883              	.LCB1610:
 985:main.c        **** 				ret =  GPRS_ClosedConnect();
 1884              		.loc 1 985 0
 1885 021e 0133     		add	r3, r3, #1
 984:main.c        **** 				gprs_operation_ErrCount++;
 1886              		.loc 1 984 0
 1887 0220 0532     		add	r2, r2, #5
 985:main.c        **** 				ret =  GPRS_ClosedConnect();
 1888              		.loc 1 985 0
 1889 0222 A372     		strb	r3, [r4, #10]
 984:main.c        **** 				gprs_operation_ErrCount++;
 1890              		.loc 1 984 0
 1891 0224 3260     		str	r2, [r6]
 986:main.c        **** 				if (ret == TRUE)
 1892              		.loc 1 986 0
 1893 0226 FFF7FEFF 		bl	GPRS_ClosedConnect
 1894              	.LVL198:
 989:main.c        **** 					next_gprs_operation_time = cur_time;
 1895              		.loc 1 989 0
 1896 022a 0823     		mov	r3, #8
 987:main.c        **** 				{
 1897              		.loc 1 987 0
 1898 022c 0128     		cmp	r0, #1
 1899 022e 54D1     		bne	.L142
 1900 0230 18E0     		b	.L178
 1901              	.LVL199:
 1902              	.L167:
 996:main.c        **** 	{
 1903              		.loc 1 996 0
 1904 0232 082C     		cmp	r4, #8
 1905 0234 1AD1     		bne	.L168
 998:main.c        **** 		Led_SetState(LED_State);
 1906              		.loc 1 998 0
 1907 0236 0123     		mov	r3, #1
 1908 0238 2E4C     		ldr	r4, .L179+24
 1909 023a 6372     		strb	r3, [r4, #9]
 1910              	.LVL200:
 1911              	.LBB54:
 1912              	.LBB55:
 383:main.c        **** 	}
 1913              		.loc 1 383 0
 1914 023c FFF7FEFF 		bl	Led_RedON
 1915              	.LVL201:
 1916              	.LBE55:
 1917              	.LBE54:
1000:main.c        **** 		{
ARM GAS  C:\Users\Administrator\AppData\Local\Temp\ccNLOfxN.s 			page 63


 1918              		.loc 1 1000 0
 1919 0240 A37A     		ldrb	r3, [r4, #10]
 1920 0242 032B     		cmp	r3, #3
 1921 0244 00D9     		bls	.LCB1641
 1922 0246 5BE7     		b	.L158	@long jump
 1923              	.LCB1641:
1004:main.c        **** 		{
 1924              		.loc 1 1004 0
 1925 0248 3268     		ldr	r2, [r6]
 1926 024a 2B4E     		ldr	r6, .L179+28
 1927 024c 3168     		ldr	r1, [r6]
 1928 024e 8A42     		cmp	r2, r1
 1929 0250 43D9     		bls	.L142
1006:main.c        **** 			gprs_operation_ErrCount++;
 1930              		.loc 1 1006 0
 1931 0252 0A32     		add	r2, r2, #10
1007:main.c        **** 			ret = GPRS_ConnectUpdateServer();
 1932              		.loc 1 1007 0
 1933 0254 0133     		add	r3, r3, #1
1006:main.c        **** 			gprs_operation_ErrCount++;
 1934              		.loc 1 1006 0
 1935 0256 3260     		str	r2, [r6]
1007:main.c        **** 			ret = GPRS_ConnectUpdateServer();
 1936              		.loc 1 1007 0
 1937 0258 A372     		strb	r3, [r4, #10]
1008:main.c        **** 			if (ret == TRUE)
 1938              		.loc 1 1008 0
 1939 025a FFF7FEFF 		bl	GPRS_ConnectUpdateServer
 1940              	.LVL202:
1009:main.c        **** 			{
 1941              		.loc 1 1009 0
 1942 025e 0128     		cmp	r0, #1
 1943 0260 3BD1     		bne	.L142
1011:main.c        **** 				next_gprs_operation_time = cur_time;
 1944              		.loc 1 1011 0
 1945 0262 0923     		mov	r3, #9
 1946              	.LVL203:
 1947              	.L178:
 1948 0264 2B70     		strb	r3, [r5]
1012:main.c        **** 				gprs_operation_ErrCount = 0;
 1949              		.loc 1 1012 0
 1950 0266 3B68     		ldr	r3, [r7]
 1951 0268 3360     		str	r3, [r6]
 1952 026a 5FE7     		b	.L177
 1953              	.LVL204:
 1954              	.L168:
1017:main.c        **** 	{
 1955              		.loc 1 1017 0
 1956 026c 092C     		cmp	r4, #9
 1957 026e 11D1     		bne	.L169
1019:main.c        **** 		Led_SetState(LED_State);
 1958              		.loc 1 1019 0
 1959 0270 0323     		mov	r3, #3
 1960 0272 204C     		ldr	r4, .L179+24
 1961 0274 6372     		strb	r3, [r4, #9]
 1962              	.LVL205:
 1963              	.LBB56:
ARM GAS  C:\Users\Administrator\AppData\Local\Temp\ccNLOfxN.s 			page 64


 1964              	.LBB57:
 391:main.c        **** 	}
 1965              		.loc 1 391 0
 1966 0276 FFF7FEFF 		bl	Led_BlueON
 1967              	.LVL206:
 1968              	.LBE57:
 1969              	.LBE56:
1021:main.c        **** 		update_page = 1;
 1970              		.loc 1 1021 0
 1971 027a FFF7FEFF 		bl	Cmd_Protocol_ParaInit
 1972              	.LVL207:
1022:main.c        **** 		send_update_req(update_page);
 1973              		.loc 1 1022 0
 1974 027e 0120     		mov	r0, #1
 1975 0280 204B     		ldr	r3, .L179+40
 1976 0282 1880     		strh	r0, [r3]
1023:main.c        **** 		update_timeout_time = 20000;
 1977              		.loc 1 1023 0
 1978 0284 FFF7FEFF 		bl	send_update_req
 1979              	.LVL208:
1024:main.c        **** 		update_timeout_count = 0;
 1980              		.loc 1 1024 0
 1981 0288 1F4B     		ldr	r3, .L179+44
 1982 028a 6360     		str	r3, [r4, #4]
1025:main.c        **** 		gprs_state = WAIT_UPDATE;
 1983              		.loc 1 1025 0
 1984 028c 0023     		mov	r3, #0
 1985 028e 2373     		strb	r3, [r4, #12]
1026:main.c        **** 	}
 1986              		.loc 1 1026 0
 1987 0290 0A33     		add	r3, r3, #10
 1988 0292 36E7     		b	.L175
 1989              	.LVL209:
 1990              	.L169:
1028:main.c        **** 	{
 1991              		.loc 1 1028 0
 1992 0294 0A2C     		cmp	r4, #10
 1993 0296 17D1     		bne	.L170
1030:main.c        **** 		{
 1994              		.loc 1 1030 0
 1995 0298 164C     		ldr	r4, .L179+24
 1996 029a 6668     		ldr	r6, [r4, #4]
 1997 029c 002E     		cmp	r6, #0
 1998 029e 1CD1     		bne	.L142
1032:main.c        **** 			if (update_timeout_count >= gprs_resetCount)
 1999              		.loc 1 1032 0
 2000 02a0 237B     		ldrb	r3, [r4, #12]
 2001 02a2 0133     		add	r3, r3, #1
 2002 02a4 DBB2     		uxtb	r3, r3
 2003 02a6 2373     		strb	r3, [r4, #12]
1033:main.c        **** 			{
 2004              		.loc 1 1033 0
 2005 02a8 092B     		cmp	r3, #9
 2006 02aa 04D9     		bls	.L171
1035:main.c        **** 				GPRS_ClosedConnect();							// 下载升级包超时 关闭连接退出升级
 2007              		.loc 1 1035 0
 2008 02ac 2673     		strb	r6, [r4, #12]
ARM GAS  C:\Users\Administrator\AppData\Local\Temp\ccNLOfxN.s 			page 65


1036:main.c        **** 				gprs_state = INIT;
 2009              		.loc 1 1036 0
 2010 02ae FFF7FEFF 		bl	GPRS_ClosedConnect
 2011              	.LVL210:
1037:main.c        **** 			}
 2012              		.loc 1 1037 0
 2013 02b2 2E70     		strb	r6, [r5]
 2014 02b4 11E0     		b	.L142
 2015              	.L171:
1041:main.c        **** 				send_update_req(update_page);
 2016              		.loc 1 1041 0
 2017 02b6 FFF7FEFF 		bl	Cmd_Protocol_ParaInit
 2018              	.LVL211:
1042:main.c        **** 				update_timeout_time = 10000;
 2019              		.loc 1 1042 0
 2020 02ba 124B     		ldr	r3, .L179+40
 2021 02bc 1888     		ldrh	r0, [r3]
 2022 02be FFF7FEFF 		bl	send_update_req
 2023              	.LVL212:
1043:main.c        **** 			}
 2024              		.loc 1 1043 0
 2025 02c2 124B     		ldr	r3, .L179+48
 2026 02c4 6360     		str	r3, [r4, #4]
 2027 02c6 08E0     		b	.L142
 2028              	.L170:
1047:main.c        **** 	{
 2029              		.loc 1 1047 0
 2030 02c8 0B2C     		cmp	r4, #11
 2031 02ca 06D1     		bne	.L142
1049:main.c        **** 		stop_reboot = 0x01;
 2032              		.loc 1 1049 0
 2033 02cc FFF7FEFF 		bl	GPRS_ClosedConnect
 2034              	.LVL213:
1050:main.c        **** 		Bootloadable_Load();
 2035              		.loc 1 1050 0
 2036 02d0 0122     		mov	r2, #1
 2037 02d2 0F4B     		ldr	r3, .L179+52
 2038 02d4 1A70     		strb	r2, [r3]
1051:main.c        **** 	}
 2039              		.loc 1 1051 0
 2040 02d6 FFF7FEFF 		bl	Bootloadable_Load
 2041              	.LVL214:
 2042              	.L142:
1053:main.c        **** 
 2043              		.loc 1 1053 0
 2044              		@ sp needed
 2045 02da F7BD     		pop	{r0, r1, r2, r4, r5, r6, r7, pc}
 2046              	.L180:
 2047              		.align	2
 2048              	.L179:
 2049 02dc 00000000 		.word	GPRSCmdParseFlag1
 2050 02e0 00000000 		.word	GPRSCmdParseFlag2
 2051 02e4 00000000 		.word	update_flag
 2052 02e8 00000000 		.word	gprs_state
 2053 02ec 00000000 		.word	flag_reboot
 2054 02f0 00000000 		.word	cur_time
 2055 02f4 00000000 		.word	.LANCHOR0
ARM GAS  C:\Users\Administrator\AppData\Local\Temp\ccNLOfxN.s 			page 66


 2056 02f8 00000000 		.word	next_gprs_operation_time
 2057 02fc 00000000 		.word	heartbeat_lasttime
 2058 0300 00000000 		.word	next_heartbeat_time
 2059 0304 00000000 		.word	update_page
 2060 0308 204E0000 		.word	20000
 2061 030c 10270000 		.word	10000
 2062 0310 00000000 		.word	stop_reboot
 2063              		.cfi_endproc
 2064              	.LFE86:
 2065              		.size	GPRS_Tick, .-GPRS_Tick
 2066              		.section	.text.ResetGPRS,"ax",%progbits
 2067              		.align	1
 2068              		.global	ResetGPRS
 2069              		.code	16
 2070              		.thumb_func
 2071              		.type	ResetGPRS, %function
 2072              	ResetGPRS:
 2073              	.LFB78:
 572:main.c        ****     GPRS_RESET_Write(1);
 2074              		.loc 1 572 0
 2075              		.cfi_startproc
 2076 0000 08B5     		push	{r3, lr}
 2077              		.cfi_def_cfa_offset 8
 2078              		.cfi_offset 3, -8
 2079              		.cfi_offset 14, -4
 573:main.c        **** 	delay_with_ble(25);
 2080              		.loc 1 573 0
 2081 0002 0120     		mov	r0, #1
 2082 0004 FFF7FEFF 		bl	GPRS_RESET_Write
 2083              	.LVL215:
 574:main.c        **** 	GPRS_RESET_Write(0);
 2084              		.loc 1 574 0
 2085 0008 1920     		mov	r0, #25
 2086 000a FFF7FEFF 		bl	delay_with_ble
 2087              	.LVL216:
 575:main.c        **** }
 2088              		.loc 1 575 0
 2089 000e 0020     		mov	r0, #0
 2090 0010 FFF7FEFF 		bl	GPRS_RESET_Write
 2091              	.LVL217:
 576:main.c        **** 
 2092              		.loc 1 576 0
 2093              		@ sp needed
 2094 0014 08BD     		pop	{r3, pc}
 2095              		.cfi_endproc
 2096              	.LFE78:
 2097              		.size	ResetGPRS, .-ResetGPRS
 2098              		.section	.text.BLE_Tick,"ax",%progbits
 2099              		.align	1
 2100              		.global	BLE_Tick
 2101              		.code	16
 2102              		.thumb_func
 2103              		.type	BLE_Tick, %function
 2104              	BLE_Tick:
 2105              	.LFB85:
 711:main.c        **** 	ble_heartbeat();
 2106              		.loc 1 711 0
ARM GAS  C:\Users\Administrator\AppData\Local\Temp\ccNLOfxN.s 			page 67


 2107              		.cfi_startproc
 2108 0000 10B5     		push	{r4, lr}
 2109              		.cfi_def_cfa_offset 8
 2110              		.cfi_offset 4, -8
 2111              		.cfi_offset 14, -4
 712:main.c        **** 	if(CyBle_GetState() == CYBLE_STATE_CONNECTED)
 2112              		.loc 1 712 0
 2113 0002 FFF7FEFF 		bl	ble_heartbeat
 2114              	.LVL218:
 713:main.c        **** 	{
 2115              		.loc 1 713 0
 2116 0006 064B     		ldr	r3, .L184
 2117 0008 1B78     		ldrb	r3, [r3]
 2118 000a 022B     		cmp	r3, #2
 2119 000c 07D1     		bne	.L182
 2120              	.LBB60:
 2121              	.LBB61:
 715:main.c        ****         {					
 2122              		.loc 1 715 0
 2123 000e 054C     		ldr	r4, .L184+4
 2124 0010 2378     		ldrb	r3, [r4]
 2125 0012 012B     		cmp	r3, #1
 2126 0014 03D1     		bne	.L182
 717:main.c        **** 			BleCmdValidFlag = 0;
 2127              		.loc 1 717 0
 2128 0016 FFF7FEFF 		bl	Protocol_CmdParse
 2129              	.LVL219:
 718:main.c        **** 			DBG_PRINTF("BLE handle cmd done.\n");
 2130              		.loc 1 718 0
 2131 001a 0023     		mov	r3, #0
 2132 001c 2370     		strb	r3, [r4]
 2133              	.L182:
 2134              	.LBE61:
 2135              	.LBE60:
 722:main.c        **** 
 2136              		.loc 1 722 0
 2137              		@ sp needed
 2138 001e 10BD     		pop	{r4, pc}
 2139              	.L185:
 2140              		.align	2
 2141              	.L184:
 2142 0020 00000000 		.word	cyBle_state
 2143 0024 00000000 		.word	BleCmdValidFlag
 2144              		.cfi_endproc
 2145              	.LFE85:
 2146              		.size	BLE_Tick, .-BLE_Tick
 2147              		.section	.text.KeyOpen_Tick,"ax",%progbits
 2148              		.align	1
 2149              		.global	KeyOpen_Tick
 2150              		.code	16
 2151              		.thumb_func
 2152              		.type	KeyOpen_Tick, %function
 2153              	KeyOpen_Tick:
 2154              	.LFB88:
1385:main.c        **** #endif
1386:main.c        **** 
1387:main.c        **** 
ARM GAS  C:\Users\Administrator\AppData\Local\Temp\ccNLOfxN.s 			page 68


1388:main.c        **** #if card_normal //原功能
1389:main.c        **** //*************************************************************************************************
1390:main.c        **** // Function name	: CARD_Tick
1391:main.c        **** // Description		: 刷卡验证并处理
1392:main.c        **** // Parameter		: none
1393:main.c        **** // Return			: none
1394:main.c        **** //-------------------------------------------------------------------------------------------------
1395:main.c        **** // Info				: 
1396:main.c        **** //*************************************************************************************************
1397:main.c        **** void CARD_Tick(void)
1398:main.c        **** {
1399:main.c        **** 	uint8 i;
1400:main.c        **** 	uint8 ret;
1401:main.c        **** 	uint8 card_id[8];
1402:main.c        **** 	uint8 arr_time[4];
1403:main.c        **** 	uint32 cur_time;
1404:main.c        **** 	user_info_t user_info;
1405:main.c        ****     open_door_t openInfo_card;
1406:main.c        **** 	
1407:main.c        **** 	#if 0
1408:main.c        **** 	if ((ret = detect_nfc_card(card_id, CARD_UID_LEN)) != RET_OK)
1409:main.c        **** 	{
1410:main.c        **** 		goto Err_Check;
1411:main.c        **** 	}
1412:main.c        **** 	
1413:main.c        **** 	// 滤除不准确的卡ID
1414:main.c        **** 	if((card_id[0] == 0) && (card_id[1] == 0) &&(card_id[2] == 0) && (card_id[3] == 0))
1415:main.c        **** 	{
1416:main.c        **** 		return;
1417:main.c        **** 	}
1418:main.c        **** 	#endif
1419:main.c        **** 	
1420:main.c        **** 	if(RET_ERR == Read_nfc_card2(card_id))
1421:main.c        **** 		return;
1422:main.c        **** 	
1423:main.c        **** 		#if DBG_SOFT_ENNABLE
1424:main.c        **** 		//memset(cur_readuid, 0, 8);
1425:main.c        **** 		//memcpy(card_id,card_id,8);
1426:main.c        **** 		DBG_SOFT_PutStr("\nCur Read card UID:\n");
1427:main.c        **** 		DBG_SOFT_PrintfHex(card_id,8,16);
1428:main.c        **** 		#endif	
1429:main.c        **** 	
1430:main.c        **** 	for (i = 0; i < 2; i++)
1431:main.c        **** 	{
1432:main.c        **** 	    Led_AllOff();
1433:main.c        **** 		delay_with_ble(100);
1434:main.c        **** 		Led_BlueON();
1435:main.c        **** 		delay_with_ble(100);
1436:main.c        **** 	}
1437:main.c        **** 	
1438:main.c        **** 	cur_time = (uint32)RTC_GetUnixTime();
1439:main.c        **** 	LONG2BYTE(cur_time, arr_time);
1440:main.c        **** 	memcpy(user_info.card_uid, card_id, CARD_UID_LEN);
1441:main.c        **** 	memcpy(user_info.valid_time, arr_time, 4);
1442:main.c        **** 	
1443:main.c        **** 	if (1 == UserData_Judge_If_Open(&user_info))
1444:main.c        **** 	{
ARM GAS  C:\Users\Administrator\AppData\Local\Temp\ccNLOfxN.s 			page 69


1445:main.c        **** 		Led_GreenON();
1446:main.c        **** 		DoorOpen();
1447:main.c        **** 		VoicePlay((uint8)Sound_VERIFY_SUCCESS);
1448:main.c        **** 		
1449:main.c        **** 		memset(&openInfo_card, 0, sizeof(open_door_t));
1450:main.c        **** 		memcpy(openInfo_card.card_uid, card_id, CARD_UID_LEN);
1451:main.c        **** 		memcpy(openInfo_card.open_time, arr_time, 4);
1452:main.c        **** 		memset(arr_time, 0, 4);
1453:main.c        **** 		memcpy(openInfo_card.send_time, arr_time, 4);
1454:main.c        **** 		Write_OpenInfo(&openInfo_card, CARD_OPEN);
1455:main.c        **** 		
1456:main.c        **** 		if (gprs_state == NORMAL_COMM)
1457:main.c        **** 		{
1458:main.c        **** 			cur_time = (uint32)RTC_GetUnixTime();
1459:main.c        **** 			if(cur_time > next_allupload_time)
1460:main.c        **** 			{
1461:main.c        **** 				next_allupload_time = cur_time + 15;
1462:main.c        **** 				send_upload_open_info(&openInfo_card, CARD_UID_LEN, CARD_OPEN);				
1463:main.c        **** 			}						
1464:main.c        **** 		}
1465:main.c        **** 		
1466:main.c        **** 		DoorClose();
1467:main.c        **** 	}
1468:main.c        **** 	else
1469:main.c        **** 	{
1470:main.c        **** 		Card_ErrCount++;
1471:main.c        **** 		Led_RedON();
1472:main.c        **** 		VoicePlay(Sound_VERIFY_FAILURE);
1473:main.c        **** 		delay_with_ble(800);
1474:main.c        **** 	}
1475:main.c        **** 	Led_SetState(LED_State);										// LED的状态切回刷卡前的状态		//
1476:main.c        **** 	
1477:main.c        **** Err_Check:
1478:main.c        **** 	if (Card_ErrCount >= 5)
1479:main.c        **** 	{
1480:main.c        **** 		Card_ErrCount = 0;
1481:main.c        **** 		if (gprs_state == NORMAL_COMM)
1482:main.c        **** 		{
1483:main.c        **** 			EnterGuide_State = ALARM_ErrOpenQty;
1484:main.c        **** 			send_alarm_info(EnterGuide_State);						// 开门错误5次报警					//
1485:main.c        **** 		}
1486:main.c        **** 	}
1487:main.c        **** }
1488:main.c        **** #endif
1489:main.c        **** 
1490:main.c        **** //*************************************************************************************************
1491:main.c        **** // Function name	: KeyOpen_Tick
1492:main.c        **** // Description		: 机械开门的处理
1493:main.c        **** // Parameter		: none
1494:main.c        **** // Return			: none
1495:main.c        **** //-------------------------------------------------------------------------------------------------
1496:main.c        **** // Info				: 
1497:main.c        **** //*************************************************************************************************
1498:main.c        **** void KeyOpen_Tick(void)
1499:main.c        **** {
 2155              		.loc 1 1499 0
 2156              		.cfi_startproc
ARM GAS  C:\Users\Administrator\AppData\Local\Temp\ccNLOfxN.s 			page 70


 2157 0000 30B5     		push	{r4, r5, lr}
 2158              		.cfi_def_cfa_offset 12
 2159              		.cfi_offset 4, -12
 2160              		.cfi_offset 5, -8
 2161              		.cfi_offset 14, -4
 2162 0002 89B0     		sub	sp, sp, #36
 2163              		.cfi_def_cfa_offset 48
1500:main.c        **** 	uint8 card_id[8] = {0xff, 0xff, 0xff, 0xff, 0xff, 0xff, 0xff, 0x02};
 2164              		.loc 1 1500 0
 2165 0004 2749     		ldr	r1, .L193
 2166 0006 0822     		mov	r2, #8
 2167 0008 02A8     		add	r0, sp, #8
 2168 000a FFF7FEFF 		bl	memcpy
 2169              	.LVL220:
1501:main.c        **** 	uint8 arr_time[4];
1502:main.c        **** 	uint32 time_tmp;
1503:main.c        ****     open_door_t openInfo_Key;
1504:main.c        **** 	
1505:main.c        **** 	
1506:main.c        **** 	//if ((0 == KEY_OPEN_Read()) && (cur_time > next_gprs_upload_time))
1507:main.c        **** 	if (0 == KEY_OPEN_Read())
 2170              		.loc 1 1507 0
 2171 000e FFF7FEFF 		bl	KEY_OPEN_Read
 2172              	.LVL221:
 2173 0012 0028     		cmp	r0, #0
 2174 0014 43D1     		bne	.L186
1508:main.c        **** 	{
1509:main.c        **** 		delay_with_ble(5);
 2175              		.loc 1 1509 0
 2176 0016 0530     		add	r0, r0, #5
 2177 0018 FFF7FEFF 		bl	delay_with_ble
 2178              	.LVL222:
1510:main.c        **** 		if (0 == KEY_OPEN_Read())
 2179              		.loc 1 1510 0
 2180 001c FFF7FEFF 		bl	KEY_OPEN_Read
 2181              	.LVL223:
 2182 0020 051E     		sub	r5, r0, #0
 2183 0022 3CD1     		bne	.L186
1511:main.c        **** 		{
1512:main.c        **** 			//test_readopeninfo();//==
1513:main.c        **** 			
1514:main.c        **** 			Led_GreenON();
 2184              		.loc 1 1514 0
 2185 0024 FFF7FEFF 		bl	Led_GreenON
 2186              	.LVL224:
1515:main.c        **** 			DoorOpen();
 2187              		.loc 1 1515 0
 2188 0028 FFF7FEFF 		bl	DoorOpen
 2189              	.LVL225:
1516:main.c        **** 			VoicePlay((uint8)Sound_VERIFY_SUCCESS);
 2190              		.loc 1 1516 0
 2191 002c 0A20     		mov	r0, #10
 2192 002e FFF7FEFF 		bl	VoicePlay
 2193              	.LVL226:
1517:main.c        **** 			
1518:main.c        **** 			time_tmp = (uint32)RTC_GetUnixTime();						
 2194              		.loc 1 1518 0
ARM GAS  C:\Users\Administrator\AppData\Local\Temp\ccNLOfxN.s 			page 71


 2195 0032 FFF7FEFF 		bl	RTC_GetUnixTime
 2196              	.LVL227:
1519:main.c        **** 			LONG2BYTE(time_tmp, arr_time);
 2197              		.loc 1 1519 0
 2198 0036 01AB     		add	r3, sp, #4
 2199 0038 020E     		lsr	r2, r0, #24
 2200 003a 1A70     		strb	r2, [r3]
 2201 003c 020C     		lsr	r2, r0, #16
 2202 003e 5A70     		strb	r2, [r3, #1]
 2203 0040 020A     		lsr	r2, r0, #8
 2204 0042 9A70     		strb	r2, [r3, #2]
 2205 0044 D870     		strb	r0, [r3, #3]
1520:main.c        **** 			
1521:main.c        **** 			memset(&openInfo_Key, 0, sizeof(open_door_t));
 2206              		.loc 1 1521 0
 2207 0046 291C     		mov	r1, r5
 2208 0048 1022     		mov	r2, #16
1518:main.c        **** 			LONG2BYTE(time_tmp, arr_time);
 2209              		.loc 1 1518 0
 2210 004a 041C     		mov	r4, r0
 2211              	.LVL228:
 2212              		.loc 1 1521 0
 2213 004c 04A8     		add	r0, sp, #16
 2214              	.LVL229:
 2215 004e FFF7FEFF 		bl	memset
 2216              	.LVL230:
1522:main.c        **** 			memcpy(openInfo_Key.card_uid, card_id, CARD_UID_LEN);
 2217              		.loc 1 1522 0
 2218 0052 0822     		mov	r2, #8
 2219 0054 02A9     		add	r1, sp, #8
 2220 0056 04A8     		add	r0, sp, #16
 2221 0058 FFF7FEFF 		bl	memcpy
 2222              	.LVL231:
1523:main.c        **** 			memcpy(openInfo_Key.open_time, arr_time, 4);
 2223              		.loc 1 1523 0
 2224 005c 019B     		ldr	r3, [sp, #4]
1524:main.c        **** 			memset(arr_time, 0, 4);
1525:main.c        **** 			memcpy(openInfo_Key.send_time, arr_time, 4);
1526:main.c        **** 			Write_OpenInfo(&openInfo_Key, HAND_OPEN);
 2225              		.loc 1 1526 0
 2226 005e 04A8     		add	r0, sp, #16
 2227 0060 0821     		mov	r1, #8
1523:main.c        **** 			memcpy(openInfo_Key.open_time, arr_time, 4);
 2228              		.loc 1 1523 0
 2229 0062 0693     		str	r3, [sp, #24]
1524:main.c        **** 			memset(arr_time, 0, 4);
 2230              		.loc 1 1524 0
 2231 0064 0195     		str	r5, [sp, #4]
1525:main.c        **** 			Write_OpenInfo(&openInfo_Key, HAND_OPEN);
 2232              		.loc 1 1525 0
 2233 0066 0795     		str	r5, [sp, #28]
 2234              		.loc 1 1526 0
 2235 0068 FFF7FEFF 		bl	Write_OpenInfo
 2236              	.LVL232:
1527:main.c        **** 			
1528:main.c        **** 			if(time_tmp > next_allupload_time)									// 按键开门间隔15s才上报			//
 2237              		.loc 1 1528 0
ARM GAS  C:\Users\Administrator\AppData\Local\Temp\ccNLOfxN.s 			page 72


 2238 006c 0E4B     		ldr	r3, .L193+4
 2239 006e 1A68     		ldr	r2, [r3]
 2240 0070 9442     		cmp	r4, r2
 2241 0072 0AD9     		bls	.L191
1529:main.c        **** 			{
1530:main.c        **** 				DBG_SOFT_PutStr("\nKeyopen upload\n");
1531:main.c        **** 				next_allupload_time = time_tmp + 15;
 2242              		.loc 1 1531 0
 2243 0074 0F34     		add	r4, r4, #15
 2244              	.LVL233:
 2245 0076 1C60     		str	r4, [r3]
1532:main.c        **** 				if (gprs_state == NORMAL_COMM)
 2246              		.loc 1 1532 0
 2247 0078 0C4B     		ldr	r3, .L193+8
 2248 007a 1B78     		ldrb	r3, [r3]
 2249 007c 052B     		cmp	r3, #5
 2250 007e 04D1     		bne	.L191
1533:main.c        **** 				{
1534:main.c        **** 					send_upload_open_info(&openInfo_Key, CARD_UID_LEN, HAND_OPEN);
 2251              		.loc 1 1534 0
 2252 0080 0821     		mov	r1, #8
 2253 0082 04A8     		add	r0, sp, #16
 2254 0084 0A1C     		mov	r2, r1
 2255 0086 FFF7FEFF 		bl	send_upload_open_info
 2256              	.LVL234:
 2257              	.L191:
1535:main.c        **** 				}	
1536:main.c        **** 			}
1537:main.c        **** 			
1538:main.c        **** 			delay_with_ble(1000);
 2258              		.loc 1 1538 0
 2259 008a FA20     		mov	r0, #250
 2260 008c 8000     		lsl	r0, r0, #2
 2261 008e FFF7FEFF 		bl	delay_with_ble
 2262              	.LVL235:
1539:main.c        **** 			DoorClose();
 2263              		.loc 1 1539 0
 2264 0092 FFF7FEFF 		bl	DoorClose
 2265              	.LVL236:
1540:main.c        **** 	        Led_SetState(LED_State);
 2266              		.loc 1 1540 0
 2267 0096 064B     		ldr	r3, .L193+12
 2268 0098 587A     		ldrb	r0, [r3, #9]
 2269 009a FFF7FEFF 		bl	Led_SetState
 2270              	.LVL237:
 2271              	.L186:
1541:main.c        **** 		}
1542:main.c        **** 	}
1543:main.c        **** }
 2272              		.loc 1 1543 0
 2273 009e 09B0     		add	sp, sp, #36
 2274              		@ sp needed
 2275 00a0 30BD     		pop	{r4, r5, pc}
 2276              	.L194:
 2277 00a2 C046     		.align	2
 2278              	.L193:
 2279 00a4 00000000 		.word	.LANCHOR1
ARM GAS  C:\Users\Administrator\AppData\Local\Temp\ccNLOfxN.s 			page 73


 2280 00a8 00000000 		.word	next_allupload_time
 2281 00ac 00000000 		.word	gprs_state
 2282 00b0 00000000 		.word	.LANCHOR0
 2283              		.cfi_endproc
 2284              	.LFE88:
 2285              		.size	KeyOpen_Tick, .-KeyOpen_Tick
 2286              		.section	.text.FireOpen_Tick,"ax",%progbits
 2287              		.align	1
 2288              		.global	FireOpen_Tick
 2289              		.code	16
 2290              		.thumb_func
 2291              		.type	FireOpen_Tick, %function
 2292              	FireOpen_Tick:
 2293              	.LFB89:
1544:main.c        **** 
1545:main.c        **** //*************************************************************************************************
1546:main.c        **** // Function name	: FireOpen_Tick
1547:main.c        **** // Description		: 火警开门的处理
1548:main.c        **** // Parameter		: none
1549:main.c        **** // Return			: none
1550:main.c        **** //-------------------------------------------------------------------------------------------------
1551:main.c        **** // Info				: 
1552:main.c        **** //*************************************************************************************************
1553:main.c        **** void FireOpen_Tick(void)
1554:main.c        **** {
 2294              		.loc 1 1554 0
 2295              		.cfi_startproc
 2296 0000 10B5     		push	{r4, lr}
 2297              		.cfi_def_cfa_offset 8
 2298              		.cfi_offset 4, -8
 2299              		.cfi_offset 14, -4
1555:main.c        **** 	uint8 card_id[8] = {0xFF, 0xFF, 0xFF, 0xFF, 0xFF, 0xFF, 0xFF, 0x01};
 2300              		.loc 1 1555 0
 2301 0002 2449     		ldr	r1, .L202
1554:main.c        **** 	uint8 card_id[8] = {0xFF, 0xFF, 0xFF, 0xFF, 0xFF, 0xFF, 0xFF, 0x01};
 2302              		.loc 1 1554 0
 2303 0004 88B0     		sub	sp, sp, #32
 2304              		.cfi_def_cfa_offset 40
 2305              		.loc 1 1555 0
 2306 0006 0831     		add	r1, r1, #8
 2307 0008 0822     		mov	r2, #8
 2308 000a 02A8     		add	r0, sp, #8
 2309 000c FFF7FEFF 		bl	memcpy
 2310              	.LVL238:
1556:main.c        **** 	uint8 arr_time[4];
1557:main.c        **** 	uint32 cur_time;
1558:main.c        ****     open_door_t openInfo_FIRE;
1559:main.c        **** 	
1560:main.c        **** 	//if ((0 == FIRE_OPEN_Read()) && (cur_time > next_gprs_upload_time))
1561:main.c        **** 	if (0 == FIRE_OPEN_Read())
 2311              		.loc 1 1561 0
 2312 0010 FFF7FEFF 		bl	FIRE_OPEN_Read
 2313              	.LVL239:
 2314 0014 0028     		cmp	r0, #0
 2315 0016 3AD1     		bne	.L195
1562:main.c        **** 	{
1563:main.c        **** 		delay_with_ble(20);
ARM GAS  C:\Users\Administrator\AppData\Local\Temp\ccNLOfxN.s 			page 74


 2316              		.loc 1 1563 0
 2317 0018 1430     		add	r0, r0, #20
 2318 001a FFF7FEFF 		bl	delay_with_ble
 2319              	.LVL240:
1564:main.c        **** 		if (0 == FIRE_OPEN_Read())
 2320              		.loc 1 1564 0
 2321 001e FFF7FEFF 		bl	FIRE_OPEN_Read
 2322              	.LVL241:
 2323 0022 041E     		sub	r4, r0, #0
 2324 0024 33D1     		bne	.L195
1565:main.c        **** 		{
1566:main.c        **** 			Led_GreenON();
 2325              		.loc 1 1566 0
 2326 0026 FFF7FEFF 		bl	Led_GreenON
 2327              	.LVL242:
1567:main.c        **** 			DoorOpen();
 2328              		.loc 1 1567 0
 2329 002a FFF7FEFF 		bl	DoorOpen
 2330              	.LVL243:
1568:main.c        **** 			VoicePlay((uint8)Sound_VERIFY_SUCCESS);
 2331              		.loc 1 1568 0
 2332 002e 0A20     		mov	r0, #10
 2333 0030 FFF7FEFF 		bl	VoicePlay
 2334              	.LVL244:
1569:main.c        **** 	        			
1570:main.c        **** 			memset(&openInfo_FIRE, 0, sizeof(open_door_t));
 2335              		.loc 1 1570 0
 2336 0034 211C     		mov	r1, r4
 2337 0036 1022     		mov	r2, #16
 2338 0038 04A8     		add	r0, sp, #16
 2339 003a FFF7FEFF 		bl	memset
 2340              	.LVL245:
1571:main.c        **** 			memcpy(openInfo_FIRE.card_uid, card_id, CARD_UID_LEN);
 2341              		.loc 1 1571 0
 2342 003e 02A9     		add	r1, sp, #8
 2343 0040 0822     		mov	r2, #8
 2344 0042 04A8     		add	r0, sp, #16
 2345 0044 FFF7FEFF 		bl	memcpy
 2346              	.LVL246:
1572:main.c        **** 			memcpy(openInfo_FIRE.open_time, arr_time, 4);
 2347              		.loc 1 1572 0
 2348 0048 019B     		ldr	r3, [sp, #4]
1573:main.c        **** 			memset(arr_time, 0, 4);
1574:main.c        **** 			memcpy(openInfo_FIRE.send_time, arr_time, 4);
1575:main.c        **** 			Write_OpenInfo(&openInfo_FIRE, FIRE_OPEN);
 2349              		.loc 1 1575 0
 2350 004a 04A8     		add	r0, sp, #16
 2351 004c 0521     		mov	r1, #5
1572:main.c        **** 			memcpy(openInfo_FIRE.open_time, arr_time, 4);
 2352              		.loc 1 1572 0
 2353 004e 0693     		str	r3, [sp, #24]
1573:main.c        **** 			memset(arr_time, 0, 4);
 2354              		.loc 1 1573 0
 2355 0050 0194     		str	r4, [sp, #4]
1574:main.c        **** 			Write_OpenInfo(&openInfo_FIRE, FIRE_OPEN);
 2356              		.loc 1 1574 0
 2357 0052 0794     		str	r4, [sp, #28]
ARM GAS  C:\Users\Administrator\AppData\Local\Temp\ccNLOfxN.s 			page 75


 2358              		.loc 1 1575 0
 2359 0054 FFF7FEFF 		bl	Write_OpenInfo
 2360              	.LVL247:
1576:main.c        **** 			
1577:main.c        **** 			if (gprs_state == NORMAL_COMM)
 2361              		.loc 1 1577 0
 2362 0058 0F4B     		ldr	r3, .L202+4
 2363 005a 1C78     		ldrb	r4, [r3]
 2364 005c 052C     		cmp	r4, #5
 2365 005e 0CD1     		bne	.L200
1578:main.c        **** 			{
1579:main.c        **** 				cur_time = (uint32)RTC_GetUnixTime();
 2366              		.loc 1 1579 0
 2367 0060 FFF7FEFF 		bl	RTC_GetUnixTime
 2368              	.LVL248:
1580:main.c        **** 				if(cur_time > next_allupload_time)
 2369              		.loc 1 1580 0
 2370 0064 0D4B     		ldr	r3, .L202+8
 2371 0066 1A68     		ldr	r2, [r3]
 2372 0068 9042     		cmp	r0, r2
 2373 006a 06D9     		bls	.L200
1581:main.c        **** 				{
1582:main.c        **** 					next_allupload_time = cur_time + 15;
 2374              		.loc 1 1582 0
 2375 006c 0F30     		add	r0, r0, #15
 2376              	.LVL249:
 2377 006e 1860     		str	r0, [r3]
1583:main.c        **** 					send_upload_open_info(&openInfo_FIRE, CARD_UID_LEN, FIRE_OPEN);
 2378              		.loc 1 1583 0
 2379 0070 0821     		mov	r1, #8
 2380 0072 04A8     		add	r0, sp, #16
 2381              	.LVL250:
 2382 0074 221C     		mov	r2, r4
 2383 0076 FFF7FEFF 		bl	send_upload_open_info
 2384              	.LVL251:
 2385              	.L200:
1584:main.c        **** 				}						
1585:main.c        **** 			}
1586:main.c        **** 			
1587:main.c        **** 			delay_with_ble(2000);
 2386              		.loc 1 1587 0
 2387 007a FA20     		mov	r0, #250
 2388 007c C000     		lsl	r0, r0, #3
 2389 007e FFF7FEFF 		bl	delay_with_ble
 2390              	.LVL252:
1588:main.c        **** 			DoorClose();
 2391              		.loc 1 1588 0
 2392 0082 FFF7FEFF 		bl	DoorClose
 2393              	.LVL253:
1589:main.c        **** 			Led_SetState(LED_State);								// LED的状态切回刷卡前的状态		//
 2394              		.loc 1 1589 0
 2395 0086 064B     		ldr	r3, .L202+12
 2396 0088 587A     		ldrb	r0, [r3, #9]
 2397 008a FFF7FEFF 		bl	Led_SetState
 2398              	.LVL254:
 2399              	.L195:
1590:main.c        **** 		}
ARM GAS  C:\Users\Administrator\AppData\Local\Temp\ccNLOfxN.s 			page 76


1591:main.c        **** 	}
1592:main.c        **** }
 2400              		.loc 1 1592 0
 2401 008e 08B0     		add	sp, sp, #32
 2402              		@ sp needed
 2403 0090 10BD     		pop	{r4, pc}
 2404              	.L203:
 2405 0092 C046     		.align	2
 2406              	.L202:
 2407 0094 00000000 		.word	.LANCHOR1
 2408 0098 00000000 		.word	gprs_state
 2409 009c 00000000 		.word	next_allupload_time
 2410 00a0 00000000 		.word	.LANCHOR0
 2411              		.cfi_endproc
 2412              	.LFE89:
 2413              		.size	FireOpen_Tick, .-FireOpen_Tick
 2414              		.section	.text.DefendAlarm_Tick,"ax",%progbits
 2415              		.align	1
 2416              		.global	DefendAlarm_Tick
 2417              		.code	16
 2418              		.thumb_func
 2419              		.type	DefendAlarm_Tick, %function
 2420              	DefendAlarm_Tick:
 2421              	.LFB90:
1593:main.c        **** 
1594:main.c        **** #if 0	// 之前版本
1595:main.c        **** //*************************************************************************************************
1596:main.c        **** // Function name	: DefendAlarm_Tick
1597:main.c        **** // Description		: 防撬报警的处理
1598:main.c        **** // Parameter		: none
1599:main.c        **** // Return			: none
1600:main.c        **** //-------------------------------------------------------------------------------------------------
1601:main.c        **** // Info				: 
1602:main.c        **** //*************************************************************************************************
1603:main.c        **** void DefendAlarm_Tick(void)
1604:main.c        **** {
1605:main.c        **** 	//if ((0 == DEFEND_ALARM_Read()) && (cur_time > next_gprs_upload_time))
1606:main.c        **** 	if (0 == DEFEND_ALARM_Read())
1607:main.c        **** 	{
1608:main.c        **** 		delay_with_ble(20);
1609:main.c        **** 		if (0 == DEFEND_ALARM_Read())
1610:main.c        **** 		{
1611:main.c        **** 			if (gprs_state == NORMAL_COMM)
1612:main.c        **** 			{
1613:main.c        **** 
1614:main.c        **** 				EnterGuide_State = ALARM_Destroy;
1615:main.c        **** 				send_alarm_info(EnterGuide_State);
1616:main.c        **** 				next_gprs_upload_time = cur_time + 10;
1617:main.c        **** 			}
1618:main.c        **** 		}
1619:main.c        **** 	}
1620:main.c        **** }
1621:main.c        **** #endif
1622:main.c        **** 
1623:main.c        **** #if 1
1624:main.c        **** //*************************************************************************************************
1625:main.c        **** // Function name	: DefendAlarm_Tick
ARM GAS  C:\Users\Administrator\AppData\Local\Temp\ccNLOfxN.s 			page 77


1626:main.c        **** // Description		: 防撬报警的处理
1627:main.c        **** // Parameter		: none
1628:main.c        **** // Return			: none
1629:main.c        **** //-------------------------------------------------------------------------------------------------
1630:main.c        **** // Info				: 只是上报一次，装回撤销报警
1631:main.c        **** //*************************************************************************************************
1632:main.c        **** void DefendAlarm_Tick(void)
1633:main.c        **** {
 2422              		.loc 1 1633 0
 2423              		.cfi_startproc
 2424 0000 08B5     		push	{r3, lr}
 2425              		.cfi_def_cfa_offset 8
 2426              		.cfi_offset 3, -8
 2427              		.cfi_offset 14, -4
1634:main.c        **** 	//if ((0 == DEFEND_ALARM_Read()) && (cur_time > next_gprs_upload_time))
1635:main.c        **** 	if (0 == DEFEND_ALARM_Read())
 2428              		.loc 1 1635 0
 2429 0002 FFF7FEFF 		bl	DEFEND_ALARM_Read
 2430              	.LVL255:
 2431 0006 0028     		cmp	r0, #0
 2432 0008 19D1     		bne	.L205
1636:main.c        **** 	{
1637:main.c        **** 		delay_with_ble(20);
 2433              		.loc 1 1637 0
 2434 000a 1430     		add	r0, r0, #20
 2435 000c FFF7FEFF 		bl	delay_with_ble
 2436              	.LVL256:
1638:main.c        **** 		if (0 == DEFEND_ALARM_Read())
 2437              		.loc 1 1638 0
 2438 0010 FFF7FEFF 		bl	DEFEND_ALARM_Read
 2439              	.LVL257:
 2440 0014 0028     		cmp	r0, #0
 2441 0016 15D1     		bne	.L204
1639:main.c        **** 		{
1640:main.c        **** 			VoicePlay((uint8)Sound_ShortDI);				// 若拆锁 声音一直响 
 2442              		.loc 1 1640 0
 2443 0018 0F30     		add	r0, r0, #15
 2444 001a FFF7FEFF 		bl	VoicePlay
 2445              	.LVL258:
1641:main.c        **** 			
1642:main.c        **** 			if ((next_defend_flag == 0)&&(gprs_state == NORMAL_COMM))
 2446              		.loc 1 1642 0
 2447 001e 0A4B     		ldr	r3, .L209
 2448 0020 1A78     		ldrb	r2, [r3]
 2449 0022 002A     		cmp	r2, #0
 2450 0024 0ED1     		bne	.L204
 2451              		.loc 1 1642 0 is_stmt 0 discriminator 1
 2452 0026 094A     		ldr	r2, .L209+4
 2453 0028 1278     		ldrb	r2, [r2]
 2454 002a 052A     		cmp	r2, #5
 2455 002c 0AD1     		bne	.L204
1643:main.c        **** 			{
1644:main.c        **** 				// 报一次
1645:main.c        **** 				//VoicePlay((uint8)Sound_ShortDI);
1646:main.c        **** 				next_defend_flag = 1;						// 上报服务器只是上报一次
1647:main.c        **** 				EnterGuide_State = ALARM_Destroy;
 2456              		.loc 1 1647 0 is_stmt 1
ARM GAS  C:\Users\Administrator\AppData\Local\Temp\ccNLOfxN.s 			page 78


 2457 002e 0220     		mov	r0, #2
1646:main.c        **** 				EnterGuide_State = ALARM_Destroy;
 2458              		.loc 1 1646 0
 2459 0030 043A     		sub	r2, r2, #4
 2460 0032 1A70     		strb	r2, [r3]
 2461              		.loc 1 1647 0
 2462 0034 064B     		ldr	r3, .L209+8
 2463 0036 1872     		strb	r0, [r3, #8]
1648:main.c        **** 				send_alarm_info(EnterGuide_State);
 2464              		.loc 1 1648 0
 2465 0038 FFF7FEFF 		bl	send_alarm_info
 2466              	.LVL259:
 2467 003c 02E0     		b	.L204
 2468              	.L205:
1649:main.c        **** 			}
1650:main.c        **** 		}
1651:main.c        **** 	}
1652:main.c        **** 	else
1653:main.c        **** 	{
1654:main.c        **** 		next_defend_flag = 0;								//  正常了 说明锁装回 恢复标志位
 2469              		.loc 1 1654 0
 2470 003e 0022     		mov	r2, #0
 2471 0040 014B     		ldr	r3, .L209
 2472 0042 1A70     		strb	r2, [r3]
 2473              	.L204:
1655:main.c        **** 	}
1656:main.c        **** }
 2474              		.loc 1 1656 0
 2475              		@ sp needed
 2476 0044 08BD     		pop	{r3, pc}
 2477              	.L210:
 2478 0046 C046     		.align	2
 2479              	.L209:
 2480 0048 00000000 		.word	next_defend_flag
 2481 004c 00000000 		.word	gprs_state
 2482 0050 00000000 		.word	.LANCHOR0
 2483              		.cfi_endproc
 2484              	.LFE90:
 2485              		.size	DefendAlarm_Tick, .-DefendAlarm_Tick
 2486              		.global	__aeabi_uidivmod
 2487              		.section	.text.UploadOpenInfo_Tick,"ax",%progbits
 2488              		.align	1
 2489              		.global	UploadOpenInfo_Tick
 2490              		.code	16
 2491              		.thumb_func
 2492              		.type	UploadOpenInfo_Tick, %function
 2493              	UploadOpenInfo_Tick:
 2494              	.LFB91:
1657:main.c        **** #endif
1658:main.c        **** 
1659:main.c        **** //*************************************************************************************************
1660:main.c        **** // Function name	: UploadOpenInfo_Tick
1661:main.c        **** // Description		: 开门信息轮训上报处理
1662:main.c        **** // Parameter		: none
1663:main.c        **** // Return			: none
1664:main.c        **** //-------------------------------------------------------------------------------------------------
1665:main.c        **** // Info				: 
ARM GAS  C:\Users\Administrator\AppData\Local\Temp\ccNLOfxN.s 			page 79


1666:main.c        **** //*************************************************************************************************
1667:main.c        **** #if 1
1668:main.c        **** void UploadOpenInfo_Tick(void)
1669:main.c        **** {
 2495              		.loc 1 1669 0
 2496              		.cfi_startproc
 2497              	.LVL260:
1670:main.c        **** 	uint16 OpenQty = 0;
1671:main.c        **** 	uint8  open_flag[256] = {0};
 2498              		.loc 1 1671 0
 2499 0000 8022     		mov	r2, #128
1669:main.c        **** 	uint16 OpenQty = 0;
 2500              		.loc 1 1669 0
 2501 0002 F0B5     		push	{r4, r5, r6, r7, lr}
 2502              		.cfi_def_cfa_offset 20
 2503              		.cfi_offset 4, -20
 2504              		.cfi_offset 5, -16
 2505              		.cfi_offset 6, -12
 2506              		.cfi_offset 7, -8
 2507              		.cfi_offset 14, -4
 2508 0004 C9B0     		sub	sp, sp, #292
 2509              		.cfi_def_cfa_offset 312
 2510              		.loc 1 1671 0
 2511 0006 08AE     		add	r6, sp, #32
 2512 0008 5200     		lsl	r2, r2, #1
 2513 000a 301C     		mov	r0, r6
 2514 000c 0021     		mov	r1, #0
 2515 000e FFF7FEFF 		bl	memset
 2516              	.LVL261:
1672:main.c        **** 	open_door_t repet_info;
1673:main.c        **** 	uint16 i;
1674:main.c        **** 	
1675:main.c        **** 	//1.定时轮询
1676:main.c        **** 	if (gprs_state == NORMAL_COMM)
 2517              		.loc 1 1676 0
 2518 0012 374B     		ldr	r3, .L232
 2519 0014 1A78     		ldrb	r2, [r3]
 2520 0016 0093     		str	r3, [sp]
 2521 0018 052A     		cmp	r2, #5
 2522 001a 66D1     		bne	.L211
1677:main.c        **** 	{
1678:main.c        **** 		cur_time = (uint32)RTC_GetUnixTime();
 2523              		.loc 1 1678 0
 2524 001c FFF7FEFF 		bl	RTC_GetUnixTime
 2525              	.LVL262:
1679:main.c        **** 		if((cur_time > next_gprs_upload_time) && (uploadpolling_stop != 1))
 2526              		.loc 1 1679 0
 2527 0020 344B     		ldr	r3, .L232+4
1678:main.c        **** 		if((cur_time > next_gprs_upload_time) && (uploadpolling_stop != 1))
 2528              		.loc 1 1678 0
 2529 0022 354A     		ldr	r2, .L232+8
 2530              		.loc 1 1679 0
 2531 0024 1969     		ldr	r1, [r3, #16]
1678:main.c        **** 		if((cur_time > next_gprs_upload_time) && (uploadpolling_stop != 1))
 2532              		.loc 1 1678 0
 2533 0026 1060     		str	r0, [r2]
 2534 0028 0192     		str	r2, [sp, #4]
ARM GAS  C:\Users\Administrator\AppData\Local\Temp\ccNLOfxN.s 			page 80


 2535 002a 0293     		str	r3, [sp, #8]
 2536              		.loc 1 1679 0
 2537 002c 8842     		cmp	r0, r1
 2538 002e 5CD9     		bls	.L211
 2539              		.loc 1 1679 0 is_stmt 0 discriminator 1
 2540 0030 324B     		ldr	r3, .L232+12
 2541 0032 1A78     		ldrb	r2, [r3]
 2542 0034 0393     		str	r3, [sp, #12]
 2543 0036 012A     		cmp	r2, #1
 2544 0038 57D0     		beq	.L211
1680:main.c        **** 		{		
1681:main.c        **** 
1682:main.c        **** 			OpenQty = Read_Open_Qty();
 2545              		.loc 1 1682 0 is_stmt 1
 2546 003a FFF7FEFF 		bl	Read_Open_Qty
 2547              	.LVL263:
1683:main.c        **** 			OpenQty %= MAX_OPEN_NUM; 
1684:main.c        **** 			W25QXX_Read(open_flag, (OPEN_FLAG_BASE + openinfopage_offset*256), 256);
 2548              		.loc 1 1684 0
 2549 003e 8022     		mov	r2, #128
 2550 0040 2F4D     		ldr	r5, .L232+16
1682:main.c        **** 			OpenQty %= MAX_OPEN_NUM; 
 2551              		.loc 1 1682 0
 2552 0042 071C     		mov	r7, r0
 2553              	.LVL264:
 2554              		.loc 1 1684 0
 2555 0044 2988     		ldrh	r1, [r5]
 2556 0046 301C     		mov	r0, r6
 2557 0048 1A31     		add	r1, r1, #26
 2558 004a 0902     		lsl	r1, r1, #8
 2559 004c 5200     		lsl	r2, r2, #1
 2560 004e FFF7FEFF 		bl	W25QXX_Read
 2561              	.LVL265:
 2562 0052 0023     		mov	r3, #0
 2563              	.LVL266:
 2564              	.L216:
1685:main.c        **** 			for(i = 0; i < 256; i++)
1686:main.c        **** 			{
1687:main.c        **** 
1688:main.c        **** 				if((0x80 != (0x80 & open_flag[i])) && (open_flag[i] != 0) && (open_flag[i] != 0Xff))
 2565              		.loc 1 1688 0
 2566 0054 F256     		ldrsb	r2, [r6, r3]
 2567 0056 9CB2     		uxth	r4, r3
 2568              	.LVL267:
 2569 0058 002A     		cmp	r2, #0
 2570 005a 05DC     		bgt	.L215
 2571              	.LVL268:
1685:main.c        **** 			for(i = 0; i < 256; i++)
 2572              		.loc 1 1685 0 discriminator 2
 2573 005c 8022     		mov	r2, #128
 2574 005e 0133     		add	r3, r3, #1
 2575              	.LVL269:
 2576 0060 5200     		lsl	r2, r2, #1
 2577 0062 9342     		cmp	r3, r2
 2578 0064 F6D1     		bne	.L216
 2579 0066 04E0     		b	.L230
 2580              	.LVL270:
ARM GAS  C:\Users\Administrator\AppData\Local\Temp\ccNLOfxN.s 			page 81


 2581              	.L215:
1689:main.c        **** 					break;
1690:main.c        **** 			}
1691:main.c        **** 			DBG_SOFT_PutStr("\n after find loop,i = ");
1692:main.c        **** 			DBG_SOFT_PrintfHex(&i,1,16);		
1693:main.c        **** 			
1694:main.c        **** 			if(i == 256)
1695:main.c        **** 			{
1696:main.c        **** 				if((openinfopage_offset + 1) < (OpenQty/256 + (OpenQty%256 ? 1:0)))
1697:main.c        **** 					openinfopage_offset++;								//非最后一页
1698:main.c        **** 				else
1699:main.c        **** 				{
1700:main.c        **** 					uploadpolling_stop = 1;
1701:main.c        **** 					DBG_SOFT_PutStr("\npolling_stop: ");
1702:main.c        **** 					DBG_SOFT_PrintfHex(&uploadpolling_stop,1,16);
1703:main.c        **** 				}
1704:main.c        **** 				DBG_SOFT_PutStr("\nsend_upload_open_info loop,page_offset= ");
1705:main.c        **** 			DBG_SOFT_PrintfHex(&openinfopage_offset,1,16);
1706:main.c        **** 			}
1707:main.c        **** 			else
1708:main.c        **** 			{	
1709:main.c        **** 				//==W25QXX_Read((uint8 *)&repet_info, (OPEN_INFO_BASE + i*sizeof(open_door_t)), sizeof(open_doo
1710:main.c        **** 			#if 1
1711:main.c        **** 			if((i == last_index) && (i != 0))
 2582              		.loc 1 1711 0
 2583 0068 264B     		ldr	r3, .L232+20
 2584 006a 1A88     		ldrh	r2, [r3]
 2585 006c A242     		cmp	r2, r4
 2586 006e 27D1     		bne	.L219
 2587 0070 13E0     		b	.L231
 2588              	.LVL271:
 2589              	.L230:
1683:main.c        **** 			W25QXX_Read(open_flag, (OPEN_FLAG_BASE + openinfopage_offset*256), 256);
 2590              		.loc 1 1683 0
 2591 0072 381C     		mov	r0, r7
 2592 0074 2449     		ldr	r1, .L232+24
 2593 0076 FFF7FEFF 		bl	__aeabi_uidivmod
 2594              	.LVL272:
 2595 007a 89B2     		uxth	r1, r1
1696:main.c        **** 					openinfopage_offset++;								//非最后一页
 2596              		.loc 1 1696 0
 2597 007c 0A0A     		lsr	r2, r1, #8
 2598 007e C9B2     		uxtb	r1, r1
 2599 0080 481E     		sub	r0, r1, #1
 2600 0082 8141     		sbc	r1, r1, r0
 2601 0084 2B88     		ldrh	r3, [r5]
 2602 0086 5118     		add	r1, r2, r1
 2603 0088 0133     		add	r3, r3, #1
 2604 008a 8B42     		cmp	r3, r1
 2605 008c 01DA     		bge	.L220
1697:main.c        **** 				else
 2606              		.loc 1 1697 0
 2607 008e 2B80     		strh	r3, [r5]
 2608 0090 26E0     		b	.L221
 2609              	.L220:
1700:main.c        **** 					DBG_SOFT_PutStr("\npolling_stop: ");
 2610              		.loc 1 1700 0
ARM GAS  C:\Users\Administrator\AppData\Local\Temp\ccNLOfxN.s 			page 82


 2611 0092 0123     		mov	r3, #1
 2612 0094 039A     		ldr	r2, [sp, #12]
 2613 0096 1370     		strb	r3, [r2]
 2614 0098 22E0     		b	.L221
 2615              	.LVL273:
 2616              	.L231:
 2617              		.loc 1 1711 0 discriminator 1
 2618 009a 002C     		cmp	r4, #0
 2619 009c 10D0     		beq	.L219
1712:main.c        **** 			{
1713:main.c        **** 				uploadflag_cnt++;
 2620              		.loc 1 1713 0
 2621 009e 1B4F     		ldr	r7, .L232+28
 2622              	.LVL274:
 2623 00a0 3B78     		ldrb	r3, [r7]
 2624 00a2 0133     		add	r3, r3, #1
 2625 00a4 DBB2     		uxtb	r3, r3
 2626 00a6 3B70     		strb	r3, [r7]
1714:main.c        **** 				if(uploadflag_cnt >= 5)
 2627              		.loc 1 1714 0
 2628 00a8 042B     		cmp	r3, #4
 2629 00aa 0AD9     		bls	.L222
1715:main.c        **** 				{
1716:main.c        **** 					DBG_SOFT_PutStr("\nset opendateflag：");
1717:main.c        **** 					DBG_SOFT_PrintfHex((uint8 *)&uploadflag_cnt,1,16);
1718:main.c        **** 					Write_Open_UploadFlag(i + openinfopage_offset*256, TRUE);		// 重复超过5次 置位该位 
 2630              		.loc 1 1718 0
 2631 00ac 2888     		ldrh	r0, [r5]
 2632 00ae 0121     		mov	r1, #1
 2633 00b0 0002     		lsl	r0, r0, #8
 2634 00b2 2018     		add	r0, r4, r0
 2635 00b4 80B2     		uxth	r0, r0
 2636 00b6 FFF7FEFF 		bl	Write_Open_UploadFlag
 2637              	.LVL275:
1719:main.c        **** 					uploadflag_cnt = 0;
 2638              		.loc 1 1719 0
 2639 00ba 0023     		mov	r3, #0
 2640 00bc 3B70     		strb	r3, [r7]
 2641 00be 00E0     		b	.L222
 2642              	.LVL276:
 2643              	.L219:
1720:main.c        **** 				}
1721:main.c        **** 			}
1722:main.c        **** 			else
1723:main.c        **** 			{
1724:main.c        **** 				last_index = i;
 2644              		.loc 1 1724 0
 2645 00c0 1C80     		strh	r4, [r3]
 2646              	.LVL277:
 2647              	.L222:
1725:main.c        **** 			}
1726:main.c        **** 			#endif
1727:main.c        **** 				Read_OpenInfo(i, (open_door_t *)&repet_info);
 2648              		.loc 1 1727 0
 2649 00c2 201C     		mov	r0, r4
 2650 00c4 04A9     		add	r1, sp, #16
 2651 00c6 FFF7FEFF 		bl	Read_OpenInfo
ARM GAS  C:\Users\Administrator\AppData\Local\Temp\ccNLOfxN.s 			page 83


 2652              	.LVL278:
1728:main.c        **** 				DBG_SOFT_PutStr("\n repet_info :\n");
1729:main.c        **** 				DBG_SOFT_PrintfHex((uint8 *)&repet_info,sizeof(open_door_t),16);
1730:main.c        **** 				//2.条件上报
1731:main.c        **** 				if (gprs_state == NORMAL_COMM)
 2653              		.loc 1 1731 0
 2654 00ca 009B     		ldr	r3, [sp]
 2655 00cc 1B78     		ldrb	r3, [r3]
 2656 00ce 052B     		cmp	r3, #5
 2657 00d0 06D1     		bne	.L221
1732:main.c        **** 				{	
1733:main.c        **** 					send_upload_open_info(&repet_info, CARD_UID_LEN, (open_flag[i] & 0x7f));
 2658              		.loc 1 1733 0
 2659 00d2 325D     		ldrb	r2, [r6, r4]
 2660 00d4 7A33     		add	r3, r3, #122
 2661 00d6 1A40     		and	r2, r3
 2662 00d8 04A8     		add	r0, sp, #16
 2663 00da 0821     		mov	r1, #8
 2664 00dc FFF7FEFF 		bl	send_upload_open_info
 2665              	.LVL279:
 2666              	.L221:
1734:main.c        **** 					//next_gprs_upload_time = cur_time + 10;
1735:main.c        **** 				}
1736:main.c        **** 			}
1737:main.c        **** 			next_gprs_upload_time = cur_time + 60;					//轮训一次就加1min间隔 不管是否上报
 2667              		.loc 1 1737 0
 2668 00e0 019B     		ldr	r3, [sp, #4]
 2669 00e2 029A     		ldr	r2, [sp, #8]
 2670 00e4 1B68     		ldr	r3, [r3]
 2671 00e6 3C33     		add	r3, r3, #60
 2672 00e8 1361     		str	r3, [r2, #16]
 2673              	.L211:
1738:main.c        **** 		}	
1739:main.c        **** 	}
1740:main.c        **** }
 2674              		.loc 1 1740 0
 2675 00ea 49B0     		add	sp, sp, #292
 2676              		@ sp needed
 2677 00ec F0BD     		pop	{r4, r5, r6, r7, pc}
 2678              	.L233:
 2679 00ee C046     		.align	2
 2680              	.L232:
 2681 00f0 00000000 		.word	gprs_state
 2682 00f4 00000000 		.word	.LANCHOR0
 2683 00f8 00000000 		.word	cur_time
 2684 00fc 00000000 		.word	uploadpolling_stop
 2685 0100 00000000 		.word	openinfopage_offset
 2686 0104 00000000 		.word	last_index
 2687 0108 88130000 		.word	5000
 2688 010c 00000000 		.word	uploadflag_cnt
 2689              		.cfi_endproc
 2690              	.LFE91:
 2691              		.size	UploadOpenInfo_Tick, .-UploadOpenInfo_Tick
 2692              		.section	.text.Set_DeviceMacAndName,"ax",%progbits
 2693              		.align	1
 2694              		.global	Set_DeviceMacAndName
 2695              		.code	16
ARM GAS  C:\Users\Administrator\AppData\Local\Temp\ccNLOfxN.s 			page 84


 2696              		.thumb_func
 2697              		.type	Set_DeviceMacAndName, %function
 2698              	Set_DeviceMacAndName:
 2699              	.LFB92:
1741:main.c        **** #endif
1742:main.c        **** 
1743:main.c        **** //*************************************************************************************************
1744:main.c        **** // Function name	: Set_DeviceMacAndName
1745:main.c        **** // Description		: 设置设备的Mac和Name
1746:main.c        **** // Parameter		: mac	: mac地址
1747:main.c        **** //					: name	: 广播名称
1748:main.c        **** // Return			: none
1749:main.c        **** //-------------------------------------------------------------------------------------------------
1750:main.c        **** // Info				: 
1751:main.c        **** //*************************************************************************************************
1752:main.c        **** void Set_DeviceMacAndName(char8 *mac, char8 *name)
1753:main.c        **** {
 2700              		.loc 1 1753 0
 2701              		.cfi_startproc
 2702              	.LVL280:
 2703 0000 7FB5     		push	{r0, r1, r2, r3, r4, r5, r6, lr}
 2704              		.cfi_def_cfa_offset 32
 2705              		.cfi_offset 0, -32
 2706              		.cfi_offset 1, -28
 2707              		.cfi_offset 2, -24
 2708              		.cfi_offset 3, -20
 2709              		.cfi_offset 4, -16
 2710              		.cfi_offset 5, -12
 2711              		.cfi_offset 6, -8
 2712              		.cfi_offset 14, -4
 2713              		.loc 1 1753 0
 2714 0002 0C1C     		mov	r4, r1
1754:main.c        **** 	uint8 i;
1755:main.c        **** 	uint8 local_name[13] = {0x52u, 0x4Bu, 0x4Au, 0x30u, 0x36u,0x30u, 0x31u, 0x30u, 0x31u, 0x30u, 0x31u
 2715              		.loc 1 1755 0
 2716 0004 1649     		ldr	r1, .L241
 2717              	.LVL281:
1753:main.c        **** 	uint8 i;
 2718              		.loc 1 1753 0
 2719 0006 051C     		mov	r5, r0
 2720              		.loc 1 1755 0
 2721 0008 1031     		add	r1, r1, #16
 2722 000a 6846     		mov	r0, sp
 2723              	.LVL282:
 2724 000c 0D22     		mov	r2, #13
 2725 000e FFF7FEFF 		bl	memcpy
 2726              	.LVL283:
 2727 0012 0023     		mov	r3, #0
1756:main.c        **** 	
1757:main.c        **** 	if (NULL != mac)
 2728              		.loc 1 1757 0
 2729 0014 9D42     		cmp	r5, r3
 2730 0016 03D1     		bne	.L235
 2731              	.L238:
 2732 0018 0023     		mov	r3, #0
1758:main.c        **** 	{
1759:main.c        **** 		for (i = 0; i < 6; i++) 
ARM GAS  C:\Users\Administrator\AppData\Local\Temp\ccNLOfxN.s 			page 85


1760:main.c        **** 		{
1761:main.c        **** 			cyBle_deviceAddress.bdAddr[i]   	= mac[5 - i];
1762:main.c        **** 			cyBle_discoveryParam.directAddr[i]	= mac[5 - i];
1763:main.c        **** 		}	
1764:main.c        **** 	}
1765:main.c        **** 	
1766:main.c        **** 	if (NULL != name)
 2733              		.loc 1 1766 0
 2734 001a 9C42     		cmp	r4, r3
 2735 001c 0DD1     		bne	.L236
 2736 001e 1EE0     		b	.L234
 2737              	.L235:
 2738              	.LVL284:
 2739 0020 EA18     		add	r2, r5, r3
1761:main.c        **** 			cyBle_discoveryParam.directAddr[i]	= mac[5 - i];
 2740              		.loc 1 1761 0 discriminator 3
 2741 0022 5679     		ldrb	r6, [r2, #5]
 2742 0024 0F48     		ldr	r0, .L241+4
 2743 0026 5942     		neg	r1, r3
 2744 0028 4654     		strb	r6, [r0, r1]
1762:main.c        **** 		}	
 2745              		.loc 1 1762 0 discriminator 3
 2746 002a 5079     		ldrb	r0, [r2, #5]
 2747 002c 0E4A     		ldr	r2, .L241+8
 2748 002e 013B     		sub	r3, r3, #1
 2749              	.LVL285:
 2750 0030 8A18     		add	r2, r1, r2
 2751 0032 D071     		strb	r0, [r2, #7]
1759:main.c        **** 		{
 2752              		.loc 1 1759 0 discriminator 3
 2753 0034 9A1D     		add	r2, r3, #6
 2754 0036 F3D1     		bne	.L235
 2755 0038 EEE7     		b	.L238
 2756              	.L236:
 2757              	.LVL286:
 2758 003a 0C4A     		ldr	r2, .L241+12
1767:main.c        **** 	{
1768:main.c        **** 		for (i = 0; i < 10; i++)
1769:main.c        **** 		{	
1770:main.c        **** 			cyBle_discoveryData.advData[8 + i] 	 = name[i];
 2759              		.loc 1 1770 0 discriminator 3
 2760 003c E15C     		ldrb	r1, [r4, r3]
 2761 003e 9A18     		add	r2, r3, r2
 2762 0040 1172     		strb	r1, [r2, #8]
 2763 0042 0B4A     		ldr	r2, .L241+16
1771:main.c        **** 			cyBle_scanRspData.scanRspData[5 + i] = name[i];
 2764              		.loc 1 1771 0 discriminator 3
 2765 0044 E15C     		ldrb	r1, [r4, r3]
 2766 0046 9A18     		add	r2, r3, r2
 2767 0048 5171     		strb	r1, [r2, #5]
 2768 004a 1A1C     		mov	r2, r3
1772:main.c        **** 			local_name[3 + i] = name[i];
 2769              		.loc 1 1772 0 discriminator 3
 2770 004c E15C     		ldrb	r1, [r4, r3]
 2771 004e 6A44     		add	r2, r2, sp
 2772 0050 0133     		add	r3, r3, #1
 2773              	.LVL287:
ARM GAS  C:\Users\Administrator\AppData\Local\Temp\ccNLOfxN.s 			page 86


 2774 0052 D170     		strb	r1, [r2, #3]
1768:main.c        **** 		{	
 2775              		.loc 1 1768 0 discriminator 3
 2776 0054 0A2B     		cmp	r3, #10
 2777 0056 F0D1     		bne	.L236
1773:main.c        **** 		}
1774:main.c        **** 		CyBle_GapSetLocalName((char8 *)local_name);
 2778              		.loc 1 1774 0
 2779 0058 6846     		mov	r0, sp
 2780 005a FFF7FEFF 		bl	CyBle_GapSetLocalName
 2781              	.LVL288:
 2782              	.L234:
1775:main.c        **** 	}
1776:main.c        **** }
 2783              		.loc 1 1776 0
 2784              		@ sp needed
 2785              	.LVL289:
 2786              	.LVL290:
 2787 005e 7FBD     		pop	{r0, r1, r2, r3, r4, r5, r6, pc}
 2788              	.L242:
 2789              		.align	2
 2790              	.L241:
 2791 0060 00000000 		.word	.LANCHOR1
 2792 0064 00000000 		.word	cyBle_deviceAddress
 2793 0068 00000000 		.word	cyBle_discoveryParam
 2794 006c 00000000 		.word	cyBle_discoveryData
 2795 0070 00000000 		.word	cyBle_scanRspData
 2796              		.cfi_endproc
 2797              	.LFE92:
 2798              		.size	Set_DeviceMacAndName, .-Set_DeviceMacAndName
 2799              		.section	.text.mac_conver_name,"ax",%progbits
 2800              		.align	1
 2801              		.global	mac_conver_name
 2802              		.code	16
 2803              		.thumb_func
 2804              		.type	mac_conver_name, %function
 2805              	mac_conver_name:
 2806              	.LFB93:
1777:main.c        **** 
1778:main.c        **** //*************************************************************************************************
1779:main.c        **** // Function name	: mac_conver_name
1780:main.c        **** // Description		: 根据mac生成name
1781:main.c        **** // Parameter		: mac	: mac地址
1782:main.c        **** //					: name	: 广播名称
1783:main.c        **** // Return			: none
1784:main.c        **** //-------------------------------------------------------------------------------------------------
1785:main.c        **** // Info				: 
1786:main.c        **** //*************************************************************************************************
1787:main.c        **** #if 0
1788:main.c        **** void mac_conver_name(uint8 mac[], uint8 name[])
1789:main.c        **** {
1790:main.c        **** 	uint8 i;
1791:main.c        **** 	for (i = 0; i < 4; i++)
1792:main.c        **** 	{
1793:main.c        **** 		name[9 - i*2] 	 = (mac[5 - i] % 0x10) + 0x30;
1794:main.c        **** 		name[9 - i*2 -1] = (mac[5 - i] / 0x10) + 0x30;
1795:main.c        **** 	}
ARM GAS  C:\Users\Administrator\AppData\Local\Temp\ccNLOfxN.s 			page 87


1796:main.c        **** }
1797:main.c        **** #endif
1798:main.c        **** 
1799:main.c        **** void mac_conver_name(uint8 mac[], uint8 name[])
1800:main.c        **** {
 2807              		.loc 1 1800 0
 2808              		.cfi_startproc
 2809              	.LVL291:
1801:main.c        **** 	uint8 i;
1802:main.c        **** 	uint8 mac_inflash[6] = {0};
 2810              		.loc 1 1802 0
 2811 0000 0023     		mov	r3, #0
1800:main.c        **** 	uint8 i;
 2812              		.loc 1 1800 0
 2813 0002 F0B5     		push	{r4, r5, r6, r7, lr}
 2814              		.cfi_def_cfa_offset 20
 2815              		.cfi_offset 4, -20
 2816              		.cfi_offset 5, -16
 2817              		.cfi_offset 6, -12
 2818              		.cfi_offset 7, -8
 2819              		.cfi_offset 14, -4
 2820 0004 89B0     		sub	sp, sp, #36
 2821              		.cfi_def_cfa_offset 56
1803:main.c        **** 	uint8 flag = 0;
 2822              		.loc 1 1803 0
 2823 0006 02AA     		add	r2, sp, #8
 2824 0008 D71D     		add	r7, r2, #7
1802:main.c        **** 	uint8 flag = 0;
 2825              		.loc 1 1802 0
 2826 000a 04AE     		add	r6, sp, #16
 2827              		.loc 1 1803 0
 2828 000c D371     		strb	r3, [r2, #7]
1800:main.c        **** 	uint8 i;
 2829              		.loc 1 1800 0
 2830 000e 0191     		str	r1, [sp, #4]
1804:main.c        **** 	uint8 tmpmac[8] = {0};
1805:main.c        **** 	
1806:main.c        **** 	#if 0
1807:main.c        **** 	//0.手动写mac信息入flash的方式  省去蓝牙配置--50套 **云端更新程序要去掉
1808:main.c        **** 	W25QXX_Write(mac, MAC_BASE, (uint16)sizeof(mac_inflash));
1809:main.c        **** 	flag = 1;
1810:main.c        **** 	W25QXX_Write(&flag, MACFLAG_BASE, 1);
1811:main.c        **** 	flag = 0;
1812:main.c        **** 	#endif
1813:main.c        **** 	
1814:main.c        **** 	//1.读flash 有没有生产初始化过
1815:main.c        **** 	W25QXX_Read(&flag, MACFLAG_BASE, 1);
 2831              		.loc 1 1815 0
 2832 0010 0122     		mov	r2, #1
 2833 0012 2549     		ldr	r1, .L249
 2834              	.LVL292:
1800:main.c        **** 	uint8 i;
 2835              		.loc 1 1800 0
 2836 0014 051C     		mov	r5, r0
1804:main.c        **** 	uint8 tmpmac[8] = {0};
 2837              		.loc 1 1804 0
 2838 0016 06AC     		add	r4, sp, #24
ARM GAS  C:\Users\Administrator\AppData\Local\Temp\ccNLOfxN.s 			page 88


 2839              		.loc 1 1815 0
 2840 0018 381C     		mov	r0, r7
 2841              	.LVL293:
1802:main.c        **** 	uint8 flag = 0;
 2842              		.loc 1 1802 0
 2843 001a 0493     		str	r3, [sp, #16]
 2844 001c B380     		strh	r3, [r6, #4]
1804:main.c        **** 	uint8 tmpmac[8] = {0};
 2845              		.loc 1 1804 0
 2846 001e 0693     		str	r3, [sp, #24]
 2847 0020 6360     		str	r3, [r4, #4]
 2848              		.loc 1 1815 0
 2849 0022 FFF7FEFF 		bl	W25QXX_Read
 2850              	.LVL294:
1816:main.c        **** 	W25QXX_Read(mac_inflash, MAC_BASE, (uint16)sizeof(mac_inflash));
 2851              		.loc 1 1816 0
 2852 0026 C921     		mov	r1, #201
 2853 0028 0622     		mov	r2, #6
 2854 002a 301C     		mov	r0, r6
 2855 002c 4902     		lsl	r1, r1, #9
 2856 002e FFF7FEFF 		bl	W25QXX_Read
 2857              	.LVL295:
1817:main.c        **** 	if((mac_inflash[0] == 0x06) && (mac_inflash[1] == 0x01) && (flag == 1))
 2858              		.loc 1 1817 0
 2859 0032 3278     		ldrb	r2, [r6]
 2860 0034 062A     		cmp	r2, #6
 2861 0036 09D1     		bne	.L244
 2862              		.loc 1 1817 0 is_stmt 0 discriminator 1
 2863 0038 7378     		ldrb	r3, [r6, #1]
 2864 003a 012B     		cmp	r3, #1
 2865 003c 06D1     		bne	.L244
 2866              		.loc 1 1817 0 discriminator 2
 2867 003e 3B78     		ldrb	r3, [r7]
 2868 0040 012B     		cmp	r3, #1
 2869 0042 03D1     		bne	.L244
1818:main.c        **** 	{
1819:main.c        **** 		memcpy(mac, mac_inflash, sizeof(mac_inflash));
 2870              		.loc 1 1819 0 is_stmt 1
 2871 0044 281C     		mov	r0, r5
 2872 0046 311C     		mov	r1, r6
 2873 0048 FFF7FEFF 		bl	memcpy
 2874              	.LVL296:
 2875              	.L244:
1820:main.c        **** 	}	
1821:main.c        **** 
1822:main.c        **** 	//2.没有 用这里默认的 手动mac(08)
1823:main.c        **** 	#if  0
1824:main.c        **** 	for (i = 0; i < 4; i++)
1825:main.c        **** 	{
1826:main.c        **** 		if((mac[i] >= 0x41)&&(mac[i] <= 0x46))
1827:main.c        **** 		{
1828:main.c        **** 			name[9 - i*2] 	 = (mac[5 - i] % 0x10);
1829:main.c        **** 			name[9 - i*2 -1] = (mac[5 - i] / 0x10);
1830:main.c        **** 		}
1831:main.c        **** 		else
1832:main.c        **** 		{
1833:main.c        **** 			name[9 - i*2] 	 = (mac[5 - i] % 0x10) + 0x30;
ARM GAS  C:\Users\Administrator\AppData\Local\Temp\ccNLOfxN.s 			page 89


1834:main.c        **** 			name[9 - i*2 -1] = (mac[5 - i] / 0x10) + 0x30;
1835:main.c        **** 		}
1836:main.c        **** 	}		
1837:main.c        **** 	#endif
1838:main.c        **** 	tmpmac[7] = mac[5] % 0x10;
 2876              		.loc 1 1838 0
 2877 004c 6A79     		ldrb	r2, [r5, #5]
 2878 004e 0F23     		mov	r3, #15
 2879 0050 111C     		mov	r1, r2
1839:main.c        **** 	tmpmac[6] = mac[5] / 0x10;
 2880              		.loc 1 1839 0
 2881 0052 1209     		lsr	r2, r2, #4
 2882 0054 A271     		strb	r2, [r4, #6]
1840:main.c        **** 	tmpmac[5] = mac[4] % 0x10;
 2883              		.loc 1 1840 0
 2884 0056 2A79     		ldrb	r2, [r5, #4]
1838:main.c        **** 	tmpmac[6] = mac[5] / 0x10;
 2885              		.loc 1 1838 0
 2886 0058 1940     		and	r1, r3
 2887 005a E171     		strb	r1, [r4, #7]
 2888              		.loc 1 1840 0
 2889 005c 111C     		mov	r1, r2
1841:main.c        **** 	tmpmac[4] = mac[4] / 0x10;
 2890              		.loc 1 1841 0
 2891 005e 1209     		lsr	r2, r2, #4
 2892 0060 2271     		strb	r2, [r4, #4]
1842:main.c        **** 	tmpmac[3] = mac[3] % 0x10;
 2893              		.loc 1 1842 0
 2894 0062 EA78     		ldrb	r2, [r5, #3]
1840:main.c        **** 	tmpmac[4] = mac[4] / 0x10;
 2895              		.loc 1 1840 0
 2896 0064 1940     		and	r1, r3
 2897 0066 6171     		strb	r1, [r4, #5]
 2898              		.loc 1 1842 0
 2899 0068 111C     		mov	r1, r2
1843:main.c        **** 	tmpmac[2] = mac[3] / 0x10;
 2900              		.loc 1 1843 0
 2901 006a 1209     		lsr	r2, r2, #4
 2902 006c A270     		strb	r2, [r4, #2]
1844:main.c        **** 	tmpmac[1] = mac[2] % 0x10;
 2903              		.loc 1 1844 0
 2904 006e AA78     		ldrb	r2, [r5, #2]
1842:main.c        **** 	tmpmac[2] = mac[3] / 0x10;
 2905              		.loc 1 1842 0
 2906 0070 1940     		and	r1, r3
 2907              		.loc 1 1844 0
 2908 0072 1340     		and	r3, r2
1845:main.c        **** 	tmpmac[0] = mac[2] / 0x10;
 2909              		.loc 1 1845 0
 2910 0074 1209     		lsr	r2, r2, #4
 2911 0076 2270     		strb	r2, [r4]
 2912              	.LVL297:
 2913 0078 0022     		mov	r2, #0
1842:main.c        **** 	tmpmac[2] = mac[3] / 0x10;
 2914              		.loc 1 1842 0
 2915 007a E170     		strb	r1, [r4, #3]
1844:main.c        **** 	tmpmac[1] = mac[2] % 0x10;
ARM GAS  C:\Users\Administrator\AppData\Local\Temp\ccNLOfxN.s 			page 90


 2916              		.loc 1 1844 0
 2917 007c 6370     		strb	r3, [r4, #1]
 2918              	.LVL298:
 2919              	.L247:
1846:main.c        **** 	
1847:main.c        **** 	for (i = 0; i < 8; i++)
1848:main.c        **** 	{
1849:main.c        **** 		#if 1
1850:main.c        **** 		if((tmpmac[i] >= 0x0A)&&(tmpmac[i] <=0x0F))
 2920              		.loc 1 1850 0
 2921 007e A35C     		ldrb	r3, [r4, r2]
 2922 0080 191C     		mov	r1, r3
 2923 0082 0A39     		sub	r1, r1, #10
 2924 0084 0529     		cmp	r1, #5
 2925 0086 03D8     		bhi	.L245
 2926 0088 0199     		ldr	r1, [sp, #4]
1851:main.c        **** 		{
1852:main.c        **** 			name[i+2] = tmpmac[i] + 0x37;
 2927              		.loc 1 1852 0
 2928 008a 3733     		add	r3, r3, #55
 2929 008c 8918     		add	r1, r1, r2
 2930 008e 04E0     		b	.L248
 2931              	.L245:
1853:main.c        **** 		}
1854:main.c        **** 		else if((tmpmac[i] >= 0x00)&&(tmpmac[i] <= 0x09))	
 2932              		.loc 1 1854 0
 2933 0090 092B     		cmp	r3, #9
 2934 0092 03D8     		bhi	.L246
 2935 0094 0199     		ldr	r1, [sp, #4]
1855:main.c        **** 		{
1856:main.c        **** 			name[i+2] = tmpmac[i] + 0x30;
 2936              		.loc 1 1856 0
 2937 0096 3033     		add	r3, r3, #48
 2938 0098 8918     		add	r1, r1, r2
 2939              	.L248:
 2940 009a 8B70     		strb	r3, [r1, #2]
 2941              	.L246:
 2942              	.LVL299:
 2943 009c 0132     		add	r2, r2, #1
 2944              	.LVL300:
1847:main.c        **** 	{
 2945              		.loc 1 1847 0 discriminator 2
 2946 009e 082A     		cmp	r2, #8
 2947 00a0 EDD1     		bne	.L247
1857:main.c        **** 		}
1858:main.c        **** 		#endif
1859:main.c        **** 	}
1860:main.c        **** }
 2948              		.loc 1 1860 0
 2949 00a2 09B0     		add	sp, sp, #36
 2950              		@ sp needed
 2951              	.LVL301:
 2952 00a4 F0BD     		pop	{r4, r5, r6, r7, pc}
 2953              	.L250:
 2954 00a6 C046     		.align	2
 2955              	.L249:
 2956 00a8 06920100 		.word	102918
ARM GAS  C:\Users\Administrator\AppData\Local\Temp\ccNLOfxN.s 			page 91


 2957              		.cfi_endproc
 2958              	.LFE93:
 2959              		.size	mac_conver_name, .-mac_conver_name
 2960              		.section	.text.startup.main,"ax",%progbits
 2961              		.align	1
 2962              		.global	main
 2963              		.code	16
 2964              		.thumb_func
 2965              		.type	main, %function
 2966              	main:
 2967              	.LFB94:
1861:main.c        **** 
1862:main.c        **** //*************************************************************************************************
1863:main.c        **** // Function name	: main
1864:main.c        **** // Description		: 主函数
1865:main.c        **** // Parameter		: none
1866:main.c        **** // Return			: none
1867:main.c        **** //-------------------------------------------------------------------------------------------------
1868:main.c        **** // Info				: 
1869:main.c        **** //*************************************************************************************************
1870:main.c        **** int main(void)
1871:main.c        **** {
 2968              		.loc 1 1871 0
 2969              		.cfi_startproc
 2970 0000 30B5     		push	{r4, r5, lr}
 2971              		.cfi_def_cfa_offset 12
 2972              		.cfi_offset 4, -12
 2973              		.cfi_offset 5, -8
 2974              		.cfi_offset 14, -4
1872:main.c        **** 	uint8 ret,i,tmp,count;
1873:main.c        **** 	uint8 setmac[]= {0x06, 0x01, 0x88, 0x88, 0x88, 0x88};			// 手动设置mac						//
 2975              		.loc 1 1873 0
 2976 0002 3F4C     		ldr	r4, .L261
1871:main.c        **** 	uint8 ret,i,tmp,count;
 2977              		.loc 1 1871 0
 2978 0004 87B0     		sub	sp, sp, #28
 2979              		.cfi_def_cfa_offset 40
 2980              		.loc 1 1873 0
 2981 0006 211C     		mov	r1, r4
 2982 0008 01A8     		add	r0, sp, #4
 2983 000a 1D31     		add	r1, r1, #29
 2984 000c 0622     		mov	r2, #6
 2985 000e FFF7FEFF 		bl	memcpy
 2986              	.LVL302:
1874:main.c        **** 	uint8 setname[] = {0x30u, 0x36u, 
 2987              		.loc 1 1874 0
 2988 0012 211C     		mov	r1, r4
 2989 0014 0A22     		mov	r2, #10
 2990 0016 2331     		add	r1, r1, #35
 2991 0018 03A8     		add	r0, sp, #12
 2992 001a FFF7FEFF 		bl	memcpy
 2993              	.LVL303:
1875:main.c        **** 						0x30u, 0x31u,
1876:main.c        **** 						0x30u, 0x31u, 
1877:main.c        **** 		 				0x30u, 0x31u, 
1878:main.c        **** 						0x30u, 0x38u};
1879:main.c        **** 	
ARM GAS  C:\Users\Administrator\AppData\Local\Temp\ccNLOfxN.s 			page 92


1880:main.c        **** #if !defined(__ARMCC_VERSION)
1881:main.c        ****     InitializeBootloaderSRAM();
 2994              		.loc 1 1881 0
 2995 001e FFF7FEFF 		bl	InitializeBootloaderSRAM
 2996              	.LVL304:
1882:main.c        **** #endif
1883:main.c        **** 
1884:main.c        **** 	CyGlobalIntEnable;
 2997              		.loc 1 1884 0
 2998              	@ 1884 "main.c" 1
 2999 0022 62B6     		CPSIE   i
 3000              	@ 0 "" 2
1885:main.c        **** 	
1886:main.c        **** 		// 提前检测GPRS模块状态 status 并开启						@0321修复6311模块启动status电平不
1887:main.c        **** 	//GPRS_SetON();
1888:main.c        **** 	
1889:main.c        **** 	LED_State = RED;
 3001              		.loc 1 1889 0
 3002              		.code	16
 3003 0024 0125     		mov	r5, #1
 3004 0026 374C     		ldr	r4, .L261+4
 3005 0028 6572     		strb	r5, [r4, #9]
 3006              	.LVL305:
 3007              	.LBB64:
 3008              	.LBB65:
 383:main.c        **** 	}
 3009              		.loc 1 383 0
 3010 002a FFF7FEFF 		bl	Led_RedON
 3011              	.LVL306:
 3012              	.LBE65:
 3013              	.LBE64:
1890:main.c        **** 	Led_SetState(LED_State);										// 上电设置状态为红灯亮				// 
1891:main.c        **** 	DoorClose();													// 上电门关闭						//
 3014              		.loc 1 1891 0
 3015 002e FFF7FEFF 		bl	DoorClose
 3016              	.LVL307:
1892:main.c        **** 	
1893:main.c        **** 	UART_433_tx_Write(0);											// 初始GSM串口拉低
 3017              		.loc 1 1893 0
 3018 0032 0020     		mov	r0, #0
 3019 0034 FFF7FEFF 		bl	UART_433_tx_Write
 3020              	.LVL308:
1894:main.c        **** 
1895:main.c        **** 	Timer_INT_ISR_StartEx(Timer_InterruptHandler);					// 开启定时器中断					//
 3021              		.loc 1 1895 0
 3022 0038 3348     		ldr	r0, .L261+8
 3023 003a FFF7FEFF 		bl	Timer_INT_ISR_StartEx
 3024              	.LVL309:
1896:main.c        ****     Timer_100ms_Start();											// 定时器初始化						//
 3025              		.loc 1 1896 0
 3026 003e FFF7FEFF 		bl	Timer_100ms_Start
 3027              	.LVL310:
1897:main.c        **** 	
1898:main.c        **** 	W25QXX_Init();
 3028              		.loc 1 1898 0
 3029 0042 FFF7FEFF 		bl	W25QXX_Init
 3030              	.LVL311:
ARM GAS  C:\Users\Administrator\AppData\Local\Temp\ccNLOfxN.s 			page 93


1899:main.c        **** 	// 获取系统启动原因，检查是否是重新上电 <上电重启 = 0x00>	 										//
1900:main.c        **** 	if (0x10 != CySysGetResetReason(CY_SYS_RESET_WDT | CY_SYS_RESET_PROTFAULT | CY_SYS_RESET_SW))
 3031              		.loc 1 1900 0
 3032 0046 1920     		mov	r0, #25
 3033 0048 FFF7FEFF 		bl	CySysGetResetReason
 3034              	.LVL312:
 3035 004c 1028     		cmp	r0, #16
 3036 004e 19D0     		beq	.L252
1901:main.c        **** 	{
1902:main.c        **** 		SendMacFlag = 0;
 3037              		.loc 1 1902 0
 3038 0050 0023     		mov	r3, #0
 3039 0052 2375     		strb	r3, [r4, #20]
1903:main.c        **** 		tmp = Read_CenterIpType();
 3040              		.loc 1 1903 0
 3041 0054 FFF7FEFF 		bl	Read_CenterIpType
 3042              	.LVL313:
1904:main.c        **** 		if(tmp == 5)
 3043              		.loc 1 1904 0
 3044 0058 0528     		cmp	r0, #5
 3045 005a 01D1     		bne	.L253
1905:main.c        **** 		{
1906:main.c        **** 			
1907:main.c        **** 			VoicePlay((uint8)Sound_SYSTEM_POWER_ON);
 3046              		.loc 1 1907 0
 3047 005c 0730     		add	r0, r0, #7
 3048              	.LVL314:
 3049 005e 00E0     		b	.L260
 3050              	.LVL315:
 3051              	.L253:
1908:main.c        **** 		}
1909:main.c        **** 		else
1910:main.c        **** 		{
1911:main.c        **** 			VoicePlay((uint8)Sound_SYSTEM_POWER_ON_TEST);
 3052              		.loc 1 1911 0
 3053 0060 1120     		mov	r0, #17
 3054              	.LVL316:
 3055              	.L260:
 3056 0062 FFF7FEFF 		bl	VoicePlay
 3057              	.LVL317:
1912:main.c        **** 		}
1913:main.c        **** 		#if 1
1914:main.c        **** 		// 第一次 开启
1915:main.c        **** 		GPRS_PWRKEY_Write(1);
 3058              		.loc 1 1915 0
 3059 0066 0120     		mov	r0, #1
 3060 0068 FFF7FEFF 		bl	GPRS_PWRKEY_Write
 3061              	.LVL318:
 3062 006c 1F25     		mov	r5, #31
 3063              	.LVL319:
 3064              	.L255:
 3065 006e 013D     		sub	r5, r5, #1
 3066              	.LVL320:
1916:main.c        **** 		count = 0;
1917:main.c        **** 		while (count <= 30)
1918:main.c        **** 		{
1919:main.c        **** 			CyDelay(100);
ARM GAS  C:\Users\Administrator\AppData\Local\Temp\ccNLOfxN.s 			page 94


 3067              		.loc 1 1919 0
 3068 0070 6420     		mov	r0, #100
 3069 0072 EDB2     		uxtb	r5, r5
 3070 0074 FFF7FEFF 		bl	CyDelay
 3071              	.LVL321:
1917:main.c        **** 		{
 3072              		.loc 1 1917 0
 3073 0078 002D     		cmp	r5, #0
 3074 007a F8D1     		bne	.L255
1920:main.c        **** 			count++;
1921:main.c        **** 		}
1922:main.c        **** 		GPRS_PWRKEY_Write(0);
 3075              		.loc 1 1922 0
 3076 007c 281C     		mov	r0, r5
 3077 007e FFF7FEFF 		bl	GPRS_PWRKEY_Write
 3078              	.LVL322:
 3079 0082 00E0     		b	.L256
 3080              	.L252:
1923:main.c        **** 		#endif
1924:main.c        **** 	}
1925:main.c        **** 	else
1926:main.c        **** 	{
1927:main.c        **** 		SendMacFlag = 1;
 3081              		.loc 1 1927 0
 3082 0084 2575     		strb	r5, [r4, #20]
 3083              	.L256:
1928:main.c        **** 		
1929:main.c        **** 	}
1930:main.c        **** 
1931:main.c        **** 	WDT_ISR_StartEx(WDT_Interrupt);									// 看门狗中断						//
 3084              		.loc 1 1931 0
 3085 0086 2148     		ldr	r0, .L261+12
 3086 0088 FFF7FEFF 		bl	WDT_ISR_StartEx
 3087              	.LVL323:
1932:main.c        **** 	WDT_Start();													// 看门狗定时器初始化				//	
 3088              		.loc 1 1932 0
 3089 008c FFF7FEFF 		bl	WDT_Start
 3090              	.LVL324:
1933:main.c        **** 	
1934:main.c        **** 	cur_time = 1483200000;											// 默认将时间设置为2017-1-1 0:0:0	//
 3091              		.loc 1 1934 0
 3092 0090 1F4B     		ldr	r3, .L261+16
 3093 0092 204D     		ldr	r5, .L261+20
 3094 0094 2B60     		str	r3, [r5]
1935:main.c        **** 	RTC_Start();													// RTC时钟初始化					//
 3095              		.loc 1 1935 0
 3096 0096 FFF7FEFF 		bl	RTC_Start
 3097              	.LVL325:
1936:main.c        **** 	RTC_SetUnixTime(cur_time);										// 将默认的时间写到RTC中			//
 3098              		.loc 1 1936 0
 3099 009a 2868     		ldr	r0, [r5]
 3100 009c 0021     		mov	r1, #0
 3101 009e FFF7FEFF 		bl	RTC_SetUnixTime
 3102              	.LVL326:
1937:main.c        **** 	
1938:main.c        **** 	nfc_init();														// 刷卡功能初始化					//
 3103              		.loc 1 1938 0
ARM GAS  C:\Users\Administrator\AppData\Local\Temp\ccNLOfxN.s 			page 95


 3104 00a2 FFF7FEFF 		bl	nfc_init
 3105              	.LVL327:
1939:main.c        **** 	mac_conver_name(setmac, setname);
 3106              		.loc 1 1939 0
 3107 00a6 01A8     		add	r0, sp, #4
 3108 00a8 03A9     		add	r1, sp, #12
 3109 00aa FFF7FEFF 		bl	mac_conver_name
 3110              	.LVL328:
1940:main.c        **** 	Set_DeviceMacAndName((char8 *)setmac, (char8 *)setname);		// 设置mac、name					//
 3111              		.loc 1 1940 0
 3112 00ae 03A9     		add	r1, sp, #12
 3113 00b0 01A8     		add	r0, sp, #4
 3114 00b2 FFF7FEFF 		bl	Set_DeviceMacAndName
 3115              	.LVL329:
1941:main.c        **** 	
1942:main.c        **** 	CyBle_Start(AppCallback);										// 开启蓝牙功能						//
 3116              		.loc 1 1942 0
 3117 00b6 1848     		ldr	r0, .L261+24
 3118 00b8 FFF7FEFF 		bl	CyBle_Start
 3119              	.LVL330:
1943:main.c        **** 	
1944:main.c        **** 	GPRSPowerOn_0321();												// GPRS开机并等初始化完成			//
 3120              		.loc 1 1944 0
 3121 00bc FFF7FEFF 		bl	GPRSPowerOn_0321
 3122              	.LVL331:
1945:main.c        **** 	ret = GPRS_TestAndWaitCommonOK();								// 测试GPRS AT指令通讯是否正常		//
 3123              		.loc 1 1945 0
 3124 00c0 FFF7FEFF 		bl	GPRS_TestAndWaitCommonOK
 3125              	.LVL332:
1946:main.c        **** 	if (ret == TRUE)
 3126              		.loc 1 1946 0
 3127 00c4 0128     		cmp	r0, #1
 3128 00c6 0AD1     		bne	.L259
1947:main.c        **** 	{
1948:main.c        **** 		GPRS_OpenNetworkLED();
 3129              		.loc 1 1948 0
 3130 00c8 FFF7FEFF 		bl	GPRS_OpenNetworkLED
 3131              	.LVL333:
1949:main.c        **** 		
1950:main.c        **** 		ret = GPRS_CheckConnectState();
 3132              		.loc 1 1950 0
 3133 00cc FFF7FEFF 		bl	GPRS_CheckConnectState
 3134              	.LVL334:
1951:main.c        **** 		if (ret == TRUE)
 3135              		.loc 1 1951 0
 3136 00d0 0128     		cmp	r0, #1
 3137 00d2 02D1     		bne	.L258
1952:main.c        **** 		{	
1953:main.c        **** 			GPRS_ClosedConnect();
 3138              		.loc 1 1953 0
 3139 00d4 FFF7FEFF 		bl	GPRS_ClosedConnect
 3140              	.LVL335:
 3141 00d8 01E0     		b	.L259
 3142              	.LVL336:
 3143              	.L258:
1954:main.c        **** 		}
1955:main.c        **** 		else
ARM GAS  C:\Users\Administrator\AppData\Local\Temp\ccNLOfxN.s 			page 96


1956:main.c        **** 		{
1957:main.c        **** 			GPRS_SetConnectMode();
 3144              		.loc 1 1957 0
 3145 00da FFF7FEFF 		bl	GPRS_SetConnectMode
 3146              	.LVL337:
 3147              	.L259:
1958:main.c        **** 		}
1959:main.c        **** 	}
1960:main.c        **** 	#if DBG_SOFT_ENNABLE
1961:main.c        **** 	DBG_SOFT_PutString("BLE SmartGuard Project.\n");					// 初始化完成后，发送Log信息		//
1962:main.c        **** 	DBG_SOFT_PutString("System Version:");								// 版本								//
1963:main.c        **** 	DBG_SOFT_PutHexInt(system_version);
1964:main.c        **** 	DBG_SOFT_PutString("\nProtocl Version:");							// 通讯协议版本，02加密				//
1965:main.c        **** 	DBG_SOFT_PutHexInt(PROTOCOL_VER);
1966:main.c        **** 	#if 1
1967:main.c        **** 		DBG_SOFT_PutString("\nDevice Mac:");
1968:main.c        **** 	for (i = 0; i < 6; i++)
1969:main.c        **** 	{
1970:main.c        **** 		DBG_SOFT_PutHexByte(Mac_Addr[i]);
1971:main.c        **** 		if(i < 5)
1972:main.c        **** 			DBG_SOFT_PutString("-");	
1973:main.c        **** 	}
1974:main.c        **** 	DBG_SOFT_PutString("\n");
1975:main.c        **** 	#endif
1976:main.c        **** 	#endif
1977:main.c        **** 	
1978:main.c        **** 	while(1) 
1979:main.c        **** 	{
1980:main.c        **** 		BLE_Tick();
 3148              		.loc 1 1980 0 discriminator 1
 3149 00de FFF7FEFF 		bl	BLE_Tick
 3150              	.LVL338:
1981:main.c        **** 		GPRS_Tick();
 3151              		.loc 1 1981 0 discriminator 1
 3152 00e2 FFF7FEFF 		bl	GPRS_Tick
 3153              	.LVL339:
1982:main.c        **** 		CARD_Tick();
 3154              		.loc 1 1982 0 discriminator 1
 3155 00e6 FFF7FEFF 		bl	CARD_Tick
 3156              	.LVL340:
1983:main.c        **** 		KeyOpen_Tick(); 
 3157              		.loc 1 1983 0 discriminator 1
 3158 00ea FFF7FEFF 		bl	KeyOpen_Tick
 3159              	.LVL341:
1984:main.c        **** 		FireOpen_Tick();
 3160              		.loc 1 1984 0 discriminator 1
 3161 00ee FFF7FEFF 		bl	FireOpen_Tick
 3162              	.LVL342:
1985:main.c        **** 		//--DefendAlarm_Tick();				// 防止撬锁 先不开 2018-3-8
1986:main.c        **** 		Reboot_Check();
 3163              		.loc 1 1986 0 discriminator 1
 3164 00f2 FFF7FEFF 		bl	Reboot_Check
 3165              	.LVL343:
1987:main.c        **** 		
1988:main.c        **** 		Led_SetState(LED_State);
 3166              		.loc 1 1988 0 discriminator 1
 3167 00f6 607A     		ldrb	r0, [r4, #9]
ARM GAS  C:\Users\Administrator\AppData\Local\Temp\ccNLOfxN.s 			page 97


 3168 00f8 FFF7FEFF 		bl	Led_SetState
 3169              	.LVL344:
1989:main.c        **** 		
1990:main.c        **** 		//--UploadOpenInfo_Tick();
1991:main.c        **** 	}
 3170              		.loc 1 1991 0 discriminator 1
 3171 00fc EFE7     		b	.L259
 3172              	.L262:
 3173 00fe C046     		.align	2
 3174              	.L261:
 3175 0100 00000000 		.word	.LANCHOR1
 3176 0104 00000000 		.word	.LANCHOR0
 3177 0108 00000000 		.word	Timer_InterruptHandler
 3178 010c 00000000 		.word	WDT_Interrupt
 3179 0110 00D66758 		.word	1483200000
 3180 0114 00000000 		.word	cur_time
 3181 0118 00000000 		.word	AppCallback
 3182              		.cfi_endproc
 3183              	.LFE94:
 3184              		.size	main, .-main
 3185              		.comm	picc_sak,3,1
 3186              		.comm	picc_uid,15,1
 3187              		.comm	picc_atqa,2,1
 3188              		.comm	ADCResultCenter,1,1
 3189              		.comm	next_defend_flag,1,1
 3190              		.comm	mem_var,4,4
 3191              		.comm	reboot_count,1,1
 3192              		.comm	stop_reboot,1,1
 3193              		.comm	flag_reboot,1,1
 3194              		.comm	Card_ErrCount,1,1
 3195              		.global	CardCheck_CountTime
 3196              		.comm	heartbeat_lasttime,4,4
 3197              		.global	heartbeat_SendCount
 3198              		.global	gprs_operation_ErrCount
 3199              		.global	update_timeout_time
 3200              		.global	update_timeout_count
 3201              		.comm	last_index,2,2
 3202              		.comm	uploadflag_cnt,1,1
 3203              		.comm	uploadpolling_stop,1,1
 3204              		.comm	openinfopage_offset,2,2
 3205              		.comm	next_keyopen_time,4,4
 3206              		.comm	next_allupload_time,4,4
 3207              		.global	next_gprs_upload_time
 3208              		.comm	next_gprs_operation_time,4,4
 3209              		.comm	next_heartbeat_time,4,4
 3210              		.comm	next_network_time,4,4
 3211              		.comm	cur_time,4,4
 3212              		.comm	BleCmdValidFlag,1,1
 3213              		.comm	BleCmdBuf,1050,1
 3214              		.comm	CurrentDataNum,1,1
 3215              		.comm	CurrentCommandPktTotalSize,2,2
 3216              		.comm	GPRSCmd_buf2,1050,1
 3217              		.comm	GPRSCmd_buf1,1050,1
 3218              		.comm	GPRSCmdParseFlag2,1,1
 3219              		.comm	GPRSCmdParseFlag1,1,1
 3220              		.comm	GPRS_AT_RecFinish,1,1
 3221              		.comm	GPRS_AT_Buf,64,1
ARM GAS  C:\Users\Administrator\AppData\Local\Temp\ccNLOfxN.s 			page 98


 3222              		.comm	recv_timeout,4,4
 3223              		.comm	wait_timeout,4,4
 3224              		.comm	Mac_Addr,6,1
 3225              		.comm	Read_Mac_Flag,1,1
 3226              		.comm	Image_size,4,4
 3227              		.comm	update_offset,4,4
 3228              		.comm	update_page,2,2
 3229              		.comm	update_report,1,1
 3230              		.comm	update_flag,1,1
 3231              		.comm	update_version,2,2
 3232              		.comm	update_port,5,1
 3233              		.comm	update_ip,16,1
 3234              		.comm	pre_port,5,1
 3235              		.comm	pre_ip,200,1
 3236              		.comm	domain,200,1
 3237              		.global	SendMacFlag
 3238              		.global	EnterGuide_State
 3239              		.comm	gprs_state,1,1
 3240              		.global	LED_State
 3241              		.global	system_version
 3242              		.section	.rodata
 3243              		.set	.LANCHOR1,. + 0
 3244              	.LC0:
 3245 0000 FF       		.byte	-1
 3246 0001 FF       		.byte	-1
 3247 0002 FF       		.byte	-1
 3248 0003 FF       		.byte	-1
 3249 0004 FF       		.byte	-1
 3250 0005 FF       		.byte	-1
 3251 0006 FF       		.byte	-1
 3252 0007 02       		.byte	2
 3253              	.LC1:
 3254 0008 FF       		.byte	-1
 3255 0009 FF       		.byte	-1
 3256 000a FF       		.byte	-1
 3257 000b FF       		.byte	-1
 3258 000c FF       		.byte	-1
 3259 000d FF       		.byte	-1
 3260 000e FF       		.byte	-1
 3261 000f 01       		.byte	1
 3262              	.LC2:
 3263 0010 52       		.byte	82
 3264 0011 4B       		.byte	75
 3265 0012 4A       		.byte	74
 3266 0013 30       		.byte	48
 3267 0014 36       		.byte	54
 3268 0015 30       		.byte	48
 3269 0016 31       		.byte	49
 3270 0017 30       		.byte	48
 3271 0018 31       		.byte	49
 3272 0019 30       		.byte	48
 3273 001a 31       		.byte	49
 3274 001b 30       		.byte	48
 3275 001c 31       		.byte	49
 3276              	.LC3:
 3277 001d 06       		.byte	6
 3278 001e 01       		.byte	1
ARM GAS  C:\Users\Administrator\AppData\Local\Temp\ccNLOfxN.s 			page 99


 3279 001f 88       		.byte	-120
 3280 0020 88       		.byte	-120
 3281 0021 88       		.byte	-120
 3282 0022 88       		.byte	-120
 3283              	.LC4:
 3284 0023 30       		.byte	48
 3285 0024 36       		.byte	54
 3286 0025 30       		.byte	48
 3287 0026 31       		.byte	49
 3288 0027 30       		.byte	48
 3289 0028 31       		.byte	49
 3290 0029 30       		.byte	48
 3291 002a 31       		.byte	49
 3292 002b 30       		.byte	48
 3293 002c 38       		.byte	56
 3294              		.data
 3295              		.type	system_version, %object
 3296              		.size	system_version, 1
 3297              	system_version:
 3298 0000 0A       		.byte	10
 3299              		.bss
 3300              		.align	2
 3301              		.set	.LANCHOR0,. + 0
 3302              		.type	CardCheck_CountTime, %object
 3303              		.size	CardCheck_CountTime, 4
 3304              	CardCheck_CountTime:
 3305 0000 00000000 		.space	4
 3306              		.type	update_timeout_time, %object
 3307              		.size	update_timeout_time, 4
 3308              	update_timeout_time:
 3309 0004 00000000 		.space	4
 3310              		.type	EnterGuide_State, %object
 3311              		.size	EnterGuide_State, 1
 3312              	EnterGuide_State:
 3313 0008 00       		.space	1
 3314              		.type	LED_State, %object
 3315              		.size	LED_State, 1
 3316              	LED_State:
 3317 0009 00       		.space	1
 3318              		.type	gprs_operation_ErrCount, %object
 3319              		.size	gprs_operation_ErrCount, 1
 3320              	gprs_operation_ErrCount:
 3321 000a 00       		.space	1
 3322              		.type	heartbeat_SendCount, %object
 3323              		.size	heartbeat_SendCount, 1
 3324              	heartbeat_SendCount:
 3325 000b 00       		.space	1
 3326              		.type	update_timeout_count, %object
 3327              		.size	update_timeout_count, 1
 3328              	update_timeout_count:
 3329 000c 00       		.space	1
 3330 000d 000000   		.space	3
 3331              		.type	next_gprs_upload_time, %object
 3332              		.size	next_gprs_upload_time, 4
 3333              	next_gprs_upload_time:
 3334 0010 00000000 		.space	4
 3335              		.type	SendMacFlag, %object
ARM GAS  C:\Users\Administrator\AppData\Local\Temp\ccNLOfxN.s 			page 100


 3336              		.size	SendMacFlag, 1
 3337              	SendMacFlag:
 3338 0014 00       		.space	1
 3339 0015 000000   		.text
 3340              	.Letext0:
 3341              		.file 2 "c:\\program files (x86)\\cypress\\psoc creator\\4.0\\psoc creator\\import\\gnu\\arm\\4.9.
 3342              		.file 3 "c:\\program files (x86)\\cypress\\psoc creator\\4.0\\psoc creator\\import\\gnu\\arm\\4.9.
 3343              		.file 4 "Generated_Source\\PSoC4/cytypes.h"
 3344              		.file 5 ".\\Code\\Common/config.h"
 3345              		.file 6 ".\\Code\\Device\\W25Q80/user_data.h"
 3346              		.file 7 "./OTAMandatory.h"
 3347              		.file 8 ".\\Code\\Common/variable.h"
 3348              		.file 9 ".\\Code\\Device\\BLE/Bluetooth.h"
 3349              		.file 10 ".\\Code\\Device\\FM175XX\\LPCD/lpcd_api.h"
 3350              		.file 11 ".\\Code\\Device\\FM175XX\\IOS14443/type_a.h"
 3351              		.file 12 "Generated_Source\\PSoC4/CyLib.h"
 3352              		.file 13 "Generated_Source\\PSoC4/cyPm.h"
 3353              		.file 14 "Generated_Source\\PSoC4/LED_RED.h"
 3354              		.file 15 "Generated_Source\\PSoC4/LED_BLUE.h"
 3355              		.file 16 "Generated_Source\\PSoC4/LED_GREEN.h"
 3356              		.file 17 "Generated_Source\\PSoC4/DOOR_OPEN.h"
 3357              		.file 18 ".\\Code\\Device\\W25Q80/w25qxx.h"
 3358              		.file 19 ".\\Code\\UserApp\\Protocol/CmdProtocol.h"
 3359              		.file 20 ".\\Code\\Device\\FM175XX/card.h"
 3360              		.file 21 "Generated_Source\\PSoC4/RTC.h"
 3361              		.file 22 ".\\Code\\Device\\FM175XX/fm175xx.h"
 3362              		.file 23 ".\\Code\\UserApp\\Voice/voice.h"
 3363              		.file 24 ".\\Code\\Device\\WDT/UserWDT.h"
 3364              		.file 25 "Generated_Source\\PSoC4/GPRS_PWRKEY.h"
 3365              		.file 26 "Generated_Source\\PSoC4/GPRS_STATE.h"
 3366              		.file 27 ".\\Code\\Device\\GPRS/AtProtocol.h"
 3367              		.file 28 "Generated_Source\\PSoC4/cmd433_INT_ISR.h"
 3368              		.file 29 "Generated_Source\\PSoC4/UART_433.h"
 3369              		.file 30 "Generated_Source\\PSoC4/Bootloadable.h"
 3370              		.file 31 "Generated_Source\\PSoC4/GPRS_RESET.h"
 3371              		.file 32 "Generated_Source\\PSoC4/KEY_OPEN.h"
 3372              		.file 33 "Generated_Source\\PSoC4/FIRE_OPEN.h"
 3373              		.file 34 "Generated_Source\\PSoC4/DEFEND_ALARM.h"
 3374              		.file 35 "Generated_Source\\PSoC4/UART_433_tx.h"
 3375              		.file 36 "Generated_Source\\PSoC4/Timer_INT_ISR.h"
 3376              		.file 37 "Generated_Source\\PSoC4/Timer_100ms.h"
 3377              		.file 38 "Generated_Source\\PSoC4/WDT_ISR.h"
 3378              		.section	.debug_info,"",%progbits
 3379              	.Ldebug_info0:
 3380 0000 D32E0000 		.4byte	0x2ed3
 3381 0004 0400     		.2byte	0x4
 3382 0006 00000000 		.4byte	.Ldebug_abbrev0
 3383 000a 04       		.byte	0x4
 3384 000b 01       		.uleb128 0x1
 3385 000c 2E2A0000 		.4byte	.LASF698
 3386 0010 01       		.byte	0x1
 3387 0011 C7240000 		.4byte	.LASF699
 3388 0015 D6310000 		.4byte	.LASF700
 3389 0019 00000000 		.4byte	.Ldebug_ranges0+0
 3390 001d 00000000 		.4byte	0
 3391 0021 00000000 		.4byte	.Ldebug_line0
 3392 0025 02       		.uleb128 0x2
ARM GAS  C:\Users\Administrator\AppData\Local\Temp\ccNLOfxN.s 			page 101


 3393 0026 01       		.byte	0x1
 3394 0027 06       		.byte	0x6
 3395 0028 520F0000 		.4byte	.LASF0
 3396 002c 03       		.uleb128 0x3
 3397 002d DF090000 		.4byte	.LASF3
 3398 0031 02       		.byte	0x2
 3399 0032 1D       		.byte	0x1d
 3400 0033 37000000 		.4byte	0x37
 3401 0037 02       		.uleb128 0x2
 3402 0038 01       		.byte	0x1
 3403 0039 08       		.byte	0x8
 3404 003a EF100000 		.4byte	.LASF1
 3405 003e 02       		.uleb128 0x2
 3406 003f 02       		.byte	0x2
 3407 0040 05       		.byte	0x5
 3408 0041 A3390000 		.4byte	.LASF2
 3409 0045 03       		.uleb128 0x3
 3410 0046 E4140000 		.4byte	.LASF4
 3411 004a 02       		.byte	0x2
 3412 004b 2B       		.byte	0x2b
 3413 004c 50000000 		.4byte	0x50
 3414 0050 02       		.uleb128 0x2
 3415 0051 02       		.byte	0x2
 3416 0052 07       		.byte	0x7
 3417 0053 A3410000 		.4byte	.LASF5
 3418 0057 02       		.uleb128 0x2
 3419 0058 04       		.byte	0x4
 3420 0059 05       		.byte	0x5
 3421 005a 990B0000 		.4byte	.LASF6
 3422 005e 03       		.uleb128 0x3
 3423 005f 09230000 		.4byte	.LASF7
 3424 0063 02       		.byte	0x2
 3425 0064 41       		.byte	0x41
 3426 0065 69000000 		.4byte	0x69
 3427 0069 02       		.uleb128 0x2
 3428 006a 04       		.byte	0x4
 3429 006b 07       		.byte	0x7
 3430 006c 271E0000 		.4byte	.LASF8
 3431 0070 02       		.uleb128 0x2
 3432 0071 08       		.byte	0x8
 3433 0072 05       		.byte	0x5
 3434 0073 66230000 		.4byte	.LASF9
 3435 0077 02       		.uleb128 0x2
 3436 0078 08       		.byte	0x8
 3437 0079 07       		.byte	0x7
 3438 007a 68310000 		.4byte	.LASF10
 3439 007e 04       		.uleb128 0x4
 3440 007f 04       		.byte	0x4
 3441 0080 05       		.byte	0x5
 3442 0081 696E7400 		.ascii	"int\000"
 3443 0085 02       		.uleb128 0x2
 3444 0086 04       		.byte	0x4
 3445 0087 07       		.byte	0x7
 3446 0088 7A280000 		.4byte	.LASF11
 3447 008c 03       		.uleb128 0x3
 3448 008d 7A0F0000 		.4byte	.LASF12
 3449 0091 03       		.byte	0x3
ARM GAS  C:\Users\Administrator\AppData\Local\Temp\ccNLOfxN.s 			page 102


 3450 0092 15       		.byte	0x15
 3451 0093 2C000000 		.4byte	0x2c
 3452 0097 03       		.uleb128 0x3
 3453 0098 4C320000 		.4byte	.LASF13
 3454 009c 03       		.byte	0x3
 3455 009d 21       		.byte	0x21
 3456 009e 45000000 		.4byte	0x45
 3457 00a2 03       		.uleb128 0x3
 3458 00a3 E53F0000 		.4byte	.LASF14
 3459 00a7 03       		.byte	0x3
 3460 00a8 2D       		.byte	0x2d
 3461 00a9 5E000000 		.4byte	0x5e
 3462 00ad 05       		.uleb128 0x5
 3463 00ae 4D390000 		.4byte	.LASF15
 3464 00b2 04       		.byte	0x4
 3465 00b3 B901     		.2byte	0x1b9
 3466 00b5 37000000 		.4byte	0x37
 3467 00b9 05       		.uleb128 0x5
 3468 00ba F0440000 		.4byte	.LASF16
 3469 00be 04       		.byte	0x4
 3470 00bf BA01     		.2byte	0x1ba
 3471 00c1 50000000 		.4byte	0x50
 3472 00c5 05       		.uleb128 0x5
 3473 00c6 5D030000 		.4byte	.LASF17
 3474 00ca 04       		.byte	0x4
 3475 00cb BB01     		.2byte	0x1bb
 3476 00cd 69000000 		.4byte	0x69
 3477 00d1 02       		.uleb128 0x2
 3478 00d2 04       		.byte	0x4
 3479 00d3 04       		.byte	0x4
 3480 00d4 FE260000 		.4byte	.LASF18
 3481 00d8 02       		.uleb128 0x2
 3482 00d9 08       		.byte	0x8
 3483 00da 04       		.byte	0x4
 3484 00db C0240000 		.4byte	.LASF19
 3485 00df 05       		.uleb128 0x5
 3486 00e0 920B0000 		.4byte	.LASF20
 3487 00e4 04       		.byte	0x4
 3488 00e5 C501     		.2byte	0x1c5
 3489 00e7 77000000 		.4byte	0x77
 3490 00eb 05       		.uleb128 0x5
 3491 00ec 77060000 		.4byte	.LASF21
 3492 00f0 04       		.byte	0x4
 3493 00f1 CA01     		.2byte	0x1ca
 3494 00f3 F7000000 		.4byte	0xf7
 3495 00f7 02       		.uleb128 0x2
 3496 00f8 01       		.byte	0x1
 3497 00f9 08       		.byte	0x8
 3498 00fa D8130000 		.4byte	.LASF22
 3499 00fe 06       		.uleb128 0x6
 3500 00ff AD000000 		.4byte	0xad
 3501 0103 06       		.uleb128 0x6
 3502 0104 C5000000 		.4byte	0xc5
 3503 0108 05       		.uleb128 0x5
 3504 0109 5B300000 		.4byte	.LASF23
 3505 010d 04       		.byte	0x4
 3506 010e 7502     		.2byte	0x275
ARM GAS  C:\Users\Administrator\AppData\Local\Temp\ccNLOfxN.s 			page 103


 3507 0110 14010000 		.4byte	0x114
 3508 0114 07       		.uleb128 0x7
 3509 0115 04       		.byte	0x4
 3510 0116 1A010000 		.4byte	0x11a
 3511 011a 08       		.uleb128 0x8
 3512 011b 02       		.uleb128 0x2
 3513 011c 04       		.byte	0x4
 3514 011d 07       		.byte	0x7
 3515 011e B3000000 		.4byte	.LASF24
 3516 0122 09       		.uleb128 0x9
 3517 0123 04       		.byte	0x4
 3518 0124 07       		.uleb128 0x7
 3519 0125 04       		.byte	0x4
 3520 0126 AD000000 		.4byte	0xad
 3521 012a 03       		.uleb128 0x3
 3522 012b 95210000 		.4byte	.LASF25
 3523 012f 05       		.byte	0x5
 3524 0130 13       		.byte	0x13
 3525 0131 37000000 		.4byte	0x37
 3526 0135 0A       		.uleb128 0xa
 3527 0136 D82C0000 		.4byte	.LASF29
 3528 013a 0C       		.byte	0xc
 3529 013b 06       		.byte	0x6
 3530 013c 1C       		.byte	0x1c
 3531 013d 5A010000 		.4byte	0x15a
 3532 0141 0B       		.uleb128 0xb
 3533 0142 0F1D0000 		.4byte	.LASF26
 3534 0146 06       		.byte	0x6
 3535 0147 1E       		.byte	0x1e
 3536 0148 5A010000 		.4byte	0x15a
 3537 014c 00       		.byte	0
 3538 014d 0B       		.uleb128 0xb
 3539 014e DB290000 		.4byte	.LASF27
 3540 0152 06       		.byte	0x6
 3541 0153 1F       		.byte	0x1f
 3542 0154 6A010000 		.4byte	0x16a
 3543 0158 08       		.byte	0x8
 3544 0159 00       		.byte	0
 3545 015a 0C       		.uleb128 0xc
 3546 015b AD000000 		.4byte	0xad
 3547 015f 6A010000 		.4byte	0x16a
 3548 0163 0D       		.uleb128 0xd
 3549 0164 1B010000 		.4byte	0x11b
 3550 0168 07       		.byte	0x7
 3551 0169 00       		.byte	0
 3552 016a 0C       		.uleb128 0xc
 3553 016b AD000000 		.4byte	0xad
 3554 016f 7A010000 		.4byte	0x17a
 3555 0173 0D       		.uleb128 0xd
 3556 0174 1B010000 		.4byte	0x11b
 3557 0178 03       		.byte	0x3
 3558 0179 00       		.byte	0
 3559 017a 03       		.uleb128 0x3
 3560 017b 452F0000 		.4byte	.LASF28
 3561 017f 06       		.byte	0x6
 3562 0180 20       		.byte	0x20
 3563 0181 35010000 		.4byte	0x135
ARM GAS  C:\Users\Administrator\AppData\Local\Temp\ccNLOfxN.s 			page 104


 3564 0185 0A       		.uleb128 0xa
 3565 0186 CC290000 		.4byte	.LASF30
 3566 018a 10       		.byte	0x10
 3567 018b 06       		.byte	0x6
 3568 018c 22       		.byte	0x22
 3569 018d B6010000 		.4byte	0x1b6
 3570 0191 0B       		.uleb128 0xb
 3571 0192 0F1D0000 		.4byte	.LASF26
 3572 0196 06       		.byte	0x6
 3573 0197 24       		.byte	0x24
 3574 0198 5A010000 		.4byte	0x15a
 3575 019c 00       		.byte	0
 3576 019d 0B       		.uleb128 0xb
 3577 019e C31B0000 		.4byte	.LASF31
 3578 01a2 06       		.byte	0x6
 3579 01a3 25       		.byte	0x25
 3580 01a4 6A010000 		.4byte	0x16a
 3581 01a8 08       		.byte	0x8
 3582 01a9 0B       		.uleb128 0xb
 3583 01aa CE130000 		.4byte	.LASF32
 3584 01ae 06       		.byte	0x6
 3585 01af 26       		.byte	0x26
 3586 01b0 6A010000 		.4byte	0x16a
 3587 01b4 0C       		.byte	0xc
 3588 01b5 00       		.byte	0
 3589 01b6 03       		.uleb128 0x3
 3590 01b7 631D0000 		.4byte	.LASF33
 3591 01bb 06       		.byte	0x6
 3592 01bc 27       		.byte	0x27
 3593 01bd 85010000 		.4byte	0x185
 3594 01c1 0E       		.uleb128 0xe
 3595 01c2 08       		.byte	0x8
 3596 01c3 07       		.byte	0x7
 3597 01c4 32       		.byte	0x32
 3598 01c5 EE010000 		.4byte	0x1ee
 3599 01c9 0F       		.uleb128 0xf
 3600 01ca 76616C00 		.ascii	"val\000"
 3601 01ce 07       		.byte	0x7
 3602 01cf 35       		.byte	0x35
 3603 01d0 24010000 		.4byte	0x124
 3604 01d4 00       		.byte	0
 3605 01d5 0F       		.uleb128 0xf
 3606 01d6 6C656E00 		.ascii	"len\000"
 3607 01da 07       		.byte	0x7
 3608 01db 38       		.byte	0x38
 3609 01dc B9000000 		.4byte	0xb9
 3610 01e0 04       		.byte	0x4
 3611 01e1 0B       		.uleb128 0xb
 3612 01e2 08420000 		.4byte	.LASF34
 3613 01e6 07       		.byte	0x7
 3614 01e7 3C       		.byte	0x3c
 3615 01e8 B9000000 		.4byte	0xb9
 3616 01ec 06       		.byte	0x6
 3617 01ed 00       		.byte	0
 3618 01ee 03       		.uleb128 0x3
 3619 01ef AA060000 		.4byte	.LASF35
 3620 01f3 07       		.byte	0x7
ARM GAS  C:\Users\Administrator\AppData\Local\Temp\ccNLOfxN.s 			page 105


 3621 01f4 3E       		.byte	0x3e
 3622 01f5 C1010000 		.4byte	0x1c1
 3623 01f9 10       		.uleb128 0x10
 3624 01fa 02       		.byte	0x2
 3625 01fb 07       		.byte	0x7
 3626 01fc 42       		.byte	0x42
 3627 01fd 36030000 		.4byte	0x336
 3628 0201 11       		.uleb128 0x11
 3629 0202 1E100000 		.4byte	.LASF36
 3630 0206 00       		.sleb128 0
 3631 0207 11       		.uleb128 0x11
 3632 0208 B8170000 		.4byte	.LASF37
 3633 020c 01       		.sleb128 1
 3634 020d 11       		.uleb128 0x11
 3635 020e F2420000 		.4byte	.LASF38
 3636 0212 02       		.sleb128 2
 3637 0213 11       		.uleb128 0x11
 3638 0214 7A190000 		.4byte	.LASF39
 3639 0218 03       		.sleb128 3
 3640 0219 11       		.uleb128 0x11
 3641 021a B01D0000 		.4byte	.LASF40
 3642 021e 04       		.sleb128 4
 3643 021f 11       		.uleb128 0x11
 3644 0220 60240000 		.4byte	.LASF41
 3645 0224 05       		.sleb128 5
 3646 0225 11       		.uleb128 0x11
 3647 0226 71440000 		.4byte	.LASF42
 3648 022a 06       		.sleb128 6
 3649 022b 11       		.uleb128 0x11
 3650 022c EF140000 		.4byte	.LASF43
 3651 0230 07       		.sleb128 7
 3652 0231 11       		.uleb128 0x11
 3653 0232 7F260000 		.4byte	.LASF44
 3654 0236 08       		.sleb128 8
 3655 0237 11       		.uleb128 0x11
 3656 0238 983C0000 		.4byte	.LASF45
 3657 023c 09       		.sleb128 9
 3658 023d 11       		.uleb128 0x11
 3659 023e 27450000 		.4byte	.LASF46
 3660 0242 0A       		.sleb128 10
 3661 0243 11       		.uleb128 0x11
 3662 0244 CC080000 		.4byte	.LASF47
 3663 0248 0B       		.sleb128 11
 3664 0249 11       		.uleb128 0x11
 3665 024a C63F0000 		.4byte	.LASF48
 3666 024e 0C       		.sleb128 12
 3667 024f 11       		.uleb128 0x11
 3668 0250 092A0000 		.4byte	.LASF49
 3669 0254 0D       		.sleb128 13
 3670 0255 11       		.uleb128 0x11
 3671 0256 B01F0000 		.4byte	.LASF50
 3672 025a 0E       		.sleb128 14
 3673 025b 11       		.uleb128 0x11
 3674 025c 3B240000 		.4byte	.LASF51
 3675 0260 0F       		.sleb128 15
 3676 0261 11       		.uleb128 0x11
 3677 0262 D0050000 		.4byte	.LASF52
ARM GAS  C:\Users\Administrator\AppData\Local\Temp\ccNLOfxN.s 			page 106


 3678 0266 10       		.sleb128 16
 3679 0267 11       		.uleb128 0x11
 3680 0268 5B260000 		.4byte	.LASF53
 3681 026c 11       		.sleb128 17
 3682 026d 11       		.uleb128 0x11
 3683 026e 0F120000 		.4byte	.LASF54
 3684 0272 12       		.sleb128 18
 3685 0273 11       		.uleb128 0x11
 3686 0274 640C0000 		.4byte	.LASF55
 3687 0278 13       		.sleb128 19
 3688 0279 11       		.uleb128 0x11
 3689 027a 5C290000 		.4byte	.LASF56
 3690 027e 14       		.sleb128 20
 3691 027f 11       		.uleb128 0x11
 3692 0280 FF130000 		.4byte	.LASF57
 3693 0284 15       		.sleb128 21
 3694 0285 11       		.uleb128 0x11
 3695 0286 1A200000 		.4byte	.LASF58
 3696 028a 16       		.sleb128 22
 3697 028b 11       		.uleb128 0x11
 3698 028c F0170000 		.4byte	.LASF59
 3699 0290 17       		.sleb128 23
 3700 0291 11       		.uleb128 0x11
 3701 0292 911C0000 		.4byte	.LASF60
 3702 0296 18       		.sleb128 24
 3703 0297 11       		.uleb128 0x11
 3704 0298 09220000 		.4byte	.LASF61
 3705 029c 19       		.sleb128 25
 3706 029d 11       		.uleb128 0x11
 3707 029e E22C0000 		.4byte	.LASF62
 3708 02a2 1A       		.sleb128 26
 3709 02a3 11       		.uleb128 0x11
 3710 02a4 4B1C0000 		.4byte	.LASF63
 3711 02a8 1B       		.sleb128 27
 3712 02a9 11       		.uleb128 0x11
 3713 02aa EF330000 		.4byte	.LASF64
 3714 02ae 1C       		.sleb128 28
 3715 02af 11       		.uleb128 0x11
 3716 02b0 F5150000 		.4byte	.LASF65
 3717 02b4 1D       		.sleb128 29
 3718 02b5 11       		.uleb128 0x11
 3719 02b6 CA350000 		.4byte	.LASF66
 3720 02ba 1E       		.sleb128 30
 3721 02bb 11       		.uleb128 0x11
 3722 02bc 2A0F0000 		.4byte	.LASF67
 3723 02c0 1F       		.sleb128 31
 3724 02c1 11       		.uleb128 0x11
 3725 02c2 443A0000 		.4byte	.LASF68
 3726 02c6 20       		.sleb128 32
 3727 02c7 11       		.uleb128 0x11
 3728 02c8 64180000 		.4byte	.LASF69
 3729 02cc 21       		.sleb128 33
 3730 02cd 11       		.uleb128 0x11
 3731 02ce 60090000 		.4byte	.LASF70
 3732 02d2 22       		.sleb128 34
 3733 02d3 11       		.uleb128 0x11
 3734 02d4 B6410000 		.4byte	.LASF71
ARM GAS  C:\Users\Administrator\AppData\Local\Temp\ccNLOfxN.s 			page 107


 3735 02d8 23       		.sleb128 35
 3736 02d9 11       		.uleb128 0x11
 3737 02da 84050000 		.4byte	.LASF72
 3738 02de 24       		.sleb128 36
 3739 02df 11       		.uleb128 0x11
 3740 02e0 3E1F0000 		.4byte	.LASF73
 3741 02e4 25       		.sleb128 37
 3742 02e5 11       		.uleb128 0x11
 3743 02e6 772F0000 		.4byte	.LASF74
 3744 02ea 26       		.sleb128 38
 3745 02eb 11       		.uleb128 0x11
 3746 02ec CE240000 		.4byte	.LASF75
 3747 02f0 27       		.sleb128 39
 3748 02f1 11       		.uleb128 0x11
 3749 02f2 5F270000 		.4byte	.LASF76
 3750 02f6 28       		.sleb128 40
 3751 02f7 11       		.uleb128 0x11
 3752 02f8 1A060000 		.4byte	.LASF77
 3753 02fc 29       		.sleb128 41
 3754 02fd 11       		.uleb128 0x11
 3755 02fe A41A0000 		.4byte	.LASF78
 3756 0302 FF01     		.sleb128 255
 3757 0304 11       		.uleb128 0x11
 3758 0305 6F1D0000 		.4byte	.LASF79
 3759 0309 8002     		.sleb128 256
 3760 030b 11       		.uleb128 0x11
 3761 030c 68410000 		.4byte	.LASF80
 3762 0310 8102     		.sleb128 257
 3763 0312 11       		.uleb128 0x11
 3764 0313 00190000 		.4byte	.LASF81
 3765 0317 8202     		.sleb128 258
 3766 0319 11       		.uleb128 0x11
 3767 031a 9C2C0000 		.4byte	.LASF82
 3768 031e 8302     		.sleb128 259
 3769 0320 11       		.uleb128 0x11
 3770 0321 832C0000 		.4byte	.LASF83
 3771 0325 8402     		.sleb128 260
 3772 0327 11       		.uleb128 0x11
 3773 0328 900D0000 		.4byte	.LASF84
 3774 032c 8502     		.sleb128 261
 3775 032e 11       		.uleb128 0x11
 3776 032f 63320000 		.4byte	.LASF85
 3777 0333 8602     		.sleb128 262
 3778 0335 00       		.byte	0
 3779 0336 03       		.uleb128 0x3
 3780 0337 6C3E0000 		.4byte	.LASF86
 3781 033b 07       		.byte	0x7
 3782 033c D4       		.byte	0xd4
 3783 033d F9010000 		.4byte	0x1f9
 3784 0341 0E       		.uleb128 0xe
 3785 0342 07       		.byte	0x7
 3786 0343 07       		.byte	0x7
 3787 0344 DA       		.byte	0xda
 3788 0345 62030000 		.4byte	0x362
 3789 0349 0B       		.uleb128 0xb
 3790 034a 4E3D0000 		.4byte	.LASF87
 3791 034e 07       		.byte	0x7
ARM GAS  C:\Users\Administrator\AppData\Local\Temp\ccNLOfxN.s 			page 108


 3792 034f DC       		.byte	0xdc
 3793 0350 62030000 		.4byte	0x362
 3794 0354 00       		.byte	0
 3795 0355 0B       		.uleb128 0xb
 3796 0356 10070000 		.4byte	.LASF88
 3797 035a 07       		.byte	0x7
 3798 035b DD       		.byte	0xdd
 3799 035c AD000000 		.4byte	0xad
 3800 0360 06       		.byte	0x6
 3801 0361 00       		.byte	0
 3802 0362 0C       		.uleb128 0xc
 3803 0363 AD000000 		.4byte	0xad
 3804 0367 72030000 		.4byte	0x372
 3805 036b 0D       		.uleb128 0xd
 3806 036c 1B010000 		.4byte	0x11b
 3807 0370 05       		.byte	0x5
 3808 0371 00       		.byte	0
 3809 0372 03       		.uleb128 0x3
 3810 0373 5A340000 		.4byte	.LASF89
 3811 0377 07       		.byte	0x7
 3812 0378 DE       		.byte	0xde
 3813 0379 41030000 		.4byte	0x341
 3814 037d 10       		.uleb128 0x10
 3815 037e 01       		.byte	0x1
 3816 037f 07       		.byte	0x7
 3817 0380 E2       		.byte	0xe2
 3818 0381 D4030000 		.4byte	0x3d4
 3819 0385 11       		.uleb128 0x11
 3820 0386 0E2F0000 		.4byte	.LASF90
 3821 038a 00       		.sleb128 0
 3822 038b 11       		.uleb128 0x11
 3823 038c 1A0A0000 		.4byte	.LASF91
 3824 0390 01       		.sleb128 1
 3825 0391 11       		.uleb128 0x11
 3826 0392 1D300000 		.4byte	.LASF92
 3827 0396 02       		.sleb128 2
 3828 0397 11       		.uleb128 0x11
 3829 0398 F21E0000 		.4byte	.LASF93
 3830 039c 03       		.sleb128 3
 3831 039d 11       		.uleb128 0x11
 3832 039e 5C0D0000 		.4byte	.LASF94
 3833 03a2 04       		.sleb128 4
 3834 03a3 11       		.uleb128 0x11
 3835 03a4 89350000 		.4byte	.LASF95
 3836 03a8 05       		.sleb128 5
 3837 03a9 11       		.uleb128 0x11
 3838 03aa 14230000 		.4byte	.LASF96
 3839 03ae 06       		.sleb128 6
 3840 03af 11       		.uleb128 0x11
 3841 03b0 C71E0000 		.4byte	.LASF97
 3842 03b4 07       		.sleb128 7
 3843 03b5 11       		.uleb128 0x11
 3844 03b6 86070000 		.4byte	.LASF98
 3845 03ba 08       		.sleb128 8
 3846 03bb 11       		.uleb128 0x11
 3847 03bc A6210000 		.4byte	.LASF99
 3848 03c0 09       		.sleb128 9
ARM GAS  C:\Users\Administrator\AppData\Local\Temp\ccNLOfxN.s 			page 109


 3849 03c1 11       		.uleb128 0x11
 3850 03c2 7C120000 		.4byte	.LASF100
 3851 03c6 0A       		.sleb128 10
 3852 03c7 11       		.uleb128 0x11
 3853 03c8 38070000 		.4byte	.LASF101
 3854 03cc 15       		.sleb128 21
 3855 03cd 11       		.uleb128 0x11
 3856 03ce FD1A0000 		.4byte	.LASF102
 3857 03d2 18       		.sleb128 24
 3858 03d3 00       		.byte	0
 3859 03d4 05       		.uleb128 0x5
 3860 03d5 9C2B0000 		.4byte	.LASF103
 3861 03d9 07       		.byte	0x7
 3862 03da 0C01     		.2byte	0x10c
 3863 03dc 7D030000 		.4byte	0x37d
 3864 03e0 12       		.uleb128 0x12
 3865 03e1 04       		.byte	0x4
 3866 03e2 07       		.byte	0x7
 3867 03e3 1001     		.2byte	0x110
 3868 03e5 1E040000 		.4byte	0x41e
 3869 03e9 13       		.uleb128 0x13
 3870 03ea 75390000 		.4byte	.LASF104
 3871 03ee 07       		.byte	0x7
 3872 03ef 1901     		.2byte	0x119
 3873 03f1 AD000000 		.4byte	0xad
 3874 03f5 00       		.byte	0
 3875 03f6 13       		.uleb128 0x13
 3876 03f7 54280000 		.4byte	.LASF105
 3877 03fb 07       		.byte	0x7
 3878 03fc 1F01     		.2byte	0x11f
 3879 03fe AD000000 		.4byte	0xad
 3880 0402 01       		.byte	0x1
 3881 0403 13       		.uleb128 0x13
 3882 0404 2C010000 		.4byte	.LASF106
 3883 0408 07       		.byte	0x7
 3884 0409 2501     		.2byte	0x125
 3885 040b AD000000 		.4byte	0xad
 3886 040f 02       		.byte	0x2
 3887 0410 13       		.uleb128 0x13
 3888 0411 B6390000 		.4byte	.LASF107
 3889 0415 07       		.byte	0x7
 3890 0416 2901     		.2byte	0x129
 3891 0418 D4030000 		.4byte	0x3d4
 3892 041c 03       		.byte	0x3
 3893 041d 00       		.byte	0
 3894 041e 05       		.uleb128 0x5
 3895 041f 75140000 		.4byte	.LASF108
 3896 0423 07       		.byte	0x7
 3897 0424 2B01     		.2byte	0x12b
 3898 0426 E0030000 		.4byte	0x3e0
 3899 042a 14       		.uleb128 0x14
 3900 042b 01       		.byte	0x1
 3901 042c 07       		.byte	0x7
 3902 042d 3A01     		.2byte	0x13a
 3903 042f B0050000 		.4byte	0x5b0
 3904 0433 11       		.uleb128 0x11
 3905 0434 A2140000 		.4byte	.LASF109
ARM GAS  C:\Users\Administrator\AppData\Local\Temp\ccNLOfxN.s 			page 110


 3906 0438 00       		.sleb128 0
 3907 0439 11       		.uleb128 0x11
 3908 043a 510C0000 		.4byte	.LASF110
 3909 043e 01       		.sleb128 1
 3910 043f 11       		.uleb128 0x11
 3911 0440 92310000 		.4byte	.LASF111
 3912 0444 02       		.sleb128 2
 3913 0445 11       		.uleb128 0x11
 3914 0446 05100000 		.4byte	.LASF112
 3915 044a 03       		.sleb128 3
 3916 044b 11       		.uleb128 0x11
 3917 044c 26430000 		.4byte	.LASF113
 3918 0450 04       		.sleb128 4
 3919 0451 11       		.uleb128 0x11
 3920 0452 FE1F0000 		.4byte	.LASF114
 3921 0456 05       		.sleb128 5
 3922 0457 11       		.uleb128 0x11
 3923 0458 063C0000 		.4byte	.LASF115
 3924 045c 20       		.sleb128 32
 3925 045d 11       		.uleb128 0x11
 3926 045e 5F080000 		.4byte	.LASF116
 3927 0462 21       		.sleb128 33
 3928 0463 11       		.uleb128 0x11
 3929 0464 53220000 		.4byte	.LASF117
 3930 0468 22       		.sleb128 34
 3931 0469 11       		.uleb128 0x11
 3932 046a 5D2C0000 		.4byte	.LASF118
 3933 046e 23       		.sleb128 35
 3934 046f 11       		.uleb128 0x11
 3935 0470 C01C0000 		.4byte	.LASF119
 3936 0474 24       		.sleb128 36
 3937 0475 11       		.uleb128 0x11
 3938 0476 181D0000 		.4byte	.LASF120
 3939 047a 25       		.sleb128 37
 3940 047b 11       		.uleb128 0x11
 3941 047c 73380000 		.4byte	.LASF121
 3942 0480 26       		.sleb128 38
 3943 0481 11       		.uleb128 0x11
 3944 0482 D7020000 		.4byte	.LASF122
 3945 0486 27       		.sleb128 39
 3946 0487 11       		.uleb128 0x11
 3947 0488 F3360000 		.4byte	.LASF123
 3948 048c 28       		.sleb128 40
 3949 048d 11       		.uleb128 0x11
 3950 048e 282F0000 		.4byte	.LASF124
 3951 0492 29       		.sleb128 41
 3952 0493 11       		.uleb128 0x11
 3953 0494 14210000 		.4byte	.LASF125
 3954 0498 2A       		.sleb128 42
 3955 0499 11       		.uleb128 0x11
 3956 049a 342B0000 		.4byte	.LASF126
 3957 049e 2B       		.sleb128 43
 3958 049f 11       		.uleb128 0x11
 3959 04a0 44400000 		.4byte	.LASF127
 3960 04a4 2C       		.sleb128 44
 3961 04a5 11       		.uleb128 0x11
 3962 04a6 DE3A0000 		.4byte	.LASF128
ARM GAS  C:\Users\Administrator\AppData\Local\Temp\ccNLOfxN.s 			page 111


 3963 04aa C000     		.sleb128 64
 3964 04ac 11       		.uleb128 0x11
 3965 04ad 06030000 		.4byte	.LASF129
 3966 04b1 C100     		.sleb128 65
 3967 04b3 11       		.uleb128 0x11
 3968 04b4 3B430000 		.4byte	.LASF130
 3969 04b8 C200     		.sleb128 66
 3970 04ba 11       		.uleb128 0x11
 3971 04bb D32F0000 		.4byte	.LASF131
 3972 04bf C300     		.sleb128 67
 3973 04c1 11       		.uleb128 0x11
 3974 04c2 FD100000 		.4byte	.LASF132
 3975 04c6 C400     		.sleb128 68
 3976 04c8 11       		.uleb128 0x11
 3977 04c9 5D100000 		.4byte	.LASF133
 3978 04cd C500     		.sleb128 69
 3979 04cf 11       		.uleb128 0x11
 3980 04d0 2F360000 		.4byte	.LASF134
 3981 04d4 C600     		.sleb128 70
 3982 04d6 11       		.uleb128 0x11
 3983 04d7 11360000 		.4byte	.LASF135
 3984 04db C700     		.sleb128 71
 3985 04dd 11       		.uleb128 0x11
 3986 04de 1A130000 		.4byte	.LASF136
 3987 04e2 C800     		.sleb128 72
 3988 04e4 11       		.uleb128 0x11
 3989 04e5 BF2C0000 		.4byte	.LASF137
 3990 04e9 C900     		.sleb128 73
 3991 04eb 11       		.uleb128 0x11
 3992 04ec 0C150000 		.4byte	.LASF138
 3993 04f0 CA00     		.sleb128 74
 3994 04f2 11       		.uleb128 0x11
 3995 04f3 4A140000 		.4byte	.LASF139
 3996 04f7 CB00     		.sleb128 75
 3997 04f9 11       		.uleb128 0x11
 3998 04fa BB2B0000 		.4byte	.LASF140
 3999 04fe CC00     		.sleb128 76
 4000 0500 11       		.uleb128 0x11
 4001 0501 91370000 		.4byte	.LASF141
 4002 0505 CD00     		.sleb128 77
 4003 0507 11       		.uleb128 0x11
 4004 0508 320B0000 		.4byte	.LASF142
 4005 050c CE00     		.sleb128 78
 4006 050e 11       		.uleb128 0x11
 4007 050f 9F280000 		.4byte	.LASF143
 4008 0513 CF00     		.sleb128 79
 4009 0515 11       		.uleb128 0x11
 4010 0516 E73B0000 		.4byte	.LASF144
 4011 051a D000     		.sleb128 80
 4012 051c 11       		.uleb128 0x11
 4013 051d 7B150000 		.4byte	.LASF145
 4014 0521 D100     		.sleb128 81
 4015 0523 11       		.uleb128 0x11
 4016 0524 3E080000 		.4byte	.LASF146
 4017 0528 D200     		.sleb128 82
 4018 052a 11       		.uleb128 0x11
 4019 052b 5D3F0000 		.4byte	.LASF147
ARM GAS  C:\Users\Administrator\AppData\Local\Temp\ccNLOfxN.s 			page 112


 4020 052f D300     		.sleb128 83
 4021 0531 11       		.uleb128 0x11
 4022 0532 AB440000 		.4byte	.LASF148
 4023 0536 D400     		.sleb128 84
 4024 0538 11       		.uleb128 0x11
 4025 0539 E92B0000 		.4byte	.LASF149
 4026 053d D500     		.sleb128 85
 4027 053f 11       		.uleb128 0x11
 4028 0540 95160000 		.4byte	.LASF150
 4029 0544 D600     		.sleb128 86
 4030 0546 11       		.uleb128 0x11
 4031 0547 B0270000 		.4byte	.LASF151
 4032 054b D700     		.sleb128 87
 4033 054d 11       		.uleb128 0x11
 4034 054e E7400000 		.4byte	.LASF152
 4035 0552 F000     		.sleb128 112
 4036 0554 11       		.uleb128 0x11
 4037 0555 D71A0000 		.4byte	.LASF153
 4038 0559 F100     		.sleb128 113
 4039 055b 11       		.uleb128 0x11
 4040 055c BF0E0000 		.4byte	.LASF154
 4041 0560 F200     		.sleb128 114
 4042 0562 11       		.uleb128 0x11
 4043 0563 C93B0000 		.4byte	.LASF155
 4044 0567 F300     		.sleb128 115
 4045 0569 11       		.uleb128 0x11
 4046 056a 072D0000 		.4byte	.LASF156
 4047 056e F400     		.sleb128 116
 4048 0570 11       		.uleb128 0x11
 4049 0571 CD210000 		.4byte	.LASF157
 4050 0575 F500     		.sleb128 117
 4051 0577 11       		.uleb128 0x11
 4052 0578 F9120000 		.4byte	.LASF158
 4053 057c F600     		.sleb128 118
 4054 057e 11       		.uleb128 0x11
 4055 057f 99320000 		.4byte	.LASF159
 4056 0583 F700     		.sleb128 119
 4057 0585 11       		.uleb128 0x11
 4058 0586 87060000 		.4byte	.LASF160
 4059 058a F800     		.sleb128 120
 4060 058c 11       		.uleb128 0x11
 4061 058d EC110000 		.4byte	.LASF161
 4062 0591 F900     		.sleb128 121
 4063 0593 11       		.uleb128 0x11
 4064 0594 7F430000 		.4byte	.LASF162
 4065 0598 FA00     		.sleb128 122
 4066 059a 11       		.uleb128 0x11
 4067 059b 24250000 		.4byte	.LASF163
 4068 059f FA01     		.sleb128 250
 4069 05a1 11       		.uleb128 0x11
 4070 05a2 4D3E0000 		.4byte	.LASF164
 4071 05a6 FB01     		.sleb128 251
 4072 05a8 11       		.uleb128 0x11
 4073 05a9 262B0000 		.4byte	.LASF165
 4074 05ad FF01     		.sleb128 255
 4075 05af 00       		.byte	0
 4076 05b0 14       		.uleb128 0x14
ARM GAS  C:\Users\Administrator\AppData\Local\Temp\ccNLOfxN.s 			page 113


 4077 05b1 01       		.byte	0x1
 4078 05b2 07       		.byte	0x7
 4079 05b3 A002     		.2byte	0x2a0
 4080 05b5 D8050000 		.4byte	0x5d8
 4081 05b9 11       		.uleb128 0x11
 4082 05ba 84100000 		.4byte	.LASF166
 4083 05be 00       		.sleb128 0
 4084 05bf 11       		.uleb128 0x11
 4085 05c0 7C210000 		.4byte	.LASF167
 4086 05c4 01       		.sleb128 1
 4087 05c5 11       		.uleb128 0x11
 4088 05c6 F2410000 		.4byte	.LASF168
 4089 05ca 02       		.sleb128 2
 4090 05cb 11       		.uleb128 0x11
 4091 05cc 85090000 		.4byte	.LASF169
 4092 05d0 03       		.sleb128 3
 4093 05d1 11       		.uleb128 0x11
 4094 05d2 CF370000 		.4byte	.LASF170
 4095 05d6 04       		.sleb128 4
 4096 05d7 00       		.byte	0
 4097 05d8 05       		.uleb128 0x5
 4098 05d9 F83A0000 		.4byte	.LASF171
 4099 05dd 07       		.byte	0x7
 4100 05de A602     		.2byte	0x2a6
 4101 05e0 B0050000 		.4byte	0x5b0
 4102 05e4 12       		.uleb128 0x12
 4103 05e5 02       		.byte	0x2
 4104 05e6 07       		.byte	0x7
 4105 05e7 A902     		.2byte	0x2a9
 4106 05e9 08060000 		.4byte	0x608
 4107 05ed 13       		.uleb128 0x13
 4108 05ee B1090000 		.4byte	.LASF172
 4109 05f2 07       		.byte	0x7
 4110 05f3 AC02     		.2byte	0x2ac
 4111 05f5 AD000000 		.4byte	0xad
 4112 05f9 00       		.byte	0
 4113 05fa 13       		.uleb128 0x13
 4114 05fb EC420000 		.4byte	.LASF173
 4115 05ff 07       		.byte	0x7
 4116 0600 AF02     		.2byte	0x2af
 4117 0602 AD000000 		.4byte	0xad
 4118 0606 01       		.byte	0x1
 4119 0607 00       		.byte	0
 4120 0608 05       		.uleb128 0x5
 4121 0609 9E080000 		.4byte	.LASF174
 4122 060d 07       		.byte	0x7
 4123 060e B102     		.2byte	0x2b1
 4124 0610 E4050000 		.4byte	0x5e4
 4125 0614 05       		.uleb128 0x5
 4126 0615 7D320000 		.4byte	.LASF175
 4127 0619 07       		.byte	0x7
 4128 061a B302     		.2byte	0x2b3
 4129 061c B9000000 		.4byte	0xb9
 4130 0620 12       		.uleb128 0x12
 4131 0621 0C       		.byte	0xc
 4132 0622 07       		.byte	0x7
 4133 0623 B602     		.2byte	0x2b6
ARM GAS  C:\Users\Administrator\AppData\Local\Temp\ccNLOfxN.s 			page 114


 4134 0625 44060000 		.4byte	0x644
 4135 0629 13       		.uleb128 0x13
 4136 062a DB320000 		.4byte	.LASF176
 4137 062e 07       		.byte	0x7
 4138 062f B902     		.2byte	0x2b9
 4139 0631 EE010000 		.4byte	0x1ee
 4140 0635 00       		.byte	0
 4141 0636 13       		.uleb128 0x13
 4142 0637 09280000 		.4byte	.LASF177
 4143 063b 07       		.byte	0x7
 4144 063c BC02     		.2byte	0x2bc
 4145 063e 14060000 		.4byte	0x614
 4146 0642 08       		.byte	0x8
 4147 0643 00       		.byte	0
 4148 0644 05       		.uleb128 0x5
 4149 0645 F60D0000 		.4byte	.LASF178
 4150 0649 07       		.byte	0x7
 4151 064a BE02     		.2byte	0x2be
 4152 064c 20060000 		.4byte	0x620
 4153 0650 12       		.uleb128 0x12
 4154 0651 10       		.byte	0x10
 4155 0652 07       		.byte	0x7
 4156 0653 C102     		.2byte	0x2c1
 4157 0655 74060000 		.4byte	0x674
 4158 0659 13       		.uleb128 0x13
 4159 065a 1A350000 		.4byte	.LASF179
 4160 065e 07       		.byte	0x7
 4161 065f C402     		.2byte	0x2c4
 4162 0661 08060000 		.4byte	0x608
 4163 0665 00       		.byte	0
 4164 0666 13       		.uleb128 0x13
 4165 0667 BA340000 		.4byte	.LASF180
 4166 066b 07       		.byte	0x7
 4167 066c C702     		.2byte	0x2c7
 4168 066e 44060000 		.4byte	0x644
 4169 0672 04       		.byte	0x4
 4170 0673 00       		.byte	0
 4171 0674 05       		.uleb128 0x5
 4172 0675 5C280000 		.4byte	.LASF181
 4173 0679 07       		.byte	0x7
 4174 067a C902     		.2byte	0x2c9
 4175 067c 50060000 		.4byte	0x650
 4176 0680 05       		.uleb128 0x5
 4177 0681 EE3F0000 		.4byte	.LASF182
 4178 0685 07       		.byte	0x7
 4179 0686 CC02     		.2byte	0x2cc
 4180 0688 74060000 		.4byte	0x674
 4181 068c 14       		.uleb128 0x14
 4182 068d 01       		.byte	0x1
 4183 068e 07       		.byte	0x7
 4184 068f D202     		.2byte	0x2d2
 4185 0691 B5060000 		.4byte	0x6b5
 4186 0695 11       		.uleb128 0x11
 4187 0696 25310000 		.4byte	.LASF183
 4188 069a 01       		.sleb128 1
 4189 069b 11       		.uleb128 0x11
 4190 069c CE110000 		.4byte	.LASF184
ARM GAS  C:\Users\Administrator\AppData\Local\Temp\ccNLOfxN.s 			page 115


 4191 06a0 02       		.sleb128 2
 4192 06a1 11       		.uleb128 0x11
 4193 06a2 74230000 		.4byte	.LASF185
 4194 06a6 03       		.sleb128 3
 4195 06a7 11       		.uleb128 0x11
 4196 06a8 FF3D0000 		.4byte	.LASF186
 4197 06ac 04       		.sleb128 4
 4198 06ad 11       		.uleb128 0x11
 4199 06ae CD1B0000 		.4byte	.LASF187
 4200 06b2 FF01     		.sleb128 255
 4201 06b4 00       		.byte	0
 4202 06b5 05       		.uleb128 0x5
 4203 06b6 66130000 		.4byte	.LASF188
 4204 06ba 07       		.byte	0x7
 4205 06bb EE02     		.2byte	0x2ee
 4206 06bd 8C060000 		.4byte	0x68c
 4207 06c1 14       		.uleb128 0x14
 4208 06c2 01       		.byte	0x1
 4209 06c3 07       		.byte	0x7
 4210 06c4 F102     		.2byte	0x2f1
 4211 06c6 FC060000 		.4byte	0x6fc
 4212 06ca 11       		.uleb128 0x11
 4213 06cb A4120000 		.4byte	.LASF189
 4214 06cf 01       		.sleb128 1
 4215 06d0 11       		.uleb128 0x11
 4216 06d1 CC0D0000 		.4byte	.LASF190
 4217 06d5 02       		.sleb128 2
 4218 06d6 11       		.uleb128 0x11
 4219 06d7 B70C0000 		.4byte	.LASF191
 4220 06db 03       		.sleb128 3
 4221 06dc 11       		.uleb128 0x11
 4222 06dd 44030000 		.4byte	.LASF192
 4223 06e1 04       		.sleb128 4
 4224 06e2 11       		.uleb128 0x11
 4225 06e3 A03D0000 		.4byte	.LASF193
 4226 06e7 05       		.sleb128 5
 4227 06e8 11       		.uleb128 0x11
 4228 06e9 88450000 		.4byte	.LASF194
 4229 06ed 06       		.sleb128 6
 4230 06ee 11       		.uleb128 0x11
 4231 06ef 8B030000 		.4byte	.LASF195
 4232 06f3 07       		.sleb128 7
 4233 06f4 11       		.uleb128 0x11
 4234 06f5 A33E0000 		.4byte	.LASF196
 4235 06f9 FF01     		.sleb128 255
 4236 06fb 00       		.byte	0
 4237 06fc 05       		.uleb128 0x5
 4238 06fd 4F1D0000 		.4byte	.LASF197
 4239 0701 07       		.byte	0x7
 4240 0702 FA02     		.2byte	0x2fa
 4241 0704 C1060000 		.4byte	0x6c1
 4242 0708 05       		.uleb128 0x5
 4243 0709 E3070000 		.4byte	.LASF198
 4244 070d 07       		.byte	0x7
 4245 070e 0003     		.2byte	0x300
 4246 0710 14070000 		.4byte	0x714
 4247 0714 07       		.uleb128 0x7
ARM GAS  C:\Users\Administrator\AppData\Local\Temp\ccNLOfxN.s 			page 116


 4248 0715 04       		.byte	0x4
 4249 0716 1A070000 		.4byte	0x71a
 4250 071a 15       		.uleb128 0x15
 4251 071b 2A070000 		.4byte	0x72a
 4252 071f 16       		.uleb128 0x16
 4253 0720 C5000000 		.4byte	0xc5
 4254 0724 16       		.uleb128 0x16
 4255 0725 22010000 		.4byte	0x122
 4256 0729 00       		.byte	0
 4257 072a 12       		.uleb128 0x12
 4258 072b 20       		.byte	0x20
 4259 072c 07       		.byte	0x7
 4260 072d CD03     		.2byte	0x3cd
 4261 072f 4E070000 		.4byte	0x74e
 4262 0733 13       		.uleb128 0x13
 4263 0734 E12B0000 		.4byte	.LASF199
 4264 0738 07       		.byte	0x7
 4265 0739 D003     		.2byte	0x3d0
 4266 073b 4E070000 		.4byte	0x74e
 4267 073f 00       		.byte	0
 4268 0740 13       		.uleb128 0x13
 4269 0741 5A350000 		.4byte	.LASF200
 4270 0745 07       		.byte	0x7
 4271 0746 D303     		.2byte	0x3d3
 4272 0748 AD000000 		.4byte	0xad
 4273 074c 1F       		.byte	0x1f
 4274 074d 00       		.byte	0
 4275 074e 0C       		.uleb128 0xc
 4276 074f AD000000 		.4byte	0xad
 4277 0753 5E070000 		.4byte	0x75e
 4278 0757 0D       		.uleb128 0xd
 4279 0758 1B010000 		.4byte	0x11b
 4280 075c 1E       		.byte	0x1e
 4281 075d 00       		.byte	0
 4282 075e 05       		.uleb128 0x5
 4283 075f BD120000 		.4byte	.LASF201
 4284 0763 07       		.byte	0x7
 4285 0764 D503     		.2byte	0x3d5
 4286 0766 2A070000 		.4byte	0x72a
 4287 076a 14       		.uleb128 0x14
 4288 076b 01       		.byte	0x1
 4289 076c 07       		.byte	0x7
 4290 076d D903     		.2byte	0x3d9
 4291 076f 92070000 		.4byte	0x792
 4292 0773 11       		.uleb128 0x11
 4293 0774 8A420000 		.4byte	.LASF202
 4294 0778 00       		.sleb128 0
 4295 0779 11       		.uleb128 0x11
 4296 077a CC030000 		.4byte	.LASF203
 4297 077e 01       		.sleb128 1
 4298 077f 11       		.uleb128 0x11
 4299 0780 9C3B0000 		.4byte	.LASF204
 4300 0784 02       		.sleb128 2
 4301 0785 11       		.uleb128 0x11
 4302 0786 700E0000 		.4byte	.LASF205
 4303 078a 03       		.sleb128 3
 4304 078b 11       		.uleb128 0x11
ARM GAS  C:\Users\Administrator\AppData\Local\Temp\ccNLOfxN.s 			page 117


 4305 078c 16190000 		.4byte	.LASF206
 4306 0790 04       		.sleb128 4
 4307 0791 00       		.byte	0
 4308 0792 05       		.uleb128 0x5
 4309 0793 8B2B0000 		.4byte	.LASF207
 4310 0797 07       		.byte	0x7
 4311 0798 E903     		.2byte	0x3e9
 4312 079a 6A070000 		.4byte	0x76a
 4313 079e 12       		.uleb128 0x12
 4314 079f 10       		.byte	0x10
 4315 07a0 07       		.byte	0x7
 4316 07a1 EC03     		.2byte	0x3ec
 4317 07a3 10080000 		.4byte	0x810
 4318 07a7 13       		.uleb128 0x13
 4319 07a8 A1240000 		.4byte	.LASF208
 4320 07ac 07       		.byte	0x7
 4321 07ad F203     		.2byte	0x3f2
 4322 07af B9000000 		.4byte	0xb9
 4323 07b3 00       		.byte	0
 4324 07b4 13       		.uleb128 0x13
 4325 07b5 47460000 		.4byte	.LASF209
 4326 07b9 07       		.byte	0x7
 4327 07ba F803     		.2byte	0x3f8
 4328 07bc B9000000 		.4byte	0xb9
 4329 07c0 02       		.byte	0x2
 4330 07c1 13       		.uleb128 0x13
 4331 07c2 841D0000 		.4byte	.LASF210
 4332 07c6 07       		.byte	0x7
 4333 07c7 0104     		.2byte	0x401
 4334 07c9 92070000 		.4byte	0x792
 4335 07cd 04       		.byte	0x4
 4336 07ce 13       		.uleb128 0x13
 4337 07cf 1B450000 		.4byte	.LASF211
 4338 07d3 07       		.byte	0x7
 4339 07d4 0704     		.2byte	0x407
 4340 07d6 AD000000 		.4byte	0xad
 4341 07da 05       		.byte	0x5
 4342 07db 13       		.uleb128 0x13
 4343 07dc F3250000 		.4byte	.LASF212
 4344 07e0 07       		.byte	0x7
 4345 07e1 0E04     		.2byte	0x40e
 4346 07e3 AD000000 		.4byte	0xad
 4347 07e7 06       		.byte	0x6
 4348 07e8 13       		.uleb128 0x13
 4349 07e9 E7410000 		.4byte	.LASF213
 4350 07ed 07       		.byte	0x7
 4351 07ee 1404     		.2byte	0x414
 4352 07f0 62030000 		.4byte	0x362
 4353 07f4 07       		.byte	0x7
 4354 07f5 13       		.uleb128 0x13
 4355 07f6 34420000 		.4byte	.LASF214
 4356 07fa 07       		.byte	0x7
 4357 07fb 1C04     		.2byte	0x41c
 4358 07fd AD000000 		.4byte	0xad
 4359 0801 0D       		.byte	0xd
 4360 0802 13       		.uleb128 0x13
 4361 0803 DC1C0000 		.4byte	.LASF215
ARM GAS  C:\Users\Administrator\AppData\Local\Temp\ccNLOfxN.s 			page 118


 4362 0807 07       		.byte	0x7
 4363 0808 2804     		.2byte	0x428
 4364 080a AD000000 		.4byte	0xad
 4365 080e 0E       		.byte	0xe
 4366 080f 00       		.byte	0
 4367 0810 05       		.uleb128 0x5
 4368 0811 E11B0000 		.4byte	.LASF216
 4369 0815 07       		.byte	0x7
 4370 0816 2A04     		.2byte	0x42a
 4371 0818 9E070000 		.4byte	0x79e
 4372 081c 12       		.uleb128 0x12
 4373 081d 20       		.byte	0x20
 4374 081e 07       		.byte	0x7
 4375 081f 2F04     		.2byte	0x42f
 4376 0821 40080000 		.4byte	0x840
 4377 0825 13       		.uleb128 0x13
 4378 0826 61000000 		.4byte	.LASF217
 4379 082a 07       		.byte	0x7
 4380 082b 3304     		.2byte	0x433
 4381 082d 4E070000 		.4byte	0x74e
 4382 0831 00       		.byte	0
 4383 0832 13       		.uleb128 0x13
 4384 0833 353A0000 		.4byte	.LASF218
 4385 0837 07       		.byte	0x7
 4386 0838 3604     		.2byte	0x436
 4387 083a AD000000 		.4byte	0xad
 4388 083e 1F       		.byte	0x1f
 4389 083f 00       		.byte	0
 4390 0840 05       		.uleb128 0x5
 4391 0841 A6380000 		.4byte	.LASF219
 4392 0845 07       		.byte	0x7
 4393 0846 3804     		.2byte	0x438
 4394 0848 1C080000 		.4byte	0x81c
 4395 084c 14       		.uleb128 0x14
 4396 084d 01       		.byte	0x1
 4397 084e 07       		.byte	0x7
 4398 084f 5A04     		.2byte	0x45a
 4399 0851 86080000 		.4byte	0x886
 4400 0855 11       		.uleb128 0x11
 4401 0856 5E0F0000 		.4byte	.LASF220
 4402 085a 01       		.sleb128 1
 4403 085b 11       		.uleb128 0x11
 4404 085c 940A0000 		.4byte	.LASF221
 4405 0860 02       		.sleb128 2
 4406 0861 11       		.uleb128 0x11
 4407 0862 372E0000 		.4byte	.LASF222
 4408 0866 03       		.sleb128 3
 4409 0867 11       		.uleb128 0x11
 4410 0868 45090000 		.4byte	.LASF223
 4411 086c 04       		.sleb128 4
 4412 086d 11       		.uleb128 0x11
 4413 086e DD130000 		.4byte	.LASF224
 4414 0872 05       		.sleb128 5
 4415 0873 11       		.uleb128 0x11
 4416 0874 891E0000 		.4byte	.LASF225
 4417 0878 06       		.sleb128 6
 4418 0879 11       		.uleb128 0x11
ARM GAS  C:\Users\Administrator\AppData\Local\Temp\ccNLOfxN.s 			page 119


 4419 087a BD3D0000 		.4byte	.LASF226
 4420 087e 07       		.sleb128 7
 4421 087f 11       		.uleb128 0x11
 4422 0880 6A250000 		.4byte	.LASF227
 4423 0884 08       		.sleb128 8
 4424 0885 00       		.byte	0
 4425 0886 05       		.uleb128 0x5
 4426 0887 90220000 		.4byte	.LASF228
 4427 088b 07       		.byte	0x7
 4428 088c 6304     		.2byte	0x463
 4429 088e 4C080000 		.4byte	0x84c
 4430 0892 14       		.uleb128 0x14
 4431 0893 01       		.byte	0x1
 4432 0894 07       		.byte	0x7
 4433 0895 6704     		.2byte	0x467
 4434 0897 AE080000 		.4byte	0x8ae
 4435 089b 11       		.uleb128 0x11
 4436 089c 153E0000 		.4byte	.LASF229
 4437 08a0 00       		.sleb128 0
 4438 08a1 11       		.uleb128 0x11
 4439 08a2 36290000 		.4byte	.LASF230
 4440 08a6 01       		.sleb128 1
 4441 08a7 11       		.uleb128 0x11
 4442 08a8 D2400000 		.4byte	.LASF231
 4443 08ac 02       		.sleb128 2
 4444 08ad 00       		.byte	0
 4445 08ae 05       		.uleb128 0x5
 4446 08af 2D100000 		.4byte	.LASF232
 4447 08b3 07       		.byte	0x7
 4448 08b4 6E04     		.2byte	0x46e
 4449 08b6 92080000 		.4byte	0x892
 4450 08ba 12       		.uleb128 0x12
 4451 08bb 02       		.byte	0x2
 4452 08bc 07       		.byte	0x7
 4453 08bd 7104     		.2byte	0x471
 4454 08bf DE080000 		.4byte	0x8de
 4455 08c3 13       		.uleb128 0x13
 4456 08c4 36040000 		.4byte	.LASF233
 4457 08c8 07       		.byte	0x7
 4458 08c9 7404     		.2byte	0x474
 4459 08cb 86080000 		.4byte	0x886
 4460 08cf 00       		.byte	0
 4461 08d0 13       		.uleb128 0x13
 4462 08d1 150E0000 		.4byte	.LASF234
 4463 08d5 07       		.byte	0x7
 4464 08d6 7604     		.2byte	0x476
 4465 08d8 AE080000 		.4byte	0x8ae
 4466 08dc 01       		.byte	0x1
 4467 08dd 00       		.byte	0
 4468 08de 05       		.uleb128 0x5
 4469 08df A3400000 		.4byte	.LASF235
 4470 08e3 07       		.byte	0x7
 4471 08e4 7704     		.2byte	0x477
 4472 08e6 BA080000 		.4byte	0x8ba
 4473 08ea 14       		.uleb128 0x14
 4474 08eb 01       		.byte	0x1
 4475 08ec 07       		.byte	0x7
ARM GAS  C:\Users\Administrator\AppData\Local\Temp\ccNLOfxN.s 			page 120


 4476 08ed 3905     		.2byte	0x539
 4477 08ef 30090000 		.4byte	0x930
 4478 08f3 11       		.uleb128 0x11
 4479 08f4 04310000 		.4byte	.LASF236
 4480 08f8 00       		.sleb128 0
 4481 08f9 11       		.uleb128 0x11
 4482 08fa F6160000 		.4byte	.LASF237
 4483 08fe 01       		.sleb128 1
 4484 08ff 11       		.uleb128 0x11
 4485 0900 EC200000 		.4byte	.LASF238
 4486 0904 02       		.sleb128 2
 4487 0905 11       		.uleb128 0x11
 4488 0906 870C0000 		.4byte	.LASF239
 4489 090a 03       		.sleb128 3
 4490 090b 11       		.uleb128 0x11
 4491 090c 0F080000 		.4byte	.LASF240
 4492 0910 04       		.sleb128 4
 4493 0911 11       		.uleb128 0x11
 4494 0912 70160000 		.4byte	.LASF241
 4495 0916 05       		.sleb128 5
 4496 0917 11       		.uleb128 0x11
 4497 0918 8A170000 		.4byte	.LASF242
 4498 091c 06       		.sleb128 6
 4499 091d 11       		.uleb128 0x11
 4500 091e 1E290000 		.4byte	.LASF243
 4501 0922 07       		.sleb128 7
 4502 0923 11       		.uleb128 0x11
 4503 0924 BE230000 		.4byte	.LASF244
 4504 0928 08       		.sleb128 8
 4505 0929 11       		.uleb128 0x11
 4506 092a 9E000000 		.4byte	.LASF245
 4507 092e 09       		.sleb128 9
 4508 092f 00       		.byte	0
 4509 0930 14       		.uleb128 0x14
 4510 0931 02       		.byte	0x2
 4511 0932 07       		.byte	0x7
 4512 0933 4D06     		.2byte	0x64d
 4513 0935 26100000 		.4byte	0x1026
 4514 0939 11       		.uleb128 0x11
 4515 093a E6290000 		.4byte	.LASF246
 4516 093e 8002     		.sleb128 256
 4517 0940 11       		.uleb128 0x11
 4518 0941 A3430000 		.4byte	.LASF247
 4519 0945 8102     		.sleb128 257
 4520 0947 11       		.uleb128 0x11
 4521 0948 2F0C0000 		.4byte	.LASF248
 4522 094c 8202     		.sleb128 258
 4523 094e 11       		.uleb128 0x11
 4524 094f 59430000 		.4byte	.LASF249
 4525 0953 8302     		.sleb128 259
 4526 0955 11       		.uleb128 0x11
 4527 0956 38310000 		.4byte	.LASF250
 4528 095a 8402     		.sleb128 260
 4529 095c 11       		.uleb128 0x11
 4530 095d 113A0000 		.4byte	.LASF251
 4531 0961 8502     		.sleb128 261
 4532 0963 11       		.uleb128 0x11
ARM GAS  C:\Users\Administrator\AppData\Local\Temp\ccNLOfxN.s 			page 121


 4533 0964 61120000 		.4byte	.LASF252
 4534 0968 8602     		.sleb128 262
 4535 096a 11       		.uleb128 0x11
 4536 096b DB0E0000 		.4byte	.LASF253
 4537 096f 8702     		.sleb128 263
 4538 0971 11       		.uleb128 0x11
 4539 0972 7D410000 		.4byte	.LASF254
 4540 0976 8802     		.sleb128 264
 4541 0978 11       		.uleb128 0x11
 4542 0979 36060000 		.4byte	.LASF255
 4543 097d 8902     		.sleb128 265
 4544 097f 11       		.uleb128 0x11
 4545 0980 B4040000 		.4byte	.LASF256
 4546 0984 8A02     		.sleb128 266
 4547 0986 11       		.uleb128 0x11
 4548 0987 CE330000 		.4byte	.LASF257
 4549 098b 8B02     		.sleb128 267
 4550 098d 11       		.uleb128 0x11
 4551 098e CF230000 		.4byte	.LASF258
 4552 0992 8C02     		.sleb128 268
 4553 0994 11       		.uleb128 0x11
 4554 0995 A32F0000 		.4byte	.LASF259
 4555 0999 8D02     		.sleb128 269
 4556 099b 11       		.uleb128 0x11
 4557 099c 8C040000 		.4byte	.LASF260
 4558 09a0 8E02     		.sleb128 270
 4559 09a2 11       		.uleb128 0x11
 4560 09a3 42250000 		.4byte	.LASF261
 4561 09a7 8F02     		.sleb128 271
 4562 09a9 11       		.uleb128 0x11
 4563 09aa 76080000 		.4byte	.LASF262
 4564 09ae 9002     		.sleb128 272
 4565 09b0 11       		.uleb128 0x11
 4566 09b1 EA3E0000 		.4byte	.LASF263
 4567 09b5 9102     		.sleb128 273
 4568 09b7 11       		.uleb128 0x11
 4569 09b8 41130000 		.4byte	.LASF264
 4570 09bc 9202     		.sleb128 274
 4571 09be 11       		.uleb128 0x11
 4572 09bf C8340000 		.4byte	.LASF265
 4573 09c3 9302     		.sleb128 275
 4574 09c5 11       		.uleb128 0x11
 4575 09c6 42420000 		.4byte	.LASF266
 4576 09ca 9402     		.sleb128 276
 4577 09cc 11       		.uleb128 0x11
 4578 09cd E5380000 		.4byte	.LASF267
 4579 09d1 9502     		.sleb128 277
 4580 09d3 11       		.uleb128 0x11
 4581 09d4 A20B0000 		.4byte	.LASF268
 4582 09d8 9602     		.sleb128 278
 4583 09da 11       		.uleb128 0x11
 4584 09db F7440000 		.4byte	.LASF269
 4585 09df 9702     		.sleb128 279
 4586 09e1 11       		.uleb128 0x11
 4587 09e2 D9270000 		.4byte	.LASF270
 4588 09e6 9802     		.sleb128 280
 4589 09e8 11       		.uleb128 0x11
ARM GAS  C:\Users\Administrator\AppData\Local\Temp\ccNLOfxN.s 			page 122


 4590 09e9 F5090000 		.4byte	.LASF271
 4591 09ed 9902     		.sleb128 281
 4592 09ef 11       		.uleb128 0x11
 4593 09f0 1D3B0000 		.4byte	.LASF272
 4594 09f4 9A02     		.sleb128 282
 4595 09f6 11       		.uleb128 0x11
 4596 09f7 672B0000 		.4byte	.LASF273
 4597 09fb 9B02     		.sleb128 283
 4598 09fd 11       		.uleb128 0x11
 4599 09fe BD3E0000 		.4byte	.LASF274
 4600 0a02 9C02     		.sleb128 284
 4601 0a04 11       		.uleb128 0x11
 4602 0a05 823B0000 		.4byte	.LASF275
 4603 0a09 9D02     		.sleb128 285
 4604 0a0b 11       		.uleb128 0x11
 4605 0a0c 55440000 		.4byte	.LASF276
 4606 0a10 9E02     		.sleb128 286
 4607 0a12 11       		.uleb128 0x11
 4608 0a13 601F0000 		.4byte	.LASF277
 4609 0a17 9F02     		.sleb128 287
 4610 0a19 11       		.uleb128 0x11
 4611 0a1a 241B0000 		.4byte	.LASF278
 4612 0a1e A002     		.sleb128 288
 4613 0a20 11       		.uleb128 0x11
 4614 0a21 EE390000 		.4byte	.LASF279
 4615 0a25 A102     		.sleb128 289
 4616 0a27 11       		.uleb128 0x11
 4617 0a28 BE300000 		.4byte	.LASF280
 4618 0a2c A202     		.sleb128 290
 4619 0a2e 11       		.uleb128 0x11
 4620 0a2f 45200000 		.4byte	.LASF281
 4621 0a33 A302     		.sleb128 291
 4622 0a35 11       		.uleb128 0x11
 4623 0a36 35350000 		.4byte	.LASF282
 4624 0a3a A402     		.sleb128 292
 4625 0a3c 11       		.uleb128 0x11
 4626 0a3d F22E0000 		.4byte	.LASF283
 4627 0a41 A502     		.sleb128 293
 4628 0a43 11       		.uleb128 0x11
 4629 0a44 103D0000 		.4byte	.LASF284
 4630 0a48 A602     		.sleb128 294
 4631 0a4a 11       		.uleb128 0x11
 4632 0a4b BF0F0000 		.4byte	.LASF285
 4633 0a4f A702     		.sleb128 295
 4634 0a51 11       		.uleb128 0x11
 4635 0a52 3C3B0000 		.4byte	.LASF286
 4636 0a56 A802     		.sleb128 296
 4637 0a58 11       		.uleb128 0x11
 4638 0a59 AE050000 		.4byte	.LASF287
 4639 0a5d A902     		.sleb128 297
 4640 0a5f 11       		.uleb128 0x11
 4641 0a60 903A0000 		.4byte	.LASF288
 4642 0a64 AA02     		.sleb128 298
 4643 0a66 11       		.uleb128 0x11
 4644 0a67 F8030000 		.4byte	.LASF289
 4645 0a6b AB02     		.sleb128 299
 4646 0a6d 11       		.uleb128 0x11
ARM GAS  C:\Users\Administrator\AppData\Local\Temp\ccNLOfxN.s 			page 123


 4647 0a6e 1C040000 		.4byte	.LASF290
 4648 0a72 AC02     		.sleb128 300
 4649 0a74 11       		.uleb128 0x11
 4650 0a75 CC000000 		.4byte	.LASF291
 4651 0a79 AD02     		.sleb128 301
 4652 0a7b 11       		.uleb128 0x11
 4653 0a7c B8320000 		.4byte	.LASF292
 4654 0a80 AE02     		.sleb128 302
 4655 0a82 11       		.uleb128 0x11
 4656 0a83 F7430000 		.4byte	.LASF293
 4657 0a87 AF02     		.sleb128 303
 4658 0a89 11       		.uleb128 0x11
 4659 0a8a 64070000 		.4byte	.LASF294
 4660 0a8e B002     		.sleb128 304
 4661 0a90 11       		.uleb128 0x11
 4662 0a91 FB280000 		.4byte	.LASF295
 4663 0a95 B102     		.sleb128 305
 4664 0a97 11       		.uleb128 0x11
 4665 0a98 0A020000 		.4byte	.LASF296
 4666 0a9c B202     		.sleb128 306
 4667 0a9e 11       		.uleb128 0x11
 4668 0a9f 66170000 		.4byte	.LASF297
 4669 0aa3 B302     		.sleb128 307
 4670 0aa5 11       		.uleb128 0x11
 4671 0aa6 BC2A0000 		.4byte	.LASF298
 4672 0aaa B402     		.sleb128 308
 4673 0aac 11       		.uleb128 0x11
 4674 0aad FE190000 		.4byte	.LASF299
 4675 0ab1 B502     		.sleb128 309
 4676 0ab3 11       		.uleb128 0x11
 4677 0ab4 AE070000 		.4byte	.LASF300
 4678 0ab8 B602     		.sleb128 310
 4679 0aba 11       		.uleb128 0x11
 4680 0abb B5020000 		.4byte	.LASF301
 4681 0abf B702     		.sleb128 311
 4682 0ac1 11       		.uleb128 0x11
 4683 0ac2 710A0000 		.4byte	.LASF302
 4684 0ac6 B802     		.sleb128 312
 4685 0ac8 11       		.uleb128 0x11
 4686 0ac9 FD320000 		.4byte	.LASF303
 4687 0acd B902     		.sleb128 313
 4688 0acf 11       		.uleb128 0x11
 4689 0ad0 D4390000 		.4byte	.LASF304
 4690 0ad4 BA02     		.sleb128 314
 4691 0ad6 11       		.uleb128 0x11
 4692 0ad7 23090000 		.4byte	.LASF305
 4693 0adb BB02     		.sleb128 315
 4694 0add 11       		.uleb128 0x11
 4695 0ade 322D0000 		.4byte	.LASF306
 4696 0ae2 BC02     		.sleb128 316
 4697 0ae4 11       		.uleb128 0x11
 4698 0ae5 2A3E0000 		.4byte	.LASF307
 4699 0ae9 BD02     		.sleb128 317
 4700 0aeb 11       		.uleb128 0x11
 4701 0aec 7E240000 		.4byte	.LASF308
 4702 0af0 BE02     		.sleb128 318
 4703 0af2 11       		.uleb128 0x11
ARM GAS  C:\Users\Administrator\AppData\Local\Temp\ccNLOfxN.s 			page 124


 4704 0af3 7F3E0000 		.4byte	.LASF309
 4705 0af7 BF02     		.sleb128 319
 4706 0af9 11       		.uleb128 0x11
 4707 0afa BA090000 		.4byte	.LASF310
 4708 0afe C002     		.sleb128 320
 4709 0b00 11       		.uleb128 0x11
 4710 0b01 122E0000 		.4byte	.LASF311
 4711 0b05 C102     		.sleb128 321
 4712 0b07 11       		.uleb128 0x11
 4713 0b08 0D410000 		.4byte	.LASF312
 4714 0b0c C202     		.sleb128 322
 4715 0b0e 11       		.uleb128 0x11
 4716 0b0f 0D3F0000 		.4byte	.LASF313
 4717 0b13 C302     		.sleb128 323
 4718 0b15 11       		.uleb128 0x11
 4719 0b16 EE000000 		.4byte	.LASF314
 4720 0b1a C402     		.sleb128 324
 4721 0b1c 11       		.uleb128 0x11
 4722 0b1d C13A0000 		.4byte	.LASF315
 4723 0b21 C502     		.sleb128 325
 4724 0b23 11       		.uleb128 0x11
 4725 0b24 3D210000 		.4byte	.LASF316
 4726 0b28 C602     		.sleb128 326
 4727 0b2a 11       		.uleb128 0x11
 4728 0b2b 29390000 		.4byte	.LASF317
 4729 0b2f C702     		.sleb128 327
 4730 0b31 11       		.uleb128 0x11
 4731 0b32 76360000 		.4byte	.LASF318
 4732 0b36 C802     		.sleb128 328
 4733 0b38 11       		.uleb128 0x11
 4734 0b39 60020000 		.4byte	.LASF319
 4735 0b3d C902     		.sleb128 329
 4736 0b3f 11       		.uleb128 0x11
 4737 0b40 65350000 		.4byte	.LASF320
 4738 0b44 CA02     		.sleb128 330
 4739 0b46 11       		.uleb128 0x11
 4740 0b47 60110000 		.4byte	.LASF321
 4741 0b4b CB02     		.sleb128 331
 4742 0b4d 11       		.uleb128 0x11
 4743 0b4e E00A0000 		.4byte	.LASF322
 4744 0b52 CC02     		.sleb128 332
 4745 0b54 11       		.uleb128 0x11
 4746 0b55 BD0A0000 		.4byte	.LASF323
 4747 0b59 CD02     		.sleb128 333
 4748 0b5b 11       		.uleb128 0x11
 4749 0b5c 1B110000 		.4byte	.LASF324
 4750 0b60 CE02     		.sleb128 334
 4751 0b62 11       		.uleb128 0x11
 4752 0b63 DA220000 		.4byte	.LASF325
 4753 0b67 CF02     		.sleb128 335
 4754 0b69 11       		.uleb128 0x11
 4755 0b6a B0420000 		.4byte	.LASF326
 4756 0b6e D002     		.sleb128 336
 4757 0b70 11       		.uleb128 0x11
 4758 0b71 B7160000 		.4byte	.LASF327
 4759 0b75 D102     		.sleb128 337
 4760 0b77 11       		.uleb128 0x11
ARM GAS  C:\Users\Administrator\AppData\Local\Temp\ccNLOfxN.s 			page 125


 4761 0b78 E1320000 		.4byte	.LASF328
 4762 0b7c D202     		.sleb128 338
 4763 0b7e 11       		.uleb128 0x11
 4764 0b7f B2080000 		.4byte	.LASF329
 4765 0b83 D302     		.sleb128 339
 4766 0b85 11       		.uleb128 0x11
 4767 0b86 DE010000 		.4byte	.LASF330
 4768 0b8a D402     		.sleb128 340
 4769 0b8c 11       		.uleb128 0x11
 4770 0b8d C9200000 		.4byte	.LASF331
 4771 0b91 D502     		.sleb128 341
 4772 0b93 11       		.uleb128 0x11
 4773 0b94 09010000 		.4byte	.LASF332
 4774 0b98 D602     		.sleb128 342
 4775 0b9a 11       		.uleb128 0x11
 4776 0b9b 500B0000 		.4byte	.LASF333
 4777 0b9f D702     		.sleb128 343
 4778 0ba1 11       		.uleb128 0x11
 4779 0ba2 7E3F0000 		.4byte	.LASF334
 4780 0ba6 D802     		.sleb128 344
 4781 0ba8 11       		.uleb128 0x11
 4782 0ba9 D0190000 		.4byte	.LASF335
 4783 0bad D902     		.sleb128 345
 4784 0baf 11       		.uleb128 0x11
 4785 0bb0 92180000 		.4byte	.LASF336
 4786 0bb4 DA02     		.sleb128 346
 4787 0bb6 11       		.uleb128 0x11
 4788 0bb7 D3060000 		.4byte	.LASF337
 4789 0bbb DB02     		.sleb128 347
 4790 0bbd 11       		.uleb128 0x11
 4791 0bbe D43D0000 		.4byte	.LASF338
 4792 0bc2 DC02     		.sleb128 348
 4793 0bc4 11       		.uleb128 0x11
 4794 0bc5 33260000 		.4byte	.LASF339
 4795 0bc9 DD02     		.sleb128 349
 4796 0bcb 11       		.uleb128 0x11
 4797 0bcc EE210000 		.4byte	.LASF340
 4798 0bd0 DE02     		.sleb128 350
 4799 0bd2 11       		.uleb128 0x11
 4800 0bd3 EC080000 		.4byte	.LASF341
 4801 0bd7 DF02     		.sleb128 351
 4802 0bd9 11       		.uleb128 0x11
 4803 0bda F4070000 		.4byte	.LASF342
 4804 0bde E002     		.sleb128 352
 4805 0be0 11       		.uleb128 0x11
 4806 0be1 2E020000 		.4byte	.LASF343
 4807 0be5 E102     		.sleb128 353
 4808 0be7 11       		.uleb128 0x11
 4809 0be8 DA260000 		.4byte	.LASF344
 4810 0bec E202     		.sleb128 354
 4811 0bee 11       		.uleb128 0x11
 4812 0bef CC440000 		.4byte	.LASF345
 4813 0bf3 E302     		.sleb128 355
 4814 0bf5 11       		.uleb128 0x11
 4815 0bf6 801B0000 		.4byte	.LASF346
 4816 0bfa E402     		.sleb128 356
 4817 0bfc 11       		.uleb128 0x11
ARM GAS  C:\Users\Administrator\AppData\Local\Temp\ccNLOfxN.s 			page 126


 4818 0bfd B8180000 		.4byte	.LASF347
 4819 0c01 E502     		.sleb128 357
 4820 0c03 11       		.uleb128 0x11
 4821 0c04 CA280000 		.4byte	.LASF348
 4822 0c08 E602     		.sleb128 358
 4823 0c0a 11       		.uleb128 0x11
 4824 0c0b 343C0000 		.4byte	.LASF349
 4825 0c0f E702     		.sleb128 359
 4826 0c11 11       		.uleb128 0x11
 4827 0c12 6E330000 		.4byte	.LASF350
 4828 0c16 E802     		.sleb128 360
 4829 0c18 11       		.uleb128 0x11
 4830 0c19 6A040000 		.4byte	.LASF351
 4831 0c1d E902     		.sleb128 361
 4832 0c1f 11       		.uleb128 0x11
 4833 0c20 A4310000 		.4byte	.LASF352
 4834 0c24 EA02     		.sleb128 362
 4835 0c26 11       		.uleb128 0x11
 4836 0c27 8C1D0000 		.4byte	.LASF353
 4837 0c2b EB02     		.sleb128 363
 4838 0c2d 11       		.uleb128 0x11
 4839 0c2e 8B200000 		.4byte	.LASF354
 4840 0c32 EC02     		.sleb128 364
 4841 0c34 11       		.uleb128 0x11
 4842 0c35 69200000 		.4byte	.LASF355
 4843 0c39 ED02     		.sleb128 365
 4844 0c3b 11       		.uleb128 0x11
 4845 0c3c AB370000 		.4byte	.LASF356
 4846 0c40 EE02     		.sleb128 366
 4847 0c42 11       		.uleb128 0x11
 4848 0c43 0D170000 		.4byte	.LASF357
 4849 0c47 EF02     		.sleb128 367
 4850 0c49 11       		.uleb128 0x11
 4851 0c4a B8260000 		.4byte	.LASF358
 4852 0c4e F002     		.sleb128 368
 4853 0c50 11       		.uleb128 0x11
 4854 0c51 F0240000 		.4byte	.LASF359
 4855 0c55 F102     		.sleb128 369
 4856 0c57 11       		.uleb128 0x11
 4857 0c58 A5290000 		.4byte	.LASF360
 4858 0c5c F202     		.sleb128 370
 4859 0c5e 11       		.uleb128 0x11
 4860 0c5f 77370000 		.4byte	.LASF361
 4861 0c63 F302     		.sleb128 371
 4862 0c65 11       		.uleb128 0x11
 4863 0c66 A51B0000 		.4byte	.LASF362
 4864 0c6a F402     		.sleb128 372
 4865 0c6c 11       		.uleb128 0x11
 4866 0c6d 9D260000 		.4byte	.LASF363
 4867 0c71 F502     		.sleb128 373
 4868 0c73 11       		.uleb128 0x11
 4869 0c74 43270000 		.4byte	.LASF364
 4870 0c78 F602     		.sleb128 374
 4871 0c7a 11       		.uleb128 0x11
 4872 0c7b D6170000 		.4byte	.LASF365
 4873 0c7f F702     		.sleb128 375
 4874 0c81 11       		.uleb128 0x11
ARM GAS  C:\Users\Administrator\AppData\Local\Temp\ccNLOfxN.s 			page 127


 4875 0c82 1F0E0000 		.4byte	.LASF366
 4876 0c86 F802     		.sleb128 376
 4877 0c88 11       		.uleb128 0x11
 4878 0c89 E20F0000 		.4byte	.LASF367
 4879 0c8d F902     		.sleb128 377
 4880 0c8f 11       		.uleb128 0x11
 4881 0c90 EC1C0000 		.4byte	.LASF368
 4882 0c94 FA02     		.sleb128 378
 4883 0c96 11       		.uleb128 0x11
 4884 0c97 E90C0000 		.4byte	.LASF369
 4885 0c9b FB02     		.sleb128 379
 4886 0c9d 11       		.uleb128 0x11
 4887 0c9e 603B0000 		.4byte	.LASF370
 4888 0ca2 FC02     		.sleb128 380
 4889 0ca4 11       		.uleb128 0x11
 4890 0ca5 9C330000 		.4byte	.LASF371
 4891 0ca9 FD02     		.sleb128 381
 4892 0cab 11       		.uleb128 0x11
 4893 0cac 271C0000 		.4byte	.LASF372
 4894 0cb0 FE02     		.sleb128 382
 4895 0cb2 11       		.uleb128 0x11
 4896 0cb3 F0230000 		.4byte	.LASF373
 4897 0cb7 FF02     		.sleb128 383
 4898 0cb9 11       		.uleb128 0x11
 4899 0cba 85020000 		.4byte	.LASF374
 4900 0cbe 8003     		.sleb128 384
 4901 0cc0 11       		.uleb128 0x11
 4902 0cc1 922D0000 		.4byte	.LASF375
 4903 0cc5 8103     		.sleb128 385
 4904 0cc7 11       		.uleb128 0x11
 4905 0cc8 70420000 		.4byte	.LASF376
 4906 0ccc 8203     		.sleb128 386
 4907 0cce 11       		.uleb128 0x11
 4908 0ccf 323D0000 		.4byte	.LASF377
 4909 0cd3 8303     		.sleb128 387
 4910 0cd5 11       		.uleb128 0x11
 4911 0cd6 01380000 		.4byte	.LASF378
 4912 0cda 8403     		.sleb128 388
 4913 0cdc 11       		.uleb128 0x11
 4914 0cdd 21030000 		.4byte	.LASF379
 4915 0ce1 8503     		.sleb128 389
 4916 0ce3 11       		.uleb128 0x11
 4917 0ce4 C1140000 		.4byte	.LASF380
 4918 0ce8 8603     		.sleb128 390
 4919 0cea 11       		.uleb128 0x11
 4920 0ceb 283F0000 		.4byte	.LASF381
 4921 0cef 8703     		.sleb128 391
 4922 0cf1 11       		.uleb128 0x11
 4923 0cf2 F2450000 		.4byte	.LASF382
 4924 0cf6 8803     		.sleb128 392
 4925 0cf8 11       		.uleb128 0x11
 4926 0cf9 84270000 		.4byte	.LASF383
 4927 0cfd 8903     		.sleb128 393
 4928 0cff 11       		.uleb128 0x11
 4929 0d00 8B440000 		.4byte	.LASF384
 4930 0d04 8A03     		.sleb128 394
 4931 0d06 11       		.uleb128 0x11
ARM GAS  C:\Users\Administrator\AppData\Local\Temp\ccNLOfxN.s 			page 128


 4932 0d07 21270000 		.4byte	.LASF385
 4933 0d0b 8B03     		.sleb128 395
 4934 0d0d 11       		.uleb128 0x11
 4935 0d0e 010F0000 		.4byte	.LASF386
 4936 0d12 8C03     		.sleb128 396
 4937 0d14 11       		.uleb128 0x11
 4938 0d15 321D0000 		.4byte	.LASF387
 4939 0d19 8D03     		.sleb128 397
 4940 0d1b 11       		.uleb128 0x11
 4941 0d1c 371A0000 		.4byte	.LASF388
 4942 0d20 8E03     		.sleb128 398
 4943 0d22 11       		.uleb128 0x11
 4944 0d23 530E0000 		.4byte	.LASF389
 4945 0d27 8F03     		.sleb128 399
 4946 0d29 11       		.uleb128 0x11
 4947 0d2a 9A360000 		.4byte	.LASF390
 4948 0d2e 9003     		.sleb128 400
 4949 0d30 11       		.uleb128 0x11
 4950 0d31 031E0000 		.4byte	.LASF391
 4951 0d35 9103     		.sleb128 401
 4952 0d37 11       		.uleb128 0x11
 4953 0d38 9D2E0000 		.4byte	.LASF392
 4954 0d3c 9203     		.sleb128 402
 4955 0d3e 11       		.uleb128 0x11
 4956 0d3f 3B050000 		.4byte	.LASF393
 4957 0d43 9303     		.sleb128 403
 4958 0d45 11       		.uleb128 0x11
 4959 0d46 D1160000 		.4byte	.LASF394
 4960 0d4a 9403     		.sleb128 404
 4961 0d4c 11       		.uleb128 0x11
 4962 0d4d 031C0000 		.4byte	.LASF395
 4963 0d51 9503     		.sleb128 405
 4964 0d53 11       		.uleb128 0x11
 4965 0d54 77460000 		.4byte	.LASF396
 4966 0d58 9603     		.sleb128 406
 4967 0d5a 11       		.uleb128 0x11
 4968 0d5b 522E0000 		.4byte	.LASF397
 4969 0d5f 9703     		.sleb128 407
 4970 0d61 11       		.uleb128 0x11
 4971 0d62 D02E0000 		.4byte	.LASF398
 4972 0d66 9803     		.sleb128 408
 4973 0d68 11       		.uleb128 0x11
 4974 0d69 82340000 		.4byte	.LASF399
 4975 0d6d 9903     		.sleb128 409
 4976 0d6f 11       		.uleb128 0x11
 4977 0d70 9F190000 		.4byte	.LASF400
 4978 0d74 9A03     		.sleb128 410
 4979 0d76 11       		.uleb128 0x11
 4980 0d77 39370000 		.4byte	.LASF401
 4981 0d7b 9B03     		.sleb128 411
 4982 0d7d 11       		.uleb128 0x11
 4983 0d7e 380D0000 		.4byte	.LASF402
 4984 0d82 9C03     		.sleb128 412
 4985 0d84 11       		.uleb128 0x11
 4986 0d85 3C000000 		.4byte	.LASF403
 4987 0d89 9D03     		.sleb128 413
 4988 0d8b 11       		.uleb128 0x11
ARM GAS  C:\Users\Administrator\AppData\Local\Temp\ccNLOfxN.s 			page 129


 4989 0d8c AD3C0000 		.4byte	.LASF404
 4990 0d90 9E03     		.sleb128 414
 4991 0d92 11       		.uleb128 0x11
 4992 0d93 2A150000 		.4byte	.LASF405
 4993 0d97 9F03     		.sleb128 415
 4994 0d99 11       		.uleb128 0x11
 4995 0d9a 17460000 		.4byte	.LASF406
 4996 0d9e A003     		.sleb128 416
 4997 0da0 11       		.uleb128 0x11
 4998 0da1 D91F0000 		.4byte	.LASF407
 4999 0da5 A103     		.sleb128 417
 5000 0da7 11       		.uleb128 0x11
 5001 0da8 4A230000 		.4byte	.LASF408
 5002 0dac A203     		.sleb128 418
 5003 0dae 11       		.uleb128 0x11
 5004 0daf A4450000 		.4byte	.LASF409
 5005 0db3 A303     		.sleb128 419
 5006 0db5 11       		.uleb128 0x11
 5007 0db6 53390000 		.4byte	.LASF410
 5008 0dba A403     		.sleb128 420
 5009 0dbc 11       		.uleb128 0x11
 5010 0dbd F32A0000 		.4byte	.LASF411
 5011 0dc1 A503     		.sleb128 421
 5012 0dc3 11       		.uleb128 0x11
 5013 0dc4 552D0000 		.4byte	.LASF412
 5014 0dc8 A603     		.sleb128 422
 5015 0dca 11       		.uleb128 0x11
 5016 0dcb 20400000 		.4byte	.LASF413
 5017 0dcf A703     		.sleb128 423
 5018 0dd1 11       		.uleb128 0x11
 5019 0dd2 461E0000 		.4byte	.LASF414
 5020 0dd6 A803     		.sleb128 424
 5021 0dd8 11       		.uleb128 0x11
 5022 0dd9 5C190000 		.4byte	.LASF415
 5023 0ddd A903     		.sleb128 425
 5024 0ddf 11       		.uleb128 0x11
 5025 0de0 11260000 		.4byte	.LASF416
 5026 0de4 AA03     		.sleb128 426
 5027 0de6 11       		.uleb128 0x11
 5028 0de7 7D3D0000 		.4byte	.LASF417
 5029 0deb AB03     		.sleb128 427
 5030 0ded 11       		.uleb128 0x11
 5031 0dee 38340000 		.4byte	.LASF418
 5032 0df2 AC03     		.sleb128 428
 5033 0df4 11       		.uleb128 0x11
 5034 0df5 47040000 		.4byte	.LASF419
 5035 0df9 AD03     		.sleb128 429
 5036 0dfb 11       		.uleb128 0x11
 5037 0dfc 68300000 		.4byte	.LASF420
 5038 0e00 AE03     		.sleb128 430
 5039 0e02 11       		.uleb128 0x11
 5040 0e03 0E0B0000 		.4byte	.LASF421
 5041 0e07 AF03     		.sleb128 431
 5042 0e09 11       		.uleb128 0x11
 5043 0e0a B5220000 		.4byte	.LASF422
 5044 0e0e B003     		.sleb128 432
 5045 0e10 11       		.uleb128 0x11
ARM GAS  C:\Users\Administrator\AppData\Local\Temp\ccNLOfxN.s 			page 130


 5046 0e11 5D370000 		.4byte	.LASF423
 5047 0e15 B103     		.sleb128 433
 5048 0e17 11       		.uleb128 0x11
 5049 0e18 F6060000 		.4byte	.LASF424
 5050 0e1c B203     		.sleb128 434
 5051 0e1e 11       		.uleb128 0x11
 5052 0e1f 30330000 		.4byte	.LASF425
 5053 0e23 B303     		.sleb128 435
 5054 0e25 11       		.uleb128 0x11
 5055 0e26 E2300000 		.4byte	.LASF426
 5056 0e2a B403     		.sleb128 436
 5057 0e2c 11       		.uleb128 0x11
 5058 0e2d B41A0000 		.4byte	.LASF427
 5059 0e31 B503     		.sleb128 437
 5060 0e33 11       		.uleb128 0x11
 5061 0e34 8D1F0000 		.4byte	.LASF428
 5062 0e38 B603     		.sleb128 438
 5063 0e3a 11       		.uleb128 0x11
 5064 0e3b CF250000 		.4byte	.LASF429
 5065 0e3f B703     		.sleb128 439
 5066 0e41 11       		.uleb128 0x11
 5067 0e42 66010000 		.4byte	.LASF430
 5068 0e46 B803     		.sleb128 440
 5069 0e48 11       		.uleb128 0x11
 5070 0e49 641E0000 		.4byte	.LASF431
 5071 0e4d B903     		.sleb128 441
 5072 0e4f 11       		.uleb128 0x11
 5073 0e50 50360000 		.4byte	.LASF432
 5074 0e54 BA03     		.sleb128 442
 5075 0e56 11       		.uleb128 0x11
 5076 0e57 AE200000 		.4byte	.LASF433
 5077 0e5b BB03     		.sleb128 443
 5078 0e5d 11       		.uleb128 0x11
 5079 0e5e 6D000000 		.4byte	.LASF434
 5080 0e62 BC03     		.sleb128 444
 5081 0e64 11       		.uleb128 0x11
 5082 0e65 15070000 		.4byte	.LASF435
 5083 0e69 BD03     		.sleb128 445
 5084 0e6b 11       		.uleb128 0x11
 5085 0e6c D10B0000 		.4byte	.LASF436
 5086 0e70 BE03     		.sleb128 446
 5087 0e72 11       		.uleb128 0x11
 5088 0e73 4C160000 		.4byte	.LASF437
 5089 0e77 BF03     		.sleb128 447
 5090 0e79 11       		.uleb128 0x11
 5091 0e7a 7E390000 		.4byte	.LASF438
 5092 0e7e C003     		.sleb128 448
 5093 0e80 11       		.uleb128 0x11
 5094 0e81 41450000 		.4byte	.LASF439
 5095 0e85 C103     		.sleb128 449
 5096 0e87 11       		.uleb128 0x11
 5097 0e88 DD1D0000 		.4byte	.LASF440
 5098 0e8c C203     		.sleb128 450
 5099 0e8e 11       		.uleb128 0x11
 5100 0e8f BB100000 		.4byte	.LASF441
 5101 0e93 C303     		.sleb128 451
 5102 0e95 11       		.uleb128 0x11
ARM GAS  C:\Users\Administrator\AppData\Local\Temp\ccNLOfxN.s 			page 131


 5103 0e96 DC180000 		.4byte	.LASF442
 5104 0e9a C403     		.sleb128 452
 5105 0e9c 11       		.uleb128 0x11
 5106 0e9d 6E2E0000 		.4byte	.LASF443
 5107 0ea1 C503     		.sleb128 453
 5108 0ea3 11       		.uleb128 0x11
 5109 0ea4 DB040000 		.4byte	.LASF444
 5110 0ea8 C603     		.sleb128 454
 5111 0eaa 11       		.uleb128 0x11
 5112 0eab 3C380000 		.4byte	.LASF445
 5113 0eaf C703     		.sleb128 455
 5114 0eb1 11       		.uleb128 0x11
 5115 0eb2 85110000 		.4byte	.LASF446
 5116 0eb6 C803     		.sleb128 456
 5117 0eb8 11       		.uleb128 0x11
 5118 0eb9 30220000 		.4byte	.LASF447
 5119 0ebd C903     		.sleb128 457
 5120 0ebf 11       		.uleb128 0x11
 5121 0ec0 1C180000 		.4byte	.LASF448
 5122 0ec4 CA03     		.sleb128 458
 5123 0ec6 11       		.uleb128 0x11
 5124 0ec7 A23F0000 		.4byte	.LASF449
 5125 0ecb CB03     		.sleb128 459
 5126 0ecd 11       		.uleb128 0x11
 5127 0ece A7030000 		.4byte	.LASF450
 5128 0ed2 CC03     		.sleb128 460
 5129 0ed4 11       		.uleb128 0x11
 5130 0ed5 47010000 		.4byte	.LASF451
 5131 0ed9 CD03     		.sleb128 461
 5132 0edb 11       		.uleb128 0x11
 5133 0edc 4D150000 		.4byte	.LASF452
 5134 0ee0 CE03     		.sleb128 462
 5135 0ee2 11       		.uleb128 0x11
 5136 0ee3 D4120000 		.4byte	.LASF453
 5137 0ee7 CF03     		.sleb128 463
 5138 0ee9 11       		.uleb128 0x11
 5139 0eea 7F290000 		.4byte	.LASF454
 5140 0eee D003     		.sleb128 464
 5141 0ef0 11       		.uleb128 0x11
 5142 0ef1 553D0000 		.4byte	.LASF455
 5143 0ef5 D103     		.sleb128 465
 5144 0ef7 11       		.uleb128 0x11
 5145 0ef8 04270000 		.4byte	.LASF456
 5146 0efc D203     		.sleb128 466
 5147 0efe 11       		.uleb128 0x11
 5148 0eff 15370000 		.4byte	.LASF457
 5149 0f03 D303     		.sleb128 467
 5150 0f05 11       		.uleb128 0x11
 5151 0f06 A9130000 		.4byte	.LASF458
 5152 0f0a D403     		.sleb128 468
 5153 0f0c 11       		.uleb128 0x11
 5154 0f0d 60050000 		.4byte	.LASF459
 5155 0f11 D503     		.sleb128 469
 5156 0f13 11       		.uleb128 0x11
 5157 0f14 9A0E0000 		.4byte	.LASF460
 5158 0f18 D603     		.sleb128 470
 5159 0f1a 11       		.uleb128 0x11
ARM GAS  C:\Users\Administrator\AppData\Local\Temp\ccNLOfxN.s 			page 132


 5160 0f1b 2E140000 		.4byte	.LASF461
 5161 0f1f D703     		.sleb128 471
 5162 0f21 11       		.uleb128 0x11
 5163 0f22 9C230000 		.4byte	.LASF462
 5164 0f26 D803     		.sleb128 472
 5165 0f28 11       		.uleb128 0x11
 5166 0f29 98100000 		.4byte	.LASF463
 5167 0f2d D903     		.sleb128 473
 5168 0f2f 11       		.uleb128 0x11
 5169 0f30 40180000 		.4byte	.LASF464
 5170 0f34 DA03     		.sleb128 474
 5171 0f36 11       		.uleb128 0x11
 5172 0f37 4E3C0000 		.4byte	.LASF465
 5173 0f3b DB03     		.sleb128 475
 5174 0f3d 11       		.uleb128 0x11
 5175 0f3e 29160000 		.4byte	.LASF466
 5176 0f42 DC03     		.sleb128 476
 5177 0f44 11       		.uleb128 0x11
 5178 0f45 F50B0000 		.4byte	.LASF467
 5179 0f49 DD03     		.sleb128 477
 5180 0f4b 11       		.uleb128 0x11
 5181 0f4c F92F0000 		.4byte	.LASF468
 5182 0f50 DE03     		.sleb128 478
 5183 0f52 11       		.uleb128 0x11
 5184 0f53 471B0000 		.4byte	.LASF469
 5185 0f57 DF03     		.sleb128 479
 5186 0f59 11       		.uleb128 0x11
 5187 0f5a B30D0000 		.4byte	.LASF470
 5188 0f5e E003     		.sleb128 480
 5189 0f60 11       		.uleb128 0x11
 5190 0f61 1B440000 		.4byte	.LASF471
 5191 0f65 E103     		.sleb128 481
 5192 0f67 11       		.uleb128 0x11
 5193 0f68 09090000 		.4byte	.LASF472
 5194 0f6c E203     		.sleb128 482
 5195 0f6e 11       		.uleb128 0x11
 5196 0f6f 14280000 		.4byte	.LASF473
 5197 0f73 E303     		.sleb128 483
 5198 0f75 11       		.uleb128 0x11
 5199 0f76 1A000000 		.4byte	.LASF474
 5200 0f7a E403     		.sleb128 484
 5201 0f7c 11       		.uleb128 0x11
 5202 0f7d 0D2C0000 		.4byte	.LASF475
 5203 0f81 E503     		.sleb128 485
 5204 0f83 11       		.uleb128 0x11
 5205 0f84 DC3C0000 		.4byte	.LASF476
 5206 0f88 E603     		.sleb128 486
 5207 0f8a 11       		.uleb128 0x11
 5208 0f8b 17050000 		.4byte	.LASF477
 5209 0f8f E703     		.sleb128 487
 5210 0f91 11       		.uleb128 0x11
 5211 0f92 F3350000 		.4byte	.LASF478
 5212 0f96 E803     		.sleb128 488
 5213 0f98 11       		.uleb128 0x11
 5214 0f99 89250000 		.4byte	.LASF479
 5215 0f9d E903     		.sleb128 489
 5216 0f9f 11       		.uleb128 0x11
ARM GAS  C:\Users\Administrator\AppData\Local\Temp\ccNLOfxN.s 			page 133


 5217 0fa0 32170000 		.4byte	.LASF480
 5218 0fa4 EA03     		.sleb128 490
 5219 0fa6 11       		.uleb128 0x11
 5220 0fa7 A41E0000 		.4byte	.LASF481
 5221 0fab EB03     		.sleb128 491
 5222 0fad 11       		.uleb128 0x11
 5223 0fae D12D0000 		.4byte	.LASF482
 5224 0fb2 EC03     		.sleb128 492
 5225 0fb4 11       		.uleb128 0x11
 5226 0fb5 52460000 		.4byte	.LASF483
 5227 0fb9 ED03     		.sleb128 493
 5228 0fbb 11       		.uleb128 0x11
 5229 0fbc 41190000 		.4byte	.LASF484
 5230 0fc0 EE03     		.sleb128 494
 5231 0fc2 11       		.uleb128 0x11
 5232 0fc3 89010000 		.4byte	.LASF485
 5233 0fc7 EF03     		.sleb128 495
 5234 0fc9 11       		.uleb128 0x11
 5235 0fca 422C0000 		.4byte	.LASF486
 5236 0fce F003     		.sleb128 496
 5237 0fd0 11       		.uleb128 0x11
 5238 0fd1 30280000 		.4byte	.LASF487
 5239 0fd5 F103     		.sleb128 497
 5240 0fd7 11       		.uleb128 0x11
 5241 0fd8 711A0000 		.4byte	.LASF488
 5242 0fdc F203     		.sleb128 498
 5243 0fde 11       		.uleb128 0x11
 5244 0fdf C1380000 		.4byte	.LASF489
 5245 0fe3 F303     		.sleb128 499
 5246 0fe5 11       		.uleb128 0x11
 5247 0fe6 7E400000 		.4byte	.LASF490
 5248 0fea F403     		.sleb128 500
 5249 0fec 11       		.uleb128 0x11
 5250 0fed BC010000 		.4byte	.LASF491
 5251 0ff1 F503     		.sleb128 501
 5252 0ff3 11       		.uleb128 0x11
 5253 0ff4 8C300000 		.4byte	.LASF492
 5254 0ff8 F603     		.sleb128 502
 5255 0ffa 11       		.uleb128 0x11
 5256 0ffb C6150000 		.4byte	.LASF493
 5257 0fff F703     		.sleb128 503
 5258 1001 11       		.uleb128 0x11
 5259 1002 9E170000 		.4byte	.LASF494
 5260 1006 F803     		.sleb128 504
 5261 1008 11       		.uleb128 0x11
 5262 1009 66450000 		.4byte	.LASF495
 5263 100d F903     		.sleb128 505
 5264 100f 11       		.uleb128 0x11
 5265 1010 A0110000 		.4byte	.LASF496
 5266 1014 FA03     		.sleb128 506
 5267 1016 11       		.uleb128 0x11
 5268 1017 9B0F0000 		.4byte	.LASF497
 5269 101b FB03     		.sleb128 507
 5270 101d 11       		.uleb128 0x11
 5271 101e 782D0000 		.4byte	.LASF498
 5272 1022 80C003   		.sleb128 57344
 5273 1025 00       		.byte	0
ARM GAS  C:\Users\Administrator\AppData\Local\Temp\ccNLOfxN.s 			page 134


 5274 1026 17       		.uleb128 0x17
 5275 1027 7A3C0000 		.4byte	.LASF506
 5276 102b 01       		.byte	0x1
 5277 102c 16       		.byte	0x16
 5278 102d 01       		.byte	0x1
 5279 102e 89100000 		.4byte	0x1089
 5280 1032 18       		.uleb128 0x18
 5281 1033 04210000 		.4byte	.LASF499
 5282 1037 01       		.byte	0x1
 5283 1038 16       		.byte	0x16
 5284 1039 C5000000 		.4byte	0xc5
 5285 103d 18       		.uleb128 0x18
 5286 103e AA020000 		.4byte	.LASF500
 5287 1042 01       		.byte	0x1
 5288 1043 16       		.byte	0x16
 5289 1044 22010000 		.4byte	0x122
 5290 1048 19       		.uleb128 0x19
 5291 1049 C9360000 		.4byte	.LASF501
 5292 104d 01       		.byte	0x1
 5293 104e 18       		.byte	0x18
 5294 104f 36030000 		.4byte	0x336
 5295 1053 19       		.uleb128 0x19
 5296 1054 910F0000 		.4byte	.LASF502
 5297 1058 01       		.byte	0x1
 5298 1059 19       		.byte	0x19
 5299 105a 72030000 		.4byte	0x372
 5300 105e 19       		.uleb128 0x19
 5301 105f 6E060000 		.4byte	.LASF503
 5302 1063 01       		.byte	0x1
 5303 1064 1A       		.byte	0x1a
 5304 1065 89100000 		.4byte	0x1089
 5305 1069 19       		.uleb128 0x19
 5306 106a 10400000 		.4byte	.LASF504
 5307 106e 01       		.byte	0x1
 5308 106f 1B       		.byte	0x1b
 5309 1070 DE080000 		.4byte	0x8de
 5310 1074 1A       		.uleb128 0x1a
 5311 1075 6900     		.ascii	"i\000"
 5312 1077 01       		.byte	0x1
 5313 1078 1C       		.byte	0x1c
 5314 1079 AD000000 		.4byte	0xad
 5315 107d 19       		.uleb128 0x19
 5316 107e CF0C0000 		.4byte	.LASF505
 5317 1082 01       		.byte	0x1
 5318 1083 1D       		.byte	0x1d
 5319 1084 8F100000 		.4byte	0x108f
 5320 1088 00       		.byte	0
 5321 1089 07       		.uleb128 0x7
 5322 108a 04       		.byte	0x4
 5323 108b 1E040000 		.4byte	0x41e
 5324 108f 07       		.uleb128 0x7
 5325 1090 04       		.byte	0x4
 5326 1091 80060000 		.4byte	0x680
 5327 1095 1B       		.uleb128 0x1b
 5328 1096 252D0000 		.4byte	.LASF510
 5329 109a 01       		.byte	0x1
 5330 109b 8902     		.2byte	0x289
ARM GAS  C:\Users\Administrator\AppData\Local\Temp\ccNLOfxN.s 			page 135


 5331 109d 01       		.byte	0x1
 5332 109e 1C       		.uleb128 0x1c
 5333 109f C2190000 		.4byte	.LASF507
 5334 10a3 01       		.byte	0x1
 5335 10a4 0801     		.2byte	0x108
 5336 10a6 01       		.byte	0x1
 5337 10a7 B6100000 		.4byte	0x10b6
 5338 10ab 1D       		.uleb128 0x1d
 5339 10ac 6900     		.ascii	"i\000"
 5340 10ae 01       		.byte	0x1
 5341 10af 0A01     		.2byte	0x10a
 5342 10b1 B9000000 		.4byte	0xb9
 5343 10b5 00       		.byte	0
 5344 10b6 1C       		.uleb128 0x1c
 5345 10b7 821F0000 		.4byte	.LASF508
 5346 10bb 01       		.byte	0x1
 5347 10bc AD01     		.2byte	0x1ad
 5348 10be 01       		.byte	0x1
 5349 10bf D0100000 		.4byte	0x10d0
 5350 10c3 1E       		.uleb128 0x1e
 5351 10c4 AA270000 		.4byte	.LASF509
 5352 10c8 01       		.byte	0x1
 5353 10c9 AF01     		.2byte	0x1af
 5354 10cb B9000000 		.4byte	0xb9
 5355 10cf 00       		.byte	0
 5356 10d0 1B       		.uleb128 0x1b
 5357 10d1 35080000 		.4byte	.LASF511
 5358 10d5 01       		.byte	0x1
 5359 10d6 C602     		.2byte	0x2c6
 5360 10d8 01       		.byte	0x1
 5361 10d9 1F       		.uleb128 0x1f
 5362 10da 26100000 		.4byte	0x1026
 5363 10de 00000000 		.4byte	.LFB63
 5364 10e2 74000000 		.4byte	.LFE63-.LFB63
 5365 10e6 01       		.uleb128 0x1
 5366 10e7 9C       		.byte	0x9c
 5367 10e8 BC110000 		.4byte	0x11bc
 5368 10ec 20       		.uleb128 0x20
 5369 10ed 32100000 		.4byte	0x1032
 5370 10f1 00000000 		.4byte	.LLST0
 5371 10f5 20       		.uleb128 0x20
 5372 10f6 3D100000 		.4byte	0x103d
 5373 10fa 53000000 		.4byte	.LLST1
 5374 10fe 21       		.uleb128 0x21
 5375 10ff 48100000 		.4byte	0x1048
 5376 1103 21       		.uleb128 0x21
 5377 1104 53100000 		.4byte	0x1053
 5378 1108 21       		.uleb128 0x21
 5379 1109 5E100000 		.4byte	0x105e
 5380 110d 21       		.uleb128 0x21
 5381 110e 69100000 		.4byte	0x1069
 5382 1112 21       		.uleb128 0x21
 5383 1113 74100000 		.4byte	0x1074
 5384 1117 22       		.uleb128 0x22
 5385 1118 7D100000 		.4byte	0x107d
 5386 111c 53000000 		.4byte	.LLST1
 5387 1120 23       		.uleb128 0x23
ARM GAS  C:\Users\Administrator\AppData\Local\Temp\ccNLOfxN.s 			page 136


 5388 1121 22000000 		.4byte	.LBB4
 5389 1125 3A000000 		.4byte	.LBE4-.LBB4
 5390 1129 96110000 		.4byte	0x1196
 5391 112d 20       		.uleb128 0x20
 5392 112e 32100000 		.4byte	0x1032
 5393 1132 B1000000 		.4byte	.LLST3
 5394 1136 20       		.uleb128 0x20
 5395 1137 3D100000 		.4byte	0x103d
 5396 113b C5000000 		.4byte	.LLST4
 5397 113f 24       		.uleb128 0x24
 5398 1140 22000000 		.4byte	.LBB5
 5399 1144 3A000000 		.4byte	.LBE5-.LBB5
 5400 1148 21       		.uleb128 0x21
 5401 1149 48100000 		.4byte	0x1048
 5402 114d 25       		.uleb128 0x25
 5403 114e 53100000 		.4byte	0x1053
 5404 1152 02       		.uleb128 0x2
 5405 1153 91       		.byte	0x91
 5406 1154 68       		.sleb128 -24
 5407 1155 21       		.uleb128 0x21
 5408 1156 5E100000 		.4byte	0x105e
 5409 115a 25       		.uleb128 0x25
 5410 115b 69100000 		.4byte	0x1069
 5411 115f 02       		.uleb128 0x2
 5412 1160 91       		.byte	0x91
 5413 1161 64       		.sleb128 -28
 5414 1162 22       		.uleb128 0x22
 5415 1163 74100000 		.4byte	0x1074
 5416 1167 E6000000 		.4byte	.LLST5
 5417 116b 21       		.uleb128 0x21
 5418 116c 7D100000 		.4byte	0x107d
 5419 1170 26       		.uleb128 0x26
 5420 1171 30000000 		.4byte	.LVL6
 5421 1175 092A0000 		.4byte	0x2a09
 5422 1179 84110000 		.4byte	0x1184
 5423 117d 27       		.uleb128 0x27
 5424 117e 01       		.uleb128 0x1
 5425 117f 50       		.byte	0x50
 5426 1180 02       		.uleb128 0x2
 5427 1181 91       		.byte	0x91
 5428 1182 64       		.sleb128 -28
 5429 1183 00       		.byte	0
 5430 1184 28       		.uleb128 0x28
 5431 1185 46000000 		.4byte	.LVL7
 5432 1189 252A0000 		.4byte	0x2a25
 5433 118d 27       		.uleb128 0x27
 5434 118e 01       		.uleb128 0x1
 5435 118f 50       		.byte	0x50
 5436 1190 02       		.uleb128 0x2
 5437 1191 75       		.byte	0x75
 5438 1192 00       		.sleb128 0
 5439 1193 00       		.byte	0
 5440 1194 00       		.byte	0
 5441 1195 00       		.byte	0
 5442 1196 29       		.uleb128 0x29
 5443 1197 20000000 		.4byte	.LVL3
 5444 119b 412A0000 		.4byte	0x2a41
ARM GAS  C:\Users\Administrator\AppData\Local\Temp\ccNLOfxN.s 			page 137


 5445 119f 26       		.uleb128 0x26
 5446 11a0 62000000 		.4byte	.LVL11
 5447 11a4 5B2A0000 		.4byte	0x2a5b
 5448 11a8 B2110000 		.4byte	0x11b2
 5449 11ac 27       		.uleb128 0x27
 5450 11ad 01       		.uleb128 0x1
 5451 11ae 50       		.byte	0x50
 5452 11af 01       		.uleb128 0x1
 5453 11b0 30       		.byte	0x30
 5454 11b1 00       		.byte	0
 5455 11b2 29       		.uleb128 0x29
 5456 11b3 6A000000 		.4byte	.LVL14
 5457 11b7 712A0000 		.4byte	0x2a71
 5458 11bb 00       		.byte	0
 5459 11bc 2A       		.uleb128 0x2a
 5460 11bd BB400000 		.4byte	.LASF514
 5461 11c1 01       		.byte	0x1
 5462 11c2 CC       		.byte	0xcc
 5463 11c3 00000000 		.4byte	.LFB64
 5464 11c7 50000000 		.4byte	.LFE64-.LFB64
 5465 11cb 01       		.uleb128 0x1
 5466 11cc 9C       		.byte	0x9c
 5467 11cd 49120000 		.4byte	0x1249
 5468 11d1 2B       		.uleb128 0x2b
 5469 11d2 DD3F0000 		.4byte	.LASF512
 5470 11d6 01       		.byte	0x1
 5471 11d7 CE       		.byte	0xce
 5472 11d8 B5060000 		.4byte	0x6b5
 5473 11dc 07010000 		.4byte	.LLST6
 5474 11e0 2B       		.uleb128 0x2b
 5475 11e1 34120000 		.4byte	.LASF513
 5476 11e5 01       		.byte	0x1
 5477 11e6 CF       		.byte	0xcf
 5478 11e7 AD000000 		.4byte	0xad
 5479 11eb 1A010000 		.4byte	.LLST7
 5480 11ef 26       		.uleb128 0x26
 5481 11f0 12000000 		.4byte	.LVL15
 5482 11f4 872A0000 		.4byte	0x2a87
 5483 11f8 02120000 		.4byte	0x1202
 5484 11fc 27       		.uleb128 0x27
 5485 11fd 01       		.uleb128 0x1
 5486 11fe 50       		.byte	0x50
 5487 11ff 01       		.uleb128 0x1
 5488 1200 33       		.byte	0x33
 5489 1201 00       		.byte	0
 5490 1202 29       		.uleb128 0x29
 5491 1203 18000000 		.4byte	.LVL17
 5492 1207 9D2A0000 		.4byte	0x2a9d
 5493 120b 29       		.uleb128 0x29
 5494 120c 22000000 		.4byte	.LVL19
 5495 1210 A82A0000 		.4byte	0x2aa8
 5496 1214 29       		.uleb128 0x29
 5497 1215 2A000000 		.4byte	.LVL20
 5498 1219 B42A0000 		.4byte	0x2ab4
 5499 121d 29       		.uleb128 0x29
 5500 121e 30000000 		.4byte	.LVL21
 5501 1222 A82A0000 		.4byte	0x2aa8
ARM GAS  C:\Users\Administrator\AppData\Local\Temp\ccNLOfxN.s 			page 138


 5502 1226 29       		.uleb128 0x29
 5503 1227 3A000000 		.4byte	.LVL22
 5504 122b A82A0000 		.4byte	0x2aa8
 5505 122f 29       		.uleb128 0x29
 5506 1230 42000000 		.4byte	.LVL23
 5507 1234 BB2A0000 		.4byte	0x2abb
 5508 1238 28       		.uleb128 0x28
 5509 1239 48000000 		.4byte	.LVL24
 5510 123d C22A0000 		.4byte	0x2ac2
 5511 1241 27       		.uleb128 0x27
 5512 1242 01       		.uleb128 0x1
 5513 1243 50       		.byte	0x50
 5514 1244 02       		.uleb128 0x2
 5515 1245 74       		.byte	0x74
 5516 1246 00       		.sleb128 0
 5517 1247 00       		.byte	0
 5518 1248 00       		.byte	0
 5519 1249 2C       		.uleb128 0x2c
 5520 124a 9B210000 		.4byte	.LASF515
 5521 124e 01       		.byte	0x1
 5522 124f 3E01     		.2byte	0x13e
 5523 1251 00000000 		.4byte	.LFB67
 5524 1255 16000000 		.4byte	.LFE67-.LFB67
 5525 1259 01       		.uleb128 0x1
 5526 125a 9C       		.byte	0x9c
 5527 125b 95120000 		.4byte	0x1295
 5528 125f 26       		.uleb128 0x26
 5529 1260 08000000 		.4byte	.LVL25
 5530 1264 D32A0000 		.4byte	0x2ad3
 5531 1268 72120000 		.4byte	0x1272
 5532 126c 27       		.uleb128 0x27
 5533 126d 01       		.uleb128 0x1
 5534 126e 50       		.byte	0x50
 5535 126f 01       		.uleb128 0x1
 5536 1270 31       		.byte	0x31
 5537 1271 00       		.byte	0
 5538 1272 26       		.uleb128 0x26
 5539 1273 0E000000 		.4byte	.LVL26
 5540 1277 E42A0000 		.4byte	0x2ae4
 5541 127b 85120000 		.4byte	0x1285
 5542 127f 27       		.uleb128 0x27
 5543 1280 01       		.uleb128 0x1
 5544 1281 50       		.byte	0x50
 5545 1282 01       		.uleb128 0x1
 5546 1283 31       		.byte	0x31
 5547 1284 00       		.byte	0
 5548 1285 28       		.uleb128 0x28
 5549 1286 14000000 		.4byte	.LVL27
 5550 128a F52A0000 		.4byte	0x2af5
 5551 128e 27       		.uleb128 0x27
 5552 128f 01       		.uleb128 0x1
 5553 1290 50       		.byte	0x50
 5554 1291 01       		.uleb128 0x1
 5555 1292 31       		.byte	0x31
 5556 1293 00       		.byte	0
 5557 1294 00       		.byte	0
 5558 1295 2C       		.uleb128 0x2c
ARM GAS  C:\Users\Administrator\AppData\Local\Temp\ccNLOfxN.s 			page 139


 5559 1296 2A3C0000 		.4byte	.LASF516
 5560 129a 01       		.byte	0x1
 5561 129b 4D01     		.2byte	0x14d
 5562 129d 00000000 		.4byte	.LFB68
 5563 12a1 0E000000 		.4byte	.LFE68-.LFB68
 5564 12a5 01       		.uleb128 0x1
 5565 12a6 9C       		.byte	0x9c
 5566 12a7 C4120000 		.4byte	0x12c4
 5567 12ab 29       		.uleb128 0x29
 5568 12ac 06000000 		.4byte	.LVL28
 5569 12b0 49120000 		.4byte	0x1249
 5570 12b4 28       		.uleb128 0x28
 5571 12b5 0C000000 		.4byte	.LVL29
 5572 12b9 D32A0000 		.4byte	0x2ad3
 5573 12bd 27       		.uleb128 0x27
 5574 12be 01       		.uleb128 0x1
 5575 12bf 50       		.byte	0x50
 5576 12c0 01       		.uleb128 0x1
 5577 12c1 30       		.byte	0x30
 5578 12c2 00       		.byte	0
 5579 12c3 00       		.byte	0
 5580 12c4 2C       		.uleb128 0x2c
 5581 12c5 E0110000 		.4byte	.LASF517
 5582 12c9 01       		.byte	0x1
 5583 12ca 5B01     		.2byte	0x15b
 5584 12cc 00000000 		.4byte	.LFB69
 5585 12d0 0E000000 		.4byte	.LFE69-.LFB69
 5586 12d4 01       		.uleb128 0x1
 5587 12d5 9C       		.byte	0x9c
 5588 12d6 F3120000 		.4byte	0x12f3
 5589 12da 29       		.uleb128 0x29
 5590 12db 06000000 		.4byte	.LVL30
 5591 12df 49120000 		.4byte	0x1249
 5592 12e3 28       		.uleb128 0x28
 5593 12e4 0C000000 		.4byte	.LVL31
 5594 12e8 F52A0000 		.4byte	0x2af5
 5595 12ec 27       		.uleb128 0x27
 5596 12ed 01       		.uleb128 0x1
 5597 12ee 50       		.byte	0x50
 5598 12ef 01       		.uleb128 0x1
 5599 12f0 30       		.byte	0x30
 5600 12f1 00       		.byte	0
 5601 12f2 00       		.byte	0
 5602 12f3 2C       		.uleb128 0x2c
 5603 12f4 EA150000 		.4byte	.LASF518
 5604 12f8 01       		.byte	0x1
 5605 12f9 6901     		.2byte	0x169
 5606 12fb 00000000 		.4byte	.LFB70
 5607 12ff 0E000000 		.4byte	.LFE70-.LFB70
 5608 1303 01       		.uleb128 0x1
 5609 1304 9C       		.byte	0x9c
 5610 1305 22130000 		.4byte	0x1322
 5611 1309 29       		.uleb128 0x29
 5612 130a 06000000 		.4byte	.LVL32
 5613 130e 49120000 		.4byte	0x1249
 5614 1312 28       		.uleb128 0x28
 5615 1313 0C000000 		.4byte	.LVL33
ARM GAS  C:\Users\Administrator\AppData\Local\Temp\ccNLOfxN.s 			page 140


 5616 1317 E42A0000 		.4byte	0x2ae4
 5617 131b 27       		.uleb128 0x27
 5618 131c 01       		.uleb128 0x1
 5619 131d 50       		.byte	0x50
 5620 131e 01       		.uleb128 0x1
 5621 131f 30       		.byte	0x30
 5622 1320 00       		.byte	0
 5623 1321 00       		.byte	0
 5624 1322 1C       		.uleb128 0x1c
 5625 1323 B00A0000 		.4byte	.LASF519
 5626 1327 01       		.byte	0x1
 5627 1328 7701     		.2byte	0x177
 5628 132a 01       		.byte	0x1
 5629 132b 3C130000 		.4byte	0x133c
 5630 132f 2D       		.uleb128 0x2d
 5631 1330 53746100 		.ascii	"Sta\000"
 5632 1334 01       		.byte	0x1
 5633 1335 7701     		.2byte	0x177
 5634 1337 AD000000 		.4byte	0xad
 5635 133b 00       		.byte	0
 5636 133c 1F       		.uleb128 0x1f
 5637 133d 22130000 		.4byte	0x1322
 5638 1341 00000000 		.4byte	.LFB71
 5639 1345 2A000000 		.4byte	.LFE71-.LFB71
 5640 1349 01       		.uleb128 0x1
 5641 134a 9C       		.byte	0x9c
 5642 134b 7D130000 		.4byte	0x137d
 5643 134f 20       		.uleb128 0x20
 5644 1350 2F130000 		.4byte	0x132f
 5645 1354 2D010000 		.4byte	.LLST8
 5646 1358 29       		.uleb128 0x29
 5647 1359 0A000000 		.4byte	.LVL35
 5648 135d 49120000 		.4byte	0x1249
 5649 1361 29       		.uleb128 0x29
 5650 1362 14000000 		.4byte	.LVL37
 5651 1366 95120000 		.4byte	0x1295
 5652 136a 29       		.uleb128 0x29
 5653 136b 1E000000 		.4byte	.LVL39
 5654 136f C4120000 		.4byte	0x12c4
 5655 1373 29       		.uleb128 0x29
 5656 1374 28000000 		.4byte	.LVL41
 5657 1378 F3120000 		.4byte	0x12f3
 5658 137c 00       		.byte	0
 5659 137d 2C       		.uleb128 0x2c
 5660 137e C03B0000 		.4byte	.LASF520
 5661 1382 01       		.byte	0x1
 5662 1383 9301     		.2byte	0x193
 5663 1385 00000000 		.4byte	.LFB72
 5664 1389 0A000000 		.4byte	.LFE72-.LFB72
 5665 138d 01       		.uleb128 0x1
 5666 138e 9C       		.byte	0x9c
 5667 138f A3130000 		.4byte	0x13a3
 5668 1393 28       		.uleb128 0x28
 5669 1394 08000000 		.4byte	.LVL42
 5670 1398 062B0000 		.4byte	0x2b06
 5671 139c 27       		.uleb128 0x27
 5672 139d 01       		.uleb128 0x1
ARM GAS  C:\Users\Administrator\AppData\Local\Temp\ccNLOfxN.s 			page 141


 5673 139e 50       		.byte	0x50
 5674 139f 01       		.uleb128 0x1
 5675 13a0 31       		.byte	0x31
 5676 13a1 00       		.byte	0
 5677 13a2 00       		.byte	0
 5678 13a3 2C       		.uleb128 0x2c
 5679 13a4 3F110000 		.4byte	.LASF521
 5680 13a8 01       		.byte	0x1
 5681 13a9 A001     		.2byte	0x1a0
 5682 13ab 00000000 		.4byte	.LFB73
 5683 13af 0A000000 		.4byte	.LFE73-.LFB73
 5684 13b3 01       		.uleb128 0x1
 5685 13b4 9C       		.byte	0x9c
 5686 13b5 C9130000 		.4byte	0x13c9
 5687 13b9 28       		.uleb128 0x28
 5688 13ba 08000000 		.4byte	.LVL43
 5689 13be 062B0000 		.4byte	0x2b06
 5690 13c2 27       		.uleb128 0x27
 5691 13c3 01       		.uleb128 0x1
 5692 13c4 50       		.byte	0x50
 5693 13c5 01       		.uleb128 0x1
 5694 13c6 30       		.byte	0x30
 5695 13c7 00       		.byte	0
 5696 13c8 00       		.byte	0
 5697 13c9 2E       		.uleb128 0x2e
 5698 13ca 60210000 		.4byte	.LASF522
 5699 13ce 01       		.byte	0x1
 5700 13cf 4A02     		.2byte	0x24a
 5701 13d1 00000000 		.4byte	.LFB79
 5702 13d5 14000000 		.4byte	.LFE79-.LFB79
 5703 13d9 01       		.uleb128 0x1
 5704 13da 9C       		.byte	0x9c
 5705 13db 2E       		.uleb128 0x2e
 5706 13dc DE100000 		.4byte	.LASF523
 5707 13e0 01       		.byte	0x1
 5708 13e1 5902     		.2byte	0x259
 5709 13e3 00000000 		.4byte	.LFB80
 5710 13e7 1C000000 		.4byte	.LFE80-.LFB80
 5711 13eb 01       		.uleb128 0x1
 5712 13ec 9C       		.byte	0x9c
 5713 13ed 2E       		.uleb128 0x2e
 5714 13ee 020B0000 		.4byte	.LASF524
 5715 13f2 01       		.byte	0x1
 5716 13f3 6902     		.2byte	0x269
 5717 13f5 00000000 		.4byte	.LFB81
 5718 13f9 14000000 		.4byte	.LFE81-.LFB81
 5719 13fd 01       		.uleb128 0x1
 5720 13fe 9C       		.byte	0x9c
 5721 13ff 2E       		.uleb128 0x2e
 5722 1400 181A0000 		.4byte	.LASF525
 5723 1404 01       		.byte	0x1
 5724 1405 7902     		.2byte	0x279
 5725 1407 00000000 		.4byte	.LFB82
 5726 140b 14000000 		.4byte	.LFE82-.LFB82
 5727 140f 01       		.uleb128 0x1
 5728 1410 9C       		.byte	0x9c
 5729 1411 1F       		.uleb128 0x1f
ARM GAS  C:\Users\Administrator\AppData\Local\Temp\ccNLOfxN.s 			page 142


 5730 1412 95100000 		.4byte	0x1095
 5731 1416 00000000 		.4byte	.LFB83
 5732 141a 24000000 		.4byte	.LFE83-.LFB83
 5733 141e 01       		.uleb128 0x1
 5734 141f 9C       		.byte	0x9c
 5735 1420 2E140000 		.4byte	0x142e
 5736 1424 29       		.uleb128 0x29
 5737 1425 18000000 		.4byte	.LVL44
 5738 1429 172B0000 		.4byte	0x2b17
 5739 142d 00       		.byte	0
 5740 142e 2C       		.uleb128 0x2c
 5741 142f C8450000 		.4byte	.LASF526
 5742 1433 01       		.byte	0x1
 5743 1434 9A02     		.2byte	0x29a
 5744 1436 00000000 		.4byte	.LFB84
 5745 143a 68000000 		.4byte	.LFE84-.LFB84
 5746 143e 01       		.uleb128 0x1
 5747 143f 9C       		.byte	0x9c
 5748 1440 AE140000 		.4byte	0x14ae
 5749 1444 2F       		.uleb128 0x2f
 5750 1445 746D7000 		.ascii	"tmp\000"
 5751 1449 01       		.byte	0x1
 5752 144a 9C02     		.2byte	0x29c
 5753 144c AE140000 		.4byte	0x14ae
 5754 1450 02       		.uleb128 0x2
 5755 1451 91       		.byte	0x91
 5756 1452 74       		.sleb128 -12
 5757 1453 30       		.uleb128 0x30
 5758 1454 D6290000 		.4byte	.LASF527
 5759 1458 01       		.byte	0x1
 5760 1459 9D02     		.2byte	0x29d
 5761 145b AD000000 		.4byte	0xad
 5762 145f 99010000 		.4byte	.LLST9
 5763 1463 30       		.uleb128 0x30
 5764 1464 F12F0000 		.4byte	.LASF528
 5765 1468 01       		.byte	0x1
 5766 1469 9E02     		.2byte	0x29e
 5767 146b B9000000 		.4byte	0xb9
 5768 146f C5010000 		.4byte	.LLST10
 5769 1473 26       		.uleb128 0x26
 5770 1474 28000000 		.4byte	.LVL46
 5771 1478 1E2B0000 		.4byte	0x2b1e
 5772 147c 90140000 		.4byte	0x1490
 5773 1480 27       		.uleb128 0x27
 5774 1481 01       		.uleb128 0x1
 5775 1482 51       		.byte	0x51
 5776 1483 05       		.uleb128 0x5
 5777 1484 0C       		.byte	0xc
 5778 1485 03910100 		.4byte	0x19103
 5779 1489 27       		.uleb128 0x27
 5780 148a 01       		.uleb128 0x1
 5781 148b 50       		.byte	0x50
 5782 148c 02       		.uleb128 0x2
 5783 148d 74       		.byte	0x74
 5784 148e 00       		.sleb128 0
 5785 148f 00       		.byte	0
 5786 1490 29       		.uleb128 0x29
ARM GAS  C:\Users\Administrator\AppData\Local\Temp\ccNLOfxN.s 			page 143


 5787 1491 4E000000 		.4byte	.LVL51
 5788 1495 3F2B0000 		.4byte	0x2b3f
 5789 1499 28       		.uleb128 0x28
 5790 149a 56000000 		.4byte	.LVL52
 5791 149e 542B0000 		.4byte	0x2b54
 5792 14a2 27       		.uleb128 0x27
 5793 14a3 01       		.uleb128 0x1
 5794 14a4 51       		.byte	0x51
 5795 14a5 01       		.uleb128 0x1
 5796 14a6 3A       		.byte	0x3a
 5797 14a7 27       		.uleb128 0x27
 5798 14a8 01       		.uleb128 0x1
 5799 14a9 50       		.byte	0x50
 5800 14aa 01       		.uleb128 0x1
 5801 14ab 30       		.byte	0x30
 5802 14ac 00       		.byte	0
 5803 14ad 00       		.byte	0
 5804 14ae 0C       		.uleb128 0xc
 5805 14af AD000000 		.4byte	0xad
 5806 14b3 BE140000 		.4byte	0x14be
 5807 14b7 0D       		.uleb128 0xd
 5808 14b8 1B010000 		.4byte	0x11b
 5809 14bc 02       		.byte	0x2
 5810 14bd 00       		.byte	0
 5811 14be 2C       		.uleb128 0x2c
 5812 14bf 35440000 		.4byte	.LASF529
 5813 14c3 01       		.byte	0x1
 5814 14c4 1805     		.2byte	0x518
 5815 14c6 00000000 		.4byte	.LFB87
 5816 14ca 20010000 		.4byte	.LFE87-.LFB87
 5817 14ce 01       		.uleb128 0x1
 5818 14cf 9C       		.byte	0x9c
 5819 14d0 CE160000 		.4byte	0x16ce
 5820 14d4 31       		.uleb128 0x31
 5821 14d5 6900     		.ascii	"i\000"
 5822 14d7 01       		.byte	0x1
 5823 14d8 1A05     		.2byte	0x51a
 5824 14da AD000000 		.4byte	0xad
 5825 14de 18020000 		.4byte	.LLST11
 5826 14e2 32       		.uleb128 0x32
 5827 14e3 E23E0000 		.4byte	.LASF530
 5828 14e7 01       		.byte	0x1
 5829 14e8 1C05     		.2byte	0x51c
 5830 14ea 5A010000 		.4byte	0x15a
 5831 14ee 02       		.uleb128 0x2
 5832 14ef 91       		.byte	0x91
 5833 14f0 4C       		.sleb128 -52
 5834 14f1 32       		.uleb128 0x32
 5835 14f2 881C0000 		.4byte	.LASF531
 5836 14f6 01       		.byte	0x1
 5837 14f7 1D05     		.2byte	0x51d
 5838 14f9 6A010000 		.4byte	0x16a
 5839 14fd 02       		.uleb128 0x2
 5840 14fe 91       		.byte	0x91
 5841 14ff 48       		.sleb128 -56
 5842 1500 30       		.uleb128 0x30
 5843 1501 AD390000 		.4byte	.LASF532
ARM GAS  C:\Users\Administrator\AppData\Local\Temp\ccNLOfxN.s 			page 144


 5844 1505 01       		.byte	0x1
 5845 1506 1E05     		.2byte	0x51e
 5846 1508 C5000000 		.4byte	0xc5
 5847 150c 50020000 		.4byte	.LLST12
 5848 1510 32       		.uleb128 0x32
 5849 1511 D82C0000 		.4byte	.LASF29
 5850 1515 01       		.byte	0x1
 5851 1516 1F05     		.2byte	0x51f
 5852 1518 7A010000 		.4byte	0x17a
 5853 151c 02       		.uleb128 0x2
 5854 151d 91       		.byte	0x91
 5855 151e 54       		.sleb128 -44
 5856 151f 32       		.uleb128 0x32
 5857 1520 C52F0000 		.4byte	.LASF533
 5858 1524 01       		.byte	0x1
 5859 1525 2005     		.2byte	0x520
 5860 1527 B6010000 		.4byte	0x1b6
 5861 152b 02       		.uleb128 0x2
 5862 152c 91       		.byte	0x91
 5863 152d 60       		.sleb128 -32
 5864 152e 33       		.uleb128 0x33
 5865 152f B52C0000 		.4byte	.LASF701
 5866 1533 01       		.byte	0x1
 5867 1534 5D05     		.2byte	0x55d
 5868 1536 F2000000 		.4byte	.LDL1
 5869 153a 26       		.uleb128 0x26
 5870 153b 12000000 		.4byte	.LVL53
 5871 153f 6A2B0000 		.4byte	0x2b6a
 5872 1543 4E150000 		.4byte	0x154e
 5873 1547 27       		.uleb128 0x27
 5874 1548 01       		.uleb128 0x1
 5875 1549 50       		.byte	0x50
 5876 154a 02       		.uleb128 0x2
 5877 154b 74       		.byte	0x74
 5878 154c 00       		.sleb128 0
 5879 154d 00       		.byte	0
 5880 154e 29       		.uleb128 0x29
 5881 154f 1A000000 		.4byte	.LVL55
 5882 1553 49120000 		.4byte	0x1249
 5883 1557 26       		.uleb128 0x26
 5884 1558 20000000 		.4byte	.LVL56
 5885 155c 22170000 		.4byte	0x1722
 5886 1560 6B150000 		.4byte	0x156b
 5887 1564 27       		.uleb128 0x27
 5888 1565 01       		.uleb128 0x1
 5889 1566 50       		.byte	0x50
 5890 1567 02       		.uleb128 0x2
 5891 1568 08       		.byte	0x8
 5892 1569 64       		.byte	0x64
 5893 156a 00       		.byte	0
 5894 156b 29       		.uleb128 0x29
 5895 156c 24000000 		.4byte	.LVL57
 5896 1570 F3120000 		.4byte	0x12f3
 5897 1574 26       		.uleb128 0x26
 5898 1575 2A000000 		.4byte	.LVL58
 5899 1579 22170000 		.4byte	0x1722
 5900 157d 88150000 		.4byte	0x1588
ARM GAS  C:\Users\Administrator\AppData\Local\Temp\ccNLOfxN.s 			page 145


 5901 1581 27       		.uleb128 0x27
 5902 1582 01       		.uleb128 0x1
 5903 1583 50       		.byte	0x50
 5904 1584 02       		.uleb128 0x2
 5905 1585 08       		.byte	0x8
 5906 1586 64       		.byte	0x64
 5907 1587 00       		.byte	0
 5908 1588 29       		.uleb128 0x29
 5909 1589 2E000000 		.4byte	.LVL59
 5910 158d 49120000 		.4byte	0x1249
 5911 1591 26       		.uleb128 0x26
 5912 1592 34000000 		.4byte	.LVL60
 5913 1596 22170000 		.4byte	0x1722
 5914 159a A5150000 		.4byte	0x15a5
 5915 159e 27       		.uleb128 0x27
 5916 159f 01       		.uleb128 0x1
 5917 15a0 50       		.byte	0x50
 5918 15a1 02       		.uleb128 0x2
 5919 15a2 08       		.byte	0x8
 5920 15a3 64       		.byte	0x64
 5921 15a4 00       		.byte	0
 5922 15a5 29       		.uleb128 0x29
 5923 15a6 38000000 		.4byte	.LVL61
 5924 15aa F3120000 		.4byte	0x12f3
 5925 15ae 26       		.uleb128 0x26
 5926 15af 3E000000 		.4byte	.LVL62
 5927 15b3 22170000 		.4byte	0x1722
 5928 15b7 C2150000 		.4byte	0x15c2
 5929 15bb 27       		.uleb128 0x27
 5930 15bc 01       		.uleb128 0x1
 5931 15bd 50       		.byte	0x50
 5932 15be 02       		.uleb128 0x2
 5933 15bf 08       		.byte	0x8
 5934 15c0 64       		.byte	0x64
 5935 15c1 00       		.byte	0
 5936 15c2 29       		.uleb128 0x29
 5937 15c3 42000000 		.4byte	.LVL63
 5938 15c7 7F2B0000 		.4byte	0x2b7f
 5939 15cb 26       		.uleb128 0x26
 5940 15cc 64000000 		.4byte	.LVL65
 5941 15d0 8B2B0000 		.4byte	0x2b8b
 5942 15d4 DF150000 		.4byte	0x15df
 5943 15d8 27       		.uleb128 0x27
 5944 15d9 01       		.uleb128 0x1
 5945 15da 50       		.byte	0x50
 5946 15db 02       		.uleb128 0x2
 5947 15dc 91       		.byte	0x91
 5948 15dd 54       		.sleb128 -44
 5949 15de 00       		.byte	0
 5950 15df 26       		.uleb128 0x26
 5951 15e0 74000000 		.4byte	.LVL67
 5952 15e4 A62B0000 		.4byte	0x2ba6
 5953 15e8 F8150000 		.4byte	0x15f8
 5954 15ec 27       		.uleb128 0x27
 5955 15ed 01       		.uleb128 0x1
 5956 15ee 51       		.byte	0x51
 5957 15ef 01       		.uleb128 0x1
ARM GAS  C:\Users\Administrator\AppData\Local\Temp\ccNLOfxN.s 			page 146


 5958 15f0 38       		.byte	0x38
 5959 15f1 27       		.uleb128 0x27
 5960 15f2 01       		.uleb128 0x1
 5961 15f3 50       		.byte	0x50
 5962 15f4 02       		.uleb128 0x2
 5963 15f5 74       		.byte	0x74
 5964 15f6 00       		.sleb128 0
 5965 15f7 00       		.byte	0
 5966 15f8 29       		.uleb128 0x29
 5967 15f9 7E000000 		.4byte	.LVL69
 5968 15fd C4120000 		.4byte	0x12c4
 5969 1601 29       		.uleb128 0x29
 5970 1602 84000000 		.4byte	.LVL70
 5971 1606 7D130000 		.4byte	0x137d
 5972 160a 26       		.uleb128 0x26
 5973 160b 8A000000 		.4byte	.LVL71
 5974 160f C02B0000 		.4byte	0x2bc0
 5975 1613 1D160000 		.4byte	0x161d
 5976 1617 27       		.uleb128 0x27
 5977 1618 01       		.uleb128 0x1
 5978 1619 50       		.byte	0x50
 5979 161a 01       		.uleb128 0x1
 5980 161b 3A       		.byte	0x3a
 5981 161c 00       		.byte	0
 5982 161d 26       		.uleb128 0x26
 5983 161e 94000000 		.4byte	.LVL72
 5984 1622 D12B0000 		.4byte	0x2bd1
 5985 1626 3B160000 		.4byte	0x163b
 5986 162a 27       		.uleb128 0x27
 5987 162b 01       		.uleb128 0x1
 5988 162c 52       		.byte	0x52
 5989 162d 01       		.uleb128 0x1
 5990 162e 40       		.byte	0x40
 5991 162f 27       		.uleb128 0x27
 5992 1630 01       		.uleb128 0x1
 5993 1631 51       		.byte	0x51
 5994 1632 01       		.uleb128 0x1
 5995 1633 30       		.byte	0x30
 5996 1634 27       		.uleb128 0x27
 5997 1635 01       		.uleb128 0x1
 5998 1636 50       		.byte	0x50
 5999 1637 02       		.uleb128 0x2
 6000 1638 75       		.byte	0x75
 6001 1639 00       		.sleb128 0
 6002 163a 00       		.byte	0
 6003 163b 26       		.uleb128 0x26
 6004 163c AA000000 		.4byte	.LVL73
 6005 1640 EE2B0000 		.4byte	0x2bee
 6006 1644 54160000 		.4byte	0x1654
 6007 1648 27       		.uleb128 0x27
 6008 1649 01       		.uleb128 0x1
 6009 164a 51       		.byte	0x51
 6010 164b 01       		.uleb128 0x1
 6011 164c 37       		.byte	0x37
 6012 164d 27       		.uleb128 0x27
 6013 164e 01       		.uleb128 0x1
 6014 164f 50       		.byte	0x50
ARM GAS  C:\Users\Administrator\AppData\Local\Temp\ccNLOfxN.s 			page 147


 6015 1650 02       		.uleb128 0x2
 6016 1651 75       		.byte	0x75
 6017 1652 00       		.sleb128 0
 6018 1653 00       		.byte	0
 6019 1654 29       		.uleb128 0x29
 6020 1655 B6000000 		.4byte	.LVL74
 6021 1659 7F2B0000 		.4byte	0x2b7f
 6022 165d 26       		.uleb128 0x26
 6023 165e CC000000 		.4byte	.LVL77
 6024 1662 0A2C0000 		.4byte	0x2c0a
 6025 1666 7B160000 		.4byte	0x167b
 6026 166a 27       		.uleb128 0x27
 6027 166b 01       		.uleb128 0x1
 6028 166c 52       		.byte	0x52
 6029 166d 01       		.uleb128 0x1
 6030 166e 37       		.byte	0x37
 6031 166f 27       		.uleb128 0x27
 6032 1670 01       		.uleb128 0x1
 6033 1671 51       		.byte	0x51
 6034 1672 01       		.uleb128 0x1
 6035 1673 38       		.byte	0x38
 6036 1674 27       		.uleb128 0x27
 6037 1675 01       		.uleb128 0x1
 6038 1676 50       		.byte	0x50
 6039 1677 02       		.uleb128 0x2
 6040 1678 75       		.byte	0x75
 6041 1679 00       		.sleb128 0
 6042 167a 00       		.byte	0
 6043 167b 29       		.uleb128 0x29
 6044 167c D0000000 		.4byte	.LVL78
 6045 1680 A3130000 		.4byte	0x13a3
 6046 1684 29       		.uleb128 0x29
 6047 1685 DC000000 		.4byte	.LVL79
 6048 1689 95120000 		.4byte	0x1295
 6049 168d 26       		.uleb128 0x26
 6050 168e E2000000 		.4byte	.LVL80
 6051 1692 C02B0000 		.4byte	0x2bc0
 6052 1696 A0160000 		.4byte	0x16a0
 6053 169a 27       		.uleb128 0x27
 6054 169b 01       		.uleb128 0x1
 6055 169c 50       		.byte	0x50
 6056 169d 01       		.uleb128 0x1
 6057 169e 3B       		.byte	0x3b
 6058 169f 00       		.byte	0
 6059 16a0 26       		.uleb128 0x26
 6060 16a1 EA000000 		.4byte	.LVL81
 6061 16a5 22170000 		.4byte	0x1722
 6062 16a9 B5160000 		.4byte	0x16b5
 6063 16ad 27       		.uleb128 0x27
 6064 16ae 01       		.uleb128 0x1
 6065 16af 50       		.byte	0x50
 6066 16b0 03       		.uleb128 0x3
 6067 16b1 0A       		.byte	0xa
 6068 16b2 2003     		.2byte	0x320
 6069 16b4 00       		.byte	0
 6070 16b5 29       		.uleb128 0x29
 6071 16b6 F2000000 		.4byte	.LVL82
ARM GAS  C:\Users\Administrator\AppData\Local\Temp\ccNLOfxN.s 			page 148


 6072 16ba 22130000 		.4byte	0x1322
 6073 16be 28       		.uleb128 0x28
 6074 16bf 0C010000 		.4byte	.LVL83
 6075 16c3 3F2B0000 		.4byte	0x2b3f
 6076 16c7 27       		.uleb128 0x27
 6077 16c8 01       		.uleb128 0x1
 6078 16c9 50       		.byte	0x50
 6079 16ca 01       		.uleb128 0x1
 6080 16cb 33       		.byte	0x33
 6081 16cc 00       		.byte	0
 6082 16cd 00       		.byte	0
 6083 16ce 1F       		.uleb128 0x1f
 6084 16cf 9E100000 		.4byte	0x109e
 6085 16d3 00000000 		.4byte	.LFB65
 6086 16d7 50000000 		.4byte	.LFE65-.LFB65
 6087 16db 01       		.uleb128 0x1
 6088 16dc 9C       		.byte	0x9c
 6089 16dd 22170000 		.4byte	0x1722
 6090 16e1 22       		.uleb128 0x22
 6091 16e2 AB100000 		.4byte	0x10ab
 6092 16e6 8E020000 		.4byte	.LLST13
 6093 16ea 23       		.uleb128 0x23
 6094 16eb 2E000000 		.4byte	.LBB13
 6095 16ef 14000000 		.4byte	.LBE13-.LBB13
 6096 16f3 06170000 		.4byte	0x1706
 6097 16f7 21       		.uleb128 0x21
 6098 16f8 AB100000 		.4byte	0x10ab
 6099 16fc 29       		.uleb128 0x29
 6100 16fd 42000000 		.4byte	.LVL89
 6101 1701 BE140000 		.4byte	0x14be
 6102 1705 00       		.byte	0
 6103 1706 29       		.uleb128 0x29
 6104 1707 06000000 		.4byte	.LVL84
 6105 170b 292C0000 		.4byte	0x2c29
 6106 170f 29       		.uleb128 0x29
 6107 1710 10000000 		.4byte	.LVL87
 6108 1714 302C0000 		.4byte	0x2c30
 6109 1718 29       		.uleb128 0x29
 6110 1719 20000000 		.4byte	.LVL88
 6111 171d 382C0000 		.4byte	0x2c38
 6112 1721 00       		.byte	0
 6113 1722 34       		.uleb128 0x34
 6114 1723 A6220000 		.4byte	.LASF534
 6115 1727 01       		.byte	0x1
 6116 1728 2C01     		.2byte	0x12c
 6117 172a 00000000 		.4byte	.LFB66
 6118 172e 20000000 		.4byte	.LFE66-.LFB66
 6119 1732 01       		.uleb128 0x1
 6120 1733 9C       		.byte	0x9c
 6121 1734 74170000 		.4byte	0x1774
 6122 1738 35       		.uleb128 0x35
 6123 1739 6D7300   		.ascii	"ms\000"
 6124 173c 01       		.byte	0x1
 6125 173d 2C01     		.2byte	0x12c
 6126 173f C5000000 		.4byte	0xc5
 6127 1743 B2020000 		.4byte	.LLST14
 6128 1747 30       		.uleb128 0x30
ARM GAS  C:\Users\Administrator\AppData\Local\Temp\ccNLOfxN.s 			page 149


 6129 1748 20310000 		.4byte	.LASF535
 6130 174c 01       		.byte	0x1
 6131 174d 2E01     		.2byte	0x12e
 6132 174f C5000000 		.4byte	0xc5
 6133 1753 D3020000 		.4byte	.LLST15
 6134 1757 26       		.uleb128 0x26
 6135 1758 16000000 		.4byte	.LVL93
 6136 175c 3F2C0000 		.4byte	0x2c3f
 6137 1760 6A170000 		.4byte	0x176a
 6138 1764 27       		.uleb128 0x27
 6139 1765 01       		.uleb128 0x1
 6140 1766 50       		.byte	0x50
 6141 1767 01       		.uleb128 0x1
 6142 1768 35       		.byte	0x35
 6143 1769 00       		.byte	0
 6144 176a 29       		.uleb128 0x29
 6145 176b 1C000000 		.4byte	.LVL95
 6146 176f 9E100000 		.4byte	0x109e
 6147 1773 00       		.byte	0
 6148 1774 1F       		.uleb128 0x1f
 6149 1775 B6100000 		.4byte	0x10b6
 6150 1779 00000000 		.4byte	.LFB74
 6151 177d 3A000000 		.4byte	.LFE74-.LFB74
 6152 1781 01       		.uleb128 0x1
 6153 1782 9C       		.byte	0x9c
 6154 1783 01180000 		.4byte	0x1801
 6155 1787 36       		.uleb128 0x36
 6156 1788 C3100000 		.4byte	0x10c3
 6157 178c 00       		.byte	0
 6158 178d 23       		.uleb128 0x23
 6159 178e 0C000000 		.4byte	.LBB17
 6160 1792 2C000000 		.4byte	.LBE17-.LBB17
 6161 1796 F7170000 		.4byte	0x17f7
 6162 179a 22       		.uleb128 0x22
 6163 179b C3100000 		.4byte	0x10c3
 6164 179f 0A030000 		.4byte	.LLST16
 6165 17a3 26       		.uleb128 0x26
 6166 17a4 12000000 		.4byte	.LVL99
 6167 17a8 3F2C0000 		.4byte	0x2c3f
 6168 17ac B6170000 		.4byte	0x17b6
 6169 17b0 27       		.uleb128 0x27
 6170 17b1 01       		.uleb128 0x1
 6171 17b2 50       		.byte	0x50
 6172 17b3 01       		.uleb128 0x1
 6173 17b4 4E       		.byte	0x4e
 6174 17b5 00       		.byte	0
 6175 17b6 26       		.uleb128 0x26
 6176 17b7 18000000 		.4byte	.LVL100
 6177 17bb 502C0000 		.4byte	0x2c50
 6178 17bf CA170000 		.4byte	0x17ca
 6179 17c3 27       		.uleb128 0x27
 6180 17c4 01       		.uleb128 0x1
 6181 17c5 50       		.byte	0x50
 6182 17c6 02       		.uleb128 0x2
 6183 17c7 74       		.byte	0x74
 6184 17c8 00       		.sleb128 0
 6185 17c9 00       		.byte	0
ARM GAS  C:\Users\Administrator\AppData\Local\Temp\ccNLOfxN.s 			page 150


 6186 17ca 29       		.uleb128 0x29
 6187 17cb 1E000000 		.4byte	.LVL102
 6188 17cf 612C0000 		.4byte	0x2c61
 6189 17d3 26       		.uleb128 0x26
 6190 17d4 30000000 		.4byte	.LVL104
 6191 17d8 22170000 		.4byte	0x1722
 6192 17dc E7170000 		.4byte	0x17e7
 6193 17e0 27       		.uleb128 0x27
 6194 17e1 01       		.uleb128 0x1
 6195 17e2 50       		.byte	0x50
 6196 17e3 02       		.uleb128 0x2
 6197 17e4 08       		.byte	0x8
 6198 17e5 64       		.byte	0x64
 6199 17e6 00       		.byte	0
 6200 17e7 28       		.uleb128 0x28
 6201 17e8 38000000 		.4byte	.LVL106
 6202 17ec 502C0000 		.4byte	0x2c50
 6203 17f0 27       		.uleb128 0x27
 6204 17f1 01       		.uleb128 0x1
 6205 17f2 50       		.byte	0x50
 6206 17f3 01       		.uleb128 0x1
 6207 17f4 30       		.byte	0x30
 6208 17f5 00       		.byte	0
 6209 17f6 00       		.byte	0
 6210 17f7 29       		.uleb128 0x29
 6211 17f8 06000000 		.4byte	.LVL98
 6212 17fc 612C0000 		.4byte	0x2c61
 6213 1800 00       		.byte	0
 6214 1801 2C       		.uleb128 0x2c
 6215 1802 EF280000 		.4byte	.LASF536
 6216 1806 01       		.byte	0x1
 6217 1807 C601     		.2byte	0x1c6
 6218 1809 00000000 		.4byte	.LFB75
 6219 180d 9C000000 		.4byte	.LFE75-.LFB75
 6220 1811 01       		.uleb128 0x1
 6221 1812 9C       		.byte	0x9c
 6222 1813 23190000 		.4byte	0x1923
 6223 1817 30       		.uleb128 0x30
 6224 1818 AA270000 		.4byte	.LASF509
 6225 181c 01       		.byte	0x1
 6226 181d C801     		.2byte	0x1c8
 6227 181f AD000000 		.4byte	0xad
 6228 1823 32030000 		.4byte	.LLST17
 6229 1827 29       		.uleb128 0x29
 6230 1828 06000000 		.4byte	.LVL108
 6231 182c 612C0000 		.4byte	0x2c61
 6232 1830 26       		.uleb128 0x26
 6233 1831 12000000 		.4byte	.LVL109
 6234 1835 3F2C0000 		.4byte	0x2c3f
 6235 1839 43180000 		.4byte	0x1843
 6236 183d 27       		.uleb128 0x27
 6237 183e 01       		.uleb128 0x1
 6238 183f 50       		.byte	0x50
 6239 1840 01       		.uleb128 0x1
 6240 1841 4E       		.byte	0x4e
 6241 1842 00       		.byte	0
 6242 1843 26       		.uleb128 0x26
ARM GAS  C:\Users\Administrator\AppData\Local\Temp\ccNLOfxN.s 			page 151


 6243 1844 18000000 		.4byte	.LVL110
 6244 1848 502C0000 		.4byte	0x2c50
 6245 184c 57180000 		.4byte	0x1857
 6246 1850 27       		.uleb128 0x27
 6247 1851 01       		.uleb128 0x1
 6248 1852 50       		.byte	0x50
 6249 1853 02       		.uleb128 0x2
 6250 1854 74       		.byte	0x74
 6251 1855 00       		.sleb128 0
 6252 1856 00       		.byte	0
 6253 1857 29       		.uleb128 0x29
 6254 1858 1E000000 		.4byte	.LVL112
 6255 185c 612C0000 		.4byte	0x2c61
 6256 1860 26       		.uleb128 0x26
 6257 1861 30000000 		.4byte	.LVL114
 6258 1865 22170000 		.4byte	0x1722
 6259 1869 74180000 		.4byte	0x1874
 6260 186d 27       		.uleb128 0x27
 6261 186e 01       		.uleb128 0x1
 6262 186f 50       		.byte	0x50
 6263 1870 02       		.uleb128 0x2
 6264 1871 08       		.byte	0x8
 6265 1872 64       		.byte	0x64
 6266 1873 00       		.byte	0
 6267 1874 26       		.uleb128 0x26
 6268 1875 38000000 		.4byte	.LVL116
 6269 1879 502C0000 		.4byte	0x2c50
 6270 187d 87180000 		.4byte	0x1887
 6271 1881 27       		.uleb128 0x27
 6272 1882 01       		.uleb128 0x1
 6273 1883 50       		.byte	0x50
 6274 1884 01       		.uleb128 0x1
 6275 1885 30       		.byte	0x30
 6276 1886 00       		.byte	0
 6277 1887 29       		.uleb128 0x29
 6278 1888 3C000000 		.4byte	.LVL117
 6279 188c 6C2C0000 		.4byte	0x2c6c
 6280 1890 26       		.uleb128 0x26
 6281 1891 42000000 		.4byte	.LVL118
 6282 1895 22170000 		.4byte	0x1722
 6283 1899 A5180000 		.4byte	0x18a5
 6284 189d 27       		.uleb128 0x27
 6285 189e 01       		.uleb128 0x1
 6286 189f 50       		.byte	0x50
 6287 18a0 03       		.uleb128 0x3
 6288 18a1 0A       		.byte	0xa
 6289 18a2 B80B     		.2byte	0xbb8
 6290 18a4 00       		.byte	0
 6291 18a5 29       		.uleb128 0x29
 6292 18a6 46000000 		.4byte	.LVL119
 6293 18aa 772C0000 		.4byte	0x2c77
 6294 18ae 26       		.uleb128 0x26
 6295 18af 4E000000 		.4byte	.LVL120
 6296 18b3 22170000 		.4byte	0x1722
 6297 18b7 C3180000 		.4byte	0x18c3
 6298 18bb 27       		.uleb128 0x27
 6299 18bc 01       		.uleb128 0x1
ARM GAS  C:\Users\Administrator\AppData\Local\Temp\ccNLOfxN.s 			page 152


 6300 18bd 50       		.byte	0x50
 6301 18be 03       		.uleb128 0x3
 6302 18bf 0A       		.byte	0xa
 6303 18c0 A00F     		.2byte	0xfa0
 6304 18c2 00       		.byte	0
 6305 18c3 29       		.uleb128 0x29
 6306 18c4 60000000 		.4byte	.LVL121
 6307 18c8 822C0000 		.4byte	0x2c82
 6308 18cc 26       		.uleb128 0x26
 6309 18cd 6C000000 		.4byte	.LVL122
 6310 18d1 22170000 		.4byte	0x1722
 6311 18d5 E1180000 		.4byte	0x18e1
 6312 18d9 27       		.uleb128 0x27
 6313 18da 01       		.uleb128 0x1
 6314 18db 50       		.byte	0x50
 6315 18dc 03       		.uleb128 0x3
 6316 18dd 0A       		.byte	0xa
 6317 18de F401     		.2byte	0x1f4
 6318 18e0 00       		.byte	0
 6319 18e1 29       		.uleb128 0x29
 6320 18e2 70000000 		.4byte	.LVL123
 6321 18e6 8D2C0000 		.4byte	0x2c8d
 6322 18ea 29       		.uleb128 0x29
 6323 18eb 74000000 		.4byte	.LVL124
 6324 18ef 982C0000 		.4byte	0x2c98
 6325 18f3 26       		.uleb128 0x26
 6326 18f4 7C000000 		.4byte	.LVL125
 6327 18f8 22170000 		.4byte	0x1722
 6328 18fc 08190000 		.4byte	0x1908
 6329 1900 27       		.uleb128 0x27
 6330 1901 01       		.uleb128 0x1
 6331 1902 50       		.byte	0x50
 6332 1903 03       		.uleb128 0x3
 6333 1904 0A       		.byte	0xa
 6334 1905 F401     		.2byte	0x1f4
 6335 1907 00       		.byte	0
 6336 1908 29       		.uleb128 0x29
 6337 1909 80000000 		.4byte	.LVL126
 6338 190d A32C0000 		.4byte	0x2ca3
 6339 1911 28       		.uleb128 0x28
 6340 1912 88000000 		.4byte	.LVL127
 6341 1916 22170000 		.4byte	0x1722
 6342 191a 27       		.uleb128 0x27
 6343 191b 01       		.uleb128 0x1
 6344 191c 50       		.byte	0x50
 6345 191d 03       		.uleb128 0x3
 6346 191e 0A       		.byte	0xa
 6347 191f DC05     		.2byte	0x5dc
 6348 1921 00       		.byte	0
 6349 1922 00       		.byte	0
 6350 1923 2C       		.uleb128 0x2c
 6351 1924 EE340000 		.4byte	.LASF537
 6352 1928 01       		.byte	0x1
 6353 1929 F701     		.2byte	0x1f7
 6354 192b 00000000 		.4byte	.LFB76
 6355 192f 74000000 		.4byte	.LFE76-.LFB76
 6356 1933 01       		.uleb128 0x1
ARM GAS  C:\Users\Administrator\AppData\Local\Temp\ccNLOfxN.s 			page 153


 6357 1934 9C       		.byte	0x9c
 6358 1935 F0190000 		.4byte	0x19f0
 6359 1939 29       		.uleb128 0x29
 6360 193a 06000000 		.4byte	.LVL128
 6361 193e B6100000 		.4byte	0x10b6
 6362 1942 29       		.uleb128 0x29
 6363 1943 0C000000 		.4byte	.LVL129
 6364 1947 AE2C0000 		.4byte	0x2cae
 6365 194b 29       		.uleb128 0x29
 6366 194c 10000000 		.4byte	.LVL130
 6367 1950 BF2C0000 		.4byte	0x2cbf
 6368 1954 29       		.uleb128 0x29
 6369 1955 14000000 		.4byte	.LVL131
 6370 1959 6C2C0000 		.4byte	0x2c6c
 6371 195d 26       		.uleb128 0x26
 6372 195e 1C000000 		.4byte	.LVL132
 6373 1962 22170000 		.4byte	0x1722
 6374 1966 72190000 		.4byte	0x1972
 6375 196a 27       		.uleb128 0x27
 6376 196b 01       		.uleb128 0x1
 6377 196c 50       		.byte	0x50
 6378 196d 03       		.uleb128 0x3
 6379 196e 0A       		.byte	0xa
 6380 196f D007     		.2byte	0x7d0
 6381 1971 00       		.byte	0
 6382 1972 29       		.uleb128 0x29
 6383 1973 20000000 		.4byte	.LVL133
 6384 1977 772C0000 		.4byte	0x2c77
 6385 197b 26       		.uleb128 0x26
 6386 197c 28000000 		.4byte	.LVL134
 6387 1980 22170000 		.4byte	0x1722
 6388 1984 90190000 		.4byte	0x1990
 6389 1988 27       		.uleb128 0x27
 6390 1989 01       		.uleb128 0x1
 6391 198a 50       		.byte	0x50
 6392 198b 03       		.uleb128 0x3
 6393 198c 0A       		.byte	0xa
 6394 198d A00F     		.2byte	0xfa0
 6395 198f 00       		.byte	0
 6396 1990 29       		.uleb128 0x29
 6397 1991 3A000000 		.4byte	.LVL135
 6398 1995 822C0000 		.4byte	0x2c82
 6399 1999 26       		.uleb128 0x26
 6400 199a 46000000 		.4byte	.LVL136
 6401 199e 22170000 		.4byte	0x1722
 6402 19a2 AE190000 		.4byte	0x19ae
 6403 19a6 27       		.uleb128 0x27
 6404 19a7 01       		.uleb128 0x1
 6405 19a8 50       		.byte	0x50
 6406 19a9 03       		.uleb128 0x3
 6407 19aa 0A       		.byte	0xa
 6408 19ab F401     		.2byte	0x1f4
 6409 19ad 00       		.byte	0
 6410 19ae 29       		.uleb128 0x29
 6411 19af 4A000000 		.4byte	.LVL137
 6412 19b3 8D2C0000 		.4byte	0x2c8d
 6413 19b7 29       		.uleb128 0x29
ARM GAS  C:\Users\Administrator\AppData\Local\Temp\ccNLOfxN.s 			page 154


 6414 19b8 4E000000 		.4byte	.LVL138
 6415 19bc 982C0000 		.4byte	0x2c98
 6416 19c0 26       		.uleb128 0x26
 6417 19c1 56000000 		.4byte	.LVL139
 6418 19c5 22170000 		.4byte	0x1722
 6419 19c9 D5190000 		.4byte	0x19d5
 6420 19cd 27       		.uleb128 0x27
 6421 19ce 01       		.uleb128 0x1
 6422 19cf 50       		.byte	0x50
 6423 19d0 03       		.uleb128 0x3
 6424 19d1 0A       		.byte	0xa
 6425 19d2 F401     		.2byte	0x1f4
 6426 19d4 00       		.byte	0
 6427 19d5 29       		.uleb128 0x29
 6428 19d6 5A000000 		.4byte	.LVL140
 6429 19da A32C0000 		.4byte	0x2ca3
 6430 19de 28       		.uleb128 0x28
 6431 19df 62000000 		.4byte	.LVL141
 6432 19e3 22170000 		.4byte	0x1722
 6433 19e7 27       		.uleb128 0x27
 6434 19e8 01       		.uleb128 0x1
 6435 19e9 50       		.byte	0x50
 6436 19ea 03       		.uleb128 0x3
 6437 19eb 0A       		.byte	0xa
 6438 19ec DC05     		.2byte	0x5dc
 6439 19ee 00       		.byte	0
 6440 19ef 00       		.byte	0
 6441 19f0 2C       		.uleb128 0x2c
 6442 19f1 58170000 		.4byte	.LASF538
 6443 19f5 01       		.byte	0x1
 6444 19f6 2202     		.2byte	0x222
 6445 19f8 00000000 		.4byte	.LFB77
 6446 19fc 3C000000 		.4byte	.LFE77-.LFB77
 6447 1a00 01       		.uleb128 0x1
 6448 1a01 9C       		.byte	0x9c
 6449 1a02 6A1A0000 		.4byte	0x1a6a
 6450 1a06 30       		.uleb128 0x30
 6451 1a07 AA270000 		.4byte	.LASF509
 6452 1a0b 01       		.byte	0x1
 6453 1a0c 2402     		.2byte	0x224
 6454 1a0e AD000000 		.4byte	0xad
 6455 1a12 66030000 		.4byte	.LLST18
 6456 1a16 29       		.uleb128 0x29
 6457 1a17 06000000 		.4byte	.LVL143
 6458 1a1b 612C0000 		.4byte	0x2c61
 6459 1a1f 29       		.uleb128 0x29
 6460 1a20 10000000 		.4byte	.LVL144
 6461 1a24 502C0000 		.4byte	0x2c50
 6462 1a28 29       		.uleb128 0x29
 6463 1a29 16000000 		.4byte	.LVL146
 6464 1a2d 612C0000 		.4byte	0x2c61
 6465 1a31 26       		.uleb128 0x26
 6466 1a32 28000000 		.4byte	.LVL148
 6467 1a36 22170000 		.4byte	0x1722
 6468 1a3a 451A0000 		.4byte	0x1a45
 6469 1a3e 27       		.uleb128 0x27
 6470 1a3f 01       		.uleb128 0x1
ARM GAS  C:\Users\Administrator\AppData\Local\Temp\ccNLOfxN.s 			page 155


 6471 1a40 50       		.byte	0x50
 6472 1a41 02       		.uleb128 0x2
 6473 1a42 08       		.byte	0x8
 6474 1a43 64       		.byte	0x64
 6475 1a44 00       		.byte	0
 6476 1a45 26       		.uleb128 0x26
 6477 1a46 30000000 		.4byte	.LVL150
 6478 1a4a 502C0000 		.4byte	0x2c50
 6479 1a4e 581A0000 		.4byte	0x1a58
 6480 1a52 27       		.uleb128 0x27
 6481 1a53 01       		.uleb128 0x1
 6482 1a54 50       		.byte	0x50
 6483 1a55 01       		.uleb128 0x1
 6484 1a56 30       		.byte	0x30
 6485 1a57 00       		.byte	0
 6486 1a58 28       		.uleb128 0x28
 6487 1a59 36000000 		.4byte	.LVL151
 6488 1a5d 22170000 		.4byte	0x1722
 6489 1a61 27       		.uleb128 0x27
 6490 1a62 01       		.uleb128 0x1
 6491 1a63 50       		.byte	0x50
 6492 1a64 03       		.uleb128 0x3
 6493 1a65 0A       		.byte	0xa
 6494 1a66 1027     		.2byte	0x2710
 6495 1a68 00       		.byte	0
 6496 1a69 00       		.byte	0
 6497 1a6a 2C       		.uleb128 0x2c
 6498 1a6b 740B0000 		.4byte	.LASF539
 6499 1a6f 01       		.byte	0x1
 6500 1a70 DC02     		.2byte	0x2dc
 6501 1a72 00000000 		.4byte	.LFB86
 6502 1a76 14030000 		.4byte	.LFE86-.LFB86
 6503 1a7a 01       		.uleb128 0x1
 6504 1a7b 9C       		.byte	0x9c
 6505 1a7c 2C1D0000 		.4byte	0x1d2c
 6506 1a80 31       		.uleb128 0x31
 6507 1a81 72657400 		.ascii	"ret\000"
 6508 1a85 01       		.byte	0x1
 6509 1a86 DE02     		.2byte	0x2de
 6510 1a88 AD000000 		.4byte	0xad
 6511 1a8c 9A030000 		.4byte	.LLST19
 6512 1a90 37       		.uleb128 0x37
 6513 1a91 AA270000 		.4byte	.LASF509
 6514 1a95 01       		.byte	0x1
 6515 1a96 DF02     		.2byte	0x2df
 6516 1a98 C5000000 		.4byte	0xc5
 6517 1a9c 00       		.byte	0
 6518 1a9d 38       		.uleb128 0x38
 6519 1a9e 22130000 		.4byte	0x1322
 6520 1aa2 4E000000 		.4byte	.LBB38
 6521 1aa6 04000000 		.4byte	.LBE38-.LBB38
 6522 1aaa 01       		.byte	0x1
 6523 1aab 0203     		.2byte	0x302
 6524 1aad C41A0000 		.4byte	0x1ac4
 6525 1ab1 20       		.uleb128 0x20
 6526 1ab2 2F130000 		.4byte	0x132f
 6527 1ab6 D9030000 		.4byte	.LLST20
ARM GAS  C:\Users\Administrator\AppData\Local\Temp\ccNLOfxN.s 			page 156


 6528 1aba 29       		.uleb128 0x29
 6529 1abb 52000000 		.4byte	.LVL158
 6530 1abf 95120000 		.4byte	0x1295
 6531 1ac3 00       		.byte	0
 6532 1ac4 38       		.uleb128 0x38
 6533 1ac5 22130000 		.4byte	0x1322
 6534 1ac9 92000000 		.4byte	.LBB40
 6535 1acd 04000000 		.4byte	.LBE40-.LBB40
 6536 1ad1 01       		.byte	0x1
 6537 1ad2 1A03     		.2byte	0x31a
 6538 1ad4 EB1A0000 		.4byte	0x1aeb
 6539 1ad8 20       		.uleb128 0x20
 6540 1ad9 2F130000 		.4byte	0x132f
 6541 1add F9030000 		.4byte	.LLST21
 6542 1ae1 29       		.uleb128 0x29
 6543 1ae2 96000000 		.4byte	.LVL164
 6544 1ae6 95120000 		.4byte	0x1295
 6545 1aea 00       		.byte	0
 6546 1aeb 38       		.uleb128 0x38
 6547 1aec 22130000 		.4byte	0x1322
 6548 1af0 C0000000 		.4byte	.LBB42
 6549 1af4 04000000 		.4byte	.LBE42-.LBB42
 6550 1af8 01       		.byte	0x1
 6551 1af9 2C03     		.2byte	0x32c
 6552 1afb 121B0000 		.4byte	0x1b12
 6553 1aff 20       		.uleb128 0x20
 6554 1b00 2F130000 		.4byte	0x132f
 6555 1b04 0D040000 		.4byte	.LLST22
 6556 1b08 29       		.uleb128 0x29
 6557 1b09 C4000000 		.4byte	.LVL168
 6558 1b0d 95120000 		.4byte	0x1295
 6559 1b11 00       		.byte	0
 6560 1b12 38       		.uleb128 0x38
 6561 1b13 22130000 		.4byte	0x1322
 6562 1b17 F6000000 		.4byte	.LBB44
 6563 1b1b 04000000 		.4byte	.LBE44-.LBB44
 6564 1b1f 01       		.byte	0x1
 6565 1b20 4403     		.2byte	0x344
 6566 1b22 391B0000 		.4byte	0x1b39
 6567 1b26 20       		.uleb128 0x20
 6568 1b27 2F130000 		.4byte	0x132f
 6569 1b2b 21040000 		.4byte	.LLST23
 6570 1b2f 29       		.uleb128 0x29
 6571 1b30 FA000000 		.4byte	.LVL172
 6572 1b34 95120000 		.4byte	0x1295
 6573 1b38 00       		.byte	0
 6574 1b39 38       		.uleb128 0x38
 6575 1b3a 22130000 		.4byte	0x1322
 6576 1b3e 3C010000 		.4byte	.LBB46
 6577 1b42 04000000 		.4byte	.LBE46-.LBB46
 6578 1b46 01       		.byte	0x1
 6579 1b47 5903     		.2byte	0x359
 6580 1b49 601B0000 		.4byte	0x1b60
 6581 1b4d 20       		.uleb128 0x20
 6582 1b4e 2F130000 		.4byte	0x132f
 6583 1b52 41040000 		.4byte	.LLST24
 6584 1b56 29       		.uleb128 0x29
ARM GAS  C:\Users\Administrator\AppData\Local\Temp\ccNLOfxN.s 			page 157


 6585 1b57 40010000 		.4byte	.LVL179
 6586 1b5b 95120000 		.4byte	0x1295
 6587 1b5f 00       		.byte	0
 6588 1b60 38       		.uleb128 0x38
 6589 1b61 22130000 		.4byte	0x1322
 6590 1b65 6A010000 		.4byte	.LBB48
 6591 1b69 04000000 		.4byte	.LBE48-.LBB48
 6592 1b6d 01       		.byte	0x1
 6593 1b6e 8A03     		.2byte	0x38a
 6594 1b70 871B0000 		.4byte	0x1b87
 6595 1b74 20       		.uleb128 0x20
 6596 1b75 2F130000 		.4byte	0x132f
 6597 1b79 55040000 		.4byte	.LLST25
 6598 1b7d 29       		.uleb128 0x29
 6599 1b7e 6E010000 		.4byte	.LVL183
 6600 1b82 C4120000 		.4byte	0x12c4
 6601 1b86 00       		.byte	0
 6602 1b87 38       		.uleb128 0x38
 6603 1b88 22130000 		.4byte	0x1322
 6604 1b8c E4010000 		.4byte	.LBB50
 6605 1b90 04000000 		.4byte	.LBE50-.LBB50
 6606 1b94 01       		.byte	0x1
 6607 1b95 AE03     		.2byte	0x3ae
 6608 1b97 AE1B0000 		.4byte	0x1bae
 6609 1b9b 20       		.uleb128 0x20
 6610 1b9c 2F130000 		.4byte	0x132f
 6611 1ba0 69040000 		.4byte	.LLST26
 6612 1ba4 29       		.uleb128 0x29
 6613 1ba5 E8010000 		.4byte	.LVL191
 6614 1ba9 95120000 		.4byte	0x1295
 6615 1bad 00       		.byte	0
 6616 1bae 38       		.uleb128 0x38
 6617 1baf 22130000 		.4byte	0x1322
 6618 1bb3 08020000 		.4byte	.LBB52
 6619 1bb7 04000000 		.4byte	.LBE52-.LBB52
 6620 1bbb 01       		.byte	0x1
 6621 1bbc CF03     		.2byte	0x3cf
 6622 1bbe D51B0000 		.4byte	0x1bd5
 6623 1bc2 20       		.uleb128 0x20
 6624 1bc3 2F130000 		.4byte	0x132f
 6625 1bc7 7D040000 		.4byte	.LLST27
 6626 1bcb 29       		.uleb128 0x29
 6627 1bcc 0C020000 		.4byte	.LVL197
 6628 1bd0 95120000 		.4byte	0x1295
 6629 1bd4 00       		.byte	0
 6630 1bd5 38       		.uleb128 0x38
 6631 1bd6 22130000 		.4byte	0x1322
 6632 1bda 3C020000 		.4byte	.LBB54
 6633 1bde 04000000 		.4byte	.LBE54-.LBB54
 6634 1be2 01       		.byte	0x1
 6635 1be3 E703     		.2byte	0x3e7
 6636 1be5 FC1B0000 		.4byte	0x1bfc
 6637 1be9 20       		.uleb128 0x20
 6638 1bea 2F130000 		.4byte	0x132f
 6639 1bee 91040000 		.4byte	.LLST28
 6640 1bf2 29       		.uleb128 0x29
 6641 1bf3 40020000 		.4byte	.LVL201
ARM GAS  C:\Users\Administrator\AppData\Local\Temp\ccNLOfxN.s 			page 158


 6642 1bf7 95120000 		.4byte	0x1295
 6643 1bfb 00       		.byte	0
 6644 1bfc 38       		.uleb128 0x38
 6645 1bfd 22130000 		.4byte	0x1322
 6646 1c01 76020000 		.4byte	.LBB56
 6647 1c05 04000000 		.4byte	.LBE56-.LBB56
 6648 1c09 01       		.byte	0x1
 6649 1c0a FC03     		.2byte	0x3fc
 6650 1c0c 231C0000 		.4byte	0x1c23
 6651 1c10 20       		.uleb128 0x20
 6652 1c11 2F130000 		.4byte	0x132f
 6653 1c15 A5040000 		.4byte	.LLST29
 6654 1c19 29       		.uleb128 0x29
 6655 1c1a 7A020000 		.4byte	.LVL206
 6656 1c1e F3120000 		.4byte	0x12f3
 6657 1c22 00       		.byte	0
 6658 1c23 29       		.uleb128 0x29
 6659 1c24 16000000 		.4byte	.LVL153
 6660 1c28 C62C0000 		.4byte	0x2cc6
 6661 1c2c 29       		.uleb128 0x29
 6662 1c2d 2C000000 		.4byte	.LVL154
 6663 1c31 612C0000 		.4byte	0x2c61
 6664 1c35 29       		.uleb128 0x29
 6665 1c36 38000000 		.4byte	.LVL155
 6666 1c3a 95100000 		.4byte	0x1095
 6667 1c3e 29       		.uleb128 0x29
 6668 1c3f 3C000000 		.4byte	.LVL156
 6669 1c43 7F2B0000 		.4byte	0x2b7f
 6670 1c47 29       		.uleb128 0x29
 6671 1c48 78000000 		.4byte	.LVL161
 6672 1c4c CD2C0000 		.4byte	0x2ccd
 6673 1c50 29       		.uleb128 0x29
 6674 1c51 B4000000 		.4byte	.LVL165
 6675 1c55 D82C0000 		.4byte	0x2cd8
 6676 1c59 29       		.uleb128 0x29
 6677 1c5a E2000000 		.4byte	.LVL169
 6678 1c5e E32C0000 		.4byte	0x2ce3
 6679 1c62 29       		.uleb128 0x29
 6680 1c63 1E010000 		.4byte	.LVL175
 6681 1c67 EE2C0000 		.4byte	0x2cee
 6682 1c6b 29       		.uleb128 0x29
 6683 1c6c 5E010000 		.4byte	.LVL180
 6684 1c70 F92C0000 		.4byte	0x2cf9
 6685 1c74 26       		.uleb128 0x26
 6686 1c75 8E010000 		.4byte	.LVL184
 6687 1c79 042D0000 		.4byte	0x2d04
 6688 1c7d 871C0000 		.4byte	0x1c87
 6689 1c81 27       		.uleb128 0x27
 6690 1c82 01       		.uleb128 0x1
 6691 1c83 50       		.byte	0x50
 6692 1c84 01       		.uleb128 0x1
 6693 1c85 32       		.byte	0x32
 6694 1c86 00       		.byte	0
 6695 1c87 29       		.uleb128 0x29
 6696 1c88 98010000 		.4byte	.LVL185
 6697 1c8c 7F2B0000 		.4byte	0x2b7f
 6698 1c90 26       		.uleb128 0x26
ARM GAS  C:\Users\Administrator\AppData\Local\Temp\ccNLOfxN.s 			page 159


 6699 1c91 BE010000 		.4byte	.LVL186
 6700 1c95 042D0000 		.4byte	0x2d04
 6701 1c99 A31C0000 		.4byte	0x1ca3
 6702 1c9d 27       		.uleb128 0x27
 6703 1c9e 01       		.uleb128 0x1
 6704 1c9f 50       		.byte	0x50
 6705 1ca0 01       		.uleb128 0x1
 6706 1ca1 32       		.byte	0x32
 6707 1ca2 00       		.byte	0
 6708 1ca3 29       		.uleb128 0x29
 6709 1ca4 C8010000 		.4byte	.LVL187
 6710 1ca8 7F2B0000 		.4byte	0x2b7f
 6711 1cac 29       		.uleb128 0x29
 6712 1cad D8010000 		.4byte	.LVL188
 6713 1cb1 192D0000 		.4byte	0x2d19
 6714 1cb5 29       		.uleb128 0x29
 6715 1cb6 EC010000 		.4byte	.LVL192
 6716 1cba E32C0000 		.4byte	0x2ce3
 6717 1cbe 29       		.uleb128 0x29
 6718 1cbf F0010000 		.4byte	.LVL193
 6719 1cc3 F0190000 		.4byte	0x19f0
 6720 1cc7 29       		.uleb128 0x29
 6721 1cc8 FC010000 		.4byte	.LVL194
 6722 1ccc 95100000 		.4byte	0x1095
 6723 1cd0 29       		.uleb128 0x29
 6724 1cd1 2A020000 		.4byte	.LVL198
 6725 1cd5 E32C0000 		.4byte	0x2ce3
 6726 1cd9 29       		.uleb128 0x29
 6727 1cda 5E020000 		.4byte	.LVL202
 6728 1cde 202D0000 		.4byte	0x2d20
 6729 1ce2 29       		.uleb128 0x29
 6730 1ce3 7E020000 		.4byte	.LVL207
 6731 1ce7 2B2D0000 		.4byte	0x2d2b
 6732 1ceb 26       		.uleb128 0x26
 6733 1cec 88020000 		.4byte	.LVL208
 6734 1cf0 322D0000 		.4byte	0x2d32
 6735 1cf4 FE1C0000 		.4byte	0x1cfe
 6736 1cf8 27       		.uleb128 0x27
 6737 1cf9 01       		.uleb128 0x1
 6738 1cfa 50       		.byte	0x50
 6739 1cfb 01       		.uleb128 0x1
 6740 1cfc 31       		.byte	0x31
 6741 1cfd 00       		.byte	0
 6742 1cfe 29       		.uleb128 0x29
 6743 1cff B2020000 		.4byte	.LVL210
 6744 1d03 E32C0000 		.4byte	0x2ce3
 6745 1d07 29       		.uleb128 0x29
 6746 1d08 BA020000 		.4byte	.LVL211
 6747 1d0c 2B2D0000 		.4byte	0x2d2b
 6748 1d10 29       		.uleb128 0x29
 6749 1d11 C2020000 		.4byte	.LVL212
 6750 1d15 322D0000 		.4byte	0x2d32
 6751 1d19 29       		.uleb128 0x29
 6752 1d1a D0020000 		.4byte	.LVL213
 6753 1d1e E32C0000 		.4byte	0x2ce3
 6754 1d22 29       		.uleb128 0x29
 6755 1d23 DA020000 		.4byte	.LVL214
ARM GAS  C:\Users\Administrator\AppData\Local\Temp\ccNLOfxN.s 			page 160


 6756 1d27 472D0000 		.4byte	0x2d47
 6757 1d2b 00       		.byte	0
 6758 1d2c 2C       		.uleb128 0x2c
 6759 1d2d 74400000 		.4byte	.LASF540
 6760 1d31 01       		.byte	0x1
 6761 1d32 3B02     		.2byte	0x23b
 6762 1d34 00000000 		.4byte	.LFB78
 6763 1d38 16000000 		.4byte	.LFE78-.LFB78
 6764 1d3c 01       		.uleb128 0x1
 6765 1d3d 9C       		.byte	0x9c
 6766 1d3e 781D0000 		.4byte	0x1d78
 6767 1d42 26       		.uleb128 0x26
 6768 1d43 08000000 		.4byte	.LVL215
 6769 1d47 4E2D0000 		.4byte	0x2d4e
 6770 1d4b 551D0000 		.4byte	0x1d55
 6771 1d4f 27       		.uleb128 0x27
 6772 1d50 01       		.uleb128 0x1
 6773 1d51 50       		.byte	0x50
 6774 1d52 01       		.uleb128 0x1
 6775 1d53 31       		.byte	0x31
 6776 1d54 00       		.byte	0
 6777 1d55 26       		.uleb128 0x26
 6778 1d56 0E000000 		.4byte	.LVL216
 6779 1d5a 22170000 		.4byte	0x1722
 6780 1d5e 681D0000 		.4byte	0x1d68
 6781 1d62 27       		.uleb128 0x27
 6782 1d63 01       		.uleb128 0x1
 6783 1d64 50       		.byte	0x50
 6784 1d65 01       		.uleb128 0x1
 6785 1d66 49       		.byte	0x49
 6786 1d67 00       		.byte	0
 6787 1d68 28       		.uleb128 0x28
 6788 1d69 14000000 		.4byte	.LVL217
 6789 1d6d 4E2D0000 		.4byte	0x2d4e
 6790 1d71 27       		.uleb128 0x27
 6791 1d72 01       		.uleb128 0x1
 6792 1d73 50       		.byte	0x50
 6793 1d74 01       		.uleb128 0x1
 6794 1d75 30       		.byte	0x30
 6795 1d76 00       		.byte	0
 6796 1d77 00       		.byte	0
 6797 1d78 1F       		.uleb128 0x1f
 6798 1d79 D0100000 		.4byte	0x10d0
 6799 1d7d 00000000 		.4byte	.LFB85
 6800 1d81 28000000 		.4byte	.LFE85-.LFB85
 6801 1d85 01       		.uleb128 0x1
 6802 1d86 9C       		.byte	0x9c
 6803 1d87 9E1D0000 		.4byte	0x1d9e
 6804 1d8b 29       		.uleb128 0x29
 6805 1d8c 06000000 		.4byte	.LVL218
 6806 1d90 9E100000 		.4byte	0x109e
 6807 1d94 29       		.uleb128 0x29
 6808 1d95 1A000000 		.4byte	.LVL219
 6809 1d99 C62C0000 		.4byte	0x2cc6
 6810 1d9d 00       		.byte	0
 6811 1d9e 2C       		.uleb128 0x2c
 6812 1d9f DC0C0000 		.4byte	.LASF541
ARM GAS  C:\Users\Administrator\AppData\Local\Temp\ccNLOfxN.s 			page 161


 6813 1da3 01       		.byte	0x1
 6814 1da4 DA05     		.2byte	0x5da
 6815 1da6 00000000 		.4byte	.LFB88
 6816 1daa B4000000 		.4byte	.LFE88-.LFB88
 6817 1dae 01       		.uleb128 0x1
 6818 1daf 9C       		.byte	0x9c
 6819 1db0 F91E0000 		.4byte	0x1ef9
 6820 1db4 32       		.uleb128 0x32
 6821 1db5 E23E0000 		.4byte	.LASF530
 6822 1db9 01       		.byte	0x1
 6823 1dba DC05     		.2byte	0x5dc
 6824 1dbc 5A010000 		.4byte	0x15a
 6825 1dc0 02       		.uleb128 0x2
 6826 1dc1 91       		.byte	0x91
 6827 1dc2 58       		.sleb128 -40
 6828 1dc3 32       		.uleb128 0x32
 6829 1dc4 881C0000 		.4byte	.LASF531
 6830 1dc8 01       		.byte	0x1
 6831 1dc9 DD05     		.2byte	0x5dd
 6832 1dcb 6A010000 		.4byte	0x16a
 6833 1dcf 02       		.uleb128 0x2
 6834 1dd0 91       		.byte	0x91
 6835 1dd1 54       		.sleb128 -44
 6836 1dd2 30       		.uleb128 0x30
 6837 1dd3 591A0000 		.4byte	.LASF542
 6838 1dd7 01       		.byte	0x1
 6839 1dd8 DE05     		.2byte	0x5de
 6840 1dda C5000000 		.4byte	0xc5
 6841 1dde B9040000 		.4byte	.LLST30
 6842 1de2 32       		.uleb128 0x32
 6843 1de3 CF3C0000 		.4byte	.LASF543
 6844 1de7 01       		.byte	0x1
 6845 1de8 DF05     		.2byte	0x5df
 6846 1dea B6010000 		.4byte	0x1b6
 6847 1dee 02       		.uleb128 0x2
 6848 1def 91       		.byte	0x91
 6849 1df0 60       		.sleb128 -32
 6850 1df1 26       		.uleb128 0x26
 6851 1df2 0E000000 		.4byte	.LVL220
 6852 1df6 5F2D0000 		.4byte	0x2d5f
 6853 1dfa 131E0000 		.4byte	0x1e13
 6854 1dfe 27       		.uleb128 0x27
 6855 1dff 01       		.uleb128 0x1
 6856 1e00 52       		.byte	0x52
 6857 1e01 01       		.uleb128 0x1
 6858 1e02 38       		.byte	0x38
 6859 1e03 27       		.uleb128 0x27
 6860 1e04 01       		.uleb128 0x1
 6861 1e05 51       		.byte	0x51
 6862 1e06 05       		.uleb128 0x5
 6863 1e07 03       		.byte	0x3
 6864 1e08 00000000 		.4byte	.LANCHOR1
 6865 1e0c 27       		.uleb128 0x27
 6866 1e0d 01       		.uleb128 0x1
 6867 1e0e 50       		.byte	0x50
 6868 1e0f 02       		.uleb128 0x2
 6869 1e10 91       		.byte	0x91
ARM GAS  C:\Users\Administrator\AppData\Local\Temp\ccNLOfxN.s 			page 162


 6870 1e11 58       		.sleb128 -40
 6871 1e12 00       		.byte	0
 6872 1e13 29       		.uleb128 0x29
 6873 1e14 12000000 		.4byte	.LVL221
 6874 1e18 832D0000 		.4byte	0x2d83
 6875 1e1c 29       		.uleb128 0x29
 6876 1e1d 1C000000 		.4byte	.LVL222
 6877 1e21 22170000 		.4byte	0x1722
 6878 1e25 29       		.uleb128 0x29
 6879 1e26 20000000 		.4byte	.LVL223
 6880 1e2a 832D0000 		.4byte	0x2d83
 6881 1e2e 29       		.uleb128 0x29
 6882 1e2f 28000000 		.4byte	.LVL224
 6883 1e33 C4120000 		.4byte	0x12c4
 6884 1e37 29       		.uleb128 0x29
 6885 1e38 2C000000 		.4byte	.LVL225
 6886 1e3c 7D130000 		.4byte	0x137d
 6887 1e40 26       		.uleb128 0x26
 6888 1e41 32000000 		.4byte	.LVL226
 6889 1e45 C02B0000 		.4byte	0x2bc0
 6890 1e49 531E0000 		.4byte	0x1e53
 6891 1e4d 27       		.uleb128 0x27
 6892 1e4e 01       		.uleb128 0x1
 6893 1e4f 50       		.byte	0x50
 6894 1e50 01       		.uleb128 0x1
 6895 1e51 3A       		.byte	0x3a
 6896 1e52 00       		.byte	0
 6897 1e53 29       		.uleb128 0x29
 6898 1e54 36000000 		.4byte	.LVL227
 6899 1e58 7F2B0000 		.4byte	0x2b7f
 6900 1e5c 26       		.uleb128 0x26
 6901 1e5d 52000000 		.4byte	.LVL230
 6902 1e61 D12B0000 		.4byte	0x2bd1
 6903 1e65 7B1E0000 		.4byte	0x1e7b
 6904 1e69 27       		.uleb128 0x27
 6905 1e6a 01       		.uleb128 0x1
 6906 1e6b 52       		.byte	0x52
 6907 1e6c 01       		.uleb128 0x1
 6908 1e6d 40       		.byte	0x40
 6909 1e6e 27       		.uleb128 0x27
 6910 1e6f 01       		.uleb128 0x1
 6911 1e70 51       		.byte	0x51
 6912 1e71 02       		.uleb128 0x2
 6913 1e72 75       		.byte	0x75
 6914 1e73 00       		.sleb128 0
 6915 1e74 27       		.uleb128 0x27
 6916 1e75 01       		.uleb128 0x1
 6917 1e76 50       		.byte	0x50
 6918 1e77 02       		.uleb128 0x2
 6919 1e78 91       		.byte	0x91
 6920 1e79 60       		.sleb128 -32
 6921 1e7a 00       		.byte	0
 6922 1e7b 26       		.uleb128 0x26
 6923 1e7c 5C000000 		.4byte	.LVL231
 6924 1e80 5F2D0000 		.4byte	0x2d5f
 6925 1e84 9A1E0000 		.4byte	0x1e9a
 6926 1e88 27       		.uleb128 0x27
ARM GAS  C:\Users\Administrator\AppData\Local\Temp\ccNLOfxN.s 			page 163


 6927 1e89 01       		.uleb128 0x1
 6928 1e8a 52       		.byte	0x52
 6929 1e8b 01       		.uleb128 0x1
 6930 1e8c 38       		.byte	0x38
 6931 1e8d 27       		.uleb128 0x27
 6932 1e8e 01       		.uleb128 0x1
 6933 1e8f 51       		.byte	0x51
 6934 1e90 02       		.uleb128 0x2
 6935 1e91 91       		.byte	0x91
 6936 1e92 58       		.sleb128 -40
 6937 1e93 27       		.uleb128 0x27
 6938 1e94 01       		.uleb128 0x1
 6939 1e95 50       		.byte	0x50
 6940 1e96 02       		.uleb128 0x2
 6941 1e97 91       		.byte	0x91
 6942 1e98 60       		.sleb128 -32
 6943 1e99 00       		.byte	0
 6944 1e9a 26       		.uleb128 0x26
 6945 1e9b 6C000000 		.4byte	.LVL232
 6946 1e9f EE2B0000 		.4byte	0x2bee
 6947 1ea3 B31E0000 		.4byte	0x1eb3
 6948 1ea7 27       		.uleb128 0x27
 6949 1ea8 01       		.uleb128 0x1
 6950 1ea9 51       		.byte	0x51
 6951 1eaa 01       		.uleb128 0x1
 6952 1eab 38       		.byte	0x38
 6953 1eac 27       		.uleb128 0x27
 6954 1ead 01       		.uleb128 0x1
 6955 1eae 50       		.byte	0x50
 6956 1eaf 02       		.uleb128 0x2
 6957 1eb0 91       		.byte	0x91
 6958 1eb1 60       		.sleb128 -32
 6959 1eb2 00       		.byte	0
 6960 1eb3 26       		.uleb128 0x26
 6961 1eb4 8A000000 		.4byte	.LVL234
 6962 1eb8 0A2C0000 		.4byte	0x2c0a
 6963 1ebc D11E0000 		.4byte	0x1ed1
 6964 1ec0 27       		.uleb128 0x27
 6965 1ec1 01       		.uleb128 0x1
 6966 1ec2 52       		.byte	0x52
 6967 1ec3 01       		.uleb128 0x1
 6968 1ec4 38       		.byte	0x38
 6969 1ec5 27       		.uleb128 0x27
 6970 1ec6 01       		.uleb128 0x1
 6971 1ec7 51       		.byte	0x51
 6972 1ec8 01       		.uleb128 0x1
 6973 1ec9 38       		.byte	0x38
 6974 1eca 27       		.uleb128 0x27
 6975 1ecb 01       		.uleb128 0x1
 6976 1ecc 50       		.byte	0x50
 6977 1ecd 02       		.uleb128 0x2
 6978 1ece 91       		.byte	0x91
 6979 1ecf 60       		.sleb128 -32
 6980 1ed0 00       		.byte	0
 6981 1ed1 26       		.uleb128 0x26
 6982 1ed2 92000000 		.4byte	.LVL235
 6983 1ed6 22170000 		.4byte	0x1722
ARM GAS  C:\Users\Administrator\AppData\Local\Temp\ccNLOfxN.s 			page 164


 6984 1eda E61E0000 		.4byte	0x1ee6
 6985 1ede 27       		.uleb128 0x27
 6986 1edf 01       		.uleb128 0x1
 6987 1ee0 50       		.byte	0x50
 6988 1ee1 03       		.uleb128 0x3
 6989 1ee2 0A       		.byte	0xa
 6990 1ee3 E803     		.2byte	0x3e8
 6991 1ee5 00       		.byte	0
 6992 1ee6 29       		.uleb128 0x29
 6993 1ee7 96000000 		.4byte	.LVL236
 6994 1eeb A3130000 		.4byte	0x13a3
 6995 1eef 29       		.uleb128 0x29
 6996 1ef0 9E000000 		.4byte	.LVL237
 6997 1ef4 22130000 		.4byte	0x1322
 6998 1ef8 00       		.byte	0
 6999 1ef9 2C       		.uleb128 0x2c
 7000 1efa AC2D0000 		.4byte	.LASF544
 7001 1efe 01       		.byte	0x1
 7002 1eff 1106     		.2byte	0x611
 7003 1f01 00000000 		.4byte	.LFB89
 7004 1f05 A4000000 		.4byte	.LFE89-.LFB89
 7005 1f09 01       		.uleb128 0x1
 7006 1f0a 9C       		.byte	0x9c
 7007 1f0b 55200000 		.4byte	0x2055
 7008 1f0f 32       		.uleb128 0x32
 7009 1f10 E23E0000 		.4byte	.LASF530
 7010 1f14 01       		.byte	0x1
 7011 1f15 1306     		.2byte	0x613
 7012 1f17 5A010000 		.4byte	0x15a
 7013 1f1b 02       		.uleb128 0x2
 7014 1f1c 91       		.byte	0x91
 7015 1f1d 60       		.sleb128 -32
 7016 1f1e 32       		.uleb128 0x32
 7017 1f1f 881C0000 		.4byte	.LASF531
 7018 1f23 01       		.byte	0x1
 7019 1f24 1406     		.2byte	0x614
 7020 1f26 6A010000 		.4byte	0x16a
 7021 1f2a 02       		.uleb128 0x2
 7022 1f2b 91       		.byte	0x91
 7023 1f2c 5C       		.sleb128 -36
 7024 1f2d 30       		.uleb128 0x30
 7025 1f2e AD390000 		.4byte	.LASF532
 7026 1f32 01       		.byte	0x1
 7027 1f33 1506     		.2byte	0x615
 7028 1f35 C5000000 		.4byte	0xc5
 7029 1f39 E4040000 		.4byte	.LLST31
 7030 1f3d 32       		.uleb128 0x32
 7031 1f3e 0C000000 		.4byte	.LASF545
 7032 1f42 01       		.byte	0x1
 7033 1f43 1606     		.2byte	0x616
 7034 1f45 B6010000 		.4byte	0x1b6
 7035 1f49 02       		.uleb128 0x2
 7036 1f4a 91       		.byte	0x91
 7037 1f4b 68       		.sleb128 -24
 7038 1f4c 26       		.uleb128 0x26
 7039 1f4d 10000000 		.4byte	.LVL238
 7040 1f51 5F2D0000 		.4byte	0x2d5f
ARM GAS  C:\Users\Administrator\AppData\Local\Temp\ccNLOfxN.s 			page 165


 7041 1f55 6E1F0000 		.4byte	0x1f6e
 7042 1f59 27       		.uleb128 0x27
 7043 1f5a 01       		.uleb128 0x1
 7044 1f5b 52       		.byte	0x52
 7045 1f5c 01       		.uleb128 0x1
 7046 1f5d 38       		.byte	0x38
 7047 1f5e 27       		.uleb128 0x27
 7048 1f5f 01       		.uleb128 0x1
 7049 1f60 51       		.byte	0x51
 7050 1f61 05       		.uleb128 0x5
 7051 1f62 03       		.byte	0x3
 7052 1f63 08000000 		.4byte	.LANCHOR1+8
 7053 1f67 27       		.uleb128 0x27
 7054 1f68 01       		.uleb128 0x1
 7055 1f69 50       		.byte	0x50
 7056 1f6a 02       		.uleb128 0x2
 7057 1f6b 91       		.byte	0x91
 7058 1f6c 60       		.sleb128 -32
 7059 1f6d 00       		.byte	0
 7060 1f6e 29       		.uleb128 0x29
 7061 1f6f 14000000 		.4byte	.LVL239
 7062 1f73 8E2D0000 		.4byte	0x2d8e
 7063 1f77 29       		.uleb128 0x29
 7064 1f78 1E000000 		.4byte	.LVL240
 7065 1f7c 22170000 		.4byte	0x1722
 7066 1f80 29       		.uleb128 0x29
 7067 1f81 22000000 		.4byte	.LVL241
 7068 1f85 8E2D0000 		.4byte	0x2d8e
 7069 1f89 29       		.uleb128 0x29
 7070 1f8a 2A000000 		.4byte	.LVL242
 7071 1f8e C4120000 		.4byte	0x12c4
 7072 1f92 29       		.uleb128 0x29
 7073 1f93 2E000000 		.4byte	.LVL243
 7074 1f97 7D130000 		.4byte	0x137d
 7075 1f9b 26       		.uleb128 0x26
 7076 1f9c 34000000 		.4byte	.LVL244
 7077 1fa0 C02B0000 		.4byte	0x2bc0
 7078 1fa4 AE1F0000 		.4byte	0x1fae
 7079 1fa8 27       		.uleb128 0x27
 7080 1fa9 01       		.uleb128 0x1
 7081 1faa 50       		.byte	0x50
 7082 1fab 01       		.uleb128 0x1
 7083 1fac 3A       		.byte	0x3a
 7084 1fad 00       		.byte	0
 7085 1fae 26       		.uleb128 0x26
 7086 1faf 3E000000 		.4byte	.LVL245
 7087 1fb3 D12B0000 		.4byte	0x2bd1
 7088 1fb7 CD1F0000 		.4byte	0x1fcd
 7089 1fbb 27       		.uleb128 0x27
 7090 1fbc 01       		.uleb128 0x1
 7091 1fbd 52       		.byte	0x52
 7092 1fbe 01       		.uleb128 0x1
 7093 1fbf 40       		.byte	0x40
 7094 1fc0 27       		.uleb128 0x27
 7095 1fc1 01       		.uleb128 0x1
 7096 1fc2 51       		.byte	0x51
 7097 1fc3 02       		.uleb128 0x2
ARM GAS  C:\Users\Administrator\AppData\Local\Temp\ccNLOfxN.s 			page 166


 7098 1fc4 74       		.byte	0x74
 7099 1fc5 00       		.sleb128 0
 7100 1fc6 27       		.uleb128 0x27
 7101 1fc7 01       		.uleb128 0x1
 7102 1fc8 50       		.byte	0x50
 7103 1fc9 02       		.uleb128 0x2
 7104 1fca 91       		.byte	0x91
 7105 1fcb 68       		.sleb128 -24
 7106 1fcc 00       		.byte	0
 7107 1fcd 26       		.uleb128 0x26
 7108 1fce 48000000 		.4byte	.LVL246
 7109 1fd2 5F2D0000 		.4byte	0x2d5f
 7110 1fd6 EC1F0000 		.4byte	0x1fec
 7111 1fda 27       		.uleb128 0x27
 7112 1fdb 01       		.uleb128 0x1
 7113 1fdc 52       		.byte	0x52
 7114 1fdd 01       		.uleb128 0x1
 7115 1fde 38       		.byte	0x38
 7116 1fdf 27       		.uleb128 0x27
 7117 1fe0 01       		.uleb128 0x1
 7118 1fe1 51       		.byte	0x51
 7119 1fe2 02       		.uleb128 0x2
 7120 1fe3 91       		.byte	0x91
 7121 1fe4 60       		.sleb128 -32
 7122 1fe5 27       		.uleb128 0x27
 7123 1fe6 01       		.uleb128 0x1
 7124 1fe7 50       		.byte	0x50
 7125 1fe8 02       		.uleb128 0x2
 7126 1fe9 91       		.byte	0x91
 7127 1fea 68       		.sleb128 -24
 7128 1feb 00       		.byte	0
 7129 1fec 26       		.uleb128 0x26
 7130 1fed 58000000 		.4byte	.LVL247
 7131 1ff1 EE2B0000 		.4byte	0x2bee
 7132 1ff5 05200000 		.4byte	0x2005
 7133 1ff9 27       		.uleb128 0x27
 7134 1ffa 01       		.uleb128 0x1
 7135 1ffb 51       		.byte	0x51
 7136 1ffc 01       		.uleb128 0x1
 7137 1ffd 35       		.byte	0x35
 7138 1ffe 27       		.uleb128 0x27
 7139 1fff 01       		.uleb128 0x1
 7140 2000 50       		.byte	0x50
 7141 2001 02       		.uleb128 0x2
 7142 2002 91       		.byte	0x91
 7143 2003 68       		.sleb128 -24
 7144 2004 00       		.byte	0
 7145 2005 29       		.uleb128 0x29
 7146 2006 64000000 		.4byte	.LVL248
 7147 200a 7F2B0000 		.4byte	0x2b7f
 7148 200e 26       		.uleb128 0x26
 7149 200f 7A000000 		.4byte	.LVL251
 7150 2013 0A2C0000 		.4byte	0x2c0a
 7151 2017 2D200000 		.4byte	0x202d
 7152 201b 27       		.uleb128 0x27
 7153 201c 01       		.uleb128 0x1
 7154 201d 52       		.byte	0x52
ARM GAS  C:\Users\Administrator\AppData\Local\Temp\ccNLOfxN.s 			page 167


 7155 201e 02       		.uleb128 0x2
 7156 201f 74       		.byte	0x74
 7157 2020 00       		.sleb128 0
 7158 2021 27       		.uleb128 0x27
 7159 2022 01       		.uleb128 0x1
 7160 2023 51       		.byte	0x51
 7161 2024 01       		.uleb128 0x1
 7162 2025 38       		.byte	0x38
 7163 2026 27       		.uleb128 0x27
 7164 2027 01       		.uleb128 0x1
 7165 2028 50       		.byte	0x50
 7166 2029 02       		.uleb128 0x2
 7167 202a 91       		.byte	0x91
 7168 202b 68       		.sleb128 -24
 7169 202c 00       		.byte	0
 7170 202d 26       		.uleb128 0x26
 7171 202e 82000000 		.4byte	.LVL252
 7172 2032 22170000 		.4byte	0x1722
 7173 2036 42200000 		.4byte	0x2042
 7174 203a 27       		.uleb128 0x27
 7175 203b 01       		.uleb128 0x1
 7176 203c 50       		.byte	0x50
 7177 203d 03       		.uleb128 0x3
 7178 203e 0A       		.byte	0xa
 7179 203f D007     		.2byte	0x7d0
 7180 2041 00       		.byte	0
 7181 2042 29       		.uleb128 0x29
 7182 2043 86000000 		.4byte	.LVL253
 7183 2047 A3130000 		.4byte	0x13a3
 7184 204b 29       		.uleb128 0x29
 7185 204c 8E000000 		.4byte	.LVL254
 7186 2050 22130000 		.4byte	0x1322
 7187 2054 00       		.byte	0
 7188 2055 2C       		.uleb128 0x2c
 7189 2056 190F0000 		.4byte	.LASF546
 7190 205a 01       		.byte	0x1
 7191 205b 6006     		.2byte	0x660
 7192 205d 00000000 		.4byte	.LFB90
 7193 2061 54000000 		.4byte	.LFE90-.LFB90
 7194 2065 01       		.uleb128 0x1
 7195 2066 9C       		.byte	0x9c
 7196 2067 9F200000 		.4byte	0x209f
 7197 206b 29       		.uleb128 0x29
 7198 206c 06000000 		.4byte	.LVL255
 7199 2070 992D0000 		.4byte	0x2d99
 7200 2074 29       		.uleb128 0x29
 7201 2075 10000000 		.4byte	.LVL256
 7202 2079 22170000 		.4byte	0x1722
 7203 207d 29       		.uleb128 0x29
 7204 207e 14000000 		.4byte	.LVL257
 7205 2082 992D0000 		.4byte	0x2d99
 7206 2086 29       		.uleb128 0x29
 7207 2087 1E000000 		.4byte	.LVL258
 7208 208b C02B0000 		.4byte	0x2bc0
 7209 208f 28       		.uleb128 0x28
 7210 2090 3C000000 		.4byte	.LVL259
 7211 2094 3F2B0000 		.4byte	0x2b3f
ARM GAS  C:\Users\Administrator\AppData\Local\Temp\ccNLOfxN.s 			page 168


 7212 2098 27       		.uleb128 0x27
 7213 2099 01       		.uleb128 0x1
 7214 209a 50       		.byte	0x50
 7215 209b 01       		.uleb128 0x1
 7216 209c 32       		.byte	0x32
 7217 209d 00       		.byte	0
 7218 209e 00       		.byte	0
 7219 209f 34       		.uleb128 0x34
 7220 20a0 532B0000 		.4byte	.LASF547
 7221 20a4 01       		.byte	0x1
 7222 20a5 8406     		.2byte	0x684
 7223 20a7 00000000 		.4byte	.LFB91
 7224 20ab 10010000 		.4byte	.LFE91-.LFB91
 7225 20af 01       		.uleb128 0x1
 7226 20b0 9C       		.byte	0x9c
 7227 20b1 85210000 		.4byte	0x2185
 7228 20b5 30       		.uleb128 0x30
 7229 20b6 4C330000 		.4byte	.LASF548
 7230 20ba 01       		.byte	0x1
 7231 20bb 8606     		.2byte	0x686
 7232 20bd B9000000 		.4byte	0xb9
 7233 20c1 17050000 		.4byte	.LLST32
 7234 20c5 32       		.uleb128 0x32
 7235 20c6 7F250000 		.4byte	.LASF549
 7236 20ca 01       		.byte	0x1
 7237 20cb 8706     		.2byte	0x687
 7238 20cd 85210000 		.4byte	0x2185
 7239 20d1 03       		.uleb128 0x3
 7240 20d2 91       		.byte	0x91
 7241 20d3 E87D     		.sleb128 -280
 7242 20d5 32       		.uleb128 0x32
 7243 20d6 C3110000 		.4byte	.LASF550
 7244 20da 01       		.byte	0x1
 7245 20db 8806     		.2byte	0x688
 7246 20dd B6010000 		.4byte	0x1b6
 7247 20e1 03       		.uleb128 0x3
 7248 20e2 91       		.byte	0x91
 7249 20e3 D87D     		.sleb128 -296
 7250 20e5 31       		.uleb128 0x31
 7251 20e6 6900     		.ascii	"i\000"
 7252 20e8 01       		.byte	0x1
 7253 20e9 8906     		.2byte	0x689
 7254 20eb B9000000 		.4byte	0xb9
 7255 20ef 4D050000 		.4byte	.LLST33
 7256 20f3 26       		.uleb128 0x26
 7257 20f4 12000000 		.4byte	.LVL261
 7258 20f8 D12B0000 		.4byte	0x2bd1
 7259 20fc 13210000 		.4byte	0x2113
 7260 2100 27       		.uleb128 0x27
 7261 2101 01       		.uleb128 0x1
 7262 2102 52       		.byte	0x52
 7263 2103 03       		.uleb128 0x3
 7264 2104 0A       		.byte	0xa
 7265 2105 0001     		.2byte	0x100
 7266 2107 27       		.uleb128 0x27
 7267 2108 01       		.uleb128 0x1
 7268 2109 51       		.byte	0x51
ARM GAS  C:\Users\Administrator\AppData\Local\Temp\ccNLOfxN.s 			page 169


 7269 210a 01       		.uleb128 0x1
 7270 210b 30       		.byte	0x30
 7271 210c 27       		.uleb128 0x27
 7272 210d 01       		.uleb128 0x1
 7273 210e 50       		.byte	0x50
 7274 210f 02       		.uleb128 0x2
 7275 2110 76       		.byte	0x76
 7276 2111 00       		.sleb128 0
 7277 2112 00       		.byte	0
 7278 2113 29       		.uleb128 0x29
 7279 2114 20000000 		.4byte	.LVL262
 7280 2118 7F2B0000 		.4byte	0x2b7f
 7281 211c 29       		.uleb128 0x29
 7282 211d 3E000000 		.4byte	.LVL263
 7283 2121 A42D0000 		.4byte	0x2da4
 7284 2125 26       		.uleb128 0x26
 7285 2126 52000000 		.4byte	.LVL265
 7286 212a 1E2B0000 		.4byte	0x2b1e
 7287 212e 40210000 		.4byte	0x2140
 7288 2132 27       		.uleb128 0x27
 7289 2133 01       		.uleb128 0x1
 7290 2134 52       		.byte	0x52
 7291 2135 03       		.uleb128 0x3
 7292 2136 0A       		.byte	0xa
 7293 2137 0001     		.2byte	0x100
 7294 2139 27       		.uleb128 0x27
 7295 213a 01       		.uleb128 0x1
 7296 213b 50       		.byte	0x50
 7297 213c 02       		.uleb128 0x2
 7298 213d 76       		.byte	0x76
 7299 213e 00       		.sleb128 0
 7300 213f 00       		.byte	0
 7301 2140 26       		.uleb128 0x26
 7302 2141 BA000000 		.4byte	.LVL275
 7303 2145 AF2D0000 		.4byte	0x2daf
 7304 2149 53210000 		.4byte	0x2153
 7305 214d 27       		.uleb128 0x27
 7306 214e 01       		.uleb128 0x1
 7307 214f 51       		.byte	0x51
 7308 2150 01       		.uleb128 0x1
 7309 2151 31       		.byte	0x31
 7310 2152 00       		.byte	0
 7311 2153 26       		.uleb128 0x26
 7312 2154 CA000000 		.4byte	.LVL278
 7313 2158 C52D0000 		.4byte	0x2dc5
 7314 215c 6E210000 		.4byte	0x216e
 7315 2160 27       		.uleb128 0x27
 7316 2161 01       		.uleb128 0x1
 7317 2162 51       		.byte	0x51
 7318 2163 03       		.uleb128 0x3
 7319 2164 91       		.byte	0x91
 7320 2165 D87D     		.sleb128 -296
 7321 2167 27       		.uleb128 0x27
 7322 2168 01       		.uleb128 0x1
 7323 2169 50       		.byte	0x50
 7324 216a 02       		.uleb128 0x2
 7325 216b 74       		.byte	0x74
ARM GAS  C:\Users\Administrator\AppData\Local\Temp\ccNLOfxN.s 			page 170


 7326 216c 00       		.sleb128 0
 7327 216d 00       		.byte	0
 7328 216e 28       		.uleb128 0x28
 7329 216f E0000000 		.4byte	.LVL279
 7330 2173 0A2C0000 		.4byte	0x2c0a
 7331 2177 27       		.uleb128 0x27
 7332 2178 01       		.uleb128 0x1
 7333 2179 51       		.byte	0x51
 7334 217a 01       		.uleb128 0x1
 7335 217b 38       		.byte	0x38
 7336 217c 27       		.uleb128 0x27
 7337 217d 01       		.uleb128 0x1
 7338 217e 50       		.byte	0x50
 7339 217f 03       		.uleb128 0x3
 7340 2180 91       		.byte	0x91
 7341 2181 D87D     		.sleb128 -296
 7342 2183 00       		.byte	0
 7343 2184 00       		.byte	0
 7344 2185 0C       		.uleb128 0xc
 7345 2186 AD000000 		.4byte	0xad
 7346 218a 95210000 		.4byte	0x2195
 7347 218e 0D       		.uleb128 0xd
 7348 218f 1B010000 		.4byte	0x11b
 7349 2193 FF       		.byte	0xff
 7350 2194 00       		.byte	0
 7351 2195 2C       		.uleb128 0x2c
 7352 2196 0D0D0000 		.4byte	.LASF551
 7353 219a 01       		.byte	0x1
 7354 219b D806     		.2byte	0x6d8
 7355 219d 00000000 		.4byte	.LFB92
 7356 21a1 74000000 		.4byte	.LFE92-.LFB92
 7357 21a5 01       		.uleb128 0x1
 7358 21a6 9C       		.byte	0x9c
 7359 21a7 1B220000 		.4byte	0x221b
 7360 21ab 35       		.uleb128 0x35
 7361 21ac 6D616300 		.ascii	"mac\000"
 7362 21b0 01       		.byte	0x1
 7363 21b1 D806     		.2byte	0x6d8
 7364 21b3 1B220000 		.4byte	0x221b
 7365 21b7 A9050000 		.4byte	.LLST34
 7366 21bb 39       		.uleb128 0x39
 7367 21bc 24390000 		.4byte	.LASF552
 7368 21c0 01       		.byte	0x1
 7369 21c1 D806     		.2byte	0x6d8
 7370 21c3 1B220000 		.4byte	0x221b
 7371 21c7 D5050000 		.4byte	.LLST35
 7372 21cb 31       		.uleb128 0x31
 7373 21cc 6900     		.ascii	"i\000"
 7374 21ce 01       		.byte	0x1
 7375 21cf DA06     		.2byte	0x6da
 7376 21d1 AD000000 		.4byte	0xad
 7377 21d5 01060000 		.4byte	.LLST36
 7378 21d9 32       		.uleb128 0x32
 7379 21da 70150000 		.4byte	.LASF553
 7380 21de 01       		.byte	0x1
 7381 21df DB06     		.2byte	0x6db
 7382 21e1 21220000 		.4byte	0x2221
ARM GAS  C:\Users\Administrator\AppData\Local\Temp\ccNLOfxN.s 			page 171


 7383 21e5 02       		.uleb128 0x2
 7384 21e6 91       		.byte	0x91
 7385 21e7 60       		.sleb128 -32
 7386 21e8 26       		.uleb128 0x26
 7387 21e9 12000000 		.4byte	.LVL283
 7388 21ed 5F2D0000 		.4byte	0x2d5f
 7389 21f1 0A220000 		.4byte	0x220a
 7390 21f5 27       		.uleb128 0x27
 7391 21f6 01       		.uleb128 0x1
 7392 21f7 52       		.byte	0x52
 7393 21f8 01       		.uleb128 0x1
 7394 21f9 3D       		.byte	0x3d
 7395 21fa 27       		.uleb128 0x27
 7396 21fb 01       		.uleb128 0x1
 7397 21fc 51       		.byte	0x51
 7398 21fd 05       		.uleb128 0x5
 7399 21fe 03       		.byte	0x3
 7400 21ff 10000000 		.4byte	.LANCHOR1+16
 7401 2203 27       		.uleb128 0x27
 7402 2204 01       		.uleb128 0x1
 7403 2205 50       		.byte	0x50
 7404 2206 02       		.uleb128 0x2
 7405 2207 7D       		.byte	0x7d
 7406 2208 00       		.sleb128 0
 7407 2209 00       		.byte	0
 7408 220a 28       		.uleb128 0x28
 7409 220b 5E000000 		.4byte	.LVL288
 7410 220f DB2D0000 		.4byte	0x2ddb
 7411 2213 27       		.uleb128 0x27
 7412 2214 01       		.uleb128 0x1
 7413 2215 50       		.byte	0x50
 7414 2216 02       		.uleb128 0x2
 7415 2217 7D       		.byte	0x7d
 7416 2218 00       		.sleb128 0
 7417 2219 00       		.byte	0
 7418 221a 00       		.byte	0
 7419 221b 07       		.uleb128 0x7
 7420 221c 04       		.byte	0x4
 7421 221d EB000000 		.4byte	0xeb
 7422 2221 0C       		.uleb128 0xc
 7423 2222 AD000000 		.4byte	0xad
 7424 2226 31220000 		.4byte	0x2231
 7425 222a 0D       		.uleb128 0xd
 7426 222b 1B010000 		.4byte	0x11b
 7427 222f 0C       		.byte	0xc
 7428 2230 00       		.byte	0
 7429 2231 2C       		.uleb128 0x2c
 7430 2232 F6040000 		.4byte	.LASF554
 7431 2236 01       		.byte	0x1
 7432 2237 0707     		.2byte	0x707
 7433 2239 00000000 		.4byte	.LFB93
 7434 223d AC000000 		.4byte	.LFE93-.LFB93
 7435 2241 01       		.uleb128 0x1
 7436 2242 9C       		.byte	0x9c
 7437 2243 FC220000 		.4byte	0x22fc
 7438 2247 35       		.uleb128 0x35
 7439 2248 6D616300 		.ascii	"mac\000"
ARM GAS  C:\Users\Administrator\AppData\Local\Temp\ccNLOfxN.s 			page 172


 7440 224c 01       		.byte	0x1
 7441 224d 0707     		.2byte	0x707
 7442 224f 24010000 		.4byte	0x124
 7443 2253 22060000 		.4byte	.LLST37
 7444 2257 39       		.uleb128 0x39
 7445 2258 24390000 		.4byte	.LASF552
 7446 225c 01       		.byte	0x1
 7447 225d 0707     		.2byte	0x707
 7448 225f 24010000 		.4byte	0x124
 7449 2263 4E060000 		.4byte	.LLST38
 7450 2267 31       		.uleb128 0x31
 7451 2268 6900     		.ascii	"i\000"
 7452 226a 01       		.byte	0x1
 7453 226b 0907     		.2byte	0x709
 7454 226d AD000000 		.4byte	0xad
 7455 2271 7B060000 		.4byte	.LLST39
 7456 2275 32       		.uleb128 0x32
 7457 2276 12420000 		.4byte	.LASF555
 7458 227a 01       		.byte	0x1
 7459 227b 0A07     		.2byte	0x70a
 7460 227d 62030000 		.4byte	0x362
 7461 2281 02       		.uleb128 0x2
 7462 2282 91       		.byte	0x91
 7463 2283 58       		.sleb128 -40
 7464 2284 32       		.uleb128 0x32
 7465 2285 D6290000 		.4byte	.LASF527
 7466 2289 01       		.byte	0x1
 7467 228a 0B07     		.2byte	0x70b
 7468 228c AD000000 		.4byte	0xad
 7469 2290 02       		.uleb128 0x2
 7470 2291 91       		.byte	0x91
 7471 2292 57       		.sleb128 -41
 7472 2293 32       		.uleb128 0x32
 7473 2294 962E0000 		.4byte	.LASF556
 7474 2298 01       		.byte	0x1
 7475 2299 0C07     		.2byte	0x70c
 7476 229b 5A010000 		.4byte	0x15a
 7477 229f 02       		.uleb128 0x2
 7478 22a0 91       		.byte	0x91
 7479 22a1 60       		.sleb128 -32
 7480 22a2 26       		.uleb128 0x26
 7481 22a3 26000000 		.4byte	.LVL294
 7482 22a7 1E2B0000 		.4byte	0x2b1e
 7483 22ab C4220000 		.4byte	0x22c4
 7484 22af 27       		.uleb128 0x27
 7485 22b0 01       		.uleb128 0x1
 7486 22b1 52       		.byte	0x52
 7487 22b2 01       		.uleb128 0x1
 7488 22b3 31       		.byte	0x31
 7489 22b4 27       		.uleb128 0x27
 7490 22b5 01       		.uleb128 0x1
 7491 22b6 51       		.byte	0x51
 7492 22b7 05       		.uleb128 0x5
 7493 22b8 0C       		.byte	0xc
 7494 22b9 06920100 		.4byte	0x19206
 7495 22bd 27       		.uleb128 0x27
 7496 22be 01       		.uleb128 0x1
ARM GAS  C:\Users\Administrator\AppData\Local\Temp\ccNLOfxN.s 			page 173


 7497 22bf 50       		.byte	0x50
 7498 22c0 02       		.uleb128 0x2
 7499 22c1 77       		.byte	0x77
 7500 22c2 00       		.sleb128 0
 7501 22c3 00       		.byte	0
 7502 22c4 26       		.uleb128 0x26
 7503 22c5 32000000 		.4byte	.LVL295
 7504 22c9 1E2B0000 		.4byte	0x2b1e
 7505 22cd E5220000 		.4byte	0x22e5
 7506 22d1 27       		.uleb128 0x27
 7507 22d2 01       		.uleb128 0x1
 7508 22d3 52       		.byte	0x52
 7509 22d4 01       		.uleb128 0x1
 7510 22d5 36       		.byte	0x36
 7511 22d6 27       		.uleb128 0x27
 7512 22d7 01       		.uleb128 0x1
 7513 22d8 51       		.byte	0x51
 7514 22d9 04       		.uleb128 0x4
 7515 22da 08       		.byte	0x8
 7516 22db C9       		.byte	0xc9
 7517 22dc 39       		.byte	0x39
 7518 22dd 24       		.byte	0x24
 7519 22de 27       		.uleb128 0x27
 7520 22df 01       		.uleb128 0x1
 7521 22e0 50       		.byte	0x50
 7522 22e1 02       		.uleb128 0x2
 7523 22e2 76       		.byte	0x76
 7524 22e3 00       		.sleb128 0
 7525 22e4 00       		.byte	0
 7526 22e5 28       		.uleb128 0x28
 7527 22e6 4C000000 		.4byte	.LVL296
 7528 22ea 5F2D0000 		.4byte	0x2d5f
 7529 22ee 27       		.uleb128 0x27
 7530 22ef 01       		.uleb128 0x1
 7531 22f0 51       		.byte	0x51
 7532 22f1 02       		.uleb128 0x2
 7533 22f2 76       		.byte	0x76
 7534 22f3 00       		.sleb128 0
 7535 22f4 27       		.uleb128 0x27
 7536 22f5 01       		.uleb128 0x1
 7537 22f6 50       		.byte	0x50
 7538 22f7 02       		.uleb128 0x2
 7539 22f8 75       		.byte	0x75
 7540 22f9 00       		.sleb128 0
 7541 22fa 00       		.byte	0
 7542 22fb 00       		.byte	0
 7543 22fc 3A       		.uleb128 0x3a
 7544 22fd B20C0000 		.4byte	.LASF702
 7545 2301 01       		.byte	0x1
 7546 2302 4E07     		.2byte	0x74e
 7547 2304 7E000000 		.4byte	0x7e
 7548 2308 00000000 		.4byte	.LFB94
 7549 230c 1C010000 		.4byte	.LFE94-.LFB94
 7550 2310 01       		.uleb128 0x1
 7551 2311 9C       		.byte	0x9c
 7552 2312 5F250000 		.4byte	0x255f
 7553 2316 31       		.uleb128 0x31
ARM GAS  C:\Users\Administrator\AppData\Local\Temp\ccNLOfxN.s 			page 174


 7554 2317 72657400 		.ascii	"ret\000"
 7555 231b 01       		.byte	0x1
 7556 231c 5007     		.2byte	0x750
 7557 231e AD000000 		.4byte	0xad
 7558 2322 A7060000 		.4byte	.LLST40
 7559 2326 1D       		.uleb128 0x1d
 7560 2327 6900     		.ascii	"i\000"
 7561 2329 01       		.byte	0x1
 7562 232a 5007     		.2byte	0x750
 7563 232c AD000000 		.4byte	0xad
 7564 2330 31       		.uleb128 0x31
 7565 2331 746D7000 		.ascii	"tmp\000"
 7566 2335 01       		.byte	0x1
 7567 2336 5007     		.2byte	0x750
 7568 2338 AD000000 		.4byte	0xad
 7569 233c D0060000 		.4byte	.LLST41
 7570 2340 30       		.uleb128 0x30
 7571 2341 AA270000 		.4byte	.LASF509
 7572 2345 01       		.byte	0x1
 7573 2346 5007     		.2byte	0x750
 7574 2348 AD000000 		.4byte	0xad
 7575 234c EE060000 		.4byte	.LLST42
 7576 2350 32       		.uleb128 0x32
 7577 2351 F8130000 		.4byte	.LASF557
 7578 2355 01       		.byte	0x1
 7579 2356 5107     		.2byte	0x751
 7580 2358 62030000 		.4byte	0x362
 7581 235c 02       		.uleb128 0x2
 7582 235d 91       		.byte	0x91
 7583 235e 5C       		.sleb128 -36
 7584 235f 32       		.uleb128 0x32
 7585 2360 12060000 		.4byte	.LASF558
 7586 2364 01       		.byte	0x1
 7587 2365 5207     		.2byte	0x752
 7588 2367 5F250000 		.4byte	0x255f
 7589 236b 02       		.uleb128 0x2
 7590 236c 91       		.byte	0x91
 7591 236d 64       		.sleb128 -28
 7592 236e 38       		.uleb128 0x38
 7593 236f 22130000 		.4byte	0x1322
 7594 2373 2A000000 		.4byte	.LBB64
 7595 2377 04000000 		.4byte	.LBE64-.LBB64
 7596 237b 01       		.byte	0x1
 7597 237c 6207     		.2byte	0x762
 7598 237e 92230000 		.4byte	0x2392
 7599 2382 3B       		.uleb128 0x3b
 7600 2383 2F130000 		.4byte	0x132f
 7601 2387 01       		.byte	0x1
 7602 2388 29       		.uleb128 0x29
 7603 2389 2E000000 		.4byte	.LVL306
 7604 238d 95120000 		.4byte	0x1295
 7605 2391 00       		.byte	0
 7606 2392 26       		.uleb128 0x26
 7607 2393 12000000 		.4byte	.LVL302
 7608 2397 5F2D0000 		.4byte	0x2d5f
 7609 239b B1230000 		.4byte	0x23b1
 7610 239f 27       		.uleb128 0x27
ARM GAS  C:\Users\Administrator\AppData\Local\Temp\ccNLOfxN.s 			page 175


 7611 23a0 01       		.uleb128 0x1
 7612 23a1 52       		.byte	0x52
 7613 23a2 01       		.uleb128 0x1
 7614 23a3 36       		.byte	0x36
 7615 23a4 27       		.uleb128 0x27
 7616 23a5 01       		.uleb128 0x1
 7617 23a6 51       		.byte	0x51
 7618 23a7 02       		.uleb128 0x2
 7619 23a8 74       		.byte	0x74
 7620 23a9 1D       		.sleb128 29
 7621 23aa 27       		.uleb128 0x27
 7622 23ab 01       		.uleb128 0x1
 7623 23ac 50       		.byte	0x50
 7624 23ad 02       		.uleb128 0x2
 7625 23ae 91       		.byte	0x91
 7626 23af 5C       		.sleb128 -36
 7627 23b0 00       		.byte	0
 7628 23b1 26       		.uleb128 0x26
 7629 23b2 1E000000 		.4byte	.LVL303
 7630 23b6 5F2D0000 		.4byte	0x2d5f
 7631 23ba D0230000 		.4byte	0x23d0
 7632 23be 27       		.uleb128 0x27
 7633 23bf 01       		.uleb128 0x1
 7634 23c0 52       		.byte	0x52
 7635 23c1 01       		.uleb128 0x1
 7636 23c2 3A       		.byte	0x3a
 7637 23c3 27       		.uleb128 0x27
 7638 23c4 01       		.uleb128 0x1
 7639 23c5 51       		.byte	0x51
 7640 23c6 02       		.uleb128 0x2
 7641 23c7 74       		.byte	0x74
 7642 23c8 23       		.sleb128 35
 7643 23c9 27       		.uleb128 0x27
 7644 23ca 01       		.uleb128 0x1
 7645 23cb 50       		.byte	0x50
 7646 23cc 02       		.uleb128 0x2
 7647 23cd 91       		.byte	0x91
 7648 23ce 64       		.sleb128 -28
 7649 23cf 00       		.byte	0
 7650 23d0 29       		.uleb128 0x29
 7651 23d1 22000000 		.4byte	.LVL304
 7652 23d5 FC2D0000 		.4byte	0x2dfc
 7653 23d9 29       		.uleb128 0x29
 7654 23da 32000000 		.4byte	.LVL307
 7655 23de A3130000 		.4byte	0x13a3
 7656 23e2 26       		.uleb128 0x26
 7657 23e3 38000000 		.4byte	.LVL308
 7658 23e7 0A2E0000 		.4byte	0x2e0a
 7659 23eb F5230000 		.4byte	0x23f5
 7660 23ef 27       		.uleb128 0x27
 7661 23f0 01       		.uleb128 0x1
 7662 23f1 50       		.byte	0x50
 7663 23f2 01       		.uleb128 0x1
 7664 23f3 30       		.byte	0x30
 7665 23f4 00       		.byte	0
 7666 23f5 29       		.uleb128 0x29
 7667 23f6 3E000000 		.4byte	.LVL309
ARM GAS  C:\Users\Administrator\AppData\Local\Temp\ccNLOfxN.s 			page 176


 7668 23fa 1B2E0000 		.4byte	0x2e1b
 7669 23fe 29       		.uleb128 0x29
 7670 23ff 42000000 		.4byte	.LVL310
 7671 2403 2C2E0000 		.4byte	0x2e2c
 7672 2407 29       		.uleb128 0x29
 7673 2408 46000000 		.4byte	.LVL311
 7674 240c 342E0000 		.4byte	0x2e34
 7675 2410 26       		.uleb128 0x26
 7676 2411 4C000000 		.4byte	.LVL312
 7677 2415 3B2E0000 		.4byte	0x2e3b
 7678 2419 23240000 		.4byte	0x2423
 7679 241d 27       		.uleb128 0x27
 7680 241e 01       		.uleb128 0x1
 7681 241f 50       		.byte	0x50
 7682 2420 01       		.uleb128 0x1
 7683 2421 49       		.byte	0x49
 7684 2422 00       		.byte	0
 7685 2423 29       		.uleb128 0x29
 7686 2424 58000000 		.4byte	.LVL313
 7687 2428 502E0000 		.4byte	0x2e50
 7688 242c 29       		.uleb128 0x29
 7689 242d 66000000 		.4byte	.LVL317
 7690 2431 C02B0000 		.4byte	0x2bc0
 7691 2435 26       		.uleb128 0x26
 7692 2436 6C000000 		.4byte	.LVL318
 7693 243a 502C0000 		.4byte	0x2c50
 7694 243e 49240000 		.4byte	0x2449
 7695 2442 27       		.uleb128 0x27
 7696 2443 01       		.uleb128 0x1
 7697 2444 50       		.byte	0x50
 7698 2445 02       		.uleb128 0x2
 7699 2446 75       		.byte	0x75
 7700 2447 00       		.sleb128 0
 7701 2448 00       		.byte	0
 7702 2449 26       		.uleb128 0x26
 7703 244a 78000000 		.4byte	.LVL321
 7704 244e 3F2C0000 		.4byte	0x2c3f
 7705 2452 5D240000 		.4byte	0x245d
 7706 2456 27       		.uleb128 0x27
 7707 2457 01       		.uleb128 0x1
 7708 2458 50       		.byte	0x50
 7709 2459 02       		.uleb128 0x2
 7710 245a 08       		.byte	0x8
 7711 245b 64       		.byte	0x64
 7712 245c 00       		.byte	0
 7713 245d 26       		.uleb128 0x26
 7714 245e 82000000 		.4byte	.LVL322
 7715 2462 502C0000 		.4byte	0x2c50
 7716 2466 71240000 		.4byte	0x2471
 7717 246a 27       		.uleb128 0x27
 7718 246b 01       		.uleb128 0x1
 7719 246c 50       		.byte	0x50
 7720 246d 02       		.uleb128 0x2
 7721 246e 75       		.byte	0x75
 7722 246f 00       		.sleb128 0
 7723 2470 00       		.byte	0
 7724 2471 29       		.uleb128 0x29
ARM GAS  C:\Users\Administrator\AppData\Local\Temp\ccNLOfxN.s 			page 177


 7725 2472 8C000000 		.4byte	.LVL323
 7726 2476 5B2E0000 		.4byte	0x2e5b
 7727 247a 29       		.uleb128 0x29
 7728 247b 90000000 		.4byte	.LVL324
 7729 247f 6C2E0000 		.4byte	0x2e6c
 7730 2483 29       		.uleb128 0x29
 7731 2484 9A000000 		.4byte	.LVL325
 7732 2488 732E0000 		.4byte	0x2e73
 7733 248c 29       		.uleb128 0x29
 7734 248d A2000000 		.4byte	.LVL326
 7735 2491 7B2E0000 		.4byte	0x2e7b
 7736 2495 29       		.uleb128 0x29
 7737 2496 A6000000 		.4byte	.LVL327
 7738 249a 8D2E0000 		.4byte	0x2e8d
 7739 249e 26       		.uleb128 0x26
 7740 249f AE000000 		.4byte	.LVL328
 7741 24a3 31220000 		.4byte	0x2231
 7742 24a7 B8240000 		.4byte	0x24b8
 7743 24ab 27       		.uleb128 0x27
 7744 24ac 01       		.uleb128 0x1
 7745 24ad 51       		.byte	0x51
 7746 24ae 02       		.uleb128 0x2
 7747 24af 91       		.byte	0x91
 7748 24b0 64       		.sleb128 -28
 7749 24b1 27       		.uleb128 0x27
 7750 24b2 01       		.uleb128 0x1
 7751 24b3 50       		.byte	0x50
 7752 24b4 02       		.uleb128 0x2
 7753 24b5 91       		.byte	0x91
 7754 24b6 5C       		.sleb128 -36
 7755 24b7 00       		.byte	0
 7756 24b8 26       		.uleb128 0x26
 7757 24b9 B6000000 		.4byte	.LVL329
 7758 24bd 95210000 		.4byte	0x2195
 7759 24c1 D2240000 		.4byte	0x24d2
 7760 24c5 27       		.uleb128 0x27
 7761 24c6 01       		.uleb128 0x1
 7762 24c7 51       		.byte	0x51
 7763 24c8 02       		.uleb128 0x2
 7764 24c9 91       		.byte	0x91
 7765 24ca 64       		.sleb128 -28
 7766 24cb 27       		.uleb128 0x27
 7767 24cc 01       		.uleb128 0x1
 7768 24cd 50       		.byte	0x50
 7769 24ce 02       		.uleb128 0x2
 7770 24cf 91       		.byte	0x91
 7771 24d0 5C       		.sleb128 -36
 7772 24d1 00       		.byte	0
 7773 24d2 26       		.uleb128 0x26
 7774 24d3 BC000000 		.4byte	.LVL330
 7775 24d7 942E0000 		.4byte	0x2e94
 7776 24db E9240000 		.4byte	0x24e9
 7777 24df 27       		.uleb128 0x27
 7778 24e0 01       		.uleb128 0x1
 7779 24e1 50       		.byte	0x50
 7780 24e2 05       		.uleb128 0x5
 7781 24e3 03       		.byte	0x3
ARM GAS  C:\Users\Administrator\AppData\Local\Temp\ccNLOfxN.s 			page 178


 7782 24e4 00000000 		.4byte	AppCallback
 7783 24e8 00       		.byte	0
 7784 24e9 29       		.uleb128 0x29
 7785 24ea C0000000 		.4byte	.LVL331
 7786 24ee 23190000 		.4byte	0x1923
 7787 24f2 29       		.uleb128 0x29
 7788 24f3 C4000000 		.4byte	.LVL332
 7789 24f7 AA2E0000 		.4byte	0x2eaa
 7790 24fb 29       		.uleb128 0x29
 7791 24fc CC000000 		.4byte	.LVL333
 7792 2500 B52E0000 		.4byte	0x2eb5
 7793 2504 29       		.uleb128 0x29
 7794 2505 D0000000 		.4byte	.LVL334
 7795 2509 C02E0000 		.4byte	0x2ec0
 7796 250d 29       		.uleb128 0x29
 7797 250e D8000000 		.4byte	.LVL335
 7798 2512 E32C0000 		.4byte	0x2ce3
 7799 2516 29       		.uleb128 0x29
 7800 2517 DE000000 		.4byte	.LVL337
 7801 251b CB2E0000 		.4byte	0x2ecb
 7802 251f 29       		.uleb128 0x29
 7803 2520 E2000000 		.4byte	.LVL338
 7804 2524 D0100000 		.4byte	0x10d0
 7805 2528 29       		.uleb128 0x29
 7806 2529 E6000000 		.4byte	.LVL339
 7807 252d 6A1A0000 		.4byte	0x1a6a
 7808 2531 29       		.uleb128 0x29
 7809 2532 EA000000 		.4byte	.LVL340
 7810 2536 BE140000 		.4byte	0x14be
 7811 253a 29       		.uleb128 0x29
 7812 253b EE000000 		.4byte	.LVL341
 7813 253f 9E1D0000 		.4byte	0x1d9e
 7814 2543 29       		.uleb128 0x29
 7815 2544 F2000000 		.4byte	.LVL342
 7816 2548 F91E0000 		.4byte	0x1ef9
 7817 254c 29       		.uleb128 0x29
 7818 254d F6000000 		.4byte	.LVL343
 7819 2551 95100000 		.4byte	0x1095
 7820 2555 29       		.uleb128 0x29
 7821 2556 FC000000 		.4byte	.LVL344
 7822 255a 22130000 		.4byte	0x1322
 7823 255e 00       		.byte	0
 7824 255f 0C       		.uleb128 0xc
 7825 2560 AD000000 		.4byte	0xad
 7826 2564 6F250000 		.4byte	0x256f
 7827 2568 0D       		.uleb128 0xd
 7828 2569 1B010000 		.4byte	0x11b
 7829 256d 09       		.byte	0x9
 7830 256e 00       		.byte	0
 7831 256f 3C       		.uleb128 0x3c
 7832 2570 26080000 		.4byte	.LASF559
 7833 2574 08       		.byte	0x8
 7834 2575 0C       		.byte	0xc
 7835 2576 AD000000 		.4byte	0xad
 7836 257a 05       		.uleb128 0x5
 7837 257b 03       		.byte	0x3
 7838 257c 00000000 		.4byte	system_version
ARM GAS  C:\Users\Administrator\AppData\Local\Temp\ccNLOfxN.s 			page 179


 7839 2580 3C       		.uleb128 0x3c
 7840 2581 BE450000 		.4byte	.LASF560
 7841 2585 08       		.byte	0x8
 7842 2586 0E       		.byte	0xe
 7843 2587 AD000000 		.4byte	0xad
 7844 258b 05       		.uleb128 0x5
 7845 258c 03       		.byte	0x3
 7846 258d 00000000 		.4byte	LED_State
 7847 2591 3C       		.uleb128 0x3c
 7848 2592 7F310000 		.4byte	.LASF561
 7849 2596 08       		.byte	0x8
 7850 2597 0F       		.byte	0xf
 7851 2598 AD000000 		.4byte	0xad
 7852 259c 05       		.uleb128 0x5
 7853 259d 03       		.byte	0x3
 7854 259e 00000000 		.4byte	gprs_state
 7855 25a2 3C       		.uleb128 0x3c
 7856 25a3 13250000 		.4byte	.LASF562
 7857 25a7 08       		.byte	0x8
 7858 25a8 10       		.byte	0x10
 7859 25a9 AD000000 		.4byte	0xad
 7860 25ad 05       		.uleb128 0x5
 7861 25ae 03       		.byte	0x3
 7862 25af 00000000 		.4byte	EnterGuide_State
 7863 25b3 3C       		.uleb128 0x3c
 7864 25b4 69140000 		.4byte	.LASF563
 7865 25b8 08       		.byte	0x8
 7866 25b9 11       		.byte	0x11
 7867 25ba AD000000 		.4byte	0xad
 7868 25be 05       		.uleb128 0x5
 7869 25bf 03       		.byte	0x3
 7870 25c0 00000000 		.4byte	SendMacFlag
 7871 25c4 0C       		.uleb128 0xc
 7872 25c5 AD000000 		.4byte	0xad
 7873 25c9 D4250000 		.4byte	0x25d4
 7874 25cd 0D       		.uleb128 0xd
 7875 25ce 1B010000 		.4byte	0x11b
 7876 25d2 C7       		.byte	0xc7
 7877 25d3 00       		.byte	0
 7878 25d4 3C       		.uleb128 0x3c
 7879 25d5 890D0000 		.4byte	.LASF564
 7880 25d9 08       		.byte	0x8
 7881 25da 13       		.byte	0x13
 7882 25db C4250000 		.4byte	0x25c4
 7883 25df 05       		.uleb128 0x5
 7884 25e0 03       		.byte	0x3
 7885 25e1 00000000 		.4byte	domain
 7886 25e5 3C       		.uleb128 0x3c
 7887 25e6 D2420000 		.4byte	.LASF565
 7888 25ea 08       		.byte	0x8
 7889 25eb 14       		.byte	0x14
 7890 25ec C4250000 		.4byte	0x25c4
 7891 25f0 05       		.uleb128 0x5
 7892 25f1 03       		.byte	0x3
 7893 25f2 00000000 		.4byte	pre_ip
 7894 25f6 0C       		.uleb128 0xc
 7895 25f7 AD000000 		.4byte	0xad
ARM GAS  C:\Users\Administrator\AppData\Local\Temp\ccNLOfxN.s 			page 180


 7896 25fb 06260000 		.4byte	0x2606
 7897 25ff 0D       		.uleb128 0xd
 7898 2600 1B010000 		.4byte	0x11b
 7899 2604 04       		.byte	0x4
 7900 2605 00       		.byte	0
 7901 2606 3C       		.uleb128 0x3c
 7902 2607 F52D0000 		.4byte	.LASF566
 7903 260b 08       		.byte	0x8
 7904 260c 15       		.byte	0x15
 7905 260d F6250000 		.4byte	0x25f6
 7906 2611 05       		.uleb128 0x5
 7907 2612 03       		.byte	0x3
 7908 2613 00000000 		.4byte	pre_port
 7909 2617 0C       		.uleb128 0xc
 7910 2618 AD000000 		.4byte	0xad
 7911 261c 27260000 		.4byte	0x2627
 7912 2620 0D       		.uleb128 0xd
 7913 2621 1B010000 		.4byte	0x11b
 7914 2625 0F       		.byte	0xf
 7915 2626 00       		.byte	0
 7916 2627 3C       		.uleb128 0x3c
 7917 2628 F91B0000 		.4byte	.LASF567
 7918 262c 08       		.byte	0x8
 7919 262d 17       		.byte	0x17
 7920 262e 17260000 		.4byte	0x2617
 7921 2632 05       		.uleb128 0x5
 7922 2633 03       		.byte	0x3
 7923 2634 00000000 		.4byte	update_ip
 7924 2638 3C       		.uleb128 0x3c
 7925 2639 E9090000 		.4byte	.LASF568
 7926 263d 08       		.byte	0x8
 7927 263e 18       		.byte	0x18
 7928 263f F6250000 		.4byte	0x25f6
 7929 2643 05       		.uleb128 0x5
 7930 2644 03       		.byte	0x3
 7931 2645 00000000 		.4byte	update_port
 7932 2649 3C       		.uleb128 0x3c
 7933 264a 02260000 		.4byte	.LASF569
 7934 264e 08       		.byte	0x8
 7935 264f 19       		.byte	0x19
 7936 2650 B9000000 		.4byte	0xb9
 7937 2654 05       		.uleb128 0x5
 7938 2655 03       		.byte	0x3
 7939 2656 00000000 		.4byte	update_version
 7940 265a 3C       		.uleb128 0x3c
 7941 265b BE280000 		.4byte	.LASF570
 7942 265f 08       		.byte	0x8
 7943 2660 1A       		.byte	0x1a
 7944 2661 AD000000 		.4byte	0xad
 7945 2665 05       		.uleb128 0x5
 7946 2666 03       		.byte	0x3
 7947 2667 00000000 		.4byte	update_flag
 7948 266b 3C       		.uleb128 0x3c
 7949 266c 6E3A0000 		.4byte	.LASF571
 7950 2670 08       		.byte	0x8
 7951 2671 1B       		.byte	0x1b
 7952 2672 AD000000 		.4byte	0xad
ARM GAS  C:\Users\Administrator\AppData\Local\Temp\ccNLOfxN.s 			page 181


 7953 2676 05       		.uleb128 0x5
 7954 2677 03       		.byte	0x3
 7955 2678 00000000 		.4byte	update_report
 7956 267c 3C       		.uleb128 0x3c
 7957 267d 68400000 		.4byte	.LASF572
 7958 2681 08       		.byte	0x8
 7959 2682 1D       		.byte	0x1d
 7960 2683 B9000000 		.4byte	0xb9
 7961 2687 05       		.uleb128 0x5
 7962 2688 03       		.byte	0x3
 7963 2689 00000000 		.4byte	update_page
 7964 268d 3C       		.uleb128 0x3c
 7965 268e B33A0000 		.4byte	.LASF573
 7966 2692 08       		.byte	0x8
 7967 2693 23       		.byte	0x23
 7968 2694 C5000000 		.4byte	0xc5
 7969 2698 05       		.uleb128 0x5
 7970 2699 03       		.byte	0x3
 7971 269a 00000000 		.4byte	update_offset
 7972 269e 3C       		.uleb128 0x3c
 7973 269f F31F0000 		.4byte	.LASF574
 7974 26a3 08       		.byte	0x8
 7975 26a4 24       		.byte	0x24
 7976 26a5 C5000000 		.4byte	0xc5
 7977 26a9 05       		.uleb128 0x5
 7978 26aa 03       		.byte	0x3
 7979 26ab 00000000 		.4byte	Image_size
 7980 26af 3C       		.uleb128 0x3c
 7981 26b0 87160000 		.4byte	.LASF575
 7982 26b4 08       		.byte	0x8
 7983 26b5 26       		.byte	0x26
 7984 26b6 FE000000 		.4byte	0xfe
 7985 26ba 05       		.uleb128 0x5
 7986 26bb 03       		.byte	0x3
 7987 26bc 00000000 		.4byte	Read_Mac_Flag
 7988 26c0 3C       		.uleb128 0x3c
 7989 26c1 DE410000 		.4byte	.LASF576
 7990 26c5 08       		.byte	0x8
 7991 26c6 27       		.byte	0x27
 7992 26c7 D1260000 		.4byte	0x26d1
 7993 26cb 05       		.uleb128 0x5
 7994 26cc 03       		.byte	0x3
 7995 26cd 00000000 		.4byte	Mac_Addr
 7996 26d1 06       		.uleb128 0x6
 7997 26d2 62030000 		.4byte	0x362
 7998 26d6 3C       		.uleb128 0x3c
 7999 26d7 AE250000 		.4byte	.LASF577
 8000 26db 08       		.byte	0x8
 8001 26dc 29       		.byte	0x29
 8002 26dd 03010000 		.4byte	0x103
 8003 26e1 05       		.uleb128 0x5
 8004 26e2 03       		.byte	0x3
 8005 26e3 00000000 		.4byte	wait_timeout
 8006 26e7 3C       		.uleb128 0x3c
 8007 26e8 391E0000 		.4byte	.LASF578
 8008 26ec 08       		.byte	0x8
 8009 26ed 2A       		.byte	0x2a
ARM GAS  C:\Users\Administrator\AppData\Local\Temp\ccNLOfxN.s 			page 182


 8010 26ee 03010000 		.4byte	0x103
 8011 26f2 05       		.uleb128 0x5
 8012 26f3 03       		.byte	0x3
 8013 26f4 00000000 		.4byte	recv_timeout
 8014 26f8 0C       		.uleb128 0xc
 8015 26f9 F7000000 		.4byte	0xf7
 8016 26fd 08270000 		.4byte	0x2708
 8017 2701 0D       		.uleb128 0xd
 8018 2702 1B010000 		.4byte	0x11b
 8019 2706 3F       		.byte	0x3f
 8020 2707 00       		.byte	0
 8021 2708 3C       		.uleb128 0x3c
 8022 2709 221F0000 		.4byte	.LASF579
 8023 270d 08       		.byte	0x8
 8024 270e 2C       		.byte	0x2c
 8025 270f 19270000 		.4byte	0x2719
 8026 2713 05       		.uleb128 0x5
 8027 2714 03       		.byte	0x3
 8028 2715 00000000 		.4byte	GPRS_AT_Buf
 8029 2719 06       		.uleb128 0x6
 8030 271a F8260000 		.4byte	0x26f8
 8031 271e 3C       		.uleb128 0x3c
 8032 271f 12390000 		.4byte	.LASF580
 8033 2723 08       		.byte	0x8
 8034 2724 2D       		.byte	0x2d
 8035 2725 FE000000 		.4byte	0xfe
 8036 2729 05       		.uleb128 0x5
 8037 272a 03       		.byte	0x3
 8038 272b 00000000 		.4byte	GPRS_AT_RecFinish
 8039 272f 3C       		.uleb128 0x3c
 8040 2730 35010000 		.4byte	.LASF581
 8041 2734 08       		.byte	0x8
 8042 2735 2F       		.byte	0x2f
 8043 2736 FE000000 		.4byte	0xfe
 8044 273a 05       		.uleb128 0x5
 8045 273b 03       		.byte	0x3
 8046 273c 00000000 		.4byte	GPRSCmdParseFlag1
 8047 2740 3C       		.uleb128 0x3c
 8048 2741 8A230000 		.4byte	.LASF582
 8049 2745 08       		.byte	0x8
 8050 2746 30       		.byte	0x30
 8051 2747 FE000000 		.4byte	0xfe
 8052 274b 05       		.uleb128 0x5
 8053 274c 03       		.byte	0x3
 8054 274d 00000000 		.4byte	GPRSCmdParseFlag2
 8055 2751 0C       		.uleb128 0xc
 8056 2752 AD000000 		.4byte	0xad
 8057 2756 62270000 		.4byte	0x2762
 8058 275a 3D       		.uleb128 0x3d
 8059 275b 1B010000 		.4byte	0x11b
 8060 275f 1904     		.2byte	0x419
 8061 2761 00       		.byte	0
 8062 2762 3C       		.uleb128 0x3c
 8063 2763 54330000 		.4byte	.LASF583
 8064 2767 08       		.byte	0x8
 8065 2768 31       		.byte	0x31
 8066 2769 73270000 		.4byte	0x2773
ARM GAS  C:\Users\Administrator\AppData\Local\Temp\ccNLOfxN.s 			page 183


 8067 276d 05       		.uleb128 0x5
 8068 276e 03       		.byte	0x3
 8069 276f 00000000 		.4byte	GPRSCmd_buf1
 8070 2773 06       		.uleb128 0x6
 8071 2774 51270000 		.4byte	0x2751
 8072 2778 3C       		.uleb128 0x3c
 8073 2779 61330000 		.4byte	.LASF584
 8074 277d 08       		.byte	0x8
 8075 277e 32       		.byte	0x32
 8076 277f 89270000 		.4byte	0x2789
 8077 2783 05       		.uleb128 0x5
 8078 2784 03       		.byte	0x3
 8079 2785 00000000 		.4byte	GPRSCmd_buf2
 8080 2789 06       		.uleb128 0x6
 8081 278a 51270000 		.4byte	0x2751
 8082 278e 3C       		.uleb128 0x3c
 8083 278f FF340000 		.4byte	.LASF585
 8084 2793 09       		.byte	0x9
 8085 2794 1A       		.byte	0x1a
 8086 2795 B9000000 		.4byte	0xb9
 8087 2799 05       		.uleb128 0x5
 8088 279a 03       		.byte	0x3
 8089 279b 00000000 		.4byte	CurrentCommandPktTotalSize
 8090 279f 3C       		.uleb128 0x3c
 8091 27a0 C12E0000 		.4byte	.LASF586
 8092 27a4 09       		.byte	0x9
 8093 27a5 1B       		.byte	0x1b
 8094 27a6 AD000000 		.4byte	0xad
 8095 27aa 05       		.uleb128 0x5
 8096 27ab 03       		.byte	0x3
 8097 27ac 00000000 		.4byte	CurrentDataNum
 8098 27b0 3C       		.uleb128 0x3c
 8099 27b1 00020000 		.4byte	.LASF587
 8100 27b5 09       		.byte	0x9
 8101 27b6 1C       		.byte	0x1c
 8102 27b7 51270000 		.4byte	0x2751
 8103 27bb 05       		.uleb128 0x5
 8104 27bc 03       		.byte	0x3
 8105 27bd 00000000 		.4byte	BleCmdBuf
 8106 27c1 3C       		.uleb128 0x3c
 8107 27c2 941A0000 		.4byte	.LASF588
 8108 27c6 09       		.byte	0x9
 8109 27c7 1D       		.byte	0x1d
 8110 27c8 AD000000 		.4byte	0xad
 8111 27cc 05       		.uleb128 0x5
 8112 27cd 03       		.byte	0x3
 8113 27ce 00000000 		.4byte	BleCmdValidFlag
 8114 27d2 3C       		.uleb128 0x3c
 8115 27d3 AD390000 		.4byte	.LASF532
 8116 27d7 08       		.byte	0x8
 8117 27d8 39       		.byte	0x39
 8118 27d9 C5000000 		.4byte	0xc5
 8119 27dd 05       		.uleb128 0x5
 8120 27de 03       		.byte	0x3
 8121 27df 00000000 		.4byte	cur_time
 8122 27e3 3C       		.uleb128 0x3c
 8123 27e4 8A330000 		.4byte	.LASF589
ARM GAS  C:\Users\Administrator\AppData\Local\Temp\ccNLOfxN.s 			page 184


 8124 27e8 08       		.byte	0x8
 8125 27e9 3A       		.byte	0x3a
 8126 27ea C5000000 		.4byte	0xc5
 8127 27ee 05       		.uleb128 0x5
 8128 27ef 03       		.byte	0x3
 8129 27f0 00000000 		.4byte	next_network_time
 8130 27f4 3C       		.uleb128 0x3c
 8131 27f5 6E340000 		.4byte	.LASF590
 8132 27f9 08       		.byte	0x8
 8133 27fa 3B       		.byte	0x3b
 8134 27fb C5000000 		.4byte	0xc5
 8135 27ff 05       		.uleb128 0x5
 8136 2800 03       		.byte	0x3
 8137 2801 00000000 		.4byte	next_heartbeat_time
 8138 2805 3C       		.uleb128 0x3c
 8139 2806 23380000 		.4byte	.LASF591
 8140 280a 08       		.byte	0x8
 8141 280b 3C       		.byte	0x3c
 8142 280c C5000000 		.4byte	0xc5
 8143 2810 05       		.uleb128 0x5
 8144 2811 03       		.byte	0x3
 8145 2812 00000000 		.4byte	next_gprs_operation_time
 8146 2816 3C       		.uleb128 0x3c
 8147 2817 BD060000 		.4byte	.LASF592
 8148 281b 08       		.byte	0x8
 8149 281c 3D       		.byte	0x3d
 8150 281d C5000000 		.4byte	0xc5
 8151 2821 05       		.uleb128 0x5
 8152 2822 03       		.byte	0x3
 8153 2823 00000000 		.4byte	next_gprs_upload_time
 8154 2827 3C       		.uleb128 0x3c
 8155 2828 FE050000 		.4byte	.LASF593
 8156 282c 08       		.byte	0x8
 8157 282d 3E       		.byte	0x3e
 8158 282e C5000000 		.4byte	0xc5
 8159 2832 05       		.uleb128 0x5
 8160 2833 03       		.byte	0x3
 8161 2834 00000000 		.4byte	next_allupload_time
 8162 2838 3C       		.uleb128 0x3c
 8163 2839 5C060000 		.4byte	.LASF594
 8164 283d 08       		.byte	0x8
 8165 283e 3F       		.byte	0x3f
 8166 283f C5000000 		.4byte	0xc5
 8167 2843 05       		.uleb128 0x5
 8168 2844 03       		.byte	0x3
 8169 2845 00000000 		.4byte	next_keyopen_time
 8170 2849 3C       		.uleb128 0x3c
 8171 284a 632F0000 		.4byte	.LASF595
 8172 284e 08       		.byte	0x8
 8173 284f 40       		.byte	0x40
 8174 2850 B9000000 		.4byte	0xb9
 8175 2854 05       		.uleb128 0x5
 8176 2855 03       		.byte	0x3
 8177 2856 00000000 		.4byte	openinfopage_offset
 8178 285a 3C       		.uleb128 0x3c
 8179 285b 5D420000 		.4byte	.LASF596
 8180 285f 08       		.byte	0x8
ARM GAS  C:\Users\Administrator\AppData\Local\Temp\ccNLOfxN.s 			page 185


 8181 2860 41       		.byte	0x41
 8182 2861 AD000000 		.4byte	0xad
 8183 2865 05       		.uleb128 0x5
 8184 2866 03       		.byte	0x3
 8185 2867 00000000 		.4byte	uploadpolling_stop
 8186 286b 3C       		.uleb128 0x3c
 8187 286c 19340000 		.4byte	.LASF597
 8188 2870 08       		.byte	0x8
 8189 2871 43       		.byte	0x43
 8190 2872 AD000000 		.4byte	0xad
 8191 2876 05       		.uleb128 0x5
 8192 2877 03       		.byte	0x3
 8193 2878 00000000 		.4byte	uploadflag_cnt
 8194 287c 3C       		.uleb128 0x3c
 8195 287d 9B380000 		.4byte	.LASF598
 8196 2881 08       		.byte	0x8
 8197 2882 44       		.byte	0x44
 8198 2883 B9000000 		.4byte	0xb9
 8199 2887 05       		.uleb128 0x5
 8200 2888 03       		.byte	0x3
 8201 2889 00000000 		.4byte	last_index
 8202 288d 3C       		.uleb128 0x3c
 8203 288e 731C0000 		.4byte	.LASF599
 8204 2892 08       		.byte	0x8
 8205 2893 45       		.byte	0x45
 8206 2894 AD000000 		.4byte	0xad
 8207 2898 05       		.uleb128 0x5
 8208 2899 03       		.byte	0x3
 8209 289a 00000000 		.4byte	update_timeout_count
 8210 289e 3C       		.uleb128 0x3c
 8211 289f 7C3A0000 		.4byte	.LASF600
 8212 28a3 08       		.byte	0x8
 8213 28a4 46       		.byte	0x46
 8214 28a5 03010000 		.4byte	0x103
 8215 28a9 05       		.uleb128 0x5
 8216 28aa 03       		.byte	0x3
 8217 28ab 00000000 		.4byte	update_timeout_time
 8218 28af 3C       		.uleb128 0x3c
 8219 28b0 DA450000 		.4byte	.LASF601
 8220 28b4 08       		.byte	0x8
 8221 28b5 48       		.byte	0x48
 8222 28b6 AD000000 		.4byte	0xad
 8223 28ba 05       		.uleb128 0x5
 8224 28bb 03       		.byte	0x3
 8225 28bc 00000000 		.4byte	gprs_operation_ErrCount
 8226 28c0 3C       		.uleb128 0x3c
 8227 28c1 FE2D0000 		.4byte	.LASF602
 8228 28c5 08       		.byte	0x8
 8229 28c6 49       		.byte	0x49
 8230 28c7 AD000000 		.4byte	0xad
 8231 28cb 05       		.uleb128 0x5
 8232 28cc 03       		.byte	0x3
 8233 28cd 00000000 		.4byte	heartbeat_SendCount
 8234 28d1 3C       		.uleb128 0x3c
 8235 28d2 B3150000 		.4byte	.LASF603
 8236 28d6 08       		.byte	0x8
 8237 28d7 4A       		.byte	0x4a
ARM GAS  C:\Users\Administrator\AppData\Local\Temp\ccNLOfxN.s 			page 186


 8238 28d8 03010000 		.4byte	0x103
 8239 28dc 05       		.uleb128 0x5
 8240 28dd 03       		.byte	0x3
 8241 28de 00000000 		.4byte	heartbeat_lasttime
 8242 28e2 3C       		.uleb128 0x3c
 8243 28e3 49100000 		.4byte	.LASF604
 8244 28e7 08       		.byte	0x8
 8245 28e8 4B       		.byte	0x4b
 8246 28e9 03010000 		.4byte	0x103
 8247 28ed 05       		.uleb128 0x5
 8248 28ee 03       		.byte	0x3
 8249 28ef 00000000 		.4byte	CardCheck_CountTime
 8250 28f3 3C       		.uleb128 0x3c
 8251 28f4 A5340000 		.4byte	.LASF605
 8252 28f8 08       		.byte	0x8
 8253 28f9 4D       		.byte	0x4d
 8254 28fa AD000000 		.4byte	0xad
 8255 28fe 05       		.uleb128 0x5
 8256 28ff 03       		.byte	0x3
 8257 2900 00000000 		.4byte	Card_ErrCount
 8258 2904 3C       		.uleb128 0x3c
 8259 2905 00000000 		.4byte	.LASF606
 8260 2909 08       		.byte	0x8
 8261 290a 4E       		.byte	0x4e
 8262 290b AD000000 		.4byte	0xad
 8263 290f 05       		.uleb128 0x5
 8264 2910 03       		.byte	0x3
 8265 2911 00000000 		.4byte	flag_reboot
 8266 2915 3C       		.uleb128 0x3c
 8267 2916 FD270000 		.4byte	.LASF607
 8268 291a 08       		.byte	0x8
 8269 291b 4F       		.byte	0x4f
 8270 291c AD000000 		.4byte	0xad
 8271 2920 05       		.uleb128 0x5
 8272 2921 03       		.byte	0x3
 8273 2922 00000000 		.4byte	stop_reboot
 8274 2926 3C       		.uleb128 0x3c
 8275 2927 5B310000 		.4byte	.LASF608
 8276 292b 08       		.byte	0x8
 8277 292c 51       		.byte	0x51
 8278 292d AD000000 		.4byte	0xad
 8279 2931 05       		.uleb128 0x5
 8280 2932 03       		.byte	0x3
 8281 2933 00000000 		.4byte	reboot_count
 8282 2937 3C       		.uleb128 0x3c
 8283 2938 083D0000 		.4byte	.LASF609
 8284 293c 08       		.byte	0x8
 8285 293d 53       		.byte	0x53
 8286 293e C5000000 		.4byte	0xc5
 8287 2942 05       		.uleb128 0x5
 8288 2943 03       		.byte	0x3
 8289 2944 00000000 		.4byte	mem_var
 8290 2948 3C       		.uleb128 0x3c
 8291 2949 261A0000 		.4byte	.LASF610
 8292 294d 08       		.byte	0x8
 8293 294e 55       		.byte	0x55
 8294 294f AD000000 		.4byte	0xad
ARM GAS  C:\Users\Administrator\AppData\Local\Temp\ccNLOfxN.s 			page 187


 8295 2953 05       		.uleb128 0x5
 8296 2954 03       		.byte	0x3
 8297 2955 00000000 		.4byte	next_defend_flag
 8298 2959 3C       		.uleb128 0x3c
 8299 295a 4C290000 		.4byte	.LASF611
 8300 295e 0A       		.byte	0xa
 8301 295f 0A       		.byte	0xa
 8302 2960 8C000000 		.4byte	0x8c
 8303 2964 05       		.uleb128 0x5
 8304 2965 03       		.byte	0x3
 8305 2966 00000000 		.4byte	ADCResultCenter
 8306 296a 3E       		.uleb128 0x3e
 8307 296b E7360000 		.4byte	.LASF612
 8308 296f 07       		.byte	0x7
 8309 2970 640D     		.2byte	0xd64
 8310 2972 D8050000 		.4byte	0x5d8
 8311 2976 3E       		.uleb128 0x3e
 8312 2977 9E0C0000 		.4byte	.LASF613
 8313 297b 07       		.byte	0x7
 8314 297c BF0D     		.2byte	0xdbf
 8315 297e 72030000 		.4byte	0x372
 8316 2982 3E       		.uleb128 0x3e
 8317 2983 33410000 		.4byte	.LASF614
 8318 2987 07       		.byte	0x7
 8319 2988 C40D     		.2byte	0xdc4
 8320 298a 5E070000 		.4byte	0x75e
 8321 298e 3E       		.uleb128 0x3e
 8322 298f 14240000 		.4byte	.LASF615
 8323 2993 07       		.byte	0x7
 8324 2994 C30D     		.2byte	0xdc3
 8325 2996 10080000 		.4byte	0x810
 8326 299a 3E       		.uleb128 0x3e
 8327 299b 302C0000 		.4byte	.LASF616
 8328 299f 07       		.byte	0x7
 8329 29a0 C50D     		.2byte	0xdc5
 8330 29a2 40080000 		.4byte	0x840
 8331 29a6 0C       		.uleb128 0xc
 8332 29a7 8C000000 		.4byte	0x8c
 8333 29ab B6290000 		.4byte	0x29b6
 8334 29af 0D       		.uleb128 0xd
 8335 29b0 1B010000 		.4byte	0x11b
 8336 29b4 01       		.byte	0x1
 8337 29b5 00       		.byte	0
 8338 29b6 3C       		.uleb128 0x3c
 8339 29b7 D31D0000 		.4byte	.LASF617
 8340 29bb 0B       		.byte	0xb
 8341 29bc 06       		.byte	0x6
 8342 29bd A6290000 		.4byte	0x29a6
 8343 29c1 05       		.uleb128 0x5
 8344 29c2 03       		.byte	0x3
 8345 29c3 00000000 		.4byte	picc_atqa
 8346 29c7 0C       		.uleb128 0xc
 8347 29c8 8C000000 		.4byte	0x8c
 8348 29cc D7290000 		.4byte	0x29d7
 8349 29d0 0D       		.uleb128 0xd
 8350 29d1 1B010000 		.4byte	0x11b
 8351 29d5 0E       		.byte	0xe
ARM GAS  C:\Users\Administrator\AppData\Local\Temp\ccNLOfxN.s 			page 188


 8352 29d6 00       		.byte	0
 8353 29d7 3C       		.uleb128 0x3c
 8354 29d8 2F0D0000 		.4byte	.LASF618
 8355 29dc 0B       		.byte	0xb
 8356 29dd 06       		.byte	0x6
 8357 29de C7290000 		.4byte	0x29c7
 8358 29e2 05       		.uleb128 0x5
 8359 29e3 03       		.byte	0x3
 8360 29e4 00000000 		.4byte	picc_uid
 8361 29e8 0C       		.uleb128 0xc
 8362 29e9 8C000000 		.4byte	0x8c
 8363 29ed F8290000 		.4byte	0x29f8
 8364 29f1 0D       		.uleb128 0xd
 8365 29f2 1B010000 		.4byte	0x11b
 8366 29f6 02       		.byte	0x2
 8367 29f7 00       		.byte	0
 8368 29f8 3C       		.uleb128 0x3c
 8369 29f9 F5190000 		.4byte	.LASF619
 8370 29fd 0B       		.byte	0xb
 8371 29fe 06       		.byte	0x6
 8372 29ff E8290000 		.4byte	0x29e8
 8373 2a03 05       		.uleb128 0x5
 8374 2a04 03       		.byte	0x3
 8375 2a05 00000000 		.4byte	picc_sak
 8376 2a09 3F       		.uleb128 0x3f
 8377 2a0a 5B0A0000 		.4byte	.LASF620
 8378 2a0e 07       		.byte	0x7
 8379 2a0f 810D     		.2byte	0xd81
 8380 2a11 36030000 		.4byte	0x336
 8381 2a15 1F2A0000 		.4byte	0x2a1f
 8382 2a19 16       		.uleb128 0x16
 8383 2a1a 1F2A0000 		.4byte	0x2a1f
 8384 2a1e 00       		.byte	0
 8385 2a1f 07       		.uleb128 0x7
 8386 2a20 04       		.byte	0x4
 8387 2a21 DE080000 		.4byte	0x8de
 8388 2a25 3F       		.uleb128 0x3f
 8389 2a26 440A0000 		.4byte	.LASF621
 8390 2a2a 07       		.byte	0x7
 8391 2a2b 630D     		.2byte	0xd63
 8392 2a2d 36030000 		.4byte	0x336
 8393 2a31 3B2A0000 		.4byte	0x2a3b
 8394 2a35 16       		.uleb128 0x16
 8395 2a36 3B2A0000 		.4byte	0x2a3b
 8396 2a3a 00       		.byte	0
 8397 2a3b 07       		.uleb128 0x7
 8398 2a3c 04       		.byte	0x4
 8399 2a3d 72030000 		.4byte	0x372
 8400 2a41 40       		.uleb128 0x40
 8401 2a42 B9140000 		.4byte	.LASF622
 8402 2a46 09       		.byte	0x9
 8403 2a47 23       		.byte	0x23
 8404 2a48 AD000000 		.4byte	0xad
 8405 2a4c 5B2A0000 		.4byte	0x2a5b
 8406 2a50 16       		.uleb128 0x16
 8407 2a51 24010000 		.4byte	0x124
 8408 2a55 16       		.uleb128 0x16
ARM GAS  C:\Users\Administrator\AppData\Local\Temp\ccNLOfxN.s 			page 189


 8409 2a56 B9000000 		.4byte	0xb9
 8410 2a5a 00       		.byte	0
 8411 2a5b 3F       		.uleb128 0x3f
 8412 2a5c 44120000 		.4byte	.LASF623
 8413 2a60 07       		.byte	0x7
 8414 2a61 620D     		.2byte	0xd62
 8415 2a63 36030000 		.4byte	0x336
 8416 2a67 712A0000 		.4byte	0x2a71
 8417 2a6b 16       		.uleb128 0x16
 8418 2a6c AD000000 		.4byte	0xad
 8419 2a70 00       		.byte	0
 8420 2a71 3F       		.uleb128 0x3f
 8421 2a72 9D090000 		.4byte	.LASF624
 8422 2a76 07       		.byte	0x7
 8423 2a77 870D     		.2byte	0xd87
 8424 2a79 36030000 		.4byte	0x336
 8425 2a7d 872A0000 		.4byte	0x2a87
 8426 2a81 16       		.uleb128 0x16
 8427 2a82 08060000 		.4byte	0x608
 8428 2a86 00       		.byte	0
 8429 2a87 3F       		.uleb128 0x3f
 8430 2a88 21330000 		.4byte	.LASF625
 8431 2a8c 07       		.byte	0x7
 8432 2a8d 660D     		.2byte	0xd66
 8433 2a8f B5060000 		.4byte	0x6b5
 8434 2a93 9D2A0000 		.4byte	0x2a9d
 8435 2a97 16       		.uleb128 0x16
 8436 2a98 B5060000 		.4byte	0x6b5
 8437 2a9c 00       		.byte	0
 8438 2a9d 41       		.uleb128 0x41
 8439 2a9e BA2D0000 		.4byte	.LASF626
 8440 2aa2 0C       		.byte	0xc
 8441 2aa3 E5       		.byte	0xe5
 8442 2aa4 AD000000 		.4byte	0xad
 8443 2aa8 42       		.uleb128 0x42
 8444 2aa9 AC240000 		.4byte	.LASF627
 8445 2aad 07       		.byte	0x7
 8446 2aae 670D     		.2byte	0xd67
 8447 2ab0 FC060000 		.4byte	0x6fc
 8448 2ab4 43       		.uleb128 0x43
 8449 2ab5 59380000 		.4byte	.LASF628
 8450 2ab9 0D       		.byte	0xd
 8451 2aba 57       		.byte	0x57
 8452 2abb 43       		.uleb128 0x43
 8453 2abc 220D0000 		.4byte	.LASF629
 8454 2ac0 0D       		.byte	0xd
 8455 2ac1 56       		.byte	0x56
 8456 2ac2 44       		.uleb128 0x44
 8457 2ac3 10430000 		.4byte	.LASF630
 8458 2ac7 0C       		.byte	0xc
 8459 2ac8 E6       		.byte	0xe6
 8460 2ac9 D32A0000 		.4byte	0x2ad3
 8461 2acd 16       		.uleb128 0x16
 8462 2ace AD000000 		.4byte	0xad
 8463 2ad2 00       		.byte	0
 8464 2ad3 44       		.uleb128 0x44
 8465 2ad4 FB220000 		.4byte	.LASF631
ARM GAS  C:\Users\Administrator\AppData\Local\Temp\ccNLOfxN.s 			page 190


 8466 2ad8 0E       		.byte	0xe
 8467 2ad9 33       		.byte	0x33
 8468 2ada E42A0000 		.4byte	0x2ae4
 8469 2ade 16       		.uleb128 0x16
 8470 2adf AD000000 		.4byte	0xad
 8471 2ae3 00       		.byte	0
 8472 2ae4 44       		.uleb128 0x44
 8473 2ae5 BF330000 		.4byte	.LASF632
 8474 2ae9 0F       		.byte	0xf
 8475 2aea 33       		.byte	0x33
 8476 2aeb F52A0000 		.4byte	0x2af5
 8477 2aef 16       		.uleb128 0x16
 8478 2af0 AD000000 		.4byte	0xad
 8479 2af4 00       		.byte	0
 8480 2af5 44       		.uleb128 0x44
 8481 2af6 2E1F0000 		.4byte	.LASF633
 8482 2afa 10       		.byte	0x10
 8483 2afb 33       		.byte	0x33
 8484 2afc 062B0000 		.4byte	0x2b06
 8485 2b00 16       		.uleb128 0x16
 8486 2b01 AD000000 		.4byte	0xad
 8487 2b05 00       		.byte	0
 8488 2b06 44       		.uleb128 0x44
 8489 2b07 BC000000 		.4byte	.LASF634
 8490 2b0b 11       		.byte	0x11
 8491 2b0c 33       		.byte	0x33
 8492 2b0d 172B0000 		.4byte	0x2b17
 8493 2b11 16       		.uleb128 0x16
 8494 2b12 AD000000 		.4byte	0xad
 8495 2b16 00       		.byte	0
 8496 2b17 43       		.uleb128 0x43
 8497 2b18 F6020000 		.4byte	.LASF635
 8498 2b1c 0C       		.byte	0xc
 8499 2b1d E4       		.byte	0xe4
 8500 2b1e 44       		.uleb128 0x44
 8501 2b1f D52B0000 		.4byte	.LASF636
 8502 2b23 12       		.byte	0x12
 8503 2b24 53       		.byte	0x53
 8504 2b25 392B0000 		.4byte	0x2b39
 8505 2b29 16       		.uleb128 0x16
 8506 2b2a 392B0000 		.4byte	0x2b39
 8507 2b2e 16       		.uleb128 0x16
 8508 2b2f A2000000 		.4byte	0xa2
 8509 2b33 16       		.uleb128 0x16
 8510 2b34 97000000 		.4byte	0x97
 8511 2b38 00       		.byte	0
 8512 2b39 07       		.uleb128 0x7
 8513 2b3a 04       		.byte	0x4
 8514 2b3b 8C000000 		.4byte	0x8c
 8515 2b3f 40       		.uleb128 0x40
 8516 2b40 162B0000 		.4byte	.LASF637
 8517 2b44 13       		.byte	0x13
 8518 2b45 7D       		.byte	0x7d
 8519 2b46 8C000000 		.4byte	0x8c
 8520 2b4a 542B0000 		.4byte	0x2b54
 8521 2b4e 16       		.uleb128 0x16
 8522 2b4f 8C000000 		.4byte	0x8c
ARM GAS  C:\Users\Administrator\AppData\Local\Temp\ccNLOfxN.s 			page 191


 8523 2b53 00       		.byte	0
 8524 2b54 44       		.uleb128 0x44
 8525 2b55 4C3F0000 		.4byte	.LASF638
 8526 2b59 06       		.byte	0x6
 8527 2b5a 7A       		.byte	0x7a
 8528 2b5b 6A2B0000 		.4byte	0x2b6a
 8529 2b5f 16       		.uleb128 0x16
 8530 2b60 AD000000 		.4byte	0xad
 8531 2b64 16       		.uleb128 0x16
 8532 2b65 B9000000 		.4byte	0xb9
 8533 2b69 00       		.byte	0
 8534 2b6a 40       		.uleb128 0x40
 8535 2b6b 6A380000 		.4byte	.LASF639
 8536 2b6f 14       		.byte	0x14
 8537 2b70 21       		.byte	0x21
 8538 2b71 7E000000 		.4byte	0x7e
 8539 2b75 7F2B0000 		.4byte	0x2b7f
 8540 2b79 16       		.uleb128 0x16
 8541 2b7a 24010000 		.4byte	0x124
 8542 2b7e 00       		.byte	0
 8543 2b7f 42       		.uleb128 0x42
 8544 2b80 25350000 		.4byte	.LASF640
 8545 2b84 15       		.byte	0x15
 8546 2b85 5201     		.2byte	0x152
 8547 2b87 DF000000 		.4byte	0xdf
 8548 2b8b 40       		.uleb128 0x40
 8549 2b8c 8B140000 		.4byte	.LASF641
 8550 2b90 06       		.byte	0x6
 8551 2b91 60       		.byte	0x60
 8552 2b92 AD000000 		.4byte	0xad
 8553 2b96 A02B0000 		.4byte	0x2ba0
 8554 2b9a 16       		.uleb128 0x16
 8555 2b9b A02B0000 		.4byte	0x2ba0
 8556 2b9f 00       		.byte	0
 8557 2ba0 07       		.uleb128 0x7
 8558 2ba1 04       		.byte	0x4
 8559 2ba2 7A010000 		.4byte	0x17a
 8560 2ba6 40       		.uleb128 0x40
 8561 2ba7 29240000 		.4byte	.LASF642
 8562 2bab 16       		.byte	0x16
 8563 2bac 76       		.byte	0x76
 8564 2bad 8C000000 		.4byte	0x8c
 8565 2bb1 C02B0000 		.4byte	0x2bc0
 8566 2bb5 16       		.uleb128 0x16
 8567 2bb6 392B0000 		.4byte	0x2b39
 8568 2bba 16       		.uleb128 0x16
 8569 2bbb B9000000 		.4byte	0xb9
 8570 2bbf 00       		.byte	0
 8571 2bc0 44       		.uleb128 0x44
 8572 2bc1 0A210000 		.4byte	.LASF643
 8573 2bc5 17       		.byte	0x17
 8574 2bc6 28       		.byte	0x28
 8575 2bc7 D12B0000 		.4byte	0x2bd1
 8576 2bcb 16       		.uleb128 0x16
 8577 2bcc 2A010000 		.4byte	0x12a
 8578 2bd0 00       		.byte	0
 8579 2bd1 45       		.uleb128 0x45
ARM GAS  C:\Users\Administrator\AppData\Local\Temp\ccNLOfxN.s 			page 192


 8580 2bd2 B3340000 		.4byte	.LASF644
 8581 2bd6 22010000 		.4byte	0x122
 8582 2bda EE2B0000 		.4byte	0x2bee
 8583 2bde 16       		.uleb128 0x16
 8584 2bdf 22010000 		.4byte	0x122
 8585 2be3 16       		.uleb128 0x16
 8586 2be4 7E000000 		.4byte	0x7e
 8587 2be8 16       		.uleb128 0x16
 8588 2be9 1B010000 		.4byte	0x11b
 8589 2bed 00       		.byte	0
 8590 2bee 44       		.uleb128 0x44
 8591 2bef 3D320000 		.4byte	.LASF645
 8592 2bf3 06       		.byte	0x6
 8593 2bf4 69       		.byte	0x69
 8594 2bf5 042C0000 		.4byte	0x2c04
 8595 2bf9 16       		.uleb128 0x16
 8596 2bfa 042C0000 		.4byte	0x2c04
 8597 2bfe 16       		.uleb128 0x16
 8598 2bff 8C000000 		.4byte	0x8c
 8599 2c03 00       		.byte	0
 8600 2c04 07       		.uleb128 0x7
 8601 2c05 04       		.byte	0x4
 8602 2c06 B6010000 		.4byte	0x1b6
 8603 2c0a 40       		.uleb128 0x40
 8604 2c0b 3F440000 		.4byte	.LASF646
 8605 2c0f 13       		.byte	0x13
 8606 2c10 7A       		.byte	0x7a
 8607 2c11 8C000000 		.4byte	0x8c
 8608 2c15 292C0000 		.4byte	0x2c29
 8609 2c19 16       		.uleb128 0x16
 8610 2c1a 042C0000 		.4byte	0x2c04
 8611 2c1e 16       		.uleb128 0x16
 8612 2c1f 8C000000 		.4byte	0x8c
 8613 2c23 16       		.uleb128 0x16
 8614 2c24 8C000000 		.4byte	0x8c
 8615 2c28 00       		.byte	0
 8616 2c29 43       		.uleb128 0x43
 8617 2c2a EA0D0000 		.4byte	.LASF647
 8618 2c2e 18       		.byte	0x18
 8619 2c2f 18       		.byte	0x18
 8620 2c30 46       		.uleb128 0x46
 8621 2c31 D3360000 		.4byte	.LASF648
 8622 2c35 07       		.byte	0x7
 8623 2c36 680D     		.2byte	0xd68
 8624 2c38 43       		.uleb128 0x43
 8625 2c39 93130000 		.4byte	.LASF649
 8626 2c3d 13       		.byte	0x13
 8627 2c3e 81       		.byte	0x81
 8628 2c3f 44       		.uleb128 0x44
 8629 2c40 8A310000 		.4byte	.LASF650
 8630 2c44 0C       		.byte	0xc
 8631 2c45 D9       		.byte	0xd9
 8632 2c46 502C0000 		.4byte	0x2c50
 8633 2c4a 16       		.uleb128 0x16
 8634 2c4b C5000000 		.4byte	0xc5
 8635 2c4f 00       		.byte	0
 8636 2c50 44       		.uleb128 0x44
ARM GAS  C:\Users\Administrator\AppData\Local\Temp\ccNLOfxN.s 			page 193


 8637 2c51 C5430000 		.4byte	.LASF651
 8638 2c55 19       		.byte	0x19
 8639 2c56 33       		.byte	0x33
 8640 2c57 612C0000 		.4byte	0x2c61
 8641 2c5b 16       		.uleb128 0x16
 8642 2c5c AD000000 		.4byte	0xad
 8643 2c60 00       		.byte	0
 8644 2c61 41       		.uleb128 0x41
 8645 2c62 6C210000 		.4byte	.LASF652
 8646 2c66 1A       		.byte	0x1a
 8647 2c67 32       		.byte	0x32
 8648 2c68 AD000000 		.4byte	0xad
 8649 2c6c 41       		.uleb128 0x41
 8650 2c6d 6C1B0000 		.4byte	.LASF653
 8651 2c71 1B       		.byte	0x1b
 8652 2c72 3C       		.byte	0x3c
 8653 2c73 8C000000 		.4byte	0x8c
 8654 2c77 41       		.uleb128 0x41
 8655 2c78 49300000 		.4byte	.LASF654
 8656 2c7c 1B       		.byte	0x1b
 8657 2c7d 3D       		.byte	0x3d
 8658 2c7e 8C000000 		.4byte	0x8c
 8659 2c82 41       		.uleb128 0x41
 8660 2c83 59410000 		.4byte	.LASF655
 8661 2c87 1B       		.byte	0x1b
 8662 2c88 3E       		.byte	0x3e
 8663 2c89 8C000000 		.4byte	0x8c
 8664 2c8d 41       		.uleb128 0x41
 8665 2c8e AF300000 		.4byte	.LASF656
 8666 2c92 1B       		.byte	0x1b
 8667 2c93 3F       		.byte	0x3f
 8668 2c94 8C000000 		.4byte	0x8c
 8669 2c98 41       		.uleb128 0x41
 8670 2c99 3B460000 		.4byte	.LASF657
 8671 2c9d 1B       		.byte	0x1b
 8672 2c9e 41       		.byte	0x41
 8673 2c9f 8C000000 		.4byte	0x8c
 8674 2ca3 41       		.uleb128 0x41
 8675 2ca4 C7310000 		.4byte	.LASF658
 8676 2ca8 1B       		.byte	0x1b
 8677 2ca9 42       		.byte	0x42
 8678 2caa 8C000000 		.4byte	0x8c
 8679 2cae 44       		.uleb128 0x44
 8680 2caf 49110000 		.4byte	.LASF659
 8681 2cb3 1C       		.byte	0x1c
 8682 2cb4 18       		.byte	0x18
 8683 2cb5 BF2C0000 		.4byte	0x2cbf
 8684 2cb9 16       		.uleb128 0x16
 8685 2cba 08010000 		.4byte	0x108
 8686 2cbe 00       		.byte	0
 8687 2cbf 43       		.uleb128 0x43
 8688 2cc0 820F0000 		.4byte	.LASF660
 8689 2cc4 1D       		.byte	0x1d
 8690 2cc5 6E       		.byte	0x6e
 8691 2cc6 43       		.uleb128 0x43
 8692 2cc7 863C0000 		.4byte	.LASF661
 8693 2ccb 13       		.byte	0x13
ARM GAS  C:\Users\Administrator\AppData\Local\Temp\ccNLOfxN.s 			page 194


 8694 2ccc 80       		.byte	0x80
 8695 2ccd 41       		.uleb128 0x41
 8696 2cce E8370000 		.4byte	.LASF662
 8697 2cd2 1B       		.byte	0x1b
 8698 2cd3 47       		.byte	0x47
 8699 2cd4 8C000000 		.4byte	0x8c
 8700 2cd8 41       		.uleb128 0x41
 8701 2cd9 87280000 		.4byte	.LASF663
 8702 2cdd 13       		.byte	0x13
 8703 2cde 78       		.byte	0x78
 8704 2cdf 8C000000 		.4byte	0x8c
 8705 2ce3 41       		.uleb128 0x41
 8706 2ce4 D9420000 		.4byte	.LASF664
 8707 2ce8 1B       		.byte	0x1b
 8708 2ce9 44       		.byte	0x44
 8709 2cea 8C000000 		.4byte	0x8c
 8710 2cee 41       		.uleb128 0x41
 8711 2cef B4350000 		.4byte	.LASF665
 8712 2cf3 1B       		.byte	0x1b
 8713 2cf4 48       		.byte	0x48
 8714 2cf5 8C000000 		.4byte	0x8c
 8715 2cf9 41       		.uleb128 0x41
 8716 2cfa 76130000 		.4byte	.LASF666
 8717 2cfe 13       		.byte	0x13
 8718 2cff 79       		.byte	0x79
 8719 2d00 8C000000 		.4byte	0x8c
 8720 2d04 40       		.uleb128 0x40
 8721 2d05 51020000 		.4byte	.LASF667
 8722 2d09 13       		.byte	0x13
 8723 2d0a 7B       		.byte	0x7b
 8724 2d0b 8C000000 		.4byte	0x8c
 8725 2d0f 192D0000 		.4byte	0x2d19
 8726 2d13 16       		.uleb128 0x16
 8727 2d14 8C000000 		.4byte	0x8c
 8728 2d18 00       		.byte	0
 8729 2d19 43       		.uleb128 0x43
 8730 2d1a 74030000 		.4byte	.LASF668
 8731 2d1e 1B       		.byte	0x1b
 8732 2d1f 4B       		.byte	0x4b
 8733 2d20 41       		.uleb128 0x41
 8734 2d21 77220000 		.4byte	.LASF669
 8735 2d25 1B       		.byte	0x1b
 8736 2d26 49       		.byte	0x49
 8737 2d27 8C000000 		.4byte	0x8c
 8738 2d2b 43       		.uleb128 0x43
 8739 2d2c 1E420000 		.4byte	.LASF670
 8740 2d30 13       		.byte	0x13
 8741 2d31 77       		.byte	0x77
 8742 2d32 40       		.uleb128 0x40
 8743 2d33 64030000 		.4byte	.LASF671
 8744 2d37 13       		.byte	0x13
 8745 2d38 7E       		.byte	0x7e
 8746 2d39 8C000000 		.4byte	0x8c
 8747 2d3d 472D0000 		.4byte	0x2d47
 8748 2d41 16       		.uleb128 0x16
 8749 2d42 B9000000 		.4byte	0xb9
 8750 2d46 00       		.byte	0
ARM GAS  C:\Users\Administrator\AppData\Local\Temp\ccNLOfxN.s 			page 195


 8751 2d47 43       		.uleb128 0x43
 8752 2d48 47410000 		.4byte	.LASF672
 8753 2d4c 1E       		.byte	0x1e
 8754 2d4d 58       		.byte	0x58
 8755 2d4e 44       		.uleb128 0x44
 8756 2d4f 06050000 		.4byte	.LASF673
 8757 2d53 1F       		.byte	0x1f
 8758 2d54 33       		.byte	0x33
 8759 2d55 5F2D0000 		.4byte	0x2d5f
 8760 2d59 16       		.uleb128 0x16
 8761 2d5a AD000000 		.4byte	0xad
 8762 2d5e 00       		.byte	0
 8763 2d5f 45       		.uleb128 0x45
 8764 2d60 F83D0000 		.4byte	.LASF674
 8765 2d64 22010000 		.4byte	0x122
 8766 2d68 7C2D0000 		.4byte	0x2d7c
 8767 2d6c 16       		.uleb128 0x16
 8768 2d6d 22010000 		.4byte	0x122
 8769 2d71 16       		.uleb128 0x16
 8770 2d72 7C2D0000 		.4byte	0x2d7c
 8771 2d76 16       		.uleb128 0x16
 8772 2d77 1B010000 		.4byte	0x11b
 8773 2d7b 00       		.byte	0
 8774 2d7c 07       		.uleb128 0x7
 8775 2d7d 04       		.byte	0x4
 8776 2d7e 822D0000 		.4byte	0x2d82
 8777 2d82 47       		.uleb128 0x47
 8778 2d83 41       		.uleb128 0x41
 8779 2d84 1B160000 		.4byte	.LASF675
 8780 2d88 20       		.byte	0x20
 8781 2d89 32       		.byte	0x32
 8782 2d8a AD000000 		.4byte	0xad
 8783 2d8e 41       		.uleb128 0x41
 8784 2d8f 621A0000 		.4byte	.LASF676
 8785 2d93 21       		.byte	0x21
 8786 2d94 32       		.byte	0x32
 8787 2d95 AD000000 		.4byte	0xad
 8788 2d99 41       		.uleb128 0x41
 8789 2d9a E12A0000 		.4byte	.LASF677
 8790 2d9e 22       		.byte	0x22
 8791 2d9f 32       		.byte	0x32
 8792 2da0 AD000000 		.4byte	0xad
 8793 2da4 41       		.uleb128 0x41
 8794 2da5 55320000 		.4byte	.LASF678
 8795 2da9 06       		.byte	0x6
 8796 2daa 68       		.byte	0x68
 8797 2dab B9000000 		.4byte	0xb9
 8798 2daf 44       		.uleb128 0x44
 8799 2db0 190C0000 		.4byte	.LASF679
 8800 2db4 06       		.byte	0x6
 8801 2db5 63       		.byte	0x63
 8802 2db6 C52D0000 		.4byte	0x2dc5
 8803 2dba 16       		.uleb128 0x16
 8804 2dbb B9000000 		.4byte	0xb9
 8805 2dbf 16       		.uleb128 0x16
 8806 2dc0 AD000000 		.4byte	0xad
 8807 2dc4 00       		.byte	0
ARM GAS  C:\Users\Administrator\AppData\Local\Temp\ccNLOfxN.s 			page 196


 8808 2dc5 44       		.uleb128 0x44
 8809 2dc6 D7430000 		.4byte	.LASF680
 8810 2dca 06       		.byte	0x6
 8811 2dcb 6A       		.byte	0x6a
 8812 2dcc DB2D0000 		.4byte	0x2ddb
 8813 2dd0 16       		.uleb128 0x16
 8814 2dd1 B9000000 		.4byte	0xb9
 8815 2dd5 16       		.uleb128 0x16
 8816 2dd6 042C0000 		.4byte	0x2c04
 8817 2dda 00       		.byte	0
 8818 2ddb 3F       		.uleb128 0x3f
 8819 2ddc BE390000 		.4byte	.LASF681
 8820 2de0 07       		.byte	0x7
 8821 2de1 A90D     		.2byte	0xda9
 8822 2de3 36030000 		.4byte	0x336
 8823 2de7 F12D0000 		.4byte	0x2df1
 8824 2deb 16       		.uleb128 0x16
 8825 2dec F12D0000 		.4byte	0x2df1
 8826 2df0 00       		.byte	0
 8827 2df1 07       		.uleb128 0x7
 8828 2df2 04       		.byte	0x4
 8829 2df3 F72D0000 		.4byte	0x2df7
 8830 2df7 48       		.uleb128 0x48
 8831 2df8 EB000000 		.4byte	0xeb
 8832 2dfc 49       		.uleb128 0x49
 8833 2dfd 9A150000 		.4byte	.LASF703
 8834 2e01 07       		.byte	0x7
 8835 2e02 E10D     		.2byte	0xde1
 8836 2e04 0A2E0000 		.4byte	0x2e0a
 8837 2e08 4A       		.uleb128 0x4a
 8838 2e09 00       		.byte	0
 8839 2e0a 44       		.uleb128 0x44
 8840 2e0b E5430000 		.4byte	.LASF682
 8841 2e0f 23       		.byte	0x23
 8842 2e10 33       		.byte	0x33
 8843 2e11 1B2E0000 		.4byte	0x2e1b
 8844 2e15 16       		.uleb128 0x16
 8845 2e16 AD000000 		.4byte	0xad
 8846 2e1a 00       		.byte	0
 8847 2e1b 44       		.uleb128 0x44
 8848 2e1c A6010000 		.4byte	.LASF683
 8849 2e20 24       		.byte	0x24
 8850 2e21 18       		.byte	0x18
 8851 2e22 2C2E0000 		.4byte	0x2e2c
 8852 2e26 16       		.uleb128 0x16
 8853 2e27 08010000 		.4byte	0x108
 8854 2e2b 00       		.byte	0
 8855 2e2c 46       		.uleb128 0x46
 8856 2e2d 410E0000 		.4byte	.LASF684
 8857 2e31 25       		.byte	0x25
 8858 2e32 3201     		.2byte	0x132
 8859 2e34 43       		.uleb128 0x43
 8860 2e35 C50B0000 		.4byte	.LASF685
 8861 2e39 12       		.byte	0x12
 8862 2e3a 4B       		.byte	0x4b
 8863 2e3b 40       		.uleb128 0x40
 8864 2e3c 8A000000 		.4byte	.LASF686
ARM GAS  C:\Users\Administrator\AppData\Local\Temp\ccNLOfxN.s 			page 197


 8865 2e40 0C       		.byte	0xc
 8866 2e41 E8       		.byte	0xe8
 8867 2e42 C5000000 		.4byte	0xc5
 8868 2e46 502E0000 		.4byte	0x2e50
 8869 2e4a 16       		.uleb128 0x16
 8870 2e4b C5000000 		.4byte	0xc5
 8871 2e4f 00       		.byte	0
 8872 2e50 41       		.uleb128 0x41
 8873 2e51 512F0000 		.4byte	.LASF687
 8874 2e55 06       		.byte	0x6
 8875 2e56 78       		.byte	0x78
 8876 2e57 AD000000 		.4byte	0xad
 8877 2e5b 44       		.uleb128 0x44
 8878 2e5c 28340000 		.4byte	.LASF688
 8879 2e60 26       		.byte	0x26
 8880 2e61 18       		.byte	0x18
 8881 2e62 6C2E0000 		.4byte	0x2e6c
 8882 2e66 16       		.uleb128 0x16
 8883 2e67 08010000 		.4byte	0x108
 8884 2e6b 00       		.byte	0
 8885 2e6c 43       		.uleb128 0x43
 8886 2e6d 703C0000 		.4byte	.LASF689
 8887 2e71 18       		.byte	0x18
 8888 2e72 17       		.byte	0x17
 8889 2e73 46       		.uleb128 0x46
 8890 2e74 7D060000 		.4byte	.LASF690
 8891 2e78 15       		.byte	0x15
 8892 2e79 4E01     		.2byte	0x14e
 8893 2e7b 4B       		.uleb128 0x4b
 8894 2e7c 02390000 		.4byte	.LASF691
 8895 2e80 15       		.byte	0x15
 8896 2e81 5101     		.2byte	0x151
 8897 2e83 8D2E0000 		.4byte	0x2e8d
 8898 2e87 16       		.uleb128 0x16
 8899 2e88 DF000000 		.4byte	0xdf
 8900 2e8c 00       		.byte	0
 8901 2e8d 43       		.uleb128 0x43
 8902 2e8e FF3C0000 		.4byte	.LASF692
 8903 2e92 16       		.byte	0x16
 8904 2e93 6F       		.byte	0x6f
 8905 2e94 3F       		.uleb128 0x3f
 8906 2e95 BD360000 		.4byte	.LASF693
 8907 2e99 07       		.byte	0x7
 8908 2e9a 610D     		.2byte	0xd61
 8909 2e9c 36030000 		.4byte	0x336
 8910 2ea0 AA2E0000 		.4byte	0x2eaa
 8911 2ea4 16       		.uleb128 0x16
 8912 2ea5 08070000 		.4byte	0x708
 8913 2ea9 00       		.byte	0
 8914 2eaa 41       		.uleb128 0x41
 8915 2eab CA070000 		.4byte	.LASF694
 8916 2eaf 1B       		.byte	0x1b
 8917 2eb0 40       		.byte	0x40
 8918 2eb1 8C000000 		.4byte	0x8c
 8919 2eb5 41       		.uleb128 0x41
 8920 2eb6 7E0B0000 		.4byte	.LASF695
 8921 2eba 1B       		.byte	0x1b
ARM GAS  C:\Users\Administrator\AppData\Local\Temp\ccNLOfxN.s 			page 198


 8922 2ebb 46       		.byte	0x46
 8923 2ebc 8C000000 		.4byte	0x8c
 8924 2ec0 41       		.uleb128 0x41
 8925 2ec1 063B0000 		.4byte	.LASF696
 8926 2ec5 1B       		.byte	0x1b
 8927 2ec6 43       		.byte	0x43
 8928 2ec7 8C000000 		.4byte	0x8c
 8929 2ecb 41       		.uleb128 0x41
 8930 2ecc BB250000 		.4byte	.LASF697
 8931 2ed0 1B       		.byte	0x1b
 8932 2ed1 45       		.byte	0x45
 8933 2ed2 8C000000 		.4byte	0x8c
 8934 2ed6 00       		.byte	0
 8935              		.section	.debug_abbrev,"",%progbits
 8936              	.Ldebug_abbrev0:
 8937 0000 01       		.uleb128 0x1
 8938 0001 11       		.uleb128 0x11
 8939 0002 01       		.byte	0x1
 8940 0003 25       		.uleb128 0x25
 8941 0004 0E       		.uleb128 0xe
 8942 0005 13       		.uleb128 0x13
 8943 0006 0B       		.uleb128 0xb
 8944 0007 03       		.uleb128 0x3
 8945 0008 0E       		.uleb128 0xe
 8946 0009 1B       		.uleb128 0x1b
 8947 000a 0E       		.uleb128 0xe
 8948 000b 55       		.uleb128 0x55
 8949 000c 17       		.uleb128 0x17
 8950 000d 11       		.uleb128 0x11
 8951 000e 01       		.uleb128 0x1
 8952 000f 10       		.uleb128 0x10
 8953 0010 17       		.uleb128 0x17
 8954 0011 00       		.byte	0
 8955 0012 00       		.byte	0
 8956 0013 02       		.uleb128 0x2
 8957 0014 24       		.uleb128 0x24
 8958 0015 00       		.byte	0
 8959 0016 0B       		.uleb128 0xb
 8960 0017 0B       		.uleb128 0xb
 8961 0018 3E       		.uleb128 0x3e
 8962 0019 0B       		.uleb128 0xb
 8963 001a 03       		.uleb128 0x3
 8964 001b 0E       		.uleb128 0xe
 8965 001c 00       		.byte	0
 8966 001d 00       		.byte	0
 8967 001e 03       		.uleb128 0x3
 8968 001f 16       		.uleb128 0x16
 8969 0020 00       		.byte	0
 8970 0021 03       		.uleb128 0x3
 8971 0022 0E       		.uleb128 0xe
 8972 0023 3A       		.uleb128 0x3a
 8973 0024 0B       		.uleb128 0xb
 8974 0025 3B       		.uleb128 0x3b
 8975 0026 0B       		.uleb128 0xb
 8976 0027 49       		.uleb128 0x49
 8977 0028 13       		.uleb128 0x13
 8978 0029 00       		.byte	0
ARM GAS  C:\Users\Administrator\AppData\Local\Temp\ccNLOfxN.s 			page 199


 8979 002a 00       		.byte	0
 8980 002b 04       		.uleb128 0x4
 8981 002c 24       		.uleb128 0x24
 8982 002d 00       		.byte	0
 8983 002e 0B       		.uleb128 0xb
 8984 002f 0B       		.uleb128 0xb
 8985 0030 3E       		.uleb128 0x3e
 8986 0031 0B       		.uleb128 0xb
 8987 0032 03       		.uleb128 0x3
 8988 0033 08       		.uleb128 0x8
 8989 0034 00       		.byte	0
 8990 0035 00       		.byte	0
 8991 0036 05       		.uleb128 0x5
 8992 0037 16       		.uleb128 0x16
 8993 0038 00       		.byte	0
 8994 0039 03       		.uleb128 0x3
 8995 003a 0E       		.uleb128 0xe
 8996 003b 3A       		.uleb128 0x3a
 8997 003c 0B       		.uleb128 0xb
 8998 003d 3B       		.uleb128 0x3b
 8999 003e 05       		.uleb128 0x5
 9000 003f 49       		.uleb128 0x49
 9001 0040 13       		.uleb128 0x13
 9002 0041 00       		.byte	0
 9003 0042 00       		.byte	0
 9004 0043 06       		.uleb128 0x6
 9005 0044 35       		.uleb128 0x35
 9006 0045 00       		.byte	0
 9007 0046 49       		.uleb128 0x49
 9008 0047 13       		.uleb128 0x13
 9009 0048 00       		.byte	0
 9010 0049 00       		.byte	0
 9011 004a 07       		.uleb128 0x7
 9012 004b 0F       		.uleb128 0xf
 9013 004c 00       		.byte	0
 9014 004d 0B       		.uleb128 0xb
 9015 004e 0B       		.uleb128 0xb
 9016 004f 49       		.uleb128 0x49
 9017 0050 13       		.uleb128 0x13
 9018 0051 00       		.byte	0
 9019 0052 00       		.byte	0
 9020 0053 08       		.uleb128 0x8
 9021 0054 15       		.uleb128 0x15
 9022 0055 00       		.byte	0
 9023 0056 27       		.uleb128 0x27
 9024 0057 19       		.uleb128 0x19
 9025 0058 00       		.byte	0
 9026 0059 00       		.byte	0
 9027 005a 09       		.uleb128 0x9
 9028 005b 0F       		.uleb128 0xf
 9029 005c 00       		.byte	0
 9030 005d 0B       		.uleb128 0xb
 9031 005e 0B       		.uleb128 0xb
 9032 005f 00       		.byte	0
 9033 0060 00       		.byte	0
 9034 0061 0A       		.uleb128 0xa
 9035 0062 13       		.uleb128 0x13
ARM GAS  C:\Users\Administrator\AppData\Local\Temp\ccNLOfxN.s 			page 200


 9036 0063 01       		.byte	0x1
 9037 0064 03       		.uleb128 0x3
 9038 0065 0E       		.uleb128 0xe
 9039 0066 0B       		.uleb128 0xb
 9040 0067 0B       		.uleb128 0xb
 9041 0068 3A       		.uleb128 0x3a
 9042 0069 0B       		.uleb128 0xb
 9043 006a 3B       		.uleb128 0x3b
 9044 006b 0B       		.uleb128 0xb
 9045 006c 01       		.uleb128 0x1
 9046 006d 13       		.uleb128 0x13
 9047 006e 00       		.byte	0
 9048 006f 00       		.byte	0
 9049 0070 0B       		.uleb128 0xb
 9050 0071 0D       		.uleb128 0xd
 9051 0072 00       		.byte	0
 9052 0073 03       		.uleb128 0x3
 9053 0074 0E       		.uleb128 0xe
 9054 0075 3A       		.uleb128 0x3a
 9055 0076 0B       		.uleb128 0xb
 9056 0077 3B       		.uleb128 0x3b
 9057 0078 0B       		.uleb128 0xb
 9058 0079 49       		.uleb128 0x49
 9059 007a 13       		.uleb128 0x13
 9060 007b 38       		.uleb128 0x38
 9061 007c 0B       		.uleb128 0xb
 9062 007d 00       		.byte	0
 9063 007e 00       		.byte	0
 9064 007f 0C       		.uleb128 0xc
 9065 0080 01       		.uleb128 0x1
 9066 0081 01       		.byte	0x1
 9067 0082 49       		.uleb128 0x49
 9068 0083 13       		.uleb128 0x13
 9069 0084 01       		.uleb128 0x1
 9070 0085 13       		.uleb128 0x13
 9071 0086 00       		.byte	0
 9072 0087 00       		.byte	0
 9073 0088 0D       		.uleb128 0xd
 9074 0089 21       		.uleb128 0x21
 9075 008a 00       		.byte	0
 9076 008b 49       		.uleb128 0x49
 9077 008c 13       		.uleb128 0x13
 9078 008d 2F       		.uleb128 0x2f
 9079 008e 0B       		.uleb128 0xb
 9080 008f 00       		.byte	0
 9081 0090 00       		.byte	0
 9082 0091 0E       		.uleb128 0xe
 9083 0092 13       		.uleb128 0x13
 9084 0093 01       		.byte	0x1
 9085 0094 0B       		.uleb128 0xb
 9086 0095 0B       		.uleb128 0xb
 9087 0096 3A       		.uleb128 0x3a
 9088 0097 0B       		.uleb128 0xb
 9089 0098 3B       		.uleb128 0x3b
 9090 0099 0B       		.uleb128 0xb
 9091 009a 01       		.uleb128 0x1
 9092 009b 13       		.uleb128 0x13
ARM GAS  C:\Users\Administrator\AppData\Local\Temp\ccNLOfxN.s 			page 201


 9093 009c 00       		.byte	0
 9094 009d 00       		.byte	0
 9095 009e 0F       		.uleb128 0xf
 9096 009f 0D       		.uleb128 0xd
 9097 00a0 00       		.byte	0
 9098 00a1 03       		.uleb128 0x3
 9099 00a2 08       		.uleb128 0x8
 9100 00a3 3A       		.uleb128 0x3a
 9101 00a4 0B       		.uleb128 0xb
 9102 00a5 3B       		.uleb128 0x3b
 9103 00a6 0B       		.uleb128 0xb
 9104 00a7 49       		.uleb128 0x49
 9105 00a8 13       		.uleb128 0x13
 9106 00a9 38       		.uleb128 0x38
 9107 00aa 0B       		.uleb128 0xb
 9108 00ab 00       		.byte	0
 9109 00ac 00       		.byte	0
 9110 00ad 10       		.uleb128 0x10
 9111 00ae 04       		.uleb128 0x4
 9112 00af 01       		.byte	0x1
 9113 00b0 0B       		.uleb128 0xb
 9114 00b1 0B       		.uleb128 0xb
 9115 00b2 3A       		.uleb128 0x3a
 9116 00b3 0B       		.uleb128 0xb
 9117 00b4 3B       		.uleb128 0x3b
 9118 00b5 0B       		.uleb128 0xb
 9119 00b6 01       		.uleb128 0x1
 9120 00b7 13       		.uleb128 0x13
 9121 00b8 00       		.byte	0
 9122 00b9 00       		.byte	0
 9123 00ba 11       		.uleb128 0x11
 9124 00bb 28       		.uleb128 0x28
 9125 00bc 00       		.byte	0
 9126 00bd 03       		.uleb128 0x3
 9127 00be 0E       		.uleb128 0xe
 9128 00bf 1C       		.uleb128 0x1c
 9129 00c0 0D       		.uleb128 0xd
 9130 00c1 00       		.byte	0
 9131 00c2 00       		.byte	0
 9132 00c3 12       		.uleb128 0x12
 9133 00c4 13       		.uleb128 0x13
 9134 00c5 01       		.byte	0x1
 9135 00c6 0B       		.uleb128 0xb
 9136 00c7 0B       		.uleb128 0xb
 9137 00c8 3A       		.uleb128 0x3a
 9138 00c9 0B       		.uleb128 0xb
 9139 00ca 3B       		.uleb128 0x3b
 9140 00cb 05       		.uleb128 0x5
 9141 00cc 01       		.uleb128 0x1
 9142 00cd 13       		.uleb128 0x13
 9143 00ce 00       		.byte	0
 9144 00cf 00       		.byte	0
 9145 00d0 13       		.uleb128 0x13
 9146 00d1 0D       		.uleb128 0xd
 9147 00d2 00       		.byte	0
 9148 00d3 03       		.uleb128 0x3
 9149 00d4 0E       		.uleb128 0xe
ARM GAS  C:\Users\Administrator\AppData\Local\Temp\ccNLOfxN.s 			page 202


 9150 00d5 3A       		.uleb128 0x3a
 9151 00d6 0B       		.uleb128 0xb
 9152 00d7 3B       		.uleb128 0x3b
 9153 00d8 05       		.uleb128 0x5
 9154 00d9 49       		.uleb128 0x49
 9155 00da 13       		.uleb128 0x13
 9156 00db 38       		.uleb128 0x38
 9157 00dc 0B       		.uleb128 0xb
 9158 00dd 00       		.byte	0
 9159 00de 00       		.byte	0
 9160 00df 14       		.uleb128 0x14
 9161 00e0 04       		.uleb128 0x4
 9162 00e1 01       		.byte	0x1
 9163 00e2 0B       		.uleb128 0xb
 9164 00e3 0B       		.uleb128 0xb
 9165 00e4 3A       		.uleb128 0x3a
 9166 00e5 0B       		.uleb128 0xb
 9167 00e6 3B       		.uleb128 0x3b
 9168 00e7 05       		.uleb128 0x5
 9169 00e8 01       		.uleb128 0x1
 9170 00e9 13       		.uleb128 0x13
 9171 00ea 00       		.byte	0
 9172 00eb 00       		.byte	0
 9173 00ec 15       		.uleb128 0x15
 9174 00ed 15       		.uleb128 0x15
 9175 00ee 01       		.byte	0x1
 9176 00ef 27       		.uleb128 0x27
 9177 00f0 19       		.uleb128 0x19
 9178 00f1 01       		.uleb128 0x1
 9179 00f2 13       		.uleb128 0x13
 9180 00f3 00       		.byte	0
 9181 00f4 00       		.byte	0
 9182 00f5 16       		.uleb128 0x16
 9183 00f6 05       		.uleb128 0x5
 9184 00f7 00       		.byte	0
 9185 00f8 49       		.uleb128 0x49
 9186 00f9 13       		.uleb128 0x13
 9187 00fa 00       		.byte	0
 9188 00fb 00       		.byte	0
 9189 00fc 17       		.uleb128 0x17
 9190 00fd 2E       		.uleb128 0x2e
 9191 00fe 01       		.byte	0x1
 9192 00ff 3F       		.uleb128 0x3f
 9193 0100 19       		.uleb128 0x19
 9194 0101 03       		.uleb128 0x3
 9195 0102 0E       		.uleb128 0xe
 9196 0103 3A       		.uleb128 0x3a
 9197 0104 0B       		.uleb128 0xb
 9198 0105 3B       		.uleb128 0x3b
 9199 0106 0B       		.uleb128 0xb
 9200 0107 27       		.uleb128 0x27
 9201 0108 19       		.uleb128 0x19
 9202 0109 20       		.uleb128 0x20
 9203 010a 0B       		.uleb128 0xb
 9204 010b 01       		.uleb128 0x1
 9205 010c 13       		.uleb128 0x13
 9206 010d 00       		.byte	0
ARM GAS  C:\Users\Administrator\AppData\Local\Temp\ccNLOfxN.s 			page 203


 9207 010e 00       		.byte	0
 9208 010f 18       		.uleb128 0x18
 9209 0110 05       		.uleb128 0x5
 9210 0111 00       		.byte	0
 9211 0112 03       		.uleb128 0x3
 9212 0113 0E       		.uleb128 0xe
 9213 0114 3A       		.uleb128 0x3a
 9214 0115 0B       		.uleb128 0xb
 9215 0116 3B       		.uleb128 0x3b
 9216 0117 0B       		.uleb128 0xb
 9217 0118 49       		.uleb128 0x49
 9218 0119 13       		.uleb128 0x13
 9219 011a 00       		.byte	0
 9220 011b 00       		.byte	0
 9221 011c 19       		.uleb128 0x19
 9222 011d 34       		.uleb128 0x34
 9223 011e 00       		.byte	0
 9224 011f 03       		.uleb128 0x3
 9225 0120 0E       		.uleb128 0xe
 9226 0121 3A       		.uleb128 0x3a
 9227 0122 0B       		.uleb128 0xb
 9228 0123 3B       		.uleb128 0x3b
 9229 0124 0B       		.uleb128 0xb
 9230 0125 49       		.uleb128 0x49
 9231 0126 13       		.uleb128 0x13
 9232 0127 00       		.byte	0
 9233 0128 00       		.byte	0
 9234 0129 1A       		.uleb128 0x1a
 9235 012a 34       		.uleb128 0x34
 9236 012b 00       		.byte	0
 9237 012c 03       		.uleb128 0x3
 9238 012d 08       		.uleb128 0x8
 9239 012e 3A       		.uleb128 0x3a
 9240 012f 0B       		.uleb128 0xb
 9241 0130 3B       		.uleb128 0x3b
 9242 0131 0B       		.uleb128 0xb
 9243 0132 49       		.uleb128 0x49
 9244 0133 13       		.uleb128 0x13
 9245 0134 00       		.byte	0
 9246 0135 00       		.byte	0
 9247 0136 1B       		.uleb128 0x1b
 9248 0137 2E       		.uleb128 0x2e
 9249 0138 00       		.byte	0
 9250 0139 3F       		.uleb128 0x3f
 9251 013a 19       		.uleb128 0x19
 9252 013b 03       		.uleb128 0x3
 9253 013c 0E       		.uleb128 0xe
 9254 013d 3A       		.uleb128 0x3a
 9255 013e 0B       		.uleb128 0xb
 9256 013f 3B       		.uleb128 0x3b
 9257 0140 05       		.uleb128 0x5
 9258 0141 27       		.uleb128 0x27
 9259 0142 19       		.uleb128 0x19
 9260 0143 20       		.uleb128 0x20
 9261 0144 0B       		.uleb128 0xb
 9262 0145 00       		.byte	0
 9263 0146 00       		.byte	0
ARM GAS  C:\Users\Administrator\AppData\Local\Temp\ccNLOfxN.s 			page 204


 9264 0147 1C       		.uleb128 0x1c
 9265 0148 2E       		.uleb128 0x2e
 9266 0149 01       		.byte	0x1
 9267 014a 3F       		.uleb128 0x3f
 9268 014b 19       		.uleb128 0x19
 9269 014c 03       		.uleb128 0x3
 9270 014d 0E       		.uleb128 0xe
 9271 014e 3A       		.uleb128 0x3a
 9272 014f 0B       		.uleb128 0xb
 9273 0150 3B       		.uleb128 0x3b
 9274 0151 05       		.uleb128 0x5
 9275 0152 27       		.uleb128 0x27
 9276 0153 19       		.uleb128 0x19
 9277 0154 20       		.uleb128 0x20
 9278 0155 0B       		.uleb128 0xb
 9279 0156 01       		.uleb128 0x1
 9280 0157 13       		.uleb128 0x13
 9281 0158 00       		.byte	0
 9282 0159 00       		.byte	0
 9283 015a 1D       		.uleb128 0x1d
 9284 015b 34       		.uleb128 0x34
 9285 015c 00       		.byte	0
 9286 015d 03       		.uleb128 0x3
 9287 015e 08       		.uleb128 0x8
 9288 015f 3A       		.uleb128 0x3a
 9289 0160 0B       		.uleb128 0xb
 9290 0161 3B       		.uleb128 0x3b
 9291 0162 05       		.uleb128 0x5
 9292 0163 49       		.uleb128 0x49
 9293 0164 13       		.uleb128 0x13
 9294 0165 00       		.byte	0
 9295 0166 00       		.byte	0
 9296 0167 1E       		.uleb128 0x1e
 9297 0168 34       		.uleb128 0x34
 9298 0169 00       		.byte	0
 9299 016a 03       		.uleb128 0x3
 9300 016b 0E       		.uleb128 0xe
 9301 016c 3A       		.uleb128 0x3a
 9302 016d 0B       		.uleb128 0xb
 9303 016e 3B       		.uleb128 0x3b
 9304 016f 05       		.uleb128 0x5
 9305 0170 49       		.uleb128 0x49
 9306 0171 13       		.uleb128 0x13
 9307 0172 00       		.byte	0
 9308 0173 00       		.byte	0
 9309 0174 1F       		.uleb128 0x1f
 9310 0175 2E       		.uleb128 0x2e
 9311 0176 01       		.byte	0x1
 9312 0177 31       		.uleb128 0x31
 9313 0178 13       		.uleb128 0x13
 9314 0179 11       		.uleb128 0x11
 9315 017a 01       		.uleb128 0x1
 9316 017b 12       		.uleb128 0x12
 9317 017c 06       		.uleb128 0x6
 9318 017d 40       		.uleb128 0x40
 9319 017e 18       		.uleb128 0x18
 9320 017f 9742     		.uleb128 0x2117
ARM GAS  C:\Users\Administrator\AppData\Local\Temp\ccNLOfxN.s 			page 205


 9321 0181 19       		.uleb128 0x19
 9322 0182 01       		.uleb128 0x1
 9323 0183 13       		.uleb128 0x13
 9324 0184 00       		.byte	0
 9325 0185 00       		.byte	0
 9326 0186 20       		.uleb128 0x20
 9327 0187 05       		.uleb128 0x5
 9328 0188 00       		.byte	0
 9329 0189 31       		.uleb128 0x31
 9330 018a 13       		.uleb128 0x13
 9331 018b 02       		.uleb128 0x2
 9332 018c 17       		.uleb128 0x17
 9333 018d 00       		.byte	0
 9334 018e 00       		.byte	0
 9335 018f 21       		.uleb128 0x21
 9336 0190 34       		.uleb128 0x34
 9337 0191 00       		.byte	0
 9338 0192 31       		.uleb128 0x31
 9339 0193 13       		.uleb128 0x13
 9340 0194 00       		.byte	0
 9341 0195 00       		.byte	0
 9342 0196 22       		.uleb128 0x22
 9343 0197 34       		.uleb128 0x34
 9344 0198 00       		.byte	0
 9345 0199 31       		.uleb128 0x31
 9346 019a 13       		.uleb128 0x13
 9347 019b 02       		.uleb128 0x2
 9348 019c 17       		.uleb128 0x17
 9349 019d 00       		.byte	0
 9350 019e 00       		.byte	0
 9351 019f 23       		.uleb128 0x23
 9352 01a0 0B       		.uleb128 0xb
 9353 01a1 01       		.byte	0x1
 9354 01a2 11       		.uleb128 0x11
 9355 01a3 01       		.uleb128 0x1
 9356 01a4 12       		.uleb128 0x12
 9357 01a5 06       		.uleb128 0x6
 9358 01a6 01       		.uleb128 0x1
 9359 01a7 13       		.uleb128 0x13
 9360 01a8 00       		.byte	0
 9361 01a9 00       		.byte	0
 9362 01aa 24       		.uleb128 0x24
 9363 01ab 0B       		.uleb128 0xb
 9364 01ac 01       		.byte	0x1
 9365 01ad 11       		.uleb128 0x11
 9366 01ae 01       		.uleb128 0x1
 9367 01af 12       		.uleb128 0x12
 9368 01b0 06       		.uleb128 0x6
 9369 01b1 00       		.byte	0
 9370 01b2 00       		.byte	0
 9371 01b3 25       		.uleb128 0x25
 9372 01b4 34       		.uleb128 0x34
 9373 01b5 00       		.byte	0
 9374 01b6 31       		.uleb128 0x31
 9375 01b7 13       		.uleb128 0x13
 9376 01b8 02       		.uleb128 0x2
 9377 01b9 18       		.uleb128 0x18
ARM GAS  C:\Users\Administrator\AppData\Local\Temp\ccNLOfxN.s 			page 206


 9378 01ba 00       		.byte	0
 9379 01bb 00       		.byte	0
 9380 01bc 26       		.uleb128 0x26
 9381 01bd 898201   		.uleb128 0x4109
 9382 01c0 01       		.byte	0x1
 9383 01c1 11       		.uleb128 0x11
 9384 01c2 01       		.uleb128 0x1
 9385 01c3 31       		.uleb128 0x31
 9386 01c4 13       		.uleb128 0x13
 9387 01c5 01       		.uleb128 0x1
 9388 01c6 13       		.uleb128 0x13
 9389 01c7 00       		.byte	0
 9390 01c8 00       		.byte	0
 9391 01c9 27       		.uleb128 0x27
 9392 01ca 8A8201   		.uleb128 0x410a
 9393 01cd 00       		.byte	0
 9394 01ce 02       		.uleb128 0x2
 9395 01cf 18       		.uleb128 0x18
 9396 01d0 9142     		.uleb128 0x2111
 9397 01d2 18       		.uleb128 0x18
 9398 01d3 00       		.byte	0
 9399 01d4 00       		.byte	0
 9400 01d5 28       		.uleb128 0x28
 9401 01d6 898201   		.uleb128 0x4109
 9402 01d9 01       		.byte	0x1
 9403 01da 11       		.uleb128 0x11
 9404 01db 01       		.uleb128 0x1
 9405 01dc 31       		.uleb128 0x31
 9406 01dd 13       		.uleb128 0x13
 9407 01de 00       		.byte	0
 9408 01df 00       		.byte	0
 9409 01e0 29       		.uleb128 0x29
 9410 01e1 898201   		.uleb128 0x4109
 9411 01e4 00       		.byte	0
 9412 01e5 11       		.uleb128 0x11
 9413 01e6 01       		.uleb128 0x1
 9414 01e7 31       		.uleb128 0x31
 9415 01e8 13       		.uleb128 0x13
 9416 01e9 00       		.byte	0
 9417 01ea 00       		.byte	0
 9418 01eb 2A       		.uleb128 0x2a
 9419 01ec 2E       		.uleb128 0x2e
 9420 01ed 01       		.byte	0x1
 9421 01ee 3F       		.uleb128 0x3f
 9422 01ef 19       		.uleb128 0x19
 9423 01f0 03       		.uleb128 0x3
 9424 01f1 0E       		.uleb128 0xe
 9425 01f2 3A       		.uleb128 0x3a
 9426 01f3 0B       		.uleb128 0xb
 9427 01f4 3B       		.uleb128 0x3b
 9428 01f5 0B       		.uleb128 0xb
 9429 01f6 27       		.uleb128 0x27
 9430 01f7 19       		.uleb128 0x19
 9431 01f8 11       		.uleb128 0x11
 9432 01f9 01       		.uleb128 0x1
 9433 01fa 12       		.uleb128 0x12
 9434 01fb 06       		.uleb128 0x6
ARM GAS  C:\Users\Administrator\AppData\Local\Temp\ccNLOfxN.s 			page 207


 9435 01fc 40       		.uleb128 0x40
 9436 01fd 18       		.uleb128 0x18
 9437 01fe 9742     		.uleb128 0x2117
 9438 0200 19       		.uleb128 0x19
 9439 0201 01       		.uleb128 0x1
 9440 0202 13       		.uleb128 0x13
 9441 0203 00       		.byte	0
 9442 0204 00       		.byte	0
 9443 0205 2B       		.uleb128 0x2b
 9444 0206 34       		.uleb128 0x34
 9445 0207 00       		.byte	0
 9446 0208 03       		.uleb128 0x3
 9447 0209 0E       		.uleb128 0xe
 9448 020a 3A       		.uleb128 0x3a
 9449 020b 0B       		.uleb128 0xb
 9450 020c 3B       		.uleb128 0x3b
 9451 020d 0B       		.uleb128 0xb
 9452 020e 49       		.uleb128 0x49
 9453 020f 13       		.uleb128 0x13
 9454 0210 02       		.uleb128 0x2
 9455 0211 17       		.uleb128 0x17
 9456 0212 00       		.byte	0
 9457 0213 00       		.byte	0
 9458 0214 2C       		.uleb128 0x2c
 9459 0215 2E       		.uleb128 0x2e
 9460 0216 01       		.byte	0x1
 9461 0217 3F       		.uleb128 0x3f
 9462 0218 19       		.uleb128 0x19
 9463 0219 03       		.uleb128 0x3
 9464 021a 0E       		.uleb128 0xe
 9465 021b 3A       		.uleb128 0x3a
 9466 021c 0B       		.uleb128 0xb
 9467 021d 3B       		.uleb128 0x3b
 9468 021e 05       		.uleb128 0x5
 9469 021f 27       		.uleb128 0x27
 9470 0220 19       		.uleb128 0x19
 9471 0221 11       		.uleb128 0x11
 9472 0222 01       		.uleb128 0x1
 9473 0223 12       		.uleb128 0x12
 9474 0224 06       		.uleb128 0x6
 9475 0225 40       		.uleb128 0x40
 9476 0226 18       		.uleb128 0x18
 9477 0227 9742     		.uleb128 0x2117
 9478 0229 19       		.uleb128 0x19
 9479 022a 01       		.uleb128 0x1
 9480 022b 13       		.uleb128 0x13
 9481 022c 00       		.byte	0
 9482 022d 00       		.byte	0
 9483 022e 2D       		.uleb128 0x2d
 9484 022f 05       		.uleb128 0x5
 9485 0230 00       		.byte	0
 9486 0231 03       		.uleb128 0x3
 9487 0232 08       		.uleb128 0x8
 9488 0233 3A       		.uleb128 0x3a
 9489 0234 0B       		.uleb128 0xb
 9490 0235 3B       		.uleb128 0x3b
 9491 0236 05       		.uleb128 0x5
ARM GAS  C:\Users\Administrator\AppData\Local\Temp\ccNLOfxN.s 			page 208


 9492 0237 49       		.uleb128 0x49
 9493 0238 13       		.uleb128 0x13
 9494 0239 00       		.byte	0
 9495 023a 00       		.byte	0
 9496 023b 2E       		.uleb128 0x2e
 9497 023c 2E       		.uleb128 0x2e
 9498 023d 00       		.byte	0
 9499 023e 3F       		.uleb128 0x3f
 9500 023f 19       		.uleb128 0x19
 9501 0240 03       		.uleb128 0x3
 9502 0241 0E       		.uleb128 0xe
 9503 0242 3A       		.uleb128 0x3a
 9504 0243 0B       		.uleb128 0xb
 9505 0244 3B       		.uleb128 0x3b
 9506 0245 05       		.uleb128 0x5
 9507 0246 27       		.uleb128 0x27
 9508 0247 19       		.uleb128 0x19
 9509 0248 11       		.uleb128 0x11
 9510 0249 01       		.uleb128 0x1
 9511 024a 12       		.uleb128 0x12
 9512 024b 06       		.uleb128 0x6
 9513 024c 40       		.uleb128 0x40
 9514 024d 18       		.uleb128 0x18
 9515 024e 9742     		.uleb128 0x2117
 9516 0250 19       		.uleb128 0x19
 9517 0251 00       		.byte	0
 9518 0252 00       		.byte	0
 9519 0253 2F       		.uleb128 0x2f
 9520 0254 34       		.uleb128 0x34
 9521 0255 00       		.byte	0
 9522 0256 03       		.uleb128 0x3
 9523 0257 08       		.uleb128 0x8
 9524 0258 3A       		.uleb128 0x3a
 9525 0259 0B       		.uleb128 0xb
 9526 025a 3B       		.uleb128 0x3b
 9527 025b 05       		.uleb128 0x5
 9528 025c 49       		.uleb128 0x49
 9529 025d 13       		.uleb128 0x13
 9530 025e 02       		.uleb128 0x2
 9531 025f 18       		.uleb128 0x18
 9532 0260 00       		.byte	0
 9533 0261 00       		.byte	0
 9534 0262 30       		.uleb128 0x30
 9535 0263 34       		.uleb128 0x34
 9536 0264 00       		.byte	0
 9537 0265 03       		.uleb128 0x3
 9538 0266 0E       		.uleb128 0xe
 9539 0267 3A       		.uleb128 0x3a
 9540 0268 0B       		.uleb128 0xb
 9541 0269 3B       		.uleb128 0x3b
 9542 026a 05       		.uleb128 0x5
 9543 026b 49       		.uleb128 0x49
 9544 026c 13       		.uleb128 0x13
 9545 026d 02       		.uleb128 0x2
 9546 026e 17       		.uleb128 0x17
 9547 026f 00       		.byte	0
 9548 0270 00       		.byte	0
ARM GAS  C:\Users\Administrator\AppData\Local\Temp\ccNLOfxN.s 			page 209


 9549 0271 31       		.uleb128 0x31
 9550 0272 34       		.uleb128 0x34
 9551 0273 00       		.byte	0
 9552 0274 03       		.uleb128 0x3
 9553 0275 08       		.uleb128 0x8
 9554 0276 3A       		.uleb128 0x3a
 9555 0277 0B       		.uleb128 0xb
 9556 0278 3B       		.uleb128 0x3b
 9557 0279 05       		.uleb128 0x5
 9558 027a 49       		.uleb128 0x49
 9559 027b 13       		.uleb128 0x13
 9560 027c 02       		.uleb128 0x2
 9561 027d 17       		.uleb128 0x17
 9562 027e 00       		.byte	0
 9563 027f 00       		.byte	0
 9564 0280 32       		.uleb128 0x32
 9565 0281 34       		.uleb128 0x34
 9566 0282 00       		.byte	0
 9567 0283 03       		.uleb128 0x3
 9568 0284 0E       		.uleb128 0xe
 9569 0285 3A       		.uleb128 0x3a
 9570 0286 0B       		.uleb128 0xb
 9571 0287 3B       		.uleb128 0x3b
 9572 0288 05       		.uleb128 0x5
 9573 0289 49       		.uleb128 0x49
 9574 028a 13       		.uleb128 0x13
 9575 028b 02       		.uleb128 0x2
 9576 028c 18       		.uleb128 0x18
 9577 028d 00       		.byte	0
 9578 028e 00       		.byte	0
 9579 028f 33       		.uleb128 0x33
 9580 0290 0A       		.uleb128 0xa
 9581 0291 00       		.byte	0
 9582 0292 03       		.uleb128 0x3
 9583 0293 0E       		.uleb128 0xe
 9584 0294 3A       		.uleb128 0x3a
 9585 0295 0B       		.uleb128 0xb
 9586 0296 3B       		.uleb128 0x3b
 9587 0297 05       		.uleb128 0x5
 9588 0298 11       		.uleb128 0x11
 9589 0299 01       		.uleb128 0x1
 9590 029a 00       		.byte	0
 9591 029b 00       		.byte	0
 9592 029c 34       		.uleb128 0x34
 9593 029d 2E       		.uleb128 0x2e
 9594 029e 01       		.byte	0x1
 9595 029f 3F       		.uleb128 0x3f
 9596 02a0 19       		.uleb128 0x19
 9597 02a1 03       		.uleb128 0x3
 9598 02a2 0E       		.uleb128 0xe
 9599 02a3 3A       		.uleb128 0x3a
 9600 02a4 0B       		.uleb128 0xb
 9601 02a5 3B       		.uleb128 0x3b
 9602 02a6 05       		.uleb128 0x5
 9603 02a7 27       		.uleb128 0x27
 9604 02a8 19       		.uleb128 0x19
 9605 02a9 11       		.uleb128 0x11
ARM GAS  C:\Users\Administrator\AppData\Local\Temp\ccNLOfxN.s 			page 210


 9606 02aa 01       		.uleb128 0x1
 9607 02ab 12       		.uleb128 0x12
 9608 02ac 06       		.uleb128 0x6
 9609 02ad 40       		.uleb128 0x40
 9610 02ae 18       		.uleb128 0x18
 9611 02af 9642     		.uleb128 0x2116
 9612 02b1 19       		.uleb128 0x19
 9613 02b2 01       		.uleb128 0x1
 9614 02b3 13       		.uleb128 0x13
 9615 02b4 00       		.byte	0
 9616 02b5 00       		.byte	0
 9617 02b6 35       		.uleb128 0x35
 9618 02b7 05       		.uleb128 0x5
 9619 02b8 00       		.byte	0
 9620 02b9 03       		.uleb128 0x3
 9621 02ba 08       		.uleb128 0x8
 9622 02bb 3A       		.uleb128 0x3a
 9623 02bc 0B       		.uleb128 0xb
 9624 02bd 3B       		.uleb128 0x3b
 9625 02be 05       		.uleb128 0x5
 9626 02bf 49       		.uleb128 0x49
 9627 02c0 13       		.uleb128 0x13
 9628 02c1 02       		.uleb128 0x2
 9629 02c2 17       		.uleb128 0x17
 9630 02c3 00       		.byte	0
 9631 02c4 00       		.byte	0
 9632 02c5 36       		.uleb128 0x36
 9633 02c6 34       		.uleb128 0x34
 9634 02c7 00       		.byte	0
 9635 02c8 31       		.uleb128 0x31
 9636 02c9 13       		.uleb128 0x13
 9637 02ca 1C       		.uleb128 0x1c
 9638 02cb 0B       		.uleb128 0xb
 9639 02cc 00       		.byte	0
 9640 02cd 00       		.byte	0
 9641 02ce 37       		.uleb128 0x37
 9642 02cf 34       		.uleb128 0x34
 9643 02d0 00       		.byte	0
 9644 02d1 03       		.uleb128 0x3
 9645 02d2 0E       		.uleb128 0xe
 9646 02d3 3A       		.uleb128 0x3a
 9647 02d4 0B       		.uleb128 0xb
 9648 02d5 3B       		.uleb128 0x3b
 9649 02d6 05       		.uleb128 0x5
 9650 02d7 49       		.uleb128 0x49
 9651 02d8 13       		.uleb128 0x13
 9652 02d9 1C       		.uleb128 0x1c
 9653 02da 0B       		.uleb128 0xb
 9654 02db 00       		.byte	0
 9655 02dc 00       		.byte	0
 9656 02dd 38       		.uleb128 0x38
 9657 02de 1D       		.uleb128 0x1d
 9658 02df 01       		.byte	0x1
 9659 02e0 31       		.uleb128 0x31
 9660 02e1 13       		.uleb128 0x13
 9661 02e2 11       		.uleb128 0x11
 9662 02e3 01       		.uleb128 0x1
ARM GAS  C:\Users\Administrator\AppData\Local\Temp\ccNLOfxN.s 			page 211


 9663 02e4 12       		.uleb128 0x12
 9664 02e5 06       		.uleb128 0x6
 9665 02e6 58       		.uleb128 0x58
 9666 02e7 0B       		.uleb128 0xb
 9667 02e8 59       		.uleb128 0x59
 9668 02e9 05       		.uleb128 0x5
 9669 02ea 01       		.uleb128 0x1
 9670 02eb 13       		.uleb128 0x13
 9671 02ec 00       		.byte	0
 9672 02ed 00       		.byte	0
 9673 02ee 39       		.uleb128 0x39
 9674 02ef 05       		.uleb128 0x5
 9675 02f0 00       		.byte	0
 9676 02f1 03       		.uleb128 0x3
 9677 02f2 0E       		.uleb128 0xe
 9678 02f3 3A       		.uleb128 0x3a
 9679 02f4 0B       		.uleb128 0xb
 9680 02f5 3B       		.uleb128 0x3b
 9681 02f6 05       		.uleb128 0x5
 9682 02f7 49       		.uleb128 0x49
 9683 02f8 13       		.uleb128 0x13
 9684 02f9 02       		.uleb128 0x2
 9685 02fa 17       		.uleb128 0x17
 9686 02fb 00       		.byte	0
 9687 02fc 00       		.byte	0
 9688 02fd 3A       		.uleb128 0x3a
 9689 02fe 2E       		.uleb128 0x2e
 9690 02ff 01       		.byte	0x1
 9691 0300 3F       		.uleb128 0x3f
 9692 0301 19       		.uleb128 0x19
 9693 0302 03       		.uleb128 0x3
 9694 0303 0E       		.uleb128 0xe
 9695 0304 3A       		.uleb128 0x3a
 9696 0305 0B       		.uleb128 0xb
 9697 0306 3B       		.uleb128 0x3b
 9698 0307 05       		.uleb128 0x5
 9699 0308 27       		.uleb128 0x27
 9700 0309 19       		.uleb128 0x19
 9701 030a 49       		.uleb128 0x49
 9702 030b 13       		.uleb128 0x13
 9703 030c 11       		.uleb128 0x11
 9704 030d 01       		.uleb128 0x1
 9705 030e 12       		.uleb128 0x12
 9706 030f 06       		.uleb128 0x6
 9707 0310 40       		.uleb128 0x40
 9708 0311 18       		.uleb128 0x18
 9709 0312 9742     		.uleb128 0x2117
 9710 0314 19       		.uleb128 0x19
 9711 0315 01       		.uleb128 0x1
 9712 0316 13       		.uleb128 0x13
 9713 0317 00       		.byte	0
 9714 0318 00       		.byte	0
 9715 0319 3B       		.uleb128 0x3b
 9716 031a 05       		.uleb128 0x5
 9717 031b 00       		.byte	0
 9718 031c 31       		.uleb128 0x31
 9719 031d 13       		.uleb128 0x13
ARM GAS  C:\Users\Administrator\AppData\Local\Temp\ccNLOfxN.s 			page 212


 9720 031e 1C       		.uleb128 0x1c
 9721 031f 0B       		.uleb128 0xb
 9722 0320 00       		.byte	0
 9723 0321 00       		.byte	0
 9724 0322 3C       		.uleb128 0x3c
 9725 0323 34       		.uleb128 0x34
 9726 0324 00       		.byte	0
 9727 0325 03       		.uleb128 0x3
 9728 0326 0E       		.uleb128 0xe
 9729 0327 3A       		.uleb128 0x3a
 9730 0328 0B       		.uleb128 0xb
 9731 0329 3B       		.uleb128 0x3b
 9732 032a 0B       		.uleb128 0xb
 9733 032b 49       		.uleb128 0x49
 9734 032c 13       		.uleb128 0x13
 9735 032d 3F       		.uleb128 0x3f
 9736 032e 19       		.uleb128 0x19
 9737 032f 02       		.uleb128 0x2
 9738 0330 18       		.uleb128 0x18
 9739 0331 00       		.byte	0
 9740 0332 00       		.byte	0
 9741 0333 3D       		.uleb128 0x3d
 9742 0334 21       		.uleb128 0x21
 9743 0335 00       		.byte	0
 9744 0336 49       		.uleb128 0x49
 9745 0337 13       		.uleb128 0x13
 9746 0338 2F       		.uleb128 0x2f
 9747 0339 05       		.uleb128 0x5
 9748 033a 00       		.byte	0
 9749 033b 00       		.byte	0
 9750 033c 3E       		.uleb128 0x3e
 9751 033d 34       		.uleb128 0x34
 9752 033e 00       		.byte	0
 9753 033f 03       		.uleb128 0x3
 9754 0340 0E       		.uleb128 0xe
 9755 0341 3A       		.uleb128 0x3a
 9756 0342 0B       		.uleb128 0xb
 9757 0343 3B       		.uleb128 0x3b
 9758 0344 05       		.uleb128 0x5
 9759 0345 49       		.uleb128 0x49
 9760 0346 13       		.uleb128 0x13
 9761 0347 3F       		.uleb128 0x3f
 9762 0348 19       		.uleb128 0x19
 9763 0349 3C       		.uleb128 0x3c
 9764 034a 19       		.uleb128 0x19
 9765 034b 00       		.byte	0
 9766 034c 00       		.byte	0
 9767 034d 3F       		.uleb128 0x3f
 9768 034e 2E       		.uleb128 0x2e
 9769 034f 01       		.byte	0x1
 9770 0350 3F       		.uleb128 0x3f
 9771 0351 19       		.uleb128 0x19
 9772 0352 03       		.uleb128 0x3
 9773 0353 0E       		.uleb128 0xe
 9774 0354 3A       		.uleb128 0x3a
 9775 0355 0B       		.uleb128 0xb
 9776 0356 3B       		.uleb128 0x3b
ARM GAS  C:\Users\Administrator\AppData\Local\Temp\ccNLOfxN.s 			page 213


 9777 0357 05       		.uleb128 0x5
 9778 0358 27       		.uleb128 0x27
 9779 0359 19       		.uleb128 0x19
 9780 035a 49       		.uleb128 0x49
 9781 035b 13       		.uleb128 0x13
 9782 035c 3C       		.uleb128 0x3c
 9783 035d 19       		.uleb128 0x19
 9784 035e 01       		.uleb128 0x1
 9785 035f 13       		.uleb128 0x13
 9786 0360 00       		.byte	0
 9787 0361 00       		.byte	0
 9788 0362 40       		.uleb128 0x40
 9789 0363 2E       		.uleb128 0x2e
 9790 0364 01       		.byte	0x1
 9791 0365 3F       		.uleb128 0x3f
 9792 0366 19       		.uleb128 0x19
 9793 0367 03       		.uleb128 0x3
 9794 0368 0E       		.uleb128 0xe
 9795 0369 3A       		.uleb128 0x3a
 9796 036a 0B       		.uleb128 0xb
 9797 036b 3B       		.uleb128 0x3b
 9798 036c 0B       		.uleb128 0xb
 9799 036d 27       		.uleb128 0x27
 9800 036e 19       		.uleb128 0x19
 9801 036f 49       		.uleb128 0x49
 9802 0370 13       		.uleb128 0x13
 9803 0371 3C       		.uleb128 0x3c
 9804 0372 19       		.uleb128 0x19
 9805 0373 01       		.uleb128 0x1
 9806 0374 13       		.uleb128 0x13
 9807 0375 00       		.byte	0
 9808 0376 00       		.byte	0
 9809 0377 41       		.uleb128 0x41
 9810 0378 2E       		.uleb128 0x2e
 9811 0379 00       		.byte	0
 9812 037a 3F       		.uleb128 0x3f
 9813 037b 19       		.uleb128 0x19
 9814 037c 03       		.uleb128 0x3
 9815 037d 0E       		.uleb128 0xe
 9816 037e 3A       		.uleb128 0x3a
 9817 037f 0B       		.uleb128 0xb
 9818 0380 3B       		.uleb128 0x3b
 9819 0381 0B       		.uleb128 0xb
 9820 0382 27       		.uleb128 0x27
 9821 0383 19       		.uleb128 0x19
 9822 0384 49       		.uleb128 0x49
 9823 0385 13       		.uleb128 0x13
 9824 0386 3C       		.uleb128 0x3c
 9825 0387 19       		.uleb128 0x19
 9826 0388 00       		.byte	0
 9827 0389 00       		.byte	0
 9828 038a 42       		.uleb128 0x42
 9829 038b 2E       		.uleb128 0x2e
 9830 038c 00       		.byte	0
 9831 038d 3F       		.uleb128 0x3f
 9832 038e 19       		.uleb128 0x19
 9833 038f 03       		.uleb128 0x3
ARM GAS  C:\Users\Administrator\AppData\Local\Temp\ccNLOfxN.s 			page 214


 9834 0390 0E       		.uleb128 0xe
 9835 0391 3A       		.uleb128 0x3a
 9836 0392 0B       		.uleb128 0xb
 9837 0393 3B       		.uleb128 0x3b
 9838 0394 05       		.uleb128 0x5
 9839 0395 27       		.uleb128 0x27
 9840 0396 19       		.uleb128 0x19
 9841 0397 49       		.uleb128 0x49
 9842 0398 13       		.uleb128 0x13
 9843 0399 3C       		.uleb128 0x3c
 9844 039a 19       		.uleb128 0x19
 9845 039b 00       		.byte	0
 9846 039c 00       		.byte	0
 9847 039d 43       		.uleb128 0x43
 9848 039e 2E       		.uleb128 0x2e
 9849 039f 00       		.byte	0
 9850 03a0 3F       		.uleb128 0x3f
 9851 03a1 19       		.uleb128 0x19
 9852 03a2 03       		.uleb128 0x3
 9853 03a3 0E       		.uleb128 0xe
 9854 03a4 3A       		.uleb128 0x3a
 9855 03a5 0B       		.uleb128 0xb
 9856 03a6 3B       		.uleb128 0x3b
 9857 03a7 0B       		.uleb128 0xb
 9858 03a8 27       		.uleb128 0x27
 9859 03a9 19       		.uleb128 0x19
 9860 03aa 3C       		.uleb128 0x3c
 9861 03ab 19       		.uleb128 0x19
 9862 03ac 00       		.byte	0
 9863 03ad 00       		.byte	0
 9864 03ae 44       		.uleb128 0x44
 9865 03af 2E       		.uleb128 0x2e
 9866 03b0 01       		.byte	0x1
 9867 03b1 3F       		.uleb128 0x3f
 9868 03b2 19       		.uleb128 0x19
 9869 03b3 03       		.uleb128 0x3
 9870 03b4 0E       		.uleb128 0xe
 9871 03b5 3A       		.uleb128 0x3a
 9872 03b6 0B       		.uleb128 0xb
 9873 03b7 3B       		.uleb128 0x3b
 9874 03b8 0B       		.uleb128 0xb
 9875 03b9 27       		.uleb128 0x27
 9876 03ba 19       		.uleb128 0x19
 9877 03bb 3C       		.uleb128 0x3c
 9878 03bc 19       		.uleb128 0x19
 9879 03bd 01       		.uleb128 0x1
 9880 03be 13       		.uleb128 0x13
 9881 03bf 00       		.byte	0
 9882 03c0 00       		.byte	0
 9883 03c1 45       		.uleb128 0x45
 9884 03c2 2E       		.uleb128 0x2e
 9885 03c3 01       		.byte	0x1
 9886 03c4 3F       		.uleb128 0x3f
 9887 03c5 19       		.uleb128 0x19
 9888 03c6 03       		.uleb128 0x3
 9889 03c7 0E       		.uleb128 0xe
 9890 03c8 27       		.uleb128 0x27
ARM GAS  C:\Users\Administrator\AppData\Local\Temp\ccNLOfxN.s 			page 215


 9891 03c9 19       		.uleb128 0x19
 9892 03ca 49       		.uleb128 0x49
 9893 03cb 13       		.uleb128 0x13
 9894 03cc 34       		.uleb128 0x34
 9895 03cd 19       		.uleb128 0x19
 9896 03ce 3C       		.uleb128 0x3c
 9897 03cf 19       		.uleb128 0x19
 9898 03d0 01       		.uleb128 0x1
 9899 03d1 13       		.uleb128 0x13
 9900 03d2 00       		.byte	0
 9901 03d3 00       		.byte	0
 9902 03d4 46       		.uleb128 0x46
 9903 03d5 2E       		.uleb128 0x2e
 9904 03d6 00       		.byte	0
 9905 03d7 3F       		.uleb128 0x3f
 9906 03d8 19       		.uleb128 0x19
 9907 03d9 03       		.uleb128 0x3
 9908 03da 0E       		.uleb128 0xe
 9909 03db 3A       		.uleb128 0x3a
 9910 03dc 0B       		.uleb128 0xb
 9911 03dd 3B       		.uleb128 0x3b
 9912 03de 05       		.uleb128 0x5
 9913 03df 27       		.uleb128 0x27
 9914 03e0 19       		.uleb128 0x19
 9915 03e1 3C       		.uleb128 0x3c
 9916 03e2 19       		.uleb128 0x19
 9917 03e3 00       		.byte	0
 9918 03e4 00       		.byte	0
 9919 03e5 47       		.uleb128 0x47
 9920 03e6 26       		.uleb128 0x26
 9921 03e7 00       		.byte	0
 9922 03e8 00       		.byte	0
 9923 03e9 00       		.byte	0
 9924 03ea 48       		.uleb128 0x48
 9925 03eb 26       		.uleb128 0x26
 9926 03ec 00       		.byte	0
 9927 03ed 49       		.uleb128 0x49
 9928 03ee 13       		.uleb128 0x13
 9929 03ef 00       		.byte	0
 9930 03f0 00       		.byte	0
 9931 03f1 49       		.uleb128 0x49
 9932 03f2 2E       		.uleb128 0x2e
 9933 03f3 01       		.byte	0x1
 9934 03f4 3F       		.uleb128 0x3f
 9935 03f5 19       		.uleb128 0x19
 9936 03f6 03       		.uleb128 0x3
 9937 03f7 0E       		.uleb128 0xe
 9938 03f8 3A       		.uleb128 0x3a
 9939 03f9 0B       		.uleb128 0xb
 9940 03fa 3B       		.uleb128 0x3b
 9941 03fb 05       		.uleb128 0x5
 9942 03fc 3C       		.uleb128 0x3c
 9943 03fd 19       		.uleb128 0x19
 9944 03fe 01       		.uleb128 0x1
 9945 03ff 13       		.uleb128 0x13
 9946 0400 00       		.byte	0
 9947 0401 00       		.byte	0
ARM GAS  C:\Users\Administrator\AppData\Local\Temp\ccNLOfxN.s 			page 216


 9948 0402 4A       		.uleb128 0x4a
 9949 0403 18       		.uleb128 0x18
 9950 0404 00       		.byte	0
 9951 0405 00       		.byte	0
 9952 0406 00       		.byte	0
 9953 0407 4B       		.uleb128 0x4b
 9954 0408 2E       		.uleb128 0x2e
 9955 0409 01       		.byte	0x1
 9956 040a 3F       		.uleb128 0x3f
 9957 040b 19       		.uleb128 0x19
 9958 040c 03       		.uleb128 0x3
 9959 040d 0E       		.uleb128 0xe
 9960 040e 3A       		.uleb128 0x3a
 9961 040f 0B       		.uleb128 0xb
 9962 0410 3B       		.uleb128 0x3b
 9963 0411 05       		.uleb128 0x5
 9964 0412 27       		.uleb128 0x27
 9965 0413 19       		.uleb128 0x19
 9966 0414 3C       		.uleb128 0x3c
 9967 0415 19       		.uleb128 0x19
 9968 0416 01       		.uleb128 0x1
 9969 0417 13       		.uleb128 0x13
 9970 0418 00       		.byte	0
 9971 0419 00       		.byte	0
 9972 041a 00       		.byte	0
 9973              		.section	.debug_loc,"",%progbits
 9974              	.Ldebug_loc0:
 9975              	.LLST0:
 9976 0000 00000000 		.4byte	.LVL0
 9977 0004 1C000000 		.4byte	.LVL2
 9978 0008 0100     		.2byte	0x1
 9979 000a 50       		.byte	0x50
 9980 000b 1C000000 		.4byte	.LVL2
 9981 000f 22000000 		.4byte	.LVL4
 9982 0013 0400     		.2byte	0x4
 9983 0015 F3       		.byte	0xf3
 9984 0016 01       		.uleb128 0x1
 9985 0017 50       		.byte	0x50
 9986 0018 9F       		.byte	0x9f
 9987 0019 22000000 		.4byte	.LVL4
 9988 001d 26000000 		.4byte	.LVL5
 9989 0021 0100     		.2byte	0x1
 9990 0023 50       		.byte	0x50
 9991 0024 26000000 		.4byte	.LVL5
 9992 0028 64000000 		.4byte	.LVL12
 9993 002c 0400     		.2byte	0x4
 9994 002e F3       		.byte	0xf3
 9995 002f 01       		.uleb128 0x1
 9996 0030 50       		.byte	0x50
 9997 0031 9F       		.byte	0x9f
 9998 0032 64000000 		.4byte	.LVL12
 9999 0036 66000000 		.4byte	.LVL13
 10000 003a 0100     		.2byte	0x1
 10001 003c 50       		.byte	0x50
 10002 003d 66000000 		.4byte	.LVL13
 10003 0041 74000000 		.4byte	.LFE63
 10004 0045 0400     		.2byte	0x4
ARM GAS  C:\Users\Administrator\AppData\Local\Temp\ccNLOfxN.s 			page 217


 10005 0047 F3       		.byte	0xf3
 10006 0048 01       		.uleb128 0x1
 10007 0049 50       		.byte	0x50
 10008 004a 9F       		.byte	0x9f
 10009 004b 00000000 		.4byte	0
 10010 004f 00000000 		.4byte	0
 10011              	.LLST1:
 10012 0053 00000000 		.4byte	.LVL0
 10013 0057 1A000000 		.4byte	.LVL1
 10014 005b 0100     		.2byte	0x1
 10015 005d 51       		.byte	0x51
 10016 005e 1A000000 		.4byte	.LVL1
 10017 0062 1F000000 		.4byte	.LVL3-1
 10018 0066 0100     		.2byte	0x1
 10019 0068 53       		.byte	0x53
 10020 0069 1F000000 		.4byte	.LVL3-1
 10021 006d 22000000 		.4byte	.LVL4
 10022 0071 0400     		.2byte	0x4
 10023 0073 F3       		.byte	0xf3
 10024 0074 01       		.uleb128 0x1
 10025 0075 51       		.byte	0x51
 10026 0076 9F       		.byte	0x9f
 10027 0077 22000000 		.4byte	.LVL4
 10028 007b 2F000000 		.4byte	.LVL6-1
 10029 007f 0100     		.2byte	0x1
 10030 0081 51       		.byte	0x51
 10031 0082 2F000000 		.4byte	.LVL6-1
 10032 0086 64000000 		.4byte	.LVL12
 10033 008a 0400     		.2byte	0x4
 10034 008c F3       		.byte	0xf3
 10035 008d 01       		.uleb128 0x1
 10036 008e 51       		.byte	0x51
 10037 008f 9F       		.byte	0x9f
 10038 0090 64000000 		.4byte	.LVL12
 10039 0094 69000000 		.4byte	.LVL14-1
 10040 0098 0100     		.2byte	0x1
 10041 009a 51       		.byte	0x51
 10042 009b 69000000 		.4byte	.LVL14-1
 10043 009f 74000000 		.4byte	.LFE63
 10044 00a3 0400     		.2byte	0x4
 10045 00a5 F3       		.byte	0xf3
 10046 00a6 01       		.uleb128 0x1
 10047 00a7 51       		.byte	0x51
 10048 00a8 9F       		.byte	0x9f
 10049 00a9 00000000 		.4byte	0
 10050 00ad 00000000 		.4byte	0
 10051              	.LLST3:
 10052 00b1 22000000 		.4byte	.LVL4
 10053 00b5 5C000000 		.4byte	.LVL10
 10054 00b9 0200     		.2byte	0x2
 10055 00bb 31       		.byte	0x31
 10056 00bc 9F       		.byte	0x9f
 10057 00bd 00000000 		.4byte	0
 10058 00c1 00000000 		.4byte	0
 10059              	.LLST4:
 10060 00c5 22000000 		.4byte	.LVL4
 10061 00c9 2F000000 		.4byte	.LVL6-1
ARM GAS  C:\Users\Administrator\AppData\Local\Temp\ccNLOfxN.s 			page 218


 10062 00cd 0100     		.2byte	0x1
 10063 00cf 51       		.byte	0x51
 10064 00d0 2F000000 		.4byte	.LVL6-1
 10065 00d4 5C000000 		.4byte	.LVL10
 10066 00d8 0400     		.2byte	0x4
 10067 00da F3       		.byte	0xf3
 10068 00db 01       		.uleb128 0x1
 10069 00dc 51       		.byte	0x51
 10070 00dd 9F       		.byte	0x9f
 10071 00de 00000000 		.4byte	0
 10072 00e2 00000000 		.4byte	0
 10073              	.LLST5:
 10074 00e6 46000000 		.4byte	.LVL7
 10075 00ea 48000000 		.4byte	.LVL8
 10076 00ee 0200     		.2byte	0x2
 10077 00f0 36       		.byte	0x36
 10078 00f1 9F       		.byte	0x9f
 10079 00f2 48000000 		.4byte	.LVL8
 10080 00f6 52000000 		.4byte	.LVL9
 10081 00fa 0300     		.2byte	0x3
 10082 00fc 73       		.byte	0x73
 10083 00fd 06       		.sleb128 6
 10084 00fe 9F       		.byte	0x9f
 10085 00ff 00000000 		.4byte	0
 10086 0103 00000000 		.4byte	0
 10087              	.LLST6:
 10088 0107 14000000 		.4byte	.LVL16
 10089 010b 48000000 		.4byte	.LVL24
 10090 010f 0100     		.2byte	0x1
 10091 0111 55       		.byte	0x55
 10092 0112 00000000 		.4byte	0
 10093 0116 00000000 		.4byte	0
 10094              	.LLST7:
 10095 011a 1A000000 		.4byte	.LVL18
 10096 011e 48000000 		.4byte	.LVL24
 10097 0122 0100     		.2byte	0x1
 10098 0124 54       		.byte	0x54
 10099 0125 00000000 		.4byte	0
 10100 0129 00000000 		.4byte	0
 10101              	.LLST8:
 10102 012d 00000000 		.4byte	.LVL34
 10103 0131 09000000 		.4byte	.LVL35-1
 10104 0135 0100     		.2byte	0x1
 10105 0137 50       		.byte	0x50
 10106 0138 09000000 		.4byte	.LVL35-1
 10107 013c 0C000000 		.4byte	.LVL36
 10108 0140 0400     		.2byte	0x4
 10109 0142 F3       		.byte	0xf3
 10110 0143 01       		.uleb128 0x1
 10111 0144 50       		.byte	0x50
 10112 0145 9F       		.byte	0x9f
 10113 0146 0C000000 		.4byte	.LVL36
 10114 014a 13000000 		.4byte	.LVL37-1
 10115 014e 0100     		.2byte	0x1
 10116 0150 50       		.byte	0x50
 10117 0151 13000000 		.4byte	.LVL37-1
 10118 0155 16000000 		.4byte	.LVL38
ARM GAS  C:\Users\Administrator\AppData\Local\Temp\ccNLOfxN.s 			page 219


 10119 0159 0400     		.2byte	0x4
 10120 015b F3       		.byte	0xf3
 10121 015c 01       		.uleb128 0x1
 10122 015d 50       		.byte	0x50
 10123 015e 9F       		.byte	0x9f
 10124 015f 16000000 		.4byte	.LVL38
 10125 0163 1D000000 		.4byte	.LVL39-1
 10126 0167 0100     		.2byte	0x1
 10127 0169 50       		.byte	0x50
 10128 016a 1D000000 		.4byte	.LVL39-1
 10129 016e 20000000 		.4byte	.LVL40
 10130 0172 0400     		.2byte	0x4
 10131 0174 F3       		.byte	0xf3
 10132 0175 01       		.uleb128 0x1
 10133 0176 50       		.byte	0x50
 10134 0177 9F       		.byte	0x9f
 10135 0178 20000000 		.4byte	.LVL40
 10136 017c 27000000 		.4byte	.LVL41-1
 10137 0180 0100     		.2byte	0x1
 10138 0182 50       		.byte	0x50
 10139 0183 27000000 		.4byte	.LVL41-1
 10140 0187 2A000000 		.4byte	.LFE71
 10141 018b 0400     		.2byte	0x4
 10142 018d F3       		.byte	0xf3
 10143 018e 01       		.uleb128 0x1
 10144 018f 50       		.byte	0x50
 10145 0190 9F       		.byte	0x9f
 10146 0191 00000000 		.4byte	0
 10147 0195 00000000 		.4byte	0
 10148              	.LLST9:
 10149 0199 0A000000 		.4byte	.LVL45
 10150 019d 28000000 		.4byte	.LVL46
 10151 01a1 0200     		.2byte	0x2
 10152 01a3 30       		.byte	0x30
 10153 01a4 9F       		.byte	0x9f
 10154 01a5 28000000 		.4byte	.LVL46
 10155 01a9 4D000000 		.4byte	.LVL51-1
 10156 01ad 0200     		.2byte	0x2
 10157 01af 91       		.byte	0x91
 10158 01b0 76       		.sleb128 -10
 10159 01b1 4E000000 		.4byte	.LVL51
 10160 01b5 56000000 		.4byte	.LVL52
 10161 01b9 0200     		.2byte	0x2
 10162 01bb 30       		.byte	0x30
 10163 01bc 9F       		.byte	0x9f
 10164 01bd 00000000 		.4byte	0
 10165 01c1 00000000 		.4byte	0
 10166              	.LLST10:
 10167 01c5 36000000 		.4byte	.LVL47
 10168 01c9 3E000000 		.4byte	.LVL48
 10169 01cd 0100     		.2byte	0x1
 10170 01cf 53       		.byte	0x53
 10171 01d0 3E000000 		.4byte	.LVL48
 10172 01d4 40000000 		.4byte	.LVL49
 10173 01d8 0300     		.2byte	0x3
 10174 01da 73       		.byte	0x73
 10175 01db 01       		.sleb128 1
ARM GAS  C:\Users\Administrator\AppData\Local\Temp\ccNLOfxN.s 			page 220


 10176 01dc 9F       		.byte	0x9f
 10177 01dd 40000000 		.4byte	.LVL49
 10178 01e1 46000000 		.4byte	.LVL50
 10179 01e5 0100     		.2byte	0x1
 10180 01e7 53       		.byte	0x53
 10181 01e8 46000000 		.4byte	.LVL50
 10182 01ec 4D000000 		.4byte	.LVL51-1
 10183 01f0 1200     		.2byte	0x12
 10184 01f2 74       		.byte	0x74
 10185 01f3 00       		.sleb128 0
 10186 01f4 94       		.byte	0x94
 10187 01f5 01       		.byte	0x1
 10188 01f6 08       		.byte	0x8
 10189 01f7 FF       		.byte	0xff
 10190 01f8 1A       		.byte	0x1a
 10191 01f9 38       		.byte	0x38
 10192 01fa 24       		.byte	0x24
 10193 01fb 74       		.byte	0x74
 10194 01fc 01       		.sleb128 1
 10195 01fd 94       		.byte	0x94
 10196 01fe 01       		.byte	0x1
 10197 01ff 08       		.byte	0x8
 10198 0200 FF       		.byte	0xff
 10199 0201 1A       		.byte	0x1a
 10200 0202 21       		.byte	0x21
 10201 0203 9F       		.byte	0x9f
 10202 0204 4E000000 		.4byte	.LVL51
 10203 0208 56000000 		.4byte	.LVL52
 10204 020c 0200     		.2byte	0x2
 10205 020e 3A       		.byte	0x3a
 10206 020f 9F       		.byte	0x9f
 10207 0210 00000000 		.4byte	0
 10208 0214 00000000 		.4byte	0
 10209              	.LLST11:
 10210 0218 16000000 		.4byte	.LVL54
 10211 021c 2A000000 		.4byte	.LVL58
 10212 0220 0200     		.2byte	0x2
 10213 0222 30       		.byte	0x30
 10214 0223 9F       		.byte	0x9f
 10215 0224 2A000000 		.4byte	.LVL58
 10216 0228 3E000000 		.4byte	.LVL62
 10217 022c 0200     		.2byte	0x2
 10218 022e 31       		.byte	0x31
 10219 022f 9F       		.byte	0x9f
 10220 0230 3E000000 		.4byte	.LVL62
 10221 0234 6C000000 		.4byte	.LVL66
 10222 0238 0200     		.2byte	0x2
 10223 023a 32       		.byte	0x32
 10224 023b 9F       		.byte	0x9f
 10225 023c 7A000000 		.4byte	.LVL68
 10226 0240 0C010000 		.4byte	.LVL83
 10227 0244 0200     		.2byte	0x2
 10228 0246 32       		.byte	0x32
 10229 0247 9F       		.byte	0x9f
 10230 0248 00000000 		.4byte	0
 10231 024c 00000000 		.4byte	0
 10232              	.LLST12:
ARM GAS  C:\Users\Administrator\AppData\Local\Temp\ccNLOfxN.s 			page 221


 10233 0250 42000000 		.4byte	.LVL63
 10234 0254 52000000 		.4byte	.LVL64
 10235 0258 0100     		.2byte	0x1
 10236 025a 50       		.byte	0x50
 10237 025b B6000000 		.4byte	.LVL74
 10238 025f C0000000 		.4byte	.LVL75
 10239 0263 0100     		.2byte	0x1
 10240 0265 50       		.byte	0x50
 10241 0266 C0000000 		.4byte	.LVL75
 10242 026a C6000000 		.4byte	.LVL76
 10243 026e 0300     		.2byte	0x3
 10244 0270 70       		.byte	0x70
 10245 0271 71       		.sleb128 -15
 10246 0272 9F       		.byte	0x9f
 10247 0273 C6000000 		.4byte	.LVL76
 10248 0277 CB000000 		.4byte	.LVL77-1
 10249 027b 0900     		.2byte	0x9
 10250 027d 03       		.byte	0x3
 10251 027e 00000000 		.4byte	next_allupload_time
 10252 0282 06       		.byte	0x6
 10253 0283 3F       		.byte	0x3f
 10254 0284 1C       		.byte	0x1c
 10255 0285 9F       		.byte	0x9f
 10256 0286 00000000 		.4byte	0
 10257 028a 00000000 		.4byte	0
 10258              	.LLST13:
 10259 028e 06000000 		.4byte	.LVL84
 10260 0292 08000000 		.4byte	.LVL85
 10261 0296 0200     		.2byte	0x2
 10262 0298 30       		.byte	0x30
 10263 0299 9F       		.byte	0x9f
 10264 029a 08000000 		.4byte	.LVL85
 10265 029e 0A000000 		.4byte	.LVL86
 10266 02a2 0600     		.2byte	0x6
 10267 02a4 08       		.byte	0x8
 10268 02a5 32       		.byte	0x32
 10269 02a6 74       		.byte	0x74
 10270 02a7 00       		.sleb128 0
 10271 02a8 1C       		.byte	0x1c
 10272 02a9 9F       		.byte	0x9f
 10273 02aa 00000000 		.4byte	0
 10274 02ae 00000000 		.4byte	0
 10275              	.LLST14:
 10276 02b2 00000000 		.4byte	.LVL90
 10277 02b6 07000000 		.4byte	.LVL91-1
 10278 02ba 0100     		.2byte	0x1
 10279 02bc 50       		.byte	0x50
 10280 02bd 07000000 		.4byte	.LVL91-1
 10281 02c1 20000000 		.4byte	.LFE66
 10282 02c5 0400     		.2byte	0x4
 10283 02c7 F3       		.byte	0xf3
 10284 02c8 01       		.uleb128 0x1
 10285 02c9 50       		.byte	0x50
 10286 02ca 9F       		.byte	0x9f
 10287 02cb 00000000 		.4byte	0
 10288 02cf 00000000 		.4byte	0
 10289              	.LLST15:
ARM GAS  C:\Users\Administrator\AppData\Local\Temp\ccNLOfxN.s 			page 222


 10290 02d3 00000000 		.4byte	.LVL90
 10291 02d7 0C000000 		.4byte	.LVL92
 10292 02db 0200     		.2byte	0x2
 10293 02dd 30       		.byte	0x30
 10294 02de 9F       		.byte	0x9f
 10295 02df 0C000000 		.4byte	.LVL92
 10296 02e3 18000000 		.4byte	.LVL94
 10297 02e7 0100     		.2byte	0x1
 10298 02e9 54       		.byte	0x54
 10299 02ea 18000000 		.4byte	.LVL94
 10300 02ee 1C000000 		.4byte	.LVL95
 10301 02f2 0300     		.2byte	0x3
 10302 02f4 74       		.byte	0x74
 10303 02f5 7F       		.sleb128 -1
 10304 02f6 9F       		.byte	0x9f
 10305 02f7 1C000000 		.4byte	.LVL95
 10306 02fb 1E000000 		.4byte	.LVL96
 10307 02ff 0100     		.2byte	0x1
 10308 0301 54       		.byte	0x54
 10309 0302 00000000 		.4byte	0
 10310 0306 00000000 		.4byte	0
 10311              	.LLST16:
 10312 030a 1A000000 		.4byte	.LVL101
 10313 030e 24000000 		.4byte	.LVL103
 10314 0312 0600     		.2byte	0x6
 10315 0314 08       		.byte	0x8
 10316 0315 20       		.byte	0x20
 10317 0316 74       		.byte	0x74
 10318 0317 00       		.sleb128 0
 10319 0318 1C       		.byte	0x1c
 10320 0319 9F       		.byte	0x9f
 10321 031a 30000000 		.4byte	.LVL104
 10322 031e 32000000 		.4byte	.LVL105
 10323 0322 0600     		.2byte	0x6
 10324 0324 08       		.byte	0x8
 10325 0325 20       		.byte	0x20
 10326 0326 74       		.byte	0x74
 10327 0327 00       		.sleb128 0
 10328 0328 1C       		.byte	0x1c
 10329 0329 9F       		.byte	0x9f
 10330 032a 00000000 		.4byte	0
 10331 032e 00000000 		.4byte	0
 10332              	.LLST17:
 10333 0332 00000000 		.4byte	.LVL107
 10334 0336 1A000000 		.4byte	.LVL111
 10335 033a 0200     		.2byte	0x2
 10336 033c 30       		.byte	0x30
 10337 033d 9F       		.byte	0x9f
 10338 033e 1A000000 		.4byte	.LVL111
 10339 0342 24000000 		.4byte	.LVL113
 10340 0346 0600     		.2byte	0x6
 10341 0348 08       		.byte	0x8
 10342 0349 20       		.byte	0x20
 10343 034a 74       		.byte	0x74
 10344 034b 00       		.sleb128 0
 10345 034c 1C       		.byte	0x1c
 10346 034d 9F       		.byte	0x9f
ARM GAS  C:\Users\Administrator\AppData\Local\Temp\ccNLOfxN.s 			page 223


 10347 034e 30000000 		.4byte	.LVL114
 10348 0352 32000000 		.4byte	.LVL115
 10349 0356 0600     		.2byte	0x6
 10350 0358 08       		.byte	0x8
 10351 0359 20       		.byte	0x20
 10352 035a 74       		.byte	0x74
 10353 035b 00       		.sleb128 0
 10354 035c 1C       		.byte	0x1c
 10355 035d 9F       		.byte	0x9f
 10356 035e 00000000 		.4byte	0
 10357 0362 00000000 		.4byte	0
 10358              	.LLST18:
 10359 0366 00000000 		.4byte	.LVL142
 10360 036a 12000000 		.4byte	.LVL145
 10361 036e 0200     		.2byte	0x2
 10362 0370 30       		.byte	0x30
 10363 0371 9F       		.byte	0x9f
 10364 0372 12000000 		.4byte	.LVL145
 10365 0376 1C000000 		.4byte	.LVL147
 10366 037a 0600     		.2byte	0x6
 10367 037c 08       		.byte	0x8
 10368 037d 20       		.byte	0x20
 10369 037e 74       		.byte	0x74
 10370 037f 00       		.sleb128 0
 10371 0380 1C       		.byte	0x1c
 10372 0381 9F       		.byte	0x9f
 10373 0382 28000000 		.4byte	.LVL148
 10374 0386 2A000000 		.4byte	.LVL149
 10375 038a 0600     		.2byte	0x6
 10376 038c 08       		.byte	0x8
 10377 038d 20       		.byte	0x20
 10378 038e 74       		.byte	0x74
 10379 038f 00       		.sleb128 0
 10380 0390 1C       		.byte	0x1c
 10381 0391 9F       		.byte	0x9f
 10382 0392 00000000 		.4byte	0
 10383 0396 00000000 		.4byte	0
 10384              	.LLST19:
 10385 039a 78000000 		.4byte	.LVL161
 10386 039e 8A000000 		.4byte	.LVL162
 10387 03a2 0100     		.2byte	0x1
 10388 03a4 50       		.byte	0x50
 10389 03a5 E2000000 		.4byte	.LVL169
 10390 03a9 EC000000 		.4byte	.LVL170
 10391 03ad 0100     		.2byte	0x1
 10392 03af 50       		.byte	0x50
 10393 03b0 1E010000 		.4byte	.LVL175
 10394 03b4 32010000 		.4byte	.LVL177
 10395 03b8 0100     		.2byte	0x1
 10396 03ba 50       		.byte	0x50
 10397 03bb 2A020000 		.4byte	.LVL198
 10398 03bf 32020000 		.4byte	.LVL199
 10399 03c3 0100     		.2byte	0x1
 10400 03c5 50       		.byte	0x50
 10401 03c6 5E020000 		.4byte	.LVL202
 10402 03ca 6C020000 		.4byte	.LVL204
 10403 03ce 0100     		.2byte	0x1
ARM GAS  C:\Users\Administrator\AppData\Local\Temp\ccNLOfxN.s 			page 224


 10404 03d0 50       		.byte	0x50
 10405 03d1 00000000 		.4byte	0
 10406 03d5 00000000 		.4byte	0
 10407              	.LLST20:
 10408 03d9 4E000000 		.4byte	.LVL157
 10409 03dd 66000000 		.4byte	.LVL159
 10410 03e1 0200     		.2byte	0x2
 10411 03e3 31       		.byte	0x31
 10412 03e4 9F       		.byte	0x9f
 10413 03e5 6A000000 		.4byte	.LVL160
 10414 03e9 8A000000 		.4byte	.LVL162
 10415 03ed 0200     		.2byte	0x2
 10416 03ef 31       		.byte	0x31
 10417 03f0 9F       		.byte	0x9f
 10418 03f1 00000000 		.4byte	0
 10419 03f5 00000000 		.4byte	0
 10420              	.LLST21:
 10421 03f9 92000000 		.4byte	.LVL163
 10422 03fd B6000000 		.4byte	.LVL166
 10423 0401 0200     		.2byte	0x2
 10424 0403 31       		.byte	0x31
 10425 0404 9F       		.byte	0x9f
 10426 0405 00000000 		.4byte	0
 10427 0409 00000000 		.4byte	0
 10428              	.LLST22:
 10429 040d C0000000 		.4byte	.LVL167
 10430 0411 EC000000 		.4byte	.LVL170
 10431 0415 0200     		.2byte	0x2
 10432 0417 31       		.byte	0x31
 10433 0418 9F       		.byte	0x9f
 10434 0419 00000000 		.4byte	0
 10435 041d 00000000 		.4byte	0
 10436              	.LLST23:
 10437 0421 F6000000 		.4byte	.LVL171
 10438 0425 00010000 		.4byte	.LVL173
 10439 0429 0200     		.2byte	0x2
 10440 042b 31       		.byte	0x31
 10441 042c 9F       		.byte	0x9f
 10442 042d 06010000 		.4byte	.LVL174
 10443 0431 26010000 		.4byte	.LVL176
 10444 0435 0200     		.2byte	0x2
 10445 0437 31       		.byte	0x31
 10446 0438 9F       		.byte	0x9f
 10447 0439 00000000 		.4byte	0
 10448 043d 00000000 		.4byte	0
 10449              	.LLST24:
 10450 0441 3C010000 		.4byte	.LVL178
 10451 0445 60010000 		.4byte	.LVL181
 10452 0449 0200     		.2byte	0x2
 10453 044b 31       		.byte	0x31
 10454 044c 9F       		.byte	0x9f
 10455 044d 00000000 		.4byte	0
 10456 0451 00000000 		.4byte	0
 10457              	.LLST25:
 10458 0455 6A010000 		.4byte	.LVL182
 10459 0459 DA010000 		.4byte	.LVL189
 10460 045d 0200     		.2byte	0x2
ARM GAS  C:\Users\Administrator\AppData\Local\Temp\ccNLOfxN.s 			page 225


 10461 045f 32       		.byte	0x32
 10462 0460 9F       		.byte	0x9f
 10463 0461 00000000 		.4byte	0
 10464 0465 00000000 		.4byte	0
 10465              	.LLST26:
 10466 0469 E4010000 		.4byte	.LVL190
 10467 046d FE010000 		.4byte	.LVL195
 10468 0471 0200     		.2byte	0x2
 10469 0473 31       		.byte	0x31
 10470 0474 9F       		.byte	0x9f
 10471 0475 00000000 		.4byte	0
 10472 0479 00000000 		.4byte	0
 10473              	.LLST27:
 10474 047d 08020000 		.4byte	.LVL196
 10475 0481 32020000 		.4byte	.LVL199
 10476 0485 0200     		.2byte	0x2
 10477 0487 31       		.byte	0x31
 10478 0488 9F       		.byte	0x9f
 10479 0489 00000000 		.4byte	0
 10480 048d 00000000 		.4byte	0
 10481              	.LLST28:
 10482 0491 3C020000 		.4byte	.LVL200
 10483 0495 64020000 		.4byte	.LVL203
 10484 0499 0200     		.2byte	0x2
 10485 049b 31       		.byte	0x31
 10486 049c 9F       		.byte	0x9f
 10487 049d 00000000 		.4byte	0
 10488 04a1 00000000 		.4byte	0
 10489              	.LLST29:
 10490 04a5 76020000 		.4byte	.LVL205
 10491 04a9 94020000 		.4byte	.LVL209
 10492 04ad 0200     		.2byte	0x2
 10493 04af 33       		.byte	0x33
 10494 04b0 9F       		.byte	0x9f
 10495 04b1 00000000 		.4byte	0
 10496 04b5 00000000 		.4byte	0
 10497              	.LLST30:
 10498 04b9 4C000000 		.4byte	.LVL228
 10499 04bd 4E000000 		.4byte	.LVL229
 10500 04c1 0100     		.2byte	0x1
 10501 04c3 50       		.byte	0x50
 10502 04c4 4E000000 		.4byte	.LVL229
 10503 04c8 76000000 		.4byte	.LVL233
 10504 04cc 0100     		.2byte	0x1
 10505 04ce 54       		.byte	0x54
 10506 04cf 76000000 		.4byte	.LVL233
 10507 04d3 8A000000 		.4byte	.LVL234
 10508 04d7 0300     		.2byte	0x3
 10509 04d9 74       		.byte	0x74
 10510 04da 71       		.sleb128 -15
 10511 04db 9F       		.byte	0x9f
 10512 04dc 00000000 		.4byte	0
 10513 04e0 00000000 		.4byte	0
 10514              	.LLST31:
 10515 04e4 64000000 		.4byte	.LVL248
 10516 04e8 6E000000 		.4byte	.LVL249
 10517 04ec 0100     		.2byte	0x1
ARM GAS  C:\Users\Administrator\AppData\Local\Temp\ccNLOfxN.s 			page 226


 10518 04ee 50       		.byte	0x50
 10519 04ef 6E000000 		.4byte	.LVL249
 10520 04f3 74000000 		.4byte	.LVL250
 10521 04f7 0300     		.2byte	0x3
 10522 04f9 70       		.byte	0x70
 10523 04fa 71       		.sleb128 -15
 10524 04fb 9F       		.byte	0x9f
 10525 04fc 74000000 		.4byte	.LVL250
 10526 0500 79000000 		.4byte	.LVL251-1
 10527 0504 0900     		.2byte	0x9
 10528 0506 03       		.byte	0x3
 10529 0507 00000000 		.4byte	next_allupload_time
 10530 050b 06       		.byte	0x6
 10531 050c 3F       		.byte	0x3f
 10532 050d 1C       		.byte	0x1c
 10533 050e 9F       		.byte	0x9f
 10534 050f 00000000 		.4byte	0
 10535 0513 00000000 		.4byte	0
 10536              	.LLST32:
 10537 0517 00000000 		.4byte	.LVL260
 10538 051b 44000000 		.4byte	.LVL264
 10539 051f 0200     		.2byte	0x2
 10540 0521 30       		.byte	0x30
 10541 0522 9F       		.byte	0x9f
 10542 0523 44000000 		.4byte	.LVL264
 10543 0527 A0000000 		.4byte	.LVL274
 10544 052b 0700     		.2byte	0x7
 10545 052d 77       		.byte	0x77
 10546 052e 00       		.sleb128 0
 10547 052f 0A       		.byte	0xa
 10548 0530 8813     		.2byte	0x1388
 10549 0532 1D       		.byte	0x1d
 10550 0533 9F       		.byte	0x9f
 10551 0534 C0000000 		.4byte	.LVL276
 10552 0538 C2000000 		.4byte	.LVL277
 10553 053c 0700     		.2byte	0x7
 10554 053e 77       		.byte	0x77
 10555 053f 00       		.sleb128 0
 10556 0540 0A       		.byte	0xa
 10557 0541 8813     		.2byte	0x1388
 10558 0543 1D       		.byte	0x1d
 10559 0544 9F       		.byte	0x9f
 10560 0545 00000000 		.4byte	0
 10561 0549 00000000 		.4byte	0
 10562              	.LLST33:
 10563 054d 52000000 		.4byte	.LVL265
 10564 0551 54000000 		.4byte	.LVL266
 10565 0555 0200     		.2byte	0x2
 10566 0557 30       		.byte	0x30
 10567 0558 9F       		.byte	0x9f
 10568 0559 58000000 		.4byte	.LVL267
 10569 055d 5C000000 		.4byte	.LVL268
 10570 0561 0100     		.2byte	0x1
 10571 0563 54       		.byte	0x54
 10572 0564 5C000000 		.4byte	.LVL268
 10573 0568 60000000 		.4byte	.LVL269
 10574 056c 0300     		.2byte	0x3
ARM GAS  C:\Users\Administrator\AppData\Local\Temp\ccNLOfxN.s 			page 227


 10575 056e 73       		.byte	0x73
 10576 056f 01       		.sleb128 1
 10577 0570 9F       		.byte	0x9f
 10578 0571 60000000 		.4byte	.LVL269
 10579 0575 68000000 		.4byte	.LVL270
 10580 0579 0300     		.2byte	0x3
 10581 057b 74       		.byte	0x74
 10582 057c 01       		.sleb128 1
 10583 057d 9F       		.byte	0x9f
 10584 057e 68000000 		.4byte	.LVL270
 10585 0582 72000000 		.4byte	.LVL271
 10586 0586 0100     		.2byte	0x1
 10587 0588 54       		.byte	0x54
 10588 0589 72000000 		.4byte	.LVL271
 10589 058d 9A000000 		.4byte	.LVL273
 10590 0591 0300     		.2byte	0x3
 10591 0593 74       		.byte	0x74
 10592 0594 01       		.sleb128 1
 10593 0595 9F       		.byte	0x9f
 10594 0596 9A000000 		.4byte	.LVL273
 10595 059a E0000000 		.4byte	.LVL279
 10596 059e 0100     		.2byte	0x1
 10597 05a0 54       		.byte	0x54
 10598 05a1 00000000 		.4byte	0
 10599 05a5 00000000 		.4byte	0
 10600              	.LLST34:
 10601 05a9 00000000 		.4byte	.LVL280
 10602 05ad 0C000000 		.4byte	.LVL282
 10603 05b1 0100     		.2byte	0x1
 10604 05b3 50       		.byte	0x50
 10605 05b4 0C000000 		.4byte	.LVL282
 10606 05b8 5E000000 		.4byte	.LVL290
 10607 05bc 0100     		.2byte	0x1
 10608 05be 55       		.byte	0x55
 10609 05bf 5E000000 		.4byte	.LVL290
 10610 05c3 74000000 		.4byte	.LFE92
 10611 05c7 0400     		.2byte	0x4
 10612 05c9 F3       		.byte	0xf3
 10613 05ca 01       		.uleb128 0x1
 10614 05cb 50       		.byte	0x50
 10615 05cc 9F       		.byte	0x9f
 10616 05cd 00000000 		.4byte	0
 10617 05d1 00000000 		.4byte	0
 10618              	.LLST35:
 10619 05d5 00000000 		.4byte	.LVL280
 10620 05d9 06000000 		.4byte	.LVL281
 10621 05dd 0100     		.2byte	0x1
 10622 05df 51       		.byte	0x51
 10623 05e0 06000000 		.4byte	.LVL281
 10624 05e4 5E000000 		.4byte	.LVL289
 10625 05e8 0100     		.2byte	0x1
 10626 05ea 54       		.byte	0x54
 10627 05eb 5E000000 		.4byte	.LVL289
 10628 05ef 74000000 		.4byte	.LFE92
 10629 05f3 0400     		.2byte	0x4
 10630 05f5 F3       		.byte	0xf3
 10631 05f6 01       		.uleb128 0x1
ARM GAS  C:\Users\Administrator\AppData\Local\Temp\ccNLOfxN.s 			page 228


 10632 05f7 51       		.byte	0x51
 10633 05f8 9F       		.byte	0x9f
 10634 05f9 00000000 		.4byte	0
 10635 05fd 00000000 		.4byte	0
 10636              	.LLST36:
 10637 0601 20000000 		.4byte	.LVL284
 10638 0605 30000000 		.4byte	.LVL285
 10639 0609 0400     		.2byte	0x4
 10640 060b 73       		.byte	0x73
 10641 060c 00       		.sleb128 0
 10642 060d 1F       		.byte	0x1f
 10643 060e 9F       		.byte	0x9f
 10644 060f 3A000000 		.4byte	.LVL286
 10645 0613 52000000 		.4byte	.LVL287
 10646 0617 0100     		.2byte	0x1
 10647 0619 53       		.byte	0x53
 10648 061a 00000000 		.4byte	0
 10649 061e 00000000 		.4byte	0
 10650              	.LLST37:
 10651 0622 00000000 		.4byte	.LVL291
 10652 0626 1A000000 		.4byte	.LVL293
 10653 062a 0100     		.2byte	0x1
 10654 062c 50       		.byte	0x50
 10655 062d 1A000000 		.4byte	.LVL293
 10656 0631 A4000000 		.4byte	.LVL301
 10657 0635 0100     		.2byte	0x1
 10658 0637 55       		.byte	0x55
 10659 0638 A4000000 		.4byte	.LVL301
 10660 063c AC000000 		.4byte	.LFE93
 10661 0640 0400     		.2byte	0x4
 10662 0642 F3       		.byte	0xf3
 10663 0643 01       		.uleb128 0x1
 10664 0644 50       		.byte	0x50
 10665 0645 9F       		.byte	0x9f
 10666 0646 00000000 		.4byte	0
 10667 064a 00000000 		.4byte	0
 10668              	.LLST38:
 10669 064e 00000000 		.4byte	.LVL291
 10670 0652 14000000 		.4byte	.LVL292
 10671 0656 0100     		.2byte	0x1
 10672 0658 51       		.byte	0x51
 10673 0659 14000000 		.4byte	.LVL292
 10674 065d 7E000000 		.4byte	.LVL298
 10675 0661 0200     		.2byte	0x2
 10676 0663 91       		.byte	0x91
 10677 0664 4C       		.sleb128 -52
 10678 0665 7E000000 		.4byte	.LVL298
 10679 0669 AC000000 		.4byte	.LFE93
 10680 066d 0400     		.2byte	0x4
 10681 066f F3       		.byte	0xf3
 10682 0670 01       		.uleb128 0x1
 10683 0671 51       		.byte	0x51
 10684 0672 9F       		.byte	0x9f
 10685 0673 00000000 		.4byte	0
 10686 0677 00000000 		.4byte	0
 10687              	.LLST39:
 10688 067b 78000000 		.4byte	.LVL297
ARM GAS  C:\Users\Administrator\AppData\Local\Temp\ccNLOfxN.s 			page 229


 10689 067f 7E000000 		.4byte	.LVL298
 10690 0683 0200     		.2byte	0x2
 10691 0685 30       		.byte	0x30
 10692 0686 9F       		.byte	0x9f
 10693 0687 7E000000 		.4byte	.LVL298
 10694 068b 9C000000 		.4byte	.LVL299
 10695 068f 0100     		.2byte	0x1
 10696 0691 52       		.byte	0x52
 10697 0692 9C000000 		.4byte	.LVL299
 10698 0696 9E000000 		.4byte	.LVL300
 10699 069a 0300     		.2byte	0x3
 10700 069c 72       		.byte	0x72
 10701 069d 01       		.sleb128 1
 10702 069e 9F       		.byte	0x9f
 10703 069f 00000000 		.4byte	0
 10704 06a3 00000000 		.4byte	0
 10705              	.LLST40:
 10706 06a7 C4000000 		.4byte	.LVL332
 10707 06ab CB000000 		.4byte	.LVL333-1
 10708 06af 0100     		.2byte	0x1
 10709 06b1 50       		.byte	0x50
 10710 06b2 D0000000 		.4byte	.LVL334
 10711 06b6 D7000000 		.4byte	.LVL335-1
 10712 06ba 0100     		.2byte	0x1
 10713 06bc 50       		.byte	0x50
 10714 06bd DA000000 		.4byte	.LVL336
 10715 06c1 DD000000 		.4byte	.LVL337-1
 10716 06c5 0100     		.2byte	0x1
 10717 06c7 50       		.byte	0x50
 10718 06c8 00000000 		.4byte	0
 10719 06cc 00000000 		.4byte	0
 10720              	.LLST41:
 10721 06d0 58000000 		.4byte	.LVL313
 10722 06d4 5E000000 		.4byte	.LVL314
 10723 06d8 0100     		.2byte	0x1
 10724 06da 50       		.byte	0x50
 10725 06db 60000000 		.4byte	.LVL315
 10726 06df 62000000 		.4byte	.LVL316
 10727 06e3 0100     		.2byte	0x1
 10728 06e5 50       		.byte	0x50
 10729 06e6 00000000 		.4byte	0
 10730 06ea 00000000 		.4byte	0
 10731              	.LLST42:
 10732 06ee 6C000000 		.4byte	.LVL318
 10733 06f2 6E000000 		.4byte	.LVL319
 10734 06f6 0200     		.2byte	0x2
 10735 06f8 30       		.byte	0x30
 10736 06f9 9F       		.byte	0x9f
 10737 06fa 6E000000 		.4byte	.LVL319
 10738 06fe 70000000 		.4byte	.LVL320
 10739 0702 0500     		.2byte	0x5
 10740 0704 4F       		.byte	0x4f
 10741 0705 75       		.byte	0x75
 10742 0706 00       		.sleb128 0
 10743 0707 1C       		.byte	0x1c
 10744 0708 9F       		.byte	0x9f
 10745 0709 00000000 		.4byte	0
ARM GAS  C:\Users\Administrator\AppData\Local\Temp\ccNLOfxN.s 			page 230


 10746 070d 00000000 		.4byte	0
 10747              		.section	.debug_aranges,"",%progbits
 10748 0000 14010000 		.4byte	0x114
 10749 0004 0200     		.2byte	0x2
 10750 0006 00000000 		.4byte	.Ldebug_info0
 10751 000a 04       		.byte	0x4
 10752 000b 00       		.byte	0
 10753 000c 0000     		.2byte	0
 10754 000e 0000     		.2byte	0
 10755 0010 00000000 		.4byte	.LFB63
 10756 0014 74000000 		.4byte	.LFE63-.LFB63
 10757 0018 00000000 		.4byte	.LFB64
 10758 001c 50000000 		.4byte	.LFE64-.LFB64
 10759 0020 00000000 		.4byte	.LFB67
 10760 0024 16000000 		.4byte	.LFE67-.LFB67
 10761 0028 00000000 		.4byte	.LFB68
 10762 002c 0E000000 		.4byte	.LFE68-.LFB68
 10763 0030 00000000 		.4byte	.LFB69
 10764 0034 0E000000 		.4byte	.LFE69-.LFB69
 10765 0038 00000000 		.4byte	.LFB70
 10766 003c 0E000000 		.4byte	.LFE70-.LFB70
 10767 0040 00000000 		.4byte	.LFB71
 10768 0044 2A000000 		.4byte	.LFE71-.LFB71
 10769 0048 00000000 		.4byte	.LFB72
 10770 004c 0A000000 		.4byte	.LFE72-.LFB72
 10771 0050 00000000 		.4byte	.LFB73
 10772 0054 0A000000 		.4byte	.LFE73-.LFB73
 10773 0058 00000000 		.4byte	.LFB79
 10774 005c 14000000 		.4byte	.LFE79-.LFB79
 10775 0060 00000000 		.4byte	.LFB80
 10776 0064 1C000000 		.4byte	.LFE80-.LFB80
 10777 0068 00000000 		.4byte	.LFB81
 10778 006c 14000000 		.4byte	.LFE81-.LFB81
 10779 0070 00000000 		.4byte	.LFB82
 10780 0074 14000000 		.4byte	.LFE82-.LFB82
 10781 0078 00000000 		.4byte	.LFB83
 10782 007c 24000000 		.4byte	.LFE83-.LFB83
 10783 0080 00000000 		.4byte	.LFB84
 10784 0084 68000000 		.4byte	.LFE84-.LFB84
 10785 0088 00000000 		.4byte	.LFB87
 10786 008c 20010000 		.4byte	.LFE87-.LFB87
 10787 0090 00000000 		.4byte	.LFB65
 10788 0094 50000000 		.4byte	.LFE65-.LFB65
 10789 0098 00000000 		.4byte	.LFB66
 10790 009c 20000000 		.4byte	.LFE66-.LFB66
 10791 00a0 00000000 		.4byte	.LFB74
 10792 00a4 3A000000 		.4byte	.LFE74-.LFB74
 10793 00a8 00000000 		.4byte	.LFB75
 10794 00ac 9C000000 		.4byte	.LFE75-.LFB75
 10795 00b0 00000000 		.4byte	.LFB76
 10796 00b4 74000000 		.4byte	.LFE76-.LFB76
 10797 00b8 00000000 		.4byte	.LFB77
 10798 00bc 3C000000 		.4byte	.LFE77-.LFB77
 10799 00c0 00000000 		.4byte	.LFB86
 10800 00c4 14030000 		.4byte	.LFE86-.LFB86
 10801 00c8 00000000 		.4byte	.LFB78
 10802 00cc 16000000 		.4byte	.LFE78-.LFB78
ARM GAS  C:\Users\Administrator\AppData\Local\Temp\ccNLOfxN.s 			page 231


 10803 00d0 00000000 		.4byte	.LFB85
 10804 00d4 28000000 		.4byte	.LFE85-.LFB85
 10805 00d8 00000000 		.4byte	.LFB88
 10806 00dc B4000000 		.4byte	.LFE88-.LFB88
 10807 00e0 00000000 		.4byte	.LFB89
 10808 00e4 A4000000 		.4byte	.LFE89-.LFB89
 10809 00e8 00000000 		.4byte	.LFB90
 10810 00ec 54000000 		.4byte	.LFE90-.LFB90
 10811 00f0 00000000 		.4byte	.LFB91
 10812 00f4 10010000 		.4byte	.LFE91-.LFB91
 10813 00f8 00000000 		.4byte	.LFB92
 10814 00fc 74000000 		.4byte	.LFE92-.LFB92
 10815 0100 00000000 		.4byte	.LFB93
 10816 0104 AC000000 		.4byte	.LFE93-.LFB93
 10817 0108 00000000 		.4byte	.LFB94
 10818 010c 1C010000 		.4byte	.LFE94-.LFB94
 10819 0110 00000000 		.4byte	0
 10820 0114 00000000 		.4byte	0
 10821              		.section	.debug_ranges,"",%progbits
 10822              	.Ldebug_ranges0:
 10823 0000 00000000 		.4byte	.LFB63
 10824 0004 74000000 		.4byte	.LFE63
 10825 0008 00000000 		.4byte	.LFB64
 10826 000c 50000000 		.4byte	.LFE64
 10827 0010 00000000 		.4byte	.LFB67
 10828 0014 16000000 		.4byte	.LFE67
 10829 0018 00000000 		.4byte	.LFB68
 10830 001c 0E000000 		.4byte	.LFE68
 10831 0020 00000000 		.4byte	.LFB69
 10832 0024 0E000000 		.4byte	.LFE69
 10833 0028 00000000 		.4byte	.LFB70
 10834 002c 0E000000 		.4byte	.LFE70
 10835 0030 00000000 		.4byte	.LFB71
 10836 0034 2A000000 		.4byte	.LFE71
 10837 0038 00000000 		.4byte	.LFB72
 10838 003c 0A000000 		.4byte	.LFE72
 10839 0040 00000000 		.4byte	.LFB73
 10840 0044 0A000000 		.4byte	.LFE73
 10841 0048 00000000 		.4byte	.LFB79
 10842 004c 14000000 		.4byte	.LFE79
 10843 0050 00000000 		.4byte	.LFB80
 10844 0054 1C000000 		.4byte	.LFE80
 10845 0058 00000000 		.4byte	.LFB81
 10846 005c 14000000 		.4byte	.LFE81
 10847 0060 00000000 		.4byte	.LFB82
 10848 0064 14000000 		.4byte	.LFE82
 10849 0068 00000000 		.4byte	.LFB83
 10850 006c 24000000 		.4byte	.LFE83
 10851 0070 00000000 		.4byte	.LFB84
 10852 0074 68000000 		.4byte	.LFE84
 10853 0078 00000000 		.4byte	.LFB87
 10854 007c 20010000 		.4byte	.LFE87
 10855 0080 00000000 		.4byte	.LFB65
 10856 0084 50000000 		.4byte	.LFE65
 10857 0088 00000000 		.4byte	.LFB66
 10858 008c 20000000 		.4byte	.LFE66
 10859 0090 00000000 		.4byte	.LFB74
ARM GAS  C:\Users\Administrator\AppData\Local\Temp\ccNLOfxN.s 			page 232


 10860 0094 3A000000 		.4byte	.LFE74
 10861 0098 00000000 		.4byte	.LFB75
 10862 009c 9C000000 		.4byte	.LFE75
 10863 00a0 00000000 		.4byte	.LFB76
 10864 00a4 74000000 		.4byte	.LFE76
 10865 00a8 00000000 		.4byte	.LFB77
 10866 00ac 3C000000 		.4byte	.LFE77
 10867 00b0 00000000 		.4byte	.LFB86
 10868 00b4 14030000 		.4byte	.LFE86
 10869 00b8 00000000 		.4byte	.LFB78
 10870 00bc 16000000 		.4byte	.LFE78
 10871 00c0 00000000 		.4byte	.LFB85
 10872 00c4 28000000 		.4byte	.LFE85
 10873 00c8 00000000 		.4byte	.LFB88
 10874 00cc B4000000 		.4byte	.LFE88
 10875 00d0 00000000 		.4byte	.LFB89
 10876 00d4 A4000000 		.4byte	.LFE89
 10877 00d8 00000000 		.4byte	.LFB90
 10878 00dc 54000000 		.4byte	.LFE90
 10879 00e0 00000000 		.4byte	.LFB91
 10880 00e4 10010000 		.4byte	.LFE91
 10881 00e8 00000000 		.4byte	.LFB92
 10882 00ec 74000000 		.4byte	.LFE92
 10883 00f0 00000000 		.4byte	.LFB93
 10884 00f4 AC000000 		.4byte	.LFE93
 10885 00f8 00000000 		.4byte	.LFB94
 10886 00fc 1C010000 		.4byte	.LFE94
 10887 0100 00000000 		.4byte	0
 10888 0104 00000000 		.4byte	0
 10889              		.section	.debug_line,"",%progbits
 10890              	.Ldebug_line0:
 10891 0000 7C090000 		.section	.debug_str,"MS",%progbits,1
 10891      0200FF03 
 10891      00000201 
 10891      FB0E0D00 
 10891      01010101 
 10892              	.LASF606:
 10893 0000 666C6167 		.ascii	"flag_reboot\000"
 10893      5F726562 
 10893      6F6F7400 
 10894              	.LASF545:
 10895 000c 6F70656E 		.ascii	"openInfo_FIRE\000"
 10895      496E666F 
 10895      5F464952 
 10895      4500
 10896              	.LASF474:
 10897 001a 4359424C 		.ascii	"CYBLE_EVT_UDSC_READ_CHAR_RESPONSE\000"
 10897      455F4556 
 10897      545F5544 
 10897      53435F52 
 10897      4541445F 
 10898              	.LASF403:
 10899 003c 4359424C 		.ascii	"CYBLE_EVT_HTSS_NOTIFICATION_DISABLED\000"
 10899      455F4556 
 10899      545F4854 
 10899      53535F4E 
 10899      4F544946 
ARM GAS  C:\Users\Administrator\AppData\Local\Temp\ccNLOfxN.s 			page 233


 10900              	.LASF217:
 10901 0061 7363616E 		.ascii	"scanRspData\000"
 10901      52737044 
 10901      61746100 
 10902              	.LASF434:
 10903 006d 4359424C 		.ascii	"CYBLE_EVT_PASSC_NOTIFICATION\000"
 10903      455F4556 
 10903      545F5041 
 10903      5353435F 
 10903      4E4F5449 
 10904              	.LASF686:
 10905 008a 43795379 		.ascii	"CySysGetResetReason\000"
 10905      73476574 
 10905      52657365 
 10905      74526561 
 10905      736F6E00 
 10906              	.LASF245:
 10907 009e 4359424C 		.ascii	"CYBLE_DIS_CHAR_COUNT\000"
 10907      455F4449 
 10907      535F4348 
 10907      41525F43 
 10907      4F554E54 
 10908              	.LASF24:
 10909 00b3 73697A65 		.ascii	"sizetype\000"
 10909      74797065 
 10909      00
 10910              	.LASF634:
 10911 00bc 444F4F52 		.ascii	"DOOR_OPEN_Write\000"
 10911      5F4F5045 
 10911      4E5F5772 
 10911      69746500 
 10912              	.LASF291:
 10913 00cc 4359424C 		.ascii	"CYBLE_EVT_BCSC_READ_CHAR_RESPONSE\000"
 10913      455F4556 
 10913      545F4243 
 10913      53435F52 
 10913      4541445F 
 10914              	.LASF314:
 10915 00ee 4359424C 		.ascii	"CYBLE_EVT_CGMSC_INDICATION\000"
 10915      455F4556 
 10915      545F4347 
 10915      4D53435F 
 10915      494E4449 
 10916              	.LASF332:
 10917 0109 4359424C 		.ascii	"CYBLE_EVT_CPSC_READ_DESCR_RESPONSE\000"
 10917      455F4556 
 10917      545F4350 
 10917      53435F52 
 10917      4541445F 
 10918              	.LASF106:
 10919 012c 656B6579 		.ascii	"ekeySize\000"
 10919      53697A65 
 10919      00
 10920              	.LASF581:
 10921 0135 47505253 		.ascii	"GPRSCmdParseFlag1\000"
 10921      436D6450 
 10921      61727365 
ARM GAS  C:\Users\Administrator\AppData\Local\Temp\ccNLOfxN.s 			page 234


 10921      466C6167 
 10921      3100
 10922              	.LASF451:
 10923 0147 4359424C 		.ascii	"CYBLE_EVT_RTUSS_WRITE_CHAR_CMD\000"
 10923      455F4556 
 10923      545F5254 
 10923      5553535F 
 10923      57524954 
 10924              	.LASF430:
 10925 0166 4359424C 		.ascii	"CYBLE_EVT_NDCSC_READ_CHAR_RESPONSE\000"
 10925      455F4556 
 10925      545F4E44 
 10925      4353435F 
 10925      52454144 
 10926              	.LASF485:
 10927 0189 4359424C 		.ascii	"CYBLE_EVT_WPTSC_NOTIFICATION\000"
 10927      455F4556 
 10927      545F5750 
 10927      5453435F 
 10927      4E4F5449 
 10928              	.LASF683:
 10929 01a6 54696D65 		.ascii	"Timer_INT_ISR_StartEx\000"
 10929      725F494E 
 10929      545F4953 
 10929      525F5374 
 10929      61727445 
 10930              	.LASF491:
 10931 01bc 4359424C 		.ascii	"CYBLE_EVT_WSSS_INDICATION_ENABLED\000"
 10931      455F4556 
 10931      545F5753 
 10931      53535F49 
 10931      4E444943 
 10932              	.LASF330:
 10933 01de 4359424C 		.ascii	"CYBLE_EVT_CPSC_READ_CHAR_RESPONSE\000"
 10933      455F4556 
 10933      545F4350 
 10933      53435F52 
 10933      4541445F 
 10934              	.LASF587:
 10935 0200 426C6543 		.ascii	"BleCmdBuf\000"
 10935      6D644275 
 10935      6600
 10936              	.LASF296:
 10937 020a 4359424C 		.ascii	"CYBLE_EVT_BLSS_INDICATION_CONFIRMED\000"
 10937      455F4556 
 10937      545F424C 
 10937      53535F49 
 10937      4E444943 
 10938              	.LASF343:
 10939 022e 4359424C 		.ascii	"CYBLE_EVT_CSCSC_READ_CHAR_RESPONSE\000"
 10939      455F4556 
 10939      545F4353 
 10939      4353435F 
 10939      52454144 
 10940              	.LASF667:
 10941 0251 73656E64 		.ascii	"send_heartbeat\000"
 10941      5F686561 
ARM GAS  C:\Users\Administrator\AppData\Local\Temp\ccNLOfxN.s 			page 235


 10941      72746265 
 10941      617400
 10942              	.LASF319:
 10943 0260 4359424C 		.ascii	"CYBLE_EVT_CGMSC_WRITE_DESCR_RESPONSE\000"
 10943      455F4556 
 10943      545F4347 
 10943      4D53435F 
 10943      57524954 
 10944              	.LASF374:
 10945 0285 4359424C 		.ascii	"CYBLE_EVT_GLSS_NOTIFICATION_DISABLED\000"
 10945      455F4556 
 10945      545F474C 
 10945      53535F4E 
 10945      4F544946 
 10946              	.LASF500:
 10947 02aa 6576656E 		.ascii	"eventParam\000"
 10947      74506172 
 10947      616D00
 10948              	.LASF301:
 10949 02b5 4359424C 		.ascii	"CYBLE_EVT_BLSC_READ_CHAR_RESPONSE\000"
 10949      455F4556 
 10949      545F424C 
 10949      53435F52 
 10949      4541445F 
 10950              	.LASF122:
 10951 02d7 4359424C 		.ascii	"CYBLE_EVT_GAP_DEVICE_CONNECTED\000"
 10951      455F4556 
 10951      545F4741 
 10951      505F4445 
 10951      56494345 
 10952              	.LASF635:
 10953 02f6 4379536F 		.ascii	"CySoftwareReset\000"
 10953      66747761 
 10953      72655265 
 10953      73657400 
 10954              	.LASF129:
 10955 0306 4359424C 		.ascii	"CYBLE_EVT_GATT_CONNECT_IND\000"
 10955      455F4556 
 10955      545F4741 
 10955      54545F43 
 10955      4F4E4E45 
 10956              	.LASF379:
 10957 0321 4359424C 		.ascii	"CYBLE_EVT_GLSC_WRITE_CHAR_RESPONSE\000"
 10957      455F4556 
 10957      545F474C 
 10957      53435F57 
 10957      52495445 
 10958              	.LASF192:
 10959 0344 4359424C 		.ascii	"CYBLE_BLESS_STATE_ECO_ON\000"
 10959      455F424C 
 10959      4553535F 
 10959      53544154 
 10959      455F4543 
 10960              	.LASF17:
 10961 035d 75696E74 		.ascii	"uint32\000"
 10961      333200
 10962              	.LASF671:
ARM GAS  C:\Users\Administrator\AppData\Local\Temp\ccNLOfxN.s 			page 236


 10963 0364 73656E64 		.ascii	"send_update_req\000"
 10963      5F757064 
 10963      6174655F 
 10963      72657100 
 10964              	.LASF668:
 10965 0374 47505253 		.ascii	"GPRS_CheckIfRecvClosed\000"
 10965      5F436865 
 10965      636B4966 
 10965      52656376 
 10965      436C6F73 
 10966              	.LASF195:
 10967 038b 4359424C 		.ascii	"CYBLE_BLESS_STATE_HIBERNATE\000"
 10967      455F424C 
 10967      4553535F 
 10967      53544154 
 10967      455F4849 
 10968              	.LASF450:
 10969 03a7 4359424C 		.ascii	"CYBLE_EVT_RSCSC_WRITE_DESCR_RESPONSE\000"
 10969      455F4556 
 10969      545F5253 
 10969      4353435F 
 10969      57524954 
 10970              	.LASF203:
 10971 03cc 4359424C 		.ascii	"CYBLE_GAPP_CONNECTABLE_HIGH_DC_DIRECTED_ADV\000"
 10971      455F4741 
 10971      50505F43 
 10971      4F4E4E45 
 10971      43544142 
 10972              	.LASF289:
 10973 03f8 4359424C 		.ascii	"CYBLE_EVT_BCSS_INDICATION_CONFIRMED\000"
 10973      455F4556 
 10973      545F4243 
 10973      53535F49 
 10973      4E444943 
 10974              	.LASF290:
 10975 041c 4359424C 		.ascii	"CYBLE_EVT_BCSC_INDICATION\000"
 10975      455F4556 
 10975      545F4243 
 10975      53435F49 
 10975      4E444943 
 10976              	.LASF233:
 10977 0436 626C6550 		.ascii	"blePwrLevelInDbm\000"
 10977      77724C65 
 10977      76656C49 
 10977      6E44626D 
 10977      00
 10978              	.LASF419:
 10979 0447 4359424C 		.ascii	"CYBLE_EVT_LNSS_INDICATION_DISABLED\000"
 10979      455F4556 
 10979      545F4C4E 
 10979      53535F49 
 10979      4E444943 
 10980              	.LASF351:
 10981 046a 4359424C 		.ascii	"CYBLE_EVT_CTSC_READ_CHAR_RESPONSE\000"
 10981      455F4556 
 10981      545F4354 
 10981      53435F52 
ARM GAS  C:\Users\Administrator\AppData\Local\Temp\ccNLOfxN.s 			page 237


 10981      4541445F 
 10982              	.LASF260:
 10983 048c 4359424C 		.ascii	"CYBLE_EVT_GATTC_SRVC_DISCOVERY_COMPLETE\000"
 10983      455F4556 
 10983      545F4741 
 10983      5454435F 
 10983      53525643 
 10984              	.LASF256:
 10985 04b4 4359424C 		.ascii	"CYBLE_EVT_GATTC_DESCR_DISCOVERY_FAILED\000"
 10985      455F4556 
 10985      545F4741 
 10985      5454435F 
 10985      44455343 
 10986              	.LASF444:
 10987 04db 4359424C 		.ascii	"CYBLE_EVT_RSCSS_CHAR_WRITE\000"
 10987      455F4556 
 10987      545F5253 
 10987      4353535F 
 10987      43484152 
 10988              	.LASF554:
 10989 04f6 6D61635F 		.ascii	"mac_conver_name\000"
 10989      636F6E76 
 10989      65725F6E 
 10989      616D6500 
 10990              	.LASF673:
 10991 0506 47505253 		.ascii	"GPRS_RESET_Write\000"
 10991      5F524553 
 10991      45545F57 
 10991      72697465 
 10991      00
 10992              	.LASF477:
 10993 0517 4359424C 		.ascii	"CYBLE_EVT_UDSC_WRITE_DESCR_RESPONSE\000"
 10993      455F4556 
 10993      545F5544 
 10993      53435F57 
 10993      52495445 
 10994              	.LASF393:
 10995 053b 4359424C 		.ascii	"CYBLE_EVT_HIDSC_WRITE_DESCR_RESPONSE\000"
 10995      455F4556 
 10995      545F4849 
 10995      4453435F 
 10995      57524954 
 10996              	.LASF459:
 10997 0560 4359424C 		.ascii	"CYBLE_EVT_TPSS_NOTIFICATION_ENABLED\000"
 10997      455F4556 
 10997      545F5450 
 10997      53535F4E 
 10997      4F544946 
 10998              	.LASF72:
 10999 0584 4359424C 		.ascii	"CYBLE_ERROR_GATT_DB_UUID_FRMT_UNSUPPORTED\000"
 10999      455F4552 
 10999      524F525F 
 10999      47415454 
 10999      5F44425F 
 11000              	.LASF287:
 11001 05ae 4359424C 		.ascii	"CYBLE_EVT_BCSS_INDICATION_ENABLED\000"
 11001      455F4556 
ARM GAS  C:\Users\Administrator\AppData\Local\Temp\ccNLOfxN.s 			page 238


 11001      545F4243 
 11001      53535F49 
 11001      4E444943 
 11002              	.LASF52:
 11003 05d0 4359424C 		.ascii	"CYBLE_ERROR_L2CAP_CONNECTION_ENTITY_NOT_FOUND\000"
 11003      455F4552 
 11003      524F525F 
 11003      4C324341 
 11003      505F434F 
 11004              	.LASF593:
 11005 05fe 6E657874 		.ascii	"next_allupload_time\000"
 11005      5F616C6C 
 11005      75706C6F 
 11005      61645F74 
 11005      696D6500 
 11006              	.LASF558:
 11007 0612 7365746E 		.ascii	"setname\000"
 11007      616D6500 
 11008              	.LASF77:
 11009 061a 4359424C 		.ascii	"CYBLE_ERROR_MIC_AUTH_FAILED\000"
 11009      455F4552 
 11009      524F525F 
 11009      4D49435F 
 11009      41555448 
 11010              	.LASF255:
 11011 0636 4359424C 		.ascii	"CYBLE_EVT_GATTC_CHAR_DISCOVERY_FAILED\000"
 11011      455F4556 
 11011      545F4741 
 11011      5454435F 
 11011      43484152 
 11012              	.LASF594:
 11013 065c 6E657874 		.ascii	"next_keyopen_time\000"
 11013      5F6B6579 
 11013      6F70656E 
 11013      5F74696D 
 11013      6500
 11014              	.LASF503:
 11015 066e 61757468 		.ascii	"authInfo\000"
 11015      496E666F 
 11015      00
 11016              	.LASF21:
 11017 0677 63686172 		.ascii	"char8\000"
 11017      3800
 11018              	.LASF690:
 11019 067d 5254435F 		.ascii	"RTC_Start\000"
 11019      53746172 
 11019      7400
 11020              	.LASF160:
 11021 0687 4359424C 		.ascii	"CYBLE_EVT_L2CAP_CBFC_RX_CREDIT_IND\000"
 11021      455F4556 
 11021      545F4C32 
 11021      4341505F 
 11021      43424643 
 11022              	.LASF35:
 11023 06aa 4359424C 		.ascii	"CYBLE_GATT_VALUE_T\000"
 11023      455F4741 
 11023      54545F56 
ARM GAS  C:\Users\Administrator\AppData\Local\Temp\ccNLOfxN.s 			page 239


 11023      414C5545 
 11023      5F5400
 11024              	.LASF592:
 11025 06bd 6E657874 		.ascii	"next_gprs_upload_time\000"
 11025      5F677072 
 11025      735F7570 
 11025      6C6F6164 
 11025      5F74696D 
 11026              	.LASF337:
 11027 06d3 4359424C 		.ascii	"CYBLE_EVT_CSCSS_INDICATION_ENABLED\000"
 11027      455F4556 
 11027      545F4353 
 11027      4353535F 
 11027      494E4449 
 11028              	.LASF424:
 11029 06f6 4359424C 		.ascii	"CYBLE_EVT_LNSC_INDICATION\000"
 11029      455F4556 
 11029      545F4C4E 
 11029      53435F49 
 11029      4E444943 
 11030              	.LASF88:
 11031 0710 74797065 		.ascii	"type\000"
 11031      00
 11032              	.LASF435:
 11033 0715 4359424C 		.ascii	"CYBLE_EVT_PASSC_READ_CHAR_RESPONSE\000"
 11033      455F4556 
 11033      545F5041 
 11033      5353435F 
 11033      52454144 
 11034              	.LASF101:
 11035 0738 4359424C 		.ascii	"CYBLE_GAP_AUTH_ERROR_AUTHENTICATION_TIMEOUT\000"
 11035      455F4741 
 11035      505F4155 
 11035      54485F45 
 11035      52524F52 
 11036              	.LASF294:
 11037 0764 4359424C 		.ascii	"CYBLE_EVT_BLSS_INDICATION_ENABLED\000"
 11037      455F4556 
 11037      545F424C 
 11037      53535F49 
 11037      4E444943 
 11038              	.LASF98:
 11039 0786 4359424C 		.ascii	"CYBLE_GAP_AUTH_ERROR_UNSPECIFIED_REASON\000"
 11039      455F4741 
 11039      505F4155 
 11039      54485F45 
 11039      52524F52 
 11040              	.LASF300:
 11041 07ae 4359424C 		.ascii	"CYBLE_EVT_BLSC_NOTIFICATION\000"
 11041      455F4556 
 11041      545F424C 
 11041      53435F4E 
 11041      4F544946 
 11042              	.LASF694:
 11043 07ca 47505253 		.ascii	"GPRS_TestAndWaitCommonOK\000"
 11043      5F546573 
 11043      74416E64 
ARM GAS  C:\Users\Administrator\AppData\Local\Temp\ccNLOfxN.s 			page 240


 11043      57616974 
 11043      436F6D6D 
 11044              	.LASF198:
 11045 07e3 4359424C 		.ascii	"CYBLE_CALLBACK_T\000"
 11045      455F4341 
 11045      4C4C4241 
 11045      434B5F54 
 11045      00
 11046              	.LASF342:
 11047 07f4 4359424C 		.ascii	"CYBLE_EVT_CSCSC_INDICATION\000"
 11047      455F4556 
 11047      545F4353 
 11047      4353435F 
 11047      494E4449 
 11048              	.LASF240:
 11049 080f 4359424C 		.ascii	"CYBLE_DIS_FIRMWARE_REV\000"
 11049      455F4449 
 11049      535F4649 
 11049      524D5741 
 11049      52455F52 
 11050              	.LASF559:
 11051 0826 73797374 		.ascii	"system_version\000"
 11051      656D5F76 
 11051      65727369 
 11051      6F6E00
 11052              	.LASF511:
 11053 0835 424C455F 		.ascii	"BLE_Tick\000"
 11053      5469636B 
 11053      00
 11054              	.LASF146:
 11055 083e 4359424C 		.ascii	"CYBLE_EVT_GATTC_HANDLE_VALUE_NTF\000"
 11055      455F4556 
 11055      545F4741 
 11055      5454435F 
 11055      48414E44 
 11056              	.LASF116:
 11057 085f 4359424C 		.ascii	"CYBLE_EVT_GAP_AUTH_REQ\000"
 11057      455F4556 
 11057      545F4741 
 11057      505F4155 
 11057      54485F52 
 11058              	.LASF262:
 11059 0876 4359424C 		.ascii	"CYBLE_EVT_GATTC_CHAR_DISCOVERY_COMPLETE\000"
 11059      455F4556 
 11059      545F4741 
 11059      5454435F 
 11059      43484152 
 11060              	.LASF174:
 11061 089e 4359424C 		.ascii	"CYBLE_CONN_HANDLE_T\000"
 11061      455F434F 
 11061      4E4E5F48 
 11061      414E444C 
 11061      455F5400 
 11062              	.LASF329:
 11063 08b2 4359424C 		.ascii	"CYBLE_EVT_CPSC_INDICATION\000"
 11063      455F4556 
 11063      545F4350 
ARM GAS  C:\Users\Administrator\AppData\Local\Temp\ccNLOfxN.s 			page 241


 11063      53435F49 
 11063      4E444943 
 11064              	.LASF47:
 11065 08cc 4359424C 		.ascii	"CYBLE_ERROR_BT_ON_NOT_COMPLETED\000"
 11065      455F4552 
 11065      524F525F 
 11065      42545F4F 
 11065      4E5F4E4F 
 11066              	.LASF341:
 11067 08ec 4359424C 		.ascii	"CYBLE_EVT_CSCSC_NOTIFICATION\000"
 11067      455F4556 
 11067      545F4353 
 11067      4353435F 
 11067      4E4F5449 
 11068              	.LASF472:
 11069 0909 4359424C 		.ascii	"CYBLE_EVT_UDSC_INDICATION\000"
 11069      455F4556 
 11069      545F5544 
 11069      53435F49 
 11069      4E444943 
 11070              	.LASF305:
 11071 0923 4359424C 		.ascii	"CYBLE_EVT_BMSC_READ_CHAR_RESPONSE\000"
 11071      455F4556 
 11071      545F424D 
 11071      53435F52 
 11071      4541445F 
 11072              	.LASF223:
 11073 0945 4359424C 		.ascii	"CYBLE_LL_PWR_LVL_NEG_3_DBM\000"
 11073      455F4C4C 
 11073      5F505752 
 11073      5F4C564C 
 11073      5F4E4547 
 11074              	.LASF70:
 11075 0960 4359424C 		.ascii	"CYBLE_ERROR_GATT_DB_INVALID_INSTANCE\000"
 11075      455F4552 
 11075      524F525F 
 11075      47415454 
 11075      5F44425F 
 11076              	.LASF169:
 11077 0985 4359424C 		.ascii	"CYBLE_STATE_ADVERTISING\000"
 11077      455F5354 
 11077      4154455F 
 11077      41445645 
 11077      52544953 
 11078              	.LASF624:
 11079 099d 4379426C 		.ascii	"CyBle_GattsWriteRsp\000"
 11079      655F4761 
 11079      74747357 
 11079      72697465 
 11079      52737000 
 11080              	.LASF172:
 11081 09b1 62644861 		.ascii	"bdHandle\000"
 11081      6E646C65 
 11081      00
 11082              	.LASF310:
 11083 09ba 4359424C 		.ascii	"CYBLE_EVT_CGMSS_INDICATION_CONFIRMED\000"
 11083      455F4556 
ARM GAS  C:\Users\Administrator\AppData\Local\Temp\ccNLOfxN.s 			page 242


 11083      545F4347 
 11083      4D53535F 
 11083      494E4449 
 11084              	.LASF3:
 11085 09df 5F5F7569 		.ascii	"__uint8_t\000"
 11085      6E74385F 
 11085      7400
 11086              	.LASF568:
 11087 09e9 75706461 		.ascii	"update_port\000"
 11087      74655F70 
 11087      6F727400 
 11088              	.LASF271:
 11089 09f5 4359424C 		.ascii	"CYBLE_EVT_ANCSC_WRITE_DESCR_RESPONSE\000"
 11089      455F4556 
 11089      545F414E 
 11089      4353435F 
 11089      57524954 
 11090              	.LASF91:
 11091 0a1a 4359424C 		.ascii	"CYBLE_GAP_AUTH_ERROR_PASSKEY_ENTRY_FAILED\000"
 11091      455F4741 
 11091      505F4155 
 11091      54485F45 
 11091      52524F52 
 11092              	.LASF621:
 11093 0a44 4379426C 		.ascii	"CyBle_GetDeviceAddress\000"
 11093      655F4765 
 11093      74446576 
 11093      69636541 
 11093      64647265 
 11094              	.LASF620:
 11095 0a5b 4379426C 		.ascii	"CyBle_SetTxPowerLevel\000"
 11095      655F5365 
 11095      74547850 
 11095      6F776572 
 11095      4C657665 
 11096              	.LASF302:
 11097 0a71 4359424C 		.ascii	"CYBLE_EVT_BLSC_READ_DESCR_RESPONSE\000"
 11097      455F4556 
 11097      545F424C 
 11097      53435F52 
 11097      4541445F 
 11098              	.LASF221:
 11099 0a94 4359424C 		.ascii	"CYBLE_LL_PWR_LVL_NEG_12_DBM\000"
 11099      455F4C4C 
 11099      5F505752 
 11099      5F4C564C 
 11099      5F4E4547 
 11100              	.LASF519:
 11101 0ab0 4C65645F 		.ascii	"Led_SetState\000"
 11101      53657453 
 11101      74617465 
 11101      00
 11102              	.LASF323:
 11103 0abd 4359424C 		.ascii	"CYBLE_EVT_CPSS_INDICATION_DISABLED\000"
 11103      455F4556 
 11103      545F4350 
 11103      53535F49 
ARM GAS  C:\Users\Administrator\AppData\Local\Temp\ccNLOfxN.s 			page 243


 11103      4E444943 
 11104              	.LASF322:
 11105 0ae0 4359424C 		.ascii	"CYBLE_EVT_CPSS_INDICATION_ENABLED\000"
 11105      455F4556 
 11105      545F4350 
 11105      53535F49 
 11105      4E444943 
 11106              	.LASF524:
 11107 0b02 52656376 		.ascii	"RecvTimeOut\000"
 11107      54696D65 
 11107      4F757400 
 11108              	.LASF421:
 11109 0b0e 4359424C 		.ascii	"CYBLE_EVT_LNSS_NOTIFICATION_ENABLED\000"
 11109      455F4556 
 11109      545F4C4E 
 11109      53535F4E 
 11109      4F544946 
 11110              	.LASF142:
 11111 0b32 4359424C 		.ascii	"CYBLE_EVT_GATTS_WRITE_CMD_REQ\000"
 11111      455F4556 
 11111      545F4741 
 11111      5454535F 
 11111      57524954 
 11112              	.LASF333:
 11113 0b50 4359424C 		.ascii	"CYBLE_EVT_CPSC_WRITE_DESCR_RESPONSE\000"
 11113      455F4556 
 11113      545F4350 
 11113      53435F57 
 11113      52495445 
 11114              	.LASF539:
 11115 0b74 47505253 		.ascii	"GPRS_Tick\000"
 11115      5F546963 
 11115      6B00
 11116              	.LASF695:
 11117 0b7e 47505253 		.ascii	"GPRS_OpenNetworkLED\000"
 11117      5F4F7065 
 11117      6E4E6574 
 11117      776F726B 
 11117      4C454400 
 11118              	.LASF20:
 11119 0b92 75696E74 		.ascii	"uint64\000"
 11119      363400
 11120              	.LASF6:
 11121 0b99 6C6F6E67 		.ascii	"long int\000"
 11121      20696E74 
 11121      00
 11122              	.LASF268:
 11123 0ba2 4359424C 		.ascii	"CYBLE_EVT_ANCSC_READ_CHAR_RESPONSE\000"
 11123      455F4556 
 11123      545F414E 
 11123      4353435F 
 11123      52454144 
 11124              	.LASF685:
 11125 0bc5 57323551 		.ascii	"W25QXX_Init\000"
 11125      58585F49 
 11125      6E697400 
 11126              	.LASF436:
ARM GAS  C:\Users\Administrator\AppData\Local\Temp\ccNLOfxN.s 			page 244


 11127 0bd1 4359424C 		.ascii	"CYBLE_EVT_PASSC_WRITE_CHAR_RESPONSE\000"
 11127      455F4556 
 11127      545F5041 
 11127      5353435F 
 11127      57524954 
 11128              	.LASF467:
 11129 0bf5 4359424C 		.ascii	"CYBLE_EVT_UDSS_INDICATION_CONFIRMED\000"
 11129      455F4556 
 11129      545F5544 
 11129      53535F49 
 11129      4E444943 
 11130              	.LASF679:
 11131 0c19 57726974 		.ascii	"Write_Open_UploadFlag\000"
 11131      655F4F70 
 11131      656E5F55 
 11131      706C6F61 
 11131      64466C61 
 11132              	.LASF248:
 11133 0c2f 4359424C 		.ascii	"CYBLE_LONG_TERM_KEY_REQUEST_REPLY\000"
 11133      455F4C4F 
 11133      4E475F54 
 11133      45524D5F 
 11133      4B45595F 
 11134              	.LASF110:
 11135 0c51 4359424C 		.ascii	"CYBLE_EVT_STACK_ON\000"
 11135      455F4556 
 11135      545F5354 
 11135      41434B5F 
 11135      4F4E00
 11136              	.LASF55:
 11137 0c64 4359424C 		.ascii	"CYBLE_ERROR_L2CAP_PSM_NOT_IN_RANGE\000"
 11137      455F4552 
 11137      524F525F 
 11137      4C324341 
 11137      505F5053 
 11138              	.LASF239:
 11139 0c87 4359424C 		.ascii	"CYBLE_DIS_HARDWARE_REV\000"
 11139      455F4449 
 11139      535F4841 
 11139      52445741 
 11139      52455F52 
 11140              	.LASF613:
 11141 0c9e 6379426C 		.ascii	"cyBle_deviceAddress\000"
 11141      655F6465 
 11141      76696365 
 11141      41646472 
 11141      65737300 
 11142              	.LASF702:
 11143 0cb2 6D61696E 		.ascii	"main\000"
 11143      00
 11144              	.LASF191:
 11145 0cb7 4359424C 		.ascii	"CYBLE_BLESS_STATE_SLEEP\000"
 11145      455F424C 
 11145      4553535F 
 11145      53544154 
 11145      455F534C 
 11146              	.LASF505:
ARM GAS  C:\Users\Administrator\AppData\Local\Temp\ccNLOfxN.s 			page 245


 11147 0ccf 6C6F6361 		.ascii	"locationWCRP\000"
 11147      74696F6E 
 11147      57435250 
 11147      00
 11148              	.LASF541:
 11149 0cdc 4B65794F 		.ascii	"KeyOpen_Tick\000"
 11149      70656E5F 
 11149      5469636B 
 11149      00
 11150              	.LASF369:
 11151 0ce9 4359424C 		.ascii	"CYBLE_EVT_ESSC_WRITE_DESCR_RESPONSE\000"
 11151      455F4556 
 11151      545F4553 
 11151      53435F57 
 11151      52495445 
 11152              	.LASF551:
 11153 0d0d 5365745F 		.ascii	"Set_DeviceMacAndName\000"
 11153      44657669 
 11153      63654D61 
 11153      63416E64 
 11153      4E616D65 
 11154              	.LASF629:
 11155 0d22 43795379 		.ascii	"CySysPmSleep\000"
 11155      73506D53 
 11155      6C656570 
 11155      00
 11156              	.LASF618:
 11157 0d2f 70696363 		.ascii	"picc_uid\000"
 11157      5F756964 
 11157      00
 11158              	.LASF402:
 11159 0d38 4359424C 		.ascii	"CYBLE_EVT_HTSS_NOTIFICATION_ENABLED\000"
 11159      455F4556 
 11159      545F4854 
 11159      53535F4E 
 11159      4F544946 
 11160              	.LASF94:
 11161 0d5c 4359424C 		.ascii	"CYBLE_GAP_AUTH_ERROR_CONFIRM_VALUE_NOT_MATCH\000"
 11161      455F4741 
 11161      505F4155 
 11161      54485F45 
 11161      52524F52 
 11162              	.LASF564:
 11163 0d89 646F6D61 		.ascii	"domain\000"
 11163      696E00
 11164              	.LASF84:
 11165 0d90 4359424C 		.ascii	"CYBLE_ERROR_CHAR_IS_NOT_DISCOVERED\000"
 11165      455F4552 
 11165      524F525F 
 11165      43484152 
 11165      5F49535F 
 11166              	.LASF470:
 11167 0db3 4359424C 		.ascii	"CYBLE_EVT_UDSS_READ_CHAR\000"
 11167      455F4556 
 11167      545F5544 
 11167      53535F52 
 11167      4541445F 
ARM GAS  C:\Users\Administrator\AppData\Local\Temp\ccNLOfxN.s 			page 246


 11168              	.LASF190:
 11169 0dcc 4359424C 		.ascii	"CYBLE_BLESS_STATE_EVENT_CLOSE\000"
 11169      455F424C 
 11169      4553535F 
 11169      53544154 
 11169      455F4556 
 11170              	.LASF647:
 11171 0dea 5744545F 		.ascii	"WDT_FeedDog\000"
 11171      46656564 
 11171      446F6700 
 11172              	.LASF178:
 11173 0df6 4359424C 		.ascii	"CYBLE_GATT_HANDLE_VALUE_PAIR_T\000"
 11173      455F4741 
 11173      54545F48 
 11173      414E444C 
 11173      455F5641 
 11174              	.LASF234:
 11175 0e15 626C6553 		.ascii	"bleSsChId\000"
 11175      73436849 
 11175      6400
 11176              	.LASF366:
 11177 0e1f 4359424C 		.ascii	"CYBLE_EVT_ESSC_READ_CHAR_RESPONSE\000"
 11177      455F4556 
 11177      545F4553 
 11177      53435F52 
 11177      4541445F 
 11178              	.LASF684:
 11179 0e41 54696D65 		.ascii	"Timer_100ms_Start\000"
 11179      725F3130 
 11179      306D735F 
 11179      53746172 
 11179      7400
 11180              	.LASF389:
 11181 0e53 4359424C 		.ascii	"CYBLE_EVT_HIDSC_NOTIFICATION\000"
 11181      455F4556 
 11181      545F4849 
 11181      4453435F 
 11181      4E4F5449 
 11182              	.LASF205:
 11183 0e70 4359424C 		.ascii	"CYBLE_GAPP_NON_CONNECTABLE_UNDIRECTED_ADV\000"
 11183      455F4741 
 11183      50505F4E 
 11183      4F4E5F43 
 11183      4F4E4E45 
 11184              	.LASF460:
 11185 0e9a 4359424C 		.ascii	"CYBLE_EVT_TPSS_NOTIFICATION_DISABLED\000"
 11185      455F4556 
 11185      545F5450 
 11185      53535F4E 
 11185      4F544946 
 11186              	.LASF154:
 11187 0ebf 4359424C 		.ascii	"CYBLE_EVT_L2CAP_COMMAND_REJ\000"
 11187      455F4556 
 11187      545F4C32 
 11187      4341505F 
 11187      434F4D4D 
 11188              	.LASF253:
ARM GAS  C:\Users\Administrator\AppData\Local\Temp\ccNLOfxN.s 			page 247


 11189 0edb 4359424C 		.ascii	"CYBLE_EVT_GATTC_SRVC_DISCOVERY_FAILED\000"
 11189      455F4556 
 11189      545F4741 
 11189      5454435F 
 11189      53525643 
 11190              	.LASF386:
 11191 0f01 4359424C 		.ascii	"CYBLE_EVT_HIDSS_SUSPEND\000"
 11191      455F4556 
 11191      545F4849 
 11191      4453535F 
 11191      53555350 
 11192              	.LASF546:
 11193 0f19 44656665 		.ascii	"DefendAlarm_Tick\000"
 11193      6E64416C 
 11193      61726D5F 
 11193      5469636B 
 11193      00
 11194              	.LASF67:
 11195 0f2a 4359424C 		.ascii	"CYBLE_ERROR_GATT_DB_INVALID_ATTR_HANDLE\000"
 11195      455F4552 
 11195      524F525F 
 11195      47415454 
 11195      5F44425F 
 11196              	.LASF0:
 11197 0f52 7369676E 		.ascii	"signed char\000"
 11197      65642063 
 11197      68617200 
 11198              	.LASF220:
 11199 0f5e 4359424C 		.ascii	"CYBLE_LL_PWR_LVL_NEG_18_DBM\000"
 11199      455F4C4C 
 11199      5F505752 
 11199      5F4C564C 
 11199      5F4E4547 
 11200              	.LASF12:
 11201 0f7a 75696E74 		.ascii	"uint8_t\000"
 11201      385F7400 
 11202              	.LASF660:
 11203 0f82 55415254 		.ascii	"UART_433_Start\000"
 11203      5F343333 
 11203      5F537461 
 11203      727400
 11204              	.LASF502:
 11205 0f91 6C6F6361 		.ascii	"localAddr\000"
 11205      6C416464 
 11205      7200
 11206              	.LASF497:
 11207 0f9b 4359424C 		.ascii	"CYBLE_EVT_WSSC_WRITE_DESCR_RESPONSE\000"
 11207      455F4556 
 11207      545F5753 
 11207      53435F57 
 11207      52495445 
 11208              	.LASF285:
 11209 0fbf 4359424C 		.ascii	"CYBLE_EVT_BASC_READ_DESCR_RESPONSE\000"
 11209      455F4556 
 11209      545F4241 
 11209      53435F52 
 11209      4541445F 
ARM GAS  C:\Users\Administrator\AppData\Local\Temp\ccNLOfxN.s 			page 248


 11210              	.LASF367:
 11211 0fe2 4359424C 		.ascii	"CYBLE_EVT_ESSC_WRITE_CHAR_RESPONSE\000"
 11211      455F4556 
 11211      545F4553 
 11211      53435F57 
 11211      52495445 
 11212              	.LASF112:
 11213 1005 4359424C 		.ascii	"CYBLE_EVT_HARDWARE_ERROR\000"
 11213      455F4556 
 11213      545F4841 
 11213      52445741 
 11213      52455F45 
 11214              	.LASF36:
 11215 101e 4359424C 		.ascii	"CYBLE_ERROR_OK\000"
 11215      455F4552 
 11215      524F525F 
 11215      4F4B00
 11216              	.LASF232:
 11217 102d 4359424C 		.ascii	"CYBLE_BLESS_PHY_CH_GRP_ID_T\000"
 11217      455F424C 
 11217      4553535F 
 11217      5048595F 
 11217      43485F47 
 11218              	.LASF604:
 11219 1049 43617264 		.ascii	"CardCheck_CountTime\000"
 11219      43686563 
 11219      6B5F436F 
 11219      756E7454 
 11219      696D6500 
 11220              	.LASF133:
 11221 105d 4359424C 		.ascii	"CYBLE_EVT_GATTC_READ_BY_GROUP_TYPE_RSP\000"
 11221      455F4556 
 11221      545F4741 
 11221      5454435F 
 11221      52454144 
 11222              	.LASF166:
 11223 1084 4359424C 		.ascii	"CYBLE_STATE_STOPPED\000"
 11223      455F5354 
 11223      4154455F 
 11223      53544F50 
 11223      50454400 
 11224              	.LASF463:
 11225 1098 4359424C 		.ascii	"CYBLE_EVT_TPSC_READ_DESCR_RESPONSE\000"
 11225      455F4556 
 11225      545F5450 
 11225      53435F52 
 11225      4541445F 
 11226              	.LASF441:
 11227 10bb 4359424C 		.ascii	"CYBLE_EVT_RSCSS_INDICATION_ENABLED\000"
 11227      455F4556 
 11227      545F5253 
 11227      4353535F 
 11227      494E4449 
 11228              	.LASF523:
 11229 10de 43617264 		.ascii	"CardCheckTimeOut\000"
 11229      43686563 
 11229      6B54696D 
ARM GAS  C:\Users\Administrator\AppData\Local\Temp\ccNLOfxN.s 			page 249


 11229      654F7574 
 11229      00
 11230              	.LASF1:
 11231 10ef 756E7369 		.ascii	"unsigned char\000"
 11231      676E6564 
 11231      20636861 
 11231      7200
 11232              	.LASF132:
 11233 10fd 4359424C 		.ascii	"CYBLE_EVT_GATTC_XCHNG_MTU_RSP\000"
 11233      455F4556 
 11233      545F4741 
 11233      5454435F 
 11233      5843484E 
 11234              	.LASF324:
 11235 111b 4359424C 		.ascii	"CYBLE_EVT_CPSS_INDICATION_CONFIRMED\000"
 11235      455F4556 
 11235      545F4350 
 11235      53535F49 
 11235      4E444943 
 11236              	.LASF521:
 11237 113f 446F6F72 		.ascii	"DoorClose\000"
 11237      436C6F73 
 11237      6500
 11238              	.LASF659:
 11239 1149 636D6434 		.ascii	"cmd433_INT_ISR_StartEx\000"
 11239      33335F49 
 11239      4E545F49 
 11239      53525F53 
 11239      74617274 
 11240              	.LASF321:
 11241 1160 4359424C 		.ascii	"CYBLE_EVT_CPSS_NOTIFICATION_DISABLED\000"
 11241      455F4556 
 11241      545F4350 
 11241      53535F4E 
 11241      4F544946 
 11242              	.LASF446:
 11243 1185 4359424C 		.ascii	"CYBLE_EVT_RSCSC_INDICATION\000"
 11243      455F4556 
 11243      545F5253 
 11243      4353435F 
 11243      494E4449 
 11244              	.LASF496:
 11245 11a0 4359424C 		.ascii	"CYBLE_EVT_WSSC_READ_DESCR_RESPONSE\000"
 11245      455F4556 
 11245      545F5753 
 11245      53435F52 
 11245      4541445F 
 11246              	.LASF550:
 11247 11c3 72657065 		.ascii	"repet_info\000"
 11247      745F696E 
 11247      666F00
 11248              	.LASF184:
 11249 11ce 4359424C 		.ascii	"CYBLE_BLESS_SLEEP\000"
 11249      455F424C 
 11249      4553535F 
 11249      534C4545 
 11249      5000
ARM GAS  C:\Users\Administrator\AppData\Local\Temp\ccNLOfxN.s 			page 250


 11250              	.LASF517:
 11251 11e0 4C65645F 		.ascii	"Led_GreenON\000"
 11251      47726565 
 11251      6E4F4E00 
 11252              	.LASF161:
 11253 11ec 4359424C 		.ascii	"CYBLE_EVT_L2CAP_CBFC_TX_CREDIT_IND\000"
 11253      455F4556 
 11253      545F4C32 
 11253      4341505F 
 11253      43424643 
 11254              	.LASF54:
 11255 120f 4359424C 		.ascii	"CYBLE_ERROR_L2CAP_NOT_ENOUGH_CREDITS\000"
 11255      455F4552 
 11255      524F525F 
 11255      4C324341 
 11255      505F4E4F 
 11256              	.LASF513:
 11257 1234 696E7465 		.ascii	"interruptStatus\000"
 11257      72727570 
 11257      74537461 
 11257      74757300 
 11258              	.LASF623:
 11259 1244 4379426C 		.ascii	"CyBle_GappStartAdvertisement\000"
 11259      655F4761 
 11259      70705374 
 11259      61727441 
 11259      64766572 
 11260              	.LASF252:
 11261 1261 4359424C 		.ascii	"CYBLE_EVT_GATTC_INDICATION\000"
 11261      455F4556 
 11261      545F4741 
 11261      5454435F 
 11261      494E4449 
 11262              	.LASF100:
 11263 127c 4359424C 		.ascii	"CYBLE_GAP_AUTH_ERROR_INVALID_PARAMETERS\000"
 11263      455F4741 
 11263      505F4155 
 11263      54485F45 
 11263      52524F52 
 11264              	.LASF189:
 11265 12a4 4359424C 		.ascii	"CYBLE_BLESS_STATE_ACTIVE\000"
 11265      455F424C 
 11265      4553535F 
 11265      53544154 
 11265      455F4143 
 11266              	.LASF201:
 11267 12bd 4359424C 		.ascii	"CYBLE_GAPP_DISC_DATA_T\000"
 11267      455F4741 
 11267      50505F44 
 11267      4953435F 
 11267      44415441 
 11268              	.LASF453:
 11269 12d4 4359424C 		.ascii	"CYBLE_EVT_SCPSS_NOTIFICATION_ENABLED\000"
 11269      455F4556 
 11269      545F5343 
 11269      5053535F 
 11269      4E4F5449 
ARM GAS  C:\Users\Administrator\AppData\Local\Temp\ccNLOfxN.s 			page 251


 11270              	.LASF158:
 11271 12f9 4359424C 		.ascii	"CYBLE_EVT_L2CAP_CBFC_DISCONN_CNF\000"
 11271      455F4556 
 11271      545F4C32 
 11271      4341505F 
 11271      43424643 
 11272              	.LASF136:
 11273 131a 4359424C 		.ascii	"CYBLE_EVT_GATTC_FIND_BY_TYPE_VALUE_RSP\000"
 11273      455F4556 
 11273      545F4741 
 11273      5454435F 
 11273      46494E44 
 11274              	.LASF264:
 11275 1341 4359424C 		.ascii	"CYBLE_EVT_ANCSS_NOTIFICATION_ENABLED\000"
 11275      455F4556 
 11275      545F414E 
 11275      4353535F 
 11275      4E4F5449 
 11276              	.LASF188:
 11277 1366 4359424C 		.ascii	"CYBLE_LP_MODE_T\000"
 11277      455F4C50 
 11277      5F4D4F44 
 11277      455F5400 
 11278              	.LASF666:
 11279 1376 73656E64 		.ascii	"send_send_mac_and_get_blekey\000"
 11279      5F73656E 
 11279      645F6D61 
 11279      635F616E 
 11279      645F6765 
 11280              	.LASF649:
 11281 1393 50726F74 		.ascii	"Protocol_CmdParse_BLE\000"
 11281      6F636F6C 
 11281      5F436D64 
 11281      50617273 
 11281      655F424C 
 11282              	.LASF458:
 11283 13a9 4359424C 		.ascii	"CYBLE_EVT_SCPSC_WRITE_DESCR_RESPONSE\000"
 11283      455F4556 
 11283      545F5343 
 11283      5053435F 
 11283      57524954 
 11284              	.LASF32:
 11285 13ce 73656E64 		.ascii	"send_time\000"
 11285      5F74696D 
 11285      6500
 11286              	.LASF22:
 11287 13d8 63686172 		.ascii	"char\000"
 11287      00
 11288              	.LASF224:
 11289 13dd 4359424C 		.ascii	"CYBLE_LL_PWR_LVL_NEG_2_DBM\000"
 11289      455F4C4C 
 11289      5F505752 
 11289      5F4C564C 
 11289      5F4E4547 
 11290              	.LASF557:
 11291 13f8 7365746D 		.ascii	"setmac\000"
 11291      616300
ARM GAS  C:\Users\Administrator\AppData\Local\Temp\ccNLOfxN.s 			page 252


 11292              	.LASF57:
 11293 13ff 4359424C 		.ascii	"CYBLE_ERROR_GATT_DB_NULL_PARAMETER_NOT_ALLOWED\000"
 11293      455F4552 
 11293      524F525F 
 11293      47415454 
 11293      5F44425F 
 11294              	.LASF461:
 11295 142e 4359424C 		.ascii	"CYBLE_EVT_TPSC_NOTIFICATION\000"
 11295      455F4556 
 11295      545F5450 
 11295      53435F4E 
 11295      4F544946 
 11296              	.LASF139:
 11297 144a 4359424C 		.ascii	"CYBLE_EVT_GATTC_READ_MULTI_RSP\000"
 11297      455F4556 
 11297      545F4741 
 11297      5454435F 
 11297      52454144 
 11298              	.LASF563:
 11299 1469 53656E64 		.ascii	"SendMacFlag\000"
 11299      4D616346 
 11299      6C616700 
 11300              	.LASF108:
 11301 1475 4359424C 		.ascii	"CYBLE_GAP_AUTH_INFO_T\000"
 11301      455F4741 
 11301      505F4155 
 11301      54485F49 
 11301      4E464F5F 
 11302              	.LASF641:
 11303 148b 55736572 		.ascii	"UserData_Judge_If_Open\000"
 11303      44617461 
 11303      5F4A7564 
 11303      67655F49 
 11303      665F4F70 
 11304              	.LASF109:
 11305 14a2 4359424C 		.ascii	"CYBLE_EVT_HOST_INVALID\000"
 11305      455F4556 
 11305      545F484F 
 11305      53545F49 
 11305      4E56414C 
 11306              	.LASF622:
 11307 14b9 426C6552 		.ascii	"BleRecv\000"
 11307      65637600 
 11308              	.LASF380:
 11309 14c1 4359424C 		.ascii	"CYBLE_EVT_GLSC_READ_DESCR_RESPONSE\000"
 11309      455F4556 
 11309      545F474C 
 11309      53435F52 
 11309      4541445F 
 11310              	.LASF4:
 11311 14e4 5F5F7569 		.ascii	"__uint16_t\000"
 11311      6E743136 
 11311      5F7400
 11312              	.LASF43:
 11313 14ef 4359424C 		.ascii	"CYBLE_ERROR_NO_DEVICE_ENTITY\000"
 11313      455F4552 
 11313      524F525F 
ARM GAS  C:\Users\Administrator\AppData\Local\Temp\ccNLOfxN.s 			page 253


 11313      4E4F5F44 
 11313      45564943 
 11314              	.LASF138:
 11315 150c 4359424C 		.ascii	"CYBLE_EVT_GATTC_READ_BLOB_RSP\000"
 11315      455F4556 
 11315      545F4741 
 11315      5454435F 
 11315      52454144 
 11316              	.LASF405:
 11317 152a 4359424C 		.ascii	"CYBLE_EVT_HTSS_INDICATION_DISABLED\000"
 11317      455F4556 
 11317      545F4854 
 11317      53535F49 
 11317      4E444943 
 11318              	.LASF452:
 11319 154d 4359424C 		.ascii	"CYBLE_EVT_RTUSC_READ_CHAR_RESPONSE\000"
 11319      455F4556 
 11319      545F5254 
 11319      5553435F 
 11319      52454144 
 11320              	.LASF553:
 11321 1570 6C6F6361 		.ascii	"local_name\000"
 11321      6C5F6E61 
 11321      6D6500
 11322              	.LASF145:
 11323 157b 4359424C 		.ascii	"CYBLE_EVT_GATTC_EXEC_WRITE_RSP\000"
 11323      455F4556 
 11323      545F4741 
 11323      5454435F 
 11323      45584543 
 11324              	.LASF703:
 11325 159a 496E6974 		.ascii	"InitializeBootloaderSRAM\000"
 11325      69616C69 
 11325      7A65426F 
 11325      6F746C6F 
 11325      61646572 
 11326              	.LASF603:
 11327 15b3 68656172 		.ascii	"heartbeat_lasttime\000"
 11327      74626561 
 11327      745F6C61 
 11327      73747469 
 11327      6D6500
 11328              	.LASF493:
 11329 15c6 4359424C 		.ascii	"CYBLE_EVT_WSSS_INDICATION_CONFIRMED\000"
 11329      455F4556 
 11329      545F5753 
 11329      53535F49 
 11329      4E444943 
 11330              	.LASF518:
 11331 15ea 4C65645F 		.ascii	"Led_BlueON\000"
 11331      426C7565 
 11331      4F4E00
 11332              	.LASF65:
 11333 15f5 4359424C 		.ascii	"CYBLE_ERROR_GATT_DB_INVALID_OPERATION\000"
 11333      455F4552 
 11333      524F525F 
 11333      47415454 
ARM GAS  C:\Users\Administrator\AppData\Local\Temp\ccNLOfxN.s 			page 254


 11333      5F44425F 
 11334              	.LASF675:
 11335 161b 4B45595F 		.ascii	"KEY_OPEN_Read\000"
 11335      4F50454E 
 11335      5F526561 
 11335      6400
 11336              	.LASF466:
 11337 1629 4359424C 		.ascii	"CYBLE_EVT_UDSS_INDICATION_DISABLED\000"
 11337      455F4556 
 11337      545F5544 
 11337      53535F49 
 11337      4E444943 
 11338              	.LASF437:
 11339 164c 4359424C 		.ascii	"CYBLE_EVT_PASSC_READ_DESCR_RESPONSE\000"
 11339      455F4556 
 11339      545F5041 
 11339      5353435F 
 11339      52454144 
 11340              	.LASF241:
 11341 1670 4359424C 		.ascii	"CYBLE_DIS_SOFTWARE_REV\000"
 11341      455F4449 
 11341      535F534F 
 11341      46545741 
 11341      52455F52 
 11342              	.LASF575:
 11343 1687 52656164 		.ascii	"Read_Mac_Flag\000"
 11343      5F4D6163 
 11343      5F466C61 
 11343      6700
 11344              	.LASF150:
 11345 1695 4359424C 		.ascii	"CYBLE_EVT_GATTC_STOP_CMD_COMPLETE\000"
 11345      455F4556 
 11345      545F4741 
 11345      5454435F 
 11345      53544F50 
 11346              	.LASF327:
 11347 16b7 4359424C 		.ascii	"CYBLE_EVT_CPSS_CHAR_WRITE\000"
 11347      455F4556 
 11347      545F4350 
 11347      53535F43 
 11347      4841525F 
 11348              	.LASF394:
 11349 16d1 4359424C 		.ascii	"CYBLE_EVT_HRSS_ENERGY_EXPENDED_RESET\000"
 11349      455F4556 
 11349      545F4852 
 11349      53535F45 
 11349      4E455247 
 11350              	.LASF237:
 11351 16f6 4359424C 		.ascii	"CYBLE_DIS_MODEL_NUMBER\000"
 11351      455F4449 
 11351      535F4D4F 
 11351      44454C5F 
 11351      4E554D42 
 11352              	.LASF357:
 11353 170d 4359424C 		.ascii	"CYBLE_EVT_ESSS_NOTIFICATION_DISABLED\000"
 11353      455F4556 
 11353      545F4553 
ARM GAS  C:\Users\Administrator\AppData\Local\Temp\ccNLOfxN.s 			page 255


 11353      53535F4E 
 11353      4F544946 
 11354              	.LASF480:
 11355 1732 4359424C 		.ascii	"CYBLE_EVT_WPTSS_NOTIFICATION_DISABLED\000"
 11355      455F4556 
 11355      545F5750 
 11355      5453535F 
 11355      4E4F5449 
 11356              	.LASF538:
 11357 1758 47505253 		.ascii	"GPRSPowerDown\000"
 11357      506F7765 
 11357      72446F77 
 11357      6E00
 11358              	.LASF297:
 11359 1766 4359424C 		.ascii	"CYBLE_EVT_BLSS_NOTIFICATION_ENABLED\000"
 11359      455F4556 
 11359      545F424C 
 11359      53535F4E 
 11359      4F544946 
 11360              	.LASF242:
 11361 178a 4359424C 		.ascii	"CYBLE_DIS_SYSTEM_ID\000"
 11361      455F4449 
 11361      535F5359 
 11361      5354454D 
 11361      5F494400 
 11362              	.LASF494:
 11363 179e 4359424C 		.ascii	"CYBLE_EVT_WSSC_INDICATION\000"
 11363      455F4556 
 11363      545F5753 
 11363      53435F49 
 11363      4E444943 
 11364              	.LASF37:
 11365 17b8 4359424C 		.ascii	"CYBLE_ERROR_INVALID_PARAMETER\000"
 11365      455F4552 
 11365      524F525F 
 11365      494E5641 
 11365      4C49445F 
 11366              	.LASF365:
 11367 17d6 4359424C 		.ascii	"CYBLE_EVT_ESSC_INDICATION\000"
 11367      455F4556 
 11367      545F4553 
 11367      53435F49 
 11367      4E444943 
 11368              	.LASF59:
 11369 17f0 4359424C 		.ascii	"CYBLE_ERROR_GATT_DB_INSUFFICIENT_BUFFER_LEN\000"
 11369      455F4552 
 11369      524F525F 
 11369      47415454 
 11369      5F44425F 
 11370              	.LASF448:
 11371 181c 4359424C 		.ascii	"CYBLE_EVT_RSCSC_WRITE_CHAR_RESPONSE\000"
 11371      455F4556 
 11371      545F5253 
 11371      4353435F 
 11371      57524954 
 11372              	.LASF464:
 11373 1840 4359424C 		.ascii	"CYBLE_EVT_TPSC_WRITE_DESCR_RESPONSE\000"
ARM GAS  C:\Users\Administrator\AppData\Local\Temp\ccNLOfxN.s 			page 256


 11373      455F4556 
 11373      545F5450 
 11373      53435F57 
 11373      52495445 
 11374              	.LASF69:
 11375 1864 4359424C 		.ascii	"CYBLE_ERROR_GATT_DB_INSUFFICIENT_ENC_KEY_SIZE\000"
 11375      455F4552 
 11375      524F525F 
 11375      47415454 
 11375      5F44425F 
 11376              	.LASF336:
 11377 1892 4359424C 		.ascii	"CYBLE_EVT_CSCSS_NOTIFICATION_DISABLED\000"
 11377      455F4556 
 11377      545F4353 
 11377      4353535F 
 11377      4E4F5449 
 11378              	.LASF347:
 11379 18b8 4359424C 		.ascii	"CYBLE_EVT_CTSS_NOTIFICATION_ENABLED\000"
 11379      455F4556 
 11379      545F4354 
 11379      53535F4E 
 11379      4F544946 
 11380              	.LASF442:
 11381 18dc 4359424C 		.ascii	"CYBLE_EVT_RSCSS_INDICATION_DISABLED\000"
 11381      455F4556 
 11381      545F5253 
 11381      4353535F 
 11381      494E4449 
 11382              	.LASF81:
 11383 1900 4359424C 		.ascii	"CYBLE_DESCR_DISC_DONE\000"
 11383      455F4445 
 11383      5343525F 
 11383      44495343 
 11383      5F444F4E 
 11384              	.LASF206:
 11385 1916 4359424C 		.ascii	"CYBLE_GAPP_CONNECTABLE_LOW_DC_DIRECTED_ADV\000"
 11385      455F4741 
 11385      50505F43 
 11385      4F4E4E45 
 11385      43544142 
 11386              	.LASF484:
 11387 1941 4359424C 		.ascii	"CYBLE_EVT_WPTSS_WRITE_CHAR\000"
 11387      455F4556 
 11387      545F5750 
 11387      5453535F 
 11387      57524954 
 11388              	.LASF415:
 11389 195c 4359424C 		.ascii	"CYBLE_EVT_LLSS_WRITE_CHAR_REQ\000"
 11389      455F4556 
 11389      545F4C4C 
 11389      53535F57 
 11389      52495445 
 11390              	.LASF39:
 11391 197a 4359424C 		.ascii	"CYBLE_ERROR_MEMORY_ALLOCATION_FAILED\000"
 11391      455F4552 
 11391      524F525F 
 11391      4D454D4F 
ARM GAS  C:\Users\Administrator\AppData\Local\Temp\ccNLOfxN.s 			page 257


 11391      52595F41 
 11392              	.LASF400:
 11393 199f 4359424C 		.ascii	"CYBLE_EVT_HRSC_READ_DESCR_RESPONSE\000"
 11393      455F4556 
 11393      545F4852 
 11393      53435F52 
 11393      4541445F 
 11394              	.LASF507:
 11395 19c2 626C655F 		.ascii	"ble_heartbeat\000"
 11395      68656172 
 11395      74626561 
 11395      7400
 11396              	.LASF335:
 11397 19d0 4359424C 		.ascii	"CYBLE_EVT_CSCSS_NOTIFICATION_ENABLED\000"
 11397      455F4556 
 11397      545F4353 
 11397      4353535F 
 11397      4E4F5449 
 11398              	.LASF619:
 11399 19f5 70696363 		.ascii	"picc_sak\000"
 11399      5F73616B 
 11399      00
 11400              	.LASF299:
 11401 19fe 4359424C 		.ascii	"CYBLE_EVT_BLSC_INDICATION\000"
 11401      455F4556 
 11401      545F424C 
 11401      53435F49 
 11401      4E444943 
 11402              	.LASF525:
 11403 1a18 55706461 		.ascii	"UpdateTimeOut\000"
 11403      74655469 
 11403      6D654F75 
 11403      7400
 11404              	.LASF610:
 11405 1a26 6E657874 		.ascii	"next_defend_flag\000"
 11405      5F646566 
 11405      656E645F 
 11405      666C6167 
 11405      00
 11406              	.LASF388:
 11407 1a37 4359424C 		.ascii	"CYBLE_EVT_HIDSS_REPORT_CHAR_WRITE\000"
 11407      455F4556 
 11407      545F4849 
 11407      4453535F 
 11407      5245504F 
 11408              	.LASF542:
 11409 1a59 74696D65 		.ascii	"time_tmp\000"
 11409      5F746D70 
 11409      00
 11410              	.LASF676:
 11411 1a62 46495245 		.ascii	"FIRE_OPEN_Read\000"
 11411      5F4F5045 
 11411      4E5F5265 
 11411      616400
 11412              	.LASF488:
 11413 1a71 4359424C 		.ascii	"CYBLE_EVT_WPTSC_READ_CHAR_RESPONSE\000"
 11413      455F4556 
ARM GAS  C:\Users\Administrator\AppData\Local\Temp\ccNLOfxN.s 			page 258


 11413      545F5750 
 11413      5453435F 
 11413      52454144 
 11414              	.LASF588:
 11415 1a94 426C6543 		.ascii	"BleCmdValidFlag\000"
 11415      6D645661 
 11415      6C696446 
 11415      6C616700 
 11416              	.LASF78:
 11417 1aa4 4359424C 		.ascii	"CYBLE_ERROR_MAX\000"
 11417      455F4552 
 11417      524F525F 
 11417      4D415800 
 11418              	.LASF427:
 11419 1ab4 4359424C 		.ascii	"CYBLE_EVT_LNSC_WRITE_CHAR_RESPONSE\000"
 11419      455F4556 
 11419      545F4C4E 
 11419      53435F57 
 11419      52495445 
 11420              	.LASF153:
 11421 1ad7 4359424C 		.ascii	"CYBLE_EVT_L2CAP_CONN_PARAM_UPDATE_RSP\000"
 11421      455F4556 
 11421      545F4C32 
 11421      4341505F 
 11421      434F4E4E 
 11422              	.LASF102:
 11423 1afd 4359424C 		.ascii	"CYBLE_GAP_AUTH_ERROR_LINK_DISCONNECTED\000"
 11423      455F4741 
 11423      505F4155 
 11423      54485F45 
 11423      52524F52 
 11424              	.LASF278:
 11425 1b24 4359424C 		.ascii	"CYBLE_EVT_ANSC_WRITE_CHAR_RESPONSE\000"
 11425      455F4556 
 11425      545F414E 
 11425      53435F57 
 11425      52495445 
 11426              	.LASF469:
 11427 1b47 4359424C 		.ascii	"CYBLE_EVT_UDSS_NOTIFICATION_DISABLED\000"
 11427      455F4556 
 11427      545F5544 
 11427      53535F4E 
 11427      4F544946 
 11428              	.LASF653:
 11429 1b6c 47505253 		.ascii	"GPRS_WaitInitFinish\000"
 11429      5F576169 
 11429      74496E69 
 11429      7446696E 
 11429      69736800 
 11430              	.LASF346:
 11431 1b80 4359424C 		.ascii	"CYBLE_EVT_CSCSC_WRITE_DESCR_RESPONSE\000"
 11431      455F4556 
 11431      545F4353 
 11431      4353435F 
 11431      57524954 
 11432              	.LASF362:
 11433 1ba5 4359424C 		.ascii	"CYBLE_EVT_ESSS_EXEC_WRITE_REQ\000"
ARM GAS  C:\Users\Administrator\AppData\Local\Temp\ccNLOfxN.s 			page 259


 11433      455F4556 
 11433      545F4553 
 11433      53535F45 
 11433      5845435F 
 11434              	.LASF31:
 11435 1bc3 6F70656E 		.ascii	"open_time\000"
 11435      5F74696D 
 11435      6500
 11436              	.LASF187:
 11437 1bcd 4359424C 		.ascii	"CYBLE_BLESS_INVALID\000"
 11437      455F424C 
 11437      4553535F 
 11437      494E5641 
 11437      4C494400 
 11438              	.LASF216:
 11439 1be1 4359424C 		.ascii	"CYBLE_GAPP_DISC_PARAM_T\000"
 11439      455F4741 
 11439      50505F44 
 11439      4953435F 
 11439      50415241 
 11440              	.LASF567:
 11441 1bf9 75706461 		.ascii	"update_ip\000"
 11441      74655F69 
 11441      7000
 11442              	.LASF395:
 11443 1c03 4359424C 		.ascii	"CYBLE_EVT_HRSS_NOTIFICATION_ENABLED\000"
 11443      455F4556 
 11443      545F4852 
 11443      53535F4E 
 11443      4F544946 
 11444              	.LASF372:
 11445 1c27 4359424C 		.ascii	"CYBLE_EVT_GLSS_INDICATION_CONFIRMED\000"
 11445      455F4556 
 11445      545F474C 
 11445      53535F49 
 11445      4E444943 
 11446              	.LASF63:
 11447 1c4b 4359424C 		.ascii	"CYBLE_ERROR_GATT_DB_HANDLE_NOT_IN_RANGE\000"
 11447      455F4552 
 11447      524F525F 
 11447      47415454 
 11447      5F44425F 
 11448              	.LASF599:
 11449 1c73 75706461 		.ascii	"update_timeout_count\000"
 11449      74655F74 
 11449      696D656F 
 11449      75745F63 
 11449      6F756E74 
 11450              	.LASF531:
 11451 1c88 6172725F 		.ascii	"arr_time\000"
 11451      74696D65 
 11451      00
 11452              	.LASF60:
 11453 1c91 4359424C 		.ascii	"CYBLE_ERROR_GATT_DB_MORE_MATCHING_RESULT_FOUND\000"
 11453      455F4552 
 11453      524F525F 
 11453      47415454 
ARM GAS  C:\Users\Administrator\AppData\Local\Temp\ccNLOfxN.s 			page 260


 11453      5F44425F 
 11454              	.LASF119:
 11455 1cc0 4359424C 		.ascii	"CYBLE_EVT_GAP_AUTH_COMPLETE\000"
 11455      455F4556 
 11455      545F4741 
 11455      505F4155 
 11455      54485F43 
 11456              	.LASF215:
 11457 1cdc 61647646 		.ascii	"advFilterPolicy\000"
 11457      696C7465 
 11457      72506F6C 
 11457      69637900 
 11458              	.LASF368:
 11459 1cec 4359424C 		.ascii	"CYBLE_EVT_ESSC_READ_DESCR_RESPONSE\000"
 11459      455F4556 
 11459      545F4553 
 11459      53435F52 
 11459      4541445F 
 11460              	.LASF26:
 11461 1d0f 63617264 		.ascii	"card_uid\000"
 11461      5F756964 
 11461      00
 11462              	.LASF120:
 11463 1d18 4359424C 		.ascii	"CYBLE_EVT_GAP_AUTH_FAILED\000"
 11463      455F4556 
 11463      545F4741 
 11463      505F4155 
 11463      54485F46 
 11464              	.LASF387:
 11465 1d32 4359424C 		.ascii	"CYBLE_EVT_HIDSS_EXIT_SUSPEND\000"
 11465      455F4556 
 11465      545F4849 
 11465      4453535F 
 11465      45584954 
 11466              	.LASF197:
 11467 1d4f 4359424C 		.ascii	"CYBLE_BLESS_STATE_T\000"
 11467      455F424C 
 11467      4553535F 
 11467      53544154 
 11467      455F5400 
 11468              	.LASF33:
 11469 1d63 6F70656E 		.ascii	"open_door_t\000"
 11469      5F646F6F 
 11469      725F7400 
 11470              	.LASF79:
 11471 1d6f 4359424C 		.ascii	"CYBLE_INCL_DISC_DONE\000"
 11471      455F494E 
 11471      434C5F44 
 11471      4953435F 
 11471      444F4E45 
 11472              	.LASF210:
 11473 1d84 61647654 		.ascii	"advType\000"
 11473      79706500 
 11474              	.LASF353:
 11475 1d8c 4359424C 		.ascii	"CYBLE_EVT_CTSC_WRITE_DESCR_RESPONSE\000"
 11475      455F4556 
 11475      545F4354 
ARM GAS  C:\Users\Administrator\AppData\Local\Temp\ccNLOfxN.s 			page 261


 11475      53435F57 
 11475      52495445 
 11476              	.LASF40:
 11477 1db0 4359424C 		.ascii	"CYBLE_ERROR_INSUFFICIENT_RESOURCES\000"
 11477      455F4552 
 11477      524F525F 
 11477      494E5355 
 11477      46464943 
 11478              	.LASF617:
 11479 1dd3 70696363 		.ascii	"picc_atqa\000"
 11479      5F617471 
 11479      6100
 11480              	.LASF440:
 11481 1ddd 4359424C 		.ascii	"CYBLE_EVT_RSCSS_NOTIFICATION_DISABLED\000"
 11481      455F4556 
 11481      545F5253 
 11481      4353535F 
 11481      4E4F5449 
 11482              	.LASF391:
 11483 1e03 4359424C 		.ascii	"CYBLE_EVT_HIDSC_WRITE_CHAR_RESPONSE\000"
 11483      455F4556 
 11483      545F4849 
 11483      4453435F 
 11483      57524954 
 11484              	.LASF8:
 11485 1e27 6C6F6E67 		.ascii	"long unsigned int\000"
 11485      20756E73 
 11485      69676E65 
 11485      6420696E 
 11485      7400
 11486              	.LASF578:
 11487 1e39 72656376 		.ascii	"recv_timeout\000"
 11487      5F74696D 
 11487      656F7574 
 11487      00
 11488              	.LASF414:
 11489 1e46 4359424C 		.ascii	"CYBLE_EVT_IASS_WRITE_CHAR_CMD\000"
 11489      455F4556 
 11489      545F4941 
 11489      53535F57 
 11489      52495445 
 11490              	.LASF431:
 11491 1e64 4359424C 		.ascii	"CYBLE_EVT_PASSS_NOTIFICATION_ENABLED\000"
 11491      455F4556 
 11491      545F5041 
 11491      5353535F 
 11491      4E4F5449 
 11492              	.LASF225:
 11493 1e89 4359424C 		.ascii	"CYBLE_LL_PWR_LVL_NEG_1_DBM\000"
 11493      455F4C4C 
 11493      5F505752 
 11493      5F4C564C 
 11493      5F4E4547 
 11494              	.LASF481:
 11495 1ea4 4359424C 		.ascii	"CYBLE_EVT_WPTSS_INDICATION_ENABLED\000"
 11495      455F4556 
 11495      545F5750 
ARM GAS  C:\Users\Administrator\AppData\Local\Temp\ccNLOfxN.s 			page 262


 11495      5453535F 
 11495      494E4449 
 11496              	.LASF97:
 11497 1ec7 4359424C 		.ascii	"CYBLE_GAP_AUTH_ERROR_COMMAND_NOT_SUPPORTED\000"
 11497      455F4741 
 11497      505F4155 
 11497      54485F45 
 11497      52524F52 
 11498              	.LASF93:
 11499 1ef2 4359424C 		.ascii	"CYBLE_GAP_AUTH_ERROR_AUTHENTICATION_REQ_NOT_MET\000"
 11499      455F4741 
 11499      505F4155 
 11499      54485F45 
 11499      52524F52 
 11500              	.LASF579:
 11501 1f22 47505253 		.ascii	"GPRS_AT_Buf\000"
 11501      5F41545F 
 11501      42756600 
 11502              	.LASF633:
 11503 1f2e 4C45445F 		.ascii	"LED_GREEN_Write\000"
 11503      47524545 
 11503      4E5F5772 
 11503      69746500 
 11504              	.LASF73:
 11505 1f3e 4359424C 		.ascii	"CYBLE_ERROR_GATT_DB_TYPE_MISMATCH\000"
 11505      455F4552 
 11505      524F525F 
 11505      47415454 
 11505      5F44425F 
 11506              	.LASF277:
 11507 1f60 4359424C 		.ascii	"CYBLE_EVT_ANSC_READ_CHAR_RESPONSE\000"
 11507      455F4556 
 11507      545F414E 
 11507      53435F52 
 11507      4541445F 
 11508              	.LASF508:
 11509 1f82 47505253 		.ascii	"GPRS_SetON\000"
 11509      5F536574 
 11509      4F4E00
 11510              	.LASF428:
 11511 1f8d 4359424C 		.ascii	"CYBLE_EVT_LNSC_READ_DESCR_RESPONSE\000"
 11511      455F4556 
 11511      545F4C4E 
 11511      53435F52 
 11511      4541445F 
 11512              	.LASF50:
 11513 1fb0 4359424C 		.ascii	"CYBLE_ERROR_L2CAP_PSM_ALREADY_REGISTERED\000"
 11513      455F4552 
 11513      524F525F 
 11513      4C324341 
 11513      505F5053 
 11514              	.LASF407:
 11515 1fd9 4359424C 		.ascii	"CYBLE_EVT_HTSS_CHAR_WRITE\000"
 11515      455F4556 
 11515      545F4854 
 11515      53535F43 
 11515      4841525F 
ARM GAS  C:\Users\Administrator\AppData\Local\Temp\ccNLOfxN.s 			page 263


 11516              	.LASF574:
 11517 1ff3 496D6167 		.ascii	"Image_size\000"
 11517      655F7369 
 11517      7A6500
 11518              	.LASF114:
 11519 1ffe 4359424C 		.ascii	"CYBLE_EVT_STACK_BUSY_STATUS\000"
 11519      455F4556 
 11519      545F5354 
 11519      41434B5F 
 11519      42555359 
 11520              	.LASF58:
 11521 201a 4359424C 		.ascii	"CYBLE_ERROR_GATT_DB_UNSUPPORTED_GROUP_TYPE\000"
 11521      455F4552 
 11521      524F525F 
 11521      47415454 
 11521      5F44425F 
 11522              	.LASF281:
 11523 2045 4359424C 		.ascii	"CYBLE_EVT_BASS_NOTIFICATION_ENABLED\000"
 11523      455F4556 
 11523      545F4241 
 11523      53535F4E 
 11523      4F544946 
 11524              	.LASF355:
 11525 2069 4359424C 		.ascii	"CYBLE_EVT_DISC_READ_CHAR_RESPONSE\000"
 11525      455F4556 
 11525      545F4449 
 11525      53435F52 
 11525      4541445F 
 11526              	.LASF354:
 11527 208b 4359424C 		.ascii	"CYBLE_EVT_CTSC_WRITE_CHAR_RESPONSE\000"
 11527      455F4556 
 11527      545F4354 
 11527      53435F57 
 11527      52495445 
 11528              	.LASF433:
 11529 20ae 4359424C 		.ascii	"CYBLE_EVT_PASSS_WRITE_CHAR\000"
 11529      455F4556 
 11529      545F5041 
 11529      5353535F 
 11529      57524954 
 11530              	.LASF331:
 11531 20c9 4359424C 		.ascii	"CYBLE_EVT_CPSC_WRITE_CHAR_RESPONSE\000"
 11531      455F4556 
 11531      545F4350 
 11531      53435F57 
 11531      52495445 
 11532              	.LASF238:
 11533 20ec 4359424C 		.ascii	"CYBLE_DIS_SERIAL_NUMBER\000"
 11533      455F4449 
 11533      535F5345 
 11533      5249414C 
 11533      5F4E554D 
 11534              	.LASF499:
 11535 2104 6576656E 		.ascii	"event\000"
 11535      7400
 11536              	.LASF643:
 11537 210a 566F6963 		.ascii	"VoicePlay\000"
ARM GAS  C:\Users\Administrator\AppData\Local\Temp\ccNLOfxN.s 			page 264


 11537      65506C61 
 11537      7900
 11538              	.LASF125:
 11539 2114 4359424C 		.ascii	"CYBLE_EVT_GAP_CONNECTION_UPDATE_COMPLETE\000"
 11539      455F4556 
 11539      545F4741 
 11539      505F434F 
 11539      4E4E4543 
 11540              	.LASF316:
 11541 213d 4359424C 		.ascii	"CYBLE_EVT_CGMSC_READ_CHAR_RESPONSE\000"
 11541      455F4556 
 11541      545F4347 
 11541      4D53435F 
 11541      52454144 
 11542              	.LASF522:
 11543 2160 57616974 		.ascii	"WaitTimeOut\000"
 11543      54696D65 
 11543      4F757400 
 11544              	.LASF652:
 11545 216c 47505253 		.ascii	"GPRS_STATE_Read\000"
 11545      5F535441 
 11545      54455F52 
 11545      65616400 
 11546              	.LASF167:
 11547 217c 4359424C 		.ascii	"CYBLE_STATE_INITIALIZING\000"
 11547      455F5354 
 11547      4154455F 
 11547      494E4954 
 11547      49414C49 
 11548              	.LASF25:
 11549 2195 494E5438 		.ascii	"INT8U\000"
 11549      5500
 11550              	.LASF515:
 11551 219b 4C65645F 		.ascii	"Led_AllOff\000"
 11551      416C6C4F 
 11551      666600
 11552              	.LASF99:
 11553 21a6 4359424C 		.ascii	"CYBLE_GAP_AUTH_ERROR_REPEATED_ATTEMPTS\000"
 11553      455F4741 
 11553      505F4155 
 11553      54485F45 
 11553      52524F52 
 11554              	.LASF157:
 11555 21cd 4359424C 		.ascii	"CYBLE_EVT_L2CAP_CBFC_DISCONN_IND\000"
 11555      455F4556 
 11555      545F4C32 
 11555      4341505F 
 11555      43424643 
 11556              	.LASF340:
 11557 21ee 4359424C 		.ascii	"CYBLE_EVT_CSCSS_CHAR_WRITE\000"
 11557      455F4556 
 11557      545F4353 
 11557      4353535F 
 11557      43484152 
 11558              	.LASF61:
 11559 2209 4359424C 		.ascii	"CYBLE_ERROR_GATT_DB_NO_MATCHING_RESULT\000"
 11559      455F4552 
ARM GAS  C:\Users\Administrator\AppData\Local\Temp\ccNLOfxN.s 			page 265


 11559      524F525F 
 11559      47415454 
 11559      5F44425F 
 11560              	.LASF447:
 11561 2230 4359424C 		.ascii	"CYBLE_EVT_RSCSC_READ_CHAR_RESPONSE\000"
 11561      455F4556 
 11561      545F5253 
 11561      4353435F 
 11561      52454144 
 11562              	.LASF117:
 11563 2253 4359424C 		.ascii	"CYBLE_EVT_GAP_PASSKEY_ENTRY_REQUEST\000"
 11563      455F4556 
 11563      545F4741 
 11563      505F5041 
 11563      53534B45 
 11564              	.LASF669:
 11565 2277 47505253 		.ascii	"GPRS_ConnectUpdateServer\000"
 11565      5F436F6E 
 11565      6E656374 
 11565      55706461 
 11565      74655365 
 11566              	.LASF228:
 11567 2290 4359424C 		.ascii	"CYBLE_BLESS_PWR_LVL_T\000"
 11567      455F424C 
 11567      4553535F 
 11567      5057525F 
 11567      4C564C5F 
 11568              	.LASF534:
 11569 22a6 64656C61 		.ascii	"delay_with_ble\000"
 11569      795F7769 
 11569      74685F62 
 11569      6C6500
 11570              	.LASF422:
 11571 22b5 4359424C 		.ascii	"CYBLE_EVT_LNSS_NOTIFICATION_DISABLED\000"
 11571      455F4556 
 11571      545F4C4E 
 11571      53535F4E 
 11571      4F544946 
 11572              	.LASF325:
 11573 22da 4359424C 		.ascii	"CYBLE_EVT_CPSS_BROADCAST_ENABLED\000"
 11573      455F4556 
 11573      545F4350 
 11573      53535F42 
 11573      524F4144 
 11574              	.LASF631:
 11575 22fb 4C45445F 		.ascii	"LED_RED_Write\000"
 11575      5245445F 
 11575      57726974 
 11575      6500
 11576              	.LASF7:
 11577 2309 5F5F7569 		.ascii	"__uint32_t\000"
 11577      6E743332 
 11577      5F7400
 11578              	.LASF96:
 11579 2314 4359424C 		.ascii	"CYBLE_GAP_AUTH_ERROR_INSUFFICIENT_ENCRYPTION_KEY_SI"
 11579      455F4741 
 11579      505F4155 
ARM GAS  C:\Users\Administrator\AppData\Local\Temp\ccNLOfxN.s 			page 266


 11579      54485F45 
 11579      52524F52 
 11580 2347 5A4500   		.ascii	"ZE\000"
 11581              	.LASF408:
 11582 234a 4359424C 		.ascii	"CYBLE_EVT_HTSC_NOTIFICATION\000"
 11582      455F4556 
 11582      545F4854 
 11582      53435F4E 
 11582      4F544946 
 11583              	.LASF9:
 11584 2366 6C6F6E67 		.ascii	"long long int\000"
 11584      206C6F6E 
 11584      6720696E 
 11584      7400
 11585              	.LASF185:
 11586 2374 4359424C 		.ascii	"CYBLE_BLESS_DEEPSLEEP\000"
 11586      455F424C 
 11586      4553535F 
 11586      44454550 
 11586      534C4545 
 11587              	.LASF582:
 11588 238a 47505253 		.ascii	"GPRSCmdParseFlag2\000"
 11588      436D6450 
 11588      61727365 
 11588      466C6167 
 11588      3200
 11589              	.LASF462:
 11590 239c 4359424C 		.ascii	"CYBLE_EVT_TPSC_READ_CHAR_RESPONSE\000"
 11590      455F4556 
 11590      545F5450 
 11590      53435F52 
 11590      4541445F 
 11591              	.LASF244:
 11592 23be 4359424C 		.ascii	"CYBLE_DIS_PNP_ID\000"
 11592      455F4449 
 11592      535F504E 
 11592      505F4944 
 11592      00
 11593              	.LASF258:
 11594 23cf 4359424C 		.ascii	"CYBLE_EVT_GATTC_CHAR_DUPLICATION\000"
 11594      455F4556 
 11594      545F4741 
 11594      5454435F 
 11594      43484152 
 11595              	.LASF373:
 11596 23f0 4359424C 		.ascii	"CYBLE_EVT_GLSS_NOTIFICATION_ENABLED\000"
 11596      455F4556 
 11596      545F474C 
 11596      53535F4E 
 11596      4F544946 
 11597              	.LASF615:
 11598 2414 6379426C 		.ascii	"cyBle_discoveryParam\000"
 11598      655F6469 
 11598      73636F76 
 11598      65727950 
 11598      6172616D 
 11599              	.LASF642:
ARM GAS  C:\Users\Administrator\AppData\Local\Temp\ccNLOfxN.s 			page 267


 11600 2429 6E66635F 		.ascii	"nfc_detect_type_b\000"
 11600      64657465 
 11600      63745F74 
 11600      7970655F 
 11600      6200
 11601              	.LASF51:
 11602 243b 4359424C 		.ascii	"CYBLE_ERROR_L2CAP_PSM_NOT_REGISTERED\000"
 11602      455F4552 
 11602      524F525F 
 11602      4C324341 
 11602      505F5053 
 11603              	.LASF41:
 11604 2460 4359424C 		.ascii	"CYBLE_ERROR_OOB_NOT_AVAILABLE\000"
 11604      455F4552 
 11604      524F525F 
 11604      4F4F425F 
 11604      4E4F545F 
 11605              	.LASF308:
 11606 247e 4359424C 		.ascii	"CYBLE_EVT_CGMSS_INDICATION_ENABLED\000"
 11606      455F4556 
 11606      545F4347 
 11606      4D53535F 
 11606      494E4449 
 11607              	.LASF208:
 11608 24a1 61647649 		.ascii	"advIntvMin\000"
 11608      6E74764D 
 11608      696E00
 11609              	.LASF627:
 11610 24ac 4379426C 		.ascii	"CyBle_GetBleSsState\000"
 11610      655F4765 
 11610      74426C65 
 11610      53735374 
 11610      61746500 
 11611              	.LASF19:
 11612 24c0 646F7562 		.ascii	"double\000"
 11612      6C6500
 11613              	.LASF699:
 11614 24c7 6D61696E 		.ascii	"main.c\000"
 11614      2E6300
 11615              	.LASF75:
 11616 24ce 4359424C 		.ascii	"CYBLE_ERROR_DEVICE_ALREADY_EXISTS\000"
 11616      455F4552 
 11616      524F525F 
 11616      44455649 
 11616      43455F41 
 11617              	.LASF359:
 11618 24f0 4359424C 		.ascii	"CYBLE_EVT_ESSS_INDICATION_DISABLED\000"
 11618      455F4556 
 11618      545F4553 
 11618      53535F49 
 11618      4E444943 
 11619              	.LASF562:
 11620 2513 456E7465 		.ascii	"EnterGuide_State\000"
 11620      72477569 
 11620      64655F53 
 11620      74617465 
 11620      00
ARM GAS  C:\Users\Administrator\AppData\Local\Temp\ccNLOfxN.s 			page 268


 11621              	.LASF163:
 11622 2524 4359424C 		.ascii	"CYBLE_EVT_PENDING_FLASH_WRITE\000"
 11622      455F4556 
 11622      545F5045 
 11622      4E44494E 
 11622      475F464C 
 11623              	.LASF261:
 11624 2542 4359424C 		.ascii	"CYBLE_EVT_GATTC_INCL_DISCOVERY_COMPLETE\000"
 11624      455F4556 
 11624      545F4741 
 11624      5454435F 
 11624      494E434C 
 11625              	.LASF227:
 11626 256a 4359424C 		.ascii	"CYBLE_LL_PWR_LVL_MAX\000"
 11626      455F4C4C 
 11626      5F505752 
 11626      5F4C564C 
 11626      5F4D4158 
 11627              	.LASF549:
 11628 257f 6F70656E 		.ascii	"open_flag\000"
 11628      5F666C61 
 11628      6700
 11629              	.LASF479:
 11630 2589 4359424C 		.ascii	"CYBLE_EVT_WPTSS_NOTIFICATION_ENABLED\000"
 11630      455F4556 
 11630      545F5750 
 11630      5453535F 
 11630      4E4F5449 
 11631              	.LASF577:
 11632 25ae 77616974 		.ascii	"wait_timeout\000"
 11632      5F74696D 
 11632      656F7574 
 11632      00
 11633              	.LASF697:
 11634 25bb 47505253 		.ascii	"GPRS_SetConnectMode\000"
 11634      5F536574 
 11634      436F6E6E 
 11634      6563744D 
 11634      6F646500 
 11635              	.LASF429:
 11636 25cf 4359424C 		.ascii	"CYBLE_EVT_LNSC_WRITE_DESCR_RESPONSE\000"
 11636      455F4556 
 11636      545F4C4E 
 11636      53435F57 
 11636      52495445 
 11637              	.LASF212:
 11638 25f3 64697265 		.ascii	"directAddrType\000"
 11638      63744164 
 11638      64725479 
 11638      706500
 11639              	.LASF569:
 11640 2602 75706461 		.ascii	"update_version\000"
 11640      74655F76 
 11640      65727369 
 11640      6F6E00
 11641              	.LASF416:
 11642 2611 4359424C 		.ascii	"CYBLE_EVT_LLSC_READ_CHAR_RESPONSE\000"
ARM GAS  C:\Users\Administrator\AppData\Local\Temp\ccNLOfxN.s 			page 269


 11642      455F4556 
 11642      545F4C4C 
 11642      53435F52 
 11642      4541445F 
 11643              	.LASF339:
 11644 2633 4359424C 		.ascii	"CYBLE_EVT_CSCSS_INDICATION_CONFIRMATION\000"
 11644      455F4556 
 11644      545F4353 
 11644      4353535F 
 11644      494E4449 
 11645              	.LASF53:
 11646 265b 4359424C 		.ascii	"CYBLE_ERROR_L2CAP_CHANNEL_NOT_FOUND\000"
 11646      455F4552 
 11646      524F525F 
 11646      4C324341 
 11646      505F4348 
 11647              	.LASF44:
 11648 267f 4359424C 		.ascii	"CYBLE_ERROR_REPEATED_ATTEMPTS\000"
 11648      455F4552 
 11648      524F525F 
 11648      52455045 
 11648      41544544 
 11649              	.LASF363:
 11650 269d 4359424C 		.ascii	"CYBLE_EVT_ESSS_DESCR_WRITE\000"
 11650      455F4556 
 11650      545F4553 
 11650      53535F44 
 11650      45534352 
 11651              	.LASF358:
 11652 26b8 4359424C 		.ascii	"CYBLE_EVT_ESSS_INDICATION_ENABLED\000"
 11652      455F4556 
 11652      545F4553 
 11652      53535F49 
 11652      4E444943 
 11653              	.LASF344:
 11654 26da 4359424C 		.ascii	"CYBLE_EVT_CSCSC_WRITE_CHAR_RESPONSE\000"
 11654      455F4556 
 11654      545F4353 
 11654      4353435F 
 11654      57524954 
 11655              	.LASF18:
 11656 26fe 666C6F61 		.ascii	"float\000"
 11656      7400
 11657              	.LASF456:
 11658 2704 4359424C 		.ascii	"CYBLE_EVT_SCPSC_NOTIFICATION\000"
 11658      455F4556 
 11658      545F5343 
 11658      5053435F 
 11658      4E4F5449 
 11659              	.LASF385:
 11660 2721 4359424C 		.ascii	"CYBLE_EVT_HIDSS_REPORT_MODE_ENTER\000"
 11660      455F4556 
 11660      545F4849 
 11660      4453535F 
 11660      5245504F 
 11661              	.LASF364:
 11662 2743 4359424C 		.ascii	"CYBLE_EVT_ESSC_NOTIFICATION\000"
ARM GAS  C:\Users\Administrator\AppData\Local\Temp\ccNLOfxN.s 			page 270


 11662      455F4556 
 11662      545F4553 
 11662      53435F4E 
 11662      4F544946 
 11663              	.LASF76:
 11664 275f 4359424C 		.ascii	"CYBLE_ERROR_FLASH_WRITE_NOT_PERMITED\000"
 11664      455F4552 
 11664      524F525F 
 11664      464C4153 
 11664      485F5752 
 11665              	.LASF383:
 11666 2784 4359424C 		.ascii	"CYBLE_EVT_HIDSS_NOTIFICATION_DISABLED\000"
 11666      455F4556 
 11666      545F4849 
 11666      4453535F 
 11666      4E4F5449 
 11667              	.LASF509:
 11668 27aa 636F756E 		.ascii	"count\000"
 11668      7400
 11669              	.LASF151:
 11670 27b0 4359424C 		.ascii	"CYBLE_EVT_GATTS_READ_CHAR_VAL_ACCESS_REQ\000"
 11670      455F4556 
 11670      545F4741 
 11670      5454535F 
 11670      52454144 
 11671              	.LASF270:
 11672 27d9 4359424C 		.ascii	"CYBLE_EVT_ANCSC_READ_DESCR_RESPONSE\000"
 11672      455F4556 
 11672      545F414E 
 11672      4353435F 
 11672      52454144 
 11673              	.LASF607:
 11674 27fd 73746F70 		.ascii	"stop_reboot\000"
 11674      5F726562 
 11674      6F6F7400 
 11675              	.LASF177:
 11676 2809 61747472 		.ascii	"attrHandle\000"
 11676      48616E64 
 11676      6C6500
 11677              	.LASF473:
 11678 2814 4359424C 		.ascii	"CYBLE_EVT_UDSC_NOTIFICATION\000"
 11678      455F4556 
 11678      545F5544 
 11678      53435F4E 
 11678      4F544946 
 11679              	.LASF487:
 11680 2830 4359424C 		.ascii	"CYBLE_EVT_WPTSC_WRITE_CHAR_RESPONSE\000"
 11680      455F4556 
 11680      545F5750 
 11680      5453435F 
 11680      57524954 
 11681              	.LASF105:
 11682 2854 626F6E64 		.ascii	"bonding\000"
 11682      696E6700 
 11683              	.LASF181:
 11684 285c 4359424C 		.ascii	"CYBLE_GATTS_WRITE_REQ_PARAM_T\000"
 11684      455F4741 
ARM GAS  C:\Users\Administrator\AppData\Local\Temp\ccNLOfxN.s 			page 271


 11684      5454535F 
 11684      57524954 
 11684      455F5245 
 11685              	.LASF11:
 11686 287a 756E7369 		.ascii	"unsigned int\000"
 11686      676E6564 
 11686      20696E74 
 11686      00
 11687              	.LASF663:
 11688 2887 73656E64 		.ascii	"send_get_pre_service_ip\000"
 11688      5F676574 
 11688      5F707265 
 11688      5F736572 
 11688      76696365 
 11689              	.LASF143:
 11690 289f 4359424C 		.ascii	"CYBLE_EVT_GATTS_PREP_WRITE_REQ\000"
 11690      455F4556 
 11690      545F4741 
 11690      5454535F 
 11690      50524550 
 11691              	.LASF570:
 11692 28be 75706461 		.ascii	"update_flag\000"
 11692      74655F66 
 11692      6C616700 
 11693              	.LASF348:
 11694 28ca 4359424C 		.ascii	"CYBLE_EVT_CTSS_NOTIFICATION_DISABLED\000"
 11694      455F4556 
 11694      545F4354 
 11694      53535F4E 
 11694      4F544946 
 11695              	.LASF536:
 11696 28ef 47505253 		.ascii	"GPRSPowerOn\000"
 11696      506F7765 
 11696      724F6E00 
 11697              	.LASF295:
 11698 28fb 4359424C 		.ascii	"CYBLE_EVT_BLSS_INDICATION_DISABLED\000"
 11698      455F4556 
 11698      545F424C 
 11698      53535F49 
 11698      4E444943 
 11699              	.LASF243:
 11700 291e 4359424C 		.ascii	"CYBLE_DIS_REG_CERT_DATA\000"
 11700      455F4449 
 11700      535F5245 
 11700      475F4345 
 11700      52545F44 
 11701              	.LASF230:
 11702 2936 4359424C 		.ascii	"CYBLE_LL_CONN_CH_TYPE\000"
 11702      455F4C4C 
 11702      5F434F4E 
 11702      4E5F4348 
 11702      5F545950 
 11703              	.LASF611:
 11704 294c 41444352 		.ascii	"ADCResultCenter\000"
 11704      6573756C 
 11704      7443656E 
 11704      74657200 
ARM GAS  C:\Users\Administrator\AppData\Local\Temp\ccNLOfxN.s 			page 272


 11705              	.LASF56:
 11706 295c 4359424C 		.ascii	"CYBLE_ERROR_GATT_DB_INVALID_OFFSET\000"
 11706      455F4552 
 11706      524F525F 
 11706      47415454 
 11706      5F44425F 
 11707              	.LASF454:
 11708 297f 4359424C 		.ascii	"CYBLE_EVT_SCPSS_NOTIFICATION_DISABLED\000"
 11708      455F4556 
 11708      545F5343 
 11708      5053535F 
 11708      4E4F5449 
 11709              	.LASF360:
 11710 29a5 4359424C 		.ascii	"CYBLE_EVT_ESSS_INDICATION_CONFIRMATION\000"
 11710      455F4556 
 11710      545F4553 
 11710      53535F49 
 11710      4E444943 
 11711              	.LASF30:
 11712 29cc 6F70656E 		.ascii	"open_door\000"
 11712      5F646F6F 
 11712      7200
 11713              	.LASF527:
 11714 29d6 666C6167 		.ascii	"flag\000"
 11714      00
 11715              	.LASF27:
 11716 29db 76616C69 		.ascii	"valid_time\000"
 11716      645F7469 
 11716      6D6500
 11717              	.LASF246:
 11718 29e6 4359424C 		.ascii	"CYBLE_AUTHENTICATION_REQUEST_REPLY\000"
 11718      455F4155 
 11718      5448454E 
 11718      54494341 
 11718      54494F4E 
 11719              	.LASF49:
 11720 2a09 4359424C 		.ascii	"CYBLE_ERROR_L2CAP_PSM_WRONG_ENCODING\000"
 11720      455F4552 
 11720      524F525F 
 11720      4C324341 
 11720      505F5053 
 11721              	.LASF698:
 11722 2a2e 474E5520 		.ascii	"GNU C 4.9.3 20150303 (release) [ARM/embedded-4_9-br"
 11722      4320342E 
 11722      392E3320 
 11722      32303135 
 11722      30333033 
 11723 2a61 616E6368 		.ascii	"anch revision 221220] -mcpu=cortex-m0 -mthumb -g -O"
 11723      20726576 
 11723      6973696F 
 11723      6E203232 
 11723      31323230 
 11724 2a94 73202D66 		.ascii	"s -ffunction-sections -ffat-lto-objects\000"
 11724      66756E63 
 11724      74696F6E 
 11724      2D736563 
 11724      74696F6E 
ARM GAS  C:\Users\Administrator\AppData\Local\Temp\ccNLOfxN.s 			page 273


 11725              	.LASF298:
 11726 2abc 4359424C 		.ascii	"CYBLE_EVT_BLSS_NOTIFICATION_DISABLED\000"
 11726      455F4556 
 11726      545F424C 
 11726      53535F4E 
 11726      4F544946 
 11727              	.LASF677:
 11728 2ae1 44454645 		.ascii	"DEFEND_ALARM_Read\000"
 11728      4E445F41 
 11728      4C41524D 
 11728      5F526561 
 11728      6400
 11729              	.LASF411:
 11730 2af3 4359424C 		.ascii	"CYBLE_EVT_HTSC_WRITE_CHAR_RESPONSE\000"
 11730      455F4556 
 11730      545F4854 
 11730      53435F57 
 11730      52495445 
 11731              	.LASF637:
 11732 2b16 73656E64 		.ascii	"send_alarm_info\000"
 11732      5F616C61 
 11732      726D5F69 
 11732      6E666F00 
 11733              	.LASF165:
 11734 2b26 4359424C 		.ascii	"CYBLE_EVT_MAX\000"
 11734      455F4556 
 11734      545F4D41 
 11734      5800
 11735              	.LASF126:
 11736 2b34 4359424C 		.ascii	"CYBLE_EVT_GAPC_SCAN_START_STOP\000"
 11736      455F4556 
 11736      545F4741 
 11736      50435F53 
 11736      43414E5F 
 11737              	.LASF547:
 11738 2b53 55706C6F 		.ascii	"UploadOpenInfo_Tick\000"
 11738      61644F70 
 11738      656E496E 
 11738      666F5F54 
 11738      69636B00 
 11739              	.LASF273:
 11740 2b67 4359424C 		.ascii	"CYBLE_EVT_ANSS_NOTIFICATION_ENABLED\000"
 11740      455F4556 
 11740      545F414E 
 11740      53535F4E 
 11740      4F544946 
 11741              	.LASF207:
 11742 2b8b 4359424C 		.ascii	"CYBLE_GAPP_ADV_T\000"
 11742      455F4741 
 11742      50505F41 
 11742      44565F54 
 11742      00
 11743              	.LASF103:
 11744 2b9c 4359424C 		.ascii	"CYBLE_GAP_AUTH_FAILED_REASON_T\000"
 11744      455F4741 
 11744      505F4155 
 11744      54485F46 
ARM GAS  C:\Users\Administrator\AppData\Local\Temp\ccNLOfxN.s 			page 274


 11744      41494C45 
 11745              	.LASF140:
 11746 2bbb 4359424C 		.ascii	"CYBLE_EVT_GATTS_WRITE_REQ\000"
 11746      455F4556 
 11746      545F4741 
 11746      5454535F 
 11746      57524954 
 11747              	.LASF636:
 11748 2bd5 57323551 		.ascii	"W25QXX_Read\000"
 11748      58585F52 
 11748      65616400 
 11749              	.LASF199:
 11750 2be1 61647644 		.ascii	"advData\000"
 11750      61746100 
 11751              	.LASF149:
 11752 2be9 4359424C 		.ascii	"CYBLE_EVT_GATTS_DATA_SIGNED_CMD_REQ\000"
 11752      455F4556 
 11752      545F4741 
 11752      5454535F 
 11752      44415441 
 11753              	.LASF475:
 11754 2c0d 4359424C 		.ascii	"CYBLE_EVT_UDSC_WRITE_CHAR_RESPONSE\000"
 11754      455F4556 
 11754      545F5544 
 11754      53435F57 
 11754      52495445 
 11755              	.LASF616:
 11756 2c30 6379426C 		.ascii	"cyBle_scanRspData\000"
 11756      655F7363 
 11756      616E5273 
 11756      70446174 
 11756      6100
 11757              	.LASF486:
 11758 2c42 4359424C 		.ascii	"CYBLE_EVT_WPTSC_INDICATION\000"
 11758      455F4556 
 11758      545F5750 
 11758      5453435F 
 11758      494E4449 
 11759              	.LASF118:
 11760 2c5d 4359424C 		.ascii	"CYBLE_EVT_GAP_PASSKEY_DISPLAY_REQUEST\000"
 11760      455F4556 
 11760      545F4741 
 11760      505F5041 
 11760      53534B45 
 11761              	.LASF83:
 11762 2c83 4359424C 		.ascii	"CYBLE_ERROR_IND_DISABLED\000"
 11762      455F4552 
 11762      524F525F 
 11762      494E445F 
 11762      44495341 
 11763              	.LASF82:
 11764 2c9c 4359424C 		.ascii	"CYBLE_ERROR_NTF_DISABLED\000"
 11764      455F4552 
 11764      524F525F 
 11764      4E54465F 
 11764      44495341 
 11765              	.LASF701:
ARM GAS  C:\Users\Administrator\AppData\Local\Temp\ccNLOfxN.s 			page 275


 11766 2cb5 4572725F 		.ascii	"Err_Check\000"
 11766      43686563 
 11766      6B00
 11767              	.LASF137:
 11768 2cbf 4359424C 		.ascii	"CYBLE_EVT_GATTC_READ_RSP\000"
 11768      455F4556 
 11768      545F4741 
 11768      5454435F 
 11768      52454144 
 11769              	.LASF29:
 11770 2cd8 75736572 		.ascii	"user_info\000"
 11770      5F696E66 
 11770      6F00
 11771              	.LASF62:
 11772 2ce2 4359424C 		.ascii	"CYBLE_ERROR_GATT_DB_HANDLE_NOT_FOUND\000"
 11772      455F4552 
 11772      524F525F 
 11772      47415454 
 11772      5F44425F 
 11773              	.LASF156:
 11774 2d07 4359424C 		.ascii	"CYBLE_EVT_L2CAP_CBFC_CONN_CNF\000"
 11774      455F4556 
 11774      545F4C32 
 11774      4341505F 
 11774      43424643 
 11775              	.LASF510:
 11776 2d25 5265626F 		.ascii	"Reboot_Check\000"
 11776      6F745F43 
 11776      6865636B 
 11776      00
 11777              	.LASF306:
 11778 2d32 4359424C 		.ascii	"CYBLE_EVT_BMSC_WRITE_CHAR_RESPONSE\000"
 11778      455F4556 
 11778      545F424D 
 11778      53435F57 
 11778      52495445 
 11779              	.LASF412:
 11780 2d55 4359424C 		.ascii	"CYBLE_EVT_HTSC_READ_DESCR_RESPONSE\000"
 11780      455F4556 
 11780      545F4854 
 11780      53435F52 
 11780      4541445F 
 11781              	.LASF498:
 11782 2d78 4359424C 		.ascii	"CYBLE_DEBUG_EVT_BLESS_INT\000"
 11782      455F4445 
 11782      4255475F 
 11782      4556545F 
 11782      424C4553 
 11783              	.LASF375:
 11784 2d92 4359424C 		.ascii	"CYBLE_EVT_GLSS_WRITE_CHAR\000"
 11784      455F4556 
 11784      545F474C 
 11784      53535F57 
 11784      52495445 
 11785              	.LASF544:
 11786 2dac 46697265 		.ascii	"FireOpen_Tick\000"
 11786      4F70656E 
ARM GAS  C:\Users\Administrator\AppData\Local\Temp\ccNLOfxN.s 			page 276


 11786      5F546963 
 11786      6B00
 11787              	.LASF626:
 11788 2dba 4379456E 		.ascii	"CyEnterCriticalSection\000"
 11788      74657243 
 11788      72697469 
 11788      63616C53 
 11788      65637469 
 11789              	.LASF482:
 11790 2dd1 4359424C 		.ascii	"CYBLE_EVT_WPTSS_INDICATION_DISABLED\000"
 11790      455F4556 
 11790      545F5750 
 11790      5453535F 
 11790      494E4449 
 11791              	.LASF566:
 11792 2df5 7072655F 		.ascii	"pre_port\000"
 11792      706F7274 
 11792      00
 11793              	.LASF602:
 11794 2dfe 68656172 		.ascii	"heartbeat_SendCount\000"
 11794      74626561 
 11794      745F5365 
 11794      6E64436F 
 11794      756E7400 
 11795              	.LASF311:
 11796 2e12 4359424C 		.ascii	"CYBLE_EVT_CGMSS_NOTIFICATION_ENABLED\000"
 11796      455F4556 
 11796      545F4347 
 11796      4D53535F 
 11796      4E4F5449 
 11797              	.LASF222:
 11798 2e37 4359424C 		.ascii	"CYBLE_LL_PWR_LVL_NEG_6_DBM\000"
 11798      455F4C4C 
 11798      5F505752 
 11798      5F4C564C 
 11798      5F4E4547 
 11799              	.LASF397:
 11800 2e52 4359424C 		.ascii	"CYBLE_EVT_HRSC_NOTIFICATION\000"
 11800      455F4556 
 11800      545F4852 
 11800      53435F4E 
 11800      4F544946 
 11801              	.LASF443:
 11802 2e6e 4359424C 		.ascii	"CYBLE_EVT_RSCSS_INDICATION_CONFIRMATION\000"
 11802      455F4556 
 11802      545F5253 
 11802      4353535F 
 11802      494E4449 
 11803              	.LASF556:
 11804 2e96 746D706D 		.ascii	"tmpmac\000"
 11804      616300
 11805              	.LASF392:
 11806 2e9d 4359424C 		.ascii	"CYBLE_EVT_HIDSC_READ_DESCR_RESPONSE\000"
 11806      455F4556 
 11806      545F4849 
 11806      4453435F 
 11806      52454144 
ARM GAS  C:\Users\Administrator\AppData\Local\Temp\ccNLOfxN.s 			page 277


 11807              	.LASF586:
 11808 2ec1 43757272 		.ascii	"CurrentDataNum\000"
 11808      656E7444 
 11808      6174614E 
 11808      756D00
 11809              	.LASF398:
 11810 2ed0 4359424C 		.ascii	"CYBLE_EVT_HRSC_READ_CHAR_RESPONSE\000"
 11810      455F4556 
 11810      545F4852 
 11810      53435F52 
 11810      4541445F 
 11811              	.LASF283:
 11812 2ef2 4359424C 		.ascii	"CYBLE_EVT_BASC_NOTIFICATION\000"
 11812      455F4556 
 11812      545F4241 
 11812      53435F4E 
 11812      4F544946 
 11813              	.LASF90:
 11814 2f0e 4359424C 		.ascii	"CYBLE_GAP_AUTH_ERROR_NONE\000"
 11814      455F4741 
 11814      505F4155 
 11814      54485F45 
 11814      52524F52 
 11815              	.LASF124:
 11816 2f28 4359424C 		.ascii	"CYBLE_EVT_GAP_ENCRYPT_CHANGE\000"
 11816      455F4556 
 11816      545F4741 
 11816      505F454E 
 11816      43525950 
 11817              	.LASF28:
 11818 2f45 75736572 		.ascii	"user_info_t\000"
 11818      5F696E66 
 11818      6F5F7400 
 11819              	.LASF687:
 11820 2f51 52656164 		.ascii	"Read_CenterIpType\000"
 11820      5F43656E 
 11820      74657249 
 11820      70547970 
 11820      6500
 11821              	.LASF595:
 11822 2f63 6F70656E 		.ascii	"openinfopage_offset\000"
 11822      696E666F 
 11822      70616765 
 11822      5F6F6666 
 11822      73657400 
 11823              	.LASF74:
 11824 2f77 4359424C 		.ascii	"CYBLE_ERROR_GATT_DB_INSUFFICIENT_ENCRYPTION\000"
 11824      455F4552 
 11824      524F525F 
 11824      47415454 
 11824      5F44425F 
 11825              	.LASF259:
 11826 2fa3 4359424C 		.ascii	"CYBLE_EVT_GATTC_DESCR_DUPLICATION\000"
 11826      455F4556 
 11826      545F4741 
 11826      5454435F 
 11826      44455343 
ARM GAS  C:\Users\Administrator\AppData\Local\Temp\ccNLOfxN.s 			page 278


 11827              	.LASF533:
 11828 2fc5 6F70656E 		.ascii	"openInfo_card\000"
 11828      496E666F 
 11828      5F636172 
 11828      6400
 11829              	.LASF131:
 11830 2fd3 4359424C 		.ascii	"CYBLE_EVT_GATTS_XCNHG_MTU_REQ\000"
 11830      455F4556 
 11830      545F4741 
 11830      5454535F 
 11830      58434E48 
 11831              	.LASF528:
 11832 2ff1 6669726D 		.ascii	"firmver\000"
 11832      76657200 
 11833              	.LASF468:
 11834 2ff9 4359424C 		.ascii	"CYBLE_EVT_UDSS_NOTIFICATION_ENABLED\000"
 11834      455F4556 
 11834      545F5544 
 11834      53535F4E 
 11834      4F544946 
 11835              	.LASF92:
 11836 301d 4359424C 		.ascii	"CYBLE_GAP_AUTH_ERROR_OOB_DATA_NOT_AVAILABLE\000"
 11836      455F4741 
 11836      505F4155 
 11836      54485F45 
 11836      52524F52 
 11837              	.LASF654:
 11838 3049 47505253 		.ascii	"GPRS_QuerySimCard\000"
 11838      5F517565 
 11838      72795369 
 11838      6D436172 
 11838      6400
 11839              	.LASF23:
 11840 305b 63796973 		.ascii	"cyisraddress\000"
 11840      72616464 
 11840      72657373 
 11840      00
 11841              	.LASF420:
 11842 3068 4359424C 		.ascii	"CYBLE_EVT_LNSS_INDICATION_CONFIRMED\000"
 11842      455F4556 
 11842      545F4C4E 
 11842      53535F49 
 11842      4E444943 
 11843              	.LASF492:
 11844 308c 4359424C 		.ascii	"CYBLE_EVT_WSSS_INDICATION_DISABLED\000"
 11844      455F4556 
 11844      545F5753 
 11844      53535F49 
 11844      4E444943 
 11845              	.LASF656:
 11846 30af 47505253 		.ascii	"GPRS_QueryRssi\000"
 11846      5F517565 
 11846      72795273 
 11846      736900
 11847              	.LASF280:
 11848 30be 4359424C 		.ascii	"CYBLE_EVT_ANSC_WRITE_DESCR_RESPONSE\000"
 11848      455F4556 
ARM GAS  C:\Users\Administrator\AppData\Local\Temp\ccNLOfxN.s 			page 279


 11848      545F414E 
 11848      53435F57 
 11848      52495445 
 11849              	.LASF426:
 11850 30e2 4359424C 		.ascii	"CYBLE_EVT_LNSC_READ_CHAR_RESPONSE\000"
 11850      455F4556 
 11850      545F4C4E 
 11850      53435F52 
 11850      4541445F 
 11851              	.LASF236:
 11852 3104 4359424C 		.ascii	"CYBLE_DIS_MANUFACTURER_NAME\000"
 11852      455F4449 
 11852      535F4D41 
 11852      4E554641 
 11852      43545552 
 11853              	.LASF535:
 11854 3120 6C6F6F70 		.ascii	"loop\000"
 11854      00
 11855              	.LASF183:
 11856 3125 4359424C 		.ascii	"CYBLE_BLESS_ACTIVE\000"
 11856      455F424C 
 11856      4553535F 
 11856      41435449 
 11856      564500
 11857              	.LASF250:
 11858 3138 4359424C 		.ascii	"CYBLE_EVT_GATTS_INDICATION_ENABLED\000"
 11858      455F4556 
 11858      545F4741 
 11858      5454535F 
 11858      494E4449 
 11859              	.LASF608:
 11860 315b 7265626F 		.ascii	"reboot_count\000"
 11860      6F745F63 
 11860      6F756E74 
 11860      00
 11861              	.LASF10:
 11862 3168 6C6F6E67 		.ascii	"long long unsigned int\000"
 11862      206C6F6E 
 11862      6720756E 
 11862      7369676E 
 11862      65642069 
 11863              	.LASF561:
 11864 317f 67707273 		.ascii	"gprs_state\000"
 11864      5F737461 
 11864      746500
 11865              	.LASF650:
 11866 318a 43794465 		.ascii	"CyDelay\000"
 11866      6C617900 
 11867              	.LASF111:
 11868 3192 4359424C 		.ascii	"CYBLE_EVT_TIMEOUT\000"
 11868      455F4556 
 11868      545F5449 
 11868      4D454F55 
 11868      5400
 11869              	.LASF352:
 11870 31a4 4359424C 		.ascii	"CYBLE_EVT_CTSC_READ_DESCR_RESPONSE\000"
 11870      455F4556 
ARM GAS  C:\Users\Administrator\AppData\Local\Temp\ccNLOfxN.s 			page 280


 11870      545F4354 
 11870      53435F52 
 11870      4541445F 
 11871              	.LASF658:
 11872 31c7 47505253 		.ascii	"GPRS_SetActive\000"
 11872      5F536574 
 11872      41637469 
 11872      766500
 11873              	.LASF700:
 11874 31d6 473A5C50 		.ascii	"G:\\Psoc4_prj\\7.rental_house\\18-04-11\\second_ima"
 11874      736F6334 
 11874      5F70726A 
 11874      5C372E72 
 11874      656E7461 
 11875 3205 6765735B 		.ascii	"ges[4-9]\\EntranceGuard_171019-12.50\\EntranceGuard"
 11875      342D395D 
 11875      5C456E74 
 11875      72616E63 
 11875      65477561 
 11876 3236 2E637964 		.ascii	".cydsn\000"
 11876      736E00
 11877              	.LASF645:
 11878 323d 57726974 		.ascii	"Write_OpenInfo\000"
 11878      655F4F70 
 11878      656E496E 
 11878      666F00
 11879              	.LASF13:
 11880 324c 75696E74 		.ascii	"uint16_t\000"
 11880      31365F74 
 11880      00
 11881              	.LASF678:
 11882 3255 52656164 		.ascii	"Read_Open_Qty\000"
 11882      5F4F7065 
 11882      6E5F5174 
 11882      7900
 11883              	.LASF85:
 11884 3263 4359424C 		.ascii	"CYBLE_ERROR_INVALID_STATE\000"
 11884      455F4552 
 11884      524F525F 
 11884      494E5641 
 11884      4C49445F 
 11885              	.LASF175:
 11886 327d 4359424C 		.ascii	"CYBLE_GATT_DB_ATTR_HANDLE_T\000"
 11886      455F4741 
 11886      54545F44 
 11886      425F4154 
 11886      54525F48 
 11887              	.LASF159:
 11888 3299 4359424C 		.ascii	"CYBLE_EVT_L2CAP_CBFC_DATA_READ\000"
 11888      455F4556 
 11888      545F4C32 
 11888      4341505F 
 11888      43424643 
 11889              	.LASF292:
 11890 32b8 4359424C 		.ascii	"CYBLE_EVT_BCSC_READ_DESCR_RESPONSE\000"
 11890      455F4556 
 11890      545F4243 
ARM GAS  C:\Users\Administrator\AppData\Local\Temp\ccNLOfxN.s 			page 281


 11890      53435F52 
 11890      4541445F 
 11891              	.LASF176:
 11892 32db 76616C75 		.ascii	"value\000"
 11892      6500
 11893              	.LASF328:
 11894 32e1 4359424C 		.ascii	"CYBLE_EVT_CPSC_NOTIFICATION\000"
 11894      455F4556 
 11894      545F4350 
 11894      53435F4E 
 11894      4F544946 
 11895              	.LASF303:
 11896 32fd 4359424C 		.ascii	"CYBLE_EVT_BLSC_WRITE_DESCR_RESPONSE\000"
 11896      455F4556 
 11896      545F424C 
 11896      53435F57 
 11896      52495445 
 11897              	.LASF625:
 11898 3321 4379426C 		.ascii	"CyBle_EnterLPM\000"
 11898      655F456E 
 11898      7465724C 
 11898      504D00
 11899              	.LASF425:
 11900 3330 4359424C 		.ascii	"CYBLE_EVT_LNSC_NOTIFICATION\000"
 11900      455F4556 
 11900      545F4C4E 
 11900      53435F4E 
 11900      4F544946 
 11901              	.LASF548:
 11902 334c 4F70656E 		.ascii	"OpenQty\000"
 11902      51747900 
 11903              	.LASF583:
 11904 3354 47505253 		.ascii	"GPRSCmd_buf1\000"
 11904      436D645F 
 11904      62756631 
 11904      00
 11905              	.LASF584:
 11906 3361 47505253 		.ascii	"GPRSCmd_buf2\000"
 11906      436D645F 
 11906      62756632 
 11906      00
 11907              	.LASF350:
 11908 336e 4359424C 		.ascii	"CYBLE_EVT_CTSC_NOTIFICATION\000"
 11908      455F4556 
 11908      545F4354 
 11908      53435F4E 
 11908      4F544946 
 11909              	.LASF589:
 11910 338a 6E657874 		.ascii	"next_network_time\000"
 11910      5F6E6574 
 11910      776F726B 
 11910      5F74696D 
 11910      6500
 11911              	.LASF371:
 11912 339c 4359424C 		.ascii	"CYBLE_EVT_GLSS_INDICATION_DISABLED\000"
 11912      455F4556 
 11912      545F474C 
ARM GAS  C:\Users\Administrator\AppData\Local\Temp\ccNLOfxN.s 			page 282


 11912      53535F49 
 11912      4E444943 
 11913              	.LASF632:
 11914 33bf 4C45445F 		.ascii	"LED_BLUE_Write\000"
 11914      424C5545 
 11914      5F577269 
 11914      746500
 11915              	.LASF257:
 11916 33ce 4359424C 		.ascii	"CYBLE_EVT_GATTC_SRVC_DUPLICATION\000"
 11916      455F4556 
 11916      545F4741 
 11916      5454435F 
 11916      53525643 
 11917              	.LASF64:
 11918 33ef 4359424C 		.ascii	"CYBLE_ERROR_GATT_DB_HANDLE_IN_GROUP_RANGE\000"
 11918      455F4552 
 11918      524F525F 
 11918      47415454 
 11918      5F44425F 
 11919              	.LASF597:
 11920 3419 75706C6F 		.ascii	"uploadflag_cnt\000"
 11920      6164666C 
 11920      61675F63 
 11920      6E7400
 11921              	.LASF688:
 11922 3428 5744545F 		.ascii	"WDT_ISR_StartEx\000"
 11922      4953525F 
 11922      53746172 
 11922      74457800 
 11923              	.LASF418:
 11924 3438 4359424C 		.ascii	"CYBLE_EVT_LNSS_INDICATION_ENABLED\000"
 11924      455F4556 
 11924      545F4C4E 
 11924      53535F49 
 11924      4E444943 
 11925              	.LASF89:
 11926 345a 4359424C 		.ascii	"CYBLE_GAP_BD_ADDR_T\000"
 11926      455F4741 
 11926      505F4244 
 11926      5F414444 
 11926      525F5400 
 11927              	.LASF590:
 11928 346e 6E657874 		.ascii	"next_heartbeat_time\000"
 11928      5F686561 
 11928      72746265 
 11928      61745F74 
 11928      696D6500 
 11929              	.LASF399:
 11930 3482 4359424C 		.ascii	"CYBLE_EVT_HRSC_WRITE_CHAR_RESPONSE\000"
 11930      455F4556 
 11930      545F4852 
 11930      53435F57 
 11930      52495445 
 11931              	.LASF605:
 11932 34a5 43617264 		.ascii	"Card_ErrCount\000"
 11932      5F457272 
 11932      436F756E 
ARM GAS  C:\Users\Administrator\AppData\Local\Temp\ccNLOfxN.s 			page 283


 11932      7400
 11933              	.LASF644:
 11934 34b3 6D656D73 		.ascii	"memset\000"
 11934      657400
 11935              	.LASF180:
 11936 34ba 68616E64 		.ascii	"handleValPair\000"
 11936      6C655661 
 11936      6C506169 
 11936      7200
 11937              	.LASF265:
 11938 34c8 4359424C 		.ascii	"CYBLE_EVT_ANCSS_NOTIFICATION_DISABLED\000"
 11938      455F4556 
 11938      545F414E 
 11938      4353535F 
 11938      4E4F5449 
 11939              	.LASF537:
 11940 34ee 47505253 		.ascii	"GPRSPowerOn_0321\000"
 11940      506F7765 
 11940      724F6E5F 
 11940      30333231 
 11940      00
 11941              	.LASF585:
 11942 34ff 43757272 		.ascii	"CurrentCommandPktTotalSize\000"
 11942      656E7443 
 11942      6F6D6D61 
 11942      6E64506B 
 11942      74546F74 
 11943              	.LASF179:
 11944 351a 636F6E6E 		.ascii	"connHandle\000"
 11944      48616E64 
 11944      6C6500
 11945              	.LASF640:
 11946 3525 5254435F 		.ascii	"RTC_GetUnixTime\000"
 11946      47657455 
 11946      6E697854 
 11946      696D6500 
 11947              	.LASF282:
 11948 3535 4359424C 		.ascii	"CYBLE_EVT_BASS_NOTIFICATION_DISABLED\000"
 11948      455F4556 
 11948      545F4241 
 11948      53535F4E 
 11948      4F544946 
 11949              	.LASF200:
 11950 355a 61647644 		.ascii	"advDataLen\000"
 11950      6174614C 
 11950      656E00
 11951              	.LASF320:
 11952 3565 4359424C 		.ascii	"CYBLE_EVT_CPSS_NOTIFICATION_ENABLED\000"
 11952      455F4556 
 11952      545F4350 
 11952      53535F4E 
 11952      4F544946 
 11953              	.LASF95:
 11954 3589 4359424C 		.ascii	"CYBLE_GAP_AUTH_ERROR_PAIRING_NOT_SUPPORTED\000"
 11954      455F4741 
 11954      505F4155 
 11954      54485F45 
ARM GAS  C:\Users\Administrator\AppData\Local\Temp\ccNLOfxN.s 			page 284


 11954      52524F52 
 11955              	.LASF665:
 11956 35b4 47505253 		.ascii	"GPRS_ConnectPreServer\000"
 11956      5F436F6E 
 11956      6E656374 
 11956      50726553 
 11956      65727665 
 11957              	.LASF66:
 11958 35ca 4359424C 		.ascii	"CYBLE_ERROR_GATT_DB_UUID_NOT_IN_BT_SPACE\000"
 11958      455F4552 
 11958      524F525F 
 11958      47415454 
 11958      5F44425F 
 11959              	.LASF478:
 11960 35f3 4359424C 		.ascii	"CYBLE_EVT_UDSC_ERROR_RESPONSE\000"
 11960      455F4556 
 11960      545F5544 
 11960      53435F45 
 11960      52524F52 
 11961              	.LASF135:
 11962 3611 4359424C 		.ascii	"CYBLE_EVT_GATTC_FIND_INFO_RSP\000"
 11962      455F4556 
 11962      545F4741 
 11962      5454435F 
 11962      46494E44 
 11963              	.LASF134:
 11964 362f 4359424C 		.ascii	"CYBLE_EVT_GATTC_READ_BY_TYPE_RSP\000"
 11964      455F4556 
 11964      545F4741 
 11964      5454435F 
 11964      52454144 
 11965              	.LASF432:
 11966 3650 4359424C 		.ascii	"CYBLE_EVT_PASSS_NOTIFICATION_DISABLED\000"
 11966      455F4556 
 11966      545F5041 
 11966      5353535F 
 11966      4E4F5449 
 11967              	.LASF318:
 11968 3676 4359424C 		.ascii	"CYBLE_EVT_CGMSC_READ_DESCR_RESPONSE\000"
 11968      455F4556 
 11968      545F4347 
 11968      4D53435F 
 11968      52454144 
 11969              	.LASF390:
 11970 369a 4359424C 		.ascii	"CYBLE_EVT_HIDSC_READ_CHAR_RESPONSE\000"
 11970      455F4556 
 11970      545F4849 
 11970      4453435F 
 11970      52454144 
 11971              	.LASF693:
 11972 36bd 4379426C 		.ascii	"CyBle_Start\000"
 11972      655F5374 
 11972      61727400 
 11973              	.LASF501:
 11974 36c9 61706952 		.ascii	"apiResult\000"
 11974      6573756C 
 11974      7400
ARM GAS  C:\Users\Administrator\AppData\Local\Temp\ccNLOfxN.s 			page 285


 11975              	.LASF648:
 11976 36d3 4379426C 		.ascii	"CyBle_ProcessEvents\000"
 11976      655F5072 
 11976      6F636573 
 11976      73457665 
 11976      6E747300 
 11977              	.LASF612:
 11978 36e7 6379426C 		.ascii	"cyBle_state\000"
 11978      655F7374 
 11978      61746500 
 11979              	.LASF123:
 11980 36f3 4359424C 		.ascii	"CYBLE_EVT_GAP_DEVICE_DISCONNECTED\000"
 11980      455F4556 
 11980      545F4741 
 11980      505F4445 
 11980      56494345 
 11981              	.LASF457:
 11982 3715 4359424C 		.ascii	"CYBLE_EVT_SCPSC_READ_DESCR_RESPONSE\000"
 11982      455F4556 
 11982      545F5343 
 11982      5053435F 
 11982      52454144 
 11983              	.LASF401:
 11984 3739 4359424C 		.ascii	"CYBLE_EVT_HRSC_WRITE_DESCR_RESPONSE\000"
 11984      455F4556 
 11984      545F4852 
 11984      53435F57 
 11984      52495445 
 11985              	.LASF423:
 11986 375d 4359424C 		.ascii	"CYBLE_EVT_LNSS_WRITE_CHAR\000"
 11986      455F4556 
 11986      545F4C4E 
 11986      53535F57 
 11986      52495445 
 11987              	.LASF361:
 11988 3777 4359424C 		.ascii	"CYBLE_EVT_ESSS_CHAR_WRITE\000"
 11988      455F4556 
 11988      545F4553 
 11988      53535F43 
 11988      4841525F 
 11989              	.LASF141:
 11990 3791 4359424C 		.ascii	"CYBLE_EVT_GATTC_WRITE_RSP\000"
 11990      455F4556 
 11990      545F4741 
 11990      5454435F 
 11990      57524954 
 11991              	.LASF356:
 11992 37ab 4359424C 		.ascii	"CYBLE_EVT_ESSS_NOTIFICATION_ENABLED\000"
 11992      455F4556 
 11992      545F4553 
 11992      53535F4E 
 11992      4F544946 
 11993              	.LASF170:
 11994 37cf 4359424C 		.ascii	"CYBLE_STATE_DISCONNECTED\000"
 11994      455F5354 
 11994      4154455F 
 11994      44495343 
ARM GAS  C:\Users\Administrator\AppData\Local\Temp\ccNLOfxN.s 			page 286


 11994      4F4E4E45 
 11995              	.LASF662:
 11996 37e8 47505253 		.ascii	"GPRS_ConnectCenterServer\000"
 11996      5F436F6E 
 11996      6E656374 
 11996      43656E74 
 11996      65725365 
 11997              	.LASF378:
 11998 3801 4359424C 		.ascii	"CYBLE_EVT_GLSC_READ_CHAR_RESPONSE\000"
 11998      455F4556 
 11998      545F474C 
 11998      53435F52 
 11998      4541445F 
 11999              	.LASF591:
 12000 3823 6E657874 		.ascii	"next_gprs_operation_time\000"
 12000      5F677072 
 12000      735F6F70 
 12000      65726174 
 12000      696F6E5F 
 12001              	.LASF445:
 12002 383c 4359424C 		.ascii	"CYBLE_EVT_RSCSC_NOTIFICATION\000"
 12002      455F4556 
 12002      545F5253 
 12002      4353435F 
 12002      4E4F5449 
 12003              	.LASF628:
 12004 3859 43795379 		.ascii	"CySysPmDeepSleep\000"
 12004      73506D44 
 12004      65657053 
 12004      6C656570 
 12004      00
 12005              	.LASF639:
 12006 386a 43617264 		.ascii	"CardScan\000"
 12006      5363616E 
 12006      00
 12007              	.LASF121:
 12008 3873 4359424C 		.ascii	"CYBLE_EVT_GAPP_ADVERTISEMENT_START_STOP\000"
 12008      455F4556 
 12008      545F4741 
 12008      50505F41 
 12008      44564552 
 12009              	.LASF598:
 12010 389b 6C617374 		.ascii	"last_index\000"
 12010      5F696E64 
 12010      657800
 12011              	.LASF219:
 12012 38a6 4359424C 		.ascii	"CYBLE_GAPP_SCAN_RSP_DATA_T\000"
 12012      455F4741 
 12012      50505F53 
 12012      43414E5F 
 12012      5253505F 
 12013              	.LASF489:
 12014 38c1 4359424C 		.ascii	"CYBLE_EVT_WPTSC_READ_DESCR_RESPONSE\000"
 12014      455F4556 
 12014      545F5750 
 12014      5453435F 
 12014      52454144 
ARM GAS  C:\Users\Administrator\AppData\Local\Temp\ccNLOfxN.s 			page 287


 12015              	.LASF267:
 12016 38e5 4359424C 		.ascii	"CYBLE_EVT_ANCSC_NOTIFICATION\000"
 12016      455F4556 
 12016      545F414E 
 12016      4353435F 
 12016      4E4F5449 
 12017              	.LASF691:
 12018 3902 5254435F 		.ascii	"RTC_SetUnixTime\000"
 12018      53657455 
 12018      6E697854 
 12018      696D6500 
 12019              	.LASF580:
 12020 3912 47505253 		.ascii	"GPRS_AT_RecFinish\000"
 12020      5F41545F 
 12020      52656346 
 12020      696E6973 
 12020      6800
 12021              	.LASF552:
 12022 3924 6E616D65 		.ascii	"name\000"
 12022      00
 12023              	.LASF317:
 12024 3929 4359424C 		.ascii	"CYBLE_EVT_CGMSC_WRITE_CHAR_RESPONSE\000"
 12024      455F4556 
 12024      545F4347 
 12024      4D53435F 
 12024      57524954 
 12025              	.LASF15:
 12026 394d 75696E74 		.ascii	"uint8\000"
 12026      3800
 12027              	.LASF410:
 12028 3953 4359424C 		.ascii	"CYBLE_EVT_HTSC_READ_CHAR_RESPONSE\000"
 12028      455F4556 
 12028      545F4854 
 12028      53435F52 
 12028      4541445F 
 12029              	.LASF104:
 12030 3975 73656375 		.ascii	"security\000"
 12030      72697479 
 12030      00
 12031              	.LASF438:
 12032 397e 4359424C 		.ascii	"CYBLE_EVT_PASSC_WRITE_DESCR_RESPONSE\000"
 12032      455F4556 
 12032      545F5041 
 12032      5353435F 
 12032      57524954 
 12033              	.LASF2:
 12034 39a3 73686F72 		.ascii	"short int\000"
 12034      7420696E 
 12034      7400
 12035              	.LASF532:
 12036 39ad 6375725F 		.ascii	"cur_time\000"
 12036      74696D65 
 12036      00
 12037              	.LASF107:
 12038 39b6 61757468 		.ascii	"authErr\000"
 12038      45727200 
 12039              	.LASF681:
ARM GAS  C:\Users\Administrator\AppData\Local\Temp\ccNLOfxN.s 			page 288


 12040 39be 4379426C 		.ascii	"CyBle_GapSetLocalName\000"
 12040      655F4761 
 12040      70536574 
 12040      4C6F6361 
 12040      6C4E616D 
 12041              	.LASF304:
 12042 39d4 4359424C 		.ascii	"CYBLE_EVT_BMSS_WRITE_CHAR\000"
 12042      455F4556 
 12042      545F424D 
 12042      53535F57 
 12042      52495445 
 12043              	.LASF279:
 12044 39ee 4359424C 		.ascii	"CYBLE_EVT_ANSC_READ_DESCR_RESPONSE\000"
 12044      455F4556 
 12044      545F414E 
 12044      53435F52 
 12044      4541445F 
 12045              	.LASF251:
 12046 3a11 4359424C 		.ascii	"CYBLE_EVT_GATTS_INDICATION_DISABLED\000"
 12046      455F4556 
 12046      545F4741 
 12046      5454535F 
 12046      494E4449 
 12047              	.LASF218:
 12048 3a35 7363616E 		.ascii	"scanRspDataLen\000"
 12048      52737044 
 12048      6174614C 
 12048      656E00
 12049              	.LASF68:
 12050 3a44 4359424C 		.ascii	"CYBLE_ERROR_GATT_DB_INSUFFICIENT_SECURITY\000"
 12050      455F4552 
 12050      524F525F 
 12050      47415454 
 12050      5F44425F 
 12051              	.LASF571:
 12052 3a6e 75706461 		.ascii	"update_report\000"
 12052      74655F72 
 12052      65706F72 
 12052      7400
 12053              	.LASF600:
 12054 3a7c 75706461 		.ascii	"update_timeout_time\000"
 12054      74655F74 
 12054      696D656F 
 12054      75745F74 
 12054      696D6500 
 12055              	.LASF288:
 12056 3a90 4359424C 		.ascii	"CYBLE_EVT_BCSS_INDICATION_DISABLED\000"
 12056      455F4556 
 12056      545F4243 
 12056      53535F49 
 12056      4E444943 
 12057              	.LASF573:
 12058 3ab3 75706461 		.ascii	"update_offset\000"
 12058      74655F6F 
 12058      66667365 
 12058      7400
 12059              	.LASF315:
ARM GAS  C:\Users\Administrator\AppData\Local\Temp\ccNLOfxN.s 			page 289


 12060 3ac1 4359424C 		.ascii	"CYBLE_EVT_CGMSC_NOTIFICATION\000"
 12060      455F4556 
 12060      545F4347 
 12060      4D53435F 
 12060      4E4F5449 
 12061              	.LASF128:
 12062 3ade 4359424C 		.ascii	"CYBLE_EVT_GATTC_ERROR_RSP\000"
 12062      455F4556 
 12062      545F4741 
 12062      5454435F 
 12062      4552524F 
 12063              	.LASF171:
 12064 3af8 4359424C 		.ascii	"CYBLE_STATE_T\000"
 12064      455F5354 
 12064      4154455F 
 12064      5400
 12065              	.LASF696:
 12066 3b06 47505253 		.ascii	"GPRS_CheckConnectState\000"
 12066      5F436865 
 12066      636B436F 
 12066      6E6E6563 
 12066      74537461 
 12067              	.LASF272:
 12068 3b1d 4359424C 		.ascii	"CYBLE_EVT_ANCSC_ERROR_RESPONSE\000"
 12068      455F4556 
 12068      545F414E 
 12068      4353435F 
 12068      4552524F 
 12069              	.LASF286:
 12070 3b3c 4359424C 		.ascii	"CYBLE_EVT_BASC_WRITE_DESCR_RESPONSE\000"
 12070      455F4556 
 12070      545F4241 
 12070      53435F57 
 12070      52495445 
 12071              	.LASF370:
 12072 3b60 4359424C 		.ascii	"CYBLE_EVT_GLSS_INDICATION_ENABLED\000"
 12072      455F4556 
 12072      545F474C 
 12072      53535F49 
 12072      4E444943 
 12073              	.LASF275:
 12074 3b82 4359424C 		.ascii	"CYBLE_EVT_ANSS_CHAR_WRITE\000"
 12074      455F4556 
 12074      545F414E 
 12074      53535F43 
 12074      4841525F 
 12075              	.LASF204:
 12076 3b9c 4359424C 		.ascii	"CYBLE_GAPP_SCANNABLE_UNDIRECTED_ADV\000"
 12076      455F4741 
 12076      50505F53 
 12076      43414E4E 
 12076      41424C45 
 12077              	.LASF520:
 12078 3bc0 446F6F72 		.ascii	"DoorOpen\000"
 12078      4F70656E 
 12078      00
 12079              	.LASF155:
ARM GAS  C:\Users\Administrator\AppData\Local\Temp\ccNLOfxN.s 			page 290


 12080 3bc9 4359424C 		.ascii	"CYBLE_EVT_L2CAP_CBFC_CONN_IND\000"
 12080      455F4556 
 12080      545F4C32 
 12080      4341505F 
 12080      43424643 
 12081              	.LASF144:
 12082 3be7 4359424C 		.ascii	"CYBLE_EVT_GATTS_EXEC_WRITE_REQ\000"
 12082      455F4556 
 12082      545F4741 
 12082      5454535F 
 12082      45584543 
 12083              	.LASF115:
 12084 3c06 4359424C 		.ascii	"CYBLE_EVT_GAPC_SCAN_PROGRESS_RESULT\000"
 12084      455F4556 
 12084      545F4741 
 12084      50435F53 
 12084      43414E5F 
 12085              	.LASF516:
 12086 3c2a 4C65645F 		.ascii	"Led_RedON\000"
 12086      5265644F 
 12086      4E00
 12087              	.LASF349:
 12088 3c34 4359424C 		.ascii	"CYBLE_EVT_CTSS_CHAR_WRITE\000"
 12088      455F4556 
 12088      545F4354 
 12088      53535F43 
 12088      4841525F 
 12089              	.LASF465:
 12090 3c4e 4359424C 		.ascii	"CYBLE_EVT_UDSS_INDICATION_ENABLED\000"
 12090      455F4556 
 12090      545F5544 
 12090      53535F49 
 12090      4E444943 
 12091              	.LASF689:
 12092 3c70 5744545F 		.ascii	"WDT_Start\000"
 12092      53746172 
 12092      7400
 12093              	.LASF506:
 12094 3c7a 41707043 		.ascii	"AppCallback\000"
 12094      616C6C62 
 12094      61636B00 
 12095              	.LASF661:
 12096 3c86 50726F74 		.ascii	"Protocol_CmdParse\000"
 12096      6F636F6C 
 12096      5F436D64 
 12096      50617273 
 12096      6500
 12097              	.LASF45:
 12098 3c98 4359424C 		.ascii	"CYBLE_ERROR_GAP_ROLE\000"
 12098      455F4552 
 12098      524F525F 
 12098      4741505F 
 12098      524F4C45 
 12099              	.LASF404:
 12100 3cad 4359424C 		.ascii	"CYBLE_EVT_HTSS_INDICATION_ENABLED\000"
 12100      455F4556 
 12100      545F4854 
ARM GAS  C:\Users\Administrator\AppData\Local\Temp\ccNLOfxN.s 			page 291


 12100      53535F49 
 12100      4E444943 
 12101              	.LASF543:
 12102 3ccf 6F70656E 		.ascii	"openInfo_Key\000"
 12102      496E666F 
 12102      5F4B6579 
 12102      00
 12103              	.LASF476:
 12104 3cdc 4359424C 		.ascii	"CYBLE_EVT_UDSC_READ_DESCR_RESPONSE\000"
 12104      455F4556 
 12104      545F5544 
 12104      53435F52 
 12104      4541445F 
 12105              	.LASF692:
 12106 3cff 6E66635F 		.ascii	"nfc_init\000"
 12106      696E6974 
 12106      00
 12107              	.LASF609:
 12108 3d08 6D656D5F 		.ascii	"mem_var\000"
 12108      76617200 
 12109              	.LASF284:
 12110 3d10 4359424C 		.ascii	"CYBLE_EVT_BASC_READ_CHAR_RESPONSE\000"
 12110      455F4556 
 12110      545F4241 
 12110      53435F52 
 12110      4541445F 
 12111              	.LASF377:
 12112 3d32 4359424C 		.ascii	"CYBLE_EVT_GLSC_NOTIFICATION\000"
 12112      455F4556 
 12112      545F474C 
 12112      53435F4E 
 12112      4F544946 
 12113              	.LASF87:
 12114 3d4e 62644164 		.ascii	"bdAddr\000"
 12114      647200
 12115              	.LASF455:
 12116 3d55 4359424C 		.ascii	"CYBLE_EVT_SCPSS_SCAN_INT_WIN_CHAR_WRITE\000"
 12116      455F4556 
 12116      545F5343 
 12116      5053535F 
 12116      5343414E 
 12117              	.LASF417:
 12118 3d7d 4359424C 		.ascii	"CYBLE_EVT_LLSC_WRITE_CHAR_RESPONSE\000"
 12118      455F4556 
 12118      545F4C4C 
 12118      53435F57 
 12118      52495445 
 12119              	.LASF193:
 12120 3da0 4359424C 		.ascii	"CYBLE_BLESS_STATE_ECO_STABLE\000"
 12120      455F424C 
 12120      4553535F 
 12120      53544154 
 12120      455F4543 
 12121              	.LASF226:
 12122 3dbd 4359424C 		.ascii	"CYBLE_LL_PWR_LVL_0_DBM\000"
 12122      455F4C4C 
 12122      5F505752 
ARM GAS  C:\Users\Administrator\AppData\Local\Temp\ccNLOfxN.s 			page 292


 12122      5F4C564C 
 12122      5F305F44 
 12123              	.LASF338:
 12124 3dd4 4359424C 		.ascii	"CYBLE_EVT_CSCSS_INDICATION_DISABLED\000"
 12124      455F4556 
 12124      545F4353 
 12124      4353535F 
 12124      494E4449 
 12125              	.LASF674:
 12126 3df8 6D656D63 		.ascii	"memcpy\000"
 12126      707900
 12127              	.LASF186:
 12128 3dff 4359424C 		.ascii	"CYBLE_BLESS_HIBERNATE\000"
 12128      455F424C 
 12128      4553535F 
 12128      48494245 
 12128      524E4154 
 12129              	.LASF229:
 12130 3e15 4359424C 		.ascii	"CYBLE_LL_ADV_CH_TYPE\000"
 12130      455F4C4C 
 12130      5F414456 
 12130      5F43485F 
 12130      54595045 
 12131              	.LASF307:
 12132 3e2a 4359424C 		.ascii	"CYBLE_EVT_BMSC_READ_DESCR_RESPONSE\000"
 12132      455F4556 
 12132      545F424D 
 12132      53435F52 
 12132      4541445F 
 12133              	.LASF164:
 12134 3e4d 4359424C 		.ascii	"CYBLE_EVT_LE_PING_AUTH_TIMEOUT\000"
 12134      455F4556 
 12134      545F4C45 
 12134      5F50494E 
 12134      475F4155 
 12135              	.LASF86:
 12136 3e6c 4359424C 		.ascii	"CYBLE_API_RESULT_T\000"
 12136      455F4150 
 12136      495F5245 
 12136      53554C54 
 12136      5F5400
 12137              	.LASF309:
 12138 3e7f 4359424C 		.ascii	"CYBLE_EVT_CGMSS_INDICATION_DISABLED\000"
 12138      455F4556 
 12138      545F4347 
 12138      4D53535F 
 12138      494E4449 
 12139              	.LASF196:
 12140 3ea3 4359424C 		.ascii	"CYBLE_BLESS_STATE_INVALID\000"
 12140      455F424C 
 12140      4553535F 
 12140      53544154 
 12140      455F494E 
 12141              	.LASF274:
 12142 3ebd 4359424C 		.ascii	"CYBLE_EVT_ANSS_NOTIFICATION_DISABLED\000"
 12142      455F4556 
 12142      545F414E 
ARM GAS  C:\Users\Administrator\AppData\Local\Temp\ccNLOfxN.s 			page 293


 12142      53535F4E 
 12142      4F544946 
 12143              	.LASF530:
 12144 3ee2 63617264 		.ascii	"card_id\000"
 12144      5F696400 
 12145              	.LASF263:
 12146 3eea 4359424C 		.ascii	"CYBLE_EVT_GATTC_DISCOVERY_COMPLETE\000"
 12146      455F4556 
 12146      545F4741 
 12146      5454435F 
 12146      44495343 
 12147              	.LASF313:
 12148 3f0d 4359424C 		.ascii	"CYBLE_EVT_CGMSS_WRITE_CHAR\000"
 12148      455F4556 
 12148      545F4347 
 12148      4D53535F 
 12148      57524954 
 12149              	.LASF381:
 12150 3f28 4359424C 		.ascii	"CYBLE_EVT_GLSC_WRITE_DESCR_RESPONSE\000"
 12150      455F4556 
 12150      545F474C 
 12150      53435F57 
 12150      52495445 
 12151              	.LASF638:
 12152 3f4c 57726974 		.ascii	"Write_UpdateInfo\000"
 12152      655F5570 
 12152      64617465 
 12152      496E666F 
 12152      00
 12153              	.LASF147:
 12154 3f5d 4359424C 		.ascii	"CYBLE_EVT_GATTC_HANDLE_VALUE_IND\000"
 12154      455F4556 
 12154      545F4741 
 12154      5454435F 
 12154      48414E44 
 12155              	.LASF334:
 12156 3f7e 4359424C 		.ascii	"CYBLE_EVT_CPSC_SCAN_PROGRESS_RESULT\000"
 12156      455F4556 
 12156      545F4350 
 12156      53435F53 
 12156      43414E5F 
 12157              	.LASF449:
 12158 3fa2 4359424C 		.ascii	"CYBLE_EVT_RSCSC_READ_DESCR_RESPONSE\000"
 12158      455F4556 
 12158      545F5253 
 12158      4353435F 
 12158      52454144 
 12159              	.LASF48:
 12160 3fc6 4359424C 		.ascii	"CYBLE_ERROR_SEC_FAILED\000"
 12160      455F4552 
 12160      524F525F 
 12160      5345435F 
 12160      4641494C 
 12161              	.LASF512:
 12162 3fdd 626C654D 		.ascii	"bleMode\000"
 12162      6F646500 
 12163              	.LASF14:
ARM GAS  C:\Users\Administrator\AppData\Local\Temp\ccNLOfxN.s 			page 294


 12164 3fe5 75696E74 		.ascii	"uint32_t\000"
 12164      33325F74 
 12164      00
 12165              	.LASF182:
 12166 3fee 4359424C 		.ascii	"CYBLE_GATTS_WRITE_CMD_REQ_PARAM_T\000"
 12166      455F4741 
 12166      5454535F 
 12166      57524954 
 12166      455F434D 
 12167              	.LASF504:
 12168 4010 626C6553 		.ascii	"bleSsPowerLevel\000"
 12168      73506F77 
 12168      65724C65 
 12168      76656C00 
 12169              	.LASF413:
 12170 4020 4359424C 		.ascii	"CYBLE_EVT_HTSC_WRITE_DESCR_RESPONSE\000"
 12170      455F4556 
 12170      545F4854 
 12170      53435F57 
 12170      52495445 
 12171              	.LASF127:
 12172 4044 4359424C 		.ascii	"CYBLE_EVT_GAP_KEYINFO_EXCHNGE_CMPLT\000"
 12172      455F4556 
 12172      545F4741 
 12172      505F4B45 
 12172      59494E46 
 12173              	.LASF572:
 12174 4068 75706461 		.ascii	"update_page\000"
 12174      74655F70 
 12174      61676500 
 12175              	.LASF540:
 12176 4074 52657365 		.ascii	"ResetGPRS\000"
 12176      74475052 
 12176      5300
 12177              	.LASF490:
 12178 407e 4359424C 		.ascii	"CYBLE_EVT_WPTSC_WRITE_DESCR_RESPONSE\000"
 12178      455F4556 
 12178      545F5750 
 12178      5453435F 
 12178      57524954 
 12179              	.LASF235:
 12180 40a3 4359424C 		.ascii	"CYBLE_BLESS_PWR_IN_DB_T\000"
 12180      455F424C 
 12180      4553535F 
 12180      5057525F 
 12180      494E5F44 
 12181              	.LASF514:
 12182 40bb 4C6F7750 		.ascii	"LowPowerImplementation\000"
 12182      6F776572 
 12182      496D706C 
 12182      656D656E 
 12182      74617469 
 12183              	.LASF231:
 12184 40d2 4359424C 		.ascii	"CYBLE_LL_MAX_CH_TYPE\000"
 12184      455F4C4C 
 12184      5F4D4158 
 12184      5F43485F 
ARM GAS  C:\Users\Administrator\AppData\Local\Temp\ccNLOfxN.s 			page 295


 12184      54595045 
 12185              	.LASF152:
 12186 40e7 4359424C 		.ascii	"CYBLE_EVT_L2CAP_CONN_PARAM_UPDATE_REQ\000"
 12186      455F4556 
 12186      545F4C32 
 12186      4341505F 
 12186      434F4E4E 
 12187              	.LASF312:
 12188 410d 4359424C 		.ascii	"CYBLE_EVT_CGMSS_NOTIFICATION_DISABLED\000"
 12188      455F4556 
 12188      545F4347 
 12188      4D53535F 
 12188      4E4F5449 
 12189              	.LASF614:
 12190 4133 6379426C 		.ascii	"cyBle_discoveryData\000"
 12190      655F6469 
 12190      73636F76 
 12190      65727944 
 12190      61746100 
 12191              	.LASF672:
 12192 4147 426F6F74 		.ascii	"Bootloadable_Load\000"
 12192      6C6F6164 
 12192      61626C65 
 12192      5F4C6F61 
 12192      6400
 12193              	.LASF655:
 12194 4159 47505253 		.ascii	"GPRS_QueryCREG\000"
 12194      5F517565 
 12194      72794352 
 12194      454700
 12195              	.LASF80:
 12196 4168 4359424C 		.ascii	"CYBLE_CHAR_DISC_DONE\000"
 12196      455F4348 
 12196      41525F44 
 12196      4953435F 
 12196      444F4E45 
 12197              	.LASF254:
 12198 417d 4359424C 		.ascii	"CYBLE_EVT_GATTC_INCL_DISCOVERY_FAILED\000"
 12198      455F4556 
 12198      545F4741 
 12198      5454435F 
 12198      494E434C 
 12199              	.LASF5:
 12200 41a3 73686F72 		.ascii	"short unsigned int\000"
 12200      7420756E 
 12200      7369676E 
 12200      65642069 
 12200      6E7400
 12201              	.LASF71:
 12202 41b6 4359424C 		.ascii	"CYBLE_ERROR_GATT_DB_INCORRECT_UUID_FRMT\000"
 12202      455F4552 
 12202      524F525F 
 12202      47415454 
 12202      5F44425F 
 12203              	.LASF576:
 12204 41de 4D61635F 		.ascii	"Mac_Addr\000"
 12204      41646472 
ARM GAS  C:\Users\Administrator\AppData\Local\Temp\ccNLOfxN.s 			page 296


 12204      00
 12205              	.LASF213:
 12206 41e7 64697265 		.ascii	"directAddr\000"
 12206      63744164 
 12206      647200
 12207              	.LASF168:
 12208 41f2 4359424C 		.ascii	"CYBLE_STATE_CONNECTED\000"
 12208      455F5354 
 12208      4154455F 
 12208      434F4E4E 
 12208      45435445 
 12209              	.LASF34:
 12210 4208 61637475 		.ascii	"actualLen\000"
 12210      616C4C65 
 12210      6E00
 12211              	.LASF555:
 12212 4212 6D61635F 		.ascii	"mac_inflash\000"
 12212      696E666C 
 12212      61736800 
 12213              	.LASF670:
 12214 421e 436D645F 		.ascii	"Cmd_Protocol_ParaInit\000"
 12214      50726F74 
 12214      6F636F6C 
 12214      5F506172 
 12214      61496E69 
 12215              	.LASF214:
 12216 4234 61647643 		.ascii	"advChannelMap\000"
 12216      68616E6E 
 12216      656C4D61 
 12216      7000
 12217              	.LASF266:
 12218 4242 4359424C 		.ascii	"CYBLE_EVT_ANCSS_WRITE_CHAR\000"
 12218      455F4556 
 12218      545F414E 
 12218      4353535F 
 12218      57524954 
 12219              	.LASF596:
 12220 425d 75706C6F 		.ascii	"uploadpolling_stop\000"
 12220      6164706F 
 12220      6C6C696E 
 12220      675F7374 
 12220      6F7000
 12221              	.LASF376:
 12222 4270 4359424C 		.ascii	"CYBLE_EVT_GLSC_INDICATION\000"
 12222      455F4556 
 12222      545F474C 
 12222      53435F49 
 12222      4E444943 
 12223              	.LASF202:
 12224 428a 4359424C 		.ascii	"CYBLE_GAPP_CONNECTABLE_UNDIRECTED_ADV\000"
 12224      455F4741 
 12224      50505F43 
 12224      4F4E4E45 
 12224      43544142 
 12225              	.LASF326:
 12226 42b0 4359424C 		.ascii	"CYBLE_EVT_CPSS_BROADCAST_DISABLED\000"
 12226      455F4556 
ARM GAS  C:\Users\Administrator\AppData\Local\Temp\ccNLOfxN.s 			page 297


 12226      545F4350 
 12226      53535F42 
 12226      524F4144 
 12227              	.LASF565:
 12228 42d2 7072655F 		.ascii	"pre_ip\000"
 12228      697000
 12229              	.LASF664:
 12230 42d9 47505253 		.ascii	"GPRS_ClosedConnect\000"
 12230      5F436C6F 
 12230      73656443 
 12230      6F6E6E65 
 12230      637400
 12231              	.LASF173:
 12232 42ec 61747449 		.ascii	"attId\000"
 12232      6400
 12233              	.LASF38:
 12234 42f2 4359424C 		.ascii	"CYBLE_ERROR_INVALID_OPERATION\000"
 12234      455F4552 
 12234      524F525F 
 12234      494E5641 
 12234      4C49445F 
 12235              	.LASF630:
 12236 4310 43794578 		.ascii	"CyExitCriticalSection\000"
 12236      69744372 
 12236      69746963 
 12236      616C5365 
 12236      6374696F 
 12237              	.LASF113:
 12238 4326 4359424C 		.ascii	"CYBLE_EVT_HCI_STATUS\000"
 12238      455F4556 
 12238      545F4843 
 12238      495F5354 
 12238      41545553 
 12239              	.LASF130:
 12240 433b 4359424C 		.ascii	"CYBLE_EVT_GATT_DISCONNECT_IND\000"
 12240      455F4556 
 12240      545F4741 
 12240      54545F44 
 12240      4953434F 
 12241              	.LASF249:
 12242 4359 4359424C 		.ascii	"CYBLE_KEY_EXCHANGE_INFO_REQUEST_REPLY\000"
 12242      455F4B45 
 12242      595F4558 
 12242      4348414E 
 12242      47455F49 
 12243              	.LASF162:
 12244 437f 4359424C 		.ascii	"CYBLE_EVT_L2CAP_CBFC_DATA_WRITE_IND\000"
 12244      455F4556 
 12244      545F4C32 
 12244      4341505F 
 12244      43424643 
 12245              	.LASF247:
 12246 43a3 4359424C 		.ascii	"CYBLE_PASSKEY_ENTRY_REQUEST_REPLY\000"
 12246      455F5041 
 12246      53534B45 
 12246      595F454E 
 12246      5452595F 
ARM GAS  C:\Users\Administrator\AppData\Local\Temp\ccNLOfxN.s 			page 298


 12247              	.LASF651:
 12248 43c5 47505253 		.ascii	"GPRS_PWRKEY_Write\000"
 12248      5F505752 
 12248      4B45595F 
 12248      57726974 
 12248      6500
 12249              	.LASF680:
 12250 43d7 52656164 		.ascii	"Read_OpenInfo\000"
 12250      5F4F7065 
 12250      6E496E66 
 12250      6F00
 12251              	.LASF682:
 12252 43e5 55415254 		.ascii	"UART_433_tx_Write\000"
 12252      5F343333 
 12252      5F74785F 
 12252      57726974 
 12252      6500
 12253              	.LASF293:
 12254 43f7 4359424C 		.ascii	"CYBLE_EVT_BCSC_WRITE_DESCR_RESPONSE\000"
 12254      455F4556 
 12254      545F4243 
 12254      53435F57 
 12254      52495445 
 12255              	.LASF471:
 12256 441b 4359424C 		.ascii	"CYBLE_EVT_UDSS_WRITE_CHAR\000"
 12256      455F4556 
 12256      545F5544 
 12256      53535F57 
 12256      52495445 
 12257              	.LASF529:
 12258 4435 43415244 		.ascii	"CARD_Tick\000"
 12258      5F546963 
 12258      6B00
 12259              	.LASF646:
 12260 443f 73656E64 		.ascii	"send_upload_open_info\000"
 12260      5F75706C 
 12260      6F61645F 
 12260      6F70656E 
 12260      5F696E66 
 12261              	.LASF276:
 12262 4455 4359424C 		.ascii	"CYBLE_EVT_ANSC_NOTIFICATION\000"
 12262      455F4556 
 12262      545F414E 
 12262      53435F4E 
 12262      4F544946 
 12263              	.LASF42:
 12264 4471 4359424C 		.ascii	"CYBLE_ERROR_NO_CONNECTION\000"
 12264      455F4552 
 12264      524F525F 
 12264      4E4F5F43 
 12264      4F4E4E45 
 12265              	.LASF384:
 12266 448b 4359424C 		.ascii	"CYBLE_EVT_HIDSS_BOOT_MODE_ENTER\000"
 12266      455F4556 
 12266      545F4849 
 12266      4453535F 
 12266      424F4F54 
ARM GAS  C:\Users\Administrator\AppData\Local\Temp\ccNLOfxN.s 			page 299


 12267              	.LASF148:
 12268 44ab 4359424C 		.ascii	"CYBLE_EVT_GATTS_HANDLE_VALUE_CNF\000"
 12268      455F4556 
 12268      545F4741 
 12268      5454535F 
 12268      48414E44 
 12269              	.LASF345:
 12270 44cc 4359424C 		.ascii	"CYBLE_EVT_CSCSC_READ_DESCR_RESPONSE\000"
 12270      455F4556 
 12270      545F4353 
 12270      4353435F 
 12270      52454144 
 12271              	.LASF16:
 12272 44f0 75696E74 		.ascii	"uint16\000"
 12272      313600
 12273              	.LASF269:
 12274 44f7 4359424C 		.ascii	"CYBLE_EVT_ANCSC_WRITE_CHAR_RESPONSE\000"
 12274      455F4556 
 12274      545F414E 
 12274      4353435F 
 12274      57524954 
 12275              	.LASF211:
 12276 451b 6F776E41 		.ascii	"ownAddrType\000"
 12276      64647254 
 12276      79706500 
 12277              	.LASF46:
 12278 4527 4359424C 		.ascii	"CYBLE_ERROR_TX_POWER_READ\000"
 12278      455F4552 
 12278      524F525F 
 12278      54585F50 
 12278      4F574552 
 12279              	.LASF439:
 12280 4541 4359424C 		.ascii	"CYBLE_EVT_RSCSS_NOTIFICATION_ENABLED\000"
 12280      455F4556 
 12280      545F5253 
 12280      4353535F 
 12280      4E4F5449 
 12281              	.LASF495:
 12282 4566 4359424C 		.ascii	"CYBLE_EVT_WSSC_READ_CHAR_RESPONSE\000"
 12282      455F4556 
 12282      545F5753 
 12282      53435F52 
 12282      4541445F 
 12283              	.LASF194:
 12284 4588 4359424C 		.ascii	"CYBLE_BLESS_STATE_DEEPSLEEP\000"
 12284      455F424C 
 12284      4553535F 
 12284      53544154 
 12284      455F4445 
 12285              	.LASF409:
 12286 45a4 4359424C 		.ascii	"CYBLE_EVT_HTSC_INDICATION\000"
 12286      455F4556 
 12286      545F4854 
 12286      53435F49 
 12286      4E444943 
 12287              	.LASF560:
 12288 45be 4C45445F 		.ascii	"LED_State\000"
ARM GAS  C:\Users\Administrator\AppData\Local\Temp\ccNLOfxN.s 			page 300


 12288      53746174 
 12288      6500
 12289              	.LASF526:
 12290 45c8 55706461 		.ascii	"Updatealarm_check\000"
 12290      7465616C 
 12290      61726D5F 
 12290      63686563 
 12290      6B00
 12291              	.LASF601:
 12292 45da 67707273 		.ascii	"gprs_operation_ErrCount\000"
 12292      5F6F7065 
 12292      72617469 
 12292      6F6E5F45 
 12292      7272436F 
 12293              	.LASF382:
 12294 45f2 4359424C 		.ascii	"CYBLE_EVT_HIDSS_NOTIFICATION_ENABLED\000"
 12294      455F4556 
 12294      545F4849 
 12294      4453535F 
 12294      4E4F5449 
 12295              	.LASF406:
 12296 4617 4359424C 		.ascii	"CYBLE_EVT_HTSS_INDICATION_CONFIRMED\000"
 12296      455F4556 
 12296      545F4854 
 12296      53535F49 
 12296      4E444943 
 12297              	.LASF657:
 12298 463b 47505253 		.ascii	"GPRS_SetAPN\000"
 12298      5F536574 
 12298      41504E00 
 12299              	.LASF209:
 12300 4647 61647649 		.ascii	"advIntvMax\000"
 12300      6E74764D 
 12300      617800
 12301              	.LASF483:
 12302 4652 4359424C 		.ascii	"CYBLE_EVT_WPTSS_INDICATION_CONFIRMED\000"
 12302      455F4556 
 12302      545F5750 
 12302      5453535F 
 12302      494E4449 
 12303              	.LASF396:
 12304 4677 4359424C 		.ascii	"CYBLE_EVT_HRSS_NOTIFICATION_DISABLED\000"
 12304      455F4556 
 12304      545F4852 
 12304      53535F4E 
 12304      4F544946 
 12305              		.ident	"GCC: (GNU Tools for ARM Embedded Processors) 4.9.3 20150303 (release) [ARM/embedded-4_9-br
