ARM GAS  C:\Users\Administrator\AppData\Local\Temp\ccNLOfxN.s 			page 1


   1              		.cpu cortex-m0
   2              		.fpu softvfp
   3              		.eabi_attribute 20, 1
   4              		.eabi_attribute 21, 1
   5              		.eabi_attribute 23, 3
   6              		.eabi_attribute 24, 1
   7              		.eabi_attribute 25, 1
   8              		.eabi_attribute 26, 1
   9              		.eabi_attribute 30, 4
  10              		.eabi_attribute 34, 0
  11              		.eabi_attribute 18, 4
  12              		.code	16
  13              		.file	"main.c"
  14              		.text
  15              	.Ltext0:
  16              		.cfi_sections	.debug_frame
  17              		.section	.text.AppCallback,"ax",%progbits
  18              		.align	1
  19              		.global	AppCallback
  20              		.code	16
  21              		.thumb_func
  22              		.type	AppCallback, %function
  23              	AppCallback:
  24              	.LFB63:
  25              		.file 1 "main.c"
   1:main.c        **** //*************************************************************************************************
   2:main.c        **** // File name		: main.c
   3:main.c        **** // Description		: 门禁系统的相关函数
   4:main.c        **** // Author			: Keno
   5:main.c        **** // Date				: 2016.8.8
   6:main.c        **** // Version			: V02
   7:main.c        **** //-------------------------------------------------------------------------------------------------
   8:main.c        **** // Info				: 
   9:main.c        **** //*************************************************************************************************
  10:main.c        **** #include "main.h"
  11:main.c        **** 
  12:main.c        **** 
  13:main.c        **** //*************************************************************************************************
  14:main.c        **** // Function name	: AppCallback
  15:main.c        **** // Description		: 蓝牙的回调函数
  16:main.c        **** // Parameter		: event
  17:main.c        **** //					: eventParam
  18:main.c        **** // Return			: none
  19:main.c        **** //-------------------------------------------------------------------------------------------------
  20:main.c        **** // Info				: 
  21:main.c        **** //*************************************************************************************************
  22:main.c        **** void AppCallback(uint32 event, void* eventParam)
  23:main.c        **** {
  26              		.loc 1 23 0
  27              		.cfi_startproc
  28              	.LVL0:
  29 0000 7FB5     		push	{r0, r1, r2, r3, r4, r5, r6, lr}
  30              		.cfi_def_cfa_offset 32
  31              		.cfi_offset 0, -32
  32              		.cfi_offset 1, -28
  33              		.cfi_offset 2, -24
  34              		.cfi_offset 3, -20
ARM GAS  C:\Users\Administrator\AppData\Local\Temp\ccNLOfxN.s 			page 2


  35              		.cfi_offset 4, -16
  36              		.cfi_offset 5, -12
  37              		.cfi_offset 6, -8
  38              		.cfi_offset 14, -4
  39              		.loc 1 23 0
  40 0002 0B1C     		mov	r3, r1
  24:main.c        ****     CYBLE_API_RESULT_T apiResult;
  25:main.c        ****     CYBLE_GAP_BD_ADDR_T localAddr;
  26:main.c        ****     CYBLE_GAP_AUTH_INFO_T *authInfo;
  27:main.c        ****     CYBLE_BLESS_PWR_IN_DB_T bleSsPowerLevel;
  28:main.c        ****     uint8 i;
  29:main.c        **** 	CYBLE_GATTS_WRITE_CMD_REQ_PARAM_T *locationWCRP = (CYBLE_GATTS_WRITE_CMD_REQ_PARAM_T *)eventParam;
  30:main.c        **** 	
  31:main.c        ****     switch (event)
  41              		.loc 1 31 0
  42 0004 2828     		cmp	r0, #40
  43 0006 29D0     		beq	.L3
  44 0008 02D8     		bhi	.L4
  45 000a 0128     		cmp	r0, #1
  46 000c 09D0     		beq	.L5
  47 000e 2CE0     		b	.L1
  48              	.L4:
  49 0010 4C28     		cmp	r0, #76
  50 0012 27D0     		beq	.L6
  51 0014 4E28     		cmp	r0, #78
  52 0016 28D1     		bne	.L1
  32:main.c        **** 	{
  33:main.c        ****         /**********************************************************
  34:main.c        ****         *                       General Events
  35:main.c        ****         ***********************************************************/
  36:main.c        **** 		case CYBLE_EVT_STACK_ON: /* This event received when component is Started */
  37:main.c        **** 			/* Set Tx Power Level for advertising and connection channels */
  38:main.c        ****             bleSsPowerLevel.blePwrLevelInDbm = CYBLE_LL_PWR_LVL_NEG_12_DBM;
  39:main.c        ****             bleSsPowerLevel.bleSsChId = CYBLE_LL_ADV_CH_TYPE;
  40:main.c        ****             (void) CyBle_SetTxPowerLevel (&bleSsPowerLevel);
  41:main.c        **** 			
  42:main.c        **** 			if (Read_Mac_Flag == 0)
  43:main.c        **** 			{
  44:main.c        ****             	DBG_PRINTF("Bluetooth On, StartAdvertisement with addr: \n");
  45:main.c        ****             	localAddr.type = 0u;
  46:main.c        ****             	CyBle_GetDeviceAddress(&localAddr);
  47:main.c        ****             	for(i = CYBLE_GAP_BD_ADDR_SIZE; i > 0u; i--)
  48:main.c        ****             	{
  49:main.c        ****                 	DBG_PRINTF("%2.2x", localAddr.bdAddr[i-1]);
  50:main.c        ****             	}
  51:main.c        **** 				DBG_PRINTF("\n");
  52:main.c        **** 				
  53:main.c        **** 				for (i = CYBLE_GAP_BD_ADDR_SIZE; i > 0u; i--)
  54:main.c        **** 				{
  55:main.c        **** 					Mac_Addr[CYBLE_GAP_BD_ADDR_SIZE - i] = localAddr.bdAddr[i - 1];
  56:main.c        **** 				}
  57:main.c        **** 				Read_Mac_Flag = 1;				
  58:main.c        **** 				
  59:main.c        **** 			}
  60:main.c        **** 			
  61:main.c        **** 			/* Enter into discoverable mode so that remote can search it. */
  62:main.c        ****             apiResult = CyBle_GappStartAdvertisement(CYBLE_ADVERTISING_FAST);
ARM GAS  C:\Users\Administrator\AppData\Local\Temp\ccNLOfxN.s 			page 3


  63:main.c        ****             if(apiResult != CYBLE_ERROR_OK)
  64:main.c        ****             {
  65:main.c        ****                 DBG_PRINTF("StartAdvertisement API Error: %d \r\n", apiResult);
  66:main.c        ****             }
  67:main.c        **** 			DBG_PRINTF("\r\n");
  68:main.c        ****             break;
  69:main.c        **** 		case CYBLE_EVT_TIMEOUT: 
  70:main.c        ****             DBG_PRINTF("CYBLE_EVT_TIMEOUT: %x \r\n", *(CYBLE_TO_REASON_CODE_T *)eventParam);
  71:main.c        **** 			break;
  72:main.c        **** 		case CYBLE_EVT_HARDWARE_ERROR:    /* This event indicates that some internal HW error has occurre
  73:main.c        ****             DBG_PRINTF("Hardware Error \r\n");
  74:main.c        **** 			break;
  75:main.c        ****         case CYBLE_EVT_HCI_STATUS:
  76:main.c        ****             DBG_PRINTF("CYBLE_EVT_HCI_STATUS: %x \r\n", *(uint8 *)eventParam);
  77:main.c        **** 			break;
  78:main.c        **** 
  79:main.c        ****         /**********************************************************
  80:main.c        ****         *                       GAP Events
  81:main.c        ****         ***********************************************************/
  82:main.c        ****         case CYBLE_EVT_GAP_AUTH_REQ:
  83:main.c        ****             DBG_PRINTF("CYBLE_EVT_AUTH_REQ: security=%x, bonding=%x, ekeySize=%x, err=%x \r\n", 
  84:main.c        ****                 (*(CYBLE_GAP_AUTH_INFO_T *)eventParam).security, 
  85:main.c        ****                 (*(CYBLE_GAP_AUTH_INFO_T *)eventParam).bonding, 
  86:main.c        ****                 (*(CYBLE_GAP_AUTH_INFO_T *)eventParam).ekeySize, 
  87:main.c        ****                 (*(CYBLE_GAP_AUTH_INFO_T *)eventParam).authErr);
  88:main.c        ****             break;
  89:main.c        ****         case CYBLE_EVT_GAP_PASSKEY_ENTRY_REQUEST:
  90:main.c        ****             DBG_PRINTF("CYBLE_EVT_PASSKEY_ENTRY_REQUEST \r\n");
  91:main.c        ****             break;
  92:main.c        ****         case CYBLE_EVT_GAP_PASSKEY_DISPLAY_REQUEST:
  93:main.c        ****             DBG_PRINTF("CYBLE_EVT_PASSKEY_DISPLAY_REQUEST %6.6ld \r\n", *(uint32 *)eventParam);
  94:main.c        ****             break;
  95:main.c        ****         case CYBLE_EVT_GAP_AUTH_COMPLETE:
  96:main.c        ****             authInfo = (CYBLE_GAP_AUTH_INFO_T *)eventParam;
  97:main.c        ****             (void)authInfo;
  98:main.c        ****             DBG_PRINTF("AUTH_COMPLETE: security:%x, bonding:%x, ekeySize:%x, authErr %x \r\n", 
  99:main.c        ****                                     authInfo->security, authInfo->bonding, authInfo->ekeySize, auth
 100:main.c        ****             break;
 101:main.c        ****         case CYBLE_EVT_GAP_AUTH_FAILED:
 102:main.c        ****             DBG_PRINTF("CYBLE_EVT_AUTH_FAILED: %x \r\n", *(uint8 *)eventParam);
 103:main.c        ****             break;
 104:main.c        ****         case CYBLE_EVT_GAPP_ADVERTISEMENT_START_STOP:
 105:main.c        ****             DBG_PRINTF("CYBLE_EVT_GAPP_ADVERTISEMENT_START_STOP, state: %x\r\n", CyBle_GetState());
 106:main.c        ****             if(CYBLE_STATE_DISCONNECTED == CyBle_GetState())
 107:main.c        ****             {   
 108:main.c        ****                 /* Fast and slow advertising period complete, go to low power  
 109:main.c        ****                  * mode (Hibernate mode) and wait for an external
 110:main.c        ****                  * user event to wake up the device again */
 111:main.c        ****                 DBG_PRINTF("Hibernate \r\n");
 112:main.c        ****             #if (DEBUG_UART_ENABLED == ENABLED)
 113:main.c        ****             	//while((UART_DEB_SpiUartGetTxBufferSize() + UART_DEB_GET_TX_FIFO_SR_VALID) != 0);
 114:main.c        ****             #endif /* (DEBUG_UART_ENABLED == ENABLED) */
 115:main.c        ****             }
 116:main.c        ****             break;
 117:main.c        ****         case CYBLE_EVT_GAP_DEVICE_CONNECTED:
 118:main.c        ****             DBG_PRINTF("CYBLE_EVT_GAP_DEVICE_CONNECTED: %x \r\n", *(uint8 *)eventParam);
 119:main.c        ****             break;
ARM GAS  C:\Users\Administrator\AppData\Local\Temp\ccNLOfxN.s 			page 4


 120:main.c        ****         case CYBLE_EVT_GAP_DEVICE_DISCONNECTED:
 121:main.c        ****             DBG_PRINTF("CYBLE_EVT_GAP_DEVICE_DISCONNECTED\r\n");
 122:main.c        ****             /* Put the device to discoverable mode so that remote can search it. */
 123:main.c        ****             apiResult = CyBle_GappStartAdvertisement(CYBLE_ADVERTISING_FAST);
 124:main.c        ****             if(apiResult != CYBLE_ERROR_OK)
 125:main.c        ****             {
 126:main.c        ****                 DBG_PRINTF("StartAdvertisement API Error: %x \r\n", apiResult);
 127:main.c        ****             }
 128:main.c        ****             break;
 129:main.c        ****         case CYBLE_EVT_GAP_ENCRYPT_CHANGE:
 130:main.c        ****             DBG_PRINTF("ENCRYPT_CHANGE: %x \r\n", *(uint8 *)eventParam);
 131:main.c        ****             break;
 132:main.c        ****         case CYBLE_EVT_GAPC_CONNECTION_UPDATE_COMPLETE:
 133:main.c        ****             DBG_PRINTF("CYBLE_EVT_CONNECTION_UPDATE_COMPLETE: %x \r\n", *(uint8 *)eventParam);
 134:main.c        ****             break;
 135:main.c        ****         case CYBLE_EVT_GAP_KEYINFO_EXCHNGE_CMPLT:
 136:main.c        ****             DBG_PRINTF("CYBLE_EVT_GAP_KEYINFO_EXCHNGE_CMPLT \r\n");
 137:main.c        ****             break;
 138:main.c        **** 
 139:main.c        ****         /**********************************************************
 140:main.c        ****         *                       GATT Events
 141:main.c        ****         ***********************************************************/
 142:main.c        ****         case CYBLE_EVT_GATT_CONNECT_IND:
 143:main.c        ****             DBG_PRINTF("CYBLE_EVT_GATT_CONNECT_IND: %x, %x \r\n", cyBle_connHandle.attId, cyBle_con
 144:main.c        ****             break;
 145:main.c        ****         case CYBLE_EVT_GATT_DISCONNECT_IND:
 146:main.c        ****             DBG_PRINTF("CYBLE_EVT_GATT_DISCONNECT_IND \r\n");
 147:main.c        ****             break;
 148:main.c        ****         case CYBLE_EVT_GATTS_WRITE_REQ:
 149:main.c        ****             DBG_PRINTF("CYBLE_EVT_GATT_WRITE_REQ: %x = ",((CYBLE_GATTS_WRITE_REQ_PARAM_T *)eventPar
 150:main.c        ****             (void)CyBle_GattsWriteRsp(((CYBLE_GATTS_WRITE_REQ_PARAM_T *)eventParam)->connHandle);
 151:main.c        ****             break;
 152:main.c        **** 		case CYBLE_EVT_GATTS_WRITE_CMD_REQ: 
 153:main.c        **** 			DBG_PRINTF("CYBLE_EVT_GATT_WRITE_CMD_REQ: = 0x%03xu \n",((CYBLE_GATTS_WRITE_CMD_REQ_PARAM_T *)ev
 154:main.c        **** 			//该属性的句柄值:
 155:main.c        **** 			DBG_PRINTF("locationWCRP->handleValPair.value.attrHandle =0x%03xu\n",locationWCRP->handleValPair
 156:main.c        **** 			//数据长度:
 157:main.c        **** 			DBG_PRINTF("locationWCRP->handleValPair.value.len = %d\n",locationWCRP->handleValPair.value.len)
 158:main.c        **** 			//数据actualen长度:
 159:main.c        **** 			DBG_PRINTF("locationWCRP->handleValPair.value.actualLen = 0x%x\n",locationWCRP->handleValPair.va
 160:main.c        **** 			//数据内容:
 161:main.c        **** 			//DBG_SOFT_PrintfHex(locationWCRP->handleValPair.value.val,locationWCRP->handleValPair.value.len
 162:main.c        **** 			BleRecv(locationWCRP->handleValPair.value.val, locationWCRP->handleValPair.value.len);
  53              		.loc 1 162 0
  54 0018 0989     		ldrh	r1, [r1, #8]
  55              	.LVL1:
  56 001a 5868     		ldr	r0, [r3, #4]
  57              	.LVL2:
  58 001c FFF7FEFF 		bl	BleRecv
  59              	.LVL3:
 163:main.c        ****             break;
  60              		.loc 1 163 0
  61 0020 23E0     		b	.L1
  62              	.LVL4:
  63              	.L5:
  64              	.LBB4:
  65              	.LBB5:
ARM GAS  C:\Users\Administrator\AppData\Local\Temp\ccNLOfxN.s 			page 5


  38:main.c        ****             bleSsPowerLevel.bleSsChId = CYBLE_LL_ADV_CH_TYPE;
  66              		.loc 1 38 0
  67 0022 0223     		mov	r3, #2
  68 0024 01A8     		add	r0, sp, #4
  69              	.LVL5:
  70 0026 0370     		strb	r3, [r0]
  39:main.c        ****             (void) CyBle_SetTxPowerLevel (&bleSsPowerLevel);
  71              		.loc 1 39 0
  72 0028 0023     		mov	r3, #0
  73 002a 4370     		strb	r3, [r0, #1]
  40:main.c        **** 			
  74              		.loc 1 40 0
  75 002c FFF7FEFF 		bl	CyBle_SetTxPowerLevel
  76              	.LVL6:
  42:main.c        **** 			{
  77              		.loc 1 42 0
  78 0030 0E4A     		ldr	r2, .L11
  79 0032 1378     		ldrb	r3, [r2]
  80 0034 161C     		mov	r6, r2
  81 0036 DCB2     		uxtb	r4, r3
  82 0038 002C     		cmp	r4, #0
  83 003a 0FD1     		bne	.L3
  45:main.c        ****             	CyBle_GetDeviceAddress(&localAddr);
  84              		.loc 1 45 0
  85 003c 02AD     		add	r5, sp, #8
  46:main.c        ****             	for(i = CYBLE_GAP_BD_ADDR_SIZE; i > 0u; i--)
  86              		.loc 1 46 0
  87 003e 281C     		mov	r0, r5
  45:main.c        ****             	CyBle_GetDeviceAddress(&localAddr);
  88              		.loc 1 45 0
  89 0040 AC71     		strb	r4, [r5, #6]
  46:main.c        ****             	for(i = CYBLE_GAP_BD_ADDR_SIZE; i > 0u; i--)
  90              		.loc 1 46 0
  91 0042 FFF7FEFF 		bl	CyBle_GetDeviceAddress
  92              	.LVL7:
  93 0046 231C     		mov	r3, r4
  94              	.LVL8:
  95              	.L9:
  96 0048 E918     		add	r1, r5, r3
  55:main.c        **** 				}
  97              		.loc 1 55 0
  98 004a 4879     		ldrb	r0, [r1, #5]
  99 004c 0849     		ldr	r1, .L11+4
 100 004e 5A42     		neg	r2, r3
 101 0050 013B     		sub	r3, r3, #1
 102              	.LVL9:
 103 0052 8854     		strb	r0, [r1, r2]
  53:main.c        **** 				{
 104              		.loc 1 53 0
 105 0054 9A1D     		add	r2, r3, #6
 106 0056 F7D1     		bne	.L9
  57:main.c        **** 				
 107              		.loc 1 57 0
 108 0058 0733     		add	r3, r3, #7
 109 005a 3370     		strb	r3, [r6]
 110              	.LVL10:
 111              	.L3:
ARM GAS  C:\Users\Administrator\AppData\Local\Temp\ccNLOfxN.s 			page 6


 112              	.LBE5:
 113              	.LBE4:
 123:main.c        ****             if(apiResult != CYBLE_ERROR_OK)
 114              		.loc 1 123 0
 115 005c 0020     		mov	r0, #0
 116 005e FFF7FEFF 		bl	CyBle_GappStartAdvertisement
 117              	.LVL11:
 128:main.c        ****         case CYBLE_EVT_GAP_ENCRYPT_CHANGE:
 118              		.loc 1 128 0
 119 0062 02E0     		b	.L1
 120              	.LVL12:
 121              	.L6:
 150:main.c        ****             break;
 122              		.loc 1 150 0
 123 0064 0868     		ldr	r0, [r1]
 124              	.LVL13:
 125 0066 FFF7FEFF 		bl	CyBle_GattsWriteRsp
 126              	.LVL14:
 127              	.L1:
 164:main.c        ****         case CYBLE_EVT_GATTS_INDICATION_ENABLED:
 165:main.c        ****             DBG_PRINTF("CYBLE_EVT_GATTS_INDICATION_ENABLED \r\n");
 166:main.c        ****             break;
 167:main.c        ****         case CYBLE_EVT_GATTS_INDICATION_DISABLED:
 168:main.c        ****             DBG_PRINTF("CYBLE_EVT_GATTS_INDICATION_DISABLED \r\n");
 169:main.c        ****             break;
 170:main.c        ****         case CYBLE_EVT_GATTS_READ_CHAR_VAL_ACCESS_REQ:
 171:main.c        ****             /* Triggered on server side when client sends read request and when
 172:main.c        ****             * characteristic has CYBLE_GATT_DB_ATTR_CHAR_VAL_RD_EVENT property set.
 173:main.c        ****             * This event could be ignored by application unless it need to response
 174:main.c        ****             * by error response which needs to be set in gattErrorCode field of
 175:main.c        ****             * event parameter. */
 176:main.c        ****             DBG_PRINTF("CYBLE_EVT_GATTS_READ_CHAR_VAL_ACCESS_REQ: handle: %x \r\n", 
 177:main.c        ****                 ((CYBLE_GATTS_CHAR_VAL_READ_REQ_T *)eventParam)->attrHandle);
 178:main.c        ****             break;
 179:main.c        **** 
 180:main.c        ****         /**********************************************************
 181:main.c        ****         *                       Other Events
 182:main.c        ****         ***********************************************************/
 183:main.c        ****         case CYBLE_EVT_PENDING_FLASH_WRITE:
 184:main.c        ****             /* Inform application that flash write is pending. Stack internal data 
 185:main.c        ****             * structures are modified and require to be stored in Flash using 
 186:main.c        ****             * CyBle_StoreBondingData() */
 187:main.c        ****             DBG_PRINTF("CYBLE_EVT_PENDING_FLASH_WRITE\r\n");
 188:main.c        ****             break;
 189:main.c        **** 
 190:main.c        **** 		default:
 191:main.c        ****             DBG_PRINTF("OTHER event: %lx \r\n", event);
 192:main.c        **** 			break;
 193:main.c        **** 	}
 194:main.c        **** }
 128              		.loc 1 194 0
 129              		@ sp needed
 130 006a 7FBD     		pop	{r0, r1, r2, r3, r4, r5, r6, pc}
 131              	.L12:
 132              		.align	2
 133              	.L11:
 134 006c 00000000 		.word	Read_Mac_Flag
ARM GAS  C:\Users\Administrator\AppData\Local\Temp\ccNLOfxN.s 			page 7


 135 0070 00000000 		.word	Mac_Addr
 136              		.cfi_endproc
 137              	.LFE63:
 138              		.size	AppCallback, .-AppCallback
 139              		.section	.text.LowPowerImplementation,"ax",%progbits
 140              		.align	1
 141              		.global	LowPowerImplementation
 142              		.code	16
 143              		.thumb_func
 144              		.type	LowPowerImplementation, %function
 145              	LowPowerImplementation:
 146              	.LFB64:
 195:main.c        **** 
 196:main.c        **** //*************************************************************************************************
 197:main.c        **** // Function name	: LowPowerImplementation
 198:main.c        **** // Description		: 进入低功耗睡眠的函数
 199:main.c        **** // Parameter		: none
 200:main.c        **** // Return			: none
 201:main.c        **** //-------------------------------------------------------------------------------------------------
 202:main.c        **** // Info				: 
 203:main.c        **** //*************************************************************************************************
 204:main.c        **** void LowPowerImplementation(void)
 205:main.c        **** {
 147              		.loc 1 205 0
 148              		.cfi_startproc
 149 0000 38B5     		push	{r3, r4, r5, lr}
 150              		.cfi_def_cfa_offset 16
 151              		.cfi_offset 3, -16
 152              		.cfi_offset 4, -12
 153              		.cfi_offset 5, -8
 154              		.cfi_offset 14, -4
 206:main.c        ****     CYBLE_LP_MODE_T bleMode;
 207:main.c        ****     uint8 interruptStatus;
 208:main.c        ****     
 209:main.c        ****     /* For advertising and connected states, implement deep sleep 
 210:main.c        ****      * functionality to achieve low power in the system. For more details
 211:main.c        ****      * on the low power implementation, refer to the Low Power Application 
 212:main.c        ****      * Note.
 213:main.c        ****      */
 214:main.c        ****     if((CyBle_GetState() == CYBLE_STATE_ADVERTISING) || 
 155              		.loc 1 214 0
 156 0002 124B     		ldr	r3, .L26
 157 0004 1B78     		ldrb	r3, [r3]
 158 0006 023B     		sub	r3, r3, #2
 159 0008 012B     		cmp	r3, #1
 160 000a 1DD8     		bhi	.L13
 215:main.c        ****        (CyBle_GetState() == CYBLE_STATE_CONNECTED))
 216:main.c        ****     {
 217:main.c        ****         /* Request BLE subsystem to enter into Deep-Sleep mode between connection and advertising i
 218:main.c        ****         bleMode = CyBle_EnterLPM(CYBLE_BLESS_DEEPSLEEP);
 161              		.loc 1 218 0
 162 000c 0320     		mov	r0, #3
 163 000e FFF7FEFF 		bl	CyBle_EnterLPM
 164              	.LVL15:
 165 0012 051C     		mov	r5, r0
 166              	.LVL16:
 219:main.c        ****         /* Disable global interrupts */
ARM GAS  C:\Users\Administrator\AppData\Local\Temp\ccNLOfxN.s 			page 8


 220:main.c        ****         interruptStatus = CyEnterCriticalSection();
 167              		.loc 1 220 0
 168 0014 FFF7FEFF 		bl	CyEnterCriticalSection
 169              	.LVL17:
 170 0018 041C     		mov	r4, r0
 171              	.LVL18:
 221:main.c        ****         /* When BLE subsystem has been put into Deep-Sleep mode */
 222:main.c        ****         if(bleMode == CYBLE_BLESS_DEEPSLEEP)
 172              		.loc 1 222 0
 173 001a 032D     		cmp	r5, #3
 174 001c 0BD1     		bne	.L15
 223:main.c        ****         {
 224:main.c        ****             /* And it is still there or ECO is on */
 225:main.c        ****             if((CyBle_GetBleSsState() == CYBLE_BLESS_STATE_ECO_ON) || 
 175              		.loc 1 225 0
 176 001e FFF7FEFF 		bl	CyBle_GetBleSsState
 177              	.LVL19:
 178 0022 0428     		cmp	r0, #4
 179 0024 02D1     		bne	.L16
 180              	.L18:
 226:main.c        ****                (CyBle_GetBleSsState() == CYBLE_BLESS_STATE_DEEPSLEEP))
 227:main.c        ****             {
 228:main.c        ****             #if (DEBUG_UART_ENABLED == ENABLED)
 229:main.c        ****                 /* Put the CPU into the Deep-Sleep mode when all debug information has been sent */
 230:main.c        ****                 if((UART_433_SpiUartGetTxBufferSize() + UART_433_GET_TX_FIFO_SR_VALID) == 0u)
 231:main.c        ****                 {
 232:main.c        ****                     CySysPmDeepSleep();
 233:main.c        ****                 }
 234:main.c        ****                 else /* Put the CPU into Sleep mode and let SCB to continue sending debug data */
 235:main.c        ****                 {
 236:main.c        ****                     CySysPmSleep();
 237:main.c        ****                 }
 238:main.c        ****             #else
 239:main.c        ****                 CySysPmDeepSleep();
 181              		.loc 1 239 0
 182 0026 FFF7FEFF 		bl	CySysPmDeepSleep
 183              	.LVL20:
 184 002a 0AE0     		b	.L17
 185              	.L16:
 226:main.c        ****                (CyBle_GetBleSsState() == CYBLE_BLESS_STATE_DEEPSLEEP))
 186              		.loc 1 226 0 discriminator 1
 187 002c FFF7FEFF 		bl	CyBle_GetBleSsState
 188              	.LVL21:
 225:main.c        ****                (CyBle_GetBleSsState() == CYBLE_BLESS_STATE_DEEPSLEEP))
 189              		.loc 1 225 0 discriminator 1
 190 0030 0628     		cmp	r0, #6
 191 0032 06D1     		bne	.L17
 192 0034 F7E7     		b	.L18
 193              	.L15:
 240:main.c        ****             #endif /* (DEBUG_UART_ENABLED == ENABLED) */
 241:main.c        ****             }
 242:main.c        ****         }
 243:main.c        ****         else /* When BLE subsystem has been put into Sleep mode or is active */
 244:main.c        ****         {
 245:main.c        ****             /* And hardware doesn't finish Tx/Rx opeation - put the CPU into Sleep mode */
 246:main.c        ****             if(CyBle_GetBleSsState() != CYBLE_BLESS_STATE_EVENT_CLOSE)
 194              		.loc 1 246 0
ARM GAS  C:\Users\Administrator\AppData\Local\Temp\ccNLOfxN.s 			page 9


 195 0036 FFF7FEFF 		bl	CyBle_GetBleSsState
 196              	.LVL22:
 197 003a 0228     		cmp	r0, #2
 198 003c 01D0     		beq	.L17
 247:main.c        ****             {
 248:main.c        ****                 CySysPmSleep();
 199              		.loc 1 248 0
 200 003e FFF7FEFF 		bl	CySysPmSleep
 201              	.LVL23:
 202              	.L17:
 249:main.c        ****             }
 250:main.c        ****         }
 251:main.c        ****         /* Enable global interrupt */
 252:main.c        ****         CyExitCriticalSection(interruptStatus);
 203              		.loc 1 252 0
 204 0042 201C     		mov	r0, r4
 205 0044 FFF7FEFF 		bl	CyExitCriticalSection
 206              	.LVL24:
 207              	.L13:
 253:main.c        ****     }
 254:main.c        **** }
 208              		.loc 1 254 0
 209              		@ sp needed
 210 0048 38BD     		pop	{r3, r4, r5, pc}
 211              	.L27:
 212 004a C046     		.align	2
 213              	.L26:
 214 004c 00000000 		.word	cyBle_state
 215              		.cfi_endproc
 216              	.LFE64:
 217              		.size	LowPowerImplementation, .-LowPowerImplementation
 218              		.section	.text.Led_AllOff,"ax",%progbits
 219              		.align	1
 220              		.global	Led_AllOff
 221              		.code	16
 222              		.thumb_func
 223              		.type	Led_AllOff, %function
 224              	Led_AllOff:
 225              	.LFB67:
 255:main.c        **** 
 256:main.c        **** //*************************************************************************************************
 257:main.c        **** // Function name	: ble_heartbeat
 258:main.c        **** // Description		: 蓝牙的心跳包
 259:main.c        **** // Parameter		: none
 260:main.c        **** // Return			: none
 261:main.c        **** //-------------------------------------------------------------------------------------------------
 262:main.c        **** // Info				: 
 263:main.c        **** //*************************************************************************************************
 264:main.c        **** void ble_heartbeat(void)
 265:main.c        **** {
 266:main.c        ****     uint16 i;
 267:main.c        ****     
 268:main.c        **** 	WDT_FeedDog();
 269:main.c        ****     for (i = 0; i < 50; i++)
 270:main.c        ****     {
 271:main.c        **** 	    CyBle_ProcessEvents();
 272:main.c        **** 	}
ARM GAS  C:\Users\Administrator\AppData\Local\Temp\ccNLOfxN.s 			page 10


 273:main.c        ****     
 274:main.c        ****     #if 1
 275:main.c        ****     if (BleCmdValidFlag == 1)
 276:main.c        ****     {
 277:main.c        **** 		Protocol_CmdParse_BLE();
 278:main.c        ****     }
 279:main.c        ****     #endif
 280:main.c        ****     
 281:main.c        ****     if ((gprs_state != NORMAL_COMM) && (gprs_state != UPDATE_CONNECT) &&
 282:main.c        ****         (gprs_state != WAIT_UPDATE) && (gprs_state != UPDATE_FINISH))
 283:main.c        ****     {
 284:main.c        ****         if (CardCheck_CountTime > 1000)
 285:main.c        ****         {
 286:main.c        ****             CardCheck_CountTime = 0;
 287:main.c        ****             CARD_Tick();
 288:main.c        ****         }
 289:main.c        ****     }
 290:main.c        **** }
 291:main.c        **** 
 292:main.c        **** //*************************************************************************************************
 293:main.c        **** // Function name	: delay_with_ble
 294:main.c        **** // Description		: 带蓝牙心跳的延时函数
 295:main.c        **** // Parameter		: ms	: 延时时间
 296:main.c        **** // Return			: none
 297:main.c        **** //-------------------------------------------------------------------------------------------------
 298:main.c        **** // Info				: 
 299:main.c        **** //*************************************************************************************************
 300:main.c        **** void delay_with_ble(uint32 ms)
 301:main.c        **** {
 302:main.c        **** 	uint32 loop = 0;
 303:main.c        **** 	for (loop = 0; loop < ms / 5; loop++)
 304:main.c        **** 	{
 305:main.c        **** 		CyDelay(5);
 306:main.c        **** 		ble_heartbeat();
 307:main.c        **** 	}
 308:main.c        **** }
 309:main.c        **** 
 310:main.c        **** //*************************************************************************************************
 311:main.c        **** // Function name	: Led_AllOff
 312:main.c        **** // Description		: 关闭所有LED灯
 313:main.c        **** // Parameter		: none
 314:main.c        **** // Return			: none
 315:main.c        **** //-------------------------------------------------------------------------------------------------
 316:main.c        **** // Info				: 
 317:main.c        **** //*************************************************************************************************
 318:main.c        **** void Led_AllOff(void)
 319:main.c        **** {
 226              		.loc 1 319 0
 227              		.cfi_startproc
 228 0000 08B5     		push	{r3, lr}
 229              		.cfi_def_cfa_offset 8
 230              		.cfi_offset 3, -8
 231              		.cfi_offset 14, -4
 320:main.c        ****     LED_RED_Write(1);
 232              		.loc 1 320 0
 233 0002 0120     		mov	r0, #1
 234 0004 FFF7FEFF 		bl	LED_RED_Write
ARM GAS  C:\Users\Administrator\AppData\Local\Temp\ccNLOfxN.s 			page 11


 235              	.LVL25:
 321:main.c        ****     LED_BLUE_Write(1);
 236              		.loc 1 321 0
 237 0008 0120     		mov	r0, #1
 238 000a FFF7FEFF 		bl	LED_BLUE_Write
 239              	.LVL26:
 322:main.c        ****     LED_GREEN_Write(1);
 240              		.loc 1 322 0
 241 000e 0120     		mov	r0, #1
 242 0010 FFF7FEFF 		bl	LED_GREEN_Write
 243              	.LVL27:
 323:main.c        **** }
 244              		.loc 1 323 0
 245              		@ sp needed
 246 0014 08BD     		pop	{r3, pc}
 247              		.cfi_endproc
 248              	.LFE67:
 249              		.size	Led_AllOff, .-Led_AllOff
 250              		.section	.text.Led_RedON,"ax",%progbits
 251              		.align	1
 252              		.global	Led_RedON
 253              		.code	16
 254              		.thumb_func
 255              		.type	Led_RedON, %function
 256              	Led_RedON:
 257              	.LFB68:
 324:main.c        **** 
 325:main.c        **** //*************************************************************************************************
 326:main.c        **** // Function name	: Led_RedON
 327:main.c        **** // Description		: 红灯亮
 328:main.c        **** // Parameter		: none
 329:main.c        **** // Return			: none
 330:main.c        **** //-------------------------------------------------------------------------------------------------
 331:main.c        **** // Info				: 
 332:main.c        **** //*************************************************************************************************
 333:main.c        **** void Led_RedON(void)
 334:main.c        **** {
 258              		.loc 1 334 0
 259              		.cfi_startproc
 260 0000 08B5     		push	{r3, lr}
 261              		.cfi_def_cfa_offset 8
 262              		.cfi_offset 3, -8
 263              		.cfi_offset 14, -4
 335:main.c        ****     Led_AllOff();
 264              		.loc 1 335 0
 265 0002 FFF7FEFF 		bl	Led_AllOff
 266              	.LVL28:
 336:main.c        **** 	LED_RED_Write(0);
 267              		.loc 1 336 0
 268 0006 0020     		mov	r0, #0
 269 0008 FFF7FEFF 		bl	LED_RED_Write
 270              	.LVL29:
 337:main.c        **** }
 271              		.loc 1 337 0
 272              		@ sp needed
 273 000c 08BD     		pop	{r3, pc}
 274              		.cfi_endproc
ARM GAS  C:\Users\Administrator\AppData\Local\Temp\ccNLOfxN.s 			page 12


 275              	.LFE68:
 276              		.size	Led_RedON, .-Led_RedON
 277              		.section	.text.Led_GreenON,"ax",%progbits
 278              		.align	1
 279              		.global	Led_GreenON
 280              		.code	16
 281              		.thumb_func
 282              		.type	Led_GreenON, %function
 283              	Led_GreenON:
 284              	.LFB69:
 338:main.c        **** 
 339:main.c        **** //*************************************************************************************************
 340:main.c        **** // Function name	: Led_GreenON
 341:main.c        **** // Description		: 绿灯亮
 342:main.c        **** // Parameter		: none
 343:main.c        **** // Return			: none
 344:main.c        **** //-------------------------------------------------------------------------------------------------
 345:main.c        **** // Info				: 
 346:main.c        **** //*************************************************************************************************
 347:main.c        **** void Led_GreenON(void)
 348:main.c        **** {
 285              		.loc 1 348 0
 286              		.cfi_startproc
 287 0000 08B5     		push	{r3, lr}
 288              		.cfi_def_cfa_offset 8
 289              		.cfi_offset 3, -8
 290              		.cfi_offset 14, -4
 349:main.c        ****     Led_AllOff();
 291              		.loc 1 349 0
 292 0002 FFF7FEFF 		bl	Led_AllOff
 293              	.LVL30:
 350:main.c        **** 	LED_GREEN_Write(0);
 294              		.loc 1 350 0
 295 0006 0020     		mov	r0, #0
 296 0008 FFF7FEFF 		bl	LED_GREEN_Write
 297              	.LVL31:
 351:main.c        **** }
 298              		.loc 1 351 0
 299              		@ sp needed
 300 000c 08BD     		pop	{r3, pc}
 301              		.cfi_endproc
 302              	.LFE69:
 303              		.size	Led_GreenON, .-Led_GreenON
 304              		.section	.text.Led_BlueON,"ax",%progbits
 305              		.align	1
 306              		.global	Led_BlueON
 307              		.code	16
 308              		.thumb_func
 309              		.type	Led_BlueON, %function
 310              	Led_BlueON:
 311              	.LFB70:
 352:main.c        **** 
 353:main.c        **** //*************************************************************************************************
 354:main.c        **** // Function name	: Led_BlueON
 355:main.c        **** // Description		: 蓝灯亮
 356:main.c        **** // Parameter		: none
 357:main.c        **** // Return			: none
ARM GAS  C:\Users\Administrator\AppData\Local\Temp\ccNLOfxN.s 			page 13


 358:main.c        **** //-------------------------------------------------------------------------------------------------
 359:main.c        **** // Info				: 
 360:main.c        **** //*************************************************************************************************
 361:main.c        **** void Led_BlueON(void)
 362:main.c        **** {
 312              		.loc 1 362 0
 313              		.cfi_startproc
 314 0000 08B5     		push	{r3, lr}
 315              		.cfi_def_cfa_offset 8
 316              		.cfi_offset 3, -8
 317              		.cfi_offset 14, -4
 363:main.c        ****     Led_AllOff();
 318              		.loc 1 363 0
 319 0002 FFF7FEFF 		bl	Led_AllOff
 320              	.LVL32:
 364:main.c        **** 	LED_BLUE_Write(0);
 321              		.loc 1 364 0
 322 0006 0020     		mov	r0, #0
 323 0008 FFF7FEFF 		bl	LED_BLUE_Write
 324              	.LVL33:
 365:main.c        **** }
 325              		.loc 1 365 0
 326              		@ sp needed
 327 000c 08BD     		pop	{r3, pc}
 328              		.cfi_endproc
 329              	.LFE70:
 330              		.size	Led_BlueON, .-Led_BlueON
 331              		.section	.text.Led_SetState,"ax",%progbits
 332              		.align	1
 333              		.global	Led_SetState
 334              		.code	16
 335              		.thumb_func
 336              		.type	Led_SetState, %function
 337              	Led_SetState:
 338              	.LFB71:
 366:main.c        **** 
 367:main.c        **** //*************************************************************************************************
 368:main.c        **** // Function name	: Led_SetState
 369:main.c        **** // Description		: 设置LED的状态
 370:main.c        **** // Parameter		: Sta	: 待设置的状态
 371:main.c        **** // Return			: none
 372:main.c        **** //-------------------------------------------------------------------------------------------------
 373:main.c        **** // Info				: 
 374:main.c        **** //*************************************************************************************************
 375:main.c        **** void Led_SetState(uint8 Sta)
 376:main.c        **** {
 339              		.loc 1 376 0
 340              		.cfi_startproc
 341              	.LVL34:
 342 0000 08B5     		push	{r3, lr}
 343              		.cfi_def_cfa_offset 8
 344              		.cfi_offset 3, -8
 345              		.cfi_offset 14, -4
 377:main.c        **** 	if (Sta == 0)
 346              		.loc 1 377 0
 347 0002 0028     		cmp	r0, #0
 348 0004 02D1     		bne	.L33
ARM GAS  C:\Users\Administrator\AppData\Local\Temp\ccNLOfxN.s 			page 14


 378:main.c        **** 	{
 379:main.c        **** 		Led_AllOff();
 349              		.loc 1 379 0
 350 0006 FFF7FEFF 		bl	Led_AllOff
 351              	.LVL35:
 352 000a 0DE0     		b	.L32
 353              	.LVL36:
 354              	.L33:
 380:main.c        **** 	}
 381:main.c        **** 	else if (Sta == 1)
 355              		.loc 1 381 0
 356 000c 0128     		cmp	r0, #1
 357 000e 02D1     		bne	.L35
 382:main.c        **** 	{
 383:main.c        **** 		Led_RedON();
 358              		.loc 1 383 0
 359 0010 FFF7FEFF 		bl	Led_RedON
 360              	.LVL37:
 361 0014 08E0     		b	.L32
 362              	.LVL38:
 363              	.L35:
 384:main.c        **** 	}
 385:main.c        **** 	else if (Sta == 2)
 364              		.loc 1 385 0
 365 0016 0228     		cmp	r0, #2
 366 0018 02D1     		bne	.L36
 386:main.c        **** 	{
 387:main.c        **** 		Led_GreenON();
 367              		.loc 1 387 0
 368 001a FFF7FEFF 		bl	Led_GreenON
 369              	.LVL39:
 370 001e 03E0     		b	.L32
 371              	.LVL40:
 372              	.L36:
 388:main.c        **** 	}
 389:main.c        **** 	else if (Sta == 3)
 373              		.loc 1 389 0
 374 0020 0328     		cmp	r0, #3
 375 0022 01D1     		bne	.L32
 390:main.c        **** 	{
 391:main.c        **** 		Led_BlueON();
 376              		.loc 1 391 0
 377 0024 FFF7FEFF 		bl	Led_BlueON
 378              	.LVL41:
 379              	.L32:
 392:main.c        **** 	}
 393:main.c        **** }
 380              		.loc 1 393 0
 381              		@ sp needed
 382 0028 08BD     		pop	{r3, pc}
 383              		.cfi_endproc
 384              	.LFE71:
 385              		.size	Led_SetState, .-Led_SetState
 386              		.section	.text.DoorOpen,"ax",%progbits
 387              		.align	1
 388              		.global	DoorOpen
 389              		.code	16
ARM GAS  C:\Users\Administrator\AppData\Local\Temp\ccNLOfxN.s 			page 15


 390              		.thumb_func
 391              		.type	DoorOpen, %function
 392              	DoorOpen:
 393              	.LFB72:
 394:main.c        **** 
 395:main.c        **** //*************************************************************************************************
 396:main.c        **** // Function name	: DoorOpen
 397:main.c        **** // Description		: 门打开
 398:main.c        **** // Parameter		: none
 399:main.c        **** // Return			: none
 400:main.c        **** //-------------------------------------------------------------------------------------------------
 401:main.c        **** // Info				: 
 402:main.c        **** //*************************************************************************************************
 403:main.c        **** void DoorOpen(void)
 404:main.c        **** {
 394              		.loc 1 404 0
 395              		.cfi_startproc
 396 0000 08B5     		push	{r3, lr}
 397              		.cfi_def_cfa_offset 8
 398              		.cfi_offset 3, -8
 399              		.cfi_offset 14, -4
 405:main.c        ****     DOOR_OPEN_Write(1);
 400              		.loc 1 405 0
 401 0002 0120     		mov	r0, #1
 402 0004 FFF7FEFF 		bl	DOOR_OPEN_Write
 403              	.LVL42:
 406:main.c        **** }
 404              		.loc 1 406 0
 405              		@ sp needed
 406 0008 08BD     		pop	{r3, pc}
 407              		.cfi_endproc
 408              	.LFE72:
 409              		.size	DoorOpen, .-DoorOpen
 410              		.section	.text.DoorClose,"ax",%progbits
 411              		.align	1
 412              		.global	DoorClose
 413              		.code	16
 414              		.thumb_func
 415              		.type	DoorClose, %function
 416              	DoorClose:
 417              	.LFB73:
 407:main.c        **** 
 408:main.c        **** //*************************************************************************************************
 409:main.c        **** // Function name	: DoorClose
 410:main.c        **** // Description		: 门关闭
 411:main.c        **** // Parameter		: none
 412:main.c        **** // Return			: none
 413:main.c        **** //-------------------------------------------------------------------------------------------------
 414:main.c        **** // Info				: 
 415:main.c        **** //*************************************************************************************************
 416:main.c        **** void DoorClose(void)
 417:main.c        **** {
 418              		.loc 1 417 0
 419              		.cfi_startproc
 420 0000 08B5     		push	{r3, lr}
 421              		.cfi_def_cfa_offset 8
 422              		.cfi_offset 3, -8
ARM GAS  C:\Users\Administrator\AppData\Local\Temp\ccNLOfxN.s 			page 16


 423              		.cfi_offset 14, -4
 418:main.c        ****     DOOR_OPEN_Write(0);
 424              		.loc 1 418 0
 425 0002 0020     		mov	r0, #0
 426 0004 FFF7FEFF 		bl	DOOR_OPEN_Write
 427              	.LVL43:
 419:main.c        **** }
 428              		.loc 1 419 0
 429              		@ sp needed
 430 0008 08BD     		pop	{r3, pc}
 431              		.cfi_endproc
 432              	.LFE73:
 433              		.size	DoorClose, .-DoorClose
 434              		.section	.text.WaitTimeOut,"ax",%progbits
 435              		.align	1
 436              		.global	WaitTimeOut
 437              		.code	16
 438              		.thumb_func
 439              		.type	WaitTimeOut, %function
 440              	WaitTimeOut:
 441              	.LFB79:
 420:main.c        **** 
 421:main.c        **** //*************************************************************************************************
 422:main.c        **** // Function name	: GPRS_SetON
 423:main.c        **** // Description		: GPRS PowerKey On
 424:main.c        **** // Parameter		: none
 425:main.c        **** // Return			: none
 426:main.c        **** //-------------------------------------------------------------------------------------------------
 427:main.c        **** // Info				: GPRS模组开机操作
 428:main.c        **** //*************************************************************************************************
 429:main.c        **** void GPRS_SetON(void)
 430:main.c        **** {
 431:main.c        **** 	uint16 count = 0;
 432:main.c        **** 	
 433:main.c        **** 	if (GPRS_STATE_Read() == 1)
 434:main.c        **** 	{	// 如果是关机状态 执行开机
 435:main.c        **** 		CyDelay(30);
 436:main.c        **** 		GPRS_PWRKEY_Write(1);
 437:main.c        **** 		while ((GPRS_STATE_Read() == 1) && (count <= 30))
 438:main.c        **** 		{
 439:main.c        **** 			delay_with_ble(100);
 440:main.c        **** 			count++;
 441:main.c        **** 		}
 442:main.c        **** 		GPRS_PWRKEY_Write(0);
 443:main.c        **** 	}
 444:main.c        **** }
 445:main.c        **** 
 446:main.c        **** //*************************************************************************************************
 447:main.c        **** // Function name	: GPRSPowerOn
 448:main.c        **** // Description		: GPRS上电
 449:main.c        **** // Parameter		: none
 450:main.c        **** // Return			: none
 451:main.c        **** //-------------------------------------------------------------------------------------------------
 452:main.c        **** // Info				: 
 453:main.c        **** //*************************************************************************************************
 454:main.c        **** void GPRSPowerOn(void)
 455:main.c        **** {
ARM GAS  C:\Users\Administrator\AppData\Local\Temp\ccNLOfxN.s 			page 17


 456:main.c        **** 	uint8 count = 0;
 457:main.c        **** 	
 458:main.c        **** 	if (GPRS_STATE_Read() == 1)
 459:main.c        **** 	{	// 如果是关机状态
 460:main.c        **** 		CyDelay(30);
 461:main.c        **** 		GPRS_PWRKEY_Write(1);
 462:main.c        **** 		while ((GPRS_STATE_Read() == 1) && (count <= 30))
 463:main.c        **** 		{
 464:main.c        **** 			delay_with_ble(100);
 465:main.c        **** 			count++;
 466:main.c        **** 		}
 467:main.c        **** 		GPRS_PWRKEY_Write(0);
 468:main.c        **** 		GPRS_WaitInitFinish();
 469:main.c        **** 		delay_with_ble(3000);						// 等待3s
 470:main.c        **** 		
 471:main.c        **** 		GPRS_QuerySimCard();
 472:main.c        **** 		delay_with_ble(4000);						// 等待网络注册 连接
 473:main.c        **** 		wait_timeout = 30000;						// 等待超时 30s
 474:main.c        **** 		while(wait_timeout > 0)
 475:main.c        **** 		{
 476:main.c        **** 			if(TRUE == GPRS_QueryCREG())			// 查询网络注册情况 AT+CREG? 
 477:main.c        **** 			{
 478:main.c        **** 				break;		
 479:main.c        **** 			}
 480:main.c        **** 			else
 481:main.c        **** 			{
 482:main.c        **** 				delay_with_ble(1500);	
 483:main.c        **** 			}
 484:main.c        **** 		}
 485:main.c        **** 		delay_with_ble(500);
 486:main.c        **** 		if(0 == GPRS_QueryRssi())					// 查询信号情况 AT+CSQ 不查没关系，除非是排除0 
 487:main.c        **** 		{
 488:main.c        **** 		}		
 489:main.c        **** 		GPRS_SetAPN();								// 设置APN情况 AT+CGDCONT=1,"IP","CMNET" 
 490:main.c        **** 		delay_with_ble(500);	
 491:main.c        **** 		GPRS_SetActive();							// 激活PDP上下文 AT+CGACT=1,1  (6311-R开启)
 492:main.c        **** 	}
 493:main.c        **** }
 494:main.c        **** 
 495:main.c        **** //*************************************************************************************************
 496:main.c        **** // Function name	: GPRSPowerOn
 497:main.c        **** // Description		: GPRS上电
 498:main.c        **** // Parameter		: none
 499:main.c        **** // Return			: none
 500:main.c        **** //-------------------------------------------------------------------------------------------------
 501:main.c        **** // Info				: 
 502:main.c        **** //*************************************************************************************************
 503:main.c        **** void GPRSPowerOn_0321(void)
 504:main.c        **** {
 505:main.c        **** 	GPRS_SetON();
 506:main.c        **** 	
 507:main.c        **** 	cmd433_INT_ISR_StartEx(RX_IRQ_INTERRUPT);						// 开启串口接收中断					//
 508:main.c        ****     UART_433_Start();												// 串口初始化						//
 509:main.c        **** 	
 510:main.c        **** 	GPRS_WaitInitFinish();
 511:main.c        **** 	//delay_with_ble(3000);						// 等待3s
 512:main.c        **** 	delay_with_ble(2000);						// 等待3s
ARM GAS  C:\Users\Administrator\AppData\Local\Temp\ccNLOfxN.s 			page 18


 513:main.c        **** 	GPRS_QuerySimCard();
 514:main.c        **** 	delay_with_ble(4000);						// 等待网络注册 连接
 515:main.c        **** 	wait_timeout = 30000;						// 等待超时 30s
 516:main.c        **** 	while(wait_timeout > 0)
 517:main.c        **** 	{
 518:main.c        **** 		if(TRUE == GPRS_QueryCREG())			// 查询网络注册情况 AT+CREG? 
 519:main.c        **** 		{
 520:main.c        **** 			break;		
 521:main.c        **** 		}
 522:main.c        **** 		else
 523:main.c        **** 		{
 524:main.c        **** 			delay_with_ble(1500);	
 525:main.c        **** 		}
 526:main.c        **** 	}
 527:main.c        **** 	delay_with_ble(500);
 528:main.c        **** 	if(0 == GPRS_QueryRssi())					// 查询信号情况 AT+CSQ 不查没关系，除非是排除0 
 529:main.c        **** 	{
 530:main.c        **** 	}		
 531:main.c        **** 	GPRS_SetAPN();								// 设置APN情况 AT+CGDCONT=1,"IP","CMNET" 
 532:main.c        **** 	delay_with_ble(500);	
 533:main.c        **** 	GPRS_SetActive();							// 激活PDP上下文 AT+CGACT=1,1  (6311-R开启)
 534:main.c        **** 
 535:main.c        **** }
 536:main.c        **** 
 537:main.c        **** 
 538:main.c        **** //*************************************************************************************************
 539:main.c        **** // Function name	: GPRSPowerDown
 540:main.c        **** // Description		: GPRS掉电
 541:main.c        **** // Parameter		: none
 542:main.c        **** // Return			: none
 543:main.c        **** //-------------------------------------------------------------------------------------------------
 544:main.c        **** // Info				: 
 545:main.c        **** //*************************************************************************************************
 546:main.c        **** void GPRSPowerDown(void)
 547:main.c        **** {
 548:main.c        **** 	uint8 count = 0;
 549:main.c        **** 	
 550:main.c        **** 	if (GPRS_STATE_Read() == 0)
 551:main.c        **** 	{
 552:main.c        **** 		GPRS_PWRKEY_Write(1);
 553:main.c        **** 		while ((GPRS_STATE_Read() == 0) && (count <= 30))
 554:main.c        **** 		{
 555:main.c        **** 			delay_with_ble(100);
 556:main.c        **** 			count++;
 557:main.c        **** 		}
 558:main.c        **** 		GPRS_PWRKEY_Write(0);
 559:main.c        **** 	}
 560:main.c        ****     delay_with_ble(10000);
 561:main.c        **** }
 562:main.c        **** 
 563:main.c        **** //*************************************************************************************************
 564:main.c        **** // Function name	: ResetGPRS
 565:main.c        **** // Description		: 复位GPRS模块
 566:main.c        **** // Parameter		: none
 567:main.c        **** // Return			: none
 568:main.c        **** //-------------------------------------------------------------------------------------------------
 569:main.c        **** // Info				: 
ARM GAS  C:\Users\Administrator\AppData\Local\Temp\ccNLOfxN.s 			page 19


 570:main.c        **** //*************************************************************************************************
 571:main.c        **** void ResetGPRS(void)
 572:main.c        **** {
 573:main.c        ****     GPRS_RESET_Write(1);
 574:main.c        **** 	delay_with_ble(25);
 575:main.c        **** 	GPRS_RESET_Write(0);
 576:main.c        **** }
 577:main.c        **** 
 578:main.c        **** //*************************************************************************************************
 579:main.c        **** // Function name	: WaitTimeOut
 580:main.c        **** // Description		: 通用等待超时时间
 581:main.c        **** // Parameter		: none
 582:main.c        **** // Return			: none
 583:main.c        **** //-------------------------------------------------------------------------------------------------
 584:main.c        **** // Info				: 
 585:main.c        **** //*************************************************************************************************
 586:main.c        **** void WaitTimeOut(void)
 587:main.c        **** {				
 442              		.loc 1 587 0
 443              		.cfi_startproc
 588:main.c        **** 	if (wait_timeout > 0)
 444              		.loc 1 588 0
 445 0000 034B     		ldr	r3, .L44
 446 0002 1A68     		ldr	r2, [r3]
 447 0004 002A     		cmp	r2, #0
 448 0006 02D0     		beq	.L39
 589:main.c        ****     {
 590:main.c        ****         wait_timeout--;
 449              		.loc 1 590 0
 450 0008 1A68     		ldr	r2, [r3]
 451 000a 013A     		sub	r2, r2, #1
 452 000c 1A60     		str	r2, [r3]
 453              	.L39:
 591:main.c        ****     }
 592:main.c        **** }
 454              		.loc 1 592 0
 455              		@ sp needed
 456 000e 7047     		bx	lr
 457              	.L45:
 458              		.align	2
 459              	.L44:
 460 0010 00000000 		.word	wait_timeout
 461              		.cfi_endproc
 462              	.LFE79:
 463              		.size	WaitTimeOut, .-WaitTimeOut
 464              		.section	.text.CardCheckTimeOut,"ax",%progbits
 465              		.align	1
 466              		.global	CardCheckTimeOut
 467              		.code	16
 468              		.thumb_func
 469              		.type	CardCheckTimeOut, %function
 470              	CardCheckTimeOut:
 471              	.LFB80:
 593:main.c        **** //*************************************************************************************************
 594:main.c        **** // Function name	: CardCheckTimeOut
 595:main.c        **** // Description		: 刷卡计时
 596:main.c        **** // Parameter		: none
ARM GAS  C:\Users\Administrator\AppData\Local\Temp\ccNLOfxN.s 			page 20


 597:main.c        **** // Return			: none
 598:main.c        **** //-------------------------------------------------------------------------------------------------
 599:main.c        **** // Info				: 
 600:main.c        **** //*************************************************************************************************
 601:main.c        **** void CardCheckTimeOut(void)
 602:main.c        **** {				
 472              		.loc 1 602 0
 473              		.cfi_startproc
 603:main.c        **** 	if (CardCheck_CountTime <10000)
 474              		.loc 1 603 0
 475 0000 044B     		ldr	r3, .L48
 476 0002 054A     		ldr	r2, .L48+4
 477 0004 1968     		ldr	r1, [r3]
 478 0006 9142     		cmp	r1, r2
 479 0008 02D8     		bhi	.L46
 604:main.c        ****     {
 605:main.c        ****         CardCheck_CountTime++;
 480              		.loc 1 605 0
 481 000a 1A68     		ldr	r2, [r3]
 482 000c 0132     		add	r2, r2, #1
 483 000e 1A60     		str	r2, [r3]
 484              	.L46:
 606:main.c        ****     }
 607:main.c        **** }
 485              		.loc 1 607 0
 486              		@ sp needed
 487 0010 7047     		bx	lr
 488              	.L49:
 489 0012 C046     		.align	2
 490              	.L48:
 491 0014 00000000 		.word	.LANCHOR0
 492 0018 0F270000 		.word	9999
 493              		.cfi_endproc
 494              	.LFE80:
 495              		.size	CardCheckTimeOut, .-CardCheckTimeOut
 496              		.section	.text.RecvTimeOut,"ax",%progbits
 497              		.align	1
 498              		.global	RecvTimeOut
 499              		.code	16
 500              		.thumb_func
 501              		.type	RecvTimeOut, %function
 502              	RecvTimeOut:
 503              	.LFB81:
 608:main.c        **** 
 609:main.c        **** //*************************************************************************************************
 610:main.c        **** // Function name	: RecvTimeOut
 611:main.c        **** // Description		: GPRS收到包头后，到整个包收完的超时时间
 612:main.c        **** // Parameter		: none
 613:main.c        **** // Return			: none
 614:main.c        **** //-------------------------------------------------------------------------------------------------
 615:main.c        **** // Info				: 
 616:main.c        **** //*************************************************************************************************
 617:main.c        **** void RecvTimeOut(void)
 618:main.c        **** {				
 504              		.loc 1 618 0
 505              		.cfi_startproc
 619:main.c        **** 	if (recv_timeout > 0)
ARM GAS  C:\Users\Administrator\AppData\Local\Temp\ccNLOfxN.s 			page 21


 506              		.loc 1 619 0
 507 0000 034B     		ldr	r3, .L55
 508 0002 1A68     		ldr	r2, [r3]
 509 0004 002A     		cmp	r2, #0
 510 0006 02D0     		beq	.L50
 620:main.c        ****     {
 621:main.c        ****         recv_timeout--;
 511              		.loc 1 621 0
 512 0008 1A68     		ldr	r2, [r3]
 513 000a 013A     		sub	r2, r2, #1
 514 000c 1A60     		str	r2, [r3]
 515              	.L50:
 622:main.c        ****     }
 623:main.c        **** }
 516              		.loc 1 623 0
 517              		@ sp needed
 518 000e 7047     		bx	lr
 519              	.L56:
 520              		.align	2
 521              	.L55:
 522 0010 00000000 		.word	recv_timeout
 523              		.cfi_endproc
 524              	.LFE81:
 525              		.size	RecvTimeOut, .-RecvTimeOut
 526              		.section	.text.UpdateTimeOut,"ax",%progbits
 527              		.align	1
 528              		.global	UpdateTimeOut
 529              		.code	16
 530              		.thumb_func
 531              		.type	UpdateTimeOut, %function
 532              	UpdateTimeOut:
 533              	.LFB82:
 624:main.c        **** 
 625:main.c        **** //*************************************************************************************************
 626:main.c        **** // Function name	: UpdateTimeOut
 627:main.c        **** // Description		: 在线升级超时时间
 628:main.c        **** // Parameter		: none
 629:main.c        **** // Return			: none
 630:main.c        **** //-------------------------------------------------------------------------------------------------
 631:main.c        **** // Info				: 
 632:main.c        **** //*************************************************************************************************
 633:main.c        **** void UpdateTimeOut(void)
 634:main.c        **** {				
 534              		.loc 1 634 0
 535              		.cfi_startproc
 635:main.c        **** 	if (update_timeout_time > 0)
 536              		.loc 1 635 0
 537 0000 034B     		ldr	r3, .L62
 538 0002 5A68     		ldr	r2, [r3, #4]
 539 0004 002A     		cmp	r2, #0
 540 0006 02D0     		beq	.L57
 636:main.c        ****     {
 637:main.c        ****         update_timeout_time--;
 541              		.loc 1 637 0
 542 0008 5A68     		ldr	r2, [r3, #4]
 543 000a 013A     		sub	r2, r2, #1
 544 000c 5A60     		str	r2, [r3, #4]
ARM GAS  C:\Users\Administrator\AppData\Local\Temp\ccNLOfxN.s 			page 22


 545              	.L57:
 638:main.c        ****     }
 639:main.c        **** }
 546              		.loc 1 639 0
 547              		@ sp needed
 548 000e 7047     		bx	lr
 549              	.L63:
 550              		.align	2
 551              	.L62:
 552 0010 00000000 		.word	.LANCHOR0
 553              		.cfi_endproc
 554              	.LFE82:
 555              		.size	UpdateTimeOut, .-UpdateTimeOut
 556              		.section	.text.Reboot_Check,"ax",%progbits
 557              		.align	1
 558              		.global	Reboot_Check
 559              		.code	16
 560              		.thumb_func
 561              		.type	Reboot_Check, %function
 562              	Reboot_Check:
 563              	.LFB83:
 640:main.c        **** 
 641:main.c        **** //*************************************************************************************************
 642:main.c        **** // Function name	: Reboot_Check
 643:main.c        **** // Description		: 重启检测
 644:main.c        **** // Parameter		: none
 645:main.c        **** // Return			: none
 646:main.c        **** //-------------------------------------------------------------------------------------------------
 647:main.c        **** // Info				: 
 648:main.c        **** //*************************************************************************************************
 649:main.c        **** void Reboot_Check(void)
 650:main.c        **** {
 564              		.loc 1 650 0
 565              		.cfi_startproc
 566 0000 08B5     		push	{r3, lr}
 567              		.cfi_def_cfa_offset 8
 568              		.cfi_offset 3, -8
 569              		.cfi_offset 14, -4
 651:main.c        ****     if ((flag_reboot == 1) && (stop_reboot == 0))
 570              		.loc 1 651 0
 571 0002 064B     		ldr	r3, .L66
 572 0004 1A78     		ldrb	r2, [r3]
 573 0006 012A     		cmp	r2, #1
 574 0008 06D1     		bne	.L64
 575              	.LBB8:
 576              	.LBB9:
 577 000a 054A     		ldr	r2, .L66+4
 578 000c 1278     		ldrb	r2, [r2]
 579 000e 002A     		cmp	r2, #0
 580 0010 02D1     		bne	.L64
 652:main.c        ****     {
 653:main.c        ****         flag_reboot = 0;
 581              		.loc 1 653 0
 582 0012 1A70     		strb	r2, [r3]
 654:main.c        ****         CySoftwareReset();
 583              		.loc 1 654 0
 584 0014 FFF7FEFF 		bl	CySoftwareReset
ARM GAS  C:\Users\Administrator\AppData\Local\Temp\ccNLOfxN.s 			page 23


 585              	.LVL44:
 586              	.L64:
 587              	.LBE9:
 588              	.LBE8:
 655:main.c        ****     }
 656:main.c        **** }
 589              		.loc 1 656 0
 590              		@ sp needed
 591 0018 08BD     		pop	{r3, pc}
 592              	.L67:
 593 001a C046     		.align	2
 594              	.L66:
 595 001c 00000000 		.word	flag_reboot
 596 0020 00000000 		.word	stop_reboot
 597              		.cfi_endproc
 598              	.LFE83:
 599              		.size	Reboot_Check, .-Reboot_Check
 600              		.section	.text.Updatealarm_check,"ax",%progbits
 601              		.align	1
 602              		.global	Updatealarm_check
 603              		.code	16
 604              		.thumb_func
 605              		.type	Updatealarm_check, %function
 606              	Updatealarm_check:
 607              	.LFB84:
 657:main.c        **** 
 658:main.c        **** //*************************************************************************************************
 659:main.c        **** // Function name	: Updatealarm_check
 660:main.c        **** // Description		: 重启检测
 661:main.c        **** // Parameter		: none
 662:main.c        **** // Return			: none
 663:main.c        **** //-------------------------------------------------------------------------------------------------
 664:main.c        **** // Info				: 查看是否升级记录 有，检查是否升级成功 若失败上报失败信息
 665:main.c        **** //*************************************************************************************************
 666:main.c        **** void Updatealarm_check(void)
 667:main.c        **** {
 608              		.loc 1 667 0
 609              		.cfi_startproc
 668:main.c        **** 	uint8 tmp[3] = {0};
 610              		.loc 1 668 0
 611 0000 0023     		mov	r3, #0
 667:main.c        **** 	uint8 tmp[3] = {0};
 612              		.loc 1 667 0
 613 0002 13B5     		push	{r0, r1, r4, lr}
 614              		.cfi_def_cfa_offset 16
 615              		.cfi_offset 0, -16
 616              		.cfi_offset 1, -12
 617              		.cfi_offset 4, -8
 618              		.cfi_offset 14, -4
 619              		.loc 1 668 0
 620 0004 01AC     		add	r4, sp, #4
 621 0006 2380     		strh	r3, [r4]
 622 0008 A370     		strb	r3, [r4, #2]
 623              	.LVL45:
 669:main.c        **** 	uint8 flag = 0;
 670:main.c        **** 	uint16 firmver;
 671:main.c        **** 	
ARM GAS  C:\Users\Administrator\AppData\Local\Temp\ccNLOfxN.s 			page 24


 672:main.c        **** 	if ((gprs_state == NORMAL_COMM)&&(update_report == 0))
 624              		.loc 1 672 0
 625 000a 134B     		ldr	r3, .L75
 626 000c 1B78     		ldrb	r3, [r3]
 627 000e 052B     		cmp	r3, #5
 628 0010 21D1     		bne	.L68
 629              		.loc 1 672 0 is_stmt 0 discriminator 1
 630 0012 124B     		ldr	r3, .L75+4
 631 0014 1A78     		ldrb	r2, [r3]
 632 0016 002A     		cmp	r2, #0
 633 0018 1DD1     		bne	.L68
 673:main.c        **** 	{
 674:main.c        **** 		DBG_SOFT_PutStr("\npolling update info:\n");
 675:main.c        **** 		update_report = 1;
 634              		.loc 1 675 0 is_stmt 1
 635 001a 0132     		add	r2, r2, #1
 636 001c 1A70     		strb	r2, [r3]
 676:main.c        **** 		W25QXX_Read((uint8 *)&tmp, UPDATE_SYSTEMVER, 3);
 637              		.loc 1 676 0
 638 001e 201C     		mov	r0, r4
 639 0020 0F49     		ldr	r1, .L75+8
 640 0022 0232     		add	r2, r2, #2
 641 0024 FFF7FEFF 		bl	W25QXX_Read
 642              	.LVL46:
 677:main.c        **** 		flag = tmp[2];
 678:main.c        **** 		DBG_SOFT_PrintfHex(tmp,3,16);
 679:main.c        **** 		if(flag == 1)
 643              		.loc 1 679 0
 644 0028 A378     		ldrb	r3, [r4, #2]
 645 002a 012B     		cmp	r3, #1
 646 002c 13D1     		bne	.L68
 680:main.c        **** 		{
 681:main.c        **** 			firmver = (tmp[0] <<8) | tmp[1];
 647              		.loc 1 681 0
 648 002e 2378     		ldrb	r3, [r4]
 649 0030 6278     		ldrb	r2, [r4, #1]
 650 0032 1B02     		lsl	r3, r3, #8
 651 0034 1343     		orr	r3, r2
 652              	.LVL47:
 653 0036 0B4A     		ldr	r2, .L75+12
 682:main.c        **** 			if(firmver == SYSTEM_VERSION)
 654              		.loc 1 682 0
 655 0038 0A2B     		cmp	r3, #10
 656 003a 01D1     		bne	.L72
 683:main.c        **** 			{
 684:main.c        **** 				//上报报警 升级ok信息
 685:main.c        **** 				EnterGuide_State = ALARM_UpdateOk;
 657              		.loc 1 685 0
 658 003c 013B     		sub	r3, r3, #1
 659              	.LVL48:
 660 003e 02E0     		b	.L74
 661              	.LVL49:
 662              	.L72:
 686:main.c        **** 			}
 687:main.c        **** 			else if(firmver > SYSTEM_VERSION)
 663              		.loc 1 687 0
 664 0040 0A2B     		cmp	r3, #10
ARM GAS  C:\Users\Administrator\AppData\Local\Temp\ccNLOfxN.s 			page 25


 665 0042 01D9     		bls	.L73
 688:main.c        **** 			{
 689:main.c        **** 				//上报报警 升级ERR信息
 690:main.c        **** 				EnterGuide_State = ALARM_UpdateErr;
 666              		.loc 1 690 0
 667 0044 0A23     		mov	r3, #10
 668              	.LVL50:
 669              	.L74:
 670 0046 1372     		strb	r3, [r2, #8]
 671              	.L73:
 691:main.c        **** 			
 692:main.c        **** 			}
 693:main.c        **** 			send_alarm_info(EnterGuide_State);						// 升级是否成功报警					//	
 672              		.loc 1 693 0
 673 0048 107A     		ldrb	r0, [r2, #8]
 674 004a FFF7FEFF 		bl	send_alarm_info
 675              	.LVL51:
 694:main.c        **** 			
 695:main.c        **** 			flag =  0;
 696:main.c        **** 			firmver = SYSTEM_VERSION;
 697:main.c        **** 			Write_UpdateInfo(flag, firmver);						// 清空 还原升级信息				//
 676              		.loc 1 697 0
 677 004e 0020     		mov	r0, #0
 678 0050 0A21     		mov	r1, #10
 679 0052 FFF7FEFF 		bl	Write_UpdateInfo
 680              	.LVL52:
 681              	.L68:
 698:main.c        **** 		}	
 699:main.c        ****  	}
 700:main.c        **** }
 682              		.loc 1 700 0
 683              		@ sp needed
 684 0056 13BD     		pop	{r0, r1, r4, pc}
 685              	.L76:
 686              		.align	2
 687              	.L75:
 688 0058 00000000 		.word	gprs_state
 689 005c 00000000 		.word	update_report
 690 0060 03910100 		.word	102659
 691 0064 00000000 		.word	.LANCHOR0
 692              		.cfi_endproc
 693              	.LFE84:
 694              		.size	Updatealarm_check, .-Updatealarm_check
 695              		.section	.text.CARD_Tick,"ax",%progbits
 696              		.align	1
 697              		.global	CARD_Tick
 698              		.code	16
 699              		.thumb_func
 700              		.type	CARD_Tick, %function
 701              	CARD_Tick:
 702              	.LFB87:
 701:main.c        **** 
 702:main.c        **** //*************************************************************************************************
 703:main.c        **** // Function name	: BLE_Tick
 704:main.c        **** // Description		: 蓝牙的处理
 705:main.c        **** // Parameter		: none
 706:main.c        **** // Return			: none
ARM GAS  C:\Users\Administrator\AppData\Local\Temp\ccNLOfxN.s 			page 26


 707:main.c        **** //-------------------------------------------------------------------------------------------------
 708:main.c        **** // Info				: 
 709:main.c        **** //*************************************************************************************************
 710:main.c        **** void BLE_Tick(void)
 711:main.c        **** {
 712:main.c        **** 	ble_heartbeat();
 713:main.c        **** 	if(CyBle_GetState() == CYBLE_STATE_CONNECTED)
 714:main.c        **** 	{
 715:main.c        **** 		if (BleCmdValidFlag == 1)
 716:main.c        ****         {					
 717:main.c        **** 			Protocol_CmdParse();
 718:main.c        **** 			BleCmdValidFlag = 0;
 719:main.c        **** 			DBG_PRINTF("BLE handle cmd done.\n");
 720:main.c        **** 		}
 721:main.c        **** 	}
 722:main.c        **** }
 723:main.c        **** 
 724:main.c        **** //*************************************************************************************************
 725:main.c        **** // Function name	: GPRS_Tick
 726:main.c        **** // Description		: GPRS的处理
 727:main.c        **** // Parameter		: none
 728:main.c        **** // Return			: none
 729:main.c        **** //-------------------------------------------------------------------------------------------------
 730:main.c        **** // Info				: 
 731:main.c        **** //*************************************************************************************************
 732:main.c        **** void GPRS_Tick(void)
 733:main.c        **** {
 734:main.c        **** 	uint8 ret;
 735:main.c        **** 	uint32 count = 0;
 736:main.c        **** 	
 737:main.c        **** 	if ((GPRSCmdParseFlag1 == 1) || (GPRSCmdParseFlag2 == 1))		// 服务器发出的命令					//
 738:main.c        **** 	{
 739:main.c        **** 		Protocol_CmdParse();
 740:main.c        **** 	}
 741:main.c        **** 	
 742:main.c        **** 	if (update_flag == 1)
 743:main.c        **** 	{
 744:main.c        **** 		update_flag = 0;
 745:main.c        **** 		gprs_state = NEED_UPDATE;									// 开始断开当前前置服务器连接		//
 746:main.c        **** 	}
 747:main.c        **** 	
 748:main.c        **** 	//--实时检测STATUS管脚状态，如果是关机状态 立即执行重启开机操作
 749:main.c        **** 	if (GPRS_STATE_Read() == 1)
 750:main.c        **** 	{	
 751:main.c        ****         #if 0
 752:main.c        **** 		GPRS_PWRKEY_Write(1);
 753:main.c        **** 		while ((GPRS_STATE_Read() == 0) && (count <= 30))
 754:main.c        **** 		{
 755:main.c        **** 			delay_with_ble(100);
 756:main.c        **** 			count++;
 757:main.c        **** 		}
 758:main.c        **** 		GPRS_PWRKEY_Write(0);
 759:main.c        **** 		#endif
 760:main.c        **** 		flag_reboot = 1;
 761:main.c        ****         Reboot_Check();
 762:main.c        **** 		
 763:main.c        **** 	}
ARM GAS  C:\Users\Administrator\AppData\Local\Temp\ccNLOfxN.s 			page 27


 764:main.c        **** 	//-------------------------------------------------------------
 765:main.c        **** 	
 766:main.c        **** 	cur_time = (uint32)RTC_GetUnixTime();
 767:main.c        **** 	if (gprs_state == INIT)
 768:main.c        **** 	{
 769:main.c        **** 		LED_State = RED;
 770:main.c        **** 		Led_SetState(LED_State);
 771:main.c        **** 		if (cur_time > next_gprs_operation_time)
 772:main.c        **** 		{
 773:main.c        **** 			if (gprs_operation_ErrCount >= gprs_resetCount)						// 中心服务器3次连不上，则复位
 774:main.c        **** 			{
 775:main.c        **** 				gprs_state = NEED_INIT;
 776:main.c        **** 			}
 777:main.c        **** 			else
 778:main.c        **** 			{
 779:main.c        **** 				next_gprs_operation_time = cur_time + 5;                        // 5s一次尝试连接服务
 780:main.c        **** 				gprs_operation_ErrCount++;
 781:main.c        **** 				ret = GPRS_ConnectCenterServer();
 782:main.c        **** 				if (ret == TRUE)
 783:main.c        **** 				{
 784:main.c        **** 					gprs_state = CEN_CONNECT;
 785:main.c        **** 					next_gprs_operation_time = cur_time;
 786:main.c        **** 					gprs_operation_ErrCount = 0;
 787:main.c        **** 				}
 788:main.c        **** 			}
 789:main.c        **** 		}
 790:main.c        **** 	}
 791:main.c        **** 	else if (gprs_state == CEN_CONNECT)
 792:main.c        **** 	{
 793:main.c        **** 		LED_State = RED;
 794:main.c        **** 		Led_SetState(LED_State);
 795:main.c        **** 		if (cur_time > next_gprs_operation_time)
 796:main.c        **** 		{
 797:main.c        **** 			if (gprs_operation_ErrCount > gprs_resetCount)
 798:main.c        **** 			{
 799:main.c        **** 				gprs_state = NEED_INIT;
 800:main.c        **** 			}
 801:main.c        **** 			else
 802:main.c        **** 			{
 803:main.c        **** 				next_gprs_operation_time = cur_time + 20;
 804:main.c        **** 				gprs_operation_ErrCount++;
 805:main.c        **** 				send_get_pre_service_ip();
 806:main.c        **** 			}
 807:main.c        **** 		}
 808:main.c        **** 	}
 809:main.c        **** 	else if (gprs_state == GET_PRE_IP)
 810:main.c        **** 	{
 811:main.c        **** 		LED_State = RED;
 812:main.c        **** 		Led_SetState(LED_State);
 813:main.c        **** 		if (cur_time > next_gprs_operation_time)
 814:main.c        **** 		{
 815:main.c        **** 			if (gprs_operation_ErrCount > gprs_resetCount)
 816:main.c        **** 			{
 817:main.c        **** 				gprs_state = NEED_INIT;
 818:main.c        **** 			}
 819:main.c        **** 			else
 820:main.c        **** 			{
ARM GAS  C:\Users\Administrator\AppData\Local\Temp\ccNLOfxN.s 			page 28


 821:main.c        **** 				next_gprs_operation_time = cur_time + 5;
 822:main.c        **** 				gprs_operation_ErrCount++;
 823:main.c        **** 				ret =  GPRS_ClosedConnect();
 824:main.c        **** 				if (ret == TRUE)
 825:main.c        **** 				{
 826:main.c        **** 					gprs_state = CEN_CLOSED;
 827:main.c        **** 					next_gprs_operation_time = cur_time;
 828:main.c        **** 					gprs_operation_ErrCount = 0;
 829:main.c        **** 				}
 830:main.c        **** 			}
 831:main.c        **** 		}
 832:main.c        **** 	}
 833:main.c        **** 	else if (gprs_state == CEN_CLOSED)
 834:main.c        **** 	{
 835:main.c        **** 		LED_State = RED;
 836:main.c        **** 		Led_SetState(LED_State);
 837:main.c        **** 		if (gprs_operation_ErrCount > 3)
 838:main.c        **** 		{
 839:main.c        **** 			gprs_state = INIT;
 840:main.c        **** 		}
 841:main.c        **** 		else if (cur_time > next_gprs_operation_time)
 842:main.c        **** 		{
 843:main.c        **** 			next_gprs_operation_time = cur_time + 5;
 844:main.c        **** 			gprs_operation_ErrCount++;
 845:main.c        **** 			ret = GPRS_ConnectPreServer();
 846:main.c        **** 			if (ret == TRUE)
 847:main.c        **** 			{
 848:main.c        **** 				gprs_state = PRE_CONNECT;
 849:main.c        **** 				next_gprs_operation_time = cur_time;
 850:main.c        **** 				gprs_operation_ErrCount = 0;
 851:main.c        **** 			}
 852:main.c        **** 		}
 853:main.c        **** 	}
 854:main.c        **** 	else if (gprs_state == PRE_CONNECT)
 855:main.c        **** 	{
 856:main.c        **** 		LED_State = RED;
 857:main.c        **** 		Led_SetState(LED_State);
 858:main.c        **** 		if (gprs_operation_ErrCount > 3)
 859:main.c        **** 		{
 860:main.c        **** 			gprs_state = INIT;
 861:main.c        **** 		}
 862:main.c        **** 		else if (cur_time > next_gprs_operation_time)
 863:main.c        **** 		{
 864:main.c        **** 			next_gprs_operation_time = cur_time + 20;
 865:main.c        **** 			gprs_operation_ErrCount++;
 866:main.c        ****             send_send_mac_and_get_blekey();
 867:main.c        ****             #if 0
 868:main.c        **** 			if (SendMacFlag == 0)
 869:main.c        **** 			{
 870:main.c        **** 				send_send_mac_and_get_blekey();
 871:main.c        **** 			}
 872:main.c        **** 			else
 873:main.c        **** 			{
 874:main.c        **** 				gprs_state = NORMAL_COMM;
 875:main.c        **** 			}
 876:main.c        ****             #endif
 877:main.c        **** 		}
ARM GAS  C:\Users\Administrator\AppData\Local\Temp\ccNLOfxN.s 			page 29


 878:main.c        **** 	}
 879:main.c        ****     #if 0
 880:main.c        **** 	else if (gprs_state == NORMAL_COMM)
 881:main.c        **** 	{
 882:main.c        **** 		LED_State = GREEN;
 883:main.c        **** 		Led_SetState(LED_State);
 884:main.c        **** 		if (cur_time > next_heartbeat_time)
 885:main.c        **** 		{
 886:main.c        **** 			EnterGuide_State = DoorClosed;
 887:main.c        **** 			send_heartbeat(EnterGuide_State);
 888:main.c        **** 			heartbeat_SendCount++;
 889:main.c        **** 			if (heartbeat_SendCount > 1)
 890:main.c        **** 			{
 891:main.c        **** 				gprs_state = NEED_INIT;
 892:main.c        **** 			}
 893:main.c        **** 			else
 894:main.c        **** 			{
 895:main.c        **** 				cur_time = (uint32)RTC_GetUnixTime();
 896:main.c        **** 				next_heartbeat_time = cur_time + 300;
 897:main.c        **** 			}
 898:main.c        **** 		}
 899:main.c        **** 		GPRS_CheckIfRecvClosed();									// 检查网络是否断开，并设置相关状态	//
 900:main.c        **** 	}
 901:main.c        ****     #endif
 902:main.c        ****     #if 1
 903:main.c        ****     else if (gprs_state == NORMAL_COMM)
 904:main.c        **** 	{
 905:main.c        **** 		LED_State = GREEN;
 906:main.c        **** 		Led_SetState(LED_State);
 907:main.c        ****         
 908:main.c        ****         if (cur_time > heartbeat_lasttime + 60)                 // 超过一分钟 检测一次回
 909:main.c        ****         {
 910:main.c        ****             if (heartbeat_SendCount > 0)                        // 没有回复
 911:main.c        ****             {               		                   
 912:main.c        ****                 EnterGuide_State = DoorClosed;	
 913:main.c        ****                 send_heartbeat(EnterGuide_State);
 914:main.c        ****                 heartbeat_SendCount++;
 915:main.c        ****                 cur_time = (uint32)RTC_GetUnixTime();
 916:main.c        ****                 heartbeat_lasttime = cur_time;
 917:main.c        ****                 next_heartbeat_time = cur_time + 300;
 918:main.c        ****                 if (heartbeat_SendCount > 3)
 919:main.c        ****     			{
 920:main.c        ****     				gprs_state = NEED_INIT;
 921:main.c        ****     			}
 922:main.c        ****             }
 923:main.c        ****                   
 924:main.c        ****     		if (cur_time > next_heartbeat_time)
 925:main.c        ****     		{
 926:main.c        ****     			EnterGuide_State = DoorClosed;
 927:main.c        ****                 send_heartbeat(EnterGuide_State);
 928:main.c        ****     			heartbeat_SendCount++;
 929:main.c        ****     			cur_time = (uint32)RTC_GetUnixTime();
 930:main.c        ****                 heartbeat_lasttime = cur_time;
 931:main.c        ****     			next_heartbeat_time = cur_time + 300;
 932:main.c        ****     		}
 933:main.c        ****             
 934:main.c        ****         }
ARM GAS  C:\Users\Administrator\AppData\Local\Temp\ccNLOfxN.s 			page 30


 935:main.c        **** 		GPRS_CheckIfRecvClosed();									// 检查网络是否断开，并设置相关状态	//
 936:main.c        **** 	}
 937:main.c        ****     #endif
 938:main.c        ****     
 939:main.c        **** 	else if (gprs_state == NEED_INIT)
 940:main.c        **** 	{
 941:main.c        **** 		LED_State = RED;
 942:main.c        **** 		Led_SetState(LED_State);
 943:main.c        **** 		GPRS_ClosedConnect();										// 重启各设备之前 关闭连接 释放资源
 944:main.c        ****         GPRSPowerDown();										    // 开 关机操作
 945:main.c        ****        
 946:main.c        ****         #if 0
 947:main.c        ****         reboot_count = Read_RebootType();
 948:main.c        ****         if ((reboot_count == 0xFF) || (reboot_count == 0x00))
 949:main.c        ****         {
 950:main.c        ****             GPRS_ClosedConnect();
 951:main.c        ****             ResetGPRS();
 952:main.c        ****             reboot_count = 1;
 953:main.c        ****         }
 954:main.c        ****         else if (reboot_count == 2)
 955:main.c        ****         {
 956:main.c        ****             GPRSPowerDown();										// 开 关机操作
 957:main.c        ****             reboot_count = 0;
 958:main.c        ****         }
 959:main.c        ****         else
 960:main.c        ****         {
 961:main.c        ****             
 962:main.c        ****             ResetGPRS();
 963:main.c        ****             reboot_count = 2;
 964:main.c        ****         }
 965:main.c        ****         Write_RebootType(reboot_count);
 966:main.c        ****         #endif
 967:main.c        ****         gprs_state = INIT;
 968:main.c        ****         flag_reboot = 1;
 969:main.c        ****         Reboot_Check();
 970:main.c        **** 	}
 971:main.c        ****     
 972:main.c        **** 	else if (gprs_state == NEED_UPDATE)
 973:main.c        **** 	{
 974:main.c        **** 		LED_State = RED;
 975:main.c        **** 		Led_SetState(LED_State);
 976:main.c        **** 		if (cur_time > next_gprs_operation_time)
 977:main.c        **** 		{
 978:main.c        **** 			if (gprs_operation_ErrCount > gprs_resetCount)
 979:main.c        **** 			{
 980:main.c        **** 				gprs_state = NEED_INIT;
 981:main.c        **** 			}
 982:main.c        **** 			else
 983:main.c        **** 			{
 984:main.c        **** 				next_gprs_operation_time = cur_time + 5;
 985:main.c        **** 				gprs_operation_ErrCount++;
 986:main.c        **** 				ret =  GPRS_ClosedConnect();
 987:main.c        **** 				if (ret == TRUE)
 988:main.c        **** 				{
 989:main.c        **** 					gprs_state = PRE_CLOSED;
 990:main.c        **** 					next_gprs_operation_time = cur_time;
 991:main.c        **** 					gprs_operation_ErrCount = 0;
ARM GAS  C:\Users\Administrator\AppData\Local\Temp\ccNLOfxN.s 			page 31


 992:main.c        **** 				}
 993:main.c        **** 			}
 994:main.c        **** 		}
 995:main.c        **** 	}
 996:main.c        **** 	else if (gprs_state == PRE_CLOSED)
 997:main.c        **** 	{
 998:main.c        **** 		LED_State = RED;
 999:main.c        **** 		Led_SetState(LED_State);
1000:main.c        **** 		if (gprs_operation_ErrCount > 3)
1001:main.c        **** 		{
1002:main.c        **** 			gprs_state = INIT;
1003:main.c        **** 		}
1004:main.c        **** 		else if (cur_time > next_gprs_operation_time)
1005:main.c        **** 		{
1006:main.c        **** 			next_gprs_operation_time = cur_time + 10;
1007:main.c        **** 			gprs_operation_ErrCount++;
1008:main.c        **** 			ret = GPRS_ConnectUpdateServer();
1009:main.c        **** 			if (ret == TRUE)
1010:main.c        **** 			{
1011:main.c        **** 				gprs_state = UPDATE_CONNECT;
1012:main.c        **** 				next_gprs_operation_time = cur_time;
1013:main.c        **** 				gprs_operation_ErrCount = 0;
1014:main.c        **** 			}
1015:main.c        **** 		}
1016:main.c        **** 	}
1017:main.c        **** 	else if (gprs_state == UPDATE_CONNECT)
1018:main.c        **** 	{
1019:main.c        **** 		LED_State = BLUE;
1020:main.c        **** 		Led_SetState(LED_State);
1021:main.c        **** 		Cmd_Protocol_ParaInit();
1022:main.c        **** 		update_page = 1;
1023:main.c        **** 		send_update_req(update_page);
1024:main.c        **** 		update_timeout_time = 20000;
1025:main.c        **** 		update_timeout_count = 0;
1026:main.c        **** 		gprs_state = WAIT_UPDATE;
1027:main.c        **** 	}
1028:main.c        **** 	else if (gprs_state == WAIT_UPDATE)
1029:main.c        **** 	{
1030:main.c        **** 		if (update_timeout_time == 0)
1031:main.c        **** 		{
1032:main.c        **** 			update_timeout_count++;
1033:main.c        **** 			if (update_timeout_count >= gprs_resetCount)
1034:main.c        **** 			{
1035:main.c        **** 				update_timeout_count = 0;
1036:main.c        **** 				GPRS_ClosedConnect();							// 下载升级包超时 关闭连接退出升级
1037:main.c        **** 				gprs_state = INIT;
1038:main.c        **** 			}
1039:main.c        **** 			else
1040:main.c        **** 			{
1041:main.c        **** 				Cmd_Protocol_ParaInit();
1042:main.c        **** 				send_update_req(update_page);
1043:main.c        **** 				update_timeout_time = 10000;
1044:main.c        **** 			}
1045:main.c        **** 		}
1046:main.c        **** 	}
1047:main.c        **** 	else if (gprs_state == UPDATE_FINISH)
1048:main.c        **** 	{
ARM GAS  C:\Users\Administrator\AppData\Local\Temp\ccNLOfxN.s 			page 32


1049:main.c        **** 		GPRS_ClosedConnect();									// 下载升级包超完成 关闭连接 释放资源
1050:main.c        **** 		stop_reboot = 0x01;
1051:main.c        **** 		Bootloadable_Load();
1052:main.c        **** 	}
1053:main.c        **** }
1054:main.c        **** 
1055:main.c        **** 
1056:main.c        **** //*************************************************************************************************
1057:main.c        **** // Function name	: CARD_Tick
1058:main.c        **** // Description		: 刷卡验证并处理
1059:main.c        **** // Parameter		: none
1060:main.c        **** // Return			: none
1061:main.c        **** //-------------------------------------------------------------------------------------------------
1062:main.c        **** // Info				: 
1063:main.c        **** //*************************************************************************************************
1064:main.c        **** #if card_test
1065:main.c        **** void CARD_Tick(void)
1066:main.c        **** {
1067:main.c        **** 	uint8 i;
1068:main.c        **** 	uint8 ret;
1069:main.c        **** 	uint8 card_id[8] = {0};
1070:main.c        **** 	uint8 arr_time[4];
1071:main.c        **** 	uint32 cur_time;
1072:main.c        **** 	user_info_t user_info;
1073:main.c        ****     open_door_t openInfo_card;
1074:main.c        **** 	uint8 ic_buf[64] = {0x01,0x02,0x03,0x04,0x05};
1075:main.c        **** 	
1076:main.c        **** 	uint8_t statues;
1077:main.c        ****     uint8_t picc_atqa[2];                                               
1078:main.c        ****     //static uint8_t picc_uid[15];                                        
1079:main.c        ****     //uint8_t picc_sak[3];                                                
1080:main.c        ****     uint8_t key[6]= {0xFF,0xFF,0xFF,0xFF,0xFF,0xFF};       				// 不同的卡是不是不一样   
1081:main.c        **** 	uint8_t key_b04[6]= {0xff,0xff,0xfe,0xef,0xfa,0xaf};       			// block4-5 的加密密钥
1082:main.c        ****     
1083:main.c        **** 	uint8_t blockAddr;
1084:main.c        ****     uint8_t blockData[16];
1085:main.c        ****     uint32_t rec_len;
1086:main.c        ****     uint8_t pupi[4];
1087:main.c        ****     uint8_t buff[12];
1088:main.c        **** 	
1089:main.c        **** 	
1090:main.c        **** 	//==if(RET_ERR == Read_nfc_card2(card_id))
1091:main.c        **** 	//==	return;
1092:main.c        **** 	
1093:main.c        **** 	FM175X_SoftReset( );  
1094:main.c        **** 	Set_Rf( 3 );                                                /* 打开双天线                  */
1095:main.c        **** 	Pcd_ConfigISOType( 0 );                                     /* ISO14443寄存器初始化        *
1096:main.c        **** 	statues = TypeA_CardActive( picc_atqa,picc_uid,picc_sak );  /* 激活A卡片                   */
1097:main.c        **** 	if ( statues == TRUE ) 
1098:main.c        **** 	{
1099:main.c        **** 		DBG_SOFT_PutStr("\nCardUID:");
1100:main.c        **** 		DBG_SOFT_PrintfHex(picc_uid,8,16);
1101:main.c        **** 		memcpy(card_id, picc_uid, 4);
1102:main.c        **** 
1103:main.c        **** 	}
1104:main.c        **** 	else 
1105:main.c        **** 	{
ARM GAS  C:\Users\Administrator\AppData\Local\Temp\ccNLOfxN.s 			page 33


1106:main.c        **** 		//DBG_SOFT_PutStr("No Card!\r\n");
1107:main.c        **** 		TypeA_Halt( 0 );  	 					 				/* 卡片睡眠 					*/
1108:main.c        **** 		return;
1109:main.c        **** 	}
1110:main.c        **** 	
1111:main.c        **** #if 0	
1112:main.c        **** 	for(i = 0; i < 16; i++)										// 先读取16扇区数据
1113:main.c        **** 	{
1114:main.c        **** 		// 先读0区块
1115:main.c        **** 		blockAddr = i;
1116:main.c        **** 		if((i >= 4)&&(i <= 7))
1117:main.c        **** 		{
1118:main.c        **** 			statues = Mifare_Auth(0x00,blockAddr>>2,key_b04,picc_uid);      /* 密钥认证                 
1119:main.c        **** 		}
1120:main.c        **** 		else
1121:main.c        **** 			statues = Mifare_Auth(0x00,blockAddr>>2,key,picc_uid);      	/* 密钥认证                    
1122:main.c        **** 		
1123:main.c        **** 		if(statues  == TRUE)
1124:main.c        **** 		{
1125:main.c        **** 			DBG_SOFT_PutStr("Auth OK!\r\n");
1126:main.c        **** 		}
1127:main.c        **** 		else
1128:main.c        **** 		{
1129:main.c        **** 			DBG_SOFT_PutStr("Auth Err!\r\n");
1130:main.c        **** 			return ;
1131:main.c        **** 		}	
1132:main.c        **** 		statues = Mifare_Blockread(blockAddr,blockData);            /* 读块               		   */
1133:main.c        **** 		if(statues  == TRUE)
1134:main.c        **** 		{
1135:main.c        **** 			DBG_SOFT_PutStr("Read OK @Block ");
1136:main.c        **** 			DBG_SOFT_PrintfHex(&blockAddr,1,16);
1137:main.c        **** 			DBG_SOFT_PrintfHex(blockData,16,16);
1138:main.c        **** 		}
1139:main.c        **** 		else
1140:main.c        **** 		{
1141:main.c        **** 			DBG_SOFT_PutStr("Read Err!\r\n");
1142:main.c        **** 			return ;
1143:main.c        **** 		}
1144:main.c        **** 		
1145:main.c        **** 		if(i == 0)
1146:main.c        **** 		{
1147:main.c        **** 			memcpy(card_id,blockData,4);
1148:main.c        **** 		}
1149:main.c        **** 	}	
1150:main.c        **** 
1151:main.c        **** 	if(1 == IsCardLegality(card_id))
1152:main.c        **** 	{
1153:main.c        **** 		DBG_SOFT_PutStr("IsCardLegality OK!\n");
1154:main.c        **** 	}
1155:main.c        **** 	else 
1156:main.c        **** 		DBG_SOFT_PutStr("IsCardLegality ERR!\n");
1157:main.c        **** 	
1158:main.c        **** 	TypeA_Halt( 0 );  	 					 					// 卡片睡眠 					
1159:main.c        **** #endif
1160:main.c        **** 	CardBlock_Rd(5,blockData);
1161:main.c        **** 	DBG_SOFT_PutStr("\nCardBlock_Rd data @ Block 5:\n");
1162:main.c        **** 	DBG_SOFT_PrintfHex(blockData,16,16);
ARM GAS  C:\Users\Administrator\AppData\Local\Temp\ccNLOfxN.s 			page 34


1163:main.c        **** 
1164:main.c        **** 	if(1 == IsCardLegality(card_id))
1165:main.c        **** 	{
1166:main.c        **** 		DBG_SOFT_PutStr("\nIsCardLegality ok!\n");				// 合法性验证
1167:main.c        **** 	}
1168:main.c        **** 	
1169:main.c        **** 	CardInfoUpdate();
1170:main.c        **** 	
1171:main.c        **** 
1172:main.c        **** 	#if 0
1173:main.c        **** 	blockAddr = 0x04;
1174:main.c        **** 	statues = Mifare_Blockwrite(blockAddr,blockData);			/* 写块	 				   */
1175:main.c        **** 	if(statues  == TRUE)
1176:main.c        **** 	{
1177:main.c        **** 		DBG_SOFT_PutStr("Write OK!\r\n");
1178:main.c        **** 	}
1179:main.c        **** 	else
1180:main.c        **** 	{
1181:main.c        **** 		DBG_SOFT_PutStr("Write Err!\r\n");
1182:main.c        **** 		return ;
1183:main.c        **** 	}
1184:main.c        **** 	#endif
1185:main.c        **** 	#if 0
1186:main.c        **** 	// 写完后 再读出来
1187:main.c        **** 	statues = Mifare_Blockread(blockAddr,blockData);            /* 再读块  01             		   */
1188:main.c        **** 	if(statues  == TRUE)
1189:main.c        **** 	{
1190:main.c        **** 		DBG_SOFT_PutStr("Read OK!\r\n");
1191:main.c        **** 		DBG_SOFT_PrintfHex(blockData,16,16);
1192:main.c        **** 	}
1193:main.c        **** 	else
1194:main.c        **** 	{
1195:main.c        **** 		DBG_SOFT_PutStr("Read Err!\r\n");
1196:main.c        **** 		return ;
1197:main.c        **** 	}
1198:main.c        **** 	#endif
1199:main.c        **** 	
1200:main.c        **** 	#if 0
1201:main.c        **** 	for(i = 0; i < 64; i++)
1202:main.c        **** 	{
1203:main.c        **** 		ic_buf[i]  = i;
1204:main.c        **** 	}
1205:main.c        **** 	if(TRUE == Mifare_Blockwrite(3,ic_buf))
1206:main.c        **** 	{
1207:main.c        **** 		DBG_SOFT_PutStr("\nWrite card Block OK!\n");
1208:main.c        **** 	}
1209:main.c        **** 	else
1210:main.c        **** 	{
1211:main.c        **** 		DBG_SOFT_PutStr("\nWrite card Block Failed!\n");
1212:main.c        **** 	}
1213:main.c        **** 	
1214:main.c        **** 	//如果读到卡 取出卡片的64个块的数据 打印
1215:main.c        **** 	for(i = 0; i < 64; i++)
1216:main.c        **** 	{
1217:main.c        **** 		if(TRUE == Mifare_Blockread(i, ic_buf))
1218:main.c        **** 		{
1219:main.c        **** 			#if DBG_SOFT_ENNABLE
ARM GAS  C:\Users\Administrator\AppData\Local\Temp\ccNLOfxN.s 			page 35


1220:main.c        **** 			//memset(cur_readuid, 0, 8);
1221:main.c        **** 			//memcpy(card_id,card_id,8);
1222:main.c        **** 			DBG_SOFT_PutStr("\nCur Read card Block @i =");
1223:main.c        **** 			DBG_SOFT_PrintfHex(&i,1,16);
1224:main.c        **** 			DBG_SOFT_PrintfHex(ic_buf,16,16);
1225:main.c        **** 			#endif	
1226:main.c        **** 		}
1227:main.c        **** 		else
1228:main.c        **** 		{
1229:main.c        **** 			DBG_SOFT_PutStr("\nRead card Block Failed!\n");
1230:main.c        **** 		}
1231:main.c        **** 	}
1232:main.c        **** 	#endif
1233:main.c        **** 	
1234:main.c        **** 	for (i = 0; i < 2; i++)
1235:main.c        **** 	{
1236:main.c        **** 	    Led_AllOff();
1237:main.c        **** 		delay_with_ble(100);
1238:main.c        **** 		Led_BlueON();
1239:main.c        **** 		delay_with_ble(100);
1240:main.c        **** 	}
1241:main.c        **** 	
1242:main.c        **** 	cur_time = (uint32)RTC_GetUnixTime();
1243:main.c        **** 	LONG2BYTE(cur_time, arr_time);
1244:main.c        **** 	memcpy(user_info.card_uid, card_id, CARD_UID_LEN);
1245:main.c        **** 	memcpy(user_info.valid_time, arr_time, 4);
1246:main.c        **** 	
1247:main.c        **** 	if (1 == UserData_Judge_If_Open(&user_info))
1248:main.c        **** 	{
1249:main.c        **** 		Led_GreenON();
1250:main.c        **** 		DoorOpen();
1251:main.c        **** 		VoicePlay((uint8)Sound_VERIFY_SUCCESS);
1252:main.c        **** 		
1253:main.c        **** 		memset(&openInfo_card, 0, sizeof(open_door_t));
1254:main.c        **** 		memcpy(openInfo_card.card_uid, card_id, CARD_UID_LEN);
1255:main.c        **** 		memcpy(openInfo_card.open_time, arr_time, 4);
1256:main.c        **** 		memset(arr_time, 0, 4);
1257:main.c        **** 		memcpy(openInfo_card.send_time, arr_time, 4);
1258:main.c        **** 		Write_OpenInfo(&openInfo_card, CARD_OPEN);
1259:main.c        **** 		
1260:main.c        **** 		if (gprs_state == NORMAL_COMM)
1261:main.c        **** 		{
1262:main.c        **** 			cur_time = (uint32)RTC_GetUnixTime();
1263:main.c        **** 			if(cur_time > next_allupload_time)
1264:main.c        **** 			{
1265:main.c        **** 				next_allupload_time = cur_time + 15;
1266:main.c        **** 				send_upload_open_info(&openInfo_card, CARD_UID_LEN, CARD_OPEN);				
1267:main.c        **** 			}						
1268:main.c        **** 		}
1269:main.c        **** 		
1270:main.c        **** 		DoorClose();
1271:main.c        **** 	}
1272:main.c        **** 	else
1273:main.c        **** 	{
1274:main.c        **** 		Card_ErrCount++;
1275:main.c        **** 		Led_RedON();
1276:main.c        **** 		VoicePlay(Sound_VERIFY_FAILURE);
ARM GAS  C:\Users\Administrator\AppData\Local\Temp\ccNLOfxN.s 			page 36


1277:main.c        **** 		delay_with_ble(800);
1278:main.c        **** 	}
1279:main.c        **** 	Led_SetState(LED_State);										// LED的状态切回刷卡前的状态		//
1280:main.c        **** 	
1281:main.c        **** Err_Check:
1282:main.c        **** 	if (Card_ErrCount >= 5)
1283:main.c        **** 	{
1284:main.c        **** 		Card_ErrCount = 0;
1285:main.c        **** 		if (gprs_state == NORMAL_COMM)
1286:main.c        **** 		{
1287:main.c        **** 			EnterGuide_State = ALARM_ErrOpenQty;
1288:main.c        **** 			send_alarm_info(EnterGuide_State);						// 开门错误5次报警					//
1289:main.c        **** 		}
1290:main.c        **** 	}
1291:main.c        **** }
1292:main.c        **** #endif
1293:main.c        **** 
1294:main.c        **** 
1295:main.c        **** #if card_scan //扫描scan
1296:main.c        **** //*************************************************************************************************
1297:main.c        **** // Function name	: CARD_Tick
1298:main.c        **** // Description		: 刷卡验证并处理
1299:main.c        **** // Parameter		: none
1300:main.c        **** // Return			: none
1301:main.c        **** //-------------------------------------------------------------------------------------------------
1302:main.c        **** // Info				: 
1303:main.c        **** //*************************************************************************************************
1304:main.c        **** void CARD_Tick(void)
1305:main.c        **** {
 703              		.loc 1 1305 0
 704              		.cfi_startproc
1306:main.c        **** 	uint8 i;
1307:main.c        **** 
1308:main.c        **** 	uint8 card_id[8] = {0};
 705              		.loc 1 1308 0
 706 0000 0023     		mov	r3, #0
1305:main.c        **** 	uint8 i;
 707              		.loc 1 1305 0
 708 0002 70B5     		push	{r4, r5, r6, lr}
 709              		.cfi_def_cfa_offset 16
 710              		.cfi_offset 4, -16
 711              		.cfi_offset 5, -12
 712              		.cfi_offset 6, -8
 713              		.cfi_offset 14, -4
 714 0004 8AB0     		sub	sp, sp, #40
 715              		.cfi_def_cfa_offset 56
 716              		.loc 1 1308 0
 717 0006 01AC     		add	r4, sp, #4
1309:main.c        **** 	uint8 arr_time[4];
1310:main.c        **** 	uint32 cur_time;
1311:main.c        **** 	user_info_t user_info;
1312:main.c        ****     open_door_t openInfo_card;
1313:main.c        **** 	
1314:main.c        **** 	
1315:main.c        **** 	if(0 == CardScan(card_id))							// 先读A卡
 718              		.loc 1 1315 0
 719 0008 201C     		mov	r0, r4
ARM GAS  C:\Users\Administrator\AppData\Local\Temp\ccNLOfxN.s 			page 37


1308:main.c        **** 	uint8 arr_time[4];
 720              		.loc 1 1308 0
 721 000a 0193     		str	r3, [sp, #4]
 722 000c 6360     		str	r3, [r4, #4]
 723              		.loc 1 1315 0
 724 000e FFF7FEFF 		bl	CardScan
 725              	.LVL53:
 726 0012 0028     		cmp	r0, #0
 727 0014 2AD0     		beq	.L78
 728              	.L82:
 729              	.LVL54:
1316:main.c        **** 	{
1317:main.c        **** 		if(0 == nfc_detect_type_b(card_id, 8))			// 未读到 再读B卡
1318:main.c        **** 		{
1319:main.c        **** 			return ;
1320:main.c        **** 		}	
1321:main.c        **** 	}
1322:main.c        **** 	
1323:main.c        **** 	for (i = 0; i < 2; i++)
1324:main.c        **** 	{
1325:main.c        **** 	    Led_AllOff();
 730              		.loc 1 1325 0
 731 0016 FFF7FEFF 		bl	Led_AllOff
 732              	.LVL55:
1326:main.c        **** 		delay_with_ble(100);
 733              		.loc 1 1326 0
 734 001a 6420     		mov	r0, #100
 735 001c FFF7FEFF 		bl	delay_with_ble
 736              	.LVL56:
1327:main.c        **** 		Led_BlueON();
 737              		.loc 1 1327 0
 738 0020 FFF7FEFF 		bl	Led_BlueON
 739              	.LVL57:
1328:main.c        **** 		delay_with_ble(100);
 740              		.loc 1 1328 0
 741 0024 6420     		mov	r0, #100
 742 0026 FFF7FEFF 		bl	delay_with_ble
 743              	.LVL58:
1325:main.c        **** 		delay_with_ble(100);
 744              		.loc 1 1325 0
 745 002a FFF7FEFF 		bl	Led_AllOff
 746              	.LVL59:
1326:main.c        **** 		Led_BlueON();
 747              		.loc 1 1326 0
 748 002e 6420     		mov	r0, #100
 749 0030 FFF7FEFF 		bl	delay_with_ble
 750              	.LVL60:
1327:main.c        **** 		delay_with_ble(100);
 751              		.loc 1 1327 0
 752 0034 FFF7FEFF 		bl	Led_BlueON
 753              	.LVL61:
 754              		.loc 1 1328 0
 755 0038 6420     		mov	r0, #100
 756 003a FFF7FEFF 		bl	delay_with_ble
 757              	.LVL62:
1329:main.c        **** 	}
1330:main.c        **** 
ARM GAS  C:\Users\Administrator\AppData\Local\Temp\ccNLOfxN.s 			page 38


1331:main.c        **** 	DBG_SOFT_PutStr("\nGet Card UID:");	
1332:main.c        **** 	DBG_SOFT_PrintfHex(card_id,8,16);
1333:main.c        **** 	
1334:main.c        **** 	cur_time = (uint32)RTC_GetUnixTime();
 758              		.loc 1 1334 0
 759 003e FFF7FEFF 		bl	RTC_GetUnixTime
 760              	.LVL63:
1335:main.c        **** 	LONG2BYTE(cur_time, arr_time);
 761              		.loc 1 1335 0
 762 0042 6A46     		mov	r2, sp
 763 0044 030E     		lsr	r3, r0, #24
 764 0046 1370     		strb	r3, [r2]
 765 0048 030C     		lsr	r3, r0, #16
 766 004a D070     		strb	r0, [r2, #3]
 767 004c 5370     		strb	r3, [r2, #1]
 768 004e 030A     		lsr	r3, r0, #8
1336:main.c        **** 	memcpy(user_info.card_uid, card_id, CARD_UID_LEN);
 769              		.loc 1 1336 0
 770 0050 03A8     		add	r0, sp, #12
 771              	.LVL64:
1335:main.c        **** 	LONG2BYTE(cur_time, arr_time);
 772              		.loc 1 1335 0
 773 0052 9370     		strb	r3, [r2, #2]
 774              		.loc 1 1336 0
 775 0054 031C     		mov	r3, r0
 776 0056 221C     		mov	r2, r4
 777 0058 22CA     		ldmia	r2!, {r1, r5}
 778 005a 22C3     		stmia	r3!, {r1, r5}
1337:main.c        **** 	memcpy(user_info.valid_time, arr_time, 4);
 779              		.loc 1 1337 0
 780 005c 009B     		ldr	r3, [sp]
 781 005e 8360     		str	r3, [r0, #8]
1338:main.c        **** 	
1339:main.c        **** 	if (1 == UserData_Judge_If_Open(&user_info))
 782              		.loc 1 1339 0
 783 0060 FFF7FEFF 		bl	UserData_Judge_If_Open
 784              	.LVL65:
 785 0064 2A4E     		ldr	r6, .L96
 786 0066 0128     		cmp	r0, #1
 787 0068 33D1     		bne	.L94
 788 006a 06E0     		b	.L95
 789              	.LVL66:
 790              	.L78:
1317:main.c        **** 		{
 791              		.loc 1 1317 0
 792 006c 201C     		mov	r0, r4
 793 006e 0821     		mov	r1, #8
 794 0070 FFF7FEFF 		bl	nfc_detect_type_b
 795              	.LVL67:
 796 0074 0028     		cmp	r0, #0
 797 0076 49D0     		beq	.L77
 798 0078 CDE7     		b	.L82
 799              	.LVL68:
 800              	.L95:
1340:main.c        **** 	{
1341:main.c        **** 		Led_GreenON();
 801              		.loc 1 1341 0
ARM GAS  C:\Users\Administrator\AppData\Local\Temp\ccNLOfxN.s 			page 39


 802 007a FFF7FEFF 		bl	Led_GreenON
 803              	.LVL69:
1342:main.c        **** 		DoorOpen();
1343:main.c        **** 		VoicePlay((uint8)Sound_VERIFY_SUCCESS);
1344:main.c        **** 		
1345:main.c        **** 		memset(&openInfo_card, 0, sizeof(open_door_t));
 804              		.loc 1 1345 0
 805 007e 06AD     		add	r5, sp, #24
1342:main.c        **** 		DoorOpen();
 806              		.loc 1 1342 0
 807 0080 FFF7FEFF 		bl	DoorOpen
 808              	.LVL70:
1343:main.c        **** 		
 809              		.loc 1 1343 0
 810 0084 0A20     		mov	r0, #10
 811 0086 FFF7FEFF 		bl	VoicePlay
 812              	.LVL71:
 813              		.loc 1 1345 0
 814 008a 0021     		mov	r1, #0
 815 008c 1022     		mov	r2, #16
 816 008e 281C     		mov	r0, r5
 817 0090 FFF7FEFF 		bl	memset
 818              	.LVL72:
1346:main.c        **** 		memcpy(openInfo_card.card_uid, card_id, CARD_UID_LEN);
 819              		.loc 1 1346 0
 820 0094 2B1C     		mov	r3, r5
 821 0096 06CC     		ldmia	r4!, {r1, r2}
 822 0098 06C3     		stmia	r3!, {r1, r2}
1347:main.c        **** 		memcpy(openInfo_card.open_time, arr_time, 4);
 823              		.loc 1 1347 0
 824 009a 009B     		ldr	r3, [sp]
1348:main.c        **** 		memset(arr_time, 0, 4);
1349:main.c        **** 		memcpy(openInfo_card.send_time, arr_time, 4);
1350:main.c        **** 		Write_OpenInfo(&openInfo_card, CARD_OPEN);
 825              		.loc 1 1350 0
 826 009c 281C     		mov	r0, r5
1347:main.c        **** 		memcpy(openInfo_card.open_time, arr_time, 4);
 827              		.loc 1 1347 0
 828 009e AB60     		str	r3, [r5, #8]
1348:main.c        **** 		memset(arr_time, 0, 4);
 829              		.loc 1 1348 0
 830 00a0 0023     		mov	r3, #0
 831              		.loc 1 1350 0
 832 00a2 0721     		mov	r1, #7
1348:main.c        **** 		memset(arr_time, 0, 4);
 833              		.loc 1 1348 0
 834 00a4 0093     		str	r3, [sp]
 835              		.loc 1 1350 0
 836 00a6 FFF7FEFF 		bl	Write_OpenInfo
 837              	.LVL73:
1351:main.c        **** 		
1352:main.c        **** 		if (gprs_state == NORMAL_COMM)
 838              		.loc 1 1352 0
 839 00aa 1A4B     		ldr	r3, .L96+4
 840 00ac 1B78     		ldrb	r3, [r3]
 841 00ae 052B     		cmp	r3, #5
 842 00b0 0CD1     		bne	.L84
ARM GAS  C:\Users\Administrator\AppData\Local\Temp\ccNLOfxN.s 			page 40


1353:main.c        **** 		{
1354:main.c        **** 			cur_time = (uint32)RTC_GetUnixTime();
 843              		.loc 1 1354 0
 844 00b2 FFF7FEFF 		bl	RTC_GetUnixTime
 845              	.LVL74:
1355:main.c        **** 			if(cur_time > next_allupload_time)
 846              		.loc 1 1355 0
 847 00b6 184B     		ldr	r3, .L96+8
 848 00b8 1A68     		ldr	r2, [r3]
 849 00ba 9042     		cmp	r0, r2
 850 00bc 06D9     		bls	.L84
1356:main.c        **** 			{
1357:main.c        **** 				next_allupload_time = cur_time + 15;
 851              		.loc 1 1357 0
 852 00be 0F30     		add	r0, r0, #15
 853              	.LVL75:
 854 00c0 1860     		str	r0, [r3]
1358:main.c        **** 				send_upload_open_info(&openInfo_card, CARD_UID_LEN, CARD_OPEN);				
 855              		.loc 1 1358 0
 856 00c2 0821     		mov	r1, #8
 857 00c4 281C     		mov	r0, r5
 858              	.LVL76:
 859 00c6 0722     		mov	r2, #7
 860 00c8 FFF7FEFF 		bl	send_upload_open_info
 861              	.LVL77:
 862              	.L84:
1359:main.c        **** 			}						
1360:main.c        **** 		}
1361:main.c        **** 		
1362:main.c        **** 		DoorClose();
 863              		.loc 1 1362 0
 864 00cc FFF7FEFF 		bl	DoorClose
 865              	.LVL78:
 866 00d0 0BE0     		b	.L86
 867              	.L94:
1363:main.c        **** 	}
1364:main.c        **** 	else
1365:main.c        **** 	{
1366:main.c        **** 		Card_ErrCount++;
 868              		.loc 1 1366 0
 869 00d2 3378     		ldrb	r3, [r6]
 870 00d4 0133     		add	r3, r3, #1
 871 00d6 3370     		strb	r3, [r6]
1367:main.c        **** 		Led_RedON();
 872              		.loc 1 1367 0
 873 00d8 FFF7FEFF 		bl	Led_RedON
 874              	.LVL79:
1368:main.c        **** 		VoicePlay(Sound_VERIFY_FAILURE);
 875              		.loc 1 1368 0
 876 00dc 0B20     		mov	r0, #11
 877 00de FFF7FEFF 		bl	VoicePlay
 878              	.LVL80:
1369:main.c        **** 		delay_with_ble(800);
 879              		.loc 1 1369 0
 880 00e2 C820     		mov	r0, #200
 881 00e4 8000     		lsl	r0, r0, #2
 882 00e6 FFF7FEFF 		bl	delay_with_ble
ARM GAS  C:\Users\Administrator\AppData\Local\Temp\ccNLOfxN.s 			page 41


 883              	.LVL81:
 884              	.L86:
1370:main.c        **** 	}
1371:main.c        **** 	Led_SetState(LED_State);										// LED的状态切回刷卡前的状态		//
 885              		.loc 1 1371 0
 886 00ea 0C4C     		ldr	r4, .L96+12
 887 00ec 607A     		ldrb	r0, [r4, #9]
 888 00ee FFF7FEFF 		bl	Led_SetState
 889              	.LVL82:
 890              	.LDL1:
1372:main.c        **** 	
1373:main.c        **** Err_Check:
1374:main.c        **** 	if (Card_ErrCount >= 5)
 891              		.loc 1 1374 0
 892 00f2 3378     		ldrb	r3, [r6]
 893 00f4 042B     		cmp	r3, #4
 894 00f6 09D9     		bls	.L77
1375:main.c        **** 	{
1376:main.c        **** 		Card_ErrCount = 0;
 895              		.loc 1 1376 0
 896 00f8 0023     		mov	r3, #0
 897 00fa 3370     		strb	r3, [r6]
1377:main.c        **** 		if (gprs_state == NORMAL_COMM)
 898              		.loc 1 1377 0
 899 00fc 054B     		ldr	r3, .L96+4
 900 00fe 1B78     		ldrb	r3, [r3]
 901 0100 052B     		cmp	r3, #5
 902 0102 03D1     		bne	.L77
1378:main.c        **** 		{
1379:main.c        **** 			EnterGuide_State = ALARM_ErrOpenQty;
 903              		.loc 1 1379 0
 904 0104 0320     		mov	r0, #3
 905 0106 2072     		strb	r0, [r4, #8]
1380:main.c        **** 			send_alarm_info(EnterGuide_State);						// 开门错误5次报警					//
 906              		.loc 1 1380 0
 907 0108 FFF7FEFF 		bl	send_alarm_info
 908              	.LVL83:
 909              	.L77:
1381:main.c        **** 		}
1382:main.c        **** 	}
1383:main.c        **** 	
1384:main.c        **** }
 910              		.loc 1 1384 0
 911 010c 0AB0     		add	sp, sp, #40
 912              		@ sp needed
 913 010e 70BD     		pop	{r4, r5, r6, pc}
 914              	.L97:
 915              		.align	2
 916              	.L96:
 917 0110 00000000 		.word	Card_ErrCount
 918 0114 00000000 		.word	gprs_state
 919 0118 00000000 		.word	next_allupload_time
 920 011c 00000000 		.word	.LANCHOR0
 921              		.cfi_endproc
 922              	.LFE87:
 923              		.size	CARD_Tick, .-CARD_Tick
 924              		.section	.text.ble_heartbeat,"ax",%progbits
ARM GAS  C:\Users\Administrator\AppData\Local\Temp\ccNLOfxN.s 			page 42


 925              		.align	1
 926              		.global	ble_heartbeat
 927              		.code	16
 928              		.thumb_func
 929              		.type	ble_heartbeat, %function
 930              	ble_heartbeat:
 931              	.LFB65:
 265:main.c        ****     uint16 i;
 932              		.loc 1 265 0
 933              		.cfi_startproc
 934 0000 10B5     		push	{r4, lr}
 935              		.cfi_def_cfa_offset 8
 936              		.cfi_offset 4, -8
 937              		.cfi_offset 14, -4
 268:main.c        ****     for (i = 0; i < 50; i++)
 938              		.loc 1 268 0
 939 0002 FFF7FEFF 		bl	WDT_FeedDog
 940              	.LVL84:
 941 0006 3224     		mov	r4, #50
 942              	.LVL85:
 943              	.L99:
 944 0008 013C     		sub	r4, r4, #1
 945              	.LVL86:
 946 000a A4B2     		uxth	r4, r4
 271:main.c        **** 	}
 947              		.loc 1 271 0 discriminator 3
 948 000c FFF7FEFF 		bl	CyBle_ProcessEvents
 949              	.LVL87:
 269:main.c        ****     {
 950              		.loc 1 269 0 discriminator 3
 951 0010 002C     		cmp	r4, #0
 952 0012 F9D1     		bne	.L99
 275:main.c        ****     {
 953              		.loc 1 275 0
 954 0014 0B4B     		ldr	r3, .L105
 955 0016 1B78     		ldrb	r3, [r3]
 956 0018 012B     		cmp	r3, #1
 957 001a 01D1     		bne	.L100
 277:main.c        ****     }
 958              		.loc 1 277 0
 959 001c FFF7FEFF 		bl	Protocol_CmdParse_BLE
 960              	.LVL88:
 961              	.L100:
 281:main.c        ****         (gprs_state != WAIT_UPDATE) && (gprs_state != UPDATE_FINISH))
 962              		.loc 1 281 0
 963 0020 094B     		ldr	r3, .L105+4
 964 0022 1B78     		ldrb	r3, [r3]
 965 0024 052B     		cmp	r3, #5
 966 0026 0CD0     		beq	.L98
 281:main.c        ****         (gprs_state != WAIT_UPDATE) && (gprs_state != UPDATE_FINISH))
 967              		.loc 1 281 0 is_stmt 0 discriminator 1
 968 0028 093B     		sub	r3, r3, #9
 969 002a 022B     		cmp	r3, #2
 970 002c 09D9     		bls	.L98
 971              	.LBB12:
 972              	.LBB13:
 284:main.c        ****         {
ARM GAS  C:\Users\Administrator\AppData\Local\Temp\ccNLOfxN.s 			page 43


 973              		.loc 1 284 0 is_stmt 1
 974 002e FA22     		mov	r2, #250
 975 0030 064B     		ldr	r3, .L105+8
 976 0032 9200     		lsl	r2, r2, #2
 977 0034 1968     		ldr	r1, [r3]
 978 0036 9142     		cmp	r1, r2
 979 0038 03D9     		bls	.L98
 286:main.c        ****             CARD_Tick();
 980              		.loc 1 286 0
 981 003a 0022     		mov	r2, #0
 982 003c 1A60     		str	r2, [r3]
 287:main.c        ****         }
 983              		.loc 1 287 0
 984 003e FFF7FEFF 		bl	CARD_Tick
 985              	.LVL89:
 986              	.L98:
 987              	.LBE13:
 988              	.LBE12:
 290:main.c        **** 
 989              		.loc 1 290 0
 990              		@ sp needed
 991 0042 10BD     		pop	{r4, pc}
 992              	.L106:
 993              		.align	2
 994              	.L105:
 995 0044 00000000 		.word	BleCmdValidFlag
 996 0048 00000000 		.word	gprs_state
 997 004c 00000000 		.word	.LANCHOR0
 998              		.cfi_endproc
 999              	.LFE65:
 1000              		.size	ble_heartbeat, .-ble_heartbeat
 1001              		.global	__aeabi_uidiv
 1002              		.section	.text.delay_with_ble,"ax",%progbits
 1003              		.align	1
 1004              		.global	delay_with_ble
 1005              		.code	16
 1006              		.thumb_func
 1007              		.type	delay_with_ble, %function
 1008              	delay_with_ble:
 1009              	.LFB66:
 301:main.c        **** 	uint32 loop = 0;
 1010              		.loc 1 301 0
 1011              		.cfi_startproc
 1012              	.LVL90:
 1013 0000 38B5     		push	{r3, r4, r5, lr}
 1014              		.cfi_def_cfa_offset 16
 1015              		.cfi_offset 3, -16
 1016              		.cfi_offset 4, -12
 1017              		.cfi_offset 5, -8
 1018              		.cfi_offset 14, -4
 303:main.c        **** 	{
 1019              		.loc 1 303 0
 1020 0002 0521     		mov	r1, #5
 1021 0004 FFF7FEFF 		bl	__aeabi_uidiv
 1022              	.LVL91:
 1023 0008 0024     		mov	r4, #0
 1024 000a 051C     		mov	r5, r0
ARM GAS  C:\Users\Administrator\AppData\Local\Temp\ccNLOfxN.s 			page 44


 1025              	.LVL92:
 1026              	.L108:
 303:main.c        **** 	{
 1027              		.loc 1 303 0 is_stmt 0 discriminator 1
 1028 000c AC42     		cmp	r4, r5
 1029 000e 06D0     		beq	.L110
 305:main.c        **** 		ble_heartbeat();
 1030              		.loc 1 305 0 is_stmt 1 discriminator 3
 1031 0010 0520     		mov	r0, #5
 1032 0012 FFF7FEFF 		bl	CyDelay
 1033              	.LVL93:
 303:main.c        **** 	{
 1034              		.loc 1 303 0 discriminator 3
 1035 0016 0134     		add	r4, r4, #1
 1036              	.LVL94:
 306:main.c        **** 	}
 1037              		.loc 1 306 0 discriminator 3
 1038 0018 FFF7FEFF 		bl	ble_heartbeat
 1039              	.LVL95:
 1040 001c F6E7     		b	.L108
 1041              	.L110:
 308:main.c        **** 
 1042              		.loc 1 308 0
 1043              		@ sp needed
 1044              	.LVL96:
 1045 001e 38BD     		pop	{r3, r4, r5, pc}
 1046              		.cfi_endproc
 1047              	.LFE66:
 1048              		.size	delay_with_ble, .-delay_with_ble
 1049              		.section	.text.GPRS_SetON,"ax",%progbits
 1050              		.align	1
 1051              		.global	GPRS_SetON
 1052              		.code	16
 1053              		.thumb_func
 1054              		.type	GPRS_SetON, %function
 1055              	GPRS_SetON:
 1056              	.LFB74:
 430:main.c        **** 	uint16 count = 0;
 1057              		.loc 1 430 0
 1058              		.cfi_startproc
 1059              	.LVL97:
 1060 0000 10B5     		push	{r4, lr}
 1061              		.cfi_def_cfa_offset 8
 1062              		.cfi_offset 4, -8
 1063              		.cfi_offset 14, -4
 433:main.c        **** 	{	// 如果是关机状态 执行开机
 1064              		.loc 1 433 0
 1065 0002 FFF7FEFF 		bl	GPRS_STATE_Read
 1066              	.LVL98:
 1067 0006 041E     		sub	r4, r0, #0
 1068 0008 012C     		cmp	r4, #1
 1069 000a 15D1     		bne	.L111
 1070              	.LBB16:
 1071              	.LBB17:
 435:main.c        **** 		GPRS_PWRKEY_Write(1);
 1072              		.loc 1 435 0
 1073 000c 1E20     		mov	r0, #30
ARM GAS  C:\Users\Administrator\AppData\Local\Temp\ccNLOfxN.s 			page 45


 1074 000e FFF7FEFF 		bl	CyDelay
 1075              	.LVL99:
 436:main.c        **** 		while ((GPRS_STATE_Read() == 1) && (count <= 30))
 1076              		.loc 1 436 0
 1077 0012 201C     		mov	r0, r4
 1078 0014 FFF7FEFF 		bl	GPRS_PWRKEY_Write
 1079              	.LVL100:
 1080 0018 1F34     		add	r4, r4, #31
 1081              	.L113:
 1082              	.LVL101:
 437:main.c        **** 		{
 1083              		.loc 1 437 0
 1084 001a FFF7FEFF 		bl	GPRS_STATE_Read
 1085              	.LVL102:
 1086 001e 0128     		cmp	r0, #1
 1087 0020 07D1     		bne	.L114
 1088 0022 013C     		sub	r4, r4, #1
 1089              	.LVL103:
 1090 0024 A4B2     		uxth	r4, r4
 1091 0026 002C     		cmp	r4, #0
 1092 0028 03D0     		beq	.L114
 439:main.c        **** 			count++;
 1093              		.loc 1 439 0
 1094 002a 6420     		mov	r0, #100
 1095 002c FFF7FEFF 		bl	delay_with_ble
 1096              	.LVL104:
 1097 0030 F3E7     		b	.L113
 1098              	.LVL105:
 1099              	.L114:
 442:main.c        **** 	}
 1100              		.loc 1 442 0
 1101 0032 0020     		mov	r0, #0
 1102 0034 FFF7FEFF 		bl	GPRS_PWRKEY_Write
 1103              	.LVL106:
 1104              	.L111:
 1105              	.LBE17:
 1106              	.LBE16:
 444:main.c        **** 
 1107              		.loc 1 444 0
 1108              		@ sp needed
 1109 0038 10BD     		pop	{r4, pc}
 1110              		.cfi_endproc
 1111              	.LFE74:
 1112              		.size	GPRS_SetON, .-GPRS_SetON
 1113              		.section	.text.GPRSPowerOn,"ax",%progbits
 1114              		.align	1
 1115              		.global	GPRSPowerOn
 1116              		.code	16
 1117              		.thumb_func
 1118              		.type	GPRSPowerOn, %function
 1119              	GPRSPowerOn:
 1120              	.LFB75:
 455:main.c        **** 	uint8 count = 0;
 1121              		.loc 1 455 0
 1122              		.cfi_startproc
 1123              	.LVL107:
 1124 0000 10B5     		push	{r4, lr}
ARM GAS  C:\Users\Administrator\AppData\Local\Temp\ccNLOfxN.s 			page 46


 1125              		.cfi_def_cfa_offset 8
 1126              		.cfi_offset 4, -8
 1127              		.cfi_offset 14, -4
 458:main.c        **** 	{	// 如果是关机状态
 1128              		.loc 1 458 0
 1129 0002 FFF7FEFF 		bl	GPRS_STATE_Read
 1130              	.LVL108:
 1131 0006 041E     		sub	r4, r0, #0
 1132 0008 012C     		cmp	r4, #1
 1133 000a 3ED1     		bne	.L116
 460:main.c        **** 		GPRS_PWRKEY_Write(1);
 1134              		.loc 1 460 0
 1135 000c 1E20     		mov	r0, #30
 1136 000e FFF7FEFF 		bl	CyDelay
 1137              	.LVL109:
 461:main.c        **** 		while ((GPRS_STATE_Read() == 1) && (count <= 30))
 1138              		.loc 1 461 0
 1139 0012 201C     		mov	r0, r4
 1140 0014 FFF7FEFF 		bl	GPRS_PWRKEY_Write
 1141              	.LVL110:
 462:main.c        **** 		{
 1142              		.loc 1 462 0
 1143 0018 1F34     		add	r4, r4, #31
 1144              	.LVL111:
 1145              	.L118:
 1146 001a FFF7FEFF 		bl	GPRS_STATE_Read
 1147              	.LVL112:
 1148 001e 0128     		cmp	r0, #1
 1149 0020 07D1     		bne	.L119
 1150 0022 013C     		sub	r4, r4, #1
 1151              	.LVL113:
 1152 0024 E4B2     		uxtb	r4, r4
 462:main.c        **** 		{
 1153              		.loc 1 462 0 is_stmt 0 discriminator 1
 1154 0026 002C     		cmp	r4, #0
 1155 0028 03D0     		beq	.L119
 464:main.c        **** 			count++;
 1156              		.loc 1 464 0 is_stmt 1
 1157 002a 6420     		mov	r0, #100
 1158 002c FFF7FEFF 		bl	delay_with_ble
 1159              	.LVL114:
 1160 0030 F3E7     		b	.L118
 1161              	.LVL115:
 1162              	.L119:
 467:main.c        **** 		GPRS_WaitInitFinish();
 1163              		.loc 1 467 0
 1164 0032 0020     		mov	r0, #0
 1165 0034 FFF7FEFF 		bl	GPRS_PWRKEY_Write
 1166              	.LVL116:
 468:main.c        **** 		delay_with_ble(3000);						// 等待3s
 1167              		.loc 1 468 0
 1168 0038 FFF7FEFF 		bl	GPRS_WaitInitFinish
 1169              	.LVL117:
 469:main.c        **** 		
 1170              		.loc 1 469 0
 1171 003c 1348     		ldr	r0, .L125
 1172 003e FFF7FEFF 		bl	delay_with_ble
ARM GAS  C:\Users\Administrator\AppData\Local\Temp\ccNLOfxN.s 			page 47


 1173              	.LVL118:
 471:main.c        **** 		delay_with_ble(4000);						// 等待网络注册 连接
 1174              		.loc 1 471 0
 1175 0042 FFF7FEFF 		bl	GPRS_QuerySimCard
 1176              	.LVL119:
 472:main.c        **** 		wait_timeout = 30000;						// 等待超时 30s
 1177              		.loc 1 472 0
 1178 0046 FA20     		mov	r0, #250
 1179 0048 0001     		lsl	r0, r0, #4
 1180 004a FFF7FEFF 		bl	delay_with_ble
 1181              	.LVL120:
 473:main.c        **** 		while(wait_timeout > 0)
 1182              		.loc 1 473 0
 1183 004e 104B     		ldr	r3, .L125+4
 1184 0050 104A     		ldr	r2, .L125+8
 1185 0052 1C1C     		mov	r4, r3
 1186 0054 1A60     		str	r2, [r3]
 1187              	.L121:
 474:main.c        **** 		{
 1188              		.loc 1 474 0
 1189 0056 2368     		ldr	r3, [r4]
 1190 0058 002B     		cmp	r3, #0
 1191 005a 03D0     		beq	.L124
 476:main.c        **** 			{
 1192              		.loc 1 476 0
 1193 005c FFF7FEFF 		bl	GPRS_QueryCREG
 1194              	.LVL121:
 1195 0060 0128     		cmp	r0, #1
 1196 0062 0ED1     		bne	.L122
 1197              	.L124:
 485:main.c        **** 		if(0 == GPRS_QueryRssi())					// 查询信号情况 AT+CSQ 不查没关系，除非是排除0 
 1198              		.loc 1 485 0
 1199 0064 FA20     		mov	r0, #250
 1200 0066 4000     		lsl	r0, r0, #1
 1201 0068 FFF7FEFF 		bl	delay_with_ble
 1202              	.LVL122:
 486:main.c        **** 		{
 1203              		.loc 1 486 0
 1204 006c FFF7FEFF 		bl	GPRS_QueryRssi
 1205              	.LVL123:
 489:main.c        **** 		delay_with_ble(500);	
 1206              		.loc 1 489 0
 1207 0070 FFF7FEFF 		bl	GPRS_SetAPN
 1208              	.LVL124:
 490:main.c        **** 		GPRS_SetActive();							// 激活PDP上下文 AT+CGACT=1,1  (6311-R开启)
 1209              		.loc 1 490 0
 1210 0074 FA20     		mov	r0, #250
 1211 0076 4000     		lsl	r0, r0, #1
 1212 0078 FFF7FEFF 		bl	delay_with_ble
 1213              	.LVL125:
 491:main.c        **** 	}
 1214              		.loc 1 491 0
 1215 007c FFF7FEFF 		bl	GPRS_SetActive
 1216              	.LVL126:
 1217 0080 03E0     		b	.L116
 1218              	.L122:
 482:main.c        **** 			}
ARM GAS  C:\Users\Administrator\AppData\Local\Temp\ccNLOfxN.s 			page 48


 1219              		.loc 1 482 0
 1220 0082 0548     		ldr	r0, .L125+12
 1221 0084 FFF7FEFF 		bl	delay_with_ble
 1222              	.LVL127:
 1223 0088 E5E7     		b	.L121
 1224              	.L116:
 493:main.c        **** 
 1225              		.loc 1 493 0
 1226              		@ sp needed
 1227 008a 10BD     		pop	{r4, pc}
 1228              	.L126:
 1229              		.align	2
 1230              	.L125:
 1231 008c B80B0000 		.word	3000
 1232 0090 00000000 		.word	wait_timeout
 1233 0094 30750000 		.word	30000
 1234 0098 DC050000 		.word	1500
 1235              		.cfi_endproc
 1236              	.LFE75:
 1237              		.size	GPRSPowerOn, .-GPRSPowerOn
 1238              		.section	.text.GPRSPowerOn_0321,"ax",%progbits
 1239              		.align	1
 1240              		.global	GPRSPowerOn_0321
 1241              		.code	16
 1242              		.thumb_func
 1243              		.type	GPRSPowerOn_0321, %function
 1244              	GPRSPowerOn_0321:
 1245              	.LFB76:
 504:main.c        **** 	GPRS_SetON();
 1246              		.loc 1 504 0
 1247              		.cfi_startproc
 1248 0000 10B5     		push	{r4, lr}
 1249              		.cfi_def_cfa_offset 8
 1250              		.cfi_offset 4, -8
 1251              		.cfi_offset 14, -4
 505:main.c        **** 	
 1252              		.loc 1 505 0
 1253 0002 FFF7FEFF 		bl	GPRS_SetON
 1254              	.LVL128:
 507:main.c        ****     UART_433_Start();												// 串口初始化						//
 1255              		.loc 1 507 0
 1256 0006 1748     		ldr	r0, .L133
 1257 0008 FFF7FEFF 		bl	cmd433_INT_ISR_StartEx
 1258              	.LVL129:
 508:main.c        **** 	
 1259              		.loc 1 508 0
 1260 000c FFF7FEFF 		bl	UART_433_Start
 1261              	.LVL130:
 510:main.c        **** 	//delay_with_ble(3000);						// 等待3s
 1262              		.loc 1 510 0
 1263 0010 FFF7FEFF 		bl	GPRS_WaitInitFinish
 1264              	.LVL131:
 512:main.c        **** 	GPRS_QuerySimCard();
 1265              		.loc 1 512 0
 1266 0014 FA20     		mov	r0, #250
 1267 0016 C000     		lsl	r0, r0, #3
 1268 0018 FFF7FEFF 		bl	delay_with_ble
ARM GAS  C:\Users\Administrator\AppData\Local\Temp\ccNLOfxN.s 			page 49


 1269              	.LVL132:
 513:main.c        **** 	delay_with_ble(4000);						// 等待网络注册 连接
 1270              		.loc 1 513 0
 1271 001c FFF7FEFF 		bl	GPRS_QuerySimCard
 1272              	.LVL133:
 514:main.c        **** 	wait_timeout = 30000;						// 等待超时 30s
 1273              		.loc 1 514 0
 1274 0020 FA20     		mov	r0, #250
 1275 0022 0001     		lsl	r0, r0, #4
 1276 0024 FFF7FEFF 		bl	delay_with_ble
 1277              	.LVL134:
 515:main.c        **** 	while(wait_timeout > 0)
 1278              		.loc 1 515 0
 1279 0028 0F4B     		ldr	r3, .L133+4
 1280 002a 104A     		ldr	r2, .L133+8
 1281 002c 1C1C     		mov	r4, r3
 1282 002e 1A60     		str	r2, [r3]
 1283              	.L128:
 516:main.c        **** 	{
 1284              		.loc 1 516 0
 1285 0030 2368     		ldr	r3, [r4]
 1286 0032 002B     		cmp	r3, #0
 1287 0034 03D0     		beq	.L131
 518:main.c        **** 		{
 1288              		.loc 1 518 0
 1289 0036 FFF7FEFF 		bl	GPRS_QueryCREG
 1290              	.LVL135:
 1291 003a 0128     		cmp	r0, #1
 1292 003c 0ED1     		bne	.L129
 1293              	.L131:
 527:main.c        **** 	if(0 == GPRS_QueryRssi())					// 查询信号情况 AT+CSQ 不查没关系，除非是排除0 
 1294              		.loc 1 527 0
 1295 003e FA20     		mov	r0, #250
 1296 0040 4000     		lsl	r0, r0, #1
 1297 0042 FFF7FEFF 		bl	delay_with_ble
 1298              	.LVL136:
 528:main.c        **** 	{
 1299              		.loc 1 528 0
 1300 0046 FFF7FEFF 		bl	GPRS_QueryRssi
 1301              	.LVL137:
 531:main.c        **** 	delay_with_ble(500);	
 1302              		.loc 1 531 0
 1303 004a FFF7FEFF 		bl	GPRS_SetAPN
 1304              	.LVL138:
 532:main.c        **** 	GPRS_SetActive();							// 激活PDP上下文 AT+CGACT=1,1  (6311-R开启)
 1305              		.loc 1 532 0
 1306 004e FA20     		mov	r0, #250
 1307 0050 4000     		lsl	r0, r0, #1
 1308 0052 FFF7FEFF 		bl	delay_with_ble
 1309              	.LVL139:
 535:main.c        **** 
 1310              		.loc 1 535 0
 1311              		@ sp needed
 533:main.c        **** 
 1312              		.loc 1 533 0
 1313 0056 FFF7FEFF 		bl	GPRS_SetActive
 1314              	.LVL140:
ARM GAS  C:\Users\Administrator\AppData\Local\Temp\ccNLOfxN.s 			page 50


 535:main.c        **** 
 1315              		.loc 1 535 0
 1316 005a 10BD     		pop	{r4, pc}
 1317              	.L129:
 524:main.c        **** 		}
 1318              		.loc 1 524 0
 1319 005c 0448     		ldr	r0, .L133+12
 1320 005e FFF7FEFF 		bl	delay_with_ble
 1321              	.LVL141:
 1322 0062 E5E7     		b	.L128
 1323              	.L134:
 1324              		.align	2
 1325              	.L133:
 1326 0064 00000000 		.word	RX_IRQ_INTERRUPT
 1327 0068 00000000 		.word	wait_timeout
 1328 006c 30750000 		.word	30000
 1329 0070 DC050000 		.word	1500
 1330              		.cfi_endproc
 1331              	.LFE76:
 1332              		.size	GPRSPowerOn_0321, .-GPRSPowerOn_0321
 1333              		.section	.text.GPRSPowerDown,"ax",%progbits
 1334              		.align	1
 1335              		.global	GPRSPowerDown
 1336              		.code	16
 1337              		.thumb_func
 1338              		.type	GPRSPowerDown, %function
 1339              	GPRSPowerDown:
 1340              	.LFB77:
 547:main.c        **** 	uint8 count = 0;
 1341              		.loc 1 547 0
 1342              		.cfi_startproc
 1343              	.LVL142:
 1344 0000 10B5     		push	{r4, lr}
 1345              		.cfi_def_cfa_offset 8
 1346              		.cfi_offset 4, -8
 1347              		.cfi_offset 14, -4
 550:main.c        **** 	{
 1348              		.loc 1 550 0
 1349 0002 FFF7FEFF 		bl	GPRS_STATE_Read
 1350              	.LVL143:
 1351 0006 0028     		cmp	r0, #0
 1352 0008 12D1     		bne	.L136
 552:main.c        **** 		while ((GPRS_STATE_Read() == 0) && (count <= 30))
 1353              		.loc 1 552 0
 1354 000a 0130     		add	r0, r0, #1
 1355 000c FFF7FEFF 		bl	GPRS_PWRKEY_Write
 1356              	.LVL144:
 553:main.c        **** 		{
 1357              		.loc 1 553 0
 1358 0010 2024     		mov	r4, #32
 1359              	.LVL145:
 1360              	.L137:
 1361 0012 FFF7FEFF 		bl	GPRS_STATE_Read
 1362              	.LVL146:
 1363 0016 0028     		cmp	r0, #0
 1364 0018 07D1     		bne	.L138
 1365 001a 013C     		sub	r4, r4, #1
ARM GAS  C:\Users\Administrator\AppData\Local\Temp\ccNLOfxN.s 			page 51


 1366              	.LVL147:
 1367 001c E4B2     		uxtb	r4, r4
 553:main.c        **** 		{
 1368              		.loc 1 553 0 is_stmt 0 discriminator 1
 1369 001e 002C     		cmp	r4, #0
 1370 0020 03D0     		beq	.L138
 555:main.c        **** 			count++;
 1371              		.loc 1 555 0 is_stmt 1
 1372 0022 6420     		mov	r0, #100
 1373 0024 FFF7FEFF 		bl	delay_with_ble
 1374              	.LVL148:
 1375 0028 F3E7     		b	.L137
 1376              	.LVL149:
 1377              	.L138:
 558:main.c        **** 	}
 1378              		.loc 1 558 0
 1379 002a 0020     		mov	r0, #0
 1380 002c FFF7FEFF 		bl	GPRS_PWRKEY_Write
 1381              	.LVL150:
 1382              	.L136:
 560:main.c        **** }
 1383              		.loc 1 560 0
 1384 0030 0148     		ldr	r0, .L140
 1385 0032 FFF7FEFF 		bl	delay_with_ble
 1386              	.LVL151:
 561:main.c        **** 
 1387              		.loc 1 561 0
 1388              		@ sp needed
 1389 0036 10BD     		pop	{r4, pc}
 1390              	.L141:
 1391              		.align	2
 1392              	.L140:
 1393 0038 10270000 		.word	10000
 1394              		.cfi_endproc
 1395              	.LFE77:
 1396              		.size	GPRSPowerDown, .-GPRSPowerDown
 1397              		.section	.text.GPRS_Tick,"ax",%progbits
 1398              		.align	1
 1399              		.global	GPRS_Tick
 1400              		.code	16
 1401              		.thumb_func
 1402              		.type	GPRS_Tick, %function
 1403              	GPRS_Tick:
 1404              	.LFB86:
 733:main.c        **** 	uint8 ret;
 1405              		.loc 1 733 0
 1406              		.cfi_startproc
 1407              	.LVL152:
 1408 0000 F7B5     		push	{r0, r1, r2, r4, r5, r6, r7, lr}
 1409              		.cfi_def_cfa_offset 32
 1410              		.cfi_offset 0, -32
 1411              		.cfi_offset 1, -28
 1412              		.cfi_offset 2, -24
 1413              		.cfi_offset 4, -20
 1414              		.cfi_offset 5, -16
 1415              		.cfi_offset 6, -12
 1416              		.cfi_offset 7, -8
ARM GAS  C:\Users\Administrator\AppData\Local\Temp\ccNLOfxN.s 			page 52


 1417              		.cfi_offset 14, -4
 737:main.c        **** 	{
 1418              		.loc 1 737 0
 1419 0002 B64B     		ldr	r3, .L179
 1420 0004 1B78     		ldrb	r3, [r3]
 1421 0006 012B     		cmp	r3, #1
 1422 0008 03D0     		beq	.L143
 737:main.c        **** 	{
 1423              		.loc 1 737 0 is_stmt 0 discriminator 1
 1424 000a B54B     		ldr	r3, .L179+4
 1425 000c 1B78     		ldrb	r3, [r3]
 1426 000e 012B     		cmp	r3, #1
 1427 0010 01D1     		bne	.L144
 1428              	.L143:
 739:main.c        **** 	}
 1429              		.loc 1 739 0 is_stmt 1
 1430 0012 FFF7FEFF 		bl	Protocol_CmdParse
 1431              	.LVL153:
 1432              	.L144:
 742:main.c        **** 	{
 1433              		.loc 1 742 0
 1434 0016 B34B     		ldr	r3, .L179+8
 1435 0018 B34D     		ldr	r5, .L179+12
 1436 001a 1A78     		ldrb	r2, [r3]
 1437 001c 012A     		cmp	r2, #1
 1438 001e 03D1     		bne	.L145
 744:main.c        **** 		gprs_state = NEED_UPDATE;									// 开始断开当前前置服务器连接		//
 1439              		.loc 1 744 0
 1440 0020 0022     		mov	r2, #0
 1441 0022 1A70     		strb	r2, [r3]
 745:main.c        **** 	}
 1442              		.loc 1 745 0
 1443 0024 0723     		mov	r3, #7
 1444 0026 2B70     		strb	r3, [r5]
 1445              	.L145:
 749:main.c        **** 	{	
 1446              		.loc 1 749 0
 1447 0028 FFF7FEFF 		bl	GPRS_STATE_Read
 1448              	.LVL154:
 1449 002c 0128     		cmp	r0, #1
 1450 002e 03D1     		bne	.L146
 760:main.c        ****         Reboot_Check();
 1451              		.loc 1 760 0
 1452 0030 AE4B     		ldr	r3, .L179+16
 1453 0032 1870     		strb	r0, [r3]
 761:main.c        **** 		
 1454              		.loc 1 761 0
 1455 0034 FFF7FEFF 		bl	Reboot_Check
 1456              	.LVL155:
 1457              	.L146:
 766:main.c        **** 	if (gprs_state == INIT)
 1458              		.loc 1 766 0
 1459 0038 FFF7FEFF 		bl	RTC_GetUnixTime
 1460              	.LVL156:
 1461 003c AC4E     		ldr	r6, .L179+20
 767:main.c        **** 	{
 1462              		.loc 1 767 0
ARM GAS  C:\Users\Administrator\AppData\Local\Temp\ccNLOfxN.s 			page 53


 1463 003e 2C78     		ldrb	r4, [r5]
 766:main.c        **** 	if (gprs_state == INIT)
 1464              		.loc 1 766 0
 1465 0040 3060     		str	r0, [r6]
 1466 0042 371C     		mov	r7, r6
 767:main.c        **** 	{
 1467              		.loc 1 767 0
 1468 0044 002C     		cmp	r4, #0
 1469 0046 20D1     		bne	.L147
 769:main.c        **** 		Led_SetState(LED_State);
 1470              		.loc 1 769 0
 1471 0048 0123     		mov	r3, #1
 1472 004a AA4A     		ldr	r2, .L179+24
 1473 004c 5372     		strb	r3, [r2, #9]
 1474              	.LVL157:
 1475              	.LBB38:
 1476              	.LBB39:
 383:main.c        **** 	}
 1477              		.loc 1 383 0
 1478 004e FFF7FEFF 		bl	Led_RedON
 1479              	.LVL158:
 1480              	.LBE39:
 1481              	.LBE38:
 771:main.c        **** 		{
 1482              		.loc 1 771 0
 1483 0052 A94F     		ldr	r7, .L179+28
 1484 0054 3268     		ldr	r2, [r6]
 1485 0056 3B68     		ldr	r3, [r7]
 1486 0058 9A42     		cmp	r2, r3
 1487 005a 00D8     		bhi	.LCB1291
 1488 005c 3DE1     		b	.L142	@long jump
 1489              	.LCB1291:
 773:main.c        **** 			{
 1490              		.loc 1 773 0
 1491 005e A54B     		ldr	r3, .L179+24
 1492 0060 9B7A     		ldrb	r3, [r3, #10]
 1493 0062 092B     		cmp	r3, #9
 1494 0064 01D9     		bls	.L150
 1495              	.LVL159:
 1496              	.L153:
 775:main.c        **** 			}
 1497              		.loc 1 775 0
 1498 0066 0623     		mov	r3, #6
 1499 0068 4BE0     		b	.L175
 1500              	.LVL160:
 1501              	.L150:
 779:main.c        **** 				gprs_operation_ErrCount++;
 1502              		.loc 1 779 0
 1503 006a 0532     		add	r2, r2, #5
 1504 006c 3A60     		str	r2, [r7]
 780:main.c        **** 				ret = GPRS_ConnectCenterServer();
 1505              		.loc 1 780 0
 1506 006e A14A     		ldr	r2, .L179+24
 1507 0070 0133     		add	r3, r3, #1
 1508 0072 9372     		strb	r3, [r2, #10]
 781:main.c        **** 				if (ret == TRUE)
 1509              		.loc 1 781 0
ARM GAS  C:\Users\Administrator\AppData\Local\Temp\ccNLOfxN.s 			page 54


 1510 0074 FFF7FEFF 		bl	GPRS_ConnectCenterServer
 1511              	.LVL161:
 782:main.c        **** 				{
 1512              		.loc 1 782 0
 1513 0078 0128     		cmp	r0, #1
 1514 007a 00D0     		beq	.LCB1313
 1515 007c 2DE1     		b	.L142	@long jump
 1516              	.LCB1313:
 785:main.c        **** 					gprs_operation_ErrCount = 0;
 1517              		.loc 1 785 0
 1518 007e 3368     		ldr	r3, [r6]
 784:main.c        **** 					next_gprs_operation_time = cur_time;
 1519              		.loc 1 784 0
 1520 0080 2870     		strb	r0, [r5]
 785:main.c        **** 					gprs_operation_ErrCount = 0;
 1521              		.loc 1 785 0
 1522 0082 3B60     		str	r3, [r7]
 786:main.c        **** 				}
 1523              		.loc 1 786 0
 1524 0084 9B4B     		ldr	r3, .L179+24
 1525 0086 9C72     		strb	r4, [r3, #10]
 1526 0088 27E1     		b	.L142
 1527              	.LVL162:
 1528              	.L147:
 791:main.c        **** 	{
 1529              		.loc 1 791 0
 1530 008a 012C     		cmp	r4, #1
 1531 008c 13D1     		bne	.L152
 793:main.c        **** 		Led_SetState(LED_State);
 1532              		.loc 1 793 0
 1533 008e 994F     		ldr	r7, .L179+24
 1534 0090 7C72     		strb	r4, [r7, #9]
 1535              	.LVL163:
 1536              	.LBB40:
 1537              	.LBB41:
 383:main.c        **** 	}
 1538              		.loc 1 383 0
 1539 0092 FFF7FEFF 		bl	Led_RedON
 1540              	.LVL164:
 1541              	.LBE41:
 1542              	.LBE40:
 795:main.c        **** 		{
 1543              		.loc 1 795 0
 1544 0096 9849     		ldr	r1, .L179+28
 1545 0098 3268     		ldr	r2, [r6]
 1546 009a 0B68     		ldr	r3, [r1]
 1547 009c 9A42     		cmp	r2, r3
 1548 009e 00D8     		bhi	.LCB1342
 1549 00a0 1BE1     		b	.L142	@long jump
 1550              	.LCB1342:
 797:main.c        **** 			{
 1551              		.loc 1 797 0
 1552 00a2 BB7A     		ldrb	r3, [r7, #10]
 1553 00a4 0A2B     		cmp	r3, #10
 1554 00a6 DED8     		bhi	.L153
 803:main.c        **** 				gprs_operation_ErrCount++;
 1555              		.loc 1 803 0
ARM GAS  C:\Users\Administrator\AppData\Local\Temp\ccNLOfxN.s 			page 55


 1556 00a8 1432     		add	r2, r2, #20
 804:main.c        **** 				send_get_pre_service_ip();
 1557              		.loc 1 804 0
 1558 00aa 0133     		add	r3, r3, #1
 803:main.c        **** 				gprs_operation_ErrCount++;
 1559              		.loc 1 803 0
 1560 00ac 0A60     		str	r2, [r1]
 804:main.c        **** 				send_get_pre_service_ip();
 1561              		.loc 1 804 0
 1562 00ae BB72     		strb	r3, [r7, #10]
 805:main.c        **** 			}
 1563              		.loc 1 805 0
 1564 00b0 FFF7FEFF 		bl	send_get_pre_service_ip
 1565              	.LVL165:
 1566 00b4 11E1     		b	.L142
 1567              	.LVL166:
 1568              	.L152:
 809:main.c        **** 	{
 1569              		.loc 1 809 0
 1570 00b6 022C     		cmp	r4, #2
 1571 00b8 18D1     		bne	.L154
 811:main.c        **** 		Led_SetState(LED_State);
 1572              		.loc 1 811 0
 1573 00ba 0123     		mov	r3, #1
 1574 00bc 8D4C     		ldr	r4, .L179+24
 1575 00be 6372     		strb	r3, [r4, #9]
 1576              	.LVL167:
 1577              	.LBB42:
 1578              	.LBB43:
 383:main.c        **** 	}
 1579              		.loc 1 383 0
 1580 00c0 FFF7FEFF 		bl	Led_RedON
 1581              	.LVL168:
 1582              	.LBE43:
 1583              	.LBE42:
 813:main.c        **** 		{
 1584              		.loc 1 813 0
 1585 00c4 8C4F     		ldr	r7, .L179+28
 1586 00c6 3268     		ldr	r2, [r6]
 1587 00c8 3B68     		ldr	r3, [r7]
 1588 00ca 9A42     		cmp	r2, r3
 1589 00cc 00D8     		bhi	.LCB1374
 1590 00ce 04E1     		b	.L142	@long jump
 1591              	.LCB1374:
 815:main.c        **** 			{
 1592              		.loc 1 815 0
 1593 00d0 A37A     		ldrb	r3, [r4, #10]
 1594 00d2 0A2B     		cmp	r3, #10
 1595 00d4 C7D8     		bhi	.L153
 822:main.c        **** 				ret =  GPRS_ClosedConnect();
 1596              		.loc 1 822 0
 1597 00d6 0133     		add	r3, r3, #1
 821:main.c        **** 				gprs_operation_ErrCount++;
 1598              		.loc 1 821 0
 1599 00d8 0532     		add	r2, r2, #5
 822:main.c        **** 				ret =  GPRS_ClosedConnect();
 1600              		.loc 1 822 0
ARM GAS  C:\Users\Administrator\AppData\Local\Temp\ccNLOfxN.s 			page 56


 1601 00da A372     		strb	r3, [r4, #10]
 821:main.c        **** 				gprs_operation_ErrCount++;
 1602              		.loc 1 821 0
 1603 00dc 3A60     		str	r2, [r7]
 823:main.c        **** 				if (ret == TRUE)
 1604              		.loc 1 823 0
 1605 00de FFF7FEFF 		bl	GPRS_ClosedConnect
 1606              	.LVL169:
 826:main.c        **** 					next_gprs_operation_time = cur_time;
 1607              		.loc 1 826 0
 1608 00e2 0323     		mov	r3, #3
 824:main.c        **** 				{
 1609              		.loc 1 824 0
 1610 00e4 0128     		cmp	r0, #1
 1611 00e6 00D0     		beq	.LCB1387
 1612 00e8 F7E0     		b	.L142	@long jump
 1613              	.LCB1387:
 1614 00ea 1CE0     		b	.L176
 1615              	.LVL170:
 1616              	.L154:
 833:main.c        **** 	{
 1617              		.loc 1 833 0
 1618 00ec 032C     		cmp	r4, #3
 1619 00ee 20D1     		bne	.L155
 835:main.c        **** 		Led_SetState(LED_State);
 1620              		.loc 1 835 0
 1621 00f0 0123     		mov	r3, #1
 1622 00f2 804C     		ldr	r4, .L179+24
 1623 00f4 6372     		strb	r3, [r4, #9]
 1624              	.LVL171:
 1625              	.LBB44:
 1626              	.LBB45:
 383:main.c        **** 	}
 1627              		.loc 1 383 0
 1628 00f6 FFF7FEFF 		bl	Led_RedON
 1629              	.LVL172:
 1630              	.LBE45:
 1631              	.LBE44:
 837:main.c        **** 		{
 1632              		.loc 1 837 0
 1633 00fa A37A     		ldrb	r3, [r4, #10]
 1634 00fc 032B     		cmp	r3, #3
 1635 00fe 02D9     		bls	.L156
 1636              	.LVL173:
 1637              	.L158:
 839:main.c        **** 		}
 1638              		.loc 1 839 0
 1639 0100 0023     		mov	r3, #0
 1640              	.L175:
 1641 0102 2B70     		strb	r3, [r5]
 1642 0104 E9E0     		b	.L142
 1643              	.LVL174:
 1644              	.L156:
 841:main.c        **** 		{
 1645              		.loc 1 841 0
 1646 0106 7C4F     		ldr	r7, .L179+28
 1647 0108 3268     		ldr	r2, [r6]
ARM GAS  C:\Users\Administrator\AppData\Local\Temp\ccNLOfxN.s 			page 57


 1648 010a 3968     		ldr	r1, [r7]
 1649 010c 8A42     		cmp	r2, r1
 1650 010e 00D8     		bhi	.LCB1425
 1651 0110 E3E0     		b	.L142	@long jump
 1652              	.LCB1425:
 843:main.c        **** 			gprs_operation_ErrCount++;
 1653              		.loc 1 843 0
 1654 0112 0532     		add	r2, r2, #5
 844:main.c        **** 			ret = GPRS_ConnectPreServer();
 1655              		.loc 1 844 0
 1656 0114 0133     		add	r3, r3, #1
 843:main.c        **** 			gprs_operation_ErrCount++;
 1657              		.loc 1 843 0
 1658 0116 3A60     		str	r2, [r7]
 844:main.c        **** 			ret = GPRS_ConnectPreServer();
 1659              		.loc 1 844 0
 1660 0118 A372     		strb	r3, [r4, #10]
 845:main.c        **** 			if (ret == TRUE)
 1661              		.loc 1 845 0
 1662 011a FFF7FEFF 		bl	GPRS_ConnectPreServer
 1663              	.LVL175:
 846:main.c        **** 			{
 1664              		.loc 1 846 0
 1665 011e 0128     		cmp	r0, #1
 1666 0120 00D0     		beq	.LCB1434
 1667 0122 DAE0     		b	.L142	@long jump
 1668              	.LCB1434:
 848:main.c        **** 				next_gprs_operation_time = cur_time;
 1669              		.loc 1 848 0
 1670 0124 0423     		mov	r3, #4
 1671              	.LVL176:
 1672              	.L176:
 1673 0126 2B70     		strb	r3, [r5]
 849:main.c        **** 				gprs_operation_ErrCount = 0;
 1674              		.loc 1 849 0
 1675 0128 3368     		ldr	r3, [r6]
 1676 012a 3B60     		str	r3, [r7]
 1677              	.L177:
 850:main.c        **** 			}
 1678              		.loc 1 850 0
 1679 012c 0023     		mov	r3, #0
 1680 012e A372     		strb	r3, [r4, #10]
 1681 0130 D3E0     		b	.L142
 1682              	.LVL177:
 1683              	.L155:
 854:main.c        **** 	{
 1684              		.loc 1 854 0
 1685 0132 042C     		cmp	r4, #4
 1686 0134 14D1     		bne	.L157
 856:main.c        **** 		Led_SetState(LED_State);
 1687              		.loc 1 856 0
 1688 0136 0123     		mov	r3, #1
 1689 0138 6E4C     		ldr	r4, .L179+24
 1690 013a 6372     		strb	r3, [r4, #9]
 1691              	.LVL178:
 1692              	.LBB46:
 1693              	.LBB47:
ARM GAS  C:\Users\Administrator\AppData\Local\Temp\ccNLOfxN.s 			page 58


 383:main.c        **** 	}
 1694              		.loc 1 383 0
 1695 013c FFF7FEFF 		bl	Led_RedON
 1696              	.LVL179:
 1697              	.LBE47:
 1698              	.LBE46:
 858:main.c        **** 		{
 1699              		.loc 1 858 0
 1700 0140 A37A     		ldrb	r3, [r4, #10]
 1701 0142 032B     		cmp	r3, #3
 1702 0144 DCD8     		bhi	.L158
 862:main.c        **** 		{
 1703              		.loc 1 862 0
 1704 0146 6C49     		ldr	r1, .L179+28
 1705 0148 3268     		ldr	r2, [r6]
 1706 014a 0868     		ldr	r0, [r1]
 1707 014c 8242     		cmp	r2, r0
 1708 014e 00D8     		bhi	.LCB1474
 1709 0150 C3E0     		b	.L142	@long jump
 1710              	.LCB1474:
 864:main.c        **** 			gprs_operation_ErrCount++;
 1711              		.loc 1 864 0
 1712 0152 1432     		add	r2, r2, #20
 865:main.c        ****             send_send_mac_and_get_blekey();
 1713              		.loc 1 865 0
 1714 0154 0133     		add	r3, r3, #1
 864:main.c        **** 			gprs_operation_ErrCount++;
 1715              		.loc 1 864 0
 1716 0156 0A60     		str	r2, [r1]
 865:main.c        ****             send_send_mac_and_get_blekey();
 1717              		.loc 1 865 0
 1718 0158 A372     		strb	r3, [r4, #10]
 866:main.c        ****             #if 0
 1719              		.loc 1 866 0
 1720 015a FFF7FEFF 		bl	send_send_mac_and_get_blekey
 1721              	.LVL180:
 1722 015e BCE0     		b	.L142
 1723              	.LVL181:
 1724              	.L157:
 903:main.c        **** 	{
 1725              		.loc 1 903 0
 1726 0160 052C     		cmp	r4, #5
 1727 0162 3AD1     		bne	.L159
 905:main.c        **** 		Led_SetState(LED_State);
 1728              		.loc 1 905 0
 1729 0164 0223     		mov	r3, #2
 1730 0166 634C     		ldr	r4, .L179+24
 1731 0168 6372     		strb	r3, [r4, #9]
 1732              	.LVL182:
 1733              	.LBB48:
 1734              	.LBB49:
 387:main.c        **** 	}
 1735              		.loc 1 387 0
 1736 016a FFF7FEFF 		bl	Led_GreenON
 1737              	.LVL183:
 1738              	.LBE49:
 1739              	.LBE48:
ARM GAS  C:\Users\Administrator\AppData\Local\Temp\ccNLOfxN.s 			page 59


 908:main.c        ****         {
 1740              		.loc 1 908 0
 1741 016e 634A     		ldr	r2, .L179+32
 1742 0170 1368     		ldr	r3, [r2]
 1743 0172 0192     		str	r2, [sp, #4]
 1744 0174 3268     		ldr	r2, [r6]
 1745 0176 3C33     		add	r3, r3, #60
 1746 0178 9A42     		cmp	r2, r3
 1747 017a 2BD9     		bls	.L161
 910:main.c        ****             {               		                   
 1748              		.loc 1 910 0
 1749 017c E37A     		ldrb	r3, [r4, #11]
 1750 017e 604E     		ldr	r6, .L179+36
 1751 0180 002B     		cmp	r3, #0
 1752 0182 14D0     		beq	.L163
 912:main.c        ****                 send_heartbeat(EnterGuide_State);
 1753              		.loc 1 912 0
 1754 0184 0223     		mov	r3, #2
 913:main.c        ****                 heartbeat_SendCount++;
 1755              		.loc 1 913 0
 1756 0186 181C     		mov	r0, r3
 912:main.c        ****                 send_heartbeat(EnterGuide_State);
 1757              		.loc 1 912 0
 1758 0188 2372     		strb	r3, [r4, #8]
 913:main.c        ****                 heartbeat_SendCount++;
 1759              		.loc 1 913 0
 1760 018a FFF7FEFF 		bl	send_heartbeat
 1761              	.LVL184:
 914:main.c        ****                 cur_time = (uint32)RTC_GetUnixTime();
 1762              		.loc 1 914 0
 1763 018e E37A     		ldrb	r3, [r4, #11]
 1764 0190 0133     		add	r3, r3, #1
 1765 0192 E372     		strb	r3, [r4, #11]
 915:main.c        ****                 heartbeat_lasttime = cur_time;
 1766              		.loc 1 915 0
 1767 0194 FFF7FEFF 		bl	RTC_GetUnixTime
 1768              	.LVL185:
 916:main.c        ****                 next_heartbeat_time = cur_time + 300;
 1769              		.loc 1 916 0
 1770 0198 019B     		ldr	r3, [sp, #4]
 915:main.c        ****                 heartbeat_lasttime = cur_time;
 1771              		.loc 1 915 0
 1772 019a 3860     		str	r0, [r7]
 916:main.c        ****                 next_heartbeat_time = cur_time + 300;
 1773              		.loc 1 916 0
 1774 019c 1860     		str	r0, [r3]
 917:main.c        ****                 if (heartbeat_SendCount > 3)
 1775              		.loc 1 917 0
 1776 019e 2D30     		add	r0, r0, #45
 918:main.c        ****     			{
 1777              		.loc 1 918 0
 1778 01a0 E37A     		ldrb	r3, [r4, #11]
 917:main.c        ****                 if (heartbeat_SendCount > 3)
 1779              		.loc 1 917 0
 1780 01a2 FF30     		add	r0, r0, #255
 1781 01a4 3060     		str	r0, [r6]
 918:main.c        ****     			{
ARM GAS  C:\Users\Administrator\AppData\Local\Temp\ccNLOfxN.s 			page 60


 1782              		.loc 1 918 0
 1783 01a6 032B     		cmp	r3, #3
 1784 01a8 01D9     		bls	.L163
 920:main.c        ****     			}
 1785              		.loc 1 920 0
 1786 01aa 0623     		mov	r3, #6
 1787 01ac 2B70     		strb	r3, [r5]
 1788              	.L163:
 924:main.c        ****     		{
 1789              		.loc 1 924 0
 1790 01ae 3B68     		ldr	r3, [r7]
 1791 01b0 3268     		ldr	r2, [r6]
 1792 01b2 9342     		cmp	r3, r2
 1793 01b4 0ED9     		bls	.L161
 926:main.c        ****                 send_heartbeat(EnterGuide_State);
 1794              		.loc 1 926 0
 1795 01b6 0220     		mov	r0, #2
 1796 01b8 2072     		strb	r0, [r4, #8]
 927:main.c        ****     			heartbeat_SendCount++;
 1797              		.loc 1 927 0
 1798 01ba FFF7FEFF 		bl	send_heartbeat
 1799              	.LVL186:
 928:main.c        ****     			cur_time = (uint32)RTC_GetUnixTime();
 1800              		.loc 1 928 0
 1801 01be E37A     		ldrb	r3, [r4, #11]
 1802 01c0 0133     		add	r3, r3, #1
 1803 01c2 E372     		strb	r3, [r4, #11]
 929:main.c        ****                 heartbeat_lasttime = cur_time;
 1804              		.loc 1 929 0
 1805 01c4 FFF7FEFF 		bl	RTC_GetUnixTime
 1806              	.LVL187:
 930:main.c        ****     			next_heartbeat_time = cur_time + 300;
 1807              		.loc 1 930 0
 1808 01c8 019B     		ldr	r3, [sp, #4]
 929:main.c        ****                 heartbeat_lasttime = cur_time;
 1809              		.loc 1 929 0
 1810 01ca 3860     		str	r0, [r7]
 930:main.c        ****     			next_heartbeat_time = cur_time + 300;
 1811              		.loc 1 930 0
 1812 01cc 1860     		str	r0, [r3]
 931:main.c        ****     		}
 1813              		.loc 1 931 0
 1814 01ce 2D30     		add	r0, r0, #45
 1815 01d0 FF30     		add	r0, r0, #255
 1816 01d2 3060     		str	r0, [r6]
 1817              	.L161:
 935:main.c        **** 	}
 1818              		.loc 1 935 0
 1819 01d4 FFF7FEFF 		bl	GPRS_CheckIfRecvClosed
 1820              	.LVL188:
 1821 01d8 7FE0     		b	.L142
 1822              	.LVL189:
 1823              	.L159:
 939:main.c        **** 	{
 1824              		.loc 1 939 0
 1825 01da 062C     		cmp	r4, #6
 1826 01dc 0FD1     		bne	.L166
ARM GAS  C:\Users\Administrator\AppData\Local\Temp\ccNLOfxN.s 			page 61


 941:main.c        **** 		Led_SetState(LED_State);
 1827              		.loc 1 941 0
 1828 01de 454B     		ldr	r3, .L179+24
 1829 01e0 053C     		sub	r4, r4, #5
 1830 01e2 5C72     		strb	r4, [r3, #9]
 1831              	.LVL190:
 1832              	.LBB50:
 1833              	.LBB51:
 383:main.c        **** 	}
 1834              		.loc 1 383 0
 1835 01e4 FFF7FEFF 		bl	Led_RedON
 1836              	.LVL191:
 1837              	.LBE51:
 1838              	.LBE50:
 943:main.c        ****         GPRSPowerDown();										    // 开 关机操作
 1839              		.loc 1 943 0
 1840 01e8 FFF7FEFF 		bl	GPRS_ClosedConnect
 1841              	.LVL192:
 944:main.c        ****        
 1842              		.loc 1 944 0
 1843 01ec FFF7FEFF 		bl	GPRSPowerDown
 1844              	.LVL193:
 967:main.c        ****         flag_reboot = 1;
 1845              		.loc 1 967 0
 1846 01f0 0023     		mov	r3, #0
 1847 01f2 2B70     		strb	r3, [r5]
 968:main.c        ****         Reboot_Check();
 1848              		.loc 1 968 0
 1849 01f4 3D4B     		ldr	r3, .L179+16
 1850 01f6 1C70     		strb	r4, [r3]
 969:main.c        **** 	}
 1851              		.loc 1 969 0
 1852 01f8 FFF7FEFF 		bl	Reboot_Check
 1853              	.LVL194:
 1854 01fc 6DE0     		b	.L142
 1855              	.LVL195:
 1856              	.L166:
 972:main.c        **** 	{
 1857              		.loc 1 972 0
 1858 01fe 072C     		cmp	r4, #7
 1859 0200 17D1     		bne	.L167
 974:main.c        **** 		Led_SetState(LED_State);
 1860              		.loc 1 974 0
 1861 0202 0123     		mov	r3, #1
 1862 0204 3B4C     		ldr	r4, .L179+24
 1863 0206 6372     		strb	r3, [r4, #9]
 1864              	.LVL196:
 1865              	.LBB52:
 1866              	.LBB53:
 383:main.c        **** 	}
 1867              		.loc 1 383 0
 1868 0208 FFF7FEFF 		bl	Led_RedON
 1869              	.LVL197:
 1870              	.LBE53:
 1871              	.LBE52:
 976:main.c        **** 		{
 1872              		.loc 1 976 0
ARM GAS  C:\Users\Administrator\AppData\Local\Temp\ccNLOfxN.s 			page 62


 1873 020c 3268     		ldr	r2, [r6]
 1874 020e 3A4E     		ldr	r6, .L179+28
 1875 0210 3368     		ldr	r3, [r6]
 1876 0212 9A42     		cmp	r2, r3
 1877 0214 61D9     		bls	.L142
 978:main.c        **** 			{
 1878              		.loc 1 978 0
 1879 0216 A37A     		ldrb	r3, [r4, #10]
 1880 0218 0A2B     		cmp	r3, #10
 1881 021a 00D9     		bls	.LCB1610
 1882 021c 23E7     		b	.L153	@long jump
 1883              	.LCB1610:
 985:main.c        **** 				ret =  GPRS_ClosedConnect();
 1884              		.loc 1 985 0
 1885 021e 0133     		add	r3, r3, #1
 984:main.c        **** 				gprs_operation_ErrCount++;
 1886              		.loc 1 984 0
 1887 0220 0532     		add	r2, r2, #5
 985:main.c        **** 				ret =  GPRS_ClosedConnect();
 1888              		.loc 1 985 0
 1889 0222 A372     		strb	r3, [r4, #10]
 984:main.c        **** 				gprs_operation_ErrCount++;
 1890              		.loc 1 984 0
 1891 0224 3260     		str	r2, [r6]
 986:main.c        **** 				if (ret == TRUE)
 1892              		.loc 1 986 0
 1893 0226 FFF7FEFF 		bl	GPRS_ClosedConnect
 1894              	.LVL198:
 989:main.c        **** 					next_gprs_operation_time = cur_time;
 1895              		.loc 1 989 0
 1896 022a 0823     		mov	r3, #8
 987:main.c        **** 				{
 1897              		.loc 1 987 0
 1898 022c 0128     		cmp	r0, #1
 1899 022e 54D1     		bne	.L142
 1900 0230 18E0     		b	.L178
 1901              	.LVL199:
 1902              	.L167:
 996:main.c        **** 	{
 1903              		.loc 1 996 0
 1904 0232 082C     		cmp	r4, #8
 1905 0234 1AD1     		bne	.L168
 998:main.c        **** 		Led_SetState(LED_State);
 1906              		.loc 1 998 0
 1907 0236 0123     		mov	r3, #1
 1908 0238 2E4C     		ldr	r4, .L179+24
 1909 023a 6372     		strb	r3, [r4, #9]
 1910              	.LVL200:
 1911              	.LBB54:
 1912              	.LBB55:
 383:main.c        **** 	}
 1913              		.loc 1 383 0
 1914 023c FFF7FEFF 		bl	Led_RedON
 1915              	.LVL201:
 1916              	.LBE55:
 1917              	.LBE54:
1000:main.c        **** 		{
ARM GAS  C:\Users\Administrator\AppData\Local\Temp\ccNLOfxN.s 			page 63


 1918              		.loc 1 1000 0
 1919 0240 A37A     		ldrb	r3, [r4, #10]
 1920 0242 032B     		cmp	r3, #3
 1921 0244 00D9     		bls	.LCB1641
 1922 0246 5BE7     		b	.L158	@long jump
 1923              	.LCB1641:
1004:main.c        **** 		{
 1924              		.loc 1 1004 0
 1925 0248 3268     		ldr	r2, [r6]
 1926 024a 2B4E     		ldr	r6, .L179+28
 1927 024c 3168     		ldr	r1, [r6]
 1928 024e 8A42     		cmp	r2, r1
 1929 0250 43D9     		bls	.L142
1006:main.c        **** 			gprs_operation_ErrCount++;
 1930              		.loc 1 1006 0
 1931 0252 0A32     		add	r2, r2, #10
1007:main.c        **** 			ret = GPRS_ConnectUpdateServer();
 1932              		.loc 1 1007 0
 1933 0254 0133     		add	r3, r3, #1
1006:main.c        **** 			gprs_operation_ErrCount++;
 1934              		.loc 1 1006 0
 1935 0256 3260     		str	r2, [r6]
1007:main.c        **** 			ret = GPRS_ConnectUpdateServer();
 1936              		.loc 1 1007 0
 1937 0258 A372     		strb	r3, [r4, #10]
1008:main.c        **** 			if (ret == TRUE)
 1938              		.loc 1 1008 0
 1939 025a FFF7FEFF 		bl	GPRS_ConnectUpdateServer
 1940              	.LVL202:
1009:main.c        **** 			{
 1941              		.loc 1 1009 0
 1942 025e 0128     		cmp	r0, #1
 1943 0260 3BD1     		bne	.L142
1011:main.c        **** 				next_gprs_operation_time = cur_time;
 1944              		.loc 1 1011 0
 1945 0262 0923     		mov	r3, #9
 1946              	.LVL203:
 1947              	.L178:
 1948 0264 2B70     		strb	r3, [r5]
1012:main.c        **** 				gprs_operation_ErrCount = 0;
 1949              		.loc 1 1012 0
 1950 0266 3B68     		ldr	r3, [r7]
 1951 0268 3360     		str	r3, [r6]
 1952 026a 5FE7     		b	.L177
 1953              	.LVL204:
 1954              	.L168:
1017:main.c        **** 	{
 1955              		.loc 1 1017 0
 1956 026c 092C     		cmp	r4, #9
 1957 026e 11D1     		bne	.L169
1019:main.c        **** 		Led_SetState(LED_State);
 1958              		.loc 1 1019 0
 1959 0270 0323     		mov	r3, #3
 1960 0272 204C     		ldr	r4, .L179+24
 1961 0274 6372     		strb	r3, [r4, #9]
 1962              	.LVL205:
 1963              	.LBB56:
ARM GAS  C:\Users\Administrator\AppData\Local\Temp\ccNLOfxN.s 			page 64


 1964              	.LBB57:
 391:main.c        **** 	}
 1965              		.loc 1 391 0
 1966 0276 FFF7FEFF 		bl	Led_BlueON
 1967              	.LVL206:
 1968              	.LBE57:
 1969              	.LBE56:
1021:main.c        **** 		update_page = 1;
 1970              		.loc 1 1021 0
 1971 027a FFF7FEFF 		bl	Cmd_Protocol_ParaInit
 1972              	.LVL207:
1022:main.c        **** 		send_update_req(update_page);
 1973              		.loc 1 1022 0
 1974 027e 0120     		mov	r0, #1
 1975 0280 204B     		ldr	r3, .L179+40
 1976 0282 1880     		strh	r0, [r3]
1023:main.c        **** 		update_timeout_time = 20000;
 1977              		.loc 1 1023 0
 1978 0284 FFF7FEFF 		bl	send_update_req
 1979              	.LVL208:
1024:main.c        **** 		update_timeout_count = 0;
 1980              		.loc 1 1024 0
 1981 0288 1F4B     		ldr	r3, .L179+44
 1982 028a 6360     		str	r3, [r4, #4]
1025:main.c        **** 		gprs_state = WAIT_UPDATE;
 1983              		.loc 1 1025 0
 1984 028c 0023     		mov	r3, #0
 1985 028e 2373     		strb	r3, [r4, #12]
1026:main.c        **** 	}
 1986              		.loc 1 1026 0
 1987 0290 0A33     		add	r3, r3, #10
 1988 0292 36E7     		b	.L175
 1989              	.LVL209:
 1990              	.L169:
1028:main.c        **** 	{
 1991              		.loc 1 1028 0
 1992 0294 0A2C     		cmp	r4, #10
 1993 0296 17D1     		bne	.L170
1030:main.c        **** 		{
 1994              		.loc 1 1030 0
 1995 0298 164C     		ldr	r4, .L179+24
 1996 029a 6668     		ldr	r6, [r4, #4]
 1997 029c 002E     		cmp	r6, #0
 1998 029e 1CD1     		bne	.L142
1032:main.c        **** 			if (update_timeout_count >= gprs_resetCount)
 1999              		.loc 1 1032 0
 2000 02a0 237B     		ldrb	r3, [r4, #12]
 2001 02a2 0133     		add	r3, r3, #1
 2002 02a4 DBB2     		uxtb	r3, r3
 2003 02a6 2373     		strb	r3, [r4, #12]
1033:main.c        **** 			{
 2004              		.loc 1 1033 0
 2005 02a8 092B     		cmp	r3, #9
 2006 02aa 04D9     		bls	.L171
1035:main.c        **** 				GPRS_ClosedConnect();							// 下载升级包超时 关闭连接退出升级
 2007              		.loc 1 1035 0
 2008 02ac 2673     		strb	r6, [r4, #12]
ARM GAS  C:\Users\Administrator\AppData\Local\Temp\ccNLOfxN.s 			page 65


1036:main.c        **** 				gprs_state = INIT;
 2009              		.loc 1 1036 0
 2010 02ae FFF7FEFF 		bl	GPRS_ClosedConnect
 2011              	.LVL210:
1037:main.c        **** 			}
 2012              		.loc 1 1037 0
 2013 02b2 2E70     		strb	r6, [r5]
 2014 02b4 11E0     		b	.L142
 2015              	.L171:
1041:main.c        **** 				send_update_req(update_page);
 2016              		.loc 1 1041 0
 2017 02b6 FFF7FEFF 		bl	Cmd_Protocol_ParaInit
 2018              	.LVL211:
1042:main.c        **** 				update_timeout_time = 10000;
 2019              		.loc 1 1042 0
 2020 02ba 124B     		ldr	r3, .L179+40
 2021 02bc 1888     		ldrh	r0, [r3]
 2022 02be FFF7FEFF 		bl	send_update_req
 2023              	.LVL212:
1043:main.c        **** 			}
 2024              		.loc 1 1043 0
 2025 02c2 124B     		ldr	r3, .L179+48
 2026 02c4 6360     		str	r3, [r4, #4]
 2027 02c6 08E0     		b	.L142
 2028              	.L170:
1047:main.c        **** 	{
 2029              		.loc 1 1047 0
 2030 02c8 0B2C     		cmp	r4, #11
 2031 02ca 06D1     		bne	.L142
1049:main.c        **** 		stop_reboot = 0x01;
 2032              		.loc 1 1049 0
 2033 02cc FFF7FEFF 		bl	GPRS_ClosedConnect
 2034              	.LVL213:
1050:main.c        **** 		Bootloadable_Load();
 2035              		.loc 1 1050 0
 2036 02d0 0122     		mov	r2, #1
 2037 02d2 0F4B     		ldr	r3, .L179+52
 2038 02d4 1A70     		strb	r2, [r3]
1051:main.c        **** 	}
 2039              		.loc 1 1051 0
 2040 02d6 FFF7FEFF 		bl	Bootloadable_Load
 2041              	.LVL214:
 2042              	.L142:
1053:main.c        **** 
 2043              		.loc 1 1053 0
 2044              		@ sp needed
 2045 02da F7BD     		pop	{r0, r1, r2, r4, r5, r6, r7, pc}
 2046              	.L180:
 2047              		.align	2
 2048              	.L179:
 2049 02dc 00000000 		.word	GPRSCmdParseFlag1
 2050 02e0 00000000 		.word	GPRSCmdParseFlag2
 2051 02e4 00000000 		.word	update_flag
 2052 02e8 00000000 		.word	gprs_state
 2053 02ec 00000000 		.word	flag_reboot
 2054 02f0 00000000 		.word	cur_time
 2055 02f4 00000000 		.word	.LANCHOR0
ARM GAS  C:\Users\Administrator\AppData\Local\Temp\ccNLOfxN.s 			page 66


 2056 02f8 00000000 		.word	next_gprs_operation_time
 2057 02fc 00000000 		.word	heartbeat_lasttime
 2058 0300 00000000 		.word	next_heartbeat_time
 2059 0304 00000000 		.word	update_page
 2060 0308 204E0000 		.word	20000
 2061 030c 10270000 		.word	10000
 2062 0310 00000000 		.word	stop_reboot
 2063              		.cfi_endproc
 2064              	.LFE86:
 2065              		.size	GPRS_Tick, .-GPRS_Tick
 2066              		.section	.text.ResetGPRS,"ax",%progbits
 2067              		.align	1
 2068              		.global	ResetGPRS
 2069              		.code	16
 2070              		.thumb_func
 2071              		.type	ResetGPRS, %function
 2072              	ResetGPRS:
 2073              	.LFB78:
 572:main.c        ****     GPRS_RESET_Write(1);
 2074              		.loc 1 572 0
 2075              		.cfi_startproc
 2076 0000 08B5     		push	{r3, lr}
 2077              		.cfi_def_cfa_offset 8
 2078              		.cfi_offset 3, -8
 2079              		.cfi_offset 14, -4
 573:main.c        **** 	delay_with_ble(25);
 2080              		.loc 1 573 0
 2081 0002 0120     		mov	r0, #1
 2082 0004 FFF7FEFF 		bl	GPRS_RESET_Write
 2083              	.LVL215:
 574:main.c        **** 	GPRS_RESET_Write(0);
 2084              		.loc 1 574 0
 2085 0008 1920     		mov	r0, #25
 2086 000a FFF7FEFF 		bl	delay_with_ble
 2087              	.LVL216:
 575:main.c        **** }
 2088              		.loc 1 575 0
 2089 000e 0020     		mov	r0, #0
 2090 0010 FFF7FEFF 		bl	GPRS_RESET_Write
 2091              	.LVL217:
 576:main.c        **** 
 2092              		.loc 1 576 0
 2093              		@ sp needed
 2094 0014 08BD     		pop	{r3, pc}
 2095              		.cfi_endproc
 2096              	.LFE78:
 2097              		.size	ResetGPRS, .-ResetGPRS
 2098              		.section	.text.BLE_Tick,"ax",%progbits
 2099              		.align	1
 2100              		.global	BLE_Tick
 2101              		.code	16
 2102              		.thumb_func
 2103              		.type	BLE_Tick, %function
 2104              	BLE_Tick:
 2105              	.LFB85:
 711:main.c        **** 	ble_heartbeat();
 2106              		.loc 1 711 0
ARM GAS  C:\Users\Administrator\AppData\Local\Temp\ccNLOfxN.s 			page 67


 2107              		.cfi_startproc
 2108 0000 10B5     		push	{r4, lr}
 2109              		.cfi_def_cfa_offset 8
 2110              		.cfi_offset 4, -8
 2111              		.cfi_offset 14, -4
 712:main.c        **** 	if(CyBle_GetState() == CYBLE_STATE_CONNECTED)
 2112              		.loc 1 712 0
 2113 0002 FFF7FEFF 		bl	ble_heartbeat
 2114              	.LVL218:
 713:main.c        **** 	{
 2115              		.loc 1 713 0
 2116 0006 064B     		ldr	r3, .L184
 2117 0008 1B78     		ldrb	r3, [r3]
 2118 000a 022B     		cmp	r3, #2
 2119 000c 07D1     		bne	.L182
 2120              	.LBB60:
 2121              	.LBB61:
 715:main.c        ****         {					
 2122              		.loc 1 715 0
 2123 000e 054C     		ldr	r4, .L184+4
 2124 0010 2378     		ldrb	r3, [r4]
 2125 0012 012B     		cmp	r3, #1
 2126 0014 03D1     		bne	.L182
 717:main.c        **** 			BleCmdValidFlag = 0;
 2127              		.loc 1 717 0
 2128 0016 FFF7FEFF 		bl	Protocol_CmdParse
 2129              	.LVL219:
 718:main.c        **** 			DBG_PRINTF("BLE handle cmd done.\n");
 2130              		.loc 1 718 0
 2131 001a 0023     		mov	r3, #0
 2132 001c 2370     		strb	r3, [r4]
 2133              	.L182:
 2134              	.LBE61:
 2135              	.LBE60:
 722:main.c        **** 
 2136              		.loc 1 722 0
 2137              		@ sp needed
 2138 001e 10BD     		pop	{r4, pc}
 2139              	.L185:
 2140              		.align	2
 2141              	.L184:
 2142 0020 00000000 		.word	cyBle_state
 2143 0024 00000000 		.word	BleCmdValidFlag
 2144              		.cfi_endproc
 2145              	.LFE85:
 2146              		.size	BLE_Tick, .-BLE_Tick
 2147              		.section	.text.KeyOpen_Tick,"ax",%progbits
 2148              		.align	1
 2149              		.global	KeyOpen_Tick
 2150              		.code	16
 2151              		.thumb_func
 2152              		.type	KeyOpen_Tick, %function
 2153              	KeyOpen_Tick:
 2154              	.LFB88:
1385:main.c        **** #endif
1386:main.c        **** 
1387:main.c        **** 
ARM GAS  C:\Users\Administrator\AppData\Local\Temp\ccNLOfxN.s 			page 68


1388:main.c        **** #if card_normal //原功能
1389:main.c        **** //*************************************************************************************************
1390:main.c        **** // Function name	: CARD_Tick
1391:main.c        **** // Description		: 刷卡验证并处理
1392:main.c        **** // Parameter		: none
1393:main.c        **** // Return			: none
1394:main.c        **** //-------------------------------------------------------------------------------------------------
1395:main.c        **** // Info				: 
1396:main.c        **** //*************************************************************************************************
1397:main.c        **** void CARD_Tick(void)
1398:main.c        **** {
1399:main.c        **** 	uint8 i;
1400:main.c        **** 	uint8 ret;
1401:main.c        **** 	uint8 card_id[8];
1402:main.c        **** 	uint8 arr_time[4];
1403:main.c        **** 	uint32 cur_time;
1404:main.c        **** 	user_info_t user_info;
1405:main.c        ****     open_door_t openInfo_card;
1406:main.c        **** 	
1407:main.c        **** 	#if 0
1408:main.c        **** 	if ((ret = detect_nfc_card(card_id, CARD_UID_LEN)) != RET_OK)
1409:main.c        **** 	{
1410:main.c        **** 		goto Err_Check;
1411:main.c        **** 	}
1412:main.c        **** 	
1413:main.c        **** 	// 滤除不准确的卡ID
1414:main.c        **** 	if((card_id[0] == 0) && (card_id[1] == 0) &&(card_id[2] == 0) && (card_id[3] == 0))
1415:main.c        **** 	{
1416:main.c        **** 		return;
1417:main.c        **** 	}
1418:main.c        **** 	#endif
1419:main.c        **** 	
1420:main.c        **** 	if(RET_ERR == Read_nfc_card2(card_id))
1421:main.c        **** 		return;
1422:main.c        **** 	
1423:main.c        **** 		#if DBG_SOFT_ENNABLE
1424:main.c        **** 		//memset(cur_readuid, 0, 8);
1425:main.c        **** 		//memcpy(card_id,card_id,8);
1426:main.c        **** 		DBG_SOFT_PutStr("\nCur Read card UID:\n");
1427:main.c        **** 		DBG_SOFT_PrintfHex(card_id,8,16);
1428:main.c        **** 		#endif	
1429:main.c        **** 	
1430:main.c        **** 	for (i = 0; i < 2; i++)
1431:main.c        **** 	{
1432:main.c        **** 	    Led_AllOff();
1433:main.c        **** 		delay_with_ble(100);
1434:main.c        **** 		Led_BlueON();
1435:main.c        **** 		delay_with_ble(100);
1436:main.c        **** 	}
1437:main.c        **** 	
1438:main.c        **** 	cur_time = (uint32)RTC_GetUnixTime();
1439:main.c        **** 	LONG2BYTE(cur_time, arr_time);
1440:main.c        **** 	memcpy(user_info.card_uid, card_id, CARD_UID_LEN);
1441:main.c        **** 	memcpy(user_info.valid_time, arr_time, 4);
1442:main.c        **** 	
1443:main.c        **** 	if (1 == UserData_Judge_If_Open(&user_info))
1444:main.c        **** 	{
ARM GAS  C:\Users\Administrator\AppData\Local\Temp\ccNLOfxN.s 			page 69


1445:main.c        **** 		Led_GreenON();
1446:main.c        **** 		DoorOpen();
1447:main.c        **** 		VoicePlay((uint8)Sound_VERIFY_SUCCESS);
1448:main.c        **** 		
1449:main.c        **** 		memset(&openInfo_card, 0, sizeof(open_door_t));
1450:main.c        **** 		memcpy(openInfo_card.card_uid, card_id, CARD_UID_LEN);
1451:main.c        **** 		memcpy(openInfo_card.open_time, arr_time, 4);
1452:main.c        **** 		memset(arr_time, 0, 4);
1453:main.c        **** 		memcpy(openInfo_card.send_time, arr_time, 4);
1454:main.c        **** 		Write_OpenInfo(&openInfo_card, CARD_OPEN);
1455:main.c        **** 		
1456:main.c        **** 		if (gprs_state == NORMAL_COMM)
1457:main.c        **** 		{
1458:main.c        **** 			cur_time = (uint32)RTC_GetUnixTime();
1459:main.c        **** 			if(cur_time > next_allupload_time)
1460:main.c        **** 			{
1461:main.c        **** 				next_allupload_time = cur_time + 15;
1462:main.c        **** 				send_upload_open_info(&openInfo_card, CARD_UID_LEN, CARD_OPEN);				
1463:main.c        **** 			}						
1464:main.c        **** 		}
1465:main.c        **** 		
1466:main.c        **** 		DoorClose();
1467:main.c        **** 	}
1468:main.c        **** 	else
1469:main.c        **** 	{
1470:main.c        **** 		Card_ErrCount++;
1471:main.c        **** 		Led_RedON();
1472:main.c        **** 		VoicePlay(Sound_VERIFY_FAILURE);
1473:main.c        **** 		delay_with_ble(800);
1474:main.c        **** 	}
1475:main.c        **** 	Led_SetState(LED_State);										// LED的状态切回刷卡前的状态		//
1476:main.c        **** 	
1477:main.c        **** Err_Check:
1478:main.c        **** 	if (Card_ErrCount >= 5)
1479:main.c        **** 	{
1480:main.c        **** 		Card_ErrCount = 0;
1481:main.c        **** 		if (gprs_state == NORMAL_COMM)
1482:main.c        **** 		{
1483:main.c        **** 			EnterGuide_State = ALARM_ErrOpenQty;
1484:main.c        **** 			send_alarm_info(EnterGuide_State);						// 开门错误5次报警					//
1485:main.c        **** 		}
1486:main.c        **** 	}
1487:main.c        **** }
1488:main.c        **** #endif
1489:main.c        **** 
1490:main.c        **** //*************************************************************************************************
1491:main.c        **** // Function name	: KeyOpen_Tick
1492:main.c        **** // Description		: 机械开门的处理
1493:main.c        **** // Parameter		: none
1494:main.c        **** // Return			: none
1495:main.c        **** //-------------------------------------------------------------------------------------------------
1496:main.c        **** // Info				: 
1497:main.c        **** //*************************************************************************************************
1498:main.c        **** void KeyOpen_Tick(void)
1499:main.c        **** {
 2155              		.loc 1 1499 0
 2156              		.cfi_startproc
ARM GAS  C:\Users\Administrator\AppData\Local\Temp\ccNLOfxN.s 			page 70


 2157 0000 30B5     		push	{r4, r5, lr}
 2158              		.cfi_def_cfa_offset 12
 2159              		.cfi_offset 4, -12
 2160              		.cfi_offset 5, -8
 2161              		.cfi_offset 14, -4
 2162 0002 89B0     		sub	sp, sp, #36
 2163              		.cfi_def_cfa_offset 48
1500:main.c        **** 	uint8 card_id[8] = {0xff, 0xff, 0xff, 0xff, 0xff, 0xff, 0xff, 0x02};
 2164              		.loc 1 1500 0
 2165 0004 2749     		ldr	r1, .L193
 2166 0006 0822     		mov	r2, #8
 2167 0008 02A8     		add	r0, sp, #8
 2168 000a FFF7FEFF 		bl	memcpy
 2169              	.LVL220:
1501:main.c        **** 	uint8 arr_time[4];
1502:main.c        **** 	uint32 time_tmp;
1503:main.c        ****     open_door_t openInfo_Key;
1504:main.c        **** 	
1505:main.c        **** 	
1506:main.c        **** 	//if ((0 == KEY_OPEN_Read()) && (cur_time > next_gprs_upload_time))
1507:main.c        **** 	if (0 == KEY_OPEN_Read())
 2170              		.loc 1 1507 0
 2171 000e FFF7FEFF 		bl	KEY_OPEN_Read
 2172              	.LVL221:
 2173 0012 0028     		cmp	r0, #0
 2174 0014 43D1     		bne	.L186
1508:main.c        **** 	{
1509:main.c        **** 		delay_with_ble(5);
 2175              		.loc 1 1509 0
 2176 0016 0530     		add	r0, r0, #5
 2177 0018 FFF7FEFF 		bl	delay_with_ble
 2178              	.LVL222:
1510:main.c        **** 		if (0 == KEY_OPEN_Read())
 2179              		.loc 1 1510 0
 2180 001c FFF7FEFF 		bl	KEY_OPEN_Read
 2181              	.LVL223:
 2182 0020 051E     		sub	r5, r0, #0
 2183 0022 3CD1     		bne	.L186
1511:main.c        **** 		{
1512:main.c        **** 			//test_readopeninfo();//==
1513:main.c        **** 			
1514:main.c        **** 			Led_GreenON();
 2184              		.loc 1 1514 0
 2185 0024 FFF7FEFF 		bl	Led_GreenON
 2186              	.LVL224:
1515:main.c        **** 			DoorOpen();
 2187              		.loc 1 1515 0
 2188 0028 FFF7FEFF 		bl	DoorOpen
 2189              	.LVL225:
1516:main.c        **** 			VoicePlay((uint8)Sound_VERIFY_SUCCESS);
 2190              		.loc 1 1516 0
 2191 002c 0A20     		mov	r0, #10
 2192 002e FFF7FEFF 		bl	VoicePlay
 2193              	.LVL226:
1517:main.c        **** 			
1518:main.c        **** 			time_tmp = (uint32)RTC_GetUnixTime();						
 2194              		.loc 1 1518 0
ARM GAS  C:\Users\Administrator\AppData\Local\Temp\ccNLOfxN.s 			page 71


 2195 0032 FFF7FEFF 		bl	RTC_GetUnixTime
 2196              	.LVL227:
1519:main.c        **** 			LONG2BYTE(time_tmp, arr_time);
 2197              		.loc 1 1519 0
 2198 0036 01AB     		add	r3, sp, #4
 2199 0038 020E     		lsr	r2, r0, #24
 2200 003a 1A70     		strb	r2, [r3]
 2201 003c 020C     		lsr	r2, r0, #16
 2202 003e 5A70     		strb	r2, [r3, #1]
 2203 0040 020A     		lsr	r2, r0, #8
 2204 0042 9A70     		strb	r2, [r3, #2]
 2205 0044 D870     		strb	r0, [r3, #3]
1520:main.c        **** 			
1521:main.c        **** 			memset(&openInfo_Key, 0, sizeof(open_door_t));
 2206              		.loc 1 1521 0
 2207 0046 291C     		mov	r1, r5
 2208 0048 1022     		mov	r2, #16
1518:main.c        **** 			LONG2BYTE(time_tmp, arr_time);
 2209              		.loc 1 1518 0
 2210 004a 041C     		mov	r4, r0
 2211              	.LVL228:
 2212              		.loc 1 1521 0
 2213 004c 04A8     		add	r0, sp, #16
 2214              	.LVL229:
 2215 004e FFF7FEFF 		bl	memset
 2216              	.LVL230:
1522:main.c        **** 			memcpy(openInfo_Key.card_uid, card_id, CARD_UID_LEN);
 2217              		.loc 1 1522 0
 2218 0052 0822     		mov	r2, #8
 2219 0054 02A9     		add	r1, sp, #8
 2220 0056 04A8     		add	r0, sp, #16
 2221 0058 FFF7FEFF 		bl	memcpy
 2222              	.LVL231:
1523:main.c        **** 			memcpy(openInfo_Key.open_time, arr_time, 4);
 2223              		.loc 1 1523 0
 2224 005c 019B     		ldr	r3, [sp, #4]
1524:main.c        **** 			memset(arr_time, 0, 4);
1525:main.c        **** 			memcpy(openInfo_Key.send_time, arr_time, 4);
1526:main.c        **** 			Write_OpenInfo(&openInfo_Key, HAND_OPEN);
 2225              		.loc 1 1526 0
 2226 005e 04A8     		add	r0, sp, #16
 2227 0060 0821     		mov	r1, #8
1523:main.c        **** 			memcpy(openInfo_Key.open_time, arr_time, 4);
 2228              		.loc 1 1523 0
 2229 0062 0693     		str	r3, [sp, #24]
1524:main.c        **** 			memset(arr_time, 0, 4);
 2230              		.loc 1 1524 0
 2231 0064 0195     		str	r5, [sp, #4]
1525:main.c        **** 			Write_OpenInfo(&openInfo_Key, HAND_OPEN);
 2232              		.loc 1 1525 0
 2233 0066 0795     		str	r5, [sp, #28]
 2234              		.loc 1 1526 0
 2235 0068 FFF7FEFF 		bl	Write_OpenInfo
 2236              	.LVL232:
1527:main.c        **** 			
1528:main.c        **** 			if(time_tmp > next_allupload_time)									// 按键开门间隔15s才上报			//
 2237              		.loc 1 1528 0
ARM GAS  C:\Users\Administrator\AppData\Local\Temp\ccNLOfxN.s 			page 72


 2238 006c 0E4B     		ldr	r3, .L193+4
 2239 006e 1A68     		ldr	r2, [r3]
 2240 0070 9442     		cmp	r4, r2
 2241 0072 0AD9     		bls	.L191
1529:main.c        **** 			{
1530:main.c        **** 				DBG_SOFT_PutStr("\nKeyopen upload\n");
1531:main.c        **** 				next_allupload_time = time_tmp + 15;
 2242              		.loc 1 1531 0
 2243 0074 0F34     		add	r4, r4, #15
 2244              	.LVL233:
 2245 0076 1C60     		str	r4, [r3]
1532:main.c        **** 				if (gprs_state == NORMAL_COMM)
 2246              		.loc 1 1532 0
 2247 0078 0C4B     		ldr	r3, .L193+8
 2248 007a 1B78     		ldrb	r3, [r3]
 2249 007c 052B     		cmp	r3, #5
 2250 007e 04D1     		bne	.L191
1533:main.c        **** 				{
1534:main.c        **** 					send_upload_open_info(&openInfo_Key, CARD_UID_LEN, HAND_OPEN);
 2251              		.loc 1 1534 0
 2252 0080 0821     		mov	r1, #8
 2253 0082 04A8     		add	r0, sp, #16
 2254 0084 0A1C     		mov	r2, r1
 2255 0086 FFF7FEFF 		bl	send_upload_open_info
 2256              	.LVL234:
 2257              	.L191:
1535:main.c        **** 				}	
1536:main.c        **** 			}
1537:main.c        **** 			
1538:main.c        **** 			delay_with_ble(1000);
 2258              		.loc 1 1538 0
 2259 008a FA20     		mov	r0, #250
 2260 008c 8000     		lsl	r0, r0, #2
 2261 008e FFF7FEFF 		bl	delay_with_ble
 2262              	.LVL235:
1539:main.c        **** 			DoorClose();
 2263              		.loc 1 1539 0
 2264 0092 FFF7FEFF 		bl	DoorClose
 2265              	.LVL236:
1540:main.c        **** 	        Led_SetState(LED_State);
 2266              		.loc 1 1540 0
 2267 0096 064B     		ldr	r3, .L193+12
 2268 0098 587A     		ldrb	r0, [r3, #9]
 2269 009a FFF7FEFF 		bl	Led_SetState
 2270              	.LVL237:
 2271              	.L186:
1541:main.c        **** 		}
1542:main.c        **** 	}
1543:main.c        **** }
 2272              		.loc 1 1543 0
 2273 009e 09B0     		add	sp, sp, #36
 2274              		@ sp needed
 2275 00a0 30BD     		pop	{r4, r5, pc}
 2276              	.L194:
 2277 00a2 C046     		.align	2
 2278              	.L193:
 2279 00a4 00000000 		.word	.LANCHOR1
ARM GAS  C:\Users\Administrator\AppData\Local\Temp\ccNLOfxN.s 			page 73


 2280 00a8 00000000 		.word	next_allupload_time
 2281 00ac 00000000 		.word	gprs_state
 2282 00b0 00000000 		.word	.LANCHOR0
 2283              		.cfi_endproc
 2284              	.LFE88:
 2285              		.size	KeyOpen_Tick, .-KeyOpen_Tick
 2286              		.section	.text.FireOpen_Tick,"ax",%progbits
 2287              		.align	1
 2288              		.global	FireOpen_Tick
 2289              		.code	16
 2290              		.thumb_func
 2291              		.type	FireOpen_Tick, %function
 2292              	FireOpen_Tick:
 2293              	.LFB89:
1544:main.c        **** 
1545:main.c        **** //*************************************************************************************************
1546:main.c        **** // Function name	: FireOpen_Tick
1547:main.c        **** // Description		: 火警开门的处理
1548:main.c        **** // Parameter		: none
1549:main.c        **** // Return			: none
1550:main.c        **** //-------------------------------------------------------------------------------------------------
1551:main.c        **** // Info				: 
1552:main.c        **** //*************************************************************************************************
1553:main.c        **** void FireOpen_Tick(void)
1554:main.c        **** {
 2294              		.loc 1 1554 0
 2295              		.cfi_startproc
 2296 0000 10B5     		push	{r4, lr}
 2297              		.cfi_def_cfa_offset 8
 2298              		.cfi_offset 4, -8
 2299              		.cfi_offset 14, -4
1555:main.c        **** 	uint8 card_id[8] = {0xFF, 0xFF, 0xFF, 0xFF, 0xFF, 0xFF, 0xFF, 0x01};
 2300              		.loc 1 1555 0
 2301 0002 2449     		ldr	r1, .L202
1554:main.c        **** 	uint8 card_id[8] = {0xFF, 0xFF, 0xFF, 0xFF, 0xFF, 0xFF, 0xFF, 0x01};
 2302              		.loc 1 1554 0
 2303 0004 88B0     		sub	sp, sp, #32
 2304              		.cfi_def_cfa_offset 40
 2305              		.loc 1 1555 0
 2306 0006 0831     		add	r1, r1, #8
 2307 0008 0822     		mov	r2, #8
 2308 000a 02A8     		add	r0, sp, #8
 2309 000c FFF7FEFF 		bl	memcpy
 2310              	.LVL238:
1556:main.c        **** 	uint8 arr_time[4];
1557:main.c        **** 	uint32 cur_time;
1558:main.c        ****     open_door_t openInfo_FIRE;
1559:main.c        **** 	
1560:main.c        **** 	//if ((0 == FIRE_OPEN_Read()) && (cur_time > next_gprs_upload_time))
1561:main.c        **** 	if (0 == FIRE_OPEN_Read())
 2311              		.loc 1 1561 0
 2312 0010 FFF7FEFF 		bl	FIRE_OPEN_Read
 2313              	.LVL239:
 2314 0014 0028     		cmp	r0, #0
 2315 0016 3AD1     		bne	.L195
1562:main.c        **** 	{
1563:main.c        **** 		delay_with_ble(20);
ARM GAS  C:\Users\Administrator\AppData\Local\Temp\ccNLOfxN.s 			page 74


 2316              		.loc 1 1563 0
 2317 0018 1430     		add	r0, r0, #20
 2318 001a FFF7FEFF 		bl	delay_with_ble
 2319              	.LVL240:
1564:main.c        **** 		if (0 == FIRE_OPEN_Read())
 2320              		.loc 1 1564 0
 2321 001e FFF7FEFF 		bl	FIRE_OPEN_Read
 2322              	.LVL241:
 2323 0022 041E     		sub	r4, r0, #0
 2324 0024 33D1     		bne	.L195
1565:main.c        **** 		{
1566:main.c        **** 			Led_GreenON();
 2325              		.loc 1 1566 0
 2326 0026 FFF7FEFF 		bl	Led_GreenON
 2327              	.LVL242:
1567:main.c        **** 			DoorOpen();
 2328              		.loc 1 1567 0
 2329 002a FFF7FEFF 		bl	DoorOpen
 2330              	.LVL243:
1568:main.c        **** 			VoicePlay((uint8)Sound_VERIFY_SUCCESS);
 2331              		.loc 1 1568 0
 2332 002e 0A20     		mov	r0, #10
 2333 0030 FFF7FEFF 		bl	VoicePlay
 2334              	.LVL244:
1569:main.c        **** 	        			
1570:main.c        **** 			memset(&openInfo_FIRE, 0, sizeof(open_door_t));
 2335              		.loc 1 1570 0
 2336 0034 211C     		mov	r1, r4
 2337 0036 1022     		mov	r2, #16
 2338 0038 04A8     		add	r0, sp, #16
 2339 003a FFF7FEFF 		bl	memset
 2340              	.LVL245:
1571:main.c        **** 			memcpy(openInfo_FIRE.card_uid, card_id, CARD_UID_LEN);
 2341              		.loc 1 1571 0
 2342 003e 02A9     		add	r1, sp, #8
 2343 0040 0822     		mov	r2, #8
 2344 0042 04A8     		add	r0, sp, #16
 2345 0044 FFF7FEFF 		bl	memcpy
 2346              	.LVL246:
1572:main.c        **** 			memcpy(openInfo_FIRE.open_time, arr_time, 4);
 2347              		.loc 1 1572 0
 2348 0048 019B     		ldr	r3, [sp, #4]
1573:main.c        **** 			memset(arr_time, 0, 4);
1574:main.c        **** 			memcpy(openInfo_FIRE.send_time, arr_time, 4);
1575:main.c        **** 			Write_OpenInfo(&openInfo_FIRE, FIRE_OPEN);
 2349              		.loc 1 1575 0
 2350 004a 04A8     		add	r0, sp, #16
 2351 004c 0521     		mov	r1, #5
1572:main.c        **** 			memcpy(openInfo_FIRE.open_time, arr_time, 4);
 2352              		.loc 1 1572 0
 2353 004e 0693     		str	r3, [sp, #24]
1573:main.c        **** 			memset(arr_time, 0, 4);
 2354              		.loc 1 1573 0
 2355 0050 0194     		str	r4, [sp, #4]
1574:main.c        **** 			Write_OpenInfo(&openInfo_FIRE, FIRE_OPEN);
 2356              		.loc 1 1574 0
 2357 0052 0794     		str	r4, [sp, #28]
ARM GAS  C:\Users\Administrator\AppData\Local\Temp\ccNLOfxN.s 			page 75


 2358              		.loc 1 1575 0
 2359 0054 FFF7FEFF 		bl	Write_OpenInfo
 2360              	.LVL247:
1576:main.c        **** 			
1577:main.c        **** 			if (gprs_state == NORMAL_COMM)
 2361              		.loc 1 1577 0
 2362 0058 0F4B     		ldr	r3, .L202+4
 2363 005a 1C78     		ldrb	r4, [r3]
 2364 005c 052C     		cmp	r4, #5
 2365 005e 0CD1     		bne	.L200
1578:main.c        **** 			{
1579:main.c        **** 				cur_time = (uint32)RTC_GetUnixTime();
 2366              		.loc 1 1579 0
 2367 0060 FFF7FEFF 		bl	RTC_GetUnixTime
 2368              	.LVL248:
1580:main.c        **** 				if(cur_time > next_allupload_time)
 2369              		.loc 1 1580 0
 2370 0064 0D4B     		ldr	r3, .L202+8
 2371 0066 1A68     		ldr	r2, [r3]
 2372 0068 9042     		cmp	r0, r2
 2373 006a 06D9     		bls	.L200
1581:main.c        **** 				{
1582:main.c        **** 					next_allupload_time = cur_time + 15;
 2374              		.loc 1 1582 0
 2375 006c 0F30     		add	r0, r0, #15
 2376              	.LVL249:
 2377 006e 1860     		str	r0, [r3]
1583:main.c        **** 					send_upload_open_info(&openInfo_FIRE, CARD_UID_LEN, FIRE_OPEN);
 2378              		.loc 1 1583 0
 2379 0070 0821     		mov	r1, #8
 2380 0072 04A8     		add	r0, sp, #16
 2381              	.LVL250:
 2382 0074 221C     		mov	r2, r4
 2383 0076 FFF7FEFF 		bl	send_upload_open_info
 2384              	.LVL251:
 2385              	.L200:
1584:main.c        **** 				}						
1585:main.c        **** 			}
1586:main.c        **** 			
1587:main.c        **** 			delay_with_ble(2000);
 2386              		.loc 1 1587 0
 2387 007a FA20     		mov	r0, #250
 2388 007c C000     		lsl	r0, r0, #3
 2389 007e FFF7FEFF 		bl	delay_with_ble
 2390              	.LVL252:
1588:main.c        **** 			DoorClose();
 2391              		.loc 1 1588 0
 2392 0082 FFF7FEFF 		bl	DoorClose
 2393              	.LVL253:
1589:main.c        **** 			Led_SetState(LED_State);								// LED的状态切回刷卡前的状态		//
 2394              		.loc 1 1589 0
 2395 0086 064B     		ldr	r3, .L202+12
 2396 0088 587A     		ldrb	r0, [r3, #9]
 2397 008a FFF7FEFF 		bl	Led_SetState
 2398              	.LVL254:
 2399              	.L195:
1590:main.c        **** 		}
ARM GAS  C:\Users\Administrator\AppData\Local\Temp\ccNLOfxN.s 			page 76


1591:main.c        **** 	}
1592:main.c        **** }
 2400              		.loc 1 1592 0
 2401 008e 08B0     		add	sp, sp, #32
 2402              		@ sp needed
 2403 0090 10BD     		pop	{r4, pc}
 2404              	.L203:
 2405 0092 C046     		.align	2
 2406              	.L202:
 2407 0094 00000000 		.word	.LANCHOR1
 2408 0098 00000000 		.word	gprs_state
 2409 009c 00000000 		.word	next_allupload_time
 2410 00a0 00000000 		.word	.LANCHOR0
 2411              		.cfi_endproc
 2412              	.LFE89:
 2413              		.size	FireOpen_Tick, .-FireOpen_Tick
 2414              		.section	.text.DefendAlarm_Tick,"ax",%progbits
 2415              		.align	1
 2416              		.global	DefendAlarm_Tick
 2417              		.code	16
 2418              		.thumb_func
 2419              		.type	DefendAlarm_Tick, %function
 2420              	DefendAlarm_Tick:
 2421              	.LFB90:
1593:main.c        **** 
1594:main.c        **** #if 0	// 之前版本
1595:main.c        **** //*************************************************************************************************
1596:main.c        **** // Function name	: DefendAlarm_Tick
1597:main.c        **** // Description		: 防撬报警的处理
1598:main.c        **** // Parameter		: none
1599:main.c        **** // Return			: none
1600:main.c        **** //-------------------------------------------------------------------------------------------------
1601:main.c        **** // Info				: 
1602:main.c        **** //*************************************************************************************************
1603:main.c        **** void DefendAlarm_Tick(void)
1604:main.c        **** {
1605:main.c        **** 	//if ((0 == DEFEND_ALARM_Read()) && (cur_time > next_gprs_upload_time))
1606:main.c        **** 	if (0 == DEFEND_ALARM_Read())
1607:main.c        **** 	{
1608:main.c        **** 		delay_with_ble(20);
1609:main.c        **** 		if (0 == DEFEND_ALARM_Read())
1610:main.c        **** 		{
1611:main.c        **** 			if (gprs_state == NORMAL_COMM)
1612:main.c        **** 			{
1613:main.c        **** 
1614:main.c        **** 				EnterGuide_State = ALARM_Destroy;
1615:main.c        **** 				send_alarm_info(EnterGuide_State);
1616:main.c        **** 				next_gprs_upload_time = cur_time + 10;
1617:main.c        **** 			}
1618:main.c        **** 		}
1619:main.c        **** 	}
1620:main.c        **** }
1621:main.c        **** #endif
1622:main.c        **** 
1623:main.c        **** #if 1
1624:main.c        **** //*************************************************************************************************
1625:main.c        **** // Function name	: DefendAlarm_Tick
ARM GAS  C:\Users\Administrator\AppData\Local\Temp\ccNLOfxN.s 			page 77


1626:main.c        **** // Description		: 防撬报警的处理
1627:main.c        **** // Parameter		: none
1628:main.c        **** // Return			: none
1629:main.c        **** //-------------------------------------------------------------------------------------------------
1630:main.c        **** // Info				: 只是上报一次，装回撤销报警
1631:main.c        **** //*************************************************************************************************
1632:main.c        **** void DefendAlarm_Tick(void)
1633:main.c        **** {
 2422              		.loc 1 1633 0
 2423              		.cfi_startproc
 2424 0000 08B5     		push	{r3, lr}
 2425              		.cfi_def_cfa_offset 8
 2426              		.cfi_offset 3, -8
 2427              		.cfi_offset 14, -4
1634:main.c        **** 	//if ((0 == DEFEND_ALARM_Read()) && (cur_time > next_gprs_upload_time))
1635:main.c        **** 	if (0 == DEFEND_ALARM_Read())
 2428              		.loc 1 1635 0
 2429 0002 FFF7FEFF 		bl	DEFEND_ALARM_Read
 2430              	.LVL255:
 2431 0006 0028     		cmp	r0, #0
 2432 0008 19D1     		bne	.L205
1636:main.c        **** 	{
1637:main.c        **** 		delay_with_ble(20);
 2433              		.loc 1 1637 0
 2434 000a 1430     		add	r0, r0, #20
 2435 000c FFF7FEFF 		bl	delay_with_ble
 2436              	.LVL256:
1638:main.c        **** 		if (0 == DEFEND_ALARM_Read())
 2437              		.loc 1 1638 0
 2438 0010 FFF7FEFF 		bl	DEFEND_ALARM_Read
 2439              	.LVL257:
 2440 0014 0028     		cmp	r0, #0
 2441 0016 15D1     		bne	.L204
1639:main.c        **** 		{
1640:main.c        **** 			VoicePlay((uint8)Sound_ShortDI);				// 若拆锁 声音一直响 
 2442              		.loc 1 1640 0
 2443 0018 0F30     		add	r0, r0, #15
 2444 001a FFF7FEFF 		bl	VoicePlay
 2445              	.LVL258:
1641:main.c        **** 			
1642:main.c        **** 			if ((next_defend_flag == 0)&&(gprs_state == NORMAL_COMM))
 2446              		.loc 1 1642 0
 2447 001e 0A4B     		ldr	r3, .L209
 2448 0020 1A78     		ldrb	r2, [r3]
 2449 0022 002A     		cmp	r2, #0
 2450 0024 0ED1     		bne	.L204
 2451              		.loc 1 1642 0 is_stmt 0 discriminator 1
 2452 0026 094A     		ldr	r2, .L209+4
 2453 0028 1278     		ldrb	r2, [r2]
 2454 002a 052A     		cmp	r2, #5
 2455 002c 0AD1     		bne	.L204
1643:main.c        **** 			{
1644:main.c        **** 				// 报一次
1645:main.c        **** 				//VoicePlay((uint8)Sound_ShortDI);
1646:main.c        **** 				next_defend_flag = 1;						// 上报服务器只是上报一次
1647:main.c        **** 				EnterGuide_State = ALARM_Destroy;
 2456              		.loc 1 1647 0 is_stmt 1
ARM GAS  C:\Users\Administrator\AppData\Local\Temp\ccNLOfxN.s 			page 78


 2457 002e 0220     		mov	r0, #2
1646:main.c        **** 				EnterGuide_State = ALARM_Destroy;
 2458              		.loc 1 1646 0
 2459 0030 043A     		sub	r2, r2, #4
 2460 0032 1A70     		strb	r2, [r3]
 2461              		.loc 1 1647 0
 2462 0034 064B     		ldr	r3, .L209+8
 2463 0036 1872     		strb	r0, [r3, #8]
1648:main.c        **** 				send_alarm_info(EnterGuide_State);
 2464              		.loc 1 1648 0
 2465 0038 FFF7FEFF 		bl	send_alarm_info
 2466              	.LVL259:
 2467 003c 02E0     		b	.L204
 2468              	.L205:
1649:main.c        **** 			}
1650:main.c        **** 		}
1651:main.c        **** 	}
1652:main.c        **** 	else
1653:main.c        **** 	{
1654:main.c        **** 		next_defend_flag = 0;								//  正常了 说明锁装回 恢复标志位
 2469              		.loc 1 1654 0
 2470 003e 0022     		mov	r2, #0
 2471 0040 014B     		ldr	r3, .L209
 2472 0042 1A70     		strb	r2, [r3]
 2473              	.L204:
1655:main.c        **** 	}
1656:main.c        **** }
 2474              		.loc 1 1656 0
 2475              		@ sp needed
 2476 0044 08BD     		pop	{r3, pc}
 2477              	.L210:
 2478 0046 C046     		.align	2
 2479              	.L209:
 2480 0048 00000000 		.word	next_defend_flag
 2481 004c 00000000 		.word	gprs_state
 2482 0050 00000000 		.word	.LANCHOR0
 2483              		.cfi_endproc
 2484              	.LFE90:
 2485              		.size	DefendAlarm_Tick, .-DefendAlarm_Tick
 2486              		.global	__aeabi_uidivmod
 2487              		.section	.text.UploadOpenInfo_Tick,"ax",%progbits
 2488              		.align	1
 2489              		.global	UploadOpenInfo_Tick
 2490              		.code	16
 2491              		.thumb_func
 2492              		.type	UploadOpenInfo_Tick, %function
 2493              	UploadOpenInfo_Tick:
 2494              	.LFB91:
1657:main.c        **** #endif
1658:main.c        **** 
1659:main.c        **** //*************************************************************************************************
1660:main.c        **** // Function name	: UploadOpenInfo_Tick
1661:main.c        **** // Description		: 开门信息轮训上报处理
1662:main.c        **** // Parameter		: none
1663:main.c        **** // Return			: none
1664:main.c        **** //-------------------------------------------------------------------------------------------------
1665:main.c        **** // Info				: 
ARM GAS  C:\Users\Administrator\AppData\Local\Temp\ccNLOfxN.s 			page 79


1666:main.c        **** //*************************************************************************************************
1667:main.c        **** #if 1
1668:main.c        **** void UploadOpenInfo_Tick(void)
1669:main.c        **** {
 2495              		.loc 1 1669 0
 2496              		.cfi_startproc
 2497              	.LVL260:
1670:main.c        **** 	uint16 OpenQty = 0;
1671:main.c        **** 	uint8  open_flag[256] = {0};
 2498              		.loc 1 1671 0
 2499 0000 8022     		mov	r2, #128
1669:main.c        **** 	uint16 OpenQty = 0;
 2500              		.loc 1 1669 0
 2501 0002 F0B5     		push	{r4, r5, r6, r7, lr}
 2502              		.cfi_def_cfa_offset 20
 2503              		.cfi_offset 4, -20
 2504              		.cfi_offset 5, -16
 2505              		.cfi_offset 6, -12
 2506              		.cfi_offset 7, -8
 2507              		.cfi_offset 14, -4
 2508 0004 C9B0     		sub	sp, sp, #292
 2509              		.cfi_def_cfa_offset 312
 2510              		.loc 1 1671 0
 2511 0006 08AE     		add	r6, sp, #32
 2512 0008 5200     		lsl	r2, r2, #1
 2513 000a 301C     		mov	r0, r6
 2514 000c 0021     		mov	r1, #0
 2515 000e FFF7FEFF 		bl	memset
 2516              	.LVL261:
1672:main.c        **** 	open_door_t repet_info;
1673:main.c        **** 	uint16 i;
1674:main.c        **** 	
1675:main.c        **** 	//1.定时轮询
1676:main.c        **** 	if (gprs_state == NORMAL_COMM)
 2517              		.loc 1 1676 0
 2518 0012 374B     		ldr	r3, .L232
 2519 0014 1A78     		ldrb	r2, [r3]
 2520 0016 0093     		str	r3, [sp]
 2521 0018 052A     		cmp	r2, #5
 2522 001a 66D1     		bne	.L211
1677:main.c        **** 	{
1678:main.c        **** 		cur_time = (uint32)RTC_GetUnixTime();
 2523              		.loc 1 1678 0
 2524 001c FFF7FEFF 		bl	RTC_GetUnixTime
 2525              	.LVL262:
1679:main.c        **** 		if((cur_time > next_gprs_upload_time) && (uploadpolling_stop != 1))
 2526              		.loc 1 1679 0
 2527 0020 344B     		ldr	r3, .L232+4
1678:main.c        **** 		if((cur_time > next_gprs_upload_time) && (uploadpolling_stop != 1))
 2528              		.loc 1 1678 0
 2529 0022 354A     		ldr	r2, .L232+8
 2530              		.loc 1 1679 0
 2531 0024 1969     		ldr	r1, [r3, #16]
1678:main.c        **** 		if((cur_time > next_gprs_upload_time) && (uploadpolling_stop != 1))
 2532              		.loc 1 1678 0
 2533 0026 1060     		str	r0, [r2]
 2534 0028 0192     		str	r2, [sp, #4]
ARM GAS  C:\Users\Administrator\AppData\Local\Temp\ccNLOfxN.s 			page 80


 2535 002a 0293     		str	r3, [sp, #8]
 2536              		.loc 1 1679 0
 2537 002c 8842     		cmp	r0, r1
 2538 002e 5CD9     		bls	.L211
 2539              		.loc 1 1679 0 is_stmt 0 discriminator 1
 2540 0030 324B     		ldr	r3, .L232+12
 2541 0032 1A78     		ldrb	r2, [r3]
 2542 0034 0393     		str	r3, [sp, #12]
 2543 0036 012A     		cmp	r2, #1
 2544 0038 57D0     		beq	.L211
1680:main.c        **** 		{		
1681:main.c        **** 
1682:main.c        **** 			OpenQty = Read_Open_Qty();
 2545              		.loc 1 1682 0 is_stmt 1
 2546 003a FFF7FEFF 		bl	Read_Open_Qty
 2547              	.LVL263:
1683:main.c        **** 			OpenQty %= MAX_OPEN_NUM; 
1684:main.c        **** 			W25QXX_Read(open_flag, (OPEN_FLAG_BASE + openinfopage_offset*256), 256);
 2548              		.loc 1 1684 0
 2549 003e 8022     		mov	r2, #128
 2550 0040 2F4D     		ldr	r5, .L232+16
1682:main.c        **** 			OpenQty %= MAX_OPEN_NUM; 
 2551              		.loc 1 1682 0
 2552 0042 071C     		mov	r7, r0
 2553              	.LVL264:
 2554              		.loc 1 1684 0
 2555 0044 2988     		ldrh	r1, [r5]
 2556 0046 301C     		mov	r0, r6
 2557 0048 1A31     		add	r1, r1, #26
 2558 004a 0902     		lsl	r1, r1, #8
 2559 004c 5200     		lsl	r2, r2, #1
 2560 004e FFF7FEFF 		bl	W25QXX_Read
 2561              	.LVL265:
 2562 0052 0023     		mov	r3, #0
 2563              	.LVL266:
 2564              	.L216:
1685:main.c        **** 			for(i = 0; i < 256; i++)
1686:main.c        **** 			{
1687:main.c        **** 
1688:main.c        **** 				if((0x80 != (0x80 & open_flag[i])) && (open_flag[i] != 0) && (open_flag[i] != 0Xff))
 2565              		.loc 1 1688 0
 2566 0054 F256     		ldrsb	r2, [r6, r3]
 2567 0056 9CB2     		uxth	r4, r3
 2568              	.LVL267:
 2569 0058 002A     		cmp	r2, #0
 2570 005a 05DC     		bgt	.L215
 2571              	.LVL268:
1685:main.c        **** 			for(i = 0; i < 256; i++)
 2572              		.loc 1 1685 0 discriminator 2
 2573 005c 8022     		mov	r2, #128
 2574 005e 0133     		add	r3, r3, #1
 2575              	.LVL269:
 2576 0060 5200     		lsl	r2, r2, #1
 2577 0062 9342     		cmp	r3, r2
 2578 0064 F6D1     		bne	.L216
 2579 0066 04E0     		b	.L230
 2580              	.LVL270:
ARM GAS  C:\Users\Administrator\AppData\Local\Temp\ccNLOfxN.s 			page 81


 2581              	.L215:
1689:main.c        **** 					break;
1690:main.c        **** 			}
1691:main.c        **** 			DBG_SOFT_PutStr("\n after find loop,i = ");
1692:main.c        **** 			DBG_SOFT_PrintfHex(&i,1,16);		
1693:main.c        **** 			
1694:main.c        **** 			if(i == 256)
1695:main.c        **** 			{
1696:main.c        **** 				if((openinfopage_offset + 1) < (OpenQty/256 + (OpenQty%256 ? 1:0)))
1697:main.c        **** 					openinfopage_offset++;								//非最后一页
1698:main.c        **** 				else
1699:main.c        **** 				{
1700:main.c        **** 					uploadpolling_stop = 1;
1701:main.c        **** 					DBG_SOFT_PutStr("\npolling_stop: ");
1702:main.c        **** 					DBG_SOFT_PrintfHex(&uploadpolling_stop,1,16);
1703:main.c        **** 				}
1704:main.c        **** 				DBG_SOFT_PutStr("\nsend_upload_open_info loop,page_offset= ");
1705:main.c        **** 			DBG_SOFT_PrintfHex(&openinfopage_offset,1,16);
1706:main.c        **** 			}
1707:main.c        **** 			else
1708:main.c        **** 			{	
1709:main.c        **** 				//==W25QXX_Read((uint8 *)&repet_info, (OPEN_INFO_BASE + i*sizeof(open_door_t)), sizeof(open_doo
1710:main.c        **** 			#if 1
1711:main.c        **** 			if((i == last_index) && (i != 0))
 2582              		.loc 1 1711 0
 2583 0068 264B     		ldr	r3, .L232+20
 2584 006a 1A88     		ldrh	r2, [r3]
 2585 006c A242     		cmp	r2, r4
 2586 006e 27D1     		bne	.L219
 2587 0070 13E0     		b	.L231
 2588              	.LVL271:
 2589              	.L230:
1683:main.c        **** 			W25QXX_Read(open_flag, (OPEN_FLAG_BASE + openinfopage_offset*256), 256);
 2590              		.loc 1 1683 0
 2591 0072 381C     		mov	r0, r7
 2592 0074 2449     		ldr	r1, .L232+24
 2593 0076 FFF7FEFF 		bl	__aeabi_uidivmod
 2594              	.LVL272:
 2595 007a 89B2     		uxth	r1, r1
1696:main.c        **** 					openinfopage_offset++;								//非最后一页
 2596              		.loc 1 1696 0
 2597 007c 0A0A     		lsr	r2, r1, #8
 2598 007e C9B2     		uxtb	r1, r1
 2599 0080 481E     		sub	r0, r1, #1
 2600 0082 8141     		sbc	r1, r1, r0
 2601 0084 2B88     		ldrh	r3, [r5]
 2602 0086 5118     		add	r1, r2, r1
 2603 0088 0133     		add	r3, r3, #1
 2604 008a 8B42     		cmp	r3, r1
 2605 008c 01DA     		bge	.L220
1697:main.c        **** 				else
 2606              		.loc 1 1697 0
 2607 008e 2B80     		strh	r3, [r5]
 2608 0090 26E0     		b	.L221
 2609              	.L220:
1700:main.c        **** 					DBG_SOFT_PutStr("\npolling_stop: ");
 2610              		.loc 1 1700 0
ARM GAS  C:\Users\Administrator\AppData\Local\Temp\ccNLOfxN.s 			page 82


 2611 0092 0123     		mov	r3, #1
 2612 0094 039A     		ldr	r2, [sp, #12]
 2613 0096 1370     		strb	r3, [r2]
 2614 0098 22E0     		b	.L221
 2615              	.LVL273:
 2616              	.L231:
 2617              		.loc 1 1711 0 discriminator 1
 2618 009a 002C     		cmp	r4, #0
 2619 009c 10D0     		beq	.L219
1712:main.c        **** 			{
1713:main.c        **** 				uploadflag_cnt++;
 2620              		.loc 1 1713 0
 2621 009e 1B4F     		ldr	r7, .L232+28
 2622              	.LVL274:
 2623 00a0 3B78     		ldrb	r3, [r7]
 2624 00a2 0133     		add	r3, r3, #1
 2625 00a4 DBB2     		uxtb	r3, r3
 2626 00a6 3B70     		strb	r3, [r7]
1714:main.c        **** 				if(uploadflag_cnt >= 5)
 2627              		.loc 1 1714 0
 2628 00a8 042B     		cmp	r3, #4
 2629 00aa 0AD9     		bls	.L222
1715:main.c        **** 				{
1716:main.c        **** 					DBG_SOFT_PutStr("\nset opendateflag：");
1717:main.c        **** 					DBG_SOFT_PrintfHex((uint8 *)&uploadflag_cnt,1,16);
1718:main.c        **** 					Write_Open_UploadFlag(i + openinfopage_offset*256, TRUE);		// 重复超过5次 置位该位 
 2630              		.loc 1 1718 0
 2631 00ac 2888     		ldrh	r0, [r5]
 2632 00ae 0121     		mov	r1, #1
 2633 00b0 0002     		lsl	r0, r0, #8
 2634 00b2 2018     		add	r0, r4, r0
 2635 00b4 80B2     		uxth	r0, r0
 2636 00b6 FFF7FEFF 		bl	Write_Open_UploadFlag
 2637              	.LVL275:
1719:main.c        **** 					uploadflag_cnt = 0;
 2638              		.loc 1 1719 0
 2639 00ba 0023     		mov	r3, #0
 2640 00bc 3B70     		strb	r3, [r7]
 2641 00be 00E0     		b	.L222
 2642              	.LVL276:
 2643              	.L219:
1720:main.c        **** 				}
1721:main.c        **** 			}
1722:main.c        **** 			else
1723:main.c        **** 			{
1724:main.c        **** 				last_index = i;
 2644              		.loc 1 1724 0
 2645 00c0 1C80     		strh	r4, [r3]
 2646              	.LVL277:
 2647              	.L222:
1725:main.c        **** 			}
1726:main.c        **** 			#endif
1727:main.c        **** 				Read_OpenInfo(i, (open_door_t *)&repet_info);
 2648              		.loc 1 1727 0
 2649 00c2 201C     		mov	r0, r4
 2650 00c4 04A9     		add	r1, sp, #16
 2651 00c6 FFF7FEFF 		bl	Read_OpenInfo
ARM GAS  C:\Users\Administrator\AppData\Local\Temp\ccNLOfxN.s 			page 83


 2652              	.LVL278:
1728:main.c        **** 				DBG_SOFT_PutStr("\n repet_info :\n");
1729:main.c        **** 				DBG_SOFT_PrintfHex((uint8 *)&repet_info,sizeof(open_door_t),16);
1730:main.c        **** 				//2.条件上报
1731:main.c        **** 				if (gprs_state == NORMAL_COMM)
 2653              		.loc 1 1731 0
 2654 00ca 009B     		ldr	r3, [sp]
 2655 00cc 1B78     		ldrb	r3, [r3]
 2656 00ce 052B     		cmp	r3, #5
 2657 00d0 06D1     		bne	.L221
1732:main.c        **** 				{	
1733:main.c        **** 					send_upload_open_info(&repet_info, CARD_UID_LEN, (open_flag[i] & 0x7f));
 2658              		.loc 1 1733 0
 2659 00d2 325D     		ldrb	r2, [r6, r4]
 2660 00d4 7A33     		add	r3, r3, #122
 2661 00d6 1A40     		and	r2, r3
 2662 00d8 04A8     		add	r0, sp, #16
 2663 00da 0821     		mov	r1, #8
 2664 00dc FFF7FEFF 		bl	send_upload_open_info
 2665              	.LVL279:
 2666              	.L221:
1734:main.c        **** 					//next_gprs_upload_time = cur_time + 10;
1735:main.c        **** 				}
1736:main.c        **** 			}
1737:main.c        **** 			next_gprs_upload_time = cur_time + 60;					//轮训一次就加1min间隔 不管是否上报
 2667              		.loc 1 1737 0
 2668 00e0 019B     		ldr	r3, [sp, #4]
 2669 00e2 029A     		ldr	r2, [sp, #8]
 2670 00e4 1B68     		ldr	r3, [r3]
 2671 00e6 3C33     		add	r3, r3, #60
 2672 00e8 1361     		str	r3, [r2, #16]
 2673              	.L211:
1738:main.c        **** 		}	
1739:main.c        **** 	}
1740:main.c        **** }
 2674              		.loc 1 1740 0
 2675 00ea 49B0     		add	sp, sp, #292
 2676              		@ sp needed
 2677 00ec F0BD     		pop	{r4, r5, r6, r7, pc}
 2678              	.L233:
 2679 00ee C046     		.align	2
 2680              	.L232:
 2681 00f0 00000000 		.word	gprs_state
 2682 00f4 00000000 		.word	.LANCHOR0
 2683 00f8 00000000 		.word	cur_time
 2684 00fc 00000000 		.word	uploadpolling_stop
 2685 0100 00000000 		.word	openinfopage_offset
 2686 0104 00000000 		.word	last_index
 2687 0108 88130000 		.word	5000
 2688 010c 00000000 		.word	uploadflag_cnt
 2689              		.cfi_endproc
 2690              	.LFE91:
 2691              		.size	UploadOpenInfo_Tick, .-UploadOpenInfo_Tick
 2692              		.section	.text.Set_DeviceMacAndName,"ax",%progbits
 2693              		.align	1
 2694              		.global	Set_DeviceMacAndName
 2695              		.code	16
ARM GAS  C:\Users\Administrator\AppData\Local\Temp\ccNLOfxN.s 			page 84


 2696              		.thumb_func
 2697              		.type	Set_DeviceMacAndName, %function
 2698              	Set_DeviceMacAndName:
 2699              	.LFB92:
1741:main.c        **** #endif
1742:main.c        **** 
1743:main.c        **** //*************************************************************************************************
1744:main.c        **** // Function name	: Set_DeviceMacAndName
1745:main.c        **** // Description		: 设置设备的Mac和Name
1746:main.c        **** // Parameter		: mac	: mac地址
1747:main.c        **** //					: name	: 广播名称
1748:main.c        **** // Return			: none
1749:main.c        **** //-------------------------------------------------------------------------------------------------
1750:main.c        **** // Info				: 
1751:main.c        **** //*************************************************************************************************
1752:main.c        **** void Set_DeviceMacAndName(char8 *mac, char8 *name)
1753:main.c        **** {
 2700              		.loc 1 1753 0
 2701              		.cfi_startproc
 2702              	.LVL280:
 2703 0000 7FB5     		push	{r0, r1, r2, r3, r4, r5, r6, lr}
 2704              		.cfi_def_cfa_offset 32
 2705              		.cfi_offset 0, -32
 2706              		.cfi_offset 1, -28
 2707              		.cfi_offset 2, -24
 2708              		.cfi_offset 3, -20
 2709              		.cfi_offset 4, -16
 2710              		.cfi_offset 5, -12
 2711              		.cfi_offset 6, -8
 2712              		.cfi_offset 14, -4
 2713              		.loc 1 1753 0
 2714 0002 0C1C     		mov	r4, r1
1754:main.c        **** 	uint8 i;
1755:main.c        **** 	uint8 local_name[13] = {0x52u, 0x4Bu, 0x4Au, 0x30u, 0x36u,0x30u, 0x31u, 0x30u, 0x31u, 0x30u, 0x31u
 2715              		.loc 1 1755 0
 2716 0004 1649     		ldr	r1, .L241
 2717              	.LVL281:
1753:main.c        **** 	uint8 i;
 2718              		.loc 1 1753 0
 2719 0006 051C     		mov	r5, r0
 2720              		.loc 1 1755 0
 2721 0008 1031     		add	r1, r1, #16
 2722 000a 6846     		mov	r0, sp
 2723              	.LVL282:
 2724 000c 0D22     		mov	r2, #13
 2725 000e FFF7FEFF 		bl	memcpy
 2726              	.LVL283:
 2727 0012 0023     		mov	r3, #0
1756:main.c        **** 	
1757:main.c        **** 	if (NULL != mac)
 2728              		.loc 1 1757 0
 2729 0014 9D42     		cmp	r5, r3
 2730 0016 03D1     		bne	.L235
 2731              	.L238:
 2732 0018 0023     		mov	r3, #0
1758:main.c        **** 	{
1759:main.c        **** 		for (i = 0; i < 6; i++) 
ARM GAS  C:\Users\Administrator\AppData\Local\Temp\ccNLOfxN.s 			page 85


1760:main.c        **** 		{
1761:main.c        **** 			cyBle_deviceAddress.bdAddr[i]   	= mac[5 - i];
1762:main.c        **** 			cyBle_discoveryParam.directAddr[i]	= mac[5 - i];
1763:main.c        **** 		}	
1764:main.c        **** 	}
1765:main.c        **** 	
1766:main.c        **** 	if (NULL != name)
 2733              		.loc 1 1766 0
 2734 001a 9C42     		cmp	r4, r3
 2735 001c 0DD1     		bne	.L236
 2736 001e 1EE0     		b	.L234
 2737              	.L235:
 2738              	.LVL284:
 2739 0020 EA18     		add	r2, r5, r3
1761:main.c        **** 			cyBle_discoveryParam.directAddr[i]	= mac[5 - i];
 2740              		.loc 1 1761 0 discriminator 3
 2741 0022 5679     		ldrb	r6, [r2, #5]
 2742 0024 0F48     		ldr	r0, .L241+4
 2743 0026 5942     		neg	r1, r3
 2744 0028 4654     		strb	r6, [r0, r1]
1762:main.c        **** 		}	
 2745              		.loc 1 1762 0 discriminator 3
 2746 002a 5079     		ldrb	r0, [r2, #5]
 2747 002c 0E4A     		ldr	r2, .L241+8
 2748 002e 013B     		sub	r3, r3, #1
 2749              	.LVL285:
 2750 0030 8A18     		add	r2, r1, r2
 2751 0032 D071     		strb	r0, [r2, #7]
1759:main.c        **** 		{
 2752              		.loc 1 1759 0 discriminator 3
 2753 0034 9A1D     		add	r2, r3, #6
 2754 0036 F3D1     		bne	.L235
 2755 0038 EEE7     		b	.L238
 2756              	.L236:
 2757              	.LVL286:
 2758 003a 0C4A     		ldr	r2, .L241+12
1767:main.c        **** 	{
1768:main.c        **** 		for (i = 0; i < 10; i++)
1769:main.c        **** 		{	
1770:main.c        **** 			cyBle_discoveryData.advData[8 + i] 	 = name[i];
 2759              		.loc 1 1770 0 discriminator 3
 2760 003c E15C     		ldrb	r1, [r4, r3]
 2761 003e 9A18     		add	r2, r3, r2
 2762 0040 1172     		strb	r1, [r2, #8]
 2763 0042 0B4A     		ldr	r2, .L241+16
1771:main.c        **** 			cyBle_scanRspData.scanRspData[5 + i] = name[i];
 2764              		.loc 1 1771 0 discriminator 3
 2765 0044 E15C     		ldrb	r1, [r4, r3]
 2766 0046 9A18     		add	r2, r3, r2
 2767 0048 5171     		strb	r1, [r2, #5]
 2768 004a 1A1C     		mov	r2, r3
1772:main.c        **** 			local_name[3 + i] = name[i];
 2769              		.loc 1 1772 0 discriminator 3
 2770 004c E15C     		ldrb	r1, [r4, r3]
 2771 004e 6A44     		add	r2, r2, sp
 2772 0050 0133     		add	r3, r3, #1
 2773              	.LVL287:
ARM GAS  C:\Users\Administrator\AppData\Local\Temp\ccNLOfxN.s 			page 86


 2774 0052 D170     		strb	r1, [r2, #3]
1768:main.c        **** 		{	
 2775              		.loc 1 1768 0 discriminator 3
 2776 0054 0A2B     		cmp	r3, #10
 2777 0056 F0D1     		bne	.L236
1773:main.c        **** 		}
1774:main.c        **** 		CyBle_GapSetLocalName((char8 *)local_name);
 2778              		.loc 1 1774 0
 2779 0058 6846     		mov	r0, sp
 2780 005a FFF7FEFF 		bl	CyBle_GapSetLocalName
 2781              	.LVL288:
 2782              	.L234:
1775:main.c        **** 	}
1776:main.c        **** }
 2783              		.loc 1 1776 0
 2784              		@ sp needed
 2785              	.LVL289:
 2786              	.LVL290:
 2787 005e 7FBD     		pop	{r0, r1, r2, r3, r4, r5, r6, pc}
 2788              	.L242:
 2789              		.align	2
 2790              	.L241:
 2791 0060 00000000 		.word	.LANCHOR1
 2792 0064 00000000 		.word	cyBle_deviceAddress
 2793 0068 00000000 		.word	cyBle_discoveryParam
 2794 006c 00000000 		.word	cyBle_discoveryData
 2795 0070 00000000 		.word	cyBle_scanRspData
 2796              		.cfi_endproc
 2797              	.LFE92:
 2798              		.size	Set_DeviceMacAndName, .-Set_DeviceMacAndName
 2799              		.section	.text.mac_conver_name,"ax",%progbits
 2800              		.align	1
 2801              		.global	mac_conver_name
 2802              		.code	16
 2803              		.thumb_func
 2804              		.type	mac_conver_name, %function
 2805              	mac_conver_name:
 2806              	.LFB93:
1777:main.c        **** 
1778:main.c        **** //*************************************************************************************************
1779:main.c        **** // Function name	: mac_conver_name
1780:main.c        **** // Description		: 根据mac生成name
1781:main.c        **** // Parameter		: mac	: mac地址
1782:main.c        **** //					: name	: 广播名称
1783:main.c        **** // Return			: none
1784:main.c        **** //-------------------------------------------------------------------------------------------------
1785:main.c        **** // Info				: 
1786:main.c        **** //*************************************************************************************************
1787:main.c        **** #if 0
1788:main.c        **** void mac_conver_name(uint8 mac[], uint8 name[])
1789:main.c        **** {
1790:main.c        **** 	uint8 i;
1791:main.c        **** 	for (i = 0; i < 4; i++)
1792:main.c        **** 	{
1793:main.c        **** 		name[9 - i*2] 	 = (mac[5 - i] % 0x10) + 0x30;
1794:main.c        **** 		name[9 - i*2 -1] = (mac[5 - i] / 0x10) + 0x30;
1795:main.c        **** 	}
ARM GAS  C:\Users\Administrator\AppData\Local\Temp\ccNLOfxN.s 			page 87


1796:main.c        **** }
1797:main.c        **** #endif
1798:main.c        **** 
1799:main.c        **** void mac_conver_name(uint8 mac[], uint8 name[])
1800:main.c        **** {
 2807              		.loc 1 1800 0
 2808              		.cfi_startproc
 2809              	.LVL291:
1801:main.c        **** 	uint8 i;
1802:main.c        **** 	uint8 mac_inflash[6] = {0};
 2810              		.loc 1 1802 0
 2811 0000 0023     		mov	r3, #0
1800:main.c        **** 	uint8 i;
 2812              		.loc 1 1800 0
 2813 0002 F0B5     		push	{r4, r5, r6, r7, lr}
 2814              		.cfi_def_cfa_offset 20
 2815              		.cfi_offset 4, -20
 2816              		.cfi_offset 5, -16
 2817              		.cfi_offset 6, -12
 2818              		.cfi_offset 7, -8
 2819              		.cfi_offset 14, -4
 2820 0004 89B0     		sub	sp, sp, #36
 2821              		.cfi_def_cfa_offset 56
1803:main.c        **** 	uint8 flag = 0;
 2822              		.loc 1 1803 0
 2823 0006 02AA     		add	r2, sp, #8
 2824 0008 D71D     		add	r7, r2, #7
1802:main.c        **** 	uint8 flag = 0;
 2825              		.loc 1 1802 0
 2826 000a 04AE     		add	r6, sp, #16
 2827              		.loc 1 1803 0
 2828 000c D371     		strb	r3, [r2, #7]
1800:main.c        **** 	uint8 i;
 2829              		.loc 1 1800 0
 2830 000e 0191     		str	r1, [sp, #4]
1804:main.c        **** 	uint8 tmpmac[8] = {0};
1805:main.c        **** 	
1806:main.c        **** 	#if 0
1807:main.c        **** 	//0.手动写mac信息入flash的方式  省去蓝牙配置--50套 **云端更新程序要去掉
1808:main.c        **** 	W25QXX_Write(mac, MAC_BASE, (uint16)sizeof(mac_inflash));
1809:main.c        **** 	flag = 1;
1810:main.c        **** 	W25QXX_Write(&flag, MACFLAG_BASE, 1);
1811:main.c        **** 	flag = 0;
1812:main.c        **** 	#endif
1813:main.c        **** 	
1814:main.c        **** 	//1.读flash 有没有生产初始化过
1815:main.c        **** 	W25QXX_Read(&flag, MACFLAG_BASE, 1);
 2831              		.loc 1 1815 0
 2832 0010 0122     		mov	r2, #1
 2833 0012 2549     		ldr	r1, .L249
 2834              	.LVL292:
1800:main.c        **** 	uint8 i;
 2835              		.loc 1 1800 0
 2836 0014 051C     		mov	r5, r0
1804:main.c        **** 	uint8 tmpmac[8] = {0};
 2837              		.loc 1 1804 0
 2838 0016 06AC     		add	r4, sp, #24
ARM GAS  C:\Users\Administrator\AppData\Local\Temp\ccNLOfxN.s 			page 88


 2839              		.loc 1 1815 0
 2840 0018 381C     		mov	r0, r7
 2841              	.LVL293:
1802:main.c        **** 	uint8 flag = 0;
 2842              		.loc 1 1802 0
 2843 001a 0493     		str	r3, [sp, #16]
 2844 001c B380     		strh	r3, [r6, #4]
1804:main.c        **** 	uint8 tmpmac[8] = {0};
 2845              		.loc 1 1804 0
 2846 001e 0693     		str	r3, [sp, #24]
 2847 0020 6360     		str	r3, [r4, #4]
 2848              		.loc 1 1815 0
 2849 0022 FFF7FEFF 		bl	W25QXX_Read
 2850              	.LVL294:
1816:main.c        **** 	W25QXX_Read(mac_inflash, MAC_BASE, (uint16)sizeof(mac_inflash));
 2851              		.loc 1 1816 0
 2852 0026 C921     		mov	r1, #201
 2853 0028 0622     		mov	r2, #6
 2854 002a 301C     		mov	r0, r6
 2855 002c 4902     		lsl	r1, r1, #9
 2856 002e FFF7FEFF 		bl	W25QXX_Read
 2857              	.LVL295:
1817:main.c        **** 	if((mac_inflash[0] == 0x06) && (mac_inflash[1] == 0x01) && (flag == 1))
 2858              		.loc 1 1817 0
 2859 0032 3278     		ldrb	r2, [r6]
 2860 0034 062A     		cmp	r2, #6
 2861 0036 09D1     		bne	.L244
 2862              		.loc 1 1817 0 is_stmt 0 discriminator 1
 2863 0038 7378     		ldrb	r3, [r6, #1]
 2864 003a 012B     		cmp	r3, #1
 2865 003c 06D1     		bne	.L244
 2866              		.loc 1 1817 0 discriminator 2
 2867 003e 3B78     		ldrb	r3, [r7]
 2868 0040 012B     		cmp	r3, #1
 2869 0042 03D1     		bne	.L244
1818:main.c        **** 	{
1819:main.c        **** 		memcpy(mac, mac_inflash, sizeof(mac_inflash));
 2870              		.loc 1 1819 0 is_stmt 1
 2871 0044 281C     		mov	r0, r5
 2872 0046 311C     		mov	r1, r6
 2873 0048 FFF7FEFF 		bl	memcpy
 2874              	.LVL296:
 2875              	.L244:
1820:main.c        **** 	}	
1821:main.c        **** 
1822:main.c        **** 	//2.没有 用这里默认的 手动mac(08)
1823:main.c        **** 	#if  0
1824:main.c        **** 	for (i = 0; i < 4; i++)
1825:main.c        **** 	{
1826:main.c        **** 		if((mac[i] >= 0x41)&&(mac[i] <= 0x46))
1827:main.c        **** 		{
1828:main.c        **** 			name[9 - i*2] 	 = (mac[5 - i] % 0x10);
1829:main.c        **** 			name[9 - i*2 -1] = (mac[5 - i] / 0x10);
1830:main.c        **** 		}
1831:main.c        **** 		else
1832:main.c        **** 		{
1833:main.c        **** 			name[9 - i*2] 	 = (mac[5 - i] % 0x10) + 0x30;
ARM GAS  C:\Users\Administrator\AppData\Local\Temp\ccNLOfxN.s 			page 89


1834:main.c        **** 			name[9 - i*2 -1] = (mac[5 - i] / 0x10) + 0x30;
1835:main.c        **** 		}
1836:main.c        **** 	}		
1837:main.c        **** 	#endif
1838:main.c        **** 	tmpmac[7] = mac[5] % 0x10;
 2876              		.loc 1 1838 0
 2877 004c 6A79     		ldrb	r2, [r5, #5]
 2878 004e 0F23     		mov	r3, #15
 2879 0050 111C     		mov	r1, r2
1839:main.c        **** 	tmpmac[6] = mac[5] / 0x10;
 2880              		.loc 1 1839 0
 2881 0052 1209     		lsr	r2, r2, #4
 2882 0054 A271     		strb	r2, [r4, #6]
1840:main.c        **** 	tmpmac[5] = mac[4] % 0x10;
 2883              		.loc 1 1840 0
 2884 0056 2A79     		ldrb	r2, [r5, #4]
1838:main.c        **** 	tmpmac[6] = mac[5] / 0x10;
 2885              		.loc 1 1838 0
 2886 0058 1940     		and	r1, r3
 2887 005a E171     		strb	r1, [r4, #7]
 2888              		.loc 1 1840 0
 2889 005c 111C     		mov	r1, r2
1841:main.c        **** 	tmpmac[4] = mac[4] / 0x10;
 2890              		.loc 1 1841 0
 2891 005e 1209     		lsr	r2, r2, #4
 2892 0060 2271     		strb	r2, [r4, #4]
1842:main.c        **** 	tmpmac[3] = mac[3] % 0x10;
 2893              		.loc 1 1842 0
 2894 0062 EA78     		ldrb	r2, [r5, #3]
1840:main.c        **** 	tmpmac[4] = mac[4] / 0x10;
 2895              		.loc 1 1840 0
 2896 0064 1940     		and	r1, r3
 2897 0066 6171     		strb	r1, [r4, #5]
 2898              		.loc 1 1842 0
 2899 0068 111C     		mov	r1, r2
1843:main.c        **** 	tmpmac[2] = mac[3] / 0x10;
 2900              		.loc 1 1843 0
 2901 006a 1209     		lsr	r2, r2, #4
 2902 006c A270     		strb	r2, [r4, #2]
1844:main.c        **** 	tmpmac[1] = mac[2] % 0x10;
 2903              		.loc 1 1844 0
 2904 006e AA78     		ldrb	r2, [r5, #2]
1842:main.c        **** 	tmpmac[2] = mac[3] / 0x10;
 2905              		.loc 1 1842 0
 2906 0070 1940     		and	r1, r3
 2907              		.loc 1 1844 0
 2908 0072 1340     		and	r3, r2
1845:main.c        **** 	tmpmac[0] = mac[2] / 0x10;
 2909              		.loc 1 1845 0
 2910 0074 1209     		lsr	r2, r2, #4
 2911 0076 2270     		strb	r2, [r4]
 2912              	.LVL297:
 2913 0078 0022     		mov	r2, #0
1842:main.c        **** 	tmpmac[2] = mac[3] / 0x10;
 2914              		.loc 1 1842 0
 2915 007a E170     		strb	r1, [r4, #3]
1844:main.c        **** 	tmpmac[1] = mac[2] % 0x10;
ARM GAS  C:\Users\Administrator\AppData\Local\Temp\ccNLOfxN.s 			page 90


 2916              		.loc 1 1844 0
 2917 007c 6370     		strb	r3, [r4, #1]
 2918              	.LVL298:
 2919              	.L247:
1846:main.c        **** 	
1847:main.c        **** 	for (i = 0; i < 8; i++)
1848:main.c        **** 	{
1849:main.c        **** 		#if 1
1850:main.c        **** 		if((tmpmac[i] >= 0x0A)&&(tmpmac[i] <=0x0F))
 2920              		.loc 1 1850 0
 2921 007e A35C     		ldrb	r3, [r4, r2]
 2922 0080 191C     		mov	r1, r3
 2923 0082 0A39     		sub	r1, r1, #10
 2924 0084 0529     		cmp	r1, #5
 2925 0086 03D8     		bhi	.L245
 2926 0088 0199     		ldr	r1, [sp, #4]
1851:main.c        **** 		{
1852:main.c        **** 			name[i+2] = tmpmac[i] + 0x37;
 2927              		.loc 1 1852 0
 2928 008a 3733     		add	r3, r3, #55
 2929 008c 8918     		add	r1, r1, r2
 2930 008e 04E0     		b	.L248
 2931              	.L245:
1853:main.c        **** 		}
1854:main.c        **** 		else if((tmpmac[i] >= 0x00)&&(tmpmac[i] <= 0x09))	
 2932              		.loc 1 1854 0
 2933 0090 092B     		cmp	r3, #9
 2934 0092 03D8     		bhi	.L246
 2935 0094 0199     		ldr	r1, [sp, #4]
1855:main.c        **** 		{
1856:main.c        **** 			name[i+2] = tmpmac[i] + 0x30;
 2936              		.loc 1 1856 0
 2937 0096 3033     		add	r3, r3, #48
 2938 0098 8918     		add	r1, r1, r2
 2939              	.L248:
 2940 009a 8B70     		strb	r3, [r1, #2]
 2941              	.L246:
 2942              	.LVL299:
 2943 009c 0132     		add	r2, r2, #1
 2944              	.LVL300:
1847:main.c        **** 	{
 2945              		.loc 1 1847 0 discriminator 2
 2946 009e 082A     		cmp	r2, #8
 2947 00a0 EDD1     		bne	.L247
1857:main.c        **** 		}
1858:main.c        **** 		#endif
1859:main.c        **** 	}
1860:main.c        **** }
 2948              		.loc 1 1860 0
 2949 00a2 09B0     		add	sp, sp, #36
 2950              		@ sp needed
 2951              	.LVL301:
 2952 00a4 F0BD     		pop	{r4, r5, r6, r7, pc}
 2953              	.L250:
 2954 00a6 C046     		.align	2
 2955              	.L249:
 2956 00a8 06920100 		.word	102918
ARM GAS  C:\Users\Administrator\AppData\Local\Temp\ccNLOfxN.s 			page 91


 2957              		.cfi_endproc
 2958              	.LFE93:
 2959              		.size	mac_conver_name, .-mac_conver_name
 2960              		.section	.text.startup.main,"ax",%progbits
 2961              		.align	1
 2962              		.global	main
 2963              		.code	16
 2964              		.thumb_func
 2965              		.type	main, %function
 2966              	main:
 2967              	.LFB94:
1861:main.c        **** 
1862:main.c        **** //*************************************************************************************************
1863:main.c        **** // Function name	: main
1864:main.c        **** // Description		: 主函数
1865:main.c        **** // Parameter		: none
1866:main.c        **** // Return			: none
1867:main.c        **** //-------------------------------------------------------------------------------------------------
1868:main.c        **** // Info				: 
1869:main.c        **** //*************************************************************************************************
1870:main.c        **** int main(void)
1871:main.c        **** {
 2968              		.loc 1 1871 0
 2969              		.cfi_startproc
 2970 0000 30B5     		push	{r4, r5, lr}
 2971              		.cfi_def_cfa_offset 12
 2972              		.cfi_offset 4, -12
 2973              		.cfi_offset 5, -8
 2974              		.cfi_offset 14, -4
1872:main.c        **** 	uint8 ret,i,tmp,count;
1873:main.c        **** 	uint8 setmac[]= {0x06, 0x01, 0x88, 0x88, 0x88, 0x88};			// 手动设置mac						//
 2975              		.loc 1 1873 0
 2976 0002 3F4C     		ldr	r4, .L261
1871:main.c        **** 	uint8 ret,i,tmp,count;
 2977              		.loc 1 1871 0
 2978 0004 87B0     		sub	sp, sp, #28
 2979              		.cfi_def_cfa_offset 40
 2980              		.loc 1 1873 0
 2981 0006 211C     		mov	r1, r4
 2982 0008 01A8     		add	r0, sp, #4
 2983 000a 1D31     		add	r1, r1, #29
 2984 000c 0622     		mov	r2, #6
 2985 000e FFF7FEFF 		bl	memcpy
 2986              	.LVL302:
1874:main.c        **** 	uint8 setname[] = {0x30u, 0x36u, 
 2987              		.loc 1 1874 0
 2988 0012 211C     		mov	r1, r4
 2989 0014 0A22     		mov	r2, #10
 2990 0016 2331     		add	r1, r1, #35
 2991 0018 03A8     		add	r0, sp, #12
 2992 001a FFF7FEFF 		bl	memcpy
 2993              	.LVL303:
1875:main.c        **** 						0x30u, 0x31u,
1876:main.c        **** 						0x30u, 0x31u, 
1877:main.c        **** 		 				0x30u, 0x31u, 
1878:main.c        **** 						0x30u, 0x38u};
1879:main.c        **** 	
ARM GAS  C:\Users\Administrator\AppData\Local\Temp\ccNLOfxN.s 			page 92


1880:main.c        **** #if !defined(__ARMCC_VERSION)
1881:main.c        ****     InitializeBootloaderSRAM();
 2994              		.loc 1 1881 0
 2995 001e FFF7FEFF 		bl	InitializeBootloaderSRAM
 2996              	.LVL304:
1882:main.c        **** #endif
1883:main.c        **** 
1884:main.c        **** 	CyGlobalIntEnable;
 2997              		.loc 1 1884 0
 2998              	@ 1884 "main.c" 1
 2999 0022 62B6     		CPSIE   i
 3000              	@ 0 "" 2
1885:main.c        **** 	
1886:main.c        **** 		// 提前检测GPRS模块状态 status 并开启						@0321修复6311模块启动status电平不
1887:main.c        **** 	//GPRS_SetON();
1888:main.c        **** 	
1889:main.c        **** 	LED_State = RED;
 3001              		.loc 1 1889 0
 3002              		.code	16
 3003 0024 0125     		mov	r5, #1
 3004 0026 374C     		ldr	r4, .L261+4
 3005 0028 6572     		strb	r5, [r4, #9]
 3006              	.LVL305:
 3007              	.LBB64:
 3008              	.LBB65:
 383:main.c        **** 	}
 3009              		.loc 1 383 0
 3010 002a FFF7FEFF 		bl	Led_RedON
 3011              	.LVL306:
 3012              	.LBE65:
 3013              	.LBE64:
1890:main.c        **** 	Led_SetState(LED_State);										// 上电设置状态为红灯亮				// 
1891:main.c        **** 	DoorClose();													// 上电门关闭						//
 3014              		.loc 1 1891 0
 3015 002e FFF7FEFF 		bl	DoorClose
 3016              	.LVL307:
1892:main.c        **** 	
1893:main.c        **** 	UART_433_tx_Write(0);											// 初始GSM串口拉低
 3017              		.loc 1 1893 0
 3018 0032 0020     		mov	r0, #0
 3019 0034 FFF7FEFF 		bl	UART_433_tx_Write
 3020              	.LVL308:
1894:main.c        **** 
1895:main.c        **** 	Timer_INT_ISR_StartEx(Timer_InterruptHandler);					// 开启定时器中断					//
 3021              		.loc 1 1895 0
 3022 0038 3348     		ldr	r0, .L261+8
 3023 003a FFF7FEFF 		bl	Timer_INT_ISR_StartEx
 3024              	.LVL309:
1896:main.c        ****     Timer_100ms_Start();											// 定时器初始化						//
 3025              		.loc 1 1896 0
 3026 003e FFF7FEFF 		bl	Timer_100ms_Start
 3027              	.LVL310:
1897:main.c        **** 	
1898:main.c        **** 	W25QXX_Init();
 3028              		.loc 1 1898 0
 3029 0042 FFF7FEFF 		bl	W25QXX_Init
 3030              	.LVL311:
ARM GAS  C:\Users\Administrator\AppData\Local\Temp\ccNLOfxN.s 			page 93


1899:main.c        **** 	// 获取系统启动原因，检查是否是重新上电 <上电重启 = 0x00>	 										//
1900:main.c        **** 	if (0x10 != CySysGetResetReason(CY_SYS_RESET_WDT | CY_SYS_RESET_PROTFAULT | CY_SYS_RESET_SW))
 3031              		.loc 1 1900 0
 3032 0046 1920     		mov	r0, #25
 3033 0048 FFF7FEFF 		bl	CySysGetResetReason
 3034              	.LVL312:
 3035 004c 1028     		cmp	r0, #16
 3036 004e 19D0     		beq	.L252
1901:main.c        **** 	{
1902:main.c        **** 		SendMacFlag = 0;
 3037              		.loc 1 1902 0
 3038 0050 0023     		mov	r3, #0
 3039 0052 2375     		strb	r3, [r4, #20]
1903:main.c        **** 		tmp = Read_CenterIpType();
 3040              		.loc 1 1903 0
 3041 0054 FFF7FEFF 		bl	Read_CenterIpType
 3042              	.LVL313:
1904:main.c        **** 		if(tmp == 5)
 3043              		.loc 1 1904 0
 3044 0058 0528     		cmp	r0, #5
 3045 005a 01D1     		bne	.L253
1905:main.c        **** 		{
1906:main.c        **** 			
1907:main.c        **** 			VoicePlay((uint8)Sound_SYSTEM_POWER_ON);
 3046              		.loc 1 1907 0
 3047 005c 0730     		add	r0, r0, #7
 3048              	.LVL314:
 3049 005e 00E0     		b	.L260
 3050              	.LVL315:
 3051              	.L253:
1908:main.c        **** 		}
1909:main.c        **** 		else
1910:main.c        **** 		{
1911:main.c        **** 			VoicePlay((uint8)Sound_SYSTEM_POWER_ON_TEST);
 3052              		.loc 1 1911 0
 3053 0060 1120     		mov	r0, #17
 3054              	.LVL316:
 3055              	.L260:
 3056 0062 FFF7FEFF 		bl	VoicePlay
 3057              	.LVL317:
1912:main.c        **** 		}
1913:main.c        **** 		#if 1
1914:main.c        **** 		// 第一次 开启
1915:main.c        **** 		GPRS_PWRKEY_Write(1);
 3058              		.loc 1 1915 0
 3059 0066 0120     		mov	r0, #1
 3060 0068 FFF7FEFF 		bl	GPRS_PWRKEY_Write
 3061              	.LVL318:
 3062 006c 1F25     		mov	r5, #31
 3063              	.LVL319:
 3064              	.L255:
 3065 006e 013D     		sub	r5, r5, #1
 3066              	.LVL320:
1916:main.c        **** 		count = 0;
1917:main.c        **** 		while (count <= 30)
1918:main.c        **** 		{
1919:main.c        **** 			CyDelay(100);
ARM GAS  C:\Users\Administrator\AppData\Local\Temp\ccNLOfxN.s 			page 94


 3067              		.loc 1 1919 0
 3068 0070 6420     		mov	r0, #100
 3069 0072 EDB2     		uxtb	r5, r5
 3070 0074 FFF7FEFF 		bl	CyDelay
 3071              	.LVL321:
1917:main.c        **** 		{
 3072              		.loc 1 1917 0
 3073 0078 002D     		cmp	r5, #0
 3074 007a F8D1     		bne	.L255
1920:main.c        **** 			count++;
1921:main.c        **** 		}
1922:main.c        **** 		GPRS_PWRKEY_Write(0);
 3075              		.loc 1 1922 0
 3076 007c 281C     		mov	r0, r5
 3077 007e FFF7FEFF 		bl	GPRS_PWRKEY_Write
 3078              	.LVL322:
 3079 0082 00E0     		b	.L256
 3080              	.L252:
1923:main.c        **** 		#endif
1924:main.c        **** 	}
1925:main.c        **** 	else
1926:main.c        **** 	{
1927:main.c        **** 		SendMacFlag = 1;
 3081              		.loc 1 1927 0
 3082 0084 2575     		strb	r5, [r4, #20]
 3083              	.L256:
1928:main.c        **** 		
1929:main.c        **** 	}
1930:main.c        **** 
1931:main.c        **** 	WDT_ISR_StartEx(WDT_Interrupt);									// 看门狗中断						//
 3084              		.loc 1 1931 0
 3085 0086 2148     		ldr	r0, .L261+12
 3086 0088 FFF7FEFF 		bl	WDT_ISR_StartEx
 3087              	.LVL323:
1932:main.c        **** 	WDT_Start();													// 看门狗定时器初始化				//	
 3088              		.loc 1 1932 0
 3089 008c FFF7FEFF 		bl	WDT_Start
 3090              	.LVL324:
1933:main.c        **** 	
1934:main.c        **** 	cur_time = 1483200000;											// 默认将时间设置为2017-1-1 0:0:0	//
 3091              		.loc 1 1934 0
 3092 0090 1F4B     		ldr	r3, .L261+16
 3093 0092 204D     		ldr	r5, .L261+20
 3094 0094 2B60     		str	r3, [r5]
1935:main.c        **** 	RTC_Start();													// RTC时钟初始化					//
 3095              		.loc 1 1935 0
 3096 0096 FFF7FEFF 		bl	RTC_Start
 3097              	.LVL325:
1936:main.c        **** 	RTC_SetUnixTime(cur_time);										// 将默认的时间写到RTC中			//
 3098              		.loc 1 1936 0
 3099 009a 2868     		ldr	r0, [r5]
 3100 009c 0021     		mov	r1, #0
 3101 009e FFF7FEFF 		bl	RTC_SetUnixTime
 3102              	.LVL326:
1937:main.c        **** 	
1938:main.c        **** 	nfc_init();														// 刷卡功能初始化					//
 3103              		.loc 1 1938 0
ARM GAS  C:\Users\Administrator\AppData\Local\Temp\ccNLOfxN.s 			page 95


 3104 00a2 FFF7FEFF 		bl	nfc_init
 3105              	.LVL327:
1939:main.c        **** 	mac_conver_name(setmac, setname);
 3106              		.loc 1 1939 0
 3107 00a6 01A8     		add	r0, sp, #4
 3108 00a8 03A9     		add	r1, sp, #12
 3109 00aa FFF7FEFF 		bl	mac_conver_name
 3110              	.LVL328:
1940:main.c        **** 	Set_DeviceMacAndName((char8 *)setmac, (char8 *)setname);		// 设置mac、name					//
 3111              		.loc 1 1940 0
 3112 00ae 03A9     		add	r1, sp, #12
 3113 00b0 01A8     		add	r0, sp, #4
 3114 00b2 FFF7FEFF 		bl	Set_DeviceMacAndName
 3115              	.LVL329:
1941:main.c        **** 	
1942:main.c        **** 	CyBle_Start(AppCallback);										// 开启蓝牙功能						//
 3116              		.loc 1 1942 0
 3117 00b6 1848     		ldr	r0, .L261+24
 3118 00b8 FFF7FEFF 		bl	CyBle_Start
 3119              	.LVL330:
1943:main.c        **** 	
1944:main.c        **** 	GPRSPowerOn_0321();												// GPRS开机并等初始化完成			//
 3120              		.loc 1 1944 0
 3121 00bc FFF7FEFF 		bl	GPRSPowerOn_0321
 3122              	.LVL331:
1945:main.c        **** 	ret = GPRS_TestAndWaitCommonOK();								// 测试GPRS AT指令通讯是否正常		//
 3123              		.loc 1 1945 0
 3124 00c0 FFF7FEFF 		bl	GPRS_TestAndWaitCommonOK
 3125              	.LVL332:
1946:main.c        **** 	if (ret == TRUE)
 3126              		.loc 1 1946 0
 3127 00c4 0128     		cmp	r0, #1
 3128 00c6 0AD1     		bne	.L259
1947:main.c        **** 	{
1948:main.c        **** 		GPRS_OpenNetworkLED();
 3129              		.loc 1 1948 0
 3130 00c8 FFF7FEFF 		bl	GPRS_OpenNetworkLED
 3131              	.LVL333:
1949:main.c        **** 		
1950:main.c        **** 		ret = GPRS_CheckConnectState();
 3132              		.loc 1 1950 0
 3133 00cc FFF7FEFF 		bl	GPRS_CheckConnectState
 3134              	.LVL334:
1951:main.c        **** 		if (ret == TRUE)
 3135              		.loc 1 1951 0
 3136 00d0 0128     		cmp	r0, #1
 3137 00d2 02D1     		bne	.L258
1952:main.c        **** 		{	
1953:main.c        **** 			GPRS_ClosedConnect();
 3138              		.loc 1 1953 0
 3139 00d4 FFF7FEFF 		bl	GPRS_ClosedConnect
 3140              	.LVL335:
 3141 00d8 01E0     		b	.L259
 3142              	.LVL336:
 3143              	.L258:
1954:main.c        **** 		}
1955:main.c        **** 		else
ARM GAS  C:\Users\Administrator\AppData\Local\Temp\ccNLOfxN.s 			page 96


1956:main.c        **** 		{
1957:main.c        **** 			GPRS_SetConnectMode();
 3144              		.loc 1 1957 0
 3145 00da FFF7FEFF 		bl	GPRS_SetConnectMode
 3146              	.LVL337:
 3147              	.L259:
1958:main.c        **** 		}
1959:main.c        **** 	}
1960:main.c        **** 	#if DBG_SOFT_ENNABLE
1961:main.c        **** 	DBG_SOFT_PutString("BLE SmartGuard Project.\n");					// 初始化完成后，发送Log信息		//
1962:main.c        **** 	DBG_SOFT_PutString("System Version:");								// 版本								//
1963:main.c        **** 	DBG_SOFT_PutHexInt(system_version);
1964:main.c        **** 	DBG_SOFT_PutString("\nProtocl Version:");							// 通讯协议版本，02加密				//
1965:main.c        **** 	DBG_SOFT_PutHexInt(PROTOCOL_VER);
1966:main.c        **** 	#if 1
1967:main.c        **** 		DBG_SOFT_PutString("\nDevice Mac:");
1968:main.c        **** 	for (i = 0; i < 6; i++)
1969:main.c        **** 	{
1970:main.c        **** 		DBG_SOFT_PutHexByte(Mac_Addr[i]);
1971:main.c        **** 		if(i < 5)
1972:main.c        **** 			DBG_SOFT_PutString("-");	
1973:main.c        **** 	}
1974:main.c        **** 	DBG_SOFT_PutString("\n");
1975:main.c        **** 	#endif
1976:main.c        **** 	#endif
1977:main.c        **** 	
1978:main.c        **** 	while(1) 
1979:main.c        **** 	{
1980:main.c        **** 		BLE_Tick();
 3148              		.loc 1 1980 0 discriminator 1
 3149 00de FFF7FEFF 		bl	BLE_Tick
 3150              	.LVL338:
1981:main.c        **** 		GPRS_Tick();
 3151              		.loc 1 1981 0 discriminator 1
 3152 00e2 FFF7FEFF 		bl	GPRS_Tick
 3153              	.LVL339:
1982:main.c        **** 		CARD_Tick();
 3154              		.loc 1 1982 0 discriminator 1
 3155 00e6 FFF7FEFF 		bl	CARD_Tick
 3156              	.LVL340:
1983:main.c        **** 		KeyOpen_Tick(); 
 3157              		.loc 1 1983 0 discriminator 1
 3158 00ea FFF7FEFF 		bl	KeyOpen_Tick
 3159              	.LVL341:
1984:main.c        **** 		FireOpen_Tick();
 3160              		.loc 1 1984 0 discriminator 1
 3161 00ee FFF7FEFF 		bl	FireOpen_Tick
 3162              	.LVL342:
1985:main.c        **** 		//--DefendAlarm_Tick();				// 防止撬锁 先不开 2018-3-8
1986:main.c        **** 		Reboot_Check();
 3163              		.loc 1 1986 0 discriminator 1
 3164 00f2 FFF7FEFF 		bl	Reboot_Check
 3165              	.LVL343:
1987:main.c        **** 		
1988:main.c        **** 		Led_SetState(LED_State);
 3166              		.loc 1 1988 0 discriminator 1
 3167 00f6 607A     		ldrb	r0, [r4, #9]
ARM GAS  C:\Users\Administrator\AppData\Local\Temp\ccNLOfxN.s 			page 97


 3168 00f8 FFF7FEFF 		bl	Led_SetState
 3169              	.LVL344:
1989:main.c        **** 		
1990:main.c        **** 		//--UploadOpenInfo_Tick();
1991:main.c        **** 	}
 3170              		.loc 1 1991 0 discriminator 1
 3171 00fc EFE7     		b	.L259
 3172              	.L262:
 3173 00fe C046     		.align	2
 3174              	.L261:
 3175 0100 00000000 		.word	.LANCHOR1
 3176 0104 00000000 		.word	.LANCHOR0
 3177 0108 00000000 		.word	Timer_InterruptHandler
 3178 010c 00000000 		.word	WDT_Interrupt
 3179 0110 00D66758 		.word	1483200000
 3180 0114 00000000 		.word	cur_time
 3181 0118 00000000 		.word	AppCallback
 3182              		.cfi_endproc
 3183              	.LFE94:
 3184              		.size	main, .-main
 3185              		.comm	picc_sak,3,1
 3186              		.comm	picc_uid,15,1
 3187              		.comm	picc_atqa,2,1
 3188              		.comm	ADCResultCenter,1,1
 3189              		.comm	next_defend_flag,1,1
 3190              		.comm	mem_var,4,4
 3191              		.comm	reboot_count,1,1
 3192              		.comm	stop_reboot,1,1
 3193              		.comm	flag_reboot,1,1
 3194              		.comm	Card_ErrCount,1,1
 3195              		.global	CardCheck_CountTime
 3196              		.comm	heartbeat_lasttime,4,4
 3197              		.global	heartbeat_SendCount
 3198              		.global	gprs_operation_ErrCount
 3199              		.global	update_timeout_time
 3200              		.global	update_timeout_count
 3201              		.comm	last_index,2,2
 3202              		.comm	uploadflag_cnt,1,1
 3203              		.comm	uploadpolling_stop,1,1
 3204              		.comm	openinfopage_offset,2,2
 3205              		.comm	next_keyopen_time,4,4
 3206              		.comm	next_allupload_time,4,4
 3207              		.global	next_gprs_upload_time
 3208              		.comm	next_gprs_operation_time,4,4
 3209              		.comm	next_heartbeat_time,4,4
 3210              		.comm	next_network_time,4,4
 3211              		.comm	cur_time,4,4
 3212              		.comm	BleCmdValidFlag,1,1
 3213              		.comm	BleCmdBuf,1050,1
 3214              		.comm	CurrentDataNum,1,1
 3215              		.comm	CurrentCommandPktTotalSize,2,2
 3216              		.comm	GPRSCmd_buf2,1050,1
 3217              		.comm	GPRSCmd_buf1,1050,1
 3218              		.comm	GPRSCmdParseFlag2,1,1
 3219              		.comm	GPRSCmdParseFlag1,1,1
 3220              		.comm	GPRS_AT_RecFinish,1,1
 3221              		.comm	GPRS_AT_Buf,64,1
ARM GAS  C:\Users\Administrator\AppData\Local\Temp\ccNLOfxN.s 			page 98


 3222              		.comm	recv_timeout,4,4
 3223              		.comm	wait_timeout,4,4
 3224              		.comm	Mac_Addr,6,1
 3225              		.comm	Read_Mac_Flag,1,1
 3226              		.comm	Image_size,4,4
 3227              		.comm	update_offset,4,4
 3228              		.comm	update_page,2,2
 3229              		.comm	update_report,1,1
 3230              		.comm	update_flag,1,1
 3231              		.comm	update_version,2,2
 3232              		.comm	update_port,5,1
 3233              		.comm	update_ip,16,1
 3234              		.comm	pre_port,5,1
 3235              		.comm	pre_ip,200,1
 3236              		.comm	domain,200,1
 3237              		.global	SendMacFlag
 3238              		.global	EnterGuide_State
 3239              		.comm	gprs_state,1,1
 3240              		.global	LED_State
 3241              		.global	system_version
 3242              		.section	.rodata
 3243              		.set	.LANCHOR1,. + 0
 3244              	.LC0:
 3245 0000 FF       		.byte	-1
 3246 0001 FF       		.byte	-1
 3247 0002 FF       		.byte	-1
 3248 0003 FF       		.byte	-1
 3249 0004 FF       		.byte	-1
 3250 0005 FF       		.byte	-1
 3251 0006 FF       		.byte	-1
 3252 0007 02       		.byte	2
 3253              	.LC1:
 3254 0008 FF       		.byte	-1
 3255 0009 FF       		.byte	-1
 3256 000a FF       		.byte	-1
 3257 000b FF       		.byte	-1
 3258 000c FF       		.byte	-1
 3259 000d FF       		.byte	-1
 3260 000e FF       		.byte	-1
 3261 000f 01       		.byte	1
 3262              	.LC2:
 3263 0010 52       		.byte	82
 3264 0011 4B       		.byte	75
 3265 0012 4A       		.byte	74
 3266 0013 30       		.byte	48
 3267 0014 36       		.byte	54
 3268 0015 30       		.byte	48
 3269 0016 31       		.byte	49
 3270 0017 30       		.byte	48
 3271 0018 31       		.byte	49
 3272 0019 30       		.byte	48
 3273 001a 31       		.byte	49
 3274 001b 30       		.byte	48
 3275 001c 31       		.byte	49
 3276              	.LC3:
 3277 001d 06       		.byte	6
 3278 001e 01       		.byte	1
ARM GAS  C:\Users\Administrator\AppData\Local\Temp\ccNLOfxN.s 			page 99


 3279 001f 88       		.byte	-120
 3280 0020 88       		.byte	-120
 3281 0021 88       		.byte	-120
 3282 0022 88       		.byte	-120
 3283              	.LC4:
 3284 0023 30       		.byte	48
 3285 0024 36       		.byte	54
 3286 0025 30       		.byte	48
 3287 0026 31       		.byte	49
 3288 0027 30       		.byte	48
 3289 0028 31       		.byte	49
 3290 0029 30       		.byte	48
 3291 002a 31       		.byte	49
 3292 002b 30       		.byte	48
 3293 002c 38       		.byte	56
 3294              		.data
 3295              		.type	system_version, %object
 3296              		.size	system_version, 1
 3297              	system_version:
 3298 0000 0A       		.byte	10
 3299              		.bss
 3300              		.align	2
 3301              		.set	.LANCHOR0,. + 0
 3302              		.type	CardCheck_CountTime, %object
 3303              		.size	CardCheck_CountTime, 4
 3304              	CardCheck_CountTime:
 3305 0000 00000000 		.space	4
 3306              		.type	update_timeout_time, %object
 3307              		.size	update_timeout_time, 4
 3308              	update_timeout_time:
 3309 0004 00000000 		.space	4
 3310              		.type	EnterGuide_State, %object
 3311              		.size	EnterGuide_State, 1
 3312              	EnterGuide_State:
 3313 0008 00       		.space	1
 3314              		.type	LED_State, %object
 3315              		.size	LED_State, 1
 3316              	LED_State:
 3317 0009 00       		.space	1
 3318              		.type	gprs_operation_ErrCount, %object
 3319              		.size	gprs_operation_ErrCount, 1
 3320              	gprs_operation_ErrCount:
 3321 000a 00       		.space	1
 3322              		.type	heartbeat_SendCount, %object
 3323              		.size	heartbeat_SendCount, 1
 3324              	heartbeat_SendCount:
 3325 000b 00       		.space	1
 3326              		.type	update_timeout_count, %object
 3327              		.size	update_timeout_count, 1
 3328              	update_timeout_count:
 3329 000c 00       		.space	1
 3330 000d 000000   		.space	3
 3331              		.type	next_gprs_upload_time, %object
 3332              		.size	next_gprs_upload_time, 4
 3333              	next_gprs_upload_time:
 3334 0010 00000000 		.space	4
 3335              		.type	SendMacFlag, %object
ARM GAS  C:\Users\Administrator\AppData\Local\Temp\ccNLOfxN.s 			page 100


 3336              		.size	SendMacFlag, 1
 3337              	SendMacFlag:
 3338 0014 00       		.space	1
 3339 0015 000000   		.text
 3340              	.Letext0:
 3341              		.file 2 "c:\\program files (x86)\\cypress\\psoc creator\\4.0\\psoc creator\\import\\gnu\\arm\\4.9.
 3342              		.file 3 "c:\\program files (x86)\\cypress\\psoc creator\\4.0\\psoc creator\\import\\gnu\\arm\\4.9.
 3343              		.file 4 "Generated_Source\\PSoC4/cytypes.h"
 3344              		.file 5 ".\\Code\\Common/config.h"
 3345              		.file 6 ".\\Code\\Device\\W25Q80/user_data.h"
 3346              		.file 7 "./OTAMandatory.h"
 3347              		.file 8 ".\\Code\\Common/variable.h"
 3348              		.file 9 ".\\Code\\Device\\BLE/Bluetooth.h"
 3349              		.file 10 ".\\Code\\Device\\FM175XX\\LPCD/lpcd_api.h"
 3350              		.file 11 ".\\Code\\Device\\FM175XX\\IOS14443/type_a.h"
 3351              		.file 12 "Generated_Source\\PSoC4/CyLib.h"
 3352              		.file 13 "Generated_Source\\PSoC4/cyPm.h"
 3353              		.file 14 "Generated_Source\\PSoC4/LED_RED.h"
 3354              		.file 15 "Generated_Source\\PSoC4/LED_BLUE.h"
 3355              		.file 16 "Generated_Source\\PSoC4/LED_GREEN.h"
 3356              		.file 17 "Generated_Source\\PSoC4/DOOR_OPEN.h"
 3357              		.file 18 ".\\Code\\Device\\W25Q80/w25qxx.h"
 3358              		.file 19 ".\\Code\\UserApp\\Protocol/CmdProtocol.h"
 3359              		.file 20 ".\\Code\\Device\\FM175XX/card.h"
 3360              		.file 21 "Generated_Source\\PSoC4/RTC.h"
 3361              		.file 22 ".\\Code\\Device\\FM175XX/fm175xx.h"
 3362              		.file 23 ".\\Code\\UserApp\\Voice/voice.h"
 3363              		.file 24 ".\\Code\\Device\\WDT/UserWDT.h"
 3364              		.file 25 "Generated_Source\\PSoC4/GPRS_PWRKEY.h"
 3365              		.file 26 "Generated_Source\\PSoC4/GPRS_STATE.h"
 3366              		.file 27 ".\\Code\\Device\\GPRS/AtProtocol.h"
 3367              		.file 28 "Generated_Source\\PSoC4/cmd433_INT_ISR.h"
 3368              		.file 29 "Generated_Source\\PSoC4/UART_433.h"
 3369              		.file 30 "Generated_Source\\PSoC4/Bootloadable.h"
 3370              		.file 31 "Generated_Source\\PSoC4/GPRS_RESET.h"
 3371              		.file 32 "Generated_Source\\PSoC4/KEY_OPEN.h"
 3372              		.file 33 "Generated_Source\\PSoC4/FIRE_OPEN.h"
 3373              		.file 34 "Generated_Source\\PSoC4/DEFEND_ALARM.h"
 3374              		.file 35 "Generated_Source\\PSoC4/UART_433_tx.h"
 3375              		.file 36 "Generated_Source\\PSoC4/Timer_INT_ISR.h"
 3376              		.file 37 "Generated_Source\\PSoC4/Timer_100ms.h"
 3377              		.file 38 "Generated_Source\\PSoC4/WDT_ISR.h"