ARM GAS  C:\Users\zhiantec\AppData\Local\Temp\ccHNdoAW.s 			page 1


   1              		.cpu cortex-m0
   2              		.fpu softvfp
   3              		.eabi_attribute 20, 1
   4              		.eabi_attribute 21, 1
   5              		.eabi_attribute 23, 3
   6              		.eabi_attribute 24, 1
   7              		.eabi_attribute 25, 1
   8              		.eabi_attribute 26, 1
   9              		.eabi_attribute 30, 4
  10              		.eabi_attribute 34, 0
  11              		.eabi_attribute 18, 4
  12              		.code	16
  13              		.file	"OTAMandatory.c"
  14              		.text
  15              	.Ltext0:
  16              		.cfi_sections	.debug_frame
  17              		.section	.text.Bootloader_Start_c,"ax",%progbits
  18              		.align	1
  19              		.global	Bootloader_Start_c
  20              		.code	16
  21              		.thumb_func
  22              		.type	Bootloader_Start_c, %function
  23              	Bootloader_Start_c:
  24              	.LFB63:
  25              		.file 1 "OTAMandatory.c"
   1:OTAMandatory.c **** /*******************************************************************************
   2:OTAMandatory.c **** * File Name: OTAMandatory.c
   3:OTAMandatory.c **** *
   4:OTAMandatory.c **** * Version: 1.30
   5:OTAMandatory.c **** *
   6:OTAMandatory.c **** * Description:
   7:OTAMandatory.c **** *  Provides an API that implement core functionality of OTA.
   8:OTAMandatory.c **** *
   9:OTAMandatory.c **** * Hardware Dependency:
  10:OTAMandatory.c **** *  CY8CKIT-042 BLE
  11:OTAMandatory.c **** *
  12:OTAMandatory.c **** ********************************************************************************
  13:OTAMandatory.c **** * Copyright 2014-2015, Cypress Semiconductor Corporation. All rights reserved.
  14:OTAMandatory.c **** * This software is owned by Cypress Semiconductor Corporation and is protected
  15:OTAMandatory.c **** * by and subject to worldwide patent and copyright laws and treaties.
  16:OTAMandatory.c **** * Therefore, you may use this software only as provided in the license agreement
  17:OTAMandatory.c **** * accompanying the software package from which you obtained this software.
  18:OTAMandatory.c **** * CYPRESS AND ITS SUPPLIERS MAKE NO WARRANTY OF ANY KIND, EXPRESS OR IMPLIED,
  19:OTAMandatory.c **** * WITH REGARD TO THIS SOFTWARE, INCLUDING, BUT NOT LIMITED TO, NONINFRINGEMENT,
  20:OTAMandatory.c **** * IMPLIED WARRANTIES OF MERCHANTABILITY AND FITNESS FOR A PARTICULAR PURPOSE.
  21:OTAMandatory.c **** *******************************************************************************/
  22:OTAMandatory.c **** #include "cytypes.h"
  23:OTAMandatory.c **** #include "OTAMandatory.h"
  24:OTAMandatory.c **** #include "debug.h"
  25:OTAMandatory.c **** #include "common.h"
  26:OTAMandatory.c **** 
  27:OTAMandatory.c **** #if defined(__ARMCC_VERSION)
  28:OTAMandatory.c ****     /*******************************************************************************
  29:OTAMandatory.c ****     * Following code implements re-initialization of separate RAM segment containing
  30:OTAMandatory.c ****     * data that is required for BLE Stack operation.
  31:OTAMandatory.c ****     * This code is used in case of MDK compiler.
  32:OTAMandatory.c ****     *******************************************************************************/
ARM GAS  C:\Users\zhiantec\AppData\Local\Temp\ccHNdoAW.s 			page 2


  33:OTAMandatory.c ****     __attribute__ ((section(".bootloaderruntype"), zero_init))
  34:OTAMandatory.c ****     volatile uint32 CyReturnToBootloaddableAddress;
  35:OTAMandatory.c ****     extern void Bootloader__main(void);
  36:OTAMandatory.c ****     void InitializeBootloaderSRAM(void);
  37:OTAMandatory.c ****     extern int main(void);
  38:OTAMandatory.c ****     extern int $Super$$main(void);
  39:OTAMandatory.c ****     extern void initialize_psoc(void);
  40:OTAMandatory.c **** 
  41:OTAMandatory.c ****     /*******************************************************************************
  42:OTAMandatory.c ****     * Function Name: _platform_post_lib_init()
  43:OTAMandatory.c ****     ********************************************************************************
  44:OTAMandatory.c ****     *
  45:OTAMandatory.c ****     * Summary:
  46:OTAMandatory.c ****     *   This function is called by MDK compiler startup code.
  47:OTAMandatory.c ****     *
  48:OTAMandatory.c ****     * Parameters:
  49:OTAMandatory.c ****     *   None
  50:OTAMandatory.c ****     *
  51:OTAMandatory.c ****     *******************************************************************************/
  52:OTAMandatory.c ****     void _platform_post_lib_init()
  53:OTAMandatory.c ****     {
  54:OTAMandatory.c ****         initialize_psoc();
  55:OTAMandatory.c ****         InitializeBootloaderSRAM();
  56:OTAMandatory.c ****     }
  57:OTAMandatory.c **** #elif defined (__GNUC__)
  58:OTAMandatory.c ****     /*******************************************************************************
  59:OTAMandatory.c ****     * Following code implements re-initialization of separate RAM segment containing
  60:OTAMandatory.c ****     * data that is required for BLE Stack operation.
  61:OTAMandatory.c ****     * This code is used in case of GCC compiler
  62:OTAMandatory.c ****     *******************************************************************************/
  63:OTAMandatory.c ****     extern void Bootloader__libc_init_array(void);
  64:OTAMandatory.c ****     typedef unsigned char __cy_byte_align8 __attribute ((aligned (8)));
  65:OTAMandatory.c ****     struct __cy_region
  66:OTAMandatory.c ****     {
  67:OTAMandatory.c ****         __cy_byte_align8 *init; /* Initial contents of this region.  */
  68:OTAMandatory.c ****         __cy_byte_align8 *data; /* Start address of region.  */
  69:OTAMandatory.c ****         size_t init_size;       /* Size of initial data.  */
  70:OTAMandatory.c ****         size_t zero_size;       /* Additional size to be zeroed.  */
  71:OTAMandatory.c ****     };
  72:OTAMandatory.c ****     extern const struct __cy_region Bootloader__cy_regions[];
  73:OTAMandatory.c ****     extern const char Bootloader__cy_region_num __attribute__((weak));
  74:OTAMandatory.c ****     
  75:OTAMandatory.c ****     
  76:OTAMandatory.c ****     #define Bootloader__cy_region_num ((size_t)&Bootloader__cy_region_num)
  77:OTAMandatory.c ****     
  78:OTAMandatory.c **** 
  79:OTAMandatory.c ****     /*******************************************************************************
  80:OTAMandatory.c ****     * Function Name: Bootloader_Start_c()
  81:OTAMandatory.c ****     ********************************************************************************
  82:OTAMandatory.c ****     *
  83:OTAMandatory.c ****     * Summary:
  84:OTAMandatory.c ****     *   This function initializes bootloader RAM .bss section. It is required for 
  85:OTAMandatory.c ****     *   BLE Stack operation.
  86:OTAMandatory.c ****     *
  87:OTAMandatory.c ****     * Parameters:
  88:OTAMandatory.c ****     *   None
  89:OTAMandatory.c ****     *
ARM GAS  C:\Users\zhiantec\AppData\Local\Temp\ccHNdoAW.s 			page 3


  90:OTAMandatory.c ****     *******************************************************************************/
  91:OTAMandatory.c ****     void Bootloader_Start_c(void)
  92:OTAMandatory.c ****     {
  26              		.loc 1 92 0
  27              		.cfi_startproc
  28              	.LVL0:
  29 0000 70B5     		push	{r4, r5, r6, lr}
  30              		.cfi_def_cfa_offset 16
  31              		.cfi_offset 4, -16
  32              		.cfi_offset 5, -12
  33              		.cfi_offset 6, -8
  34              		.cfi_offset 14, -4
  35 0002 0E49     		ldr	r1, .L12
  93:OTAMandatory.c ****         unsigned regions = Bootloader__cy_region_num;
  94:OTAMandatory.c ****         const struct __cy_region *rptr = Bootloader__cy_regions;
  36              		.loc 1 94 0
  37 0004 0E4B     		ldr	r3, .L12+4
  38 0006 0139     		sub	r1, r1, #1
  39              	.LVL1:
  40              	.L2:
  95:OTAMandatory.c **** 
  96:OTAMandatory.c ****         /* Initialize memory */
  97:OTAMandatory.c ****         for (regions = Bootloader__cy_region_num; regions != 0u; regions--)
  41              		.loc 1 97 0 discriminator 1
  42 0008 4A1C     		add	r2, r1, #1
  43 000a 15D0     		beq	.L9
  44              	.LBB2:
  98:OTAMandatory.c ****         {
  99:OTAMandatory.c ****             uint32 *src = (uint32 *)rptr->init;
 100:OTAMandatory.c ****             uint32 *dst = (uint32 *)rptr->data;
 101:OTAMandatory.c ****             unsigned limit = rptr->init_size;
 102:OTAMandatory.c ****             unsigned count;
 103:OTAMandatory.c **** 
 104:OTAMandatory.c ****             for (count = 0u; count != limit; count += sizeof (uint32))
  45              		.loc 1 104 0
  46 000c 0022     		mov	r2, #0
  99:OTAMandatory.c ****             uint32 *dst = (uint32 *)rptr->data;
  47              		.loc 1 99 0
  48 000e 1E68     		ldr	r6, [r3]
  49              	.LVL2:
 100:OTAMandatory.c ****             unsigned limit = rptr->init_size;
  50              		.loc 1 100 0
  51 0010 5C68     		ldr	r4, [r3, #4]
  52              	.LVL3:
 101:OTAMandatory.c ****             unsigned count;
  53              		.loc 1 101 0
  54 0012 9D68     		ldr	r5, [r3, #8]
  55              	.LVL4:
  56              	.L3:
  57 0014 A018     		add	r0, r4, r2
  58              	.LVL5:
  59              		.loc 1 104 0 discriminator 1
  60 0016 AA42     		cmp	r2, r5
  61 0018 03D0     		beq	.L10
 105:OTAMandatory.c ****             {
 106:OTAMandatory.c ****                 *dst = *src;
  62              		.loc 1 106 0 discriminator 3
ARM GAS  C:\Users\zhiantec\AppData\Local\Temp\ccHNdoAW.s 			page 4


  63 001a B058     		ldr	r0, [r6, r2]
  64              	.LVL6:
  65 001c A050     		str	r0, [r4, r2]
  66              	.LVL7:
 104:OTAMandatory.c ****             {
  67              		.loc 1 104 0 discriminator 3
  68 001e 0432     		add	r2, r2, #4
  69              	.LVL8:
  70 0020 F8E7     		b	.L3
  71              	.LVL9:
  72              	.L10:
  73 0022 021C     		mov	r2, r0
  74              	.LVL10:
 107:OTAMandatory.c ****                 dst++;
 108:OTAMandatory.c ****                 src++;
 109:OTAMandatory.c ****             }
 110:OTAMandatory.c ****             limit = rptr->zero_size;
  75              		.loc 1 110 0
  76 0024 DC68     		ldr	r4, [r3, #12]
  77              	.LVL11:
  78              	.L5:
  79 0026 151A     		sub	r5, r2, r0
  80              	.LVL12:
 111:OTAMandatory.c ****             for (count = 0u; count != limit; count += sizeof (uint32))
  81              		.loc 1 111 0 discriminator 1
  82 0028 A542     		cmp	r5, r4
  83 002a 02D0     		beq	.L11
 112:OTAMandatory.c ****             {
 113:OTAMandatory.c ****                 *dst = 0u;
  84              		.loc 1 113 0 discriminator 3
  85 002c 0025     		mov	r5, #0
  86              	.LVL13:
  87 002e 20C2     		stmia	r2!, {r5}
  88              	.LVL14:
  89 0030 F9E7     		b	.L5
  90              	.LVL15:
  91              	.L11:
 114:OTAMandatory.c ****                 dst++;
 115:OTAMandatory.c ****             }
 116:OTAMandatory.c **** 
 117:OTAMandatory.c ****             rptr++;
  92              		.loc 1 117 0 discriminator 2
  93 0032 1033     		add	r3, r3, #16
  94              	.LVL16:
  95 0034 0139     		sub	r1, r1, #1
  96              	.LVL17:
  97 0036 E7E7     		b	.L2
  98              	.LVL18:
  99              	.L9:
 100              	.LBE2:
 118:OTAMandatory.c ****         }
 119:OTAMandatory.c **** 
 120:OTAMandatory.c ****         /* Invoke static objects constructors using Bootloader__libc_init_array() function call her
 121:OTAMandatory.c ****          * if they are needed.
 122:OTAMandatory.c ****          */
 123:OTAMandatory.c **** }   
 101              		.loc 1 123 0
ARM GAS  C:\Users\zhiantec\AppData\Local\Temp\ccHNdoAW.s 			page 5


 102              		@ sp needed
 103 0038 70BD     		pop	{r4, r5, r6, pc}
 104              	.L13:
 105 003a C046     		.align	2
 106              	.L12:
 107 003c 00000000 		.word	Bootloader__cy_region_num
 108 0040 00000000 		.word	Bootloader__cy_regions
 109              		.cfi_endproc
 110              	.LFE63:
 111              		.size	Bootloader_Start_c, .-Bootloader_Start_c
 112              		.section	.text.InitializeBootloaderSRAM,"ax",%progbits
 113              		.align	1
 114              		.global	InitializeBootloaderSRAM
 115              		.code	16
 116              		.thumb_func
 117              		.type	InitializeBootloaderSRAM, %function
 118              	InitializeBootloaderSRAM:
 119              	.LFB64:
 124:OTAMandatory.c **** #elif defined (__ICCARM__)
 125:OTAMandatory.c ****     /*******************************************************************************
 126:OTAMandatory.c ****     * Following code implements re-initialization of separate RAM segment containing
 127:OTAMandatory.c ****     * data that is required for BLE Stack operation.
 128:OTAMandatory.c ****     * This code is used in case of IAR compiler.
 129:OTAMandatory.c ****     *******************************************************************************/
 130:OTAMandatory.c ****     extern void Bootloader__iar_data_init3(void);
 131:OTAMandatory.c **** #endif  /* (__ARMCC_VERSION) */
 132:OTAMandatory.c **** 
 133:OTAMandatory.c **** 
 134:OTAMandatory.c **** /*******************************************************************************
 135:OTAMandatory.c **** * Function Name: Bootloader_Start_c()
 136:OTAMandatory.c **** ********************************************************************************
 137:OTAMandatory.c **** *
 138:OTAMandatory.c **** * Summary:
 139:OTAMandatory.c **** *   This function triggers initialization of bootloader RAM .bss section.
 140:OTAMandatory.c **** *   It is required for BLE Stack operation. This function should be called from
 141:OTAMandatory.c **** *   main() prior BLE component start.
 142:OTAMandatory.c **** *
 143:OTAMandatory.c **** * Parameters:
 144:OTAMandatory.c **** *   None
 145:OTAMandatory.c **** *
 146:OTAMandatory.c **** *******************************************************************************/
 147:OTAMandatory.c **** void InitializeBootloaderSRAM()
 148:OTAMandatory.c **** {
 120              		.loc 1 148 0
 121              		.cfi_startproc
 122 0000 08B5     		push	{r3, lr}
 123              		.cfi_def_cfa_offset 8
 124              		.cfi_offset 3, -8
 125              		.cfi_offset 14, -4
 149:OTAMandatory.c **** #if defined(__ARMCC_VERSION)
 150:OTAMandatory.c ****     CyReturnToBootloaddableAddress = (uint32)$Super$$main;
 151:OTAMandatory.c ****     Bootloader__main();
 152:OTAMandatory.c **** #elif defined (__GNUC__)
 153:OTAMandatory.c ****     Bootloader_Start_c();
 126              		.loc 1 153 0
 127 0002 FFF7FEFF 		bl	Bootloader_Start_c
 128              	.LVL19:
ARM GAS  C:\Users\zhiantec\AppData\Local\Temp\ccHNdoAW.s 			page 6


 154:OTAMandatory.c **** #elif defined (__ICCARM__)
 155:OTAMandatory.c ****     Bootloader__iar_data_init3();
 156:OTAMandatory.c **** #endif /* defined(__ARMCC_VERSION) */
 157:OTAMandatory.c **** }
 129              		.loc 1 157 0
 130              		@ sp needed
 131 0006 08BD     		pop	{r3, pc}
 132              		.cfi_endproc
 133              	.LFE64:
 134              		.size	InitializeBootloaderSRAM, .-InitializeBootloaderSRAM
 135              		.section	.text.ConfigureSharedPins,"ax",%progbits
 136              		.align	1
 137              		.global	ConfigureSharedPins
 138              		.code	16
 139              		.thumb_func
 140              		.type	ConfigureSharedPins, %function
 141              	ConfigureSharedPins:
 142              	.LFB65:
 158:OTAMandatory.c **** 
 159:OTAMandatory.c **** 
 160:OTAMandatory.c **** /*******************************************************************************
 161:OTAMandatory.c **** * Function Name: ConfigureSharedPins()
 162:OTAMandatory.c **** ********************************************************************************
 163:OTAMandatory.c **** *
 164:OTAMandatory.c **** * Summary:
 165:OTAMandatory.c **** *   This function configures shared pins.
 166:OTAMandatory.c **** *
 167:OTAMandatory.c **** * Parameters:
 168:OTAMandatory.c **** *   None
 169:OTAMandatory.c **** *
 170:OTAMandatory.c **** *******************************************************************************/
 171:OTAMandatory.c **** void ConfigureSharedPins()
 172:OTAMandatory.c **** {
 143              		.loc 1 172 0
 144              		.cfi_startproc
 145 0000 08B5     		push	{r3, lr}
 146              		.cfi_def_cfa_offset 8
 147              		.cfi_offset 3, -8
 148              		.cfi_offset 14, -4
 173:OTAMandatory.c **** #if 0
 174:OTAMandatory.c ****     Disconnect_LED_SetDriveMode(LED_1_DM_RES_UP);
 175:OTAMandatory.c ****     Advertising_LED_SetDriveMode(LED_1_DM_RES_UP);
 176:OTAMandatory.c ****     CapsLock_LED_SetDriveMode(LED_1_DM_RES_UP);
 177:OTAMandatory.c ****     Disconnect_LED_Write(LED_OFF);
 178:OTAMandatory.c ****     Advertising_LED_Write(LED_OFF);
 179:OTAMandatory.c ****     CapsLock_LED_Write(LED_OFF);
 180:OTAMandatory.c **** #endif
 181:OTAMandatory.c **** //    Bootloader_Service_Activation_SetDriveMode(LED_1_DM_RES_UP);
 182:OTAMandatory.c ****     Bootloader_Service_Activation_Write(1);
 149              		.loc 1 182 0
 150 0002 0120     		mov	r0, #1
 151 0004 FFF7FEFF 		bl	Bootloader_Service_Activation_Write
 152              	.LVL20:
 183:OTAMandatory.c **** }
 153              		.loc 1 183 0
 154              		@ sp needed
 155 0008 08BD     		pop	{r3, pc}
ARM GAS  C:\Users\zhiantec\AppData\Local\Temp\ccHNdoAW.s 			page 7


 156              		.cfi_endproc
 157              	.LFE65:
 158              		.size	ConfigureSharedPins, .-ConfigureSharedPins
 159              		.section	.text.BootloaderSwitch,"ax",%progbits
 160              		.align	1
 161              		.global	BootloaderSwitch
 162              		.code	16
 163              		.thumb_func
 164              		.type	BootloaderSwitch, %function
 165              	BootloaderSwitch:
 166              	.LFB66:
 184:OTAMandatory.c **** 
 185:OTAMandatory.c **** 
 186:OTAMandatory.c **** /*******************************************************************************
 187:OTAMandatory.c **** * Function Name: BootloaderSwitch()
 188:OTAMandatory.c **** ********************************************************************************
 189:OTAMandatory.c **** *
 190:OTAMandatory.c **** * Summary:
 191:OTAMandatory.c **** *   This function polls SW2 button and if it is pressed - shedules bootloader 
 192:OTAMandatory.c **** *   project launch. That action includes sotware reset.
 193:OTAMandatory.c **** *
 194:OTAMandatory.c **** * Parameters:
 195:OTAMandatory.c **** *   None
 196:OTAMandatory.c **** *
 197:OTAMandatory.c **** *******************************************************************************/
 198:OTAMandatory.c **** void BootloaderSwitch()
 199:OTAMandatory.c **** {
 167              		.loc 1 199 0
 168              		.cfi_startproc
 200:OTAMandatory.c **** 
 201:OTAMandatory.c ****     DBG_PRINTF("Bootloader activation button pressed \r\n");
 202:OTAMandatory.c ****     DBG_PRINTF("Switching to bootloader application... \r\n");
 203:OTAMandatory.c ****     CyDelay(500);
 169              		.loc 1 203 0
 170 0000 FA20     		mov	r0, #250
 199:OTAMandatory.c **** 
 171              		.loc 1 199 0
 172 0002 08B5     		push	{r3, lr}
 173              		.cfi_def_cfa_offset 8
 174              		.cfi_offset 3, -8
 175              		.cfi_offset 14, -4
 176              		.loc 1 203 0
 177 0004 4000     		lsl	r0, r0, #1
 178 0006 FFF7FEFF 		bl	CyDelay
 179              	.LVL21:
 204:OTAMandatory.c **** 
 205:OTAMandatory.c ****     CyBle_Shutdown(); /* stop all ongoing activities */
 180              		.loc 1 205 0
 181 000a FFF7FEFF 		bl	CyBle_Shutdown
 182              	.LVL22:
 206:OTAMandatory.c ****     CyBle_ProcessEvents(); /* process all pending events */
 183              		.loc 1 206 0
 184 000e FFF7FEFF 		bl	CyBle_ProcessEvents
 185              	.LVL23:
 207:OTAMandatory.c ****     CyBle_SetState(CYBLE_STATE_STOPPED);
 186              		.loc 1 207 0
 187 0012 0022     		mov	r2, #0
ARM GAS  C:\Users\zhiantec\AppData\Local\Temp\ccHNdoAW.s 			page 8


 188 0014 024B     		ldr	r3, .L17
 189 0016 1A70     		strb	r2, [r3]
 208:OTAMandatory.c **** //           CySysWdtUnlock();
 209:OTAMandatory.c **** //            CySysWdtDisable(WDT_COUNTER_MASK);
 210:OTAMandatory.c ****     CyGlobalIntDisable;
 190              		.loc 1 210 0
 191              	@ 210 "OTAMandatory.c" 1
 192 0018 72B6     		CPSID   i
 193              	@ 0 "" 2
 211:OTAMandatory.c ****     Bootloadable_Load();
 194              		.loc 1 211 0
 195              		.code	16
 196 001a FFF7FEFF 		bl	Bootloadable_Load
 197              	.LVL24:
 212:OTAMandatory.c **** }
 198              		.loc 1 212 0
 199              		@ sp needed
 200 001e 08BD     		pop	{r3, pc}
 201              	.L18:
 202              		.align	2
 203              	.L17:
 204 0020 00000000 		.word	cyBle_state
 205              		.cfi_endproc
 206              	.LFE66:
 207              		.size	BootloaderSwitch, .-BootloaderSwitch
 208              		.section	.text.ConfigureServices,"ax",%progbits
 209              		.align	1
 210              		.global	ConfigureServices
 211              		.code	16
 212              		.thumb_func
 213              		.type	ConfigureServices, %function
 214              	ConfigureServices:
 215              	.LFB67:
 213:OTAMandatory.c **** 
 214:OTAMandatory.c **** 
 215:OTAMandatory.c **** /*******************************************************************************
 216:OTAMandatory.c **** * Function Name: ConfigureServices()
 217:OTAMandatory.c **** ********************************************************************************
 218:OTAMandatory.c **** *
 219:OTAMandatory.c **** * Summary:
 220:OTAMandatory.c **** *   This function configures BLE component services to match required
 221:OTAMandatory.c **** *   configuration.
 222:OTAMandatory.c **** *
 223:OTAMandatory.c **** * Parameters:
 224:OTAMandatory.c **** *   None
 225:OTAMandatory.c **** *
 226:OTAMandatory.c **** *******************************************************************************/
 227:OTAMandatory.c **** void ConfigureServices()
 228:OTAMandatory.c **** {
 216              		.loc 1 228 0
 217              		.cfi_startproc
 229:OTAMandatory.c **** //    CyBle_GattsDisableAttribute(CYBLE_BTS_SERVICE_HANDLE);
 230:OTAMandatory.c **** 
 231:OTAMandatory.c **** #if defined(__ICCARM__)
 232:OTAMandatory.c ****     CyBle_GattsEnableAttribute(CYBLE_HID_SERVICE_HANDLE);
 233:OTAMandatory.c ****     CyBle_GattsEnableAttribute(CYBLE_DIS_SERVICE_HANDLE);
 234:OTAMandatory.c ****     CyBle_GattsEnableAttribute(CYBLE_BAS_SERVICE_HANDLE);
ARM GAS  C:\Users\zhiantec\AppData\Local\Temp\ccHNdoAW.s 			page 9


 235:OTAMandatory.c ****     CyBle_GattsEnableAttribute(CYBLE_SCPS_SERVICE_HANDLE);
 236:OTAMandatory.c **** #endif /* defined(__ICCARM__) */
 237:OTAMandatory.c **** }
 218              		.loc 1 237 0
 219              		@ sp needed
 220 0000 7047     		bx	lr
 221              		.cfi_endproc
 222              	.LFE67:
 223              		.size	ConfigureServices, .-ConfigureServices
 224              		.weak	Bootloader__cy_region_num
 225              		.text
 226              	.Letext0:
 227              		.file 2 "Generated_Source\\PSoC4/cytypes.h"
 228              		.file 3 "OTAMandatory.h"
 229              		.file 4 "c:\\program files (x86)\\cypress\\psoc creator\\4.0\\psoc creator\\import\\gnu\\arm\\4.9.
 230              		.file 5 "Generated_Source\\PSoC4/CyLib.h"
 231              		.file 6 "Generated_Source\\PSoC4/Bootloadable.h"