ARM GAS  C:\Users\zhiantec\AppData\Local\Temp\ccsSOYXN.s 			page 1


   1              		.cpu cortex-m0
   2              		.fpu softvfp
   3              		.eabi_attribute 20, 1
   4              		.eabi_attribute 21, 1
   5              		.eabi_attribute 23, 3
   6              		.eabi_attribute 24, 1
   7              		.eabi_attribute 25, 1
   8              		.eabi_attribute 26, 1
   9              		.eabi_attribute 30, 4
  10              		.eabi_attribute 34, 0
  11              		.eabi_attribute 18, 4
  12              		.code	16
  13              		.file	"Timer_100ms.c"
  14              		.text
  15              	.Ltext0:
  16              		.cfi_sections	.debug_frame
  17              		.section	.text.Timer_100ms_Init,"ax",%progbits
  18              		.align	1
  19              		.global	Timer_100ms_Init
  20              		.code	16
  21              		.thumb_func
  22              		.type	Timer_100ms_Init, %function
  23              	Timer_100ms_Init:
  24              	.LFB2:
  25              		.file 1 "Generated_Source\\PSoC4\\Timer_100ms.c"
   1:Generated_Source\PSoC4/Timer_100ms.c **** /*******************************************************************************
   2:Generated_Source\PSoC4/Timer_100ms.c **** * File Name: Timer_100ms.c
   3:Generated_Source\PSoC4/Timer_100ms.c **** * Version 2.10
   4:Generated_Source\PSoC4/Timer_100ms.c **** *
   5:Generated_Source\PSoC4/Timer_100ms.c **** * Description:
   6:Generated_Source\PSoC4/Timer_100ms.c **** *  This file provides the source code to the API for the Timer_100ms
   7:Generated_Source\PSoC4/Timer_100ms.c **** *  component
   8:Generated_Source\PSoC4/Timer_100ms.c **** *
   9:Generated_Source\PSoC4/Timer_100ms.c **** * Note:
  10:Generated_Source\PSoC4/Timer_100ms.c **** *  None
  11:Generated_Source\PSoC4/Timer_100ms.c **** *
  12:Generated_Source\PSoC4/Timer_100ms.c **** ********************************************************************************
  13:Generated_Source\PSoC4/Timer_100ms.c **** * Copyright 2013-2015, Cypress Semiconductor Corporation.  All rights reserved.
  14:Generated_Source\PSoC4/Timer_100ms.c **** * You may use this file only in accordance with the license, terms, conditions,
  15:Generated_Source\PSoC4/Timer_100ms.c **** * disclaimers, and limitations in the end user license agreement accompanying
  16:Generated_Source\PSoC4/Timer_100ms.c **** * the software package with which this file was provided.
  17:Generated_Source\PSoC4/Timer_100ms.c **** *******************************************************************************/
  18:Generated_Source\PSoC4/Timer_100ms.c **** 
  19:Generated_Source\PSoC4/Timer_100ms.c **** #include "Timer_100ms.h"
  20:Generated_Source\PSoC4/Timer_100ms.c **** 
  21:Generated_Source\PSoC4/Timer_100ms.c **** uint8 Timer_100ms_initVar = 0u;
  22:Generated_Source\PSoC4/Timer_100ms.c **** 
  23:Generated_Source\PSoC4/Timer_100ms.c **** 
  24:Generated_Source\PSoC4/Timer_100ms.c **** /*******************************************************************************
  25:Generated_Source\PSoC4/Timer_100ms.c **** * Function Name: Timer_100ms_Init
  26:Generated_Source\PSoC4/Timer_100ms.c **** ********************************************************************************
  27:Generated_Source\PSoC4/Timer_100ms.c **** *
  28:Generated_Source\PSoC4/Timer_100ms.c **** * Summary:
  29:Generated_Source\PSoC4/Timer_100ms.c **** *  Initialize/Restore default Timer_100ms configuration.
  30:Generated_Source\PSoC4/Timer_100ms.c **** *
  31:Generated_Source\PSoC4/Timer_100ms.c **** * Parameters:
  32:Generated_Source\PSoC4/Timer_100ms.c **** *  None
ARM GAS  C:\Users\zhiantec\AppData\Local\Temp\ccsSOYXN.s 			page 2


  33:Generated_Source\PSoC4/Timer_100ms.c **** *
  34:Generated_Source\PSoC4/Timer_100ms.c **** * Return:
  35:Generated_Source\PSoC4/Timer_100ms.c **** *  None
  36:Generated_Source\PSoC4/Timer_100ms.c **** *
  37:Generated_Source\PSoC4/Timer_100ms.c **** *******************************************************************************/
  38:Generated_Source\PSoC4/Timer_100ms.c **** void Timer_100ms_Init(void)
  39:Generated_Source\PSoC4/Timer_100ms.c **** {
  26              		.loc 1 39 0
  27              		.cfi_startproc
  40:Generated_Source\PSoC4/Timer_100ms.c **** 
  41:Generated_Source\PSoC4/Timer_100ms.c ****     /* Set values from customizer to CTRL */
  42:Generated_Source\PSoC4/Timer_100ms.c ****     #if (Timer_100ms__QUAD == Timer_100ms_CONFIG)
  43:Generated_Source\PSoC4/Timer_100ms.c ****         Timer_100ms_CONTROL_REG = Timer_100ms_CTRL_QUAD_BASE_CONFIG;
  44:Generated_Source\PSoC4/Timer_100ms.c ****         
  45:Generated_Source\PSoC4/Timer_100ms.c ****         /* Set values from customizer to CTRL1 */
  46:Generated_Source\PSoC4/Timer_100ms.c ****         Timer_100ms_TRIG_CONTROL1_REG  = Timer_100ms_QUAD_SIGNALS_MODES;
  47:Generated_Source\PSoC4/Timer_100ms.c **** 
  48:Generated_Source\PSoC4/Timer_100ms.c ****         /* Set values from customizer to INTR */
  49:Generated_Source\PSoC4/Timer_100ms.c ****         Timer_100ms_SetInterruptMode(Timer_100ms_QUAD_INTERRUPT_MASK);
  50:Generated_Source\PSoC4/Timer_100ms.c ****         
  51:Generated_Source\PSoC4/Timer_100ms.c ****          /* Set other values */
  52:Generated_Source\PSoC4/Timer_100ms.c ****         Timer_100ms_SetCounterMode(Timer_100ms_COUNT_DOWN);
  53:Generated_Source\PSoC4/Timer_100ms.c ****         Timer_100ms_WritePeriod(Timer_100ms_QUAD_PERIOD_INIT_VALUE);
  54:Generated_Source\PSoC4/Timer_100ms.c ****         Timer_100ms_WriteCounter(Timer_100ms_QUAD_PERIOD_INIT_VALUE);
  55:Generated_Source\PSoC4/Timer_100ms.c ****     #endif  /* (Timer_100ms__QUAD == Timer_100ms_CONFIG) */
  56:Generated_Source\PSoC4/Timer_100ms.c **** 
  57:Generated_Source\PSoC4/Timer_100ms.c ****     #if (Timer_100ms__TIMER == Timer_100ms_CONFIG)
  58:Generated_Source\PSoC4/Timer_100ms.c ****         Timer_100ms_CONTROL_REG = Timer_100ms_CTRL_TIMER_BASE_CONFIG;
  28              		.loc 1 58 0
  29 0000 8022     		mov	r2, #128
  30 0002 094B     		ldr	r3, .L2
  31 0004 5202     		lsl	r2, r2, #9
  32 0006 1A60     		str	r2, [r3]
  59:Generated_Source\PSoC4/Timer_100ms.c ****         
  60:Generated_Source\PSoC4/Timer_100ms.c ****         /* Set values from customizer to CTRL1 */
  61:Generated_Source\PSoC4/Timer_100ms.c ****         Timer_100ms_TRIG_CONTROL1_REG  = Timer_100ms_TIMER_SIGNALS_MODES;
  33              		.loc 1 61 0
  34 0008 0C22     		mov	r2, #12
  35 000a 084B     		ldr	r3, .L2+4
  36              	.LBB10:
  37              	.LBB11:
  62:Generated_Source\PSoC4/Timer_100ms.c ****     
  63:Generated_Source\PSoC4/Timer_100ms.c ****         /* Set values from customizer to INTR */
  64:Generated_Source\PSoC4/Timer_100ms.c ****         Timer_100ms_SetInterruptMode(Timer_100ms_TC_INTERRUPT_MASK);
  65:Generated_Source\PSoC4/Timer_100ms.c ****         
  66:Generated_Source\PSoC4/Timer_100ms.c ****         /* Set other values from customizer */
  67:Generated_Source\PSoC4/Timer_100ms.c ****         Timer_100ms_WritePeriod(Timer_100ms_TC_PERIOD_VALUE );
  68:Generated_Source\PSoC4/Timer_100ms.c **** 
  69:Generated_Source\PSoC4/Timer_100ms.c ****         #if (Timer_100ms__COMPARE == Timer_100ms_TC_COMP_CAP_MODE)
  70:Generated_Source\PSoC4/Timer_100ms.c ****             Timer_100ms_WriteCompare(Timer_100ms_TC_COMPARE_VALUE);
  71:Generated_Source\PSoC4/Timer_100ms.c **** 
  72:Generated_Source\PSoC4/Timer_100ms.c ****             #if (1u == Timer_100ms_TC_COMPARE_SWAP)
  73:Generated_Source\PSoC4/Timer_100ms.c ****                 Timer_100ms_SetCompareSwap(1u);
  74:Generated_Source\PSoC4/Timer_100ms.c ****                 Timer_100ms_WriteCompareBuf(Timer_100ms_TC_COMPARE_BUF_VALUE);
  75:Generated_Source\PSoC4/Timer_100ms.c ****             #endif  /* (1u == Timer_100ms_TC_COMPARE_SWAP) */
  76:Generated_Source\PSoC4/Timer_100ms.c ****         #endif  /* (Timer_100ms__COMPARE == Timer_100ms_TC_COMP_CAP_MODE) */
  77:Generated_Source\PSoC4/Timer_100ms.c **** 
ARM GAS  C:\Users\zhiantec\AppData\Local\Temp\ccsSOYXN.s 			page 3


  78:Generated_Source\PSoC4/Timer_100ms.c ****         /* Initialize counter value */
  79:Generated_Source\PSoC4/Timer_100ms.c ****         #if (Timer_100ms_CY_TCPWM_V2 && Timer_100ms_TIMER_UPDOWN_CNT_USED && !Timer_100ms_CY_TCPWM_
  80:Generated_Source\PSoC4/Timer_100ms.c ****             Timer_100ms_WriteCounter(1u);
  81:Generated_Source\PSoC4/Timer_100ms.c ****         #elif(Timer_100ms__COUNT_DOWN == Timer_100ms_TC_COUNTER_MODE)
  82:Generated_Source\PSoC4/Timer_100ms.c ****             Timer_100ms_WriteCounter(Timer_100ms_TC_PERIOD_VALUE);
  83:Generated_Source\PSoC4/Timer_100ms.c ****         #else
  84:Generated_Source\PSoC4/Timer_100ms.c ****             Timer_100ms_WriteCounter(0u);
  85:Generated_Source\PSoC4/Timer_100ms.c ****         #endif /* (Timer_100ms_CY_TCPWM_V2 && Timer_100ms_TIMER_UPDOWN_CNT_USED && !Timer_100ms_CY_
  86:Generated_Source\PSoC4/Timer_100ms.c ****     #endif  /* (Timer_100ms__TIMER == Timer_100ms_CONFIG) */
  87:Generated_Source\PSoC4/Timer_100ms.c **** 
  88:Generated_Source\PSoC4/Timer_100ms.c ****     #if (Timer_100ms__PWM_SEL == Timer_100ms_CONFIG)
  89:Generated_Source\PSoC4/Timer_100ms.c ****         Timer_100ms_CONTROL_REG = Timer_100ms_CTRL_PWM_BASE_CONFIG;
  90:Generated_Source\PSoC4/Timer_100ms.c **** 
  91:Generated_Source\PSoC4/Timer_100ms.c ****         #if (Timer_100ms__PWM_PR == Timer_100ms_PWM_MODE)
  92:Generated_Source\PSoC4/Timer_100ms.c ****             Timer_100ms_CONTROL_REG |= Timer_100ms_CTRL_PWM_RUN_MODE;
  93:Generated_Source\PSoC4/Timer_100ms.c ****             Timer_100ms_WriteCounter(Timer_100ms_PWM_PR_INIT_VALUE);
  94:Generated_Source\PSoC4/Timer_100ms.c ****         #else
  95:Generated_Source\PSoC4/Timer_100ms.c ****             Timer_100ms_CONTROL_REG |= Timer_100ms_CTRL_PWM_ALIGN | Timer_100ms_CTRL_PWM_KILL_EVENT
  96:Generated_Source\PSoC4/Timer_100ms.c ****             
  97:Generated_Source\PSoC4/Timer_100ms.c ****             /* Initialize counter value */
  98:Generated_Source\PSoC4/Timer_100ms.c ****             #if (Timer_100ms_CY_TCPWM_V2 && Timer_100ms_PWM_UPDOWN_CNT_USED && !Timer_100ms_CY_TCPW
  99:Generated_Source\PSoC4/Timer_100ms.c ****                 Timer_100ms_WriteCounter(1u);
 100:Generated_Source\PSoC4/Timer_100ms.c ****             #elif (Timer_100ms__RIGHT == Timer_100ms_PWM_ALIGN)
 101:Generated_Source\PSoC4/Timer_100ms.c ****                 Timer_100ms_WriteCounter(Timer_100ms_PWM_PERIOD_VALUE);
 102:Generated_Source\PSoC4/Timer_100ms.c ****             #else 
 103:Generated_Source\PSoC4/Timer_100ms.c ****                 Timer_100ms_WriteCounter(0u);
 104:Generated_Source\PSoC4/Timer_100ms.c ****             #endif  /* (Timer_100ms_CY_TCPWM_V2 && Timer_100ms_PWM_UPDOWN_CNT_USED && !Timer_100ms_
 105:Generated_Source\PSoC4/Timer_100ms.c ****         #endif  /* (Timer_100ms__PWM_PR == Timer_100ms_PWM_MODE) */
 106:Generated_Source\PSoC4/Timer_100ms.c **** 
 107:Generated_Source\PSoC4/Timer_100ms.c ****         #if (Timer_100ms__PWM_DT == Timer_100ms_PWM_MODE)
 108:Generated_Source\PSoC4/Timer_100ms.c ****             Timer_100ms_CONTROL_REG |= Timer_100ms_CTRL_PWM_DEAD_TIME_CYCLE;
 109:Generated_Source\PSoC4/Timer_100ms.c ****         #endif  /* (Timer_100ms__PWM_DT == Timer_100ms_PWM_MODE) */
 110:Generated_Source\PSoC4/Timer_100ms.c **** 
 111:Generated_Source\PSoC4/Timer_100ms.c ****         #if (Timer_100ms__PWM == Timer_100ms_PWM_MODE)
 112:Generated_Source\PSoC4/Timer_100ms.c ****             Timer_100ms_CONTROL_REG |= Timer_100ms_CTRL_PWM_PRESCALER;
 113:Generated_Source\PSoC4/Timer_100ms.c ****         #endif  /* (Timer_100ms__PWM == Timer_100ms_PWM_MODE) */
 114:Generated_Source\PSoC4/Timer_100ms.c **** 
 115:Generated_Source\PSoC4/Timer_100ms.c ****         /* Set values from customizer to CTRL1 */
 116:Generated_Source\PSoC4/Timer_100ms.c ****         Timer_100ms_TRIG_CONTROL1_REG  = Timer_100ms_PWM_SIGNALS_MODES;
 117:Generated_Source\PSoC4/Timer_100ms.c ****     
 118:Generated_Source\PSoC4/Timer_100ms.c ****         /* Set values from customizer to INTR */
 119:Generated_Source\PSoC4/Timer_100ms.c ****         Timer_100ms_SetInterruptMode(Timer_100ms_PWM_INTERRUPT_MASK);
 120:Generated_Source\PSoC4/Timer_100ms.c **** 
 121:Generated_Source\PSoC4/Timer_100ms.c ****         /* Set values from customizer to CTRL2 */
 122:Generated_Source\PSoC4/Timer_100ms.c ****         #if (Timer_100ms__PWM_PR == Timer_100ms_PWM_MODE)
 123:Generated_Source\PSoC4/Timer_100ms.c ****             Timer_100ms_TRIG_CONTROL2_REG =
 124:Generated_Source\PSoC4/Timer_100ms.c ****                     (Timer_100ms_CC_MATCH_NO_CHANGE    |
 125:Generated_Source\PSoC4/Timer_100ms.c ****                     Timer_100ms_OVERLOW_NO_CHANGE      |
 126:Generated_Source\PSoC4/Timer_100ms.c ****                     Timer_100ms_UNDERFLOW_NO_CHANGE);
 127:Generated_Source\PSoC4/Timer_100ms.c ****         #else
 128:Generated_Source\PSoC4/Timer_100ms.c ****             #if (Timer_100ms__LEFT == Timer_100ms_PWM_ALIGN)
 129:Generated_Source\PSoC4/Timer_100ms.c ****                 Timer_100ms_TRIG_CONTROL2_REG = Timer_100ms_PWM_MODE_LEFT;
 130:Generated_Source\PSoC4/Timer_100ms.c ****             #endif  /* ( Timer_100ms_PWM_LEFT == Timer_100ms_PWM_ALIGN) */
 131:Generated_Source\PSoC4/Timer_100ms.c **** 
 132:Generated_Source\PSoC4/Timer_100ms.c ****             #if (Timer_100ms__RIGHT == Timer_100ms_PWM_ALIGN)
 133:Generated_Source\PSoC4/Timer_100ms.c ****                 Timer_100ms_TRIG_CONTROL2_REG = Timer_100ms_PWM_MODE_RIGHT;
 134:Generated_Source\PSoC4/Timer_100ms.c ****             #endif  /* ( Timer_100ms_PWM_RIGHT == Timer_100ms_PWM_ALIGN) */
ARM GAS  C:\Users\zhiantec\AppData\Local\Temp\ccsSOYXN.s 			page 4


 135:Generated_Source\PSoC4/Timer_100ms.c **** 
 136:Generated_Source\PSoC4/Timer_100ms.c ****             #if (Timer_100ms__CENTER == Timer_100ms_PWM_ALIGN)
 137:Generated_Source\PSoC4/Timer_100ms.c ****                 Timer_100ms_TRIG_CONTROL2_REG = Timer_100ms_PWM_MODE_CENTER;
 138:Generated_Source\PSoC4/Timer_100ms.c ****             #endif  /* ( Timer_100ms_PWM_CENTER == Timer_100ms_PWM_ALIGN) */
 139:Generated_Source\PSoC4/Timer_100ms.c **** 
 140:Generated_Source\PSoC4/Timer_100ms.c ****             #if (Timer_100ms__ASYMMETRIC == Timer_100ms_PWM_ALIGN)
 141:Generated_Source\PSoC4/Timer_100ms.c ****                 Timer_100ms_TRIG_CONTROL2_REG = Timer_100ms_PWM_MODE_ASYM;
 142:Generated_Source\PSoC4/Timer_100ms.c ****             #endif  /* (Timer_100ms__ASYMMETRIC == Timer_100ms_PWM_ALIGN) */
 143:Generated_Source\PSoC4/Timer_100ms.c ****         #endif  /* (Timer_100ms__PWM_PR == Timer_100ms_PWM_MODE) */
 144:Generated_Source\PSoC4/Timer_100ms.c **** 
 145:Generated_Source\PSoC4/Timer_100ms.c ****         /* Set other values from customizer */
 146:Generated_Source\PSoC4/Timer_100ms.c ****         Timer_100ms_WritePeriod(Timer_100ms_PWM_PERIOD_VALUE );
 147:Generated_Source\PSoC4/Timer_100ms.c ****         Timer_100ms_WriteCompare(Timer_100ms_PWM_COMPARE_VALUE);
 148:Generated_Source\PSoC4/Timer_100ms.c **** 
 149:Generated_Source\PSoC4/Timer_100ms.c ****         #if (1u == Timer_100ms_PWM_COMPARE_SWAP)
 150:Generated_Source\PSoC4/Timer_100ms.c ****             Timer_100ms_SetCompareSwap(1u);
 151:Generated_Source\PSoC4/Timer_100ms.c ****             Timer_100ms_WriteCompareBuf(Timer_100ms_PWM_COMPARE_BUF_VALUE);
 152:Generated_Source\PSoC4/Timer_100ms.c ****         #endif  /* (1u == Timer_100ms_PWM_COMPARE_SWAP) */
 153:Generated_Source\PSoC4/Timer_100ms.c **** 
 154:Generated_Source\PSoC4/Timer_100ms.c ****         #if (1u == Timer_100ms_PWM_PERIOD_SWAP)
 155:Generated_Source\PSoC4/Timer_100ms.c ****             Timer_100ms_SetPeriodSwap(1u);
 156:Generated_Source\PSoC4/Timer_100ms.c ****             Timer_100ms_WritePeriodBuf(Timer_100ms_PWM_PERIOD_BUF_VALUE);
 157:Generated_Source\PSoC4/Timer_100ms.c ****         #endif  /* (1u == Timer_100ms_PWM_PERIOD_SWAP) */
 158:Generated_Source\PSoC4/Timer_100ms.c ****     #endif  /* (Timer_100ms__PWM_SEL == Timer_100ms_CONFIG) */
 159:Generated_Source\PSoC4/Timer_100ms.c ****     
 160:Generated_Source\PSoC4/Timer_100ms.c **** }
 161:Generated_Source\PSoC4/Timer_100ms.c **** 
 162:Generated_Source\PSoC4/Timer_100ms.c **** 
 163:Generated_Source\PSoC4/Timer_100ms.c **** /*******************************************************************************
 164:Generated_Source\PSoC4/Timer_100ms.c **** * Function Name: Timer_100ms_Enable
 165:Generated_Source\PSoC4/Timer_100ms.c **** ********************************************************************************
 166:Generated_Source\PSoC4/Timer_100ms.c **** *
 167:Generated_Source\PSoC4/Timer_100ms.c **** * Summary:
 168:Generated_Source\PSoC4/Timer_100ms.c **** *  Enables the Timer_100ms.
 169:Generated_Source\PSoC4/Timer_100ms.c **** *
 170:Generated_Source\PSoC4/Timer_100ms.c **** * Parameters:
 171:Generated_Source\PSoC4/Timer_100ms.c **** *  None
 172:Generated_Source\PSoC4/Timer_100ms.c **** *
 173:Generated_Source\PSoC4/Timer_100ms.c **** * Return:
 174:Generated_Source\PSoC4/Timer_100ms.c **** *  None
 175:Generated_Source\PSoC4/Timer_100ms.c **** *
 176:Generated_Source\PSoC4/Timer_100ms.c **** *******************************************************************************/
 177:Generated_Source\PSoC4/Timer_100ms.c **** void Timer_100ms_Enable(void)
 178:Generated_Source\PSoC4/Timer_100ms.c **** {
 179:Generated_Source\PSoC4/Timer_100ms.c ****     uint8 enableInterrupts;
 180:Generated_Source\PSoC4/Timer_100ms.c **** 
 181:Generated_Source\PSoC4/Timer_100ms.c ****     enableInterrupts = CyEnterCriticalSection();
 182:Generated_Source\PSoC4/Timer_100ms.c ****     Timer_100ms_BLOCK_CONTROL_REG |= Timer_100ms_MASK;
 183:Generated_Source\PSoC4/Timer_100ms.c ****     CyExitCriticalSection(enableInterrupts);
 184:Generated_Source\PSoC4/Timer_100ms.c **** 
 185:Generated_Source\PSoC4/Timer_100ms.c ****     /* Start Timer or PWM if start input is absent */
 186:Generated_Source\PSoC4/Timer_100ms.c ****     #if (Timer_100ms__PWM_SEL == Timer_100ms_CONFIG)
 187:Generated_Source\PSoC4/Timer_100ms.c ****         #if (0u == Timer_100ms_PWM_START_SIGNAL_PRESENT)
 188:Generated_Source\PSoC4/Timer_100ms.c ****             Timer_100ms_TriggerCommand(Timer_100ms_MASK, Timer_100ms_CMD_START);
 189:Generated_Source\PSoC4/Timer_100ms.c ****         #endif /* (0u == Timer_100ms_PWM_START_SIGNAL_PRESENT) */
 190:Generated_Source\PSoC4/Timer_100ms.c ****     #endif /* (Timer_100ms__PWM_SEL == Timer_100ms_CONFIG) */
 191:Generated_Source\PSoC4/Timer_100ms.c **** 
ARM GAS  C:\Users\zhiantec\AppData\Local\Temp\ccsSOYXN.s 			page 5


 192:Generated_Source\PSoC4/Timer_100ms.c ****     #if (Timer_100ms__TIMER == Timer_100ms_CONFIG)
 193:Generated_Source\PSoC4/Timer_100ms.c ****         #if (0u == Timer_100ms_TC_START_SIGNAL_PRESENT)
 194:Generated_Source\PSoC4/Timer_100ms.c ****             Timer_100ms_TriggerCommand(Timer_100ms_MASK, Timer_100ms_CMD_START);
 195:Generated_Source\PSoC4/Timer_100ms.c ****         #endif /* (0u == Timer_100ms_TC_START_SIGNAL_PRESENT) */
 196:Generated_Source\PSoC4/Timer_100ms.c ****     #endif /* (Timer_100ms__TIMER == Timer_100ms_CONFIG) */
 197:Generated_Source\PSoC4/Timer_100ms.c ****     
 198:Generated_Source\PSoC4/Timer_100ms.c ****     #if (Timer_100ms__QUAD == Timer_100ms_CONFIG)
 199:Generated_Source\PSoC4/Timer_100ms.c ****         #if (0u != Timer_100ms_QUAD_AUTO_START)
 200:Generated_Source\PSoC4/Timer_100ms.c ****             Timer_100ms_TriggerCommand(Timer_100ms_MASK, Timer_100ms_CMD_RELOAD);
 201:Generated_Source\PSoC4/Timer_100ms.c ****         #endif /* (0u != Timer_100ms_QUAD_AUTO_START) */
 202:Generated_Source\PSoC4/Timer_100ms.c ****     #endif  /* (Timer_100ms__QUAD == Timer_100ms_CONFIG) */
 203:Generated_Source\PSoC4/Timer_100ms.c **** }
 204:Generated_Source\PSoC4/Timer_100ms.c **** 
 205:Generated_Source\PSoC4/Timer_100ms.c **** 
 206:Generated_Source\PSoC4/Timer_100ms.c **** /*******************************************************************************
 207:Generated_Source\PSoC4/Timer_100ms.c **** * Function Name: Timer_100ms_Start
 208:Generated_Source\PSoC4/Timer_100ms.c **** ********************************************************************************
 209:Generated_Source\PSoC4/Timer_100ms.c **** *
 210:Generated_Source\PSoC4/Timer_100ms.c **** * Summary:
 211:Generated_Source\PSoC4/Timer_100ms.c **** *  Initializes the Timer_100ms with default customizer
 212:Generated_Source\PSoC4/Timer_100ms.c **** *  values when called the first time and enables the Timer_100ms.
 213:Generated_Source\PSoC4/Timer_100ms.c **** *  For subsequent calls the configuration is left unchanged and the component is
 214:Generated_Source\PSoC4/Timer_100ms.c **** *  just enabled.
 215:Generated_Source\PSoC4/Timer_100ms.c **** *
 216:Generated_Source\PSoC4/Timer_100ms.c **** * Parameters:
 217:Generated_Source\PSoC4/Timer_100ms.c **** *  None
 218:Generated_Source\PSoC4/Timer_100ms.c **** *
 219:Generated_Source\PSoC4/Timer_100ms.c **** * Return:
 220:Generated_Source\PSoC4/Timer_100ms.c **** *  None
 221:Generated_Source\PSoC4/Timer_100ms.c **** *
 222:Generated_Source\PSoC4/Timer_100ms.c **** * Global variables:
 223:Generated_Source\PSoC4/Timer_100ms.c **** *  Timer_100ms_initVar: global variable is used to indicate initial
 224:Generated_Source\PSoC4/Timer_100ms.c **** *  configuration of this component.  The variable is initialized to zero and set
 225:Generated_Source\PSoC4/Timer_100ms.c **** *  to 1 the first time Timer_100ms_Start() is called. This allows
 226:Generated_Source\PSoC4/Timer_100ms.c **** *  enabling/disabling a component without re-initialization in all subsequent
 227:Generated_Source\PSoC4/Timer_100ms.c **** *  calls to the Timer_100ms_Start() routine.
 228:Generated_Source\PSoC4/Timer_100ms.c **** *
 229:Generated_Source\PSoC4/Timer_100ms.c **** *******************************************************************************/
 230:Generated_Source\PSoC4/Timer_100ms.c **** void Timer_100ms_Start(void)
 231:Generated_Source\PSoC4/Timer_100ms.c **** {
 232:Generated_Source\PSoC4/Timer_100ms.c ****     if (0u == Timer_100ms_initVar)
 233:Generated_Source\PSoC4/Timer_100ms.c ****     {
 234:Generated_Source\PSoC4/Timer_100ms.c ****         Timer_100ms_Init();
 235:Generated_Source\PSoC4/Timer_100ms.c ****         Timer_100ms_initVar = 1u;
 236:Generated_Source\PSoC4/Timer_100ms.c ****     }
 237:Generated_Source\PSoC4/Timer_100ms.c **** 
 238:Generated_Source\PSoC4/Timer_100ms.c ****     Timer_100ms_Enable();
 239:Generated_Source\PSoC4/Timer_100ms.c **** }
 240:Generated_Source\PSoC4/Timer_100ms.c **** 
 241:Generated_Source\PSoC4/Timer_100ms.c **** 
 242:Generated_Source\PSoC4/Timer_100ms.c **** /*******************************************************************************
 243:Generated_Source\PSoC4/Timer_100ms.c **** * Function Name: Timer_100ms_Stop
 244:Generated_Source\PSoC4/Timer_100ms.c **** ********************************************************************************
 245:Generated_Source\PSoC4/Timer_100ms.c **** *
 246:Generated_Source\PSoC4/Timer_100ms.c **** * Summary:
 247:Generated_Source\PSoC4/Timer_100ms.c **** *  Disables the Timer_100ms.
 248:Generated_Source\PSoC4/Timer_100ms.c **** *
ARM GAS  C:\Users\zhiantec\AppData\Local\Temp\ccsSOYXN.s 			page 6


 249:Generated_Source\PSoC4/Timer_100ms.c **** * Parameters:
 250:Generated_Source\PSoC4/Timer_100ms.c **** *  None
 251:Generated_Source\PSoC4/Timer_100ms.c **** *
 252:Generated_Source\PSoC4/Timer_100ms.c **** * Return:
 253:Generated_Source\PSoC4/Timer_100ms.c **** *  None
 254:Generated_Source\PSoC4/Timer_100ms.c **** *
 255:Generated_Source\PSoC4/Timer_100ms.c **** *******************************************************************************/
 256:Generated_Source\PSoC4/Timer_100ms.c **** void Timer_100ms_Stop(void)
 257:Generated_Source\PSoC4/Timer_100ms.c **** {
 258:Generated_Source\PSoC4/Timer_100ms.c ****     uint8 enableInterrupts;
 259:Generated_Source\PSoC4/Timer_100ms.c **** 
 260:Generated_Source\PSoC4/Timer_100ms.c ****     enableInterrupts = CyEnterCriticalSection();
 261:Generated_Source\PSoC4/Timer_100ms.c **** 
 262:Generated_Source\PSoC4/Timer_100ms.c ****     Timer_100ms_BLOCK_CONTROL_REG &= (uint32)~Timer_100ms_MASK;
 263:Generated_Source\PSoC4/Timer_100ms.c **** 
 264:Generated_Source\PSoC4/Timer_100ms.c ****     CyExitCriticalSection(enableInterrupts);
 265:Generated_Source\PSoC4/Timer_100ms.c **** }
 266:Generated_Source\PSoC4/Timer_100ms.c **** 
 267:Generated_Source\PSoC4/Timer_100ms.c **** 
 268:Generated_Source\PSoC4/Timer_100ms.c **** /*******************************************************************************
 269:Generated_Source\PSoC4/Timer_100ms.c **** * Function Name: Timer_100ms_SetMode
 270:Generated_Source\PSoC4/Timer_100ms.c **** ********************************************************************************
 271:Generated_Source\PSoC4/Timer_100ms.c **** *
 272:Generated_Source\PSoC4/Timer_100ms.c **** * Summary:
 273:Generated_Source\PSoC4/Timer_100ms.c **** *  Sets the operation mode of the Timer_100ms. This function is used when
 274:Generated_Source\PSoC4/Timer_100ms.c **** *  configured as a generic Timer_100ms and the actual mode of operation is
 275:Generated_Source\PSoC4/Timer_100ms.c **** *  set at runtime. The mode must be set while the component is disabled.
 276:Generated_Source\PSoC4/Timer_100ms.c **** *
 277:Generated_Source\PSoC4/Timer_100ms.c **** * Parameters:
 278:Generated_Source\PSoC4/Timer_100ms.c **** *  mode: Mode for the Timer_100ms to operate in
 279:Generated_Source\PSoC4/Timer_100ms.c **** *   Values:
 280:Generated_Source\PSoC4/Timer_100ms.c **** *   - Timer_100ms_MODE_TIMER_COMPARE - Timer / Counter with
 281:Generated_Source\PSoC4/Timer_100ms.c **** *                                                 compare capability
 282:Generated_Source\PSoC4/Timer_100ms.c **** *         - Timer_100ms_MODE_TIMER_CAPTURE - Timer / Counter with
 283:Generated_Source\PSoC4/Timer_100ms.c **** *                                                 capture capability
 284:Generated_Source\PSoC4/Timer_100ms.c **** *         - Timer_100ms_MODE_QUAD - Quadrature decoder
 285:Generated_Source\PSoC4/Timer_100ms.c **** *         - Timer_100ms_MODE_PWM - PWM
 286:Generated_Source\PSoC4/Timer_100ms.c **** *         - Timer_100ms_MODE_PWM_DT - PWM with dead time
 287:Generated_Source\PSoC4/Timer_100ms.c **** *         - Timer_100ms_MODE_PWM_PR - PWM with pseudo random capability
 288:Generated_Source\PSoC4/Timer_100ms.c **** *
 289:Generated_Source\PSoC4/Timer_100ms.c **** * Return:
 290:Generated_Source\PSoC4/Timer_100ms.c **** *  None
 291:Generated_Source\PSoC4/Timer_100ms.c **** *
 292:Generated_Source\PSoC4/Timer_100ms.c **** *******************************************************************************/
 293:Generated_Source\PSoC4/Timer_100ms.c **** void Timer_100ms_SetMode(uint32 mode)
 294:Generated_Source\PSoC4/Timer_100ms.c **** {
 295:Generated_Source\PSoC4/Timer_100ms.c ****     uint8 enableInterrupts;
 296:Generated_Source\PSoC4/Timer_100ms.c **** 
 297:Generated_Source\PSoC4/Timer_100ms.c ****     enableInterrupts = CyEnterCriticalSection();
 298:Generated_Source\PSoC4/Timer_100ms.c **** 
 299:Generated_Source\PSoC4/Timer_100ms.c ****     Timer_100ms_CONTROL_REG &= (uint32)~Timer_100ms_MODE_MASK;
 300:Generated_Source\PSoC4/Timer_100ms.c ****     Timer_100ms_CONTROL_REG |= mode;
 301:Generated_Source\PSoC4/Timer_100ms.c **** 
 302:Generated_Source\PSoC4/Timer_100ms.c ****     CyExitCriticalSection(enableInterrupts);
 303:Generated_Source\PSoC4/Timer_100ms.c **** }
 304:Generated_Source\PSoC4/Timer_100ms.c **** 
 305:Generated_Source\PSoC4/Timer_100ms.c **** 
ARM GAS  C:\Users\zhiantec\AppData\Local\Temp\ccsSOYXN.s 			page 7


 306:Generated_Source\PSoC4/Timer_100ms.c **** /*******************************************************************************
 307:Generated_Source\PSoC4/Timer_100ms.c **** * Function Name: Timer_100ms_SetQDMode
 308:Generated_Source\PSoC4/Timer_100ms.c **** ********************************************************************************
 309:Generated_Source\PSoC4/Timer_100ms.c **** *
 310:Generated_Source\PSoC4/Timer_100ms.c **** * Summary:
 311:Generated_Source\PSoC4/Timer_100ms.c **** *  Sets the the Quadrature Decoder to one of the 3 supported modes.
 312:Generated_Source\PSoC4/Timer_100ms.c **** *  Its functionality is only applicable to Quadrature Decoder operation.
 313:Generated_Source\PSoC4/Timer_100ms.c **** *
 314:Generated_Source\PSoC4/Timer_100ms.c **** * Parameters:
 315:Generated_Source\PSoC4/Timer_100ms.c **** *  qdMode: Quadrature Decoder mode
 316:Generated_Source\PSoC4/Timer_100ms.c **** *   Values:
 317:Generated_Source\PSoC4/Timer_100ms.c **** *         - Timer_100ms_MODE_X1 - Counts on phi 1 rising
 318:Generated_Source\PSoC4/Timer_100ms.c **** *         - Timer_100ms_MODE_X2 - Counts on both edges of phi1 (2x faster)
 319:Generated_Source\PSoC4/Timer_100ms.c **** *         - Timer_100ms_MODE_X4 - Counts on both edges of phi1 and phi2
 320:Generated_Source\PSoC4/Timer_100ms.c **** *                                        (4x faster)
 321:Generated_Source\PSoC4/Timer_100ms.c **** *
 322:Generated_Source\PSoC4/Timer_100ms.c **** * Return:
 323:Generated_Source\PSoC4/Timer_100ms.c **** *  None
 324:Generated_Source\PSoC4/Timer_100ms.c **** *
 325:Generated_Source\PSoC4/Timer_100ms.c **** *******************************************************************************/
 326:Generated_Source\PSoC4/Timer_100ms.c **** void Timer_100ms_SetQDMode(uint32 qdMode)
 327:Generated_Source\PSoC4/Timer_100ms.c **** {
 328:Generated_Source\PSoC4/Timer_100ms.c ****     uint8 enableInterrupts;
 329:Generated_Source\PSoC4/Timer_100ms.c **** 
 330:Generated_Source\PSoC4/Timer_100ms.c ****     enableInterrupts = CyEnterCriticalSection();
 331:Generated_Source\PSoC4/Timer_100ms.c **** 
 332:Generated_Source\PSoC4/Timer_100ms.c ****     Timer_100ms_CONTROL_REG &= (uint32)~Timer_100ms_QUAD_MODE_MASK;
 333:Generated_Source\PSoC4/Timer_100ms.c ****     Timer_100ms_CONTROL_REG |= qdMode;
 334:Generated_Source\PSoC4/Timer_100ms.c **** 
 335:Generated_Source\PSoC4/Timer_100ms.c ****     CyExitCriticalSection(enableInterrupts);
 336:Generated_Source\PSoC4/Timer_100ms.c **** }
 337:Generated_Source\PSoC4/Timer_100ms.c **** 
 338:Generated_Source\PSoC4/Timer_100ms.c **** 
 339:Generated_Source\PSoC4/Timer_100ms.c **** /*******************************************************************************
 340:Generated_Source\PSoC4/Timer_100ms.c **** * Function Name: Timer_100ms_SetPrescaler
 341:Generated_Source\PSoC4/Timer_100ms.c **** ********************************************************************************
 342:Generated_Source\PSoC4/Timer_100ms.c **** *
 343:Generated_Source\PSoC4/Timer_100ms.c **** * Summary:
 344:Generated_Source\PSoC4/Timer_100ms.c **** *  Sets the prescaler value that is applied to the clock input.  Not applicable
 345:Generated_Source\PSoC4/Timer_100ms.c **** *  to a PWM with the dead time mode or Quadrature Decoder mode.
 346:Generated_Source\PSoC4/Timer_100ms.c **** *
 347:Generated_Source\PSoC4/Timer_100ms.c **** * Parameters:
 348:Generated_Source\PSoC4/Timer_100ms.c **** *  prescaler: Prescaler divider value
 349:Generated_Source\PSoC4/Timer_100ms.c **** *   Values:
 350:Generated_Source\PSoC4/Timer_100ms.c **** *         - Timer_100ms_PRESCALE_DIVBY1    - Divide by 1 (no prescaling)
 351:Generated_Source\PSoC4/Timer_100ms.c **** *         - Timer_100ms_PRESCALE_DIVBY2    - Divide by 2
 352:Generated_Source\PSoC4/Timer_100ms.c **** *         - Timer_100ms_PRESCALE_DIVBY4    - Divide by 4
 353:Generated_Source\PSoC4/Timer_100ms.c **** *         - Timer_100ms_PRESCALE_DIVBY8    - Divide by 8
 354:Generated_Source\PSoC4/Timer_100ms.c **** *         - Timer_100ms_PRESCALE_DIVBY16   - Divide by 16
 355:Generated_Source\PSoC4/Timer_100ms.c **** *         - Timer_100ms_PRESCALE_DIVBY32   - Divide by 32
 356:Generated_Source\PSoC4/Timer_100ms.c **** *         - Timer_100ms_PRESCALE_DIVBY64   - Divide by 64
 357:Generated_Source\PSoC4/Timer_100ms.c **** *         - Timer_100ms_PRESCALE_DIVBY128  - Divide by 128
 358:Generated_Source\PSoC4/Timer_100ms.c **** *
 359:Generated_Source\PSoC4/Timer_100ms.c **** * Return:
 360:Generated_Source\PSoC4/Timer_100ms.c **** *  None
 361:Generated_Source\PSoC4/Timer_100ms.c **** *
 362:Generated_Source\PSoC4/Timer_100ms.c **** *******************************************************************************/
ARM GAS  C:\Users\zhiantec\AppData\Local\Temp\ccsSOYXN.s 			page 8


 363:Generated_Source\PSoC4/Timer_100ms.c **** void Timer_100ms_SetPrescaler(uint32 prescaler)
 364:Generated_Source\PSoC4/Timer_100ms.c **** {
 365:Generated_Source\PSoC4/Timer_100ms.c ****     uint8 enableInterrupts;
 366:Generated_Source\PSoC4/Timer_100ms.c **** 
 367:Generated_Source\PSoC4/Timer_100ms.c ****     enableInterrupts = CyEnterCriticalSection();
 368:Generated_Source\PSoC4/Timer_100ms.c **** 
 369:Generated_Source\PSoC4/Timer_100ms.c ****     Timer_100ms_CONTROL_REG &= (uint32)~Timer_100ms_PRESCALER_MASK;
 370:Generated_Source\PSoC4/Timer_100ms.c ****     Timer_100ms_CONTROL_REG |= prescaler;
 371:Generated_Source\PSoC4/Timer_100ms.c **** 
 372:Generated_Source\PSoC4/Timer_100ms.c ****     CyExitCriticalSection(enableInterrupts);
 373:Generated_Source\PSoC4/Timer_100ms.c **** }
 374:Generated_Source\PSoC4/Timer_100ms.c **** 
 375:Generated_Source\PSoC4/Timer_100ms.c **** 
 376:Generated_Source\PSoC4/Timer_100ms.c **** /*******************************************************************************
 377:Generated_Source\PSoC4/Timer_100ms.c **** * Function Name: Timer_100ms_SetOneShot
 378:Generated_Source\PSoC4/Timer_100ms.c **** ********************************************************************************
 379:Generated_Source\PSoC4/Timer_100ms.c **** *
 380:Generated_Source\PSoC4/Timer_100ms.c **** * Summary:
 381:Generated_Source\PSoC4/Timer_100ms.c **** *  Writes the register that controls whether the Timer_100ms runs
 382:Generated_Source\PSoC4/Timer_100ms.c **** *  continuously or stops when terminal count is reached.  By default the
 383:Generated_Source\PSoC4/Timer_100ms.c **** *  Timer_100ms operates in the continuous mode.
 384:Generated_Source\PSoC4/Timer_100ms.c **** *
 385:Generated_Source\PSoC4/Timer_100ms.c **** * Parameters:
 386:Generated_Source\PSoC4/Timer_100ms.c **** *  oneShotEnable
 387:Generated_Source\PSoC4/Timer_100ms.c **** *   Values:
 388:Generated_Source\PSoC4/Timer_100ms.c **** *     - 0 - Continuous
 389:Generated_Source\PSoC4/Timer_100ms.c **** *     - 1 - Enable One Shot
 390:Generated_Source\PSoC4/Timer_100ms.c **** *
 391:Generated_Source\PSoC4/Timer_100ms.c **** * Return:
 392:Generated_Source\PSoC4/Timer_100ms.c **** *  None
 393:Generated_Source\PSoC4/Timer_100ms.c **** *
 394:Generated_Source\PSoC4/Timer_100ms.c **** *******************************************************************************/
 395:Generated_Source\PSoC4/Timer_100ms.c **** void Timer_100ms_SetOneShot(uint32 oneShotEnable)
 396:Generated_Source\PSoC4/Timer_100ms.c **** {
 397:Generated_Source\PSoC4/Timer_100ms.c ****     uint8 enableInterrupts;
 398:Generated_Source\PSoC4/Timer_100ms.c **** 
 399:Generated_Source\PSoC4/Timer_100ms.c ****     enableInterrupts = CyEnterCriticalSection();
 400:Generated_Source\PSoC4/Timer_100ms.c **** 
 401:Generated_Source\PSoC4/Timer_100ms.c ****     Timer_100ms_CONTROL_REG &= (uint32)~Timer_100ms_ONESHOT_MASK;
 402:Generated_Source\PSoC4/Timer_100ms.c ****     Timer_100ms_CONTROL_REG |= ((uint32)((oneShotEnable & Timer_100ms_1BIT_MASK) <<
 403:Generated_Source\PSoC4/Timer_100ms.c ****                                                                Timer_100ms_ONESHOT_SHIFT));
 404:Generated_Source\PSoC4/Timer_100ms.c **** 
 405:Generated_Source\PSoC4/Timer_100ms.c ****     CyExitCriticalSection(enableInterrupts);
 406:Generated_Source\PSoC4/Timer_100ms.c **** }
 407:Generated_Source\PSoC4/Timer_100ms.c **** 
 408:Generated_Source\PSoC4/Timer_100ms.c **** 
 409:Generated_Source\PSoC4/Timer_100ms.c **** /*******************************************************************************
 410:Generated_Source\PSoC4/Timer_100ms.c **** * Function Name: Timer_100ms_SetPWMMode
 411:Generated_Source\PSoC4/Timer_100ms.c **** ********************************************************************************
 412:Generated_Source\PSoC4/Timer_100ms.c **** *
 413:Generated_Source\PSoC4/Timer_100ms.c **** * Summary:
 414:Generated_Source\PSoC4/Timer_100ms.c **** *  Writes the control register that determines what mode of operation the PWM
 415:Generated_Source\PSoC4/Timer_100ms.c **** *  output lines are driven in.  There is a setting for what to do on a
 416:Generated_Source\PSoC4/Timer_100ms.c **** *  comparison match (CC_MATCH), on an overflow (OVERFLOW) and on an underflow
 417:Generated_Source\PSoC4/Timer_100ms.c **** *  (UNDERFLOW).  The value for each of the three must be ORed together to form
 418:Generated_Source\PSoC4/Timer_100ms.c **** *  the mode.
 419:Generated_Source\PSoC4/Timer_100ms.c **** *
ARM GAS  C:\Users\zhiantec\AppData\Local\Temp\ccsSOYXN.s 			page 9


 420:Generated_Source\PSoC4/Timer_100ms.c **** * Parameters:
 421:Generated_Source\PSoC4/Timer_100ms.c **** *  modeMask: A combination of three mode settings.  Mask must include a value
 422:Generated_Source\PSoC4/Timer_100ms.c **** *  for each of the three or use one of the preconfigured PWM settings.
 423:Generated_Source\PSoC4/Timer_100ms.c **** *   Values:
 424:Generated_Source\PSoC4/Timer_100ms.c **** *     - CC_MATCH_SET        - Set on comparison match
 425:Generated_Source\PSoC4/Timer_100ms.c **** *     - CC_MATCH_CLEAR      - Clear on comparison match
 426:Generated_Source\PSoC4/Timer_100ms.c **** *     - CC_MATCH_INVERT     - Invert on comparison match
 427:Generated_Source\PSoC4/Timer_100ms.c **** *     - CC_MATCH_NO_CHANGE  - No change on comparison match
 428:Generated_Source\PSoC4/Timer_100ms.c **** *     - OVERLOW_SET         - Set on overflow
 429:Generated_Source\PSoC4/Timer_100ms.c **** *     - OVERLOW_CLEAR       - Clear on  overflow
 430:Generated_Source\PSoC4/Timer_100ms.c **** *     - OVERLOW_INVERT      - Invert on overflow
 431:Generated_Source\PSoC4/Timer_100ms.c **** *     - OVERLOW_NO_CHANGE   - No change on overflow
 432:Generated_Source\PSoC4/Timer_100ms.c **** *     - UNDERFLOW_SET       - Set on underflow
 433:Generated_Source\PSoC4/Timer_100ms.c **** *     - UNDERFLOW_CLEAR     - Clear on underflow
 434:Generated_Source\PSoC4/Timer_100ms.c **** *     - UNDERFLOW_INVERT    - Invert on underflow
 435:Generated_Source\PSoC4/Timer_100ms.c **** *     - UNDERFLOW_NO_CHANGE - No change on underflow
 436:Generated_Source\PSoC4/Timer_100ms.c **** *     - PWM_MODE_LEFT       - Setting for left aligned PWM.  Should be combined
 437:Generated_Source\PSoC4/Timer_100ms.c **** *                             with up counting mode
 438:Generated_Source\PSoC4/Timer_100ms.c **** *     - PWM_MODE_RIGHT      - Setting for right aligned PWM.  Should be combined
 439:Generated_Source\PSoC4/Timer_100ms.c **** *                             with down counting mode
 440:Generated_Source\PSoC4/Timer_100ms.c **** *     - PWM_MODE_CENTER     - Setting for center aligned PWM.  Should be
 441:Generated_Source\PSoC4/Timer_100ms.c **** *                             combined with up/down 0 mode
 442:Generated_Source\PSoC4/Timer_100ms.c **** *     - PWM_MODE_ASYM       - Setting for asymmetric PWM.  Should be combined
 443:Generated_Source\PSoC4/Timer_100ms.c **** *                             with up/down 1 mode
 444:Generated_Source\PSoC4/Timer_100ms.c **** *
 445:Generated_Source\PSoC4/Timer_100ms.c **** * Return:
 446:Generated_Source\PSoC4/Timer_100ms.c **** *  None
 447:Generated_Source\PSoC4/Timer_100ms.c **** *
 448:Generated_Source\PSoC4/Timer_100ms.c **** *******************************************************************************/
 449:Generated_Source\PSoC4/Timer_100ms.c **** void Timer_100ms_SetPWMMode(uint32 modeMask)
 450:Generated_Source\PSoC4/Timer_100ms.c **** {
 451:Generated_Source\PSoC4/Timer_100ms.c ****     Timer_100ms_TRIG_CONTROL2_REG = (modeMask & Timer_100ms_6BIT_MASK);
 452:Generated_Source\PSoC4/Timer_100ms.c **** }
 453:Generated_Source\PSoC4/Timer_100ms.c **** 
 454:Generated_Source\PSoC4/Timer_100ms.c **** 
 455:Generated_Source\PSoC4/Timer_100ms.c **** 
 456:Generated_Source\PSoC4/Timer_100ms.c **** /*******************************************************************************
 457:Generated_Source\PSoC4/Timer_100ms.c **** * Function Name: Timer_100ms_SetPWMSyncKill
 458:Generated_Source\PSoC4/Timer_100ms.c **** ********************************************************************************
 459:Generated_Source\PSoC4/Timer_100ms.c **** *
 460:Generated_Source\PSoC4/Timer_100ms.c **** * Summary:
 461:Generated_Source\PSoC4/Timer_100ms.c **** *  Writes the register that controls whether the PWM kill signal (stop input)
 462:Generated_Source\PSoC4/Timer_100ms.c **** *  causes asynchronous or synchronous kill operation.  By default the kill
 463:Generated_Source\PSoC4/Timer_100ms.c **** *  operation is asynchronous.  This functionality is only applicable to the PWM
 464:Generated_Source\PSoC4/Timer_100ms.c **** *  and PWM with dead time modes.
 465:Generated_Source\PSoC4/Timer_100ms.c **** *
 466:Generated_Source\PSoC4/Timer_100ms.c **** *  For Synchronous mode the kill signal disables both the line and line_n
 467:Generated_Source\PSoC4/Timer_100ms.c **** *  signals until the next terminal count.
 468:Generated_Source\PSoC4/Timer_100ms.c **** *
 469:Generated_Source\PSoC4/Timer_100ms.c **** *  For Asynchronous mode the kill signal disables both the line and line_n
 470:Generated_Source\PSoC4/Timer_100ms.c **** *  signals when the kill signal is present.  This mode should only be used
 471:Generated_Source\PSoC4/Timer_100ms.c **** *  when the kill signal (stop input) is configured in the pass through mode
 472:Generated_Source\PSoC4/Timer_100ms.c **** *  (Level sensitive signal).
 473:Generated_Source\PSoC4/Timer_100ms.c **** 
 474:Generated_Source\PSoC4/Timer_100ms.c **** *
 475:Generated_Source\PSoC4/Timer_100ms.c **** * Parameters:
 476:Generated_Source\PSoC4/Timer_100ms.c **** *  syncKillEnable
ARM GAS  C:\Users\zhiantec\AppData\Local\Temp\ccsSOYXN.s 			page 10


 477:Generated_Source\PSoC4/Timer_100ms.c **** *   Values:
 478:Generated_Source\PSoC4/Timer_100ms.c **** *     - 0 - Asynchronous
 479:Generated_Source\PSoC4/Timer_100ms.c **** *     - 1 - Synchronous
 480:Generated_Source\PSoC4/Timer_100ms.c **** *
 481:Generated_Source\PSoC4/Timer_100ms.c **** * Return:
 482:Generated_Source\PSoC4/Timer_100ms.c **** *  None
 483:Generated_Source\PSoC4/Timer_100ms.c **** *
 484:Generated_Source\PSoC4/Timer_100ms.c **** *******************************************************************************/
 485:Generated_Source\PSoC4/Timer_100ms.c **** void Timer_100ms_SetPWMSyncKill(uint32 syncKillEnable)
 486:Generated_Source\PSoC4/Timer_100ms.c **** {
 487:Generated_Source\PSoC4/Timer_100ms.c ****     uint8 enableInterrupts;
 488:Generated_Source\PSoC4/Timer_100ms.c **** 
 489:Generated_Source\PSoC4/Timer_100ms.c ****     enableInterrupts = CyEnterCriticalSection();
 490:Generated_Source\PSoC4/Timer_100ms.c **** 
 491:Generated_Source\PSoC4/Timer_100ms.c ****     Timer_100ms_CONTROL_REG &= (uint32)~Timer_100ms_PWM_SYNC_KILL_MASK;
 492:Generated_Source\PSoC4/Timer_100ms.c ****     Timer_100ms_CONTROL_REG |= ((uint32)((syncKillEnable & Timer_100ms_1BIT_MASK)  <<
 493:Generated_Source\PSoC4/Timer_100ms.c ****                                                Timer_100ms_PWM_SYNC_KILL_SHIFT));
 494:Generated_Source\PSoC4/Timer_100ms.c **** 
 495:Generated_Source\PSoC4/Timer_100ms.c ****     CyExitCriticalSection(enableInterrupts);
 496:Generated_Source\PSoC4/Timer_100ms.c **** }
 497:Generated_Source\PSoC4/Timer_100ms.c **** 
 498:Generated_Source\PSoC4/Timer_100ms.c **** 
 499:Generated_Source\PSoC4/Timer_100ms.c **** /*******************************************************************************
 500:Generated_Source\PSoC4/Timer_100ms.c **** * Function Name: Timer_100ms_SetPWMStopOnKill
 501:Generated_Source\PSoC4/Timer_100ms.c **** ********************************************************************************
 502:Generated_Source\PSoC4/Timer_100ms.c **** *
 503:Generated_Source\PSoC4/Timer_100ms.c **** * Summary:
 504:Generated_Source\PSoC4/Timer_100ms.c **** *  Writes the register that controls whether the PWM kill signal (stop input)
 505:Generated_Source\PSoC4/Timer_100ms.c **** *  causes the PWM counter to stop.  By default the kill operation does not stop
 506:Generated_Source\PSoC4/Timer_100ms.c **** *  the counter.  This functionality is only applicable to the three PWM modes.
 507:Generated_Source\PSoC4/Timer_100ms.c **** *
 508:Generated_Source\PSoC4/Timer_100ms.c **** *
 509:Generated_Source\PSoC4/Timer_100ms.c **** * Parameters:
 510:Generated_Source\PSoC4/Timer_100ms.c **** *  stopOnKillEnable
 511:Generated_Source\PSoC4/Timer_100ms.c **** *   Values:
 512:Generated_Source\PSoC4/Timer_100ms.c **** *     - 0 - Don't stop
 513:Generated_Source\PSoC4/Timer_100ms.c **** *     - 1 - Stop
 514:Generated_Source\PSoC4/Timer_100ms.c **** *
 515:Generated_Source\PSoC4/Timer_100ms.c **** * Return:
 516:Generated_Source\PSoC4/Timer_100ms.c **** *  None
 517:Generated_Source\PSoC4/Timer_100ms.c **** *
 518:Generated_Source\PSoC4/Timer_100ms.c **** *******************************************************************************/
 519:Generated_Source\PSoC4/Timer_100ms.c **** void Timer_100ms_SetPWMStopOnKill(uint32 stopOnKillEnable)
 520:Generated_Source\PSoC4/Timer_100ms.c **** {
 521:Generated_Source\PSoC4/Timer_100ms.c ****     uint8 enableInterrupts;
 522:Generated_Source\PSoC4/Timer_100ms.c **** 
 523:Generated_Source\PSoC4/Timer_100ms.c ****     enableInterrupts = CyEnterCriticalSection();
 524:Generated_Source\PSoC4/Timer_100ms.c **** 
 525:Generated_Source\PSoC4/Timer_100ms.c ****     Timer_100ms_CONTROL_REG &= (uint32)~Timer_100ms_PWM_STOP_KILL_MASK;
 526:Generated_Source\PSoC4/Timer_100ms.c ****     Timer_100ms_CONTROL_REG |= ((uint32)((stopOnKillEnable & Timer_100ms_1BIT_MASK)  <<
 527:Generated_Source\PSoC4/Timer_100ms.c ****                                                          Timer_100ms_PWM_STOP_KILL_SHIFT));
 528:Generated_Source\PSoC4/Timer_100ms.c **** 
 529:Generated_Source\PSoC4/Timer_100ms.c ****     CyExitCriticalSection(enableInterrupts);
 530:Generated_Source\PSoC4/Timer_100ms.c **** }
 531:Generated_Source\PSoC4/Timer_100ms.c **** 
 532:Generated_Source\PSoC4/Timer_100ms.c **** 
 533:Generated_Source\PSoC4/Timer_100ms.c **** /*******************************************************************************
ARM GAS  C:\Users\zhiantec\AppData\Local\Temp\ccsSOYXN.s 			page 11


 534:Generated_Source\PSoC4/Timer_100ms.c **** * Function Name: Timer_100ms_SetPWMDeadTime
 535:Generated_Source\PSoC4/Timer_100ms.c **** ********************************************************************************
 536:Generated_Source\PSoC4/Timer_100ms.c **** *
 537:Generated_Source\PSoC4/Timer_100ms.c **** * Summary:
 538:Generated_Source\PSoC4/Timer_100ms.c **** *  Writes the dead time control value.  This value delays the rising edge of
 539:Generated_Source\PSoC4/Timer_100ms.c **** *  both the line and line_n signals the designated number of cycles resulting
 540:Generated_Source\PSoC4/Timer_100ms.c **** *  in both signals being inactive for that many cycles.  This functionality is
 541:Generated_Source\PSoC4/Timer_100ms.c **** *  only applicable to the PWM in the dead time mode.
 542:Generated_Source\PSoC4/Timer_100ms.c **** 
 543:Generated_Source\PSoC4/Timer_100ms.c **** *
 544:Generated_Source\PSoC4/Timer_100ms.c **** * Parameters:
 545:Generated_Source\PSoC4/Timer_100ms.c **** *  Dead time to insert
 546:Generated_Source\PSoC4/Timer_100ms.c **** *   Values: 0 to 255
 547:Generated_Source\PSoC4/Timer_100ms.c **** *
 548:Generated_Source\PSoC4/Timer_100ms.c **** * Return:
 549:Generated_Source\PSoC4/Timer_100ms.c **** *  None
 550:Generated_Source\PSoC4/Timer_100ms.c **** *
 551:Generated_Source\PSoC4/Timer_100ms.c **** *******************************************************************************/
 552:Generated_Source\PSoC4/Timer_100ms.c **** void Timer_100ms_SetPWMDeadTime(uint32 deadTime)
 553:Generated_Source\PSoC4/Timer_100ms.c **** {
 554:Generated_Source\PSoC4/Timer_100ms.c ****     uint8 enableInterrupts;
 555:Generated_Source\PSoC4/Timer_100ms.c **** 
 556:Generated_Source\PSoC4/Timer_100ms.c ****     enableInterrupts = CyEnterCriticalSection();
 557:Generated_Source\PSoC4/Timer_100ms.c **** 
 558:Generated_Source\PSoC4/Timer_100ms.c ****     Timer_100ms_CONTROL_REG &= (uint32)~Timer_100ms_PRESCALER_MASK;
 559:Generated_Source\PSoC4/Timer_100ms.c ****     Timer_100ms_CONTROL_REG |= ((uint32)((deadTime & Timer_100ms_8BIT_MASK) <<
 560:Generated_Source\PSoC4/Timer_100ms.c ****                                                           Timer_100ms_PRESCALER_SHIFT));
 561:Generated_Source\PSoC4/Timer_100ms.c **** 
 562:Generated_Source\PSoC4/Timer_100ms.c ****     CyExitCriticalSection(enableInterrupts);
 563:Generated_Source\PSoC4/Timer_100ms.c **** }
 564:Generated_Source\PSoC4/Timer_100ms.c **** 
 565:Generated_Source\PSoC4/Timer_100ms.c **** 
 566:Generated_Source\PSoC4/Timer_100ms.c **** /*******************************************************************************
 567:Generated_Source\PSoC4/Timer_100ms.c **** * Function Name: Timer_100ms_SetPWMInvert
 568:Generated_Source\PSoC4/Timer_100ms.c **** ********************************************************************************
 569:Generated_Source\PSoC4/Timer_100ms.c **** *
 570:Generated_Source\PSoC4/Timer_100ms.c **** * Summary:
 571:Generated_Source\PSoC4/Timer_100ms.c **** *  Writes the bits that control whether the line and line_n outputs are
 572:Generated_Source\PSoC4/Timer_100ms.c **** *  inverted from their normal output values.  This functionality is only
 573:Generated_Source\PSoC4/Timer_100ms.c **** *  applicable to the three PWM modes.
 574:Generated_Source\PSoC4/Timer_100ms.c **** *
 575:Generated_Source\PSoC4/Timer_100ms.c **** * Parameters:
 576:Generated_Source\PSoC4/Timer_100ms.c **** *  mask: Mask of outputs to invert.
 577:Generated_Source\PSoC4/Timer_100ms.c **** *   Values:
 578:Generated_Source\PSoC4/Timer_100ms.c **** *         - Timer_100ms_INVERT_LINE   - Inverts the line output
 579:Generated_Source\PSoC4/Timer_100ms.c **** *         - Timer_100ms_INVERT_LINE_N - Inverts the line_n output
 580:Generated_Source\PSoC4/Timer_100ms.c **** *
 581:Generated_Source\PSoC4/Timer_100ms.c **** * Return:
 582:Generated_Source\PSoC4/Timer_100ms.c **** *  None
 583:Generated_Source\PSoC4/Timer_100ms.c **** *
 584:Generated_Source\PSoC4/Timer_100ms.c **** *******************************************************************************/
 585:Generated_Source\PSoC4/Timer_100ms.c **** void Timer_100ms_SetPWMInvert(uint32 mask)
 586:Generated_Source\PSoC4/Timer_100ms.c **** {
 587:Generated_Source\PSoC4/Timer_100ms.c ****     uint8 enableInterrupts;
 588:Generated_Source\PSoC4/Timer_100ms.c **** 
 589:Generated_Source\PSoC4/Timer_100ms.c ****     enableInterrupts = CyEnterCriticalSection();
 590:Generated_Source\PSoC4/Timer_100ms.c **** 
ARM GAS  C:\Users\zhiantec\AppData\Local\Temp\ccsSOYXN.s 			page 12


 591:Generated_Source\PSoC4/Timer_100ms.c ****     Timer_100ms_CONTROL_REG &= (uint32)~Timer_100ms_INV_OUT_MASK;
 592:Generated_Source\PSoC4/Timer_100ms.c ****     Timer_100ms_CONTROL_REG |= mask;
 593:Generated_Source\PSoC4/Timer_100ms.c **** 
 594:Generated_Source\PSoC4/Timer_100ms.c ****     CyExitCriticalSection(enableInterrupts);
 595:Generated_Source\PSoC4/Timer_100ms.c **** }
 596:Generated_Source\PSoC4/Timer_100ms.c **** 
 597:Generated_Source\PSoC4/Timer_100ms.c **** 
 598:Generated_Source\PSoC4/Timer_100ms.c **** 
 599:Generated_Source\PSoC4/Timer_100ms.c **** /*******************************************************************************
 600:Generated_Source\PSoC4/Timer_100ms.c **** * Function Name: Timer_100ms_WriteCounter
 601:Generated_Source\PSoC4/Timer_100ms.c **** ********************************************************************************
 602:Generated_Source\PSoC4/Timer_100ms.c **** *
 603:Generated_Source\PSoC4/Timer_100ms.c **** * Summary:
 604:Generated_Source\PSoC4/Timer_100ms.c **** *  Writes a new 16bit counter value directly into the counter register, thus
 605:Generated_Source\PSoC4/Timer_100ms.c **** *  setting the counter (not the period) to the value written. It is not
 606:Generated_Source\PSoC4/Timer_100ms.c **** *  advised to write to this field when the counter is running.
 607:Generated_Source\PSoC4/Timer_100ms.c **** *
 608:Generated_Source\PSoC4/Timer_100ms.c **** * Parameters:
 609:Generated_Source\PSoC4/Timer_100ms.c **** *  count: value to write
 610:Generated_Source\PSoC4/Timer_100ms.c **** *
 611:Generated_Source\PSoC4/Timer_100ms.c **** * Return:
 612:Generated_Source\PSoC4/Timer_100ms.c **** *  None
 613:Generated_Source\PSoC4/Timer_100ms.c **** *
 614:Generated_Source\PSoC4/Timer_100ms.c **** *******************************************************************************/
 615:Generated_Source\PSoC4/Timer_100ms.c **** void Timer_100ms_WriteCounter(uint32 count)
 616:Generated_Source\PSoC4/Timer_100ms.c **** {
 617:Generated_Source\PSoC4/Timer_100ms.c ****     Timer_100ms_COUNTER_REG = (count & Timer_100ms_16BIT_MASK);
 618:Generated_Source\PSoC4/Timer_100ms.c **** }
 619:Generated_Source\PSoC4/Timer_100ms.c **** 
 620:Generated_Source\PSoC4/Timer_100ms.c **** 
 621:Generated_Source\PSoC4/Timer_100ms.c **** /*******************************************************************************
 622:Generated_Source\PSoC4/Timer_100ms.c **** * Function Name: Timer_100ms_ReadCounter
 623:Generated_Source\PSoC4/Timer_100ms.c **** ********************************************************************************
 624:Generated_Source\PSoC4/Timer_100ms.c **** *
 625:Generated_Source\PSoC4/Timer_100ms.c **** * Summary:
 626:Generated_Source\PSoC4/Timer_100ms.c **** *  Reads the current counter value.
 627:Generated_Source\PSoC4/Timer_100ms.c **** *
 628:Generated_Source\PSoC4/Timer_100ms.c **** * Parameters:
 629:Generated_Source\PSoC4/Timer_100ms.c **** *  None
 630:Generated_Source\PSoC4/Timer_100ms.c **** *
 631:Generated_Source\PSoC4/Timer_100ms.c **** * Return:
 632:Generated_Source\PSoC4/Timer_100ms.c **** *  Current counter value
 633:Generated_Source\PSoC4/Timer_100ms.c **** *
 634:Generated_Source\PSoC4/Timer_100ms.c **** *******************************************************************************/
 635:Generated_Source\PSoC4/Timer_100ms.c **** uint32 Timer_100ms_ReadCounter(void)
 636:Generated_Source\PSoC4/Timer_100ms.c **** {
 637:Generated_Source\PSoC4/Timer_100ms.c ****     return (Timer_100ms_COUNTER_REG & Timer_100ms_16BIT_MASK);
 638:Generated_Source\PSoC4/Timer_100ms.c **** }
 639:Generated_Source\PSoC4/Timer_100ms.c **** 
 640:Generated_Source\PSoC4/Timer_100ms.c **** 
 641:Generated_Source\PSoC4/Timer_100ms.c **** /*******************************************************************************
 642:Generated_Source\PSoC4/Timer_100ms.c **** * Function Name: Timer_100ms_SetCounterMode
 643:Generated_Source\PSoC4/Timer_100ms.c **** ********************************************************************************
 644:Generated_Source\PSoC4/Timer_100ms.c **** *
 645:Generated_Source\PSoC4/Timer_100ms.c **** * Summary:
 646:Generated_Source\PSoC4/Timer_100ms.c **** *  Sets the counter mode.  Applicable to all modes except Quadrature Decoder
 647:Generated_Source\PSoC4/Timer_100ms.c **** *  and the PWM with a pseudo random output.
ARM GAS  C:\Users\zhiantec\AppData\Local\Temp\ccsSOYXN.s 			page 13


 648:Generated_Source\PSoC4/Timer_100ms.c **** *
 649:Generated_Source\PSoC4/Timer_100ms.c **** * Parameters:
 650:Generated_Source\PSoC4/Timer_100ms.c **** *  counterMode: Enumerated counter type values
 651:Generated_Source\PSoC4/Timer_100ms.c **** *   Values:
 652:Generated_Source\PSoC4/Timer_100ms.c **** *     - Timer_100ms_COUNT_UP       - Counts up
 653:Generated_Source\PSoC4/Timer_100ms.c **** *     - Timer_100ms_COUNT_DOWN     - Counts down
 654:Generated_Source\PSoC4/Timer_100ms.c **** *     - Timer_100ms_COUNT_UPDOWN0  - Counts up and down. Terminal count
 655:Generated_Source\PSoC4/Timer_100ms.c **** *                                         generated when counter reaches 0
 656:Generated_Source\PSoC4/Timer_100ms.c **** *     - Timer_100ms_COUNT_UPDOWN1  - Counts up and down. Terminal count
 657:Generated_Source\PSoC4/Timer_100ms.c **** *                                         generated both when counter reaches 0
 658:Generated_Source\PSoC4/Timer_100ms.c **** *                                         and period
 659:Generated_Source\PSoC4/Timer_100ms.c **** *
 660:Generated_Source\PSoC4/Timer_100ms.c **** * Return:
 661:Generated_Source\PSoC4/Timer_100ms.c **** *  None
 662:Generated_Source\PSoC4/Timer_100ms.c **** *
 663:Generated_Source\PSoC4/Timer_100ms.c **** *******************************************************************************/
 664:Generated_Source\PSoC4/Timer_100ms.c **** void Timer_100ms_SetCounterMode(uint32 counterMode)
 665:Generated_Source\PSoC4/Timer_100ms.c **** {
 666:Generated_Source\PSoC4/Timer_100ms.c ****     uint8 enableInterrupts;
 667:Generated_Source\PSoC4/Timer_100ms.c **** 
 668:Generated_Source\PSoC4/Timer_100ms.c ****     enableInterrupts = CyEnterCriticalSection();
 669:Generated_Source\PSoC4/Timer_100ms.c **** 
 670:Generated_Source\PSoC4/Timer_100ms.c ****     Timer_100ms_CONTROL_REG &= (uint32)~Timer_100ms_UPDOWN_MASK;
 671:Generated_Source\PSoC4/Timer_100ms.c ****     Timer_100ms_CONTROL_REG |= counterMode;
 672:Generated_Source\PSoC4/Timer_100ms.c **** 
 673:Generated_Source\PSoC4/Timer_100ms.c ****     CyExitCriticalSection(enableInterrupts);
 674:Generated_Source\PSoC4/Timer_100ms.c **** }
 675:Generated_Source\PSoC4/Timer_100ms.c **** 
 676:Generated_Source\PSoC4/Timer_100ms.c **** 
 677:Generated_Source\PSoC4/Timer_100ms.c **** /*******************************************************************************
 678:Generated_Source\PSoC4/Timer_100ms.c **** * Function Name: Timer_100ms_WritePeriod
 679:Generated_Source\PSoC4/Timer_100ms.c **** ********************************************************************************
 680:Generated_Source\PSoC4/Timer_100ms.c **** *
 681:Generated_Source\PSoC4/Timer_100ms.c **** * Summary:
 682:Generated_Source\PSoC4/Timer_100ms.c **** *  Writes the 16 bit period register with the new period value.
 683:Generated_Source\PSoC4/Timer_100ms.c **** *  To cause the counter to count for N cycles this register should be written
 684:Generated_Source\PSoC4/Timer_100ms.c **** *  with N-1 (counts from 0 to period inclusive).
 685:Generated_Source\PSoC4/Timer_100ms.c **** *
 686:Generated_Source\PSoC4/Timer_100ms.c **** * Parameters:
 687:Generated_Source\PSoC4/Timer_100ms.c **** *  period: Period value
 688:Generated_Source\PSoC4/Timer_100ms.c **** *
 689:Generated_Source\PSoC4/Timer_100ms.c **** * Return:
 690:Generated_Source\PSoC4/Timer_100ms.c **** *  None
 691:Generated_Source\PSoC4/Timer_100ms.c **** *
 692:Generated_Source\PSoC4/Timer_100ms.c **** *******************************************************************************/
 693:Generated_Source\PSoC4/Timer_100ms.c **** void Timer_100ms_WritePeriod(uint32 period)
 694:Generated_Source\PSoC4/Timer_100ms.c **** {
 695:Generated_Source\PSoC4/Timer_100ms.c ****     Timer_100ms_PERIOD_REG = (period & Timer_100ms_16BIT_MASK);
 696:Generated_Source\PSoC4/Timer_100ms.c **** }
 697:Generated_Source\PSoC4/Timer_100ms.c **** 
 698:Generated_Source\PSoC4/Timer_100ms.c **** 
 699:Generated_Source\PSoC4/Timer_100ms.c **** /*******************************************************************************
 700:Generated_Source\PSoC4/Timer_100ms.c **** * Function Name: Timer_100ms_ReadPeriod
 701:Generated_Source\PSoC4/Timer_100ms.c **** ********************************************************************************
 702:Generated_Source\PSoC4/Timer_100ms.c **** *
 703:Generated_Source\PSoC4/Timer_100ms.c **** * Summary:
 704:Generated_Source\PSoC4/Timer_100ms.c **** *  Reads the 16 bit period register.
ARM GAS  C:\Users\zhiantec\AppData\Local\Temp\ccsSOYXN.s 			page 14


 705:Generated_Source\PSoC4/Timer_100ms.c **** *
 706:Generated_Source\PSoC4/Timer_100ms.c **** * Parameters:
 707:Generated_Source\PSoC4/Timer_100ms.c **** *  None
 708:Generated_Source\PSoC4/Timer_100ms.c **** *
 709:Generated_Source\PSoC4/Timer_100ms.c **** * Return:
 710:Generated_Source\PSoC4/Timer_100ms.c **** *  Period value
 711:Generated_Source\PSoC4/Timer_100ms.c **** *
 712:Generated_Source\PSoC4/Timer_100ms.c **** *******************************************************************************/
 713:Generated_Source\PSoC4/Timer_100ms.c **** uint32 Timer_100ms_ReadPeriod(void)
 714:Generated_Source\PSoC4/Timer_100ms.c **** {
 715:Generated_Source\PSoC4/Timer_100ms.c ****     return (Timer_100ms_PERIOD_REG & Timer_100ms_16BIT_MASK);
 716:Generated_Source\PSoC4/Timer_100ms.c **** }
 717:Generated_Source\PSoC4/Timer_100ms.c **** 
 718:Generated_Source\PSoC4/Timer_100ms.c **** 
 719:Generated_Source\PSoC4/Timer_100ms.c **** /*******************************************************************************
 720:Generated_Source\PSoC4/Timer_100ms.c **** * Function Name: Timer_100ms_SetCompareSwap
 721:Generated_Source\PSoC4/Timer_100ms.c **** ********************************************************************************
 722:Generated_Source\PSoC4/Timer_100ms.c **** *
 723:Generated_Source\PSoC4/Timer_100ms.c **** * Summary:
 724:Generated_Source\PSoC4/Timer_100ms.c **** *  Writes the register that controls whether the compare registers are
 725:Generated_Source\PSoC4/Timer_100ms.c **** *  swapped. When enabled in the Timer/Counter mode(without capture) the swap
 726:Generated_Source\PSoC4/Timer_100ms.c **** *  occurs at a TC event. In the PWM mode the swap occurs at the next TC event
 727:Generated_Source\PSoC4/Timer_100ms.c **** *  following a hardware switch event.
 728:Generated_Source\PSoC4/Timer_100ms.c **** *
 729:Generated_Source\PSoC4/Timer_100ms.c **** * Parameters:
 730:Generated_Source\PSoC4/Timer_100ms.c **** *  swapEnable
 731:Generated_Source\PSoC4/Timer_100ms.c **** *   Values:
 732:Generated_Source\PSoC4/Timer_100ms.c **** *     - 0 - Disable swap
 733:Generated_Source\PSoC4/Timer_100ms.c **** *     - 1 - Enable swap
 734:Generated_Source\PSoC4/Timer_100ms.c **** *
 735:Generated_Source\PSoC4/Timer_100ms.c **** * Return:
 736:Generated_Source\PSoC4/Timer_100ms.c **** *  None
 737:Generated_Source\PSoC4/Timer_100ms.c **** *
 738:Generated_Source\PSoC4/Timer_100ms.c **** *******************************************************************************/
 739:Generated_Source\PSoC4/Timer_100ms.c **** void Timer_100ms_SetCompareSwap(uint32 swapEnable)
 740:Generated_Source\PSoC4/Timer_100ms.c **** {
 741:Generated_Source\PSoC4/Timer_100ms.c ****     uint8 enableInterrupts;
 742:Generated_Source\PSoC4/Timer_100ms.c **** 
 743:Generated_Source\PSoC4/Timer_100ms.c ****     enableInterrupts = CyEnterCriticalSection();
 744:Generated_Source\PSoC4/Timer_100ms.c **** 
 745:Generated_Source\PSoC4/Timer_100ms.c ****     Timer_100ms_CONTROL_REG &= (uint32)~Timer_100ms_RELOAD_CC_MASK;
 746:Generated_Source\PSoC4/Timer_100ms.c ****     Timer_100ms_CONTROL_REG |= (swapEnable & Timer_100ms_1BIT_MASK);
 747:Generated_Source\PSoC4/Timer_100ms.c **** 
 748:Generated_Source\PSoC4/Timer_100ms.c ****     CyExitCriticalSection(enableInterrupts);
 749:Generated_Source\PSoC4/Timer_100ms.c **** }
 750:Generated_Source\PSoC4/Timer_100ms.c **** 
 751:Generated_Source\PSoC4/Timer_100ms.c **** 
 752:Generated_Source\PSoC4/Timer_100ms.c **** /*******************************************************************************
 753:Generated_Source\PSoC4/Timer_100ms.c **** * Function Name: Timer_100ms_WritePeriodBuf
 754:Generated_Source\PSoC4/Timer_100ms.c **** ********************************************************************************
 755:Generated_Source\PSoC4/Timer_100ms.c **** *
 756:Generated_Source\PSoC4/Timer_100ms.c **** * Summary:
 757:Generated_Source\PSoC4/Timer_100ms.c **** *  Writes the 16 bit period buf register with the new period value.
 758:Generated_Source\PSoC4/Timer_100ms.c **** *
 759:Generated_Source\PSoC4/Timer_100ms.c **** * Parameters:
 760:Generated_Source\PSoC4/Timer_100ms.c **** *  periodBuf: Period value
 761:Generated_Source\PSoC4/Timer_100ms.c **** *
ARM GAS  C:\Users\zhiantec\AppData\Local\Temp\ccsSOYXN.s 			page 15


 762:Generated_Source\PSoC4/Timer_100ms.c **** * Return:
 763:Generated_Source\PSoC4/Timer_100ms.c **** *  None
 764:Generated_Source\PSoC4/Timer_100ms.c **** *
 765:Generated_Source\PSoC4/Timer_100ms.c **** *******************************************************************************/
 766:Generated_Source\PSoC4/Timer_100ms.c **** void Timer_100ms_WritePeriodBuf(uint32 periodBuf)
 767:Generated_Source\PSoC4/Timer_100ms.c **** {
 768:Generated_Source\PSoC4/Timer_100ms.c ****     Timer_100ms_PERIOD_BUF_REG = (periodBuf & Timer_100ms_16BIT_MASK);
 769:Generated_Source\PSoC4/Timer_100ms.c **** }
 770:Generated_Source\PSoC4/Timer_100ms.c **** 
 771:Generated_Source\PSoC4/Timer_100ms.c **** 
 772:Generated_Source\PSoC4/Timer_100ms.c **** /*******************************************************************************
 773:Generated_Source\PSoC4/Timer_100ms.c **** * Function Name: Timer_100ms_ReadPeriodBuf
 774:Generated_Source\PSoC4/Timer_100ms.c **** ********************************************************************************
 775:Generated_Source\PSoC4/Timer_100ms.c **** *
 776:Generated_Source\PSoC4/Timer_100ms.c **** * Summary:
 777:Generated_Source\PSoC4/Timer_100ms.c **** *  Reads the 16 bit period buf register.
 778:Generated_Source\PSoC4/Timer_100ms.c **** *
 779:Generated_Source\PSoC4/Timer_100ms.c **** * Parameters:
 780:Generated_Source\PSoC4/Timer_100ms.c **** *  None
 781:Generated_Source\PSoC4/Timer_100ms.c **** *
 782:Generated_Source\PSoC4/Timer_100ms.c **** * Return:
 783:Generated_Source\PSoC4/Timer_100ms.c **** *  Period value
 784:Generated_Source\PSoC4/Timer_100ms.c **** *
 785:Generated_Source\PSoC4/Timer_100ms.c **** *******************************************************************************/
 786:Generated_Source\PSoC4/Timer_100ms.c **** uint32 Timer_100ms_ReadPeriodBuf(void)
 787:Generated_Source\PSoC4/Timer_100ms.c **** {
 788:Generated_Source\PSoC4/Timer_100ms.c ****     return (Timer_100ms_PERIOD_BUF_REG & Timer_100ms_16BIT_MASK);
 789:Generated_Source\PSoC4/Timer_100ms.c **** }
 790:Generated_Source\PSoC4/Timer_100ms.c **** 
 791:Generated_Source\PSoC4/Timer_100ms.c **** 
 792:Generated_Source\PSoC4/Timer_100ms.c **** /*******************************************************************************
 793:Generated_Source\PSoC4/Timer_100ms.c **** * Function Name: Timer_100ms_SetPeriodSwap
 794:Generated_Source\PSoC4/Timer_100ms.c **** ********************************************************************************
 795:Generated_Source\PSoC4/Timer_100ms.c **** *
 796:Generated_Source\PSoC4/Timer_100ms.c **** * Summary:
 797:Generated_Source\PSoC4/Timer_100ms.c **** *  Writes the register that controls whether the period registers are
 798:Generated_Source\PSoC4/Timer_100ms.c **** *  swapped. When enabled in Timer/Counter mode the swap occurs at a TC event.
 799:Generated_Source\PSoC4/Timer_100ms.c **** *  In the PWM mode the swap occurs at the next TC event following a hardware
 800:Generated_Source\PSoC4/Timer_100ms.c **** *  switch event.
 801:Generated_Source\PSoC4/Timer_100ms.c **** *
 802:Generated_Source\PSoC4/Timer_100ms.c **** * Parameters:
 803:Generated_Source\PSoC4/Timer_100ms.c **** *  swapEnable
 804:Generated_Source\PSoC4/Timer_100ms.c **** *   Values:
 805:Generated_Source\PSoC4/Timer_100ms.c **** *     - 0 - Disable swap
 806:Generated_Source\PSoC4/Timer_100ms.c **** *     - 1 - Enable swap
 807:Generated_Source\PSoC4/Timer_100ms.c **** *
 808:Generated_Source\PSoC4/Timer_100ms.c **** * Return:
 809:Generated_Source\PSoC4/Timer_100ms.c **** *  None
 810:Generated_Source\PSoC4/Timer_100ms.c **** *
 811:Generated_Source\PSoC4/Timer_100ms.c **** *******************************************************************************/
 812:Generated_Source\PSoC4/Timer_100ms.c **** void Timer_100ms_SetPeriodSwap(uint32 swapEnable)
 813:Generated_Source\PSoC4/Timer_100ms.c **** {
 814:Generated_Source\PSoC4/Timer_100ms.c ****     uint8 enableInterrupts;
 815:Generated_Source\PSoC4/Timer_100ms.c **** 
 816:Generated_Source\PSoC4/Timer_100ms.c ****     enableInterrupts = CyEnterCriticalSection();
 817:Generated_Source\PSoC4/Timer_100ms.c **** 
 818:Generated_Source\PSoC4/Timer_100ms.c ****     Timer_100ms_CONTROL_REG &= (uint32)~Timer_100ms_RELOAD_PERIOD_MASK;
ARM GAS  C:\Users\zhiantec\AppData\Local\Temp\ccsSOYXN.s 			page 16


 819:Generated_Source\PSoC4/Timer_100ms.c ****     Timer_100ms_CONTROL_REG |= ((uint32)((swapEnable & Timer_100ms_1BIT_MASK) <<
 820:Generated_Source\PSoC4/Timer_100ms.c ****                                                             Timer_100ms_RELOAD_PERIOD_SHIFT));
 821:Generated_Source\PSoC4/Timer_100ms.c **** 
 822:Generated_Source\PSoC4/Timer_100ms.c ****     CyExitCriticalSection(enableInterrupts);
 823:Generated_Source\PSoC4/Timer_100ms.c **** }
 824:Generated_Source\PSoC4/Timer_100ms.c **** 
 825:Generated_Source\PSoC4/Timer_100ms.c **** 
 826:Generated_Source\PSoC4/Timer_100ms.c **** /*******************************************************************************
 827:Generated_Source\PSoC4/Timer_100ms.c **** * Function Name: Timer_100ms_WriteCompare
 828:Generated_Source\PSoC4/Timer_100ms.c **** ********************************************************************************
 829:Generated_Source\PSoC4/Timer_100ms.c **** *
 830:Generated_Source\PSoC4/Timer_100ms.c **** * Summary:
 831:Generated_Source\PSoC4/Timer_100ms.c **** *  Writes the 16 bit compare register with the new compare value. Not
 832:Generated_Source\PSoC4/Timer_100ms.c **** *  applicable for Timer/Counter with Capture or in Quadrature Decoder modes.
 833:Generated_Source\PSoC4/Timer_100ms.c **** *
 834:Generated_Source\PSoC4/Timer_100ms.c **** * Parameters:
 835:Generated_Source\PSoC4/Timer_100ms.c **** *  compare: Compare value
 836:Generated_Source\PSoC4/Timer_100ms.c **** *
 837:Generated_Source\PSoC4/Timer_100ms.c **** * Return:
 838:Generated_Source\PSoC4/Timer_100ms.c **** *  None
 839:Generated_Source\PSoC4/Timer_100ms.c **** *
 840:Generated_Source\PSoC4/Timer_100ms.c **** * Note:
 841:Generated_Source\PSoC4/Timer_100ms.c **** *  It is not recommended to use the value equal to "0" or equal to 
 842:Generated_Source\PSoC4/Timer_100ms.c **** *  "period value" in Center or Asymmetric align PWM modes on the 
 843:Generated_Source\PSoC4/Timer_100ms.c **** *  PSoC 4100/PSoC 4200 devices.
 844:Generated_Source\PSoC4/Timer_100ms.c **** *  PSoC 4000 devices write the 16 bit compare register with the decremented 
 845:Generated_Source\PSoC4/Timer_100ms.c **** *  compare value in the Up counting mode (except 0x0u), and the incremented 
 846:Generated_Source\PSoC4/Timer_100ms.c **** *  compare value in the Down counting mode (except 0xFFFFu).
 847:Generated_Source\PSoC4/Timer_100ms.c **** *
 848:Generated_Source\PSoC4/Timer_100ms.c **** *******************************************************************************/
 849:Generated_Source\PSoC4/Timer_100ms.c **** void Timer_100ms_WriteCompare(uint32 compare)
 850:Generated_Source\PSoC4/Timer_100ms.c **** {
 851:Generated_Source\PSoC4/Timer_100ms.c ****     #if (Timer_100ms_CY_TCPWM_4000)
 852:Generated_Source\PSoC4/Timer_100ms.c ****         uint32 currentMode;
 853:Generated_Source\PSoC4/Timer_100ms.c ****     #endif /* (Timer_100ms_CY_TCPWM_4000) */
 854:Generated_Source\PSoC4/Timer_100ms.c **** 
 855:Generated_Source\PSoC4/Timer_100ms.c ****     #if (Timer_100ms_CY_TCPWM_4000)
 856:Generated_Source\PSoC4/Timer_100ms.c ****         currentMode = ((Timer_100ms_CONTROL_REG & Timer_100ms_UPDOWN_MASK) >> Timer_100ms_UPDOWN_SH
 857:Generated_Source\PSoC4/Timer_100ms.c **** 
 858:Generated_Source\PSoC4/Timer_100ms.c ****         if (((uint32)Timer_100ms__COUNT_DOWN == currentMode) && (0xFFFFu != compare))
 859:Generated_Source\PSoC4/Timer_100ms.c ****         {
 860:Generated_Source\PSoC4/Timer_100ms.c ****             compare++;
 861:Generated_Source\PSoC4/Timer_100ms.c ****         }
 862:Generated_Source\PSoC4/Timer_100ms.c ****         else if (((uint32)Timer_100ms__COUNT_UP == currentMode) && (0u != compare))
 863:Generated_Source\PSoC4/Timer_100ms.c ****         {
 864:Generated_Source\PSoC4/Timer_100ms.c ****             compare--;
 865:Generated_Source\PSoC4/Timer_100ms.c ****         }
 866:Generated_Source\PSoC4/Timer_100ms.c ****         else
 867:Generated_Source\PSoC4/Timer_100ms.c ****         {
 868:Generated_Source\PSoC4/Timer_100ms.c ****         }
 869:Generated_Source\PSoC4/Timer_100ms.c ****         
 870:Generated_Source\PSoC4/Timer_100ms.c ****     
 871:Generated_Source\PSoC4/Timer_100ms.c ****     #endif /* (Timer_100ms_CY_TCPWM_4000) */
 872:Generated_Source\PSoC4/Timer_100ms.c ****     
 873:Generated_Source\PSoC4/Timer_100ms.c ****     Timer_100ms_COMP_CAP_REG = (compare & Timer_100ms_16BIT_MASK);
  38              		.loc 1 873 0
  39 000c 0021     		mov	r1, #0
ARM GAS  C:\Users\zhiantec\AppData\Local\Temp\ccsSOYXN.s 			page 17


  40              	.LBE11:
  41              	.LBE10:
  61:Generated_Source\PSoC4/Timer_100ms.c ****     
  42              		.loc 1 61 0
  43 000e 1A60     		str	r2, [r3]
  44              	.LVL0:
  45              	.LBB14:
  46              	.LBB15:
 874:Generated_Source\PSoC4/Timer_100ms.c **** }
 875:Generated_Source\PSoC4/Timer_100ms.c **** 
 876:Generated_Source\PSoC4/Timer_100ms.c **** 
 877:Generated_Source\PSoC4/Timer_100ms.c **** /*******************************************************************************
 878:Generated_Source\PSoC4/Timer_100ms.c **** * Function Name: Timer_100ms_ReadCompare
 879:Generated_Source\PSoC4/Timer_100ms.c **** ********************************************************************************
 880:Generated_Source\PSoC4/Timer_100ms.c **** *
 881:Generated_Source\PSoC4/Timer_100ms.c **** * Summary:
 882:Generated_Source\PSoC4/Timer_100ms.c **** *  Reads the compare register. Not applicable for Timer/Counter with Capture
 883:Generated_Source\PSoC4/Timer_100ms.c **** *  or in Quadrature Decoder modes.
 884:Generated_Source\PSoC4/Timer_100ms.c **** *  PSoC 4000 devices read the incremented compare register value in the 
 885:Generated_Source\PSoC4/Timer_100ms.c **** *  Up counting mode (except 0xFFFFu), and the decremented value in the 
 886:Generated_Source\PSoC4/Timer_100ms.c **** *  Down counting mode (except 0x0u).
 887:Generated_Source\PSoC4/Timer_100ms.c **** *
 888:Generated_Source\PSoC4/Timer_100ms.c **** * Parameters:
 889:Generated_Source\PSoC4/Timer_100ms.c **** *  None
 890:Generated_Source\PSoC4/Timer_100ms.c **** *
 891:Generated_Source\PSoC4/Timer_100ms.c **** * Return:
 892:Generated_Source\PSoC4/Timer_100ms.c **** *  Compare value
 893:Generated_Source\PSoC4/Timer_100ms.c **** *
 894:Generated_Source\PSoC4/Timer_100ms.c **** * Note:
 895:Generated_Source\PSoC4/Timer_100ms.c **** *  PSoC 4000 devices read the incremented compare register value in the 
 896:Generated_Source\PSoC4/Timer_100ms.c **** *  Up counting mode (except 0xFFFFu), and the decremented value in the 
 897:Generated_Source\PSoC4/Timer_100ms.c **** *  Down counting mode (except 0x0u).
 898:Generated_Source\PSoC4/Timer_100ms.c **** *
 899:Generated_Source\PSoC4/Timer_100ms.c **** *******************************************************************************/
 900:Generated_Source\PSoC4/Timer_100ms.c **** uint32 Timer_100ms_ReadCompare(void)
 901:Generated_Source\PSoC4/Timer_100ms.c **** {
 902:Generated_Source\PSoC4/Timer_100ms.c ****     #if (Timer_100ms_CY_TCPWM_4000)
 903:Generated_Source\PSoC4/Timer_100ms.c ****         uint32 currentMode;
 904:Generated_Source\PSoC4/Timer_100ms.c ****         uint32 regVal;
 905:Generated_Source\PSoC4/Timer_100ms.c ****     #endif /* (Timer_100ms_CY_TCPWM_4000) */
 906:Generated_Source\PSoC4/Timer_100ms.c **** 
 907:Generated_Source\PSoC4/Timer_100ms.c ****     #if (Timer_100ms_CY_TCPWM_4000)
 908:Generated_Source\PSoC4/Timer_100ms.c ****         currentMode = ((Timer_100ms_CONTROL_REG & Timer_100ms_UPDOWN_MASK) >> Timer_100ms_UPDOWN_SH
 909:Generated_Source\PSoC4/Timer_100ms.c ****         
 910:Generated_Source\PSoC4/Timer_100ms.c ****         regVal = Timer_100ms_COMP_CAP_REG;
 911:Generated_Source\PSoC4/Timer_100ms.c ****         
 912:Generated_Source\PSoC4/Timer_100ms.c ****         if (((uint32)Timer_100ms__COUNT_DOWN == currentMode) && (0u != regVal))
 913:Generated_Source\PSoC4/Timer_100ms.c ****         {
 914:Generated_Source\PSoC4/Timer_100ms.c ****             regVal--;
 915:Generated_Source\PSoC4/Timer_100ms.c ****         }
 916:Generated_Source\PSoC4/Timer_100ms.c ****         else if (((uint32)Timer_100ms__COUNT_UP == currentMode) && (0xFFFFu != regVal))
 917:Generated_Source\PSoC4/Timer_100ms.c ****         {
 918:Generated_Source\PSoC4/Timer_100ms.c ****             regVal++;
 919:Generated_Source\PSoC4/Timer_100ms.c ****         }
 920:Generated_Source\PSoC4/Timer_100ms.c ****         else
 921:Generated_Source\PSoC4/Timer_100ms.c ****         {
 922:Generated_Source\PSoC4/Timer_100ms.c ****         }
ARM GAS  C:\Users\zhiantec\AppData\Local\Temp\ccsSOYXN.s 			page 18


 923:Generated_Source\PSoC4/Timer_100ms.c **** 
 924:Generated_Source\PSoC4/Timer_100ms.c ****         return (regVal & Timer_100ms_16BIT_MASK);
 925:Generated_Source\PSoC4/Timer_100ms.c ****     #else
 926:Generated_Source\PSoC4/Timer_100ms.c ****         return (Timer_100ms_COMP_CAP_REG & Timer_100ms_16BIT_MASK);
 927:Generated_Source\PSoC4/Timer_100ms.c ****     #endif /* (Timer_100ms_CY_TCPWM_4000) */
 928:Generated_Source\PSoC4/Timer_100ms.c **** }
 929:Generated_Source\PSoC4/Timer_100ms.c **** 
 930:Generated_Source\PSoC4/Timer_100ms.c **** 
 931:Generated_Source\PSoC4/Timer_100ms.c **** /*******************************************************************************
 932:Generated_Source\PSoC4/Timer_100ms.c **** * Function Name: Timer_100ms_WriteCompareBuf
 933:Generated_Source\PSoC4/Timer_100ms.c **** ********************************************************************************
 934:Generated_Source\PSoC4/Timer_100ms.c **** *
 935:Generated_Source\PSoC4/Timer_100ms.c **** * Summary:
 936:Generated_Source\PSoC4/Timer_100ms.c **** *  Writes the 16 bit compare buffer register with the new compare value. Not
 937:Generated_Source\PSoC4/Timer_100ms.c **** *  applicable for Timer/Counter with Capture or in Quadrature Decoder modes.
 938:Generated_Source\PSoC4/Timer_100ms.c **** *
 939:Generated_Source\PSoC4/Timer_100ms.c **** * Parameters:
 940:Generated_Source\PSoC4/Timer_100ms.c **** *  compareBuf: Compare value
 941:Generated_Source\PSoC4/Timer_100ms.c **** *
 942:Generated_Source\PSoC4/Timer_100ms.c **** * Return:
 943:Generated_Source\PSoC4/Timer_100ms.c **** *  None
 944:Generated_Source\PSoC4/Timer_100ms.c **** *
 945:Generated_Source\PSoC4/Timer_100ms.c **** * Note:
 946:Generated_Source\PSoC4/Timer_100ms.c **** *  It is not recommended to use the value equal to "0" or equal to 
 947:Generated_Source\PSoC4/Timer_100ms.c **** *  "period value" in Center or Asymmetric align PWM modes on the 
 948:Generated_Source\PSoC4/Timer_100ms.c **** *  PSoC 4100/PSoC 4200 devices.
 949:Generated_Source\PSoC4/Timer_100ms.c **** *  PSoC 4000 devices write the 16 bit compare register with the decremented 
 950:Generated_Source\PSoC4/Timer_100ms.c **** *  compare value in the Up counting mode (except 0x0u), and the incremented 
 951:Generated_Source\PSoC4/Timer_100ms.c **** *  compare value in the Down counting mode (except 0xFFFFu).
 952:Generated_Source\PSoC4/Timer_100ms.c **** *
 953:Generated_Source\PSoC4/Timer_100ms.c **** *******************************************************************************/
 954:Generated_Source\PSoC4/Timer_100ms.c **** void Timer_100ms_WriteCompareBuf(uint32 compareBuf)
 955:Generated_Source\PSoC4/Timer_100ms.c **** {
 956:Generated_Source\PSoC4/Timer_100ms.c ****     #if (Timer_100ms_CY_TCPWM_4000)
 957:Generated_Source\PSoC4/Timer_100ms.c ****         uint32 currentMode;
 958:Generated_Source\PSoC4/Timer_100ms.c ****     #endif /* (Timer_100ms_CY_TCPWM_4000) */
 959:Generated_Source\PSoC4/Timer_100ms.c **** 
 960:Generated_Source\PSoC4/Timer_100ms.c ****     #if (Timer_100ms_CY_TCPWM_4000)
 961:Generated_Source\PSoC4/Timer_100ms.c ****         currentMode = ((Timer_100ms_CONTROL_REG & Timer_100ms_UPDOWN_MASK) >> Timer_100ms_UPDOWN_SH
 962:Generated_Source\PSoC4/Timer_100ms.c **** 
 963:Generated_Source\PSoC4/Timer_100ms.c ****         if (((uint32)Timer_100ms__COUNT_DOWN == currentMode) && (0xFFFFu != compareBuf))
 964:Generated_Source\PSoC4/Timer_100ms.c ****         {
 965:Generated_Source\PSoC4/Timer_100ms.c ****             compareBuf++;
 966:Generated_Source\PSoC4/Timer_100ms.c ****         }
 967:Generated_Source\PSoC4/Timer_100ms.c ****         else if (((uint32)Timer_100ms__COUNT_UP == currentMode) && (0u != compareBuf))
 968:Generated_Source\PSoC4/Timer_100ms.c ****         {
 969:Generated_Source\PSoC4/Timer_100ms.c ****             compareBuf --;
 970:Generated_Source\PSoC4/Timer_100ms.c ****         }
 971:Generated_Source\PSoC4/Timer_100ms.c ****         else
 972:Generated_Source\PSoC4/Timer_100ms.c ****         {
 973:Generated_Source\PSoC4/Timer_100ms.c ****         }
 974:Generated_Source\PSoC4/Timer_100ms.c ****     #endif /* (Timer_100ms_CY_TCPWM_4000) */
 975:Generated_Source\PSoC4/Timer_100ms.c ****     
 976:Generated_Source\PSoC4/Timer_100ms.c ****     Timer_100ms_COMP_CAP_BUF_REG = (compareBuf & Timer_100ms_16BIT_MASK);
 977:Generated_Source\PSoC4/Timer_100ms.c **** }
 978:Generated_Source\PSoC4/Timer_100ms.c **** 
 979:Generated_Source\PSoC4/Timer_100ms.c **** 
ARM GAS  C:\Users\zhiantec\AppData\Local\Temp\ccsSOYXN.s 			page 19


 980:Generated_Source\PSoC4/Timer_100ms.c **** /*******************************************************************************
 981:Generated_Source\PSoC4/Timer_100ms.c **** * Function Name: Timer_100ms_ReadCompareBuf
 982:Generated_Source\PSoC4/Timer_100ms.c **** ********************************************************************************
 983:Generated_Source\PSoC4/Timer_100ms.c **** *
 984:Generated_Source\PSoC4/Timer_100ms.c **** * Summary:
 985:Generated_Source\PSoC4/Timer_100ms.c **** *  Reads the compare buffer register. Not applicable for Timer/Counter with
 986:Generated_Source\PSoC4/Timer_100ms.c **** *  Capture or in Quadrature Decoder modes.
 987:Generated_Source\PSoC4/Timer_100ms.c **** *
 988:Generated_Source\PSoC4/Timer_100ms.c **** * Parameters:
 989:Generated_Source\PSoC4/Timer_100ms.c **** *  None
 990:Generated_Source\PSoC4/Timer_100ms.c **** *
 991:Generated_Source\PSoC4/Timer_100ms.c **** * Return:
 992:Generated_Source\PSoC4/Timer_100ms.c **** *  Compare buffer value
 993:Generated_Source\PSoC4/Timer_100ms.c **** *
 994:Generated_Source\PSoC4/Timer_100ms.c **** * Note:
 995:Generated_Source\PSoC4/Timer_100ms.c **** *  PSoC 4000 devices read the incremented compare register value in the 
 996:Generated_Source\PSoC4/Timer_100ms.c **** *  Up counting mode (except 0xFFFFu), and the decremented value in the 
 997:Generated_Source\PSoC4/Timer_100ms.c **** *  Down counting mode (except 0x0u).
 998:Generated_Source\PSoC4/Timer_100ms.c **** *
 999:Generated_Source\PSoC4/Timer_100ms.c **** *******************************************************************************/
1000:Generated_Source\PSoC4/Timer_100ms.c **** uint32 Timer_100ms_ReadCompareBuf(void)
1001:Generated_Source\PSoC4/Timer_100ms.c **** {
1002:Generated_Source\PSoC4/Timer_100ms.c ****     #if (Timer_100ms_CY_TCPWM_4000)
1003:Generated_Source\PSoC4/Timer_100ms.c ****         uint32 currentMode;
1004:Generated_Source\PSoC4/Timer_100ms.c ****         uint32 regVal;
1005:Generated_Source\PSoC4/Timer_100ms.c ****     #endif /* (Timer_100ms_CY_TCPWM_4000) */
1006:Generated_Source\PSoC4/Timer_100ms.c **** 
1007:Generated_Source\PSoC4/Timer_100ms.c ****     #if (Timer_100ms_CY_TCPWM_4000)
1008:Generated_Source\PSoC4/Timer_100ms.c ****         currentMode = ((Timer_100ms_CONTROL_REG & Timer_100ms_UPDOWN_MASK) >> Timer_100ms_UPDOWN_SH
1009:Generated_Source\PSoC4/Timer_100ms.c **** 
1010:Generated_Source\PSoC4/Timer_100ms.c ****         regVal = Timer_100ms_COMP_CAP_BUF_REG;
1011:Generated_Source\PSoC4/Timer_100ms.c ****         
1012:Generated_Source\PSoC4/Timer_100ms.c ****         if (((uint32)Timer_100ms__COUNT_DOWN == currentMode) && (0u != regVal))
1013:Generated_Source\PSoC4/Timer_100ms.c ****         {
1014:Generated_Source\PSoC4/Timer_100ms.c ****             regVal--;
1015:Generated_Source\PSoC4/Timer_100ms.c ****         }
1016:Generated_Source\PSoC4/Timer_100ms.c ****         else if (((uint32)Timer_100ms__COUNT_UP == currentMode) && (0xFFFFu != regVal))
1017:Generated_Source\PSoC4/Timer_100ms.c ****         {
1018:Generated_Source\PSoC4/Timer_100ms.c ****             regVal++;
1019:Generated_Source\PSoC4/Timer_100ms.c ****         }
1020:Generated_Source\PSoC4/Timer_100ms.c ****         else
1021:Generated_Source\PSoC4/Timer_100ms.c ****         {
1022:Generated_Source\PSoC4/Timer_100ms.c ****         }
1023:Generated_Source\PSoC4/Timer_100ms.c **** 
1024:Generated_Source\PSoC4/Timer_100ms.c ****         return (regVal & Timer_100ms_16BIT_MASK);
1025:Generated_Source\PSoC4/Timer_100ms.c ****     #else
1026:Generated_Source\PSoC4/Timer_100ms.c ****         return (Timer_100ms_COMP_CAP_BUF_REG & Timer_100ms_16BIT_MASK);
1027:Generated_Source\PSoC4/Timer_100ms.c ****     #endif /* (Timer_100ms_CY_TCPWM_4000) */
1028:Generated_Source\PSoC4/Timer_100ms.c **** }
1029:Generated_Source\PSoC4/Timer_100ms.c **** 
1030:Generated_Source\PSoC4/Timer_100ms.c **** 
1031:Generated_Source\PSoC4/Timer_100ms.c **** /*******************************************************************************
1032:Generated_Source\PSoC4/Timer_100ms.c **** * Function Name: Timer_100ms_ReadCapture
1033:Generated_Source\PSoC4/Timer_100ms.c **** ********************************************************************************
1034:Generated_Source\PSoC4/Timer_100ms.c **** *
1035:Generated_Source\PSoC4/Timer_100ms.c **** * Summary:
1036:Generated_Source\PSoC4/Timer_100ms.c **** *  Reads the captured counter value. This API is applicable only for
ARM GAS  C:\Users\zhiantec\AppData\Local\Temp\ccsSOYXN.s 			page 20


1037:Generated_Source\PSoC4/Timer_100ms.c **** *  Timer/Counter with the capture mode and Quadrature Decoder modes.
1038:Generated_Source\PSoC4/Timer_100ms.c **** *
1039:Generated_Source\PSoC4/Timer_100ms.c **** * Parameters:
1040:Generated_Source\PSoC4/Timer_100ms.c **** *  None
1041:Generated_Source\PSoC4/Timer_100ms.c **** *
1042:Generated_Source\PSoC4/Timer_100ms.c **** * Return:
1043:Generated_Source\PSoC4/Timer_100ms.c **** *  Capture value
1044:Generated_Source\PSoC4/Timer_100ms.c **** *
1045:Generated_Source\PSoC4/Timer_100ms.c **** *******************************************************************************/
1046:Generated_Source\PSoC4/Timer_100ms.c **** uint32 Timer_100ms_ReadCapture(void)
1047:Generated_Source\PSoC4/Timer_100ms.c **** {
1048:Generated_Source\PSoC4/Timer_100ms.c ****     return (Timer_100ms_COMP_CAP_REG & Timer_100ms_16BIT_MASK);
1049:Generated_Source\PSoC4/Timer_100ms.c **** }
1050:Generated_Source\PSoC4/Timer_100ms.c **** 
1051:Generated_Source\PSoC4/Timer_100ms.c **** 
1052:Generated_Source\PSoC4/Timer_100ms.c **** /*******************************************************************************
1053:Generated_Source\PSoC4/Timer_100ms.c **** * Function Name: Timer_100ms_ReadCaptureBuf
1054:Generated_Source\PSoC4/Timer_100ms.c **** ********************************************************************************
1055:Generated_Source\PSoC4/Timer_100ms.c **** *
1056:Generated_Source\PSoC4/Timer_100ms.c **** * Summary:
1057:Generated_Source\PSoC4/Timer_100ms.c **** *  Reads the capture buffer register. This API is applicable only for
1058:Generated_Source\PSoC4/Timer_100ms.c **** *  Timer/Counter with the capture mode and Quadrature Decoder modes.
1059:Generated_Source\PSoC4/Timer_100ms.c **** *
1060:Generated_Source\PSoC4/Timer_100ms.c **** * Parameters:
1061:Generated_Source\PSoC4/Timer_100ms.c **** *  None
1062:Generated_Source\PSoC4/Timer_100ms.c **** *
1063:Generated_Source\PSoC4/Timer_100ms.c **** * Return:
1064:Generated_Source\PSoC4/Timer_100ms.c **** *  Capture buffer value
1065:Generated_Source\PSoC4/Timer_100ms.c **** *
1066:Generated_Source\PSoC4/Timer_100ms.c **** *******************************************************************************/
1067:Generated_Source\PSoC4/Timer_100ms.c **** uint32 Timer_100ms_ReadCaptureBuf(void)
1068:Generated_Source\PSoC4/Timer_100ms.c **** {
1069:Generated_Source\PSoC4/Timer_100ms.c ****     return (Timer_100ms_COMP_CAP_BUF_REG & Timer_100ms_16BIT_MASK);
1070:Generated_Source\PSoC4/Timer_100ms.c **** }
1071:Generated_Source\PSoC4/Timer_100ms.c **** 
1072:Generated_Source\PSoC4/Timer_100ms.c **** 
1073:Generated_Source\PSoC4/Timer_100ms.c **** /*******************************************************************************
1074:Generated_Source\PSoC4/Timer_100ms.c **** * Function Name: Timer_100ms_SetCaptureMode
1075:Generated_Source\PSoC4/Timer_100ms.c **** ********************************************************************************
1076:Generated_Source\PSoC4/Timer_100ms.c **** *
1077:Generated_Source\PSoC4/Timer_100ms.c **** * Summary:
1078:Generated_Source\PSoC4/Timer_100ms.c **** *  Sets the capture trigger mode. For PWM mode this is the switch input.
1079:Generated_Source\PSoC4/Timer_100ms.c **** *  This input is not applicable to the Timer/Counter without Capture and
1080:Generated_Source\PSoC4/Timer_100ms.c **** *  Quadrature Decoder modes.
1081:Generated_Source\PSoC4/Timer_100ms.c **** *
1082:Generated_Source\PSoC4/Timer_100ms.c **** * Parameters:
1083:Generated_Source\PSoC4/Timer_100ms.c **** *  triggerMode: Enumerated trigger mode value
1084:Generated_Source\PSoC4/Timer_100ms.c **** *   Values:
1085:Generated_Source\PSoC4/Timer_100ms.c **** *     - Timer_100ms_TRIG_LEVEL     - Level
1086:Generated_Source\PSoC4/Timer_100ms.c **** *     - Timer_100ms_TRIG_RISING    - Rising edge
1087:Generated_Source\PSoC4/Timer_100ms.c **** *     - Timer_100ms_TRIG_FALLING   - Falling edge
1088:Generated_Source\PSoC4/Timer_100ms.c **** *     - Timer_100ms_TRIG_BOTH      - Both rising and falling edge
1089:Generated_Source\PSoC4/Timer_100ms.c **** *
1090:Generated_Source\PSoC4/Timer_100ms.c **** * Return:
1091:Generated_Source\PSoC4/Timer_100ms.c **** *  None
1092:Generated_Source\PSoC4/Timer_100ms.c **** *
1093:Generated_Source\PSoC4/Timer_100ms.c **** *******************************************************************************/
ARM GAS  C:\Users\zhiantec\AppData\Local\Temp\ccsSOYXN.s 			page 21


1094:Generated_Source\PSoC4/Timer_100ms.c **** void Timer_100ms_SetCaptureMode(uint32 triggerMode)
1095:Generated_Source\PSoC4/Timer_100ms.c **** {
1096:Generated_Source\PSoC4/Timer_100ms.c ****     uint8 enableInterrupts;
1097:Generated_Source\PSoC4/Timer_100ms.c **** 
1098:Generated_Source\PSoC4/Timer_100ms.c ****     enableInterrupts = CyEnterCriticalSection();
1099:Generated_Source\PSoC4/Timer_100ms.c **** 
1100:Generated_Source\PSoC4/Timer_100ms.c ****     Timer_100ms_TRIG_CONTROL1_REG &= (uint32)~Timer_100ms_CAPTURE_MASK;
1101:Generated_Source\PSoC4/Timer_100ms.c ****     Timer_100ms_TRIG_CONTROL1_REG |= triggerMode;
1102:Generated_Source\PSoC4/Timer_100ms.c **** 
1103:Generated_Source\PSoC4/Timer_100ms.c ****     CyExitCriticalSection(enableInterrupts);
1104:Generated_Source\PSoC4/Timer_100ms.c **** }
1105:Generated_Source\PSoC4/Timer_100ms.c **** 
1106:Generated_Source\PSoC4/Timer_100ms.c **** 
1107:Generated_Source\PSoC4/Timer_100ms.c **** /*******************************************************************************
1108:Generated_Source\PSoC4/Timer_100ms.c **** * Function Name: Timer_100ms_SetReloadMode
1109:Generated_Source\PSoC4/Timer_100ms.c **** ********************************************************************************
1110:Generated_Source\PSoC4/Timer_100ms.c **** *
1111:Generated_Source\PSoC4/Timer_100ms.c **** * Summary:
1112:Generated_Source\PSoC4/Timer_100ms.c **** *  Sets the reload trigger mode. For Quadrature Decoder mode this is the index
1113:Generated_Source\PSoC4/Timer_100ms.c **** *  input.
1114:Generated_Source\PSoC4/Timer_100ms.c **** *
1115:Generated_Source\PSoC4/Timer_100ms.c **** * Parameters:
1116:Generated_Source\PSoC4/Timer_100ms.c **** *  triggerMode: Enumerated trigger mode value
1117:Generated_Source\PSoC4/Timer_100ms.c **** *   Values:
1118:Generated_Source\PSoC4/Timer_100ms.c **** *     - Timer_100ms_TRIG_LEVEL     - Level
1119:Generated_Source\PSoC4/Timer_100ms.c **** *     - Timer_100ms_TRIG_RISING    - Rising edge
1120:Generated_Source\PSoC4/Timer_100ms.c **** *     - Timer_100ms_TRIG_FALLING   - Falling edge
1121:Generated_Source\PSoC4/Timer_100ms.c **** *     - Timer_100ms_TRIG_BOTH      - Both rising and falling edge
1122:Generated_Source\PSoC4/Timer_100ms.c **** *
1123:Generated_Source\PSoC4/Timer_100ms.c **** * Return:
1124:Generated_Source\PSoC4/Timer_100ms.c **** *  None
1125:Generated_Source\PSoC4/Timer_100ms.c **** *
1126:Generated_Source\PSoC4/Timer_100ms.c **** *******************************************************************************/
1127:Generated_Source\PSoC4/Timer_100ms.c **** void Timer_100ms_SetReloadMode(uint32 triggerMode)
1128:Generated_Source\PSoC4/Timer_100ms.c **** {
1129:Generated_Source\PSoC4/Timer_100ms.c ****     uint8 enableInterrupts;
1130:Generated_Source\PSoC4/Timer_100ms.c **** 
1131:Generated_Source\PSoC4/Timer_100ms.c ****     enableInterrupts = CyEnterCriticalSection();
1132:Generated_Source\PSoC4/Timer_100ms.c **** 
1133:Generated_Source\PSoC4/Timer_100ms.c ****     Timer_100ms_TRIG_CONTROL1_REG &= (uint32)~Timer_100ms_RELOAD_MASK;
1134:Generated_Source\PSoC4/Timer_100ms.c ****     Timer_100ms_TRIG_CONTROL1_REG |= ((uint32)(triggerMode << Timer_100ms_RELOAD_SHIFT));
1135:Generated_Source\PSoC4/Timer_100ms.c **** 
1136:Generated_Source\PSoC4/Timer_100ms.c ****     CyExitCriticalSection(enableInterrupts);
1137:Generated_Source\PSoC4/Timer_100ms.c **** }
1138:Generated_Source\PSoC4/Timer_100ms.c **** 
1139:Generated_Source\PSoC4/Timer_100ms.c **** 
1140:Generated_Source\PSoC4/Timer_100ms.c **** /*******************************************************************************
1141:Generated_Source\PSoC4/Timer_100ms.c **** * Function Name: Timer_100ms_SetStartMode
1142:Generated_Source\PSoC4/Timer_100ms.c **** ********************************************************************************
1143:Generated_Source\PSoC4/Timer_100ms.c **** *
1144:Generated_Source\PSoC4/Timer_100ms.c **** * Summary:
1145:Generated_Source\PSoC4/Timer_100ms.c **** *  Sets the start trigger mode. For Quadrature Decoder mode this is the
1146:Generated_Source\PSoC4/Timer_100ms.c **** *  phiB input.
1147:Generated_Source\PSoC4/Timer_100ms.c **** *
1148:Generated_Source\PSoC4/Timer_100ms.c **** * Parameters:
1149:Generated_Source\PSoC4/Timer_100ms.c **** *  triggerMode: Enumerated trigger mode value
1150:Generated_Source\PSoC4/Timer_100ms.c **** *   Values:
ARM GAS  C:\Users\zhiantec\AppData\Local\Temp\ccsSOYXN.s 			page 22


1151:Generated_Source\PSoC4/Timer_100ms.c **** *     - Timer_100ms_TRIG_LEVEL     - Level
1152:Generated_Source\PSoC4/Timer_100ms.c **** *     - Timer_100ms_TRIG_RISING    - Rising edge
1153:Generated_Source\PSoC4/Timer_100ms.c **** *     - Timer_100ms_TRIG_FALLING   - Falling edge
1154:Generated_Source\PSoC4/Timer_100ms.c **** *     - Timer_100ms_TRIG_BOTH      - Both rising and falling edge
1155:Generated_Source\PSoC4/Timer_100ms.c **** *
1156:Generated_Source\PSoC4/Timer_100ms.c **** * Return:
1157:Generated_Source\PSoC4/Timer_100ms.c **** *  None
1158:Generated_Source\PSoC4/Timer_100ms.c **** *
1159:Generated_Source\PSoC4/Timer_100ms.c **** *******************************************************************************/
1160:Generated_Source\PSoC4/Timer_100ms.c **** void Timer_100ms_SetStartMode(uint32 triggerMode)
1161:Generated_Source\PSoC4/Timer_100ms.c **** {
1162:Generated_Source\PSoC4/Timer_100ms.c ****     uint8 enableInterrupts;
1163:Generated_Source\PSoC4/Timer_100ms.c **** 
1164:Generated_Source\PSoC4/Timer_100ms.c ****     enableInterrupts = CyEnterCriticalSection();
1165:Generated_Source\PSoC4/Timer_100ms.c **** 
1166:Generated_Source\PSoC4/Timer_100ms.c ****     Timer_100ms_TRIG_CONTROL1_REG &= (uint32)~Timer_100ms_START_MASK;
1167:Generated_Source\PSoC4/Timer_100ms.c ****     Timer_100ms_TRIG_CONTROL1_REG |= ((uint32)(triggerMode << Timer_100ms_START_SHIFT));
1168:Generated_Source\PSoC4/Timer_100ms.c **** 
1169:Generated_Source\PSoC4/Timer_100ms.c ****     CyExitCriticalSection(enableInterrupts);
1170:Generated_Source\PSoC4/Timer_100ms.c **** }
1171:Generated_Source\PSoC4/Timer_100ms.c **** 
1172:Generated_Source\PSoC4/Timer_100ms.c **** 
1173:Generated_Source\PSoC4/Timer_100ms.c **** /*******************************************************************************
1174:Generated_Source\PSoC4/Timer_100ms.c **** * Function Name: Timer_100ms_SetStopMode
1175:Generated_Source\PSoC4/Timer_100ms.c **** ********************************************************************************
1176:Generated_Source\PSoC4/Timer_100ms.c **** *
1177:Generated_Source\PSoC4/Timer_100ms.c **** * Summary:
1178:Generated_Source\PSoC4/Timer_100ms.c **** *  Sets the stop trigger mode. For PWM mode this is the kill input.
1179:Generated_Source\PSoC4/Timer_100ms.c **** *
1180:Generated_Source\PSoC4/Timer_100ms.c **** * Parameters:
1181:Generated_Source\PSoC4/Timer_100ms.c **** *  triggerMode: Enumerated trigger mode value
1182:Generated_Source\PSoC4/Timer_100ms.c **** *   Values:
1183:Generated_Source\PSoC4/Timer_100ms.c **** *     - Timer_100ms_TRIG_LEVEL     - Level
1184:Generated_Source\PSoC4/Timer_100ms.c **** *     - Timer_100ms_TRIG_RISING    - Rising edge
1185:Generated_Source\PSoC4/Timer_100ms.c **** *     - Timer_100ms_TRIG_FALLING   - Falling edge
1186:Generated_Source\PSoC4/Timer_100ms.c **** *     - Timer_100ms_TRIG_BOTH      - Both rising and falling edge
1187:Generated_Source\PSoC4/Timer_100ms.c **** *
1188:Generated_Source\PSoC4/Timer_100ms.c **** * Return:
1189:Generated_Source\PSoC4/Timer_100ms.c **** *  None
1190:Generated_Source\PSoC4/Timer_100ms.c **** *
1191:Generated_Source\PSoC4/Timer_100ms.c **** *******************************************************************************/
1192:Generated_Source\PSoC4/Timer_100ms.c **** void Timer_100ms_SetStopMode(uint32 triggerMode)
1193:Generated_Source\PSoC4/Timer_100ms.c **** {
1194:Generated_Source\PSoC4/Timer_100ms.c ****     uint8 enableInterrupts;
1195:Generated_Source\PSoC4/Timer_100ms.c **** 
1196:Generated_Source\PSoC4/Timer_100ms.c ****     enableInterrupts = CyEnterCriticalSection();
1197:Generated_Source\PSoC4/Timer_100ms.c **** 
1198:Generated_Source\PSoC4/Timer_100ms.c ****     Timer_100ms_TRIG_CONTROL1_REG &= (uint32)~Timer_100ms_STOP_MASK;
1199:Generated_Source\PSoC4/Timer_100ms.c ****     Timer_100ms_TRIG_CONTROL1_REG |= ((uint32)(triggerMode << Timer_100ms_STOP_SHIFT));
1200:Generated_Source\PSoC4/Timer_100ms.c **** 
1201:Generated_Source\PSoC4/Timer_100ms.c ****     CyExitCriticalSection(enableInterrupts);
1202:Generated_Source\PSoC4/Timer_100ms.c **** }
1203:Generated_Source\PSoC4/Timer_100ms.c **** 
1204:Generated_Source\PSoC4/Timer_100ms.c **** 
1205:Generated_Source\PSoC4/Timer_100ms.c **** /*******************************************************************************
1206:Generated_Source\PSoC4/Timer_100ms.c **** * Function Name: Timer_100ms_SetCountMode
1207:Generated_Source\PSoC4/Timer_100ms.c **** ********************************************************************************
ARM GAS  C:\Users\zhiantec\AppData\Local\Temp\ccsSOYXN.s 			page 23


1208:Generated_Source\PSoC4/Timer_100ms.c **** *
1209:Generated_Source\PSoC4/Timer_100ms.c **** * Summary:
1210:Generated_Source\PSoC4/Timer_100ms.c **** *  Sets the count trigger mode. For Quadrature Decoder mode this is the phiA
1211:Generated_Source\PSoC4/Timer_100ms.c **** *  input.
1212:Generated_Source\PSoC4/Timer_100ms.c **** *
1213:Generated_Source\PSoC4/Timer_100ms.c **** * Parameters:
1214:Generated_Source\PSoC4/Timer_100ms.c **** *  triggerMode: Enumerated trigger mode value
1215:Generated_Source\PSoC4/Timer_100ms.c **** *   Values:
1216:Generated_Source\PSoC4/Timer_100ms.c **** *     - Timer_100ms_TRIG_LEVEL     - Level
1217:Generated_Source\PSoC4/Timer_100ms.c **** *     - Timer_100ms_TRIG_RISING    - Rising edge
1218:Generated_Source\PSoC4/Timer_100ms.c **** *     - Timer_100ms_TRIG_FALLING   - Falling edge
1219:Generated_Source\PSoC4/Timer_100ms.c **** *     - Timer_100ms_TRIG_BOTH      - Both rising and falling edge
1220:Generated_Source\PSoC4/Timer_100ms.c **** *
1221:Generated_Source\PSoC4/Timer_100ms.c **** * Return:
1222:Generated_Source\PSoC4/Timer_100ms.c **** *  None
1223:Generated_Source\PSoC4/Timer_100ms.c **** *
1224:Generated_Source\PSoC4/Timer_100ms.c **** *******************************************************************************/
1225:Generated_Source\PSoC4/Timer_100ms.c **** void Timer_100ms_SetCountMode(uint32 triggerMode)
1226:Generated_Source\PSoC4/Timer_100ms.c **** {
1227:Generated_Source\PSoC4/Timer_100ms.c ****     uint8 enableInterrupts;
1228:Generated_Source\PSoC4/Timer_100ms.c **** 
1229:Generated_Source\PSoC4/Timer_100ms.c ****     enableInterrupts = CyEnterCriticalSection();
1230:Generated_Source\PSoC4/Timer_100ms.c **** 
1231:Generated_Source\PSoC4/Timer_100ms.c ****     Timer_100ms_TRIG_CONTROL1_REG &= (uint32)~Timer_100ms_COUNT_MASK;
1232:Generated_Source\PSoC4/Timer_100ms.c ****     Timer_100ms_TRIG_CONTROL1_REG |= ((uint32)(triggerMode << Timer_100ms_COUNT_SHIFT));
1233:Generated_Source\PSoC4/Timer_100ms.c **** 
1234:Generated_Source\PSoC4/Timer_100ms.c ****     CyExitCriticalSection(enableInterrupts);
1235:Generated_Source\PSoC4/Timer_100ms.c **** }
1236:Generated_Source\PSoC4/Timer_100ms.c **** 
1237:Generated_Source\PSoC4/Timer_100ms.c **** 
1238:Generated_Source\PSoC4/Timer_100ms.c **** /*******************************************************************************
1239:Generated_Source\PSoC4/Timer_100ms.c **** * Function Name: Timer_100ms_TriggerCommand
1240:Generated_Source\PSoC4/Timer_100ms.c **** ********************************************************************************
1241:Generated_Source\PSoC4/Timer_100ms.c **** *
1242:Generated_Source\PSoC4/Timer_100ms.c **** * Summary:
1243:Generated_Source\PSoC4/Timer_100ms.c **** *  Triggers the designated command to occur on the designated TCPWM instances.
1244:Generated_Source\PSoC4/Timer_100ms.c **** *  The mask can be used to apply this command simultaneously to more than one
1245:Generated_Source\PSoC4/Timer_100ms.c **** *  instance.  This allows multiple TCPWM instances to be synchronized.
1246:Generated_Source\PSoC4/Timer_100ms.c **** *
1247:Generated_Source\PSoC4/Timer_100ms.c **** * Parameters:
1248:Generated_Source\PSoC4/Timer_100ms.c **** *  mask: A combination of mask bits for each instance of the TCPWM that the
1249:Generated_Source\PSoC4/Timer_100ms.c **** *        command should apply to.  This function from one instance can be used
1250:Generated_Source\PSoC4/Timer_100ms.c **** *        to apply the command to any of the instances in the design.
1251:Generated_Source\PSoC4/Timer_100ms.c **** *        The mask value for a specific instance is available with the MASK
1252:Generated_Source\PSoC4/Timer_100ms.c **** *        define.
1253:Generated_Source\PSoC4/Timer_100ms.c **** *  command: Enumerated command values. Capture command only applicable for
1254:Generated_Source\PSoC4/Timer_100ms.c **** *           Timer/Counter with Capture and PWM modes.
1255:Generated_Source\PSoC4/Timer_100ms.c **** *   Values:
1256:Generated_Source\PSoC4/Timer_100ms.c **** *     - Timer_100ms_CMD_CAPTURE    - Trigger Capture/Switch command
1257:Generated_Source\PSoC4/Timer_100ms.c **** *     - Timer_100ms_CMD_RELOAD     - Trigger Reload/Index command
1258:Generated_Source\PSoC4/Timer_100ms.c **** *     - Timer_100ms_CMD_STOP       - Trigger Stop/Kill command
1259:Generated_Source\PSoC4/Timer_100ms.c **** *     - Timer_100ms_CMD_START      - Trigger Start/phiB command
1260:Generated_Source\PSoC4/Timer_100ms.c **** *
1261:Generated_Source\PSoC4/Timer_100ms.c **** * Return:
1262:Generated_Source\PSoC4/Timer_100ms.c **** *  None
1263:Generated_Source\PSoC4/Timer_100ms.c **** *
1264:Generated_Source\PSoC4/Timer_100ms.c **** *******************************************************************************/
ARM GAS  C:\Users\zhiantec\AppData\Local\Temp\ccsSOYXN.s 			page 24


1265:Generated_Source\PSoC4/Timer_100ms.c **** void Timer_100ms_TriggerCommand(uint32 mask, uint32 command)
1266:Generated_Source\PSoC4/Timer_100ms.c **** {
1267:Generated_Source\PSoC4/Timer_100ms.c ****     uint8 enableInterrupts;
1268:Generated_Source\PSoC4/Timer_100ms.c **** 
1269:Generated_Source\PSoC4/Timer_100ms.c ****     enableInterrupts = CyEnterCriticalSection();
1270:Generated_Source\PSoC4/Timer_100ms.c **** 
1271:Generated_Source\PSoC4/Timer_100ms.c ****     Timer_100ms_COMMAND_REG = ((uint32)(mask << command));
1272:Generated_Source\PSoC4/Timer_100ms.c **** 
1273:Generated_Source\PSoC4/Timer_100ms.c ****     CyExitCriticalSection(enableInterrupts);
1274:Generated_Source\PSoC4/Timer_100ms.c **** }
1275:Generated_Source\PSoC4/Timer_100ms.c **** 
1276:Generated_Source\PSoC4/Timer_100ms.c **** 
1277:Generated_Source\PSoC4/Timer_100ms.c **** /*******************************************************************************
1278:Generated_Source\PSoC4/Timer_100ms.c **** * Function Name: Timer_100ms_ReadStatus
1279:Generated_Source\PSoC4/Timer_100ms.c **** ********************************************************************************
1280:Generated_Source\PSoC4/Timer_100ms.c **** *
1281:Generated_Source\PSoC4/Timer_100ms.c **** * Summary:
1282:Generated_Source\PSoC4/Timer_100ms.c **** *  Reads the status of the Timer_100ms.
1283:Generated_Source\PSoC4/Timer_100ms.c **** *
1284:Generated_Source\PSoC4/Timer_100ms.c **** * Parameters:
1285:Generated_Source\PSoC4/Timer_100ms.c **** *  None
1286:Generated_Source\PSoC4/Timer_100ms.c **** *
1287:Generated_Source\PSoC4/Timer_100ms.c **** * Return:
1288:Generated_Source\PSoC4/Timer_100ms.c **** *  Status
1289:Generated_Source\PSoC4/Timer_100ms.c **** *   Values:
1290:Generated_Source\PSoC4/Timer_100ms.c **** *     - Timer_100ms_STATUS_DOWN    - Set if counting down
1291:Generated_Source\PSoC4/Timer_100ms.c **** *     - Timer_100ms_STATUS_RUNNING - Set if counter is running
1292:Generated_Source\PSoC4/Timer_100ms.c **** *
1293:Generated_Source\PSoC4/Timer_100ms.c **** *******************************************************************************/
1294:Generated_Source\PSoC4/Timer_100ms.c **** uint32 Timer_100ms_ReadStatus(void)
1295:Generated_Source\PSoC4/Timer_100ms.c **** {
1296:Generated_Source\PSoC4/Timer_100ms.c ****     return ((Timer_100ms_STATUS_REG >> Timer_100ms_RUNNING_STATUS_SHIFT) |
1297:Generated_Source\PSoC4/Timer_100ms.c ****             (Timer_100ms_STATUS_REG & Timer_100ms_STATUS_DOWN));
1298:Generated_Source\PSoC4/Timer_100ms.c **** }
1299:Generated_Source\PSoC4/Timer_100ms.c **** 
1300:Generated_Source\PSoC4/Timer_100ms.c **** 
1301:Generated_Source\PSoC4/Timer_100ms.c **** /*******************************************************************************
1302:Generated_Source\PSoC4/Timer_100ms.c **** * Function Name: Timer_100ms_SetInterruptMode
1303:Generated_Source\PSoC4/Timer_100ms.c **** ********************************************************************************
1304:Generated_Source\PSoC4/Timer_100ms.c **** *
1305:Generated_Source\PSoC4/Timer_100ms.c **** * Summary:
1306:Generated_Source\PSoC4/Timer_100ms.c **** *  Sets the interrupt mask to control which interrupt
1307:Generated_Source\PSoC4/Timer_100ms.c **** *  requests generate the interrupt signal.
1308:Generated_Source\PSoC4/Timer_100ms.c **** *
1309:Generated_Source\PSoC4/Timer_100ms.c **** * Parameters:
1310:Generated_Source\PSoC4/Timer_100ms.c **** *   interruptMask: Mask of bits to be enabled
1311:Generated_Source\PSoC4/Timer_100ms.c **** *   Values:
1312:Generated_Source\PSoC4/Timer_100ms.c **** *     - Timer_100ms_INTR_MASK_TC       - Terminal count mask
1313:Generated_Source\PSoC4/Timer_100ms.c **** *     - Timer_100ms_INTR_MASK_CC_MATCH - Compare count / capture mask
1314:Generated_Source\PSoC4/Timer_100ms.c **** *
1315:Generated_Source\PSoC4/Timer_100ms.c **** * Return:
1316:Generated_Source\PSoC4/Timer_100ms.c **** *  None
1317:Generated_Source\PSoC4/Timer_100ms.c **** *
1318:Generated_Source\PSoC4/Timer_100ms.c **** *******************************************************************************/
1319:Generated_Source\PSoC4/Timer_100ms.c **** void Timer_100ms_SetInterruptMode(uint32 interruptMask)
1320:Generated_Source\PSoC4/Timer_100ms.c **** {
1321:Generated_Source\PSoC4/Timer_100ms.c ****     Timer_100ms_INTERRUPT_MASK_REG =  interruptMask;
ARM GAS  C:\Users\zhiantec\AppData\Local\Temp\ccsSOYXN.s 			page 25


  47              		.loc 1 1321 0
  48 0010 074B     		ldr	r3, .L2+8
  49 0012 0A3A     		sub	r2, r2, #10
  50 0014 1A60     		str	r2, [r3]
  51              	.LVL1:
  52              	.LBE15:
  53              	.LBE14:
  54              	.LBB16:
  55              	.LBB17:
 695:Generated_Source\PSoC4/Timer_100ms.c **** }
  56              		.loc 1 695 0
  57 0016 FA23     		mov	r3, #250
  58 0018 064A     		ldr	r2, .L2+12
  59 001a 9B00     		lsl	r3, r3, #2
  60 001c 1360     		str	r3, [r2]
  61              	.LVL2:
  62              	.LBE17:
  63              	.LBE16:
  64              	.LBB18:
  65              	.LBB12:
 873:Generated_Source\PSoC4/Timer_100ms.c **** }
  66              		.loc 1 873 0
  67 001e 064A     		ldr	r2, .L2+16
  68              	.LBE12:
  69              	.LBE18:
 160:Generated_Source\PSoC4/Timer_100ms.c **** 
  70              		.loc 1 160 0
  71              		@ sp needed
  72              	.LBB19:
  73              	.LBB13:
 873:Generated_Source\PSoC4/Timer_100ms.c **** }
  74              		.loc 1 873 0
  75 0020 1160     		str	r1, [r2]
  76              	.LVL3:
  77              	.LBE13:
  78              	.LBE19:
  79              	.LBB20:
  80              	.LBB21:
 617:Generated_Source\PSoC4/Timer_100ms.c **** }
  81              		.loc 1 617 0
  82 0022 064A     		ldr	r2, .L2+20
  83 0024 1360     		str	r3, [r2]
  84              	.LBE21:
  85              	.LBE20:
 160:Generated_Source\PSoC4/Timer_100ms.c **** 
  86              		.loc 1 160 0
  87 0026 7047     		bx	lr
  88              	.L3:
  89              		.align	2
  90              	.L2:
  91 0028 40012040 		.word	1075839296
  92 002c 64012040 		.word	1075839332
  93 0030 78012040 		.word	1075839352
  94 0034 54012040 		.word	1075839316
  95 0038 4C012040 		.word	1075839308
  96 003c 48012040 		.word	1075839304
  97              		.cfi_endproc
ARM GAS  C:\Users\zhiantec\AppData\Local\Temp\ccsSOYXN.s 			page 26


  98              	.LFE2:
  99              		.size	Timer_100ms_Init, .-Timer_100ms_Init
 100              		.section	.text.Timer_100ms_Stop,"ax",%progbits
 101              		.align	1
 102              		.global	Timer_100ms_Stop
 103              		.code	16
 104              		.thumb_func
 105              		.type	Timer_100ms_Stop, %function
 106              	Timer_100ms_Stop:
 107              	.LFB5:
 257:Generated_Source\PSoC4/Timer_100ms.c ****     uint8 enableInterrupts;
 108              		.loc 1 257 0
 109              		.cfi_startproc
 110 0000 08B5     		push	{r3, lr}
 111              		.cfi_def_cfa_offset 8
 112              		.cfi_offset 3, -8
 113              		.cfi_offset 14, -4
 260:Generated_Source\PSoC4/Timer_100ms.c **** 
 114              		.loc 1 260 0
 115 0002 FFF7FEFF 		bl	CyEnterCriticalSection
 116              	.LVL4:
 262:Generated_Source\PSoC4/Timer_100ms.c **** 
 117              		.loc 1 262 0
 118 0006 0221     		mov	r1, #2
 119 0008 034A     		ldr	r2, .L5
 265:Generated_Source\PSoC4/Timer_100ms.c **** 
 120              		.loc 1 265 0
 121              		@ sp needed
 262:Generated_Source\PSoC4/Timer_100ms.c **** 
 122              		.loc 1 262 0
 123 000a 1368     		ldr	r3, [r2]
 124 000c 8B43     		bic	r3, r1
 125 000e 1360     		str	r3, [r2]
 264:Generated_Source\PSoC4/Timer_100ms.c **** }
 126              		.loc 1 264 0
 127 0010 FFF7FEFF 		bl	CyExitCriticalSection
 128              	.LVL5:
 265:Generated_Source\PSoC4/Timer_100ms.c **** 
 129              		.loc 1 265 0
 130 0014 08BD     		pop	{r3, pc}
 131              	.L6:
 132 0016 C046     		.align	2
 133              	.L5:
 134 0018 00002040 		.word	1075838976
 135              		.cfi_endproc
 136              	.LFE5:
 137              		.size	Timer_100ms_Stop, .-Timer_100ms_Stop
 138              		.section	.text.Timer_100ms_SetMode,"ax",%progbits
 139              		.align	1
 140              		.global	Timer_100ms_SetMode
 141              		.code	16
 142              		.thumb_func
 143              		.type	Timer_100ms_SetMode, %function
 144              	Timer_100ms_SetMode:
 145              	.LFB6:
 294:Generated_Source\PSoC4/Timer_100ms.c ****     uint8 enableInterrupts;
 146              		.loc 1 294 0
ARM GAS  C:\Users\zhiantec\AppData\Local\Temp\ccsSOYXN.s 			page 27


 147              		.cfi_startproc
 148              	.LVL6:
 149 0000 10B5     		push	{r4, lr}
 150              		.cfi_def_cfa_offset 8
 151              		.cfi_offset 4, -8
 152              		.cfi_offset 14, -4
 294:Generated_Source\PSoC4/Timer_100ms.c ****     uint8 enableInterrupts;
 153              		.loc 1 294 0
 154 0002 041C     		mov	r4, r0
 297:Generated_Source\PSoC4/Timer_100ms.c **** 
 155              		.loc 1 297 0
 156 0004 FFF7FEFF 		bl	CyEnterCriticalSection
 157              	.LVL7:
 299:Generated_Source\PSoC4/Timer_100ms.c ****     Timer_100ms_CONTROL_REG |= mode;
 158              		.loc 1 299 0
 159 0008 054B     		ldr	r3, .L8
 160 000a 064A     		ldr	r2, .L8+4
 161 000c 1968     		ldr	r1, [r3]
 303:Generated_Source\PSoC4/Timer_100ms.c **** 
 162              		.loc 1 303 0
 163              		@ sp needed
 299:Generated_Source\PSoC4/Timer_100ms.c ****     Timer_100ms_CONTROL_REG |= mode;
 164              		.loc 1 299 0
 165 000e 0A40     		and	r2, r1
 166 0010 1A60     		str	r2, [r3]
 300:Generated_Source\PSoC4/Timer_100ms.c **** 
 167              		.loc 1 300 0
 168 0012 1A68     		ldr	r2, [r3]
 169 0014 2243     		orr	r2, r4
 170 0016 1A60     		str	r2, [r3]
 302:Generated_Source\PSoC4/Timer_100ms.c **** }
 171              		.loc 1 302 0
 172 0018 FFF7FEFF 		bl	CyExitCriticalSection
 173              	.LVL8:
 174              	.LVL9:
 303:Generated_Source\PSoC4/Timer_100ms.c **** 
 175              		.loc 1 303 0
 176 001c 10BD     		pop	{r4, pc}
 177              	.L9:
 178 001e C046     		.align	2
 179              	.L8:
 180 0020 40012040 		.word	1075839296
 181 0024 FFFFFFF8 		.word	-117440513
 182              		.cfi_endproc
 183              	.LFE6:
 184              		.size	Timer_100ms_SetMode, .-Timer_100ms_SetMode
 185              		.section	.text.Timer_100ms_SetQDMode,"ax",%progbits
 186              		.align	1
 187              		.global	Timer_100ms_SetQDMode
 188              		.code	16
 189              		.thumb_func
 190              		.type	Timer_100ms_SetQDMode, %function
 191              	Timer_100ms_SetQDMode:
 192              	.LFB7:
 327:Generated_Source\PSoC4/Timer_100ms.c ****     uint8 enableInterrupts;
 193              		.loc 1 327 0
 194              		.cfi_startproc
ARM GAS  C:\Users\zhiantec\AppData\Local\Temp\ccsSOYXN.s 			page 28


 195              	.LVL10:
 196 0000 10B5     		push	{r4, lr}
 197              		.cfi_def_cfa_offset 8
 198              		.cfi_offset 4, -8
 199              		.cfi_offset 14, -4
 327:Generated_Source\PSoC4/Timer_100ms.c ****     uint8 enableInterrupts;
 200              		.loc 1 327 0
 201 0002 041C     		mov	r4, r0
 330:Generated_Source\PSoC4/Timer_100ms.c **** 
 202              		.loc 1 330 0
 203 0004 FFF7FEFF 		bl	CyEnterCriticalSection
 204              	.LVL11:
 332:Generated_Source\PSoC4/Timer_100ms.c ****     Timer_100ms_CONTROL_REG |= qdMode;
 205              		.loc 1 332 0
 206 0008 054B     		ldr	r3, .L11
 207 000a 064A     		ldr	r2, .L11+4
 208 000c 1968     		ldr	r1, [r3]
 336:Generated_Source\PSoC4/Timer_100ms.c **** 
 209              		.loc 1 336 0
 210              		@ sp needed
 332:Generated_Source\PSoC4/Timer_100ms.c ****     Timer_100ms_CONTROL_REG |= qdMode;
 211              		.loc 1 332 0
 212 000e 0A40     		and	r2, r1
 213 0010 1A60     		str	r2, [r3]
 333:Generated_Source\PSoC4/Timer_100ms.c **** 
 214              		.loc 1 333 0
 215 0012 1A68     		ldr	r2, [r3]
 216 0014 2243     		orr	r2, r4
 217 0016 1A60     		str	r2, [r3]
 335:Generated_Source\PSoC4/Timer_100ms.c **** }
 218              		.loc 1 335 0
 219 0018 FFF7FEFF 		bl	CyExitCriticalSection
 220              	.LVL12:
 221              	.LVL13:
 336:Generated_Source\PSoC4/Timer_100ms.c **** 
 222              		.loc 1 336 0
 223 001c 10BD     		pop	{r4, pc}
 224              	.L12:
 225 001e C046     		.align	2
 226              	.L11:
 227 0020 40012040 		.word	1075839296
 228 0024 FFFF8FFF 		.word	-7340033
 229              		.cfi_endproc
 230              	.LFE7:
 231              		.size	Timer_100ms_SetQDMode, .-Timer_100ms_SetQDMode
 232              		.section	.text.Timer_100ms_SetPrescaler,"ax",%progbits
 233              		.align	1
 234              		.global	Timer_100ms_SetPrescaler
 235              		.code	16
 236              		.thumb_func
 237              		.type	Timer_100ms_SetPrescaler, %function
 238              	Timer_100ms_SetPrescaler:
 239              	.LFB8:
 364:Generated_Source\PSoC4/Timer_100ms.c ****     uint8 enableInterrupts;
 240              		.loc 1 364 0
 241              		.cfi_startproc
 242              	.LVL14:
ARM GAS  C:\Users\zhiantec\AppData\Local\Temp\ccsSOYXN.s 			page 29


 243 0000 10B5     		push	{r4, lr}
 244              		.cfi_def_cfa_offset 8
 245              		.cfi_offset 4, -8
 246              		.cfi_offset 14, -4
 364:Generated_Source\PSoC4/Timer_100ms.c ****     uint8 enableInterrupts;
 247              		.loc 1 364 0
 248 0002 041C     		mov	r4, r0
 367:Generated_Source\PSoC4/Timer_100ms.c **** 
 249              		.loc 1 367 0
 250 0004 FFF7FEFF 		bl	CyEnterCriticalSection
 251              	.LVL15:
 369:Generated_Source\PSoC4/Timer_100ms.c ****     Timer_100ms_CONTROL_REG |= prescaler;
 252              		.loc 1 369 0
 253 0008 054B     		ldr	r3, .L14
 254 000a 064A     		ldr	r2, .L14+4
 255 000c 1968     		ldr	r1, [r3]
 373:Generated_Source\PSoC4/Timer_100ms.c **** 
 256              		.loc 1 373 0
 257              		@ sp needed
 369:Generated_Source\PSoC4/Timer_100ms.c ****     Timer_100ms_CONTROL_REG |= prescaler;
 258              		.loc 1 369 0
 259 000e 0A40     		and	r2, r1
 260 0010 1A60     		str	r2, [r3]
 370:Generated_Source\PSoC4/Timer_100ms.c **** 
 261              		.loc 1 370 0
 262 0012 1A68     		ldr	r2, [r3]
 263 0014 2243     		orr	r2, r4
 264 0016 1A60     		str	r2, [r3]
 372:Generated_Source\PSoC4/Timer_100ms.c **** }
 265              		.loc 1 372 0
 266 0018 FFF7FEFF 		bl	CyExitCriticalSection
 267              	.LVL16:
 268              	.LVL17:
 373:Generated_Source\PSoC4/Timer_100ms.c **** 
 269              		.loc 1 373 0
 270 001c 10BD     		pop	{r4, pc}
 271              	.L15:
 272 001e C046     		.align	2
 273              	.L14:
 274 0020 40012040 		.word	1075839296
 275 0024 FF00FFFF 		.word	-65281
 276              		.cfi_endproc
 277              	.LFE8:
 278              		.size	Timer_100ms_SetPrescaler, .-Timer_100ms_SetPrescaler
 279              		.section	.text.Timer_100ms_SetOneShot,"ax",%progbits
 280              		.align	1
 281              		.global	Timer_100ms_SetOneShot
 282              		.code	16
 283              		.thumb_func
 284              		.type	Timer_100ms_SetOneShot, %function
 285              	Timer_100ms_SetOneShot:
 286              	.LFB9:
 396:Generated_Source\PSoC4/Timer_100ms.c ****     uint8 enableInterrupts;
 287              		.loc 1 396 0
 288              		.cfi_startproc
 289              	.LVL18:
 290 0000 10B5     		push	{r4, lr}
ARM GAS  C:\Users\zhiantec\AppData\Local\Temp\ccsSOYXN.s 			page 30


 291              		.cfi_def_cfa_offset 8
 292              		.cfi_offset 4, -8
 293              		.cfi_offset 14, -4
 396:Generated_Source\PSoC4/Timer_100ms.c ****     uint8 enableInterrupts;
 294              		.loc 1 396 0
 295 0002 041C     		mov	r4, r0
 399:Generated_Source\PSoC4/Timer_100ms.c **** 
 296              		.loc 1 399 0
 297 0004 FFF7FEFF 		bl	CyEnterCriticalSection
 298              	.LVL19:
 401:Generated_Source\PSoC4/Timer_100ms.c ****     Timer_100ms_CONTROL_REG |= ((uint32)((oneShotEnable & Timer_100ms_1BIT_MASK) <<
 299              		.loc 1 401 0
 300 0008 064A     		ldr	r2, .L17
 301 000a 074B     		ldr	r3, .L17+4
 302 000c 1168     		ldr	r1, [r2]
 406:Generated_Source\PSoC4/Timer_100ms.c **** 
 303              		.loc 1 406 0
 304              		@ sp needed
 401:Generated_Source\PSoC4/Timer_100ms.c ****     Timer_100ms_CONTROL_REG |= ((uint32)((oneShotEnable & Timer_100ms_1BIT_MASK) <<
 305              		.loc 1 401 0
 306 000e 0B40     		and	r3, r1
 307 0010 1360     		str	r3, [r2]
 402:Generated_Source\PSoC4/Timer_100ms.c ****                                                                Timer_100ms_ONESHOT_SHIFT));
 308              		.loc 1 402 0
 309 0012 0123     		mov	r3, #1
 310 0014 1168     		ldr	r1, [r2]
 311 0016 2340     		and	r3, r4
 312 0018 9B04     		lsl	r3, r3, #18
 313 001a 0B43     		orr	r3, r1
 314 001c 1360     		str	r3, [r2]
 405:Generated_Source\PSoC4/Timer_100ms.c **** }
 315              		.loc 1 405 0
 316 001e FFF7FEFF 		bl	CyExitCriticalSection
 317              	.LVL20:
 318              	.LVL21:
 406:Generated_Source\PSoC4/Timer_100ms.c **** 
 319              		.loc 1 406 0
 320 0022 10BD     		pop	{r4, pc}
 321              	.L18:
 322              		.align	2
 323              	.L17:
 324 0024 40012040 		.word	1075839296
 325 0028 FFFFFBFF 		.word	-262145
 326              		.cfi_endproc
 327              	.LFE9:
 328              		.size	Timer_100ms_SetOneShot, .-Timer_100ms_SetOneShot
 329              		.section	.text.Timer_100ms_SetPWMMode,"ax",%progbits
 330              		.align	1
 331              		.global	Timer_100ms_SetPWMMode
 332              		.code	16
 333              		.thumb_func
 334              		.type	Timer_100ms_SetPWMMode, %function
 335              	Timer_100ms_SetPWMMode:
 336              	.LFB10:
 450:Generated_Source\PSoC4/Timer_100ms.c ****     Timer_100ms_TRIG_CONTROL2_REG = (modeMask & Timer_100ms_6BIT_MASK);
 337              		.loc 1 450 0
 338              		.cfi_startproc
ARM GAS  C:\Users\zhiantec\AppData\Local\Temp\ccsSOYXN.s 			page 31


 339              	.LVL22:
 451:Generated_Source\PSoC4/Timer_100ms.c **** }
 340              		.loc 1 451 0
 341 0000 3F23     		mov	r3, #63
 342 0002 1840     		and	r0, r3
 343              	.LVL23:
 344 0004 014B     		ldr	r3, .L20
 452:Generated_Source\PSoC4/Timer_100ms.c **** 
 345              		.loc 1 452 0
 346              		@ sp needed
 451:Generated_Source\PSoC4/Timer_100ms.c **** }
 347              		.loc 1 451 0
 348 0006 1860     		str	r0, [r3]
 452:Generated_Source\PSoC4/Timer_100ms.c **** 
 349              		.loc 1 452 0
 350 0008 7047     		bx	lr
 351              	.L21:
 352 000a C046     		.align	2
 353              	.L20:
 354 000c 68012040 		.word	1075839336
 355              		.cfi_endproc
 356              	.LFE10:
 357              		.size	Timer_100ms_SetPWMMode, .-Timer_100ms_SetPWMMode
 358              		.section	.text.Timer_100ms_SetPWMSyncKill,"ax",%progbits
 359              		.align	1
 360              		.global	Timer_100ms_SetPWMSyncKill
 361              		.code	16
 362              		.thumb_func
 363              		.type	Timer_100ms_SetPWMSyncKill, %function
 364              	Timer_100ms_SetPWMSyncKill:
 365              	.LFB11:
 486:Generated_Source\PSoC4/Timer_100ms.c ****     uint8 enableInterrupts;
 366              		.loc 1 486 0
 367              		.cfi_startproc
 368              	.LVL24:
 369 0000 10B5     		push	{r4, lr}
 370              		.cfi_def_cfa_offset 8
 371              		.cfi_offset 4, -8
 372              		.cfi_offset 14, -4
 486:Generated_Source\PSoC4/Timer_100ms.c ****     uint8 enableInterrupts;
 373              		.loc 1 486 0
 374 0002 041C     		mov	r4, r0
 489:Generated_Source\PSoC4/Timer_100ms.c **** 
 375              		.loc 1 489 0
 376 0004 FFF7FEFF 		bl	CyEnterCriticalSection
 377              	.LVL25:
 491:Generated_Source\PSoC4/Timer_100ms.c ****     Timer_100ms_CONTROL_REG |= ((uint32)((syncKillEnable & Timer_100ms_1BIT_MASK)  <<
 378              		.loc 1 491 0
 379 0008 0421     		mov	r1, #4
 380 000a 064A     		ldr	r2, .L23
 496:Generated_Source\PSoC4/Timer_100ms.c **** 
 381              		.loc 1 496 0
 382              		@ sp needed
 491:Generated_Source\PSoC4/Timer_100ms.c ****     Timer_100ms_CONTROL_REG |= ((uint32)((syncKillEnable & Timer_100ms_1BIT_MASK)  <<
 383              		.loc 1 491 0
 384 000c 1368     		ldr	r3, [r2]
 385 000e 8B43     		bic	r3, r1
ARM GAS  C:\Users\zhiantec\AppData\Local\Temp\ccsSOYXN.s 			page 32


 386 0010 1360     		str	r3, [r2]
 492:Generated_Source\PSoC4/Timer_100ms.c ****                                                Timer_100ms_PWM_SYNC_KILL_SHIFT));
 387              		.loc 1 492 0
 388 0012 0123     		mov	r3, #1
 389 0014 1168     		ldr	r1, [r2]
 390 0016 2340     		and	r3, r4
 391 0018 9B00     		lsl	r3, r3, #2
 392 001a 0B43     		orr	r3, r1
 393 001c 1360     		str	r3, [r2]
 495:Generated_Source\PSoC4/Timer_100ms.c **** }
 394              		.loc 1 495 0
 395 001e FFF7FEFF 		bl	CyExitCriticalSection
 396              	.LVL26:
 397              	.LVL27:
 496:Generated_Source\PSoC4/Timer_100ms.c **** 
 398              		.loc 1 496 0
 399 0022 10BD     		pop	{r4, pc}
 400              	.L24:
 401              		.align	2
 402              	.L23:
 403 0024 40012040 		.word	1075839296
 404              		.cfi_endproc
 405              	.LFE11:
 406              		.size	Timer_100ms_SetPWMSyncKill, .-Timer_100ms_SetPWMSyncKill
 407              		.section	.text.Timer_100ms_SetPWMStopOnKill,"ax",%progbits
 408              		.align	1
 409              		.global	Timer_100ms_SetPWMStopOnKill
 410              		.code	16
 411              		.thumb_func
 412              		.type	Timer_100ms_SetPWMStopOnKill, %function
 413              	Timer_100ms_SetPWMStopOnKill:
 414              	.LFB12:
 520:Generated_Source\PSoC4/Timer_100ms.c ****     uint8 enableInterrupts;
 415              		.loc 1 520 0
 416              		.cfi_startproc
 417              	.LVL28:
 418 0000 10B5     		push	{r4, lr}
 419              		.cfi_def_cfa_offset 8
 420              		.cfi_offset 4, -8
 421              		.cfi_offset 14, -4
 520:Generated_Source\PSoC4/Timer_100ms.c ****     uint8 enableInterrupts;
 422              		.loc 1 520 0
 423 0002 041C     		mov	r4, r0
 523:Generated_Source\PSoC4/Timer_100ms.c **** 
 424              		.loc 1 523 0
 425 0004 FFF7FEFF 		bl	CyEnterCriticalSection
 426              	.LVL29:
 525:Generated_Source\PSoC4/Timer_100ms.c ****     Timer_100ms_CONTROL_REG |= ((uint32)((stopOnKillEnable & Timer_100ms_1BIT_MASK)  <<
 427              		.loc 1 525 0
 428 0008 0821     		mov	r1, #8
 429 000a 064A     		ldr	r2, .L26
 530:Generated_Source\PSoC4/Timer_100ms.c **** 
 430              		.loc 1 530 0
 431              		@ sp needed
 525:Generated_Source\PSoC4/Timer_100ms.c ****     Timer_100ms_CONTROL_REG |= ((uint32)((stopOnKillEnable & Timer_100ms_1BIT_MASK)  <<
 432              		.loc 1 525 0
 433 000c 1368     		ldr	r3, [r2]
ARM GAS  C:\Users\zhiantec\AppData\Local\Temp\ccsSOYXN.s 			page 33


 434 000e 8B43     		bic	r3, r1
 435 0010 1360     		str	r3, [r2]
 526:Generated_Source\PSoC4/Timer_100ms.c ****                                                          Timer_100ms_PWM_STOP_KILL_SHIFT));
 436              		.loc 1 526 0
 437 0012 0123     		mov	r3, #1
 438 0014 1168     		ldr	r1, [r2]
 439 0016 2340     		and	r3, r4
 440 0018 DB00     		lsl	r3, r3, #3
 441 001a 0B43     		orr	r3, r1
 442 001c 1360     		str	r3, [r2]
 529:Generated_Source\PSoC4/Timer_100ms.c **** }
 443              		.loc 1 529 0
 444 001e FFF7FEFF 		bl	CyExitCriticalSection
 445              	.LVL30:
 446              	.LVL31:
 530:Generated_Source\PSoC4/Timer_100ms.c **** 
 447              		.loc 1 530 0
 448 0022 10BD     		pop	{r4, pc}
 449              	.L27:
 450              		.align	2
 451              	.L26:
 452 0024 40012040 		.word	1075839296
 453              		.cfi_endproc
 454              	.LFE12:
 455              		.size	Timer_100ms_SetPWMStopOnKill, .-Timer_100ms_SetPWMStopOnKill
 456              		.section	.text.Timer_100ms_SetPWMDeadTime,"ax",%progbits
 457              		.align	1
 458              		.global	Timer_100ms_SetPWMDeadTime
 459              		.code	16
 460              		.thumb_func
 461              		.type	Timer_100ms_SetPWMDeadTime, %function
 462              	Timer_100ms_SetPWMDeadTime:
 463              	.LFB13:
 553:Generated_Source\PSoC4/Timer_100ms.c ****     uint8 enableInterrupts;
 464              		.loc 1 553 0
 465              		.cfi_startproc
 466              	.LVL32:
 467 0000 10B5     		push	{r4, lr}
 468              		.cfi_def_cfa_offset 8
 469              		.cfi_offset 4, -8
 470              		.cfi_offset 14, -4
 553:Generated_Source\PSoC4/Timer_100ms.c ****     uint8 enableInterrupts;
 471              		.loc 1 553 0
 472 0002 041C     		mov	r4, r0
 556:Generated_Source\PSoC4/Timer_100ms.c **** 
 473              		.loc 1 556 0
 474 0004 FFF7FEFF 		bl	CyEnterCriticalSection
 475              	.LVL33:
 558:Generated_Source\PSoC4/Timer_100ms.c ****     Timer_100ms_CONTROL_REG |= ((uint32)((deadTime & Timer_100ms_8BIT_MASK) <<
 476              		.loc 1 558 0
 477 0008 064B     		ldr	r3, .L29
 478 000a 074A     		ldr	r2, .L29+4
 479 000c 1968     		ldr	r1, [r3]
 559:Generated_Source\PSoC4/Timer_100ms.c ****                                                           Timer_100ms_PRESCALER_SHIFT));
 480              		.loc 1 559 0
 481 000e 2406     		lsl	r4, r4, #24
 482              	.LVL34:
ARM GAS  C:\Users\zhiantec\AppData\Local\Temp\ccsSOYXN.s 			page 34


 558:Generated_Source\PSoC4/Timer_100ms.c ****     Timer_100ms_CONTROL_REG |= ((uint32)((deadTime & Timer_100ms_8BIT_MASK) <<
 483              		.loc 1 558 0
 484 0010 0A40     		and	r2, r1
 485 0012 1A60     		str	r2, [r3]
 559:Generated_Source\PSoC4/Timer_100ms.c ****                                                           Timer_100ms_PRESCALER_SHIFT));
 486              		.loc 1 559 0
 487 0014 1A68     		ldr	r2, [r3]
 488 0016 240C     		lsr	r4, r4, #16
 489 0018 1443     		orr	r4, r2
 490 001a 1C60     		str	r4, [r3]
 562:Generated_Source\PSoC4/Timer_100ms.c **** }
 491              		.loc 1 562 0
 492 001c FFF7FEFF 		bl	CyExitCriticalSection
 493              	.LVL35:
 563:Generated_Source\PSoC4/Timer_100ms.c **** 
 494              		.loc 1 563 0
 495              		@ sp needed
 496 0020 10BD     		pop	{r4, pc}
 497              	.L30:
 498 0022 C046     		.align	2
 499              	.L29:
 500 0024 40012040 		.word	1075839296
 501 0028 FF00FFFF 		.word	-65281
 502              		.cfi_endproc
 503              	.LFE13:
 504              		.size	Timer_100ms_SetPWMDeadTime, .-Timer_100ms_SetPWMDeadTime
 505              		.section	.text.Timer_100ms_SetPWMInvert,"ax",%progbits
 506              		.align	1
 507              		.global	Timer_100ms_SetPWMInvert
 508              		.code	16
 509              		.thumb_func
 510              		.type	Timer_100ms_SetPWMInvert, %function
 511              	Timer_100ms_SetPWMInvert:
 512              	.LFB14:
 586:Generated_Source\PSoC4/Timer_100ms.c ****     uint8 enableInterrupts;
 513              		.loc 1 586 0
 514              		.cfi_startproc
 515              	.LVL36:
 516 0000 10B5     		push	{r4, lr}
 517              		.cfi_def_cfa_offset 8
 518              		.cfi_offset 4, -8
 519              		.cfi_offset 14, -4
 586:Generated_Source\PSoC4/Timer_100ms.c ****     uint8 enableInterrupts;
 520              		.loc 1 586 0
 521 0002 041C     		mov	r4, r0
 589:Generated_Source\PSoC4/Timer_100ms.c **** 
 522              		.loc 1 589 0
 523 0004 FFF7FEFF 		bl	CyEnterCriticalSection
 524              	.LVL37:
 591:Generated_Source\PSoC4/Timer_100ms.c ****     Timer_100ms_CONTROL_REG |= mask;
 525              		.loc 1 591 0
 526 0008 054B     		ldr	r3, .L32
 527 000a 064A     		ldr	r2, .L32+4
 528 000c 1968     		ldr	r1, [r3]
 595:Generated_Source\PSoC4/Timer_100ms.c **** 
 529              		.loc 1 595 0
 530              		@ sp needed
ARM GAS  C:\Users\zhiantec\AppData\Local\Temp\ccsSOYXN.s 			page 35


 591:Generated_Source\PSoC4/Timer_100ms.c ****     Timer_100ms_CONTROL_REG |= mask;
 531              		.loc 1 591 0
 532 000e 0A40     		and	r2, r1
 533 0010 1A60     		str	r2, [r3]
 592:Generated_Source\PSoC4/Timer_100ms.c **** 
 534              		.loc 1 592 0
 535 0012 1A68     		ldr	r2, [r3]
 536 0014 2243     		orr	r2, r4
 537 0016 1A60     		str	r2, [r3]
 594:Generated_Source\PSoC4/Timer_100ms.c **** }
 538              		.loc 1 594 0
 539 0018 FFF7FEFF 		bl	CyExitCriticalSection
 540              	.LVL38:
 541              	.LVL39:
 595:Generated_Source\PSoC4/Timer_100ms.c **** 
 542              		.loc 1 595 0
 543 001c 10BD     		pop	{r4, pc}
 544              	.L33:
 545 001e C046     		.align	2
 546              	.L32:
 547 0020 40012040 		.word	1075839296
 548 0024 FFFFCFFF 		.word	-3145729
 549              		.cfi_endproc
 550              	.LFE14:
 551              		.size	Timer_100ms_SetPWMInvert, .-Timer_100ms_SetPWMInvert
 552              		.section	.text.Timer_100ms_WriteCounter,"ax",%progbits
 553              		.align	1
 554              		.global	Timer_100ms_WriteCounter
 555              		.code	16
 556              		.thumb_func
 557              		.type	Timer_100ms_WriteCounter, %function
 558              	Timer_100ms_WriteCounter:
 559              	.LFB15:
 616:Generated_Source\PSoC4/Timer_100ms.c ****     Timer_100ms_COUNTER_REG = (count & Timer_100ms_16BIT_MASK);
 560              		.loc 1 616 0
 561              		.cfi_startproc
 562              	.LVL40:
 617:Generated_Source\PSoC4/Timer_100ms.c **** }
 563              		.loc 1 617 0
 564 0000 014B     		ldr	r3, .L35
 565 0002 80B2     		uxth	r0, r0
 566              	.LVL41:
 567 0004 1860     		str	r0, [r3]
 618:Generated_Source\PSoC4/Timer_100ms.c **** 
 568              		.loc 1 618 0
 569              		@ sp needed
 570 0006 7047     		bx	lr
 571              	.L36:
 572              		.align	2
 573              	.L35:
 574 0008 48012040 		.word	1075839304
 575              		.cfi_endproc
 576              	.LFE15:
 577              		.size	Timer_100ms_WriteCounter, .-Timer_100ms_WriteCounter
 578              		.section	.text.Timer_100ms_ReadCounter,"ax",%progbits
 579              		.align	1
 580              		.global	Timer_100ms_ReadCounter
ARM GAS  C:\Users\zhiantec\AppData\Local\Temp\ccsSOYXN.s 			page 36


 581              		.code	16
 582              		.thumb_func
 583              		.type	Timer_100ms_ReadCounter, %function
 584              	Timer_100ms_ReadCounter:
 585              	.LFB16:
 636:Generated_Source\PSoC4/Timer_100ms.c ****     return (Timer_100ms_COUNTER_REG & Timer_100ms_16BIT_MASK);
 586              		.loc 1 636 0
 587              		.cfi_startproc
 637:Generated_Source\PSoC4/Timer_100ms.c **** }
 588              		.loc 1 637 0
 589 0000 014B     		ldr	r3, .L38
 638:Generated_Source\PSoC4/Timer_100ms.c **** 
 590              		.loc 1 638 0
 591              		@ sp needed
 637:Generated_Source\PSoC4/Timer_100ms.c **** }
 592              		.loc 1 637 0
 593 0002 1868     		ldr	r0, [r3]
 594 0004 80B2     		uxth	r0, r0
 638:Generated_Source\PSoC4/Timer_100ms.c **** 
 595              		.loc 1 638 0
 596 0006 7047     		bx	lr
 597              	.L39:
 598              		.align	2
 599              	.L38:
 600 0008 48012040 		.word	1075839304
 601              		.cfi_endproc
 602              	.LFE16:
 603              		.size	Timer_100ms_ReadCounter, .-Timer_100ms_ReadCounter
 604              		.section	.text.Timer_100ms_SetCounterMode,"ax",%progbits
 605              		.align	1
 606              		.global	Timer_100ms_SetCounterMode
 607              		.code	16
 608              		.thumb_func
 609              		.type	Timer_100ms_SetCounterMode, %function
 610              	Timer_100ms_SetCounterMode:
 611              	.LFB17:
 665:Generated_Source\PSoC4/Timer_100ms.c ****     uint8 enableInterrupts;
 612              		.loc 1 665 0
 613              		.cfi_startproc
 614              	.LVL42:
 615 0000 10B5     		push	{r4, lr}
 616              		.cfi_def_cfa_offset 8
 617              		.cfi_offset 4, -8
 618              		.cfi_offset 14, -4
 665:Generated_Source\PSoC4/Timer_100ms.c ****     uint8 enableInterrupts;
 619              		.loc 1 665 0
 620 0002 041C     		mov	r4, r0
 668:Generated_Source\PSoC4/Timer_100ms.c **** 
 621              		.loc 1 668 0
 622 0004 FFF7FEFF 		bl	CyEnterCriticalSection
 623              	.LVL43:
 670:Generated_Source\PSoC4/Timer_100ms.c ****     Timer_100ms_CONTROL_REG |= counterMode;
 624              		.loc 1 670 0
 625 0008 054B     		ldr	r3, .L41
 626 000a 064A     		ldr	r2, .L41+4
 627 000c 1968     		ldr	r1, [r3]
 674:Generated_Source\PSoC4/Timer_100ms.c **** 
ARM GAS  C:\Users\zhiantec\AppData\Local\Temp\ccsSOYXN.s 			page 37


 628              		.loc 1 674 0
 629              		@ sp needed
 670:Generated_Source\PSoC4/Timer_100ms.c ****     Timer_100ms_CONTROL_REG |= counterMode;
 630              		.loc 1 670 0
 631 000e 0A40     		and	r2, r1
 632 0010 1A60     		str	r2, [r3]
 671:Generated_Source\PSoC4/Timer_100ms.c **** 
 633              		.loc 1 671 0
 634 0012 1A68     		ldr	r2, [r3]
 635 0014 2243     		orr	r2, r4
 636 0016 1A60     		str	r2, [r3]
 673:Generated_Source\PSoC4/Timer_100ms.c **** }
 637              		.loc 1 673 0
 638 0018 FFF7FEFF 		bl	CyExitCriticalSection
 639              	.LVL44:
 640              	.LVL45:
 674:Generated_Source\PSoC4/Timer_100ms.c **** 
 641              		.loc 1 674 0
 642 001c 10BD     		pop	{r4, pc}
 643              	.L42:
 644 001e C046     		.align	2
 645              	.L41:
 646 0020 40012040 		.word	1075839296
 647 0024 FFFFFCFF 		.word	-196609
 648              		.cfi_endproc
 649              	.LFE17:
 650              		.size	Timer_100ms_SetCounterMode, .-Timer_100ms_SetCounterMode
 651              		.section	.text.Timer_100ms_WritePeriod,"ax",%progbits
 652              		.align	1
 653              		.global	Timer_100ms_WritePeriod
 654              		.code	16
 655              		.thumb_func
 656              		.type	Timer_100ms_WritePeriod, %function
 657              	Timer_100ms_WritePeriod:
 658              	.LFB18:
 694:Generated_Source\PSoC4/Timer_100ms.c ****     Timer_100ms_PERIOD_REG = (period & Timer_100ms_16BIT_MASK);
 659              		.loc 1 694 0
 660              		.cfi_startproc
 661              	.LVL46:
 695:Generated_Source\PSoC4/Timer_100ms.c **** }
 662              		.loc 1 695 0
 663 0000 014B     		ldr	r3, .L44
 664 0002 80B2     		uxth	r0, r0
 665              	.LVL47:
 666 0004 1860     		str	r0, [r3]
 696:Generated_Source\PSoC4/Timer_100ms.c **** 
 667              		.loc 1 696 0
 668              		@ sp needed
 669 0006 7047     		bx	lr
 670              	.L45:
 671              		.align	2
 672              	.L44:
 673 0008 54012040 		.word	1075839316
 674              		.cfi_endproc
 675              	.LFE18:
 676              		.size	Timer_100ms_WritePeriod, .-Timer_100ms_WritePeriod
 677              		.section	.text.Timer_100ms_ReadPeriod,"ax",%progbits
ARM GAS  C:\Users\zhiantec\AppData\Local\Temp\ccsSOYXN.s 			page 38


 678              		.align	1
 679              		.global	Timer_100ms_ReadPeriod
 680              		.code	16
 681              		.thumb_func
 682              		.type	Timer_100ms_ReadPeriod, %function
 683              	Timer_100ms_ReadPeriod:
 684              	.LFB19:
 714:Generated_Source\PSoC4/Timer_100ms.c ****     return (Timer_100ms_PERIOD_REG & Timer_100ms_16BIT_MASK);
 685              		.loc 1 714 0
 686              		.cfi_startproc
 715:Generated_Source\PSoC4/Timer_100ms.c **** }
 687              		.loc 1 715 0
 688 0000 014B     		ldr	r3, .L47
 716:Generated_Source\PSoC4/Timer_100ms.c **** 
 689              		.loc 1 716 0
 690              		@ sp needed
 715:Generated_Source\PSoC4/Timer_100ms.c **** }
 691              		.loc 1 715 0
 692 0002 1868     		ldr	r0, [r3]
 693 0004 80B2     		uxth	r0, r0
 716:Generated_Source\PSoC4/Timer_100ms.c **** 
 694              		.loc 1 716 0
 695 0006 7047     		bx	lr
 696              	.L48:
 697              		.align	2
 698              	.L47:
 699 0008 54012040 		.word	1075839316
 700              		.cfi_endproc
 701              	.LFE19:
 702              		.size	Timer_100ms_ReadPeriod, .-Timer_100ms_ReadPeriod
 703              		.section	.text.Timer_100ms_SetCompareSwap,"ax",%progbits
 704              		.align	1
 705              		.global	Timer_100ms_SetCompareSwap
 706              		.code	16
 707              		.thumb_func
 708              		.type	Timer_100ms_SetCompareSwap, %function
 709              	Timer_100ms_SetCompareSwap:
 710              	.LFB20:
 740:Generated_Source\PSoC4/Timer_100ms.c ****     uint8 enableInterrupts;
 711              		.loc 1 740 0
 712              		.cfi_startproc
 713              	.LVL48:
 714 0000 10B5     		push	{r4, lr}
 715              		.cfi_def_cfa_offset 8
 716              		.cfi_offset 4, -8
 717              		.cfi_offset 14, -4
 740:Generated_Source\PSoC4/Timer_100ms.c ****     uint8 enableInterrupts;
 718              		.loc 1 740 0
 719 0002 041C     		mov	r4, r0
 743:Generated_Source\PSoC4/Timer_100ms.c **** 
 720              		.loc 1 743 0
 721 0004 FFF7FEFF 		bl	CyEnterCriticalSection
 722              	.LVL49:
 745:Generated_Source\PSoC4/Timer_100ms.c ****     Timer_100ms_CONTROL_REG |= (swapEnable & Timer_100ms_1BIT_MASK);
 723              		.loc 1 745 0
 724 0008 0122     		mov	r2, #1
 725 000a 054B     		ldr	r3, .L50
ARM GAS  C:\Users\zhiantec\AppData\Local\Temp\ccsSOYXN.s 			page 39


 749:Generated_Source\PSoC4/Timer_100ms.c **** 
 726              		.loc 1 749 0
 727              		@ sp needed
 745:Generated_Source\PSoC4/Timer_100ms.c ****     Timer_100ms_CONTROL_REG |= (swapEnable & Timer_100ms_1BIT_MASK);
 728              		.loc 1 745 0
 729 000c 1968     		ldr	r1, [r3]
 730 000e 9143     		bic	r1, r2
 731 0010 1960     		str	r1, [r3]
 746:Generated_Source\PSoC4/Timer_100ms.c **** 
 732              		.loc 1 746 0
 733 0012 1968     		ldr	r1, [r3]
 734 0014 2240     		and	r2, r4
 735 0016 0A43     		orr	r2, r1
 736 0018 1A60     		str	r2, [r3]
 748:Generated_Source\PSoC4/Timer_100ms.c **** }
 737              		.loc 1 748 0
 738 001a FFF7FEFF 		bl	CyExitCriticalSection
 739              	.LVL50:
 740              	.LVL51:
 749:Generated_Source\PSoC4/Timer_100ms.c **** 
 741              		.loc 1 749 0
 742 001e 10BD     		pop	{r4, pc}
 743              	.L51:
 744              		.align	2
 745              	.L50:
 746 0020 40012040 		.word	1075839296
 747              		.cfi_endproc
 748              	.LFE20:
 749              		.size	Timer_100ms_SetCompareSwap, .-Timer_100ms_SetCompareSwap
 750              		.section	.text.Timer_100ms_WritePeriodBuf,"ax",%progbits
 751              		.align	1
 752              		.global	Timer_100ms_WritePeriodBuf
 753              		.code	16
 754              		.thumb_func
 755              		.type	Timer_100ms_WritePeriodBuf, %function
 756              	Timer_100ms_WritePeriodBuf:
 757              	.LFB21:
 767:Generated_Source\PSoC4/Timer_100ms.c ****     Timer_100ms_PERIOD_BUF_REG = (periodBuf & Timer_100ms_16BIT_MASK);
 758              		.loc 1 767 0
 759              		.cfi_startproc
 760              	.LVL52:
 768:Generated_Source\PSoC4/Timer_100ms.c **** }
 761              		.loc 1 768 0
 762 0000 014B     		ldr	r3, .L53
 763 0002 80B2     		uxth	r0, r0
 764              	.LVL53:
 765 0004 1860     		str	r0, [r3]
 769:Generated_Source\PSoC4/Timer_100ms.c **** 
 766              		.loc 1 769 0
 767              		@ sp needed
 768 0006 7047     		bx	lr
 769              	.L54:
 770              		.align	2
 771              	.L53:
 772 0008 58012040 		.word	1075839320
 773              		.cfi_endproc
 774              	.LFE21:
ARM GAS  C:\Users\zhiantec\AppData\Local\Temp\ccsSOYXN.s 			page 40


 775              		.size	Timer_100ms_WritePeriodBuf, .-Timer_100ms_WritePeriodBuf
 776              		.section	.text.Timer_100ms_ReadPeriodBuf,"ax",%progbits
 777              		.align	1
 778              		.global	Timer_100ms_ReadPeriodBuf
 779              		.code	16
 780              		.thumb_func
 781              		.type	Timer_100ms_ReadPeriodBuf, %function
 782              	Timer_100ms_ReadPeriodBuf:
 783              	.LFB22:
 787:Generated_Source\PSoC4/Timer_100ms.c ****     return (Timer_100ms_PERIOD_BUF_REG & Timer_100ms_16BIT_MASK);
 784              		.loc 1 787 0
 785              		.cfi_startproc
 788:Generated_Source\PSoC4/Timer_100ms.c **** }
 786              		.loc 1 788 0
 787 0000 014B     		ldr	r3, .L56
 789:Generated_Source\PSoC4/Timer_100ms.c **** 
 788              		.loc 1 789 0
 789              		@ sp needed
 788:Generated_Source\PSoC4/Timer_100ms.c **** }
 790              		.loc 1 788 0
 791 0002 1868     		ldr	r0, [r3]
 792 0004 80B2     		uxth	r0, r0
 789:Generated_Source\PSoC4/Timer_100ms.c **** 
 793              		.loc 1 789 0
 794 0006 7047     		bx	lr
 795              	.L57:
 796              		.align	2
 797              	.L56:
 798 0008 58012040 		.word	1075839320
 799              		.cfi_endproc
 800              	.LFE22:
 801              		.size	Timer_100ms_ReadPeriodBuf, .-Timer_100ms_ReadPeriodBuf
 802              		.section	.text.Timer_100ms_SetPeriodSwap,"ax",%progbits
 803              		.align	1
 804              		.global	Timer_100ms_SetPeriodSwap
 805              		.code	16
 806              		.thumb_func
 807              		.type	Timer_100ms_SetPeriodSwap, %function
 808              	Timer_100ms_SetPeriodSwap:
 809              	.LFB23:
 813:Generated_Source\PSoC4/Timer_100ms.c ****     uint8 enableInterrupts;
 810              		.loc 1 813 0
 811              		.cfi_startproc
 812              	.LVL54:
 813 0000 10B5     		push	{r4, lr}
 814              		.cfi_def_cfa_offset 8
 815              		.cfi_offset 4, -8
 816              		.cfi_offset 14, -4
 813:Generated_Source\PSoC4/Timer_100ms.c ****     uint8 enableInterrupts;
 817              		.loc 1 813 0
 818 0002 041C     		mov	r4, r0
 816:Generated_Source\PSoC4/Timer_100ms.c **** 
 819              		.loc 1 816 0
 820 0004 FFF7FEFF 		bl	CyEnterCriticalSection
 821              	.LVL55:
 818:Generated_Source\PSoC4/Timer_100ms.c ****     Timer_100ms_CONTROL_REG |= ((uint32)((swapEnable & Timer_100ms_1BIT_MASK) <<
 822              		.loc 1 818 0
ARM GAS  C:\Users\zhiantec\AppData\Local\Temp\ccsSOYXN.s 			page 41


 823 0008 0221     		mov	r1, #2
 824 000a 064A     		ldr	r2, .L59
 823:Generated_Source\PSoC4/Timer_100ms.c **** 
 825              		.loc 1 823 0
 826              		@ sp needed
 818:Generated_Source\PSoC4/Timer_100ms.c ****     Timer_100ms_CONTROL_REG |= ((uint32)((swapEnable & Timer_100ms_1BIT_MASK) <<
 827              		.loc 1 818 0
 828 000c 1368     		ldr	r3, [r2]
 829 000e 8B43     		bic	r3, r1
 830 0010 1360     		str	r3, [r2]
 819:Generated_Source\PSoC4/Timer_100ms.c ****                                                             Timer_100ms_RELOAD_PERIOD_SHIFT));
 831              		.loc 1 819 0
 832 0012 0123     		mov	r3, #1
 833 0014 1168     		ldr	r1, [r2]
 834 0016 2340     		and	r3, r4
 835 0018 5B00     		lsl	r3, r3, #1
 836 001a 0B43     		orr	r3, r1
 837 001c 1360     		str	r3, [r2]
 822:Generated_Source\PSoC4/Timer_100ms.c **** }
 838              		.loc 1 822 0
 839 001e FFF7FEFF 		bl	CyExitCriticalSection
 840              	.LVL56:
 841              	.LVL57:
 823:Generated_Source\PSoC4/Timer_100ms.c **** 
 842              		.loc 1 823 0
 843 0022 10BD     		pop	{r4, pc}
 844              	.L60:
 845              		.align	2
 846              	.L59:
 847 0024 40012040 		.word	1075839296
 848              		.cfi_endproc
 849              	.LFE23:
 850              		.size	Timer_100ms_SetPeriodSwap, .-Timer_100ms_SetPeriodSwap
 851              		.section	.text.Timer_100ms_WriteCompare,"ax",%progbits
 852              		.align	1
 853              		.global	Timer_100ms_WriteCompare
 854              		.code	16
 855              		.thumb_func
 856              		.type	Timer_100ms_WriteCompare, %function
 857              	Timer_100ms_WriteCompare:
 858              	.LFB24:
 850:Generated_Source\PSoC4/Timer_100ms.c ****     #if (Timer_100ms_CY_TCPWM_4000)
 859              		.loc 1 850 0
 860              		.cfi_startproc
 861              	.LVL58:
 873:Generated_Source\PSoC4/Timer_100ms.c **** }
 862              		.loc 1 873 0
 863 0000 014B     		ldr	r3, .L62
 864 0002 80B2     		uxth	r0, r0
 865              	.LVL59:
 866 0004 1860     		str	r0, [r3]
 874:Generated_Source\PSoC4/Timer_100ms.c **** 
 867              		.loc 1 874 0
 868              		@ sp needed
 869 0006 7047     		bx	lr
 870              	.L63:
 871              		.align	2
ARM GAS  C:\Users\zhiantec\AppData\Local\Temp\ccsSOYXN.s 			page 42


 872              	.L62:
 873 0008 4C012040 		.word	1075839308
 874              		.cfi_endproc
 875              	.LFE24:
 876              		.size	Timer_100ms_WriteCompare, .-Timer_100ms_WriteCompare
 877              		.section	.text.Timer_100ms_ReadCompare,"ax",%progbits
 878              		.align	1
 879              		.global	Timer_100ms_ReadCompare
 880              		.code	16
 881              		.thumb_func
 882              		.type	Timer_100ms_ReadCompare, %function
 883              	Timer_100ms_ReadCompare:
 884              	.LFB25:
 901:Generated_Source\PSoC4/Timer_100ms.c ****     #if (Timer_100ms_CY_TCPWM_4000)
 885              		.loc 1 901 0
 886              		.cfi_startproc
 926:Generated_Source\PSoC4/Timer_100ms.c ****     #endif /* (Timer_100ms_CY_TCPWM_4000) */
 887              		.loc 1 926 0
 888 0000 014B     		ldr	r3, .L65
 928:Generated_Source\PSoC4/Timer_100ms.c **** 
 889              		.loc 1 928 0
 890              		@ sp needed
 926:Generated_Source\PSoC4/Timer_100ms.c ****     #endif /* (Timer_100ms_CY_TCPWM_4000) */
 891              		.loc 1 926 0
 892 0002 1868     		ldr	r0, [r3]
 893 0004 80B2     		uxth	r0, r0
 928:Generated_Source\PSoC4/Timer_100ms.c **** 
 894              		.loc 1 928 0
 895 0006 7047     		bx	lr
 896              	.L66:
 897              		.align	2
 898              	.L65:
 899 0008 4C012040 		.word	1075839308
 900              		.cfi_endproc
 901              	.LFE25:
 902              		.size	Timer_100ms_ReadCompare, .-Timer_100ms_ReadCompare
 903              		.section	.text.Timer_100ms_WriteCompareBuf,"ax",%progbits
 904              		.align	1
 905              		.global	Timer_100ms_WriteCompareBuf
 906              		.code	16
 907              		.thumb_func
 908              		.type	Timer_100ms_WriteCompareBuf, %function
 909              	Timer_100ms_WriteCompareBuf:
 910              	.LFB26:
 955:Generated_Source\PSoC4/Timer_100ms.c ****     #if (Timer_100ms_CY_TCPWM_4000)
 911              		.loc 1 955 0
 912              		.cfi_startproc
 913              	.LVL60:
 976:Generated_Source\PSoC4/Timer_100ms.c **** }
 914              		.loc 1 976 0
 915 0000 014B     		ldr	r3, .L68
 916 0002 80B2     		uxth	r0, r0
 917              	.LVL61:
 918 0004 1860     		str	r0, [r3]
 977:Generated_Source\PSoC4/Timer_100ms.c **** 
 919              		.loc 1 977 0
 920              		@ sp needed
ARM GAS  C:\Users\zhiantec\AppData\Local\Temp\ccsSOYXN.s 			page 43


 921 0006 7047     		bx	lr
 922              	.L69:
 923              		.align	2
 924              	.L68:
 925 0008 50012040 		.word	1075839312
 926              		.cfi_endproc
 927              	.LFE26:
 928              		.size	Timer_100ms_WriteCompareBuf, .-Timer_100ms_WriteCompareBuf
 929              		.section	.text.Timer_100ms_ReadCompareBuf,"ax",%progbits
 930              		.align	1
 931              		.global	Timer_100ms_ReadCompareBuf
 932              		.code	16
 933              		.thumb_func
 934              		.type	Timer_100ms_ReadCompareBuf, %function
 935              	Timer_100ms_ReadCompareBuf:
 936              	.LFB27:
1001:Generated_Source\PSoC4/Timer_100ms.c ****     #if (Timer_100ms_CY_TCPWM_4000)
 937              		.loc 1 1001 0
 938              		.cfi_startproc
1026:Generated_Source\PSoC4/Timer_100ms.c ****     #endif /* (Timer_100ms_CY_TCPWM_4000) */
 939              		.loc 1 1026 0
 940 0000 014B     		ldr	r3, .L71
1028:Generated_Source\PSoC4/Timer_100ms.c **** 
 941              		.loc 1 1028 0
 942              		@ sp needed
1026:Generated_Source\PSoC4/Timer_100ms.c ****     #endif /* (Timer_100ms_CY_TCPWM_4000) */
 943              		.loc 1 1026 0
 944 0002 1868     		ldr	r0, [r3]
 945 0004 80B2     		uxth	r0, r0
1028:Generated_Source\PSoC4/Timer_100ms.c **** 
 946              		.loc 1 1028 0
 947 0006 7047     		bx	lr
 948              	.L72:
 949              		.align	2
 950              	.L71:
 951 0008 50012040 		.word	1075839312
 952              		.cfi_endproc
 953              	.LFE27:
 954              		.size	Timer_100ms_ReadCompareBuf, .-Timer_100ms_ReadCompareBuf
 955              		.section	.text.Timer_100ms_ReadCapture,"ax",%progbits
 956              		.align	1
 957              		.global	Timer_100ms_ReadCapture
 958              		.code	16
 959              		.thumb_func
 960              		.type	Timer_100ms_ReadCapture, %function
 961              	Timer_100ms_ReadCapture:
 962              	.LFB28:
1047:Generated_Source\PSoC4/Timer_100ms.c ****     return (Timer_100ms_COMP_CAP_REG & Timer_100ms_16BIT_MASK);
 963              		.loc 1 1047 0
 964              		.cfi_startproc
1048:Generated_Source\PSoC4/Timer_100ms.c **** }
 965              		.loc 1 1048 0
 966 0000 014B     		ldr	r3, .L74
1049:Generated_Source\PSoC4/Timer_100ms.c **** 
 967              		.loc 1 1049 0
 968              		@ sp needed
1048:Generated_Source\PSoC4/Timer_100ms.c **** }
ARM GAS  C:\Users\zhiantec\AppData\Local\Temp\ccsSOYXN.s 			page 44


 969              		.loc 1 1048 0
 970 0002 1868     		ldr	r0, [r3]
 971 0004 80B2     		uxth	r0, r0
1049:Generated_Source\PSoC4/Timer_100ms.c **** 
 972              		.loc 1 1049 0
 973 0006 7047     		bx	lr
 974              	.L75:
 975              		.align	2
 976              	.L74:
 977 0008 4C012040 		.word	1075839308
 978              		.cfi_endproc
 979              	.LFE28:
 980              		.size	Timer_100ms_ReadCapture, .-Timer_100ms_ReadCapture
 981              		.section	.text.Timer_100ms_ReadCaptureBuf,"ax",%progbits
 982              		.align	1
 983              		.global	Timer_100ms_ReadCaptureBuf
 984              		.code	16
 985              		.thumb_func
 986              		.type	Timer_100ms_ReadCaptureBuf, %function
 987              	Timer_100ms_ReadCaptureBuf:
 988              	.LFB29:
1068:Generated_Source\PSoC4/Timer_100ms.c ****     return (Timer_100ms_COMP_CAP_BUF_REG & Timer_100ms_16BIT_MASK);
 989              		.loc 1 1068 0
 990              		.cfi_startproc
1069:Generated_Source\PSoC4/Timer_100ms.c **** }
 991              		.loc 1 1069 0
 992 0000 014B     		ldr	r3, .L77
1070:Generated_Source\PSoC4/Timer_100ms.c **** 
 993              		.loc 1 1070 0
 994              		@ sp needed
1069:Generated_Source\PSoC4/Timer_100ms.c **** }
 995              		.loc 1 1069 0
 996 0002 1868     		ldr	r0, [r3]
 997 0004 80B2     		uxth	r0, r0
1070:Generated_Source\PSoC4/Timer_100ms.c **** 
 998              		.loc 1 1070 0
 999 0006 7047     		bx	lr
 1000              	.L78:
 1001              		.align	2
 1002              	.L77:
 1003 0008 50012040 		.word	1075839312
 1004              		.cfi_endproc
 1005              	.LFE29:
 1006              		.size	Timer_100ms_ReadCaptureBuf, .-Timer_100ms_ReadCaptureBuf
 1007              		.section	.text.Timer_100ms_SetCaptureMode,"ax",%progbits
 1008              		.align	1
 1009              		.global	Timer_100ms_SetCaptureMode
 1010              		.code	16
 1011              		.thumb_func
 1012              		.type	Timer_100ms_SetCaptureMode, %function
 1013              	Timer_100ms_SetCaptureMode:
 1014              	.LFB30:
1095:Generated_Source\PSoC4/Timer_100ms.c ****     uint8 enableInterrupts;
 1015              		.loc 1 1095 0
 1016              		.cfi_startproc
 1017              	.LVL62:
 1018 0000 10B5     		push	{r4, lr}
ARM GAS  C:\Users\zhiantec\AppData\Local\Temp\ccsSOYXN.s 			page 45


 1019              		.cfi_def_cfa_offset 8
 1020              		.cfi_offset 4, -8
 1021              		.cfi_offset 14, -4
1095:Generated_Source\PSoC4/Timer_100ms.c ****     uint8 enableInterrupts;
 1022              		.loc 1 1095 0
 1023 0002 041C     		mov	r4, r0
1098:Generated_Source\PSoC4/Timer_100ms.c **** 
 1024              		.loc 1 1098 0
 1025 0004 FFF7FEFF 		bl	CyEnterCriticalSection
 1026              	.LVL63:
1100:Generated_Source\PSoC4/Timer_100ms.c ****     Timer_100ms_TRIG_CONTROL1_REG |= triggerMode;
 1027              		.loc 1 1100 0
 1028 0008 0321     		mov	r1, #3
 1029 000a 054B     		ldr	r3, .L80
1104:Generated_Source\PSoC4/Timer_100ms.c **** 
 1030              		.loc 1 1104 0
 1031              		@ sp needed
1100:Generated_Source\PSoC4/Timer_100ms.c ****     Timer_100ms_TRIG_CONTROL1_REG |= triggerMode;
 1032              		.loc 1 1100 0
 1033 000c 1A68     		ldr	r2, [r3]
 1034 000e 8A43     		bic	r2, r1
 1035 0010 1A60     		str	r2, [r3]
1101:Generated_Source\PSoC4/Timer_100ms.c **** 
 1036              		.loc 1 1101 0
 1037 0012 1A68     		ldr	r2, [r3]
 1038 0014 2243     		orr	r2, r4
 1039 0016 1A60     		str	r2, [r3]
1103:Generated_Source\PSoC4/Timer_100ms.c **** }
 1040              		.loc 1 1103 0
 1041 0018 FFF7FEFF 		bl	CyExitCriticalSection
 1042              	.LVL64:
 1043              	.LVL65:
1104:Generated_Source\PSoC4/Timer_100ms.c **** 
 1044              		.loc 1 1104 0
 1045 001c 10BD     		pop	{r4, pc}
 1046              	.L81:
 1047 001e C046     		.align	2
 1048              	.L80:
 1049 0020 64012040 		.word	1075839332
 1050              		.cfi_endproc
 1051              	.LFE30:
 1052              		.size	Timer_100ms_SetCaptureMode, .-Timer_100ms_SetCaptureMode
 1053              		.section	.text.Timer_100ms_SetReloadMode,"ax",%progbits
 1054              		.align	1
 1055              		.global	Timer_100ms_SetReloadMode
 1056              		.code	16
 1057              		.thumb_func
 1058              		.type	Timer_100ms_SetReloadMode, %function
 1059              	Timer_100ms_SetReloadMode:
 1060              	.LFB31:
1128:Generated_Source\PSoC4/Timer_100ms.c ****     uint8 enableInterrupts;
 1061              		.loc 1 1128 0
 1062              		.cfi_startproc
 1063              	.LVL66:
 1064 0000 10B5     		push	{r4, lr}
 1065              		.cfi_def_cfa_offset 8
 1066              		.cfi_offset 4, -8
ARM GAS  C:\Users\zhiantec\AppData\Local\Temp\ccsSOYXN.s 			page 46


 1067              		.cfi_offset 14, -4
1128:Generated_Source\PSoC4/Timer_100ms.c ****     uint8 enableInterrupts;
 1068              		.loc 1 1128 0
 1069 0002 041C     		mov	r4, r0
1131:Generated_Source\PSoC4/Timer_100ms.c **** 
 1070              		.loc 1 1131 0
 1071 0004 FFF7FEFF 		bl	CyEnterCriticalSection
 1072              	.LVL67:
1133:Generated_Source\PSoC4/Timer_100ms.c ****     Timer_100ms_TRIG_CONTROL1_REG |= ((uint32)(triggerMode << Timer_100ms_RELOAD_SHIFT));
 1073              		.loc 1 1133 0
 1074 0008 3021     		mov	r1, #48
 1075 000a 054B     		ldr	r3, .L83
1137:Generated_Source\PSoC4/Timer_100ms.c **** 
 1076              		.loc 1 1137 0
 1077              		@ sp needed
1133:Generated_Source\PSoC4/Timer_100ms.c ****     Timer_100ms_TRIG_CONTROL1_REG |= ((uint32)(triggerMode << Timer_100ms_RELOAD_SHIFT));
 1078              		.loc 1 1133 0
 1079 000c 1A68     		ldr	r2, [r3]
 1080 000e 8A43     		bic	r2, r1
 1081 0010 1A60     		str	r2, [r3]
1134:Generated_Source\PSoC4/Timer_100ms.c **** 
 1082              		.loc 1 1134 0
 1083 0012 1968     		ldr	r1, [r3]
 1084 0014 2201     		lsl	r2, r4, #4
 1085 0016 0A43     		orr	r2, r1
 1086 0018 1A60     		str	r2, [r3]
1136:Generated_Source\PSoC4/Timer_100ms.c **** }
 1087              		.loc 1 1136 0
 1088 001a FFF7FEFF 		bl	CyExitCriticalSection
 1089              	.LVL68:
 1090              	.LVL69:
1137:Generated_Source\PSoC4/Timer_100ms.c **** 
 1091              		.loc 1 1137 0
 1092 001e 10BD     		pop	{r4, pc}
 1093              	.L84:
 1094              		.align	2
 1095              	.L83:
 1096 0020 64012040 		.word	1075839332
 1097              		.cfi_endproc
 1098              	.LFE31:
 1099              		.size	Timer_100ms_SetReloadMode, .-Timer_100ms_SetReloadMode
 1100              		.section	.text.Timer_100ms_SetStartMode,"ax",%progbits
 1101              		.align	1
 1102              		.global	Timer_100ms_SetStartMode
 1103              		.code	16
 1104              		.thumb_func
 1105              		.type	Timer_100ms_SetStartMode, %function
 1106              	Timer_100ms_SetStartMode:
 1107              	.LFB32:
1161:Generated_Source\PSoC4/Timer_100ms.c ****     uint8 enableInterrupts;
 1108              		.loc 1 1161 0
 1109              		.cfi_startproc
 1110              	.LVL70:
 1111 0000 10B5     		push	{r4, lr}
 1112              		.cfi_def_cfa_offset 8
 1113              		.cfi_offset 4, -8
 1114              		.cfi_offset 14, -4
ARM GAS  C:\Users\zhiantec\AppData\Local\Temp\ccsSOYXN.s 			page 47


1161:Generated_Source\PSoC4/Timer_100ms.c ****     uint8 enableInterrupts;
 1115              		.loc 1 1161 0
 1116 0002 041C     		mov	r4, r0
1164:Generated_Source\PSoC4/Timer_100ms.c **** 
 1117              		.loc 1 1164 0
 1118 0004 FFF7FEFF 		bl	CyEnterCriticalSection
 1119              	.LVL71:
1166:Generated_Source\PSoC4/Timer_100ms.c ****     Timer_100ms_TRIG_CONTROL1_REG |= ((uint32)(triggerMode << Timer_100ms_START_SHIFT));
 1120              		.loc 1 1166 0
 1121 0008 054B     		ldr	r3, .L86
 1122 000a 064A     		ldr	r2, .L86+4
 1123 000c 1968     		ldr	r1, [r3]
1170:Generated_Source\PSoC4/Timer_100ms.c **** 
 1124              		.loc 1 1170 0
 1125              		@ sp needed
1166:Generated_Source\PSoC4/Timer_100ms.c ****     Timer_100ms_TRIG_CONTROL1_REG |= ((uint32)(triggerMode << Timer_100ms_START_SHIFT));
 1126              		.loc 1 1166 0
 1127 000e 0A40     		and	r2, r1
 1128 0010 1A60     		str	r2, [r3]
1167:Generated_Source\PSoC4/Timer_100ms.c **** 
 1129              		.loc 1 1167 0
 1130 0012 1968     		ldr	r1, [r3]
 1131 0014 2202     		lsl	r2, r4, #8
 1132 0016 0A43     		orr	r2, r1
 1133 0018 1A60     		str	r2, [r3]
1169:Generated_Source\PSoC4/Timer_100ms.c **** }
 1134              		.loc 1 1169 0
 1135 001a FFF7FEFF 		bl	CyExitCriticalSection
 1136              	.LVL72:
 1137              	.LVL73:
1170:Generated_Source\PSoC4/Timer_100ms.c **** 
 1138              		.loc 1 1170 0
 1139 001e 10BD     		pop	{r4, pc}
 1140              	.L87:
 1141              		.align	2
 1142              	.L86:
 1143 0020 64012040 		.word	1075839332
 1144 0024 FFFCFFFF 		.word	-769
 1145              		.cfi_endproc
 1146              	.LFE32:
 1147              		.size	Timer_100ms_SetStartMode, .-Timer_100ms_SetStartMode
 1148              		.section	.text.Timer_100ms_SetStopMode,"ax",%progbits
 1149              		.align	1
 1150              		.global	Timer_100ms_SetStopMode
 1151              		.code	16
 1152              		.thumb_func
 1153              		.type	Timer_100ms_SetStopMode, %function
 1154              	Timer_100ms_SetStopMode:
 1155              	.LFB33:
1193:Generated_Source\PSoC4/Timer_100ms.c ****     uint8 enableInterrupts;
 1156              		.loc 1 1193 0
 1157              		.cfi_startproc
 1158              	.LVL74:
 1159 0000 10B5     		push	{r4, lr}
 1160              		.cfi_def_cfa_offset 8
 1161              		.cfi_offset 4, -8
 1162              		.cfi_offset 14, -4
ARM GAS  C:\Users\zhiantec\AppData\Local\Temp\ccsSOYXN.s 			page 48


1193:Generated_Source\PSoC4/Timer_100ms.c ****     uint8 enableInterrupts;
 1163              		.loc 1 1193 0
 1164 0002 041C     		mov	r4, r0
1196:Generated_Source\PSoC4/Timer_100ms.c **** 
 1165              		.loc 1 1196 0
 1166 0004 FFF7FEFF 		bl	CyEnterCriticalSection
 1167              	.LVL75:
1198:Generated_Source\PSoC4/Timer_100ms.c ****     Timer_100ms_TRIG_CONTROL1_REG |= ((uint32)(triggerMode << Timer_100ms_STOP_SHIFT));
 1168              		.loc 1 1198 0
 1169 0008 C021     		mov	r1, #192
 1170 000a 054B     		ldr	r3, .L89
1202:Generated_Source\PSoC4/Timer_100ms.c **** 
 1171              		.loc 1 1202 0
 1172              		@ sp needed
1198:Generated_Source\PSoC4/Timer_100ms.c ****     Timer_100ms_TRIG_CONTROL1_REG |= ((uint32)(triggerMode << Timer_100ms_STOP_SHIFT));
 1173              		.loc 1 1198 0
 1174 000c 1A68     		ldr	r2, [r3]
 1175 000e 8A43     		bic	r2, r1
 1176 0010 1A60     		str	r2, [r3]
1199:Generated_Source\PSoC4/Timer_100ms.c **** 
 1177              		.loc 1 1199 0
 1178 0012 1968     		ldr	r1, [r3]
 1179 0014 A201     		lsl	r2, r4, #6
 1180 0016 0A43     		orr	r2, r1
 1181 0018 1A60     		str	r2, [r3]
1201:Generated_Source\PSoC4/Timer_100ms.c **** }
 1182              		.loc 1 1201 0
 1183 001a FFF7FEFF 		bl	CyExitCriticalSection
 1184              	.LVL76:
 1185              	.LVL77:
1202:Generated_Source\PSoC4/Timer_100ms.c **** 
 1186              		.loc 1 1202 0
 1187 001e 10BD     		pop	{r4, pc}
 1188              	.L90:
 1189              		.align	2
 1190              	.L89:
 1191 0020 64012040 		.word	1075839332
 1192              		.cfi_endproc
 1193              	.LFE33:
 1194              		.size	Timer_100ms_SetStopMode, .-Timer_100ms_SetStopMode
 1195              		.section	.text.Timer_100ms_SetCountMode,"ax",%progbits
 1196              		.align	1
 1197              		.global	Timer_100ms_SetCountMode
 1198              		.code	16
 1199              		.thumb_func
 1200              		.type	Timer_100ms_SetCountMode, %function
 1201              	Timer_100ms_SetCountMode:
 1202              	.LFB34:
1226:Generated_Source\PSoC4/Timer_100ms.c ****     uint8 enableInterrupts;
 1203              		.loc 1 1226 0
 1204              		.cfi_startproc
 1205              	.LVL78:
 1206 0000 10B5     		push	{r4, lr}
 1207              		.cfi_def_cfa_offset 8
 1208              		.cfi_offset 4, -8
 1209              		.cfi_offset 14, -4
1226:Generated_Source\PSoC4/Timer_100ms.c ****     uint8 enableInterrupts;
ARM GAS  C:\Users\zhiantec\AppData\Local\Temp\ccsSOYXN.s 			page 49


 1210              		.loc 1 1226 0
 1211 0002 041C     		mov	r4, r0
1229:Generated_Source\PSoC4/Timer_100ms.c **** 
 1212              		.loc 1 1229 0
 1213 0004 FFF7FEFF 		bl	CyEnterCriticalSection
 1214              	.LVL79:
1231:Generated_Source\PSoC4/Timer_100ms.c ****     Timer_100ms_TRIG_CONTROL1_REG |= ((uint32)(triggerMode << Timer_100ms_COUNT_SHIFT));
 1215              		.loc 1 1231 0
 1216 0008 0C21     		mov	r1, #12
 1217 000a 054B     		ldr	r3, .L92
1235:Generated_Source\PSoC4/Timer_100ms.c **** 
 1218              		.loc 1 1235 0
 1219              		@ sp needed
1231:Generated_Source\PSoC4/Timer_100ms.c ****     Timer_100ms_TRIG_CONTROL1_REG |= ((uint32)(triggerMode << Timer_100ms_COUNT_SHIFT));
 1220              		.loc 1 1231 0
 1221 000c 1A68     		ldr	r2, [r3]
 1222 000e 8A43     		bic	r2, r1
 1223 0010 1A60     		str	r2, [r3]
1232:Generated_Source\PSoC4/Timer_100ms.c **** 
 1224              		.loc 1 1232 0
 1225 0012 1968     		ldr	r1, [r3]
 1226 0014 A200     		lsl	r2, r4, #2
 1227 0016 0A43     		orr	r2, r1
 1228 0018 1A60     		str	r2, [r3]
1234:Generated_Source\PSoC4/Timer_100ms.c **** }
 1229              		.loc 1 1234 0
 1230 001a FFF7FEFF 		bl	CyExitCriticalSection
 1231              	.LVL80:
 1232              	.LVL81:
1235:Generated_Source\PSoC4/Timer_100ms.c **** 
 1233              		.loc 1 1235 0
 1234 001e 10BD     		pop	{r4, pc}
 1235              	.L93:
 1236              		.align	2
 1237              	.L92:
 1238 0020 64012040 		.word	1075839332
 1239              		.cfi_endproc
 1240              	.LFE34:
 1241              		.size	Timer_100ms_SetCountMode, .-Timer_100ms_SetCountMode
 1242              		.section	.text.Timer_100ms_TriggerCommand,"ax",%progbits
 1243              		.align	1
 1244              		.global	Timer_100ms_TriggerCommand
 1245              		.code	16
 1246              		.thumb_func
 1247              		.type	Timer_100ms_TriggerCommand, %function
 1248              	Timer_100ms_TriggerCommand:
 1249              	.LFB35:
1266:Generated_Source\PSoC4/Timer_100ms.c ****     uint8 enableInterrupts;
 1250              		.loc 1 1266 0
 1251              		.cfi_startproc
 1252              	.LVL82:
 1253 0000 38B5     		push	{r3, r4, r5, lr}
 1254              		.cfi_def_cfa_offset 16
 1255              		.cfi_offset 3, -16
 1256              		.cfi_offset 4, -12
 1257              		.cfi_offset 5, -8
 1258              		.cfi_offset 14, -4
ARM GAS  C:\Users\zhiantec\AppData\Local\Temp\ccsSOYXN.s 			page 50


1266:Generated_Source\PSoC4/Timer_100ms.c ****     uint8 enableInterrupts;
 1259              		.loc 1 1266 0
 1260 0002 0D1C     		mov	r5, r1
 1261 0004 041C     		mov	r4, r0
1271:Generated_Source\PSoC4/Timer_100ms.c **** 
 1262              		.loc 1 1271 0
 1263 0006 AC40     		lsl	r4, r4, r5
1269:Generated_Source\PSoC4/Timer_100ms.c **** 
 1264              		.loc 1 1269 0
 1265 0008 FFF7FEFF 		bl	CyEnterCriticalSection
 1266              	.LVL83:
1271:Generated_Source\PSoC4/Timer_100ms.c **** 
 1267              		.loc 1 1271 0
 1268 000c 024B     		ldr	r3, .L95
1274:Generated_Source\PSoC4/Timer_100ms.c **** 
 1269              		.loc 1 1274 0
 1270              		@ sp needed
1271:Generated_Source\PSoC4/Timer_100ms.c **** 
 1271              		.loc 1 1271 0
 1272 000e 1C60     		str	r4, [r3]
1273:Generated_Source\PSoC4/Timer_100ms.c **** }
 1273              		.loc 1 1273 0
 1274 0010 FFF7FEFF 		bl	CyExitCriticalSection
 1275              	.LVL84:
 1276              	.LVL85:
1274:Generated_Source\PSoC4/Timer_100ms.c **** 
 1277              		.loc 1 1274 0
 1278 0014 38BD     		pop	{r3, r4, r5, pc}
 1279              	.L96:
 1280 0016 C046     		.align	2
 1281              	.L95:
 1282 0018 08002040 		.word	1075838984
 1283              		.cfi_endproc
 1284              	.LFE35:
 1285              		.size	Timer_100ms_TriggerCommand, .-Timer_100ms_TriggerCommand
 1286              		.section	.text.Timer_100ms_Enable,"ax",%progbits
 1287              		.align	1
 1288              		.global	Timer_100ms_Enable
 1289              		.code	16
 1290              		.thumb_func
 1291              		.type	Timer_100ms_Enable, %function
 1292              	Timer_100ms_Enable:
 1293              	.LFB3:
 178:Generated_Source\PSoC4/Timer_100ms.c ****     uint8 enableInterrupts;
 1294              		.loc 1 178 0
 1295              		.cfi_startproc
 1296 0000 10B5     		push	{r4, lr}
 1297              		.cfi_def_cfa_offset 8
 1298              		.cfi_offset 4, -8
 1299              		.cfi_offset 14, -4
 182:Generated_Source\PSoC4/Timer_100ms.c ****     CyExitCriticalSection(enableInterrupts);
 1300              		.loc 1 182 0
 1301 0002 0224     		mov	r4, #2
 181:Generated_Source\PSoC4/Timer_100ms.c ****     Timer_100ms_BLOCK_CONTROL_REG |= Timer_100ms_MASK;
 1302              		.loc 1 181 0
 1303 0004 FFF7FEFF 		bl	CyEnterCriticalSection
 1304              	.LVL86:
ARM GAS  C:\Users\zhiantec\AppData\Local\Temp\ccsSOYXN.s 			page 51


 182:Generated_Source\PSoC4/Timer_100ms.c ****     CyExitCriticalSection(enableInterrupts);
 1305              		.loc 1 182 0
 1306 0008 054A     		ldr	r2, .L98
 203:Generated_Source\PSoC4/Timer_100ms.c **** 
 1307              		.loc 1 203 0
 1308              		@ sp needed
 182:Generated_Source\PSoC4/Timer_100ms.c ****     CyExitCriticalSection(enableInterrupts);
 1309              		.loc 1 182 0
 1310 000a 1368     		ldr	r3, [r2]
 1311 000c 2343     		orr	r3, r4
 1312 000e 1360     		str	r3, [r2]
 183:Generated_Source\PSoC4/Timer_100ms.c **** 
 1313              		.loc 1 183 0
 1314 0010 FFF7FEFF 		bl	CyExitCriticalSection
 1315              	.LVL87:
 194:Generated_Source\PSoC4/Timer_100ms.c ****         #endif /* (0u == Timer_100ms_TC_START_SIGNAL_PRESENT) */
 1316              		.loc 1 194 0
 1317 0014 201C     		mov	r0, r4
 1318 0016 1821     		mov	r1, #24
 1319 0018 FFF7FEFF 		bl	Timer_100ms_TriggerCommand
 1320              	.LVL88:
 203:Generated_Source\PSoC4/Timer_100ms.c **** 
 1321              		.loc 1 203 0
 1322 001c 10BD     		pop	{r4, pc}
 1323              	.L99:
 1324 001e C046     		.align	2
 1325              	.L98:
 1326 0020 00002040 		.word	1075838976
 1327              		.cfi_endproc
 1328              	.LFE3:
 1329              		.size	Timer_100ms_Enable, .-Timer_100ms_Enable
 1330              		.section	.text.Timer_100ms_Start,"ax",%progbits
 1331              		.align	1
 1332              		.global	Timer_100ms_Start
 1333              		.code	16
 1334              		.thumb_func
 1335              		.type	Timer_100ms_Start, %function
 1336              	Timer_100ms_Start:
 1337              	.LFB4:
 231:Generated_Source\PSoC4/Timer_100ms.c ****     if (0u == Timer_100ms_initVar)
 1338              		.loc 1 231 0
 1339              		.cfi_startproc
 1340 0000 10B5     		push	{r4, lr}
 1341              		.cfi_def_cfa_offset 8
 1342              		.cfi_offset 4, -8
 1343              		.cfi_offset 14, -4
 232:Generated_Source\PSoC4/Timer_100ms.c ****     {
 1344              		.loc 1 232 0
 1345 0002 054C     		ldr	r4, .L103
 1346 0004 2378     		ldrb	r3, [r4]
 1347 0006 002B     		cmp	r3, #0
 1348 0008 03D1     		bne	.L101
 234:Generated_Source\PSoC4/Timer_100ms.c ****         Timer_100ms_initVar = 1u;
 1349              		.loc 1 234 0
 1350 000a FFF7FEFF 		bl	Timer_100ms_Init
 1351              	.LVL89:
 235:Generated_Source\PSoC4/Timer_100ms.c ****     }
ARM GAS  C:\Users\zhiantec\AppData\Local\Temp\ccsSOYXN.s 			page 52


 1352              		.loc 1 235 0
 1353 000e 0123     		mov	r3, #1
 1354 0010 2370     		strb	r3, [r4]
 1355              	.L101:
 238:Generated_Source\PSoC4/Timer_100ms.c **** }
 1356              		.loc 1 238 0
 1357 0012 FFF7FEFF 		bl	Timer_100ms_Enable
 1358              	.LVL90:
 239:Generated_Source\PSoC4/Timer_100ms.c **** 
 1359              		.loc 1 239 0
 1360              		@ sp needed
 1361 0016 10BD     		pop	{r4, pc}
 1362              	.L104:
 1363              		.align	2
 1364              	.L103:
 1365 0018 00000000 		.word	.LANCHOR0
 1366              		.cfi_endproc
 1367              	.LFE4:
 1368              		.size	Timer_100ms_Start, .-Timer_100ms_Start
 1369              		.section	.text.Timer_100ms_ReadStatus,"ax",%progbits
 1370              		.align	1
 1371              		.global	Timer_100ms_ReadStatus
 1372              		.code	16
 1373              		.thumb_func
 1374              		.type	Timer_100ms_ReadStatus, %function
 1375              	Timer_100ms_ReadStatus:
 1376              	.LFB36:
1295:Generated_Source\PSoC4/Timer_100ms.c ****     return ((Timer_100ms_STATUS_REG >> Timer_100ms_RUNNING_STATUS_SHIFT) |
 1377              		.loc 1 1295 0
 1378              		.cfi_startproc
1296:Generated_Source\PSoC4/Timer_100ms.c ****             (Timer_100ms_STATUS_REG & Timer_100ms_STATUS_DOWN));
 1379              		.loc 1 1296 0
 1380 0000 034A     		ldr	r2, .L106
1298:Generated_Source\PSoC4/Timer_100ms.c **** 
 1381              		.loc 1 1298 0
 1382              		@ sp needed
1296:Generated_Source\PSoC4/Timer_100ms.c ****             (Timer_100ms_STATUS_REG & Timer_100ms_STATUS_DOWN));
 1383              		.loc 1 1296 0
 1384 0002 1368     		ldr	r3, [r2]
1297:Generated_Source\PSoC4/Timer_100ms.c **** }
 1385              		.loc 1 1297 0
 1386 0004 1068     		ldr	r0, [r2]
 1387 0006 0122     		mov	r2, #1
1296:Generated_Source\PSoC4/Timer_100ms.c ****             (Timer_100ms_STATUS_REG & Timer_100ms_STATUS_DOWN));
 1388              		.loc 1 1296 0
 1389 0008 9B0F     		lsr	r3, r3, #30
1297:Generated_Source\PSoC4/Timer_100ms.c **** }
 1390              		.loc 1 1297 0
 1391 000a 1040     		and	r0, r2
1296:Generated_Source\PSoC4/Timer_100ms.c ****             (Timer_100ms_STATUS_REG & Timer_100ms_STATUS_DOWN));
 1392              		.loc 1 1296 0
 1393 000c 1843     		orr	r0, r3
1298:Generated_Source\PSoC4/Timer_100ms.c **** 
 1394              		.loc 1 1298 0
 1395 000e 7047     		bx	lr
 1396              	.L107:
 1397              		.align	2
ARM GAS  C:\Users\zhiantec\AppData\Local\Temp\ccsSOYXN.s 			page 53


 1398              	.L106:
 1399 0010 44012040 		.word	1075839300
 1400              		.cfi_endproc
 1401              	.LFE36:
 1402              		.size	Timer_100ms_ReadStatus, .-Timer_100ms_ReadStatus
 1403              		.section	.text.Timer_100ms_SetInterruptMode,"ax",%progbits
 1404              		.align	1
 1405              		.global	Timer_100ms_SetInterruptMode
 1406              		.code	16
 1407              		.thumb_func
 1408              		.type	Timer_100ms_SetInterruptMode, %function
 1409              	Timer_100ms_SetInterruptMode:
 1410              	.LFB37:
1320:Generated_Source\PSoC4/Timer_100ms.c ****     Timer_100ms_INTERRUPT_MASK_REG =  interruptMask;
 1411              		.loc 1 1320 0
 1412              		.cfi_startproc
 1413              	.LVL91:
 1414              		.loc 1 1321 0
 1415 0000 014B     		ldr	r3, .L109
1322:Generated_Source\PSoC4/Timer_100ms.c **** }
 1416              		.loc 1 1322 0
 1417              		@ sp needed
1321:Generated_Source\PSoC4/Timer_100ms.c **** }
 1418              		.loc 1 1321 0
 1419 0002 1860     		str	r0, [r3]
 1420              		.loc 1 1322 0
 1421 0004 7047     		bx	lr
 1422              	.L110:
 1423 0006 C046     		.align	2
 1424              	.L109:
 1425 0008 78012040 		.word	1075839352
 1426              		.cfi_endproc
 1427              	.LFE37:
 1428              		.size	Timer_100ms_SetInterruptMode, .-Timer_100ms_SetInterruptMode
 1429              		.section	.text.Timer_100ms_GetInterruptSourceMasked,"ax",%progbits
 1430              		.align	1
 1431              		.global	Timer_100ms_GetInterruptSourceMasked
 1432              		.code	16
 1433              		.thumb_func
 1434              		.type	Timer_100ms_GetInterruptSourceMasked, %function
 1435              	Timer_100ms_GetInterruptSourceMasked:
 1436              	.LFB38:
1323:Generated_Source\PSoC4/Timer_100ms.c **** 
1324:Generated_Source\PSoC4/Timer_100ms.c **** 
1325:Generated_Source\PSoC4/Timer_100ms.c **** /*******************************************************************************
1326:Generated_Source\PSoC4/Timer_100ms.c **** * Function Name: Timer_100ms_GetInterruptSourceMasked
1327:Generated_Source\PSoC4/Timer_100ms.c **** ********************************************************************************
1328:Generated_Source\PSoC4/Timer_100ms.c **** *
1329:Generated_Source\PSoC4/Timer_100ms.c **** * Summary:
1330:Generated_Source\PSoC4/Timer_100ms.c **** *  Gets the interrupt requests masked by the interrupt mask.
1331:Generated_Source\PSoC4/Timer_100ms.c **** *
1332:Generated_Source\PSoC4/Timer_100ms.c **** * Parameters:
1333:Generated_Source\PSoC4/Timer_100ms.c **** *   None
1334:Generated_Source\PSoC4/Timer_100ms.c **** *
1335:Generated_Source\PSoC4/Timer_100ms.c **** * Return:
1336:Generated_Source\PSoC4/Timer_100ms.c **** *  Masked interrupt source
1337:Generated_Source\PSoC4/Timer_100ms.c **** *   Values:
ARM GAS  C:\Users\zhiantec\AppData\Local\Temp\ccsSOYXN.s 			page 54


1338:Generated_Source\PSoC4/Timer_100ms.c **** *     - Timer_100ms_INTR_MASK_TC       - Terminal count mask
1339:Generated_Source\PSoC4/Timer_100ms.c **** *     - Timer_100ms_INTR_MASK_CC_MATCH - Compare count / capture mask
1340:Generated_Source\PSoC4/Timer_100ms.c **** *
1341:Generated_Source\PSoC4/Timer_100ms.c **** *******************************************************************************/
1342:Generated_Source\PSoC4/Timer_100ms.c **** uint32 Timer_100ms_GetInterruptSourceMasked(void)
1343:Generated_Source\PSoC4/Timer_100ms.c **** {
 1437              		.loc 1 1343 0
 1438              		.cfi_startproc
1344:Generated_Source\PSoC4/Timer_100ms.c ****     return (Timer_100ms_INTERRUPT_MASKED_REG);
 1439              		.loc 1 1344 0
 1440 0000 014B     		ldr	r3, .L112
1345:Generated_Source\PSoC4/Timer_100ms.c **** }
 1441              		.loc 1 1345 0
 1442              		@ sp needed
1344:Generated_Source\PSoC4/Timer_100ms.c ****     return (Timer_100ms_INTERRUPT_MASKED_REG);
 1443              		.loc 1 1344 0
 1444 0002 1868     		ldr	r0, [r3]
 1445              		.loc 1 1345 0
 1446 0004 7047     		bx	lr
 1447              	.L113:
 1448 0006 C046     		.align	2
 1449              	.L112:
 1450 0008 7C012040 		.word	1075839356
 1451              		.cfi_endproc
 1452              	.LFE38:
 1453              		.size	Timer_100ms_GetInterruptSourceMasked, .-Timer_100ms_GetInterruptSourceMasked
 1454              		.section	.text.Timer_100ms_GetInterruptSource,"ax",%progbits
 1455              		.align	1
 1456              		.global	Timer_100ms_GetInterruptSource
 1457              		.code	16
 1458              		.thumb_func
 1459              		.type	Timer_100ms_GetInterruptSource, %function
 1460              	Timer_100ms_GetInterruptSource:
 1461              	.LFB39:
1346:Generated_Source\PSoC4/Timer_100ms.c **** 
1347:Generated_Source\PSoC4/Timer_100ms.c **** 
1348:Generated_Source\PSoC4/Timer_100ms.c **** /*******************************************************************************
1349:Generated_Source\PSoC4/Timer_100ms.c **** * Function Name: Timer_100ms_GetInterruptSource
1350:Generated_Source\PSoC4/Timer_100ms.c **** ********************************************************************************
1351:Generated_Source\PSoC4/Timer_100ms.c **** *
1352:Generated_Source\PSoC4/Timer_100ms.c **** * Summary:
1353:Generated_Source\PSoC4/Timer_100ms.c **** *  Gets the interrupt requests (without masking).
1354:Generated_Source\PSoC4/Timer_100ms.c **** *
1355:Generated_Source\PSoC4/Timer_100ms.c **** * Parameters:
1356:Generated_Source\PSoC4/Timer_100ms.c **** *  None
1357:Generated_Source\PSoC4/Timer_100ms.c **** *
1358:Generated_Source\PSoC4/Timer_100ms.c **** * Return:
1359:Generated_Source\PSoC4/Timer_100ms.c **** *  Interrupt request value
1360:Generated_Source\PSoC4/Timer_100ms.c **** *   Values:
1361:Generated_Source\PSoC4/Timer_100ms.c **** *     - Timer_100ms_INTR_MASK_TC       - Terminal count mask
1362:Generated_Source\PSoC4/Timer_100ms.c **** *     - Timer_100ms_INTR_MASK_CC_MATCH - Compare count / capture mask
1363:Generated_Source\PSoC4/Timer_100ms.c **** *
1364:Generated_Source\PSoC4/Timer_100ms.c **** *******************************************************************************/
1365:Generated_Source\PSoC4/Timer_100ms.c **** uint32 Timer_100ms_GetInterruptSource(void)
1366:Generated_Source\PSoC4/Timer_100ms.c **** {
 1462              		.loc 1 1366 0
 1463              		.cfi_startproc
ARM GAS  C:\Users\zhiantec\AppData\Local\Temp\ccsSOYXN.s 			page 55


1367:Generated_Source\PSoC4/Timer_100ms.c ****     return (Timer_100ms_INTERRUPT_REQ_REG);
 1464              		.loc 1 1367 0
 1465 0000 014B     		ldr	r3, .L115
1368:Generated_Source\PSoC4/Timer_100ms.c **** }
 1466              		.loc 1 1368 0
 1467              		@ sp needed
1367:Generated_Source\PSoC4/Timer_100ms.c ****     return (Timer_100ms_INTERRUPT_REQ_REG);
 1468              		.loc 1 1367 0
 1469 0002 1868     		ldr	r0, [r3]
 1470              		.loc 1 1368 0
 1471 0004 7047     		bx	lr
 1472              	.L116:
 1473 0006 C046     		.align	2
 1474              	.L115:
 1475 0008 70012040 		.word	1075839344
 1476              		.cfi_endproc
 1477              	.LFE39:
 1478              		.size	Timer_100ms_GetInterruptSource, .-Timer_100ms_GetInterruptSource
 1479              		.section	.text.Timer_100ms_ClearInterrupt,"ax",%progbits
 1480              		.align	1
 1481              		.global	Timer_100ms_ClearInterrupt
 1482              		.code	16
 1483              		.thumb_func
 1484              		.type	Timer_100ms_ClearInterrupt, %function
 1485              	Timer_100ms_ClearInterrupt:
 1486              	.LFB40:
1369:Generated_Source\PSoC4/Timer_100ms.c **** 
1370:Generated_Source\PSoC4/Timer_100ms.c **** 
1371:Generated_Source\PSoC4/Timer_100ms.c **** /*******************************************************************************
1372:Generated_Source\PSoC4/Timer_100ms.c **** * Function Name: Timer_100ms_ClearInterrupt
1373:Generated_Source\PSoC4/Timer_100ms.c **** ********************************************************************************
1374:Generated_Source\PSoC4/Timer_100ms.c **** *
1375:Generated_Source\PSoC4/Timer_100ms.c **** * Summary:
1376:Generated_Source\PSoC4/Timer_100ms.c **** *  Clears the interrupt request.
1377:Generated_Source\PSoC4/Timer_100ms.c **** *
1378:Generated_Source\PSoC4/Timer_100ms.c **** * Parameters:
1379:Generated_Source\PSoC4/Timer_100ms.c **** *   interruptMask: Mask of interrupts to clear
1380:Generated_Source\PSoC4/Timer_100ms.c **** *   Values:
1381:Generated_Source\PSoC4/Timer_100ms.c **** *     - Timer_100ms_INTR_MASK_TC       - Terminal count mask
1382:Generated_Source\PSoC4/Timer_100ms.c **** *     - Timer_100ms_INTR_MASK_CC_MATCH - Compare count / capture mask
1383:Generated_Source\PSoC4/Timer_100ms.c **** *
1384:Generated_Source\PSoC4/Timer_100ms.c **** * Return:
1385:Generated_Source\PSoC4/Timer_100ms.c **** *  None
1386:Generated_Source\PSoC4/Timer_100ms.c **** *
1387:Generated_Source\PSoC4/Timer_100ms.c **** *******************************************************************************/
1388:Generated_Source\PSoC4/Timer_100ms.c **** void Timer_100ms_ClearInterrupt(uint32 interruptMask)
1389:Generated_Source\PSoC4/Timer_100ms.c **** {
 1487              		.loc 1 1389 0
 1488              		.cfi_startproc
 1489              	.LVL92:
1390:Generated_Source\PSoC4/Timer_100ms.c ****     Timer_100ms_INTERRUPT_REQ_REG = interruptMask;
 1490              		.loc 1 1390 0
 1491 0000 014B     		ldr	r3, .L118
1391:Generated_Source\PSoC4/Timer_100ms.c **** }
 1492              		.loc 1 1391 0
 1493              		@ sp needed
1390:Generated_Source\PSoC4/Timer_100ms.c ****     Timer_100ms_INTERRUPT_REQ_REG = interruptMask;
ARM GAS  C:\Users\zhiantec\AppData\Local\Temp\ccsSOYXN.s 			page 56


 1494              		.loc 1 1390 0
 1495 0002 1860     		str	r0, [r3]
 1496              		.loc 1 1391 0
 1497 0004 7047     		bx	lr
 1498              	.L119:
 1499 0006 C046     		.align	2
 1500              	.L118:
 1501 0008 70012040 		.word	1075839344
 1502              		.cfi_endproc
 1503              	.LFE40:
 1504              		.size	Timer_100ms_ClearInterrupt, .-Timer_100ms_ClearInterrupt
 1505              		.section	.text.Timer_100ms_SetInterrupt,"ax",%progbits
 1506              		.align	1
 1507              		.global	Timer_100ms_SetInterrupt
 1508              		.code	16
 1509              		.thumb_func
 1510              		.type	Timer_100ms_SetInterrupt, %function
 1511              	Timer_100ms_SetInterrupt:
 1512              	.LFB41:
1392:Generated_Source\PSoC4/Timer_100ms.c **** 
1393:Generated_Source\PSoC4/Timer_100ms.c **** 
1394:Generated_Source\PSoC4/Timer_100ms.c **** /*******************************************************************************
1395:Generated_Source\PSoC4/Timer_100ms.c **** * Function Name: Timer_100ms_SetInterrupt
1396:Generated_Source\PSoC4/Timer_100ms.c **** ********************************************************************************
1397:Generated_Source\PSoC4/Timer_100ms.c **** *
1398:Generated_Source\PSoC4/Timer_100ms.c **** * Summary:
1399:Generated_Source\PSoC4/Timer_100ms.c **** *  Sets a software interrupt request.
1400:Generated_Source\PSoC4/Timer_100ms.c **** *
1401:Generated_Source\PSoC4/Timer_100ms.c **** * Parameters:
1402:Generated_Source\PSoC4/Timer_100ms.c **** *   interruptMask: Mask of interrupts to set
1403:Generated_Source\PSoC4/Timer_100ms.c **** *   Values:
1404:Generated_Source\PSoC4/Timer_100ms.c **** *     - Timer_100ms_INTR_MASK_TC       - Terminal count mask
1405:Generated_Source\PSoC4/Timer_100ms.c **** *     - Timer_100ms_INTR_MASK_CC_MATCH - Compare count / capture mask
1406:Generated_Source\PSoC4/Timer_100ms.c **** *
1407:Generated_Source\PSoC4/Timer_100ms.c **** * Return:
1408:Generated_Source\PSoC4/Timer_100ms.c **** *  None
1409:Generated_Source\PSoC4/Timer_100ms.c **** *
1410:Generated_Source\PSoC4/Timer_100ms.c **** *******************************************************************************/
1411:Generated_Source\PSoC4/Timer_100ms.c **** void Timer_100ms_SetInterrupt(uint32 interruptMask)
1412:Generated_Source\PSoC4/Timer_100ms.c **** {
 1513              		.loc 1 1412 0
 1514              		.cfi_startproc
 1515              	.LVL93:
1413:Generated_Source\PSoC4/Timer_100ms.c ****     Timer_100ms_INTERRUPT_SET_REG = interruptMask;
 1516              		.loc 1 1413 0
 1517 0000 014B     		ldr	r3, .L121
1414:Generated_Source\PSoC4/Timer_100ms.c **** }
 1518              		.loc 1 1414 0
 1519              		@ sp needed
1413:Generated_Source\PSoC4/Timer_100ms.c ****     Timer_100ms_INTERRUPT_SET_REG = interruptMask;
 1520              		.loc 1 1413 0
 1521 0002 1860     		str	r0, [r3]
 1522              		.loc 1 1414 0
 1523 0004 7047     		bx	lr
 1524              	.L122:
 1525 0006 C046     		.align	2
 1526              	.L121:
ARM GAS  C:\Users\zhiantec\AppData\Local\Temp\ccsSOYXN.s 			page 57


 1527 0008 74012040 		.word	1075839348
 1528              		.cfi_endproc
 1529              	.LFE41:
 1530              		.size	Timer_100ms_SetInterrupt, .-Timer_100ms_SetInterrupt
 1531              		.global	Timer_100ms_initVar
 1532              		.bss
 1533              		.set	.LANCHOR0,. + 0
 1534              		.type	Timer_100ms_initVar, %object
 1535              		.size	Timer_100ms_initVar, 1
 1536              	Timer_100ms_initVar:
 1537 0000 00       		.space	1
 1538              		.text
 1539              	.Letext0:
 1540              		.file 2 "Generated_Source\\PSoC4\\cytypes.h"
 1541              		.file 3 "Generated_Source\\PSoC4\\CyLib.h"
 1542              		.section	.debug_info,"",%progbits
 1543              	.Ldebug_info0:
 1544 0000 5D090000 		.4byte	0x95d
 1545 0004 0400     		.2byte	0x4
 1546 0006 00000000 		.4byte	.Ldebug_abbrev0
 1547 000a 04       		.byte	0x4
 1548 000b 01       		.uleb128 0x1
 1549 000c 06000000 		.4byte	.LASF76
 1550 0010 01       		.byte	0x1
 1551 0011 E0000000 		.4byte	.LASF77
 1552 0015 53010000 		.4byte	.LASF78
 1553 0019 20000000 		.4byte	.Ldebug_ranges0+0x20
 1554 001d 00000000 		.4byte	0
 1555 0021 00000000 		.4byte	.Ldebug_line0
 1556 0025 02       		.uleb128 0x2
 1557 0026 01       		.byte	0x1
 1558 0027 06       		.byte	0x6
 1559 0028 21020000 		.4byte	.LASF0
 1560 002c 02       		.uleb128 0x2
 1561 002d 01       		.byte	0x1
 1562 002e 08       		.byte	0x8
 1563 002f 16050000 		.4byte	.LASF1
 1564 0033 02       		.uleb128 0x2
 1565 0034 02       		.byte	0x2
 1566 0035 05       		.byte	0x5
 1567 0036 35050000 		.4byte	.LASF2
 1568 003a 02       		.uleb128 0x2
 1569 003b 02       		.byte	0x2
 1570 003c 07       		.byte	0x7
 1571 003d 91030000 		.4byte	.LASF3
 1572 0041 02       		.uleb128 0x2
 1573 0042 04       		.byte	0x4
 1574 0043 05       		.byte	0x5
 1575 0044 45020000 		.4byte	.LASF4
 1576 0048 02       		.uleb128 0x2
 1577 0049 04       		.byte	0x4
 1578 004a 07       		.byte	0x7
 1579 004b 2E030000 		.4byte	.LASF5
 1580 004f 02       		.uleb128 0x2
 1581 0050 08       		.byte	0x8
 1582 0051 05       		.byte	0x5
 1583 0052 13020000 		.4byte	.LASF6
ARM GAS  C:\Users\zhiantec\AppData\Local\Temp\ccsSOYXN.s 			page 58


 1584 0056 02       		.uleb128 0x2
 1585 0057 08       		.byte	0x8
 1586 0058 07       		.byte	0x7
 1587 0059 25010000 		.4byte	.LASF7
 1588 005d 03       		.uleb128 0x3
 1589 005e 04       		.byte	0x4
 1590 005f 05       		.byte	0x5
 1591 0060 696E7400 		.ascii	"int\000"
 1592 0064 02       		.uleb128 0x2
 1593 0065 04       		.byte	0x4
 1594 0066 07       		.byte	0x7
 1595 0067 EE020000 		.4byte	.LASF8
 1596 006b 04       		.uleb128 0x4
 1597 006c 80020000 		.4byte	.LASF9
 1598 0070 02       		.byte	0x2
 1599 0071 B901     		.2byte	0x1b9
 1600 0073 2C000000 		.4byte	0x2c
 1601 0077 04       		.uleb128 0x4
 1602 0078 A4020000 		.4byte	.LASF10
 1603 007c 02       		.byte	0x2
 1604 007d BB01     		.2byte	0x1bb
 1605 007f 48000000 		.4byte	0x48
 1606 0083 02       		.uleb128 0x2
 1607 0084 04       		.byte	0x4
 1608 0085 04       		.byte	0x4
 1609 0086 D7040000 		.4byte	.LASF11
 1610 008a 02       		.uleb128 0x2
 1611 008b 08       		.byte	0x8
 1612 008c 04       		.byte	0x4
 1613 008d 9D020000 		.4byte	.LASF12
 1614 0091 02       		.uleb128 0x2
 1615 0092 01       		.byte	0x1
 1616 0093 08       		.byte	0x8
 1617 0094 8D050000 		.4byte	.LASF13
 1618 0098 04       		.uleb128 0x4
 1619 0099 E4030000 		.4byte	.LASF14
 1620 009d 02       		.byte	0x2
 1621 009e 6502     		.2byte	0x265
 1622 00a0 A4000000 		.4byte	0xa4
 1623 00a4 05       		.uleb128 0x5
 1624 00a5 77000000 		.4byte	0x77
 1625 00a9 02       		.uleb128 0x2
 1626 00aa 04       		.byte	0x4
 1627 00ab 07       		.byte	0x7
 1628 00ac 02040000 		.4byte	.LASF15
 1629 00b0 06       		.uleb128 0x6
 1630 00b1 AA000000 		.4byte	.LASF16
 1631 00b5 01       		.byte	0x1
 1632 00b6 2705     		.2byte	0x527
 1633 00b8 01       		.byte	0x1
 1634 00b9 CA000000 		.4byte	0xca
 1635 00bd 07       		.uleb128 0x7
 1636 00be 64050000 		.4byte	.LASF18
 1637 00c2 01       		.byte	0x1
 1638 00c3 2705     		.2byte	0x527
 1639 00c5 77000000 		.4byte	0x77
 1640 00c9 00       		.byte	0
ARM GAS  C:\Users\zhiantec\AppData\Local\Temp\ccsSOYXN.s 			page 59


 1641 00ca 06       		.uleb128 0x6
 1642 00cb A4030000 		.4byte	.LASF17
 1643 00cf 01       		.byte	0x1
 1644 00d0 B502     		.2byte	0x2b5
 1645 00d2 01       		.byte	0x1
 1646 00d3 E4000000 		.4byte	0xe4
 1647 00d7 07       		.uleb128 0x7
 1648 00d8 05010000 		.4byte	.LASF19
 1649 00dc 01       		.byte	0x1
 1650 00dd B502     		.2byte	0x2b5
 1651 00df 77000000 		.4byte	0x77
 1652 00e3 00       		.byte	0
 1653 00e4 06       		.uleb128 0x6
 1654 00e5 0C010000 		.4byte	.LASF20
 1655 00e9 01       		.byte	0x1
 1656 00ea 5103     		.2byte	0x351
 1657 00ec 01       		.byte	0x1
 1658 00ed FE000000 		.4byte	0xfe
 1659 00f1 07       		.uleb128 0x7
 1660 00f2 7B040000 		.4byte	.LASF21
 1661 00f6 01       		.byte	0x1
 1662 00f7 5103     		.2byte	0x351
 1663 00f9 77000000 		.4byte	0x77
 1664 00fd 00       		.byte	0
 1665 00fe 06       		.uleb128 0x6
 1666 00ff 67020000 		.4byte	.LASF22
 1667 0103 01       		.byte	0x1
 1668 0104 6702     		.2byte	0x267
 1669 0106 01       		.byte	0x1
 1670 0107 18010000 		.4byte	0x118
 1671 010b 07       		.uleb128 0x7
 1672 010c 00000000 		.4byte	.LASF23
 1673 0110 01       		.byte	0x1
 1674 0111 6702     		.2byte	0x267
 1675 0113 77000000 		.4byte	0x77
 1676 0117 00       		.byte	0
 1677 0118 08       		.uleb128 0x8
 1678 0119 BC020000 		.4byte	.LASF24
 1679 011d 01       		.byte	0x1
 1680 011e 26       		.byte	0x26
 1681 011f 00000000 		.4byte	.LFB2
 1682 0123 40000000 		.4byte	.LFE2-.LFB2
 1683 0127 01       		.uleb128 0x1
 1684 0128 9C       		.byte	0x9c
 1685 0129 94010000 		.4byte	0x194
 1686 012d 09       		.uleb128 0x9
 1687 012e E4000000 		.4byte	0xe4
 1688 0132 0C000000 		.4byte	.LBB10
 1689 0136 00000000 		.4byte	.Ldebug_ranges0+0
 1690 013a 01       		.byte	0x1
 1691 013b 46       		.byte	0x46
 1692 013c 47010000 		.4byte	0x147
 1693 0140 0A       		.uleb128 0xa
 1694 0141 F1000000 		.4byte	0xf1
 1695 0145 00       		.byte	0
 1696 0146 00       		.byte	0
 1697 0147 0B       		.uleb128 0xb
ARM GAS  C:\Users\zhiantec\AppData\Local\Temp\ccsSOYXN.s 			page 60


 1698 0148 B0000000 		.4byte	0xb0
 1699 014c 10000000 		.4byte	.LBB14
 1700 0150 06000000 		.4byte	.LBE14-.LBB14
 1701 0154 01       		.byte	0x1
 1702 0155 40       		.byte	0x40
 1703 0156 61010000 		.4byte	0x161
 1704 015a 0A       		.uleb128 0xa
 1705 015b BD000000 		.4byte	0xbd
 1706 015f 02       		.byte	0x2
 1707 0160 00       		.byte	0
 1708 0161 0B       		.uleb128 0xb
 1709 0162 CA000000 		.4byte	0xca
 1710 0166 16000000 		.4byte	.LBB16
 1711 016a 08000000 		.4byte	.LBE16-.LBB16
 1712 016e 01       		.byte	0x1
 1713 016f 43       		.byte	0x43
 1714 0170 7C010000 		.4byte	0x17c
 1715 0174 0C       		.uleb128 0xc
 1716 0175 D7000000 		.4byte	0xd7
 1717 0179 E803     		.2byte	0x3e8
 1718 017b 00       		.byte	0
 1719 017c 0D       		.uleb128 0xd
 1720 017d FE000000 		.4byte	0xfe
 1721 0181 22000000 		.4byte	.LBB20
 1722 0185 04000000 		.4byte	.LBE20-.LBB20
 1723 0189 01       		.byte	0x1
 1724 018a 52       		.byte	0x52
 1725 018b 0C       		.uleb128 0xc
 1726 018c 0B010000 		.4byte	0x10b
 1727 0190 E803     		.2byte	0x3e8
 1728 0192 00       		.byte	0
 1729 0193 00       		.byte	0
 1730 0194 0E       		.uleb128 0xe
 1731 0195 75060000 		.4byte	.LASF25
 1732 0199 01       		.byte	0x1
 1733 019a 0001     		.2byte	0x100
 1734 019c 00000000 		.4byte	.LFB5
 1735 01a0 1C000000 		.4byte	.LFE5-.LFB5
 1736 01a4 01       		.uleb128 0x1
 1737 01a5 9C       		.byte	0x9c
 1738 01a6 CD010000 		.4byte	0x1cd
 1739 01aa 0F       		.uleb128 0xf
 1740 01ab 4B060000 		.4byte	.LASF27
 1741 01af 01       		.byte	0x1
 1742 01b0 0201     		.2byte	0x102
 1743 01b2 6B000000 		.4byte	0x6b
 1744 01b6 00000000 		.4byte	.LLST0
 1745 01ba 10       		.uleb128 0x10
 1746 01bb 06000000 		.4byte	.LVL4
 1747 01bf 48090000 		.4byte	0x948
 1748 01c3 10       		.uleb128 0x10
 1749 01c4 14000000 		.4byte	.LVL5
 1750 01c8 53090000 		.4byte	0x953
 1751 01cc 00       		.byte	0
 1752 01cd 0E       		.uleb128 0xe
 1753 01ce E7040000 		.4byte	.LASF26
 1754 01d2 01       		.byte	0x1
ARM GAS  C:\Users\zhiantec\AppData\Local\Temp\ccsSOYXN.s 			page 61


 1755 01d3 2501     		.2byte	0x125
 1756 01d5 00000000 		.4byte	.LFB6
 1757 01d9 28000000 		.4byte	.LFE6-.LFB6
 1758 01dd 01       		.uleb128 0x1
 1759 01de 9C       		.byte	0x9c
 1760 01df 16020000 		.4byte	0x216
 1761 01e3 11       		.uleb128 0x11
 1762 01e4 92050000 		.4byte	.LASF29
 1763 01e8 01       		.byte	0x1
 1764 01e9 2501     		.2byte	0x125
 1765 01eb 77000000 		.4byte	0x77
 1766 01ef 13000000 		.4byte	.LLST1
 1767 01f3 0F       		.uleb128 0xf
 1768 01f4 4B060000 		.4byte	.LASF27
 1769 01f8 01       		.byte	0x1
 1770 01f9 2701     		.2byte	0x127
 1771 01fb 6B000000 		.4byte	0x6b
 1772 01ff 3F000000 		.4byte	.LLST2
 1773 0203 10       		.uleb128 0x10
 1774 0204 08000000 		.4byte	.LVL7
 1775 0208 48090000 		.4byte	0x948
 1776 020c 10       		.uleb128 0x10
 1777 020d 1C000000 		.4byte	.LVL8
 1778 0211 53090000 		.4byte	0x953
 1779 0215 00       		.byte	0
 1780 0216 0E       		.uleb128 0xe
 1781 0217 60030000 		.4byte	.LASF28
 1782 021b 01       		.byte	0x1
 1783 021c 4601     		.2byte	0x146
 1784 021e 00000000 		.4byte	.LFB7
 1785 0222 28000000 		.4byte	.LFE7-.LFB7
 1786 0226 01       		.uleb128 0x1
 1787 0227 9C       		.byte	0x9c
 1788 0228 5F020000 		.4byte	0x25f
 1789 022c 11       		.uleb128 0x11
 1790 022d DE010000 		.4byte	.LASF30
 1791 0231 01       		.byte	0x1
 1792 0232 4601     		.2byte	0x146
 1793 0234 77000000 		.4byte	0x77
 1794 0238 52000000 		.4byte	.LLST3
 1795 023c 0F       		.uleb128 0xf
 1796 023d 4B060000 		.4byte	.LASF27
 1797 0241 01       		.byte	0x1
 1798 0242 4801     		.2byte	0x148
 1799 0244 6B000000 		.4byte	0x6b
 1800 0248 7E000000 		.4byte	.LLST4
 1801 024c 10       		.uleb128 0x10
 1802 024d 08000000 		.4byte	.LVL11
 1803 0251 48090000 		.4byte	0x948
 1804 0255 10       		.uleb128 0x10
 1805 0256 1C000000 		.4byte	.LVL12
 1806 025a 53090000 		.4byte	0x953
 1807 025e 00       		.byte	0
 1808 025f 0E       		.uleb128 0xe
 1809 0260 4E020000 		.4byte	.LASF31
 1810 0264 01       		.byte	0x1
 1811 0265 6B01     		.2byte	0x16b
ARM GAS  C:\Users\zhiantec\AppData\Local\Temp\ccsSOYXN.s 			page 62


 1812 0267 00000000 		.4byte	.LFB8
 1813 026b 28000000 		.4byte	.LFE8-.LFB8
 1814 026f 01       		.uleb128 0x1
 1815 0270 9C       		.byte	0x9c
 1816 0271 A8020000 		.4byte	0x2a8
 1817 0275 11       		.uleb128 0x11
 1818 0276 DD040000 		.4byte	.LASF32
 1819 027a 01       		.byte	0x1
 1820 027b 6B01     		.2byte	0x16b
 1821 027d 77000000 		.4byte	0x77
 1822 0281 91000000 		.4byte	.LLST5
 1823 0285 0F       		.uleb128 0xf
 1824 0286 4B060000 		.4byte	.LASF27
 1825 028a 01       		.byte	0x1
 1826 028b 6D01     		.2byte	0x16d
 1827 028d 6B000000 		.4byte	0x6b
 1828 0291 BD000000 		.4byte	.LLST6
 1829 0295 10       		.uleb128 0x10
 1830 0296 08000000 		.4byte	.LVL15
 1831 029a 48090000 		.4byte	0x948
 1832 029e 10       		.uleb128 0x10
 1833 029f 1C000000 		.4byte	.LVL16
 1834 02a3 53090000 		.4byte	0x953
 1835 02a7 00       		.byte	0
 1836 02a8 0E       		.uleb128 0xe
 1837 02a9 3C010000 		.4byte	.LASF33
 1838 02ad 01       		.byte	0x1
 1839 02ae 8B01     		.2byte	0x18b
 1840 02b0 00000000 		.4byte	.LFB9
 1841 02b4 2C000000 		.4byte	.LFE9-.LFB9
 1842 02b8 01       		.uleb128 0x1
 1843 02b9 9C       		.byte	0x9c
 1844 02ba F1020000 		.4byte	0x2f1
 1845 02be 11       		.uleb128 0x11
 1846 02bf D6030000 		.4byte	.LASF34
 1847 02c3 01       		.byte	0x1
 1848 02c4 8B01     		.2byte	0x18b
 1849 02c6 77000000 		.4byte	0x77
 1850 02ca D0000000 		.4byte	.LLST7
 1851 02ce 0F       		.uleb128 0xf
 1852 02cf 4B060000 		.4byte	.LASF27
 1853 02d3 01       		.byte	0x1
 1854 02d4 8D01     		.2byte	0x18d
 1855 02d6 6B000000 		.4byte	0x6b
 1856 02da FC000000 		.4byte	.LLST8
 1857 02de 10       		.uleb128 0x10
 1858 02df 08000000 		.4byte	.LVL19
 1859 02e3 48090000 		.4byte	0x948
 1860 02e7 10       		.uleb128 0x10
 1861 02e8 22000000 		.4byte	.LVL20
 1862 02ec 53090000 		.4byte	0x953
 1863 02f0 00       		.byte	0
 1864 02f1 0E       		.uleb128 0xe
 1865 02f2 86020000 		.4byte	.LASF35
 1866 02f6 01       		.byte	0x1
 1867 02f7 C101     		.2byte	0x1c1
 1868 02f9 00000000 		.4byte	.LFB10
ARM GAS  C:\Users\zhiantec\AppData\Local\Temp\ccsSOYXN.s 			page 63


 1869 02fd 10000000 		.4byte	.LFE10-.LFB10
 1870 0301 01       		.uleb128 0x1
 1871 0302 9C       		.byte	0x9c
 1872 0303 18030000 		.4byte	0x318
 1873 0307 11       		.uleb128 0x11
 1874 0308 40030000 		.4byte	.LASF36
 1875 030c 01       		.byte	0x1
 1876 030d C101     		.2byte	0x1c1
 1877 030f 77000000 		.4byte	0x77
 1878 0313 0F010000 		.4byte	.LLST9
 1879 0317 00       		.byte	0
 1880 0318 0E       		.uleb128 0xe
 1881 0319 83040000 		.4byte	.LASF37
 1882 031d 01       		.byte	0x1
 1883 031e E501     		.2byte	0x1e5
 1884 0320 00000000 		.4byte	.LFB11
 1885 0324 28000000 		.4byte	.LFE11-.LFB11
 1886 0328 01       		.uleb128 0x1
 1887 0329 9C       		.byte	0x9c
 1888 032a 61030000 		.4byte	0x361
 1889 032e 11       		.uleb128 0x11
 1890 032f 51040000 		.4byte	.LASF38
 1891 0333 01       		.byte	0x1
 1892 0334 E501     		.2byte	0x1e5
 1893 0336 77000000 		.4byte	0x77
 1894 033a 30010000 		.4byte	.LLST10
 1895 033e 0F       		.uleb128 0xf
 1896 033f 4B060000 		.4byte	.LASF27
 1897 0343 01       		.byte	0x1
 1898 0344 E701     		.2byte	0x1e7
 1899 0346 6B000000 		.4byte	0x6b
 1900 034a 5C010000 		.4byte	.LLST11
 1901 034e 10       		.uleb128 0x10
 1902 034f 08000000 		.4byte	.LVL25
 1903 0353 48090000 		.4byte	0x948
 1904 0357 10       		.uleb128 0x10
 1905 0358 22000000 		.4byte	.LVL26
 1906 035c 53090000 		.4byte	0x953
 1907 0360 00       		.byte	0
 1908 0361 0E       		.uleb128 0xe
 1909 0362 0C060000 		.4byte	.LASF39
 1910 0366 01       		.byte	0x1
 1911 0367 0702     		.2byte	0x207
 1912 0369 00000000 		.4byte	.LFB12
 1913 036d 28000000 		.4byte	.LFE12-.LFB12
 1914 0371 01       		.uleb128 0x1
 1915 0372 9C       		.byte	0x9c
 1916 0373 AA030000 		.4byte	0x3aa
 1917 0377 11       		.uleb128 0x11
 1918 0378 24050000 		.4byte	.LASF40
 1919 037c 01       		.byte	0x1
 1920 037d 0702     		.2byte	0x207
 1921 037f 77000000 		.4byte	0x77
 1922 0383 6F010000 		.4byte	.LLST12
 1923 0387 0F       		.uleb128 0xf
 1924 0388 4B060000 		.4byte	.LASF27
 1925 038c 01       		.byte	0x1
ARM GAS  C:\Users\zhiantec\AppData\Local\Temp\ccsSOYXN.s 			page 64


 1926 038d 0902     		.2byte	0x209
 1927 038f 6B000000 		.4byte	0x6b
 1928 0393 9B010000 		.4byte	.LLST13
 1929 0397 10       		.uleb128 0x10
 1930 0398 08000000 		.4byte	.LVL29
 1931 039c 48090000 		.4byte	0x948
 1932 03a0 10       		.uleb128 0x10
 1933 03a1 22000000 		.4byte	.LVL30
 1934 03a5 53090000 		.4byte	0x953
 1935 03a9 00       		.byte	0
 1936 03aa 0E       		.uleb128 0xe
 1937 03ab 86060000 		.4byte	.LASF41
 1938 03af 01       		.byte	0x1
 1939 03b0 2802     		.2byte	0x228
 1940 03b2 00000000 		.4byte	.LFB13
 1941 03b6 2C000000 		.4byte	.LFE13-.LFB13
 1942 03ba 01       		.uleb128 0x1
 1943 03bb 9C       		.byte	0x9c
 1944 03bc F3030000 		.4byte	0x3f3
 1945 03c0 11       		.uleb128 0x11
 1946 03c1 CD020000 		.4byte	.LASF42
 1947 03c5 01       		.byte	0x1
 1948 03c6 2802     		.2byte	0x228
 1949 03c8 77000000 		.4byte	0x77
 1950 03cc AE010000 		.4byte	.LLST14
 1951 03d0 0F       		.uleb128 0xf
 1952 03d1 4B060000 		.4byte	.LASF27
 1953 03d5 01       		.byte	0x1
 1954 03d6 2A02     		.2byte	0x22a
 1955 03d8 6B000000 		.4byte	0x6b
 1956 03dc DA010000 		.4byte	.LLST15
 1957 03e0 10       		.uleb128 0x10
 1958 03e1 08000000 		.4byte	.LVL33
 1959 03e5 48090000 		.4byte	0x948
 1960 03e9 10       		.uleb128 0x10
 1961 03ea 20000000 		.4byte	.LVL35
 1962 03ee 53090000 		.4byte	0x953
 1963 03f2 00       		.byte	0
 1964 03f3 0E       		.uleb128 0xe
 1965 03f4 15030000 		.4byte	.LASF43
 1966 03f8 01       		.byte	0x1
 1967 03f9 4902     		.2byte	0x249
 1968 03fb 00000000 		.4byte	.LFB14
 1969 03ff 28000000 		.4byte	.LFE14-.LFB14
 1970 0403 01       		.uleb128 0x1
 1971 0404 9C       		.byte	0x9c
 1972 0405 3C040000 		.4byte	0x43c
 1973 0409 11       		.uleb128 0x11
 1974 040a B7020000 		.4byte	.LASF44
 1975 040e 01       		.byte	0x1
 1976 040f 4902     		.2byte	0x249
 1977 0411 77000000 		.4byte	0x77
 1978 0415 ED010000 		.4byte	.LLST16
 1979 0419 0F       		.uleb128 0xf
 1980 041a 4B060000 		.4byte	.LASF27
 1981 041e 01       		.byte	0x1
 1982 041f 4B02     		.2byte	0x24b
ARM GAS  C:\Users\zhiantec\AppData\Local\Temp\ccsSOYXN.s 			page 65


 1983 0421 6B000000 		.4byte	0x6b
 1984 0425 19020000 		.4byte	.LLST17
 1985 0429 10       		.uleb128 0x10
 1986 042a 08000000 		.4byte	.LVL37
 1987 042e 48090000 		.4byte	0x948
 1988 0432 10       		.uleb128 0x10
 1989 0433 1C000000 		.4byte	.LVL38
 1990 0437 53090000 		.4byte	0x953
 1991 043b 00       		.byte	0
 1992 043c 12       		.uleb128 0x12
 1993 043d FE000000 		.4byte	0xfe
 1994 0441 00000000 		.4byte	.LFB15
 1995 0445 0C000000 		.4byte	.LFE15-.LFB15
 1996 0449 01       		.uleb128 0x1
 1997 044a 9C       		.byte	0x9c
 1998 044b 59040000 		.4byte	0x459
 1999 044f 13       		.uleb128 0x13
 2000 0450 0B010000 		.4byte	0x10b
 2001 0454 2C020000 		.4byte	.LLST18
 2002 0458 00       		.byte	0
 2003 0459 14       		.uleb128 0x14
 2004 045a D6020000 		.4byte	.LASF47
 2005 045e 01       		.byte	0x1
 2006 045f 7B02     		.2byte	0x27b
 2007 0461 77000000 		.4byte	0x77
 2008 0465 00000000 		.4byte	.LFB16
 2009 0469 0C000000 		.4byte	.LFE16-.LFB16
 2010 046d 01       		.uleb128 0x1
 2011 046e 9C       		.byte	0x9c
 2012 046f 0E       		.uleb128 0xe
 2013 0470 60040000 		.4byte	.LASF45
 2014 0474 01       		.byte	0x1
 2015 0475 9802     		.2byte	0x298
 2016 0477 00000000 		.4byte	.LFB17
 2017 047b 28000000 		.4byte	.LFE17-.LFB17
 2018 047f 01       		.uleb128 0x1
 2019 0480 9C       		.byte	0x9c
 2020 0481 B8040000 		.4byte	0x4b8
 2021 0485 11       		.uleb128 0x11
 2022 0486 00060000 		.4byte	.LASF46
 2023 048a 01       		.byte	0x1
 2024 048b 9802     		.2byte	0x298
 2025 048d 77000000 		.4byte	0x77
 2026 0491 4D020000 		.4byte	.LLST19
 2027 0495 0F       		.uleb128 0xf
 2028 0496 4B060000 		.4byte	.LASF27
 2029 049a 01       		.byte	0x1
 2030 049b 9A02     		.2byte	0x29a
 2031 049d 6B000000 		.4byte	0x6b
 2032 04a1 79020000 		.4byte	.LLST20
 2033 04a5 10       		.uleb128 0x10
 2034 04a6 08000000 		.4byte	.LVL43
 2035 04aa 48090000 		.4byte	0x948
 2036 04ae 10       		.uleb128 0x10
 2037 04af 1C000000 		.4byte	.LVL44
 2038 04b3 53090000 		.4byte	0x953
 2039 04b7 00       		.byte	0
ARM GAS  C:\Users\zhiantec\AppData\Local\Temp\ccsSOYXN.s 			page 66


 2040 04b8 12       		.uleb128 0x12
 2041 04b9 CA000000 		.4byte	0xca
 2042 04bd 00000000 		.4byte	.LFB18
 2043 04c1 0C000000 		.4byte	.LFE18-.LFB18
 2044 04c5 01       		.uleb128 0x1
 2045 04c6 9C       		.byte	0x9c
 2046 04c7 D5040000 		.4byte	0x4d5
 2047 04cb 13       		.uleb128 0x13
 2048 04cc D7000000 		.4byte	0xd7
 2049 04d0 8C020000 		.4byte	.LLST21
 2050 04d4 00       		.byte	0
 2051 04d5 14       		.uleb128 0x14
 2052 04d6 26040000 		.4byte	.LASF48
 2053 04da 01       		.byte	0x1
 2054 04db C902     		.2byte	0x2c9
 2055 04dd 77000000 		.4byte	0x77
 2056 04e1 00000000 		.4byte	.LFB19
 2057 04e5 0C000000 		.4byte	.LFE19-.LFB19
 2058 04e9 01       		.uleb128 0x1
 2059 04ea 9C       		.byte	0x9c
 2060 04eb 0E       		.uleb128 0xe
 2061 04ec C5050000 		.4byte	.LASF49
 2062 04f0 01       		.byte	0x1
 2063 04f1 E302     		.2byte	0x2e3
 2064 04f3 00000000 		.4byte	.LFB20
 2065 04f7 24000000 		.4byte	.LFE20-.LFB20
 2066 04fb 01       		.uleb128 0x1
 2067 04fc 9C       		.byte	0x9c
 2068 04fd 34050000 		.4byte	0x534
 2069 0501 11       		.uleb128 0x11
 2070 0502 A1060000 		.4byte	.LASF50
 2071 0506 01       		.byte	0x1
 2072 0507 E302     		.2byte	0x2e3
 2073 0509 77000000 		.4byte	0x77
 2074 050d AD020000 		.4byte	.LLST22
 2075 0511 0F       		.uleb128 0xf
 2076 0512 4B060000 		.4byte	.LASF27
 2077 0516 01       		.byte	0x1
 2078 0517 E502     		.2byte	0x2e5
 2079 0519 6B000000 		.4byte	0x6b
 2080 051d D9020000 		.4byte	.LLST23
 2081 0521 10       		.uleb128 0x10
 2082 0522 08000000 		.4byte	.LVL49
 2083 0526 48090000 		.4byte	0x948
 2084 052a 10       		.uleb128 0x10
 2085 052b 1E000000 		.4byte	.LVL50
 2086 052f 53090000 		.4byte	0x953
 2087 0533 00       		.byte	0
 2088 0534 0E       		.uleb128 0xe
 2089 0535 0B040000 		.4byte	.LASF51
 2090 0539 01       		.byte	0x1
 2091 053a FE02     		.2byte	0x2fe
 2092 053c 00000000 		.4byte	.LFB21
 2093 0540 0C000000 		.4byte	.LFE21-.LFB21
 2094 0544 01       		.uleb128 0x1
 2095 0545 9C       		.byte	0x9c
 2096 0546 5B050000 		.4byte	0x55b
ARM GAS  C:\Users\zhiantec\AppData\Local\Temp\ccsSOYXN.s 			page 67


 2097 054a 11       		.uleb128 0x11
 2098 054b C7060000 		.4byte	.LASF52
 2099 054f 01       		.byte	0x1
 2100 0550 FE02     		.2byte	0x2fe
 2101 0552 77000000 		.4byte	0x77
 2102 0556 EC020000 		.4byte	.LLST24
 2103 055a 00       		.byte	0
 2104 055b 14       		.uleb128 0x14
 2105 055c FB020000 		.4byte	.LASF53
 2106 0560 01       		.byte	0x1
 2107 0561 1203     		.2byte	0x312
 2108 0563 77000000 		.4byte	0x77
 2109 0567 00000000 		.4byte	.LFB22
 2110 056b 0C000000 		.4byte	.LFE22-.LFB22
 2111 056f 01       		.uleb128 0x1
 2112 0570 9C       		.byte	0x9c
 2113 0571 0E       		.uleb128 0xe
 2114 0572 BC030000 		.4byte	.LASF54
 2115 0576 01       		.byte	0x1
 2116 0577 2C03     		.2byte	0x32c
 2117 0579 00000000 		.4byte	.LFB23
 2118 057d 28000000 		.4byte	.LFE23-.LFB23
 2119 0581 01       		.uleb128 0x1
 2120 0582 9C       		.byte	0x9c
 2121 0583 BA050000 		.4byte	0x5ba
 2122 0587 11       		.uleb128 0x11
 2123 0588 A1060000 		.4byte	.LASF50
 2124 058c 01       		.byte	0x1
 2125 058d 2C03     		.2byte	0x32c
 2126 058f 77000000 		.4byte	0x77
 2127 0593 0D030000 		.4byte	.LLST25
 2128 0597 0F       		.uleb128 0xf
 2129 0598 4B060000 		.4byte	.LASF27
 2130 059c 01       		.byte	0x1
 2131 059d 2E03     		.2byte	0x32e
 2132 059f 6B000000 		.4byte	0x6b
 2133 05a3 39030000 		.4byte	.LLST26
 2134 05a7 10       		.uleb128 0x10
 2135 05a8 08000000 		.4byte	.LVL55
 2136 05ac 48090000 		.4byte	0x948
 2137 05b0 10       		.uleb128 0x10
 2138 05b1 22000000 		.4byte	.LVL56
 2139 05b5 53090000 		.4byte	0x953
 2140 05b9 00       		.byte	0
 2141 05ba 12       		.uleb128 0x12
 2142 05bb E4000000 		.4byte	0xe4
 2143 05bf 00000000 		.4byte	.LFB24
 2144 05c3 0C000000 		.4byte	.LFE24-.LFB24
 2145 05c7 01       		.uleb128 0x1
 2146 05c8 9C       		.byte	0x9c
 2147 05c9 D7050000 		.4byte	0x5d7
 2148 05cd 13       		.uleb128 0x13
 2149 05ce F1000000 		.4byte	0xf1
 2150 05d2 4C030000 		.4byte	.LLST27
 2151 05d6 00       		.byte	0
 2152 05d7 14       		.uleb128 0x14
 2153 05d8 2D020000 		.4byte	.LASF55
ARM GAS  C:\Users\zhiantec\AppData\Local\Temp\ccsSOYXN.s 			page 68


 2154 05dc 01       		.byte	0x1
 2155 05dd 8403     		.2byte	0x384
 2156 05df 77000000 		.4byte	0x77
 2157 05e3 00000000 		.4byte	.LFB25
 2158 05e7 0C000000 		.4byte	.LFE25-.LFB25
 2159 05eb 01       		.uleb128 0x1
 2160 05ec 9C       		.byte	0x9c
 2161 05ed 0E       		.uleb128 0xe
 2162 05ee E5010000 		.4byte	.LASF56
 2163 05f2 01       		.byte	0x1
 2164 05f3 BA03     		.2byte	0x3ba
 2165 05f5 00000000 		.4byte	.LFB26
 2166 05f9 0C000000 		.4byte	.LFE26-.LFB26
 2167 05fd 01       		.uleb128 0x1
 2168 05fe 9C       		.byte	0x9c
 2169 05ff 14060000 		.4byte	0x614
 2170 0603 11       		.uleb128 0x11
 2171 0604 29060000 		.4byte	.LASF57
 2172 0608 01       		.byte	0x1
 2173 0609 BA03     		.2byte	0x3ba
 2174 060b 77000000 		.4byte	0x77
 2175 060f 6D030000 		.4byte	.LLST28
 2176 0613 00       		.byte	0
 2177 0614 14       		.uleb128 0x14
 2178 0615 97050000 		.4byte	.LASF58
 2179 0619 01       		.byte	0x1
 2180 061a E803     		.2byte	0x3e8
 2181 061c 77000000 		.4byte	0x77
 2182 0620 00000000 		.4byte	.LFB27
 2183 0624 0C000000 		.4byte	.LFE27-.LFB27
 2184 0628 01       		.uleb128 0x1
 2185 0629 9C       		.byte	0x9c
 2186 062a 14       		.uleb128 0x14
 2187 062b E8050000 		.4byte	.LASF59
 2188 062f 01       		.byte	0x1
 2189 0630 1604     		.2byte	0x416
 2190 0632 77000000 		.4byte	0x77
 2191 0636 00000000 		.4byte	.LFB28
 2192 063a 0C000000 		.4byte	.LFE28-.LFB28
 2193 063e 01       		.uleb128 0x1
 2194 063f 9C       		.byte	0x9c
 2195 0640 14       		.uleb128 0x14
 2196 0641 76030000 		.4byte	.LASF60
 2197 0645 01       		.byte	0x1
 2198 0646 2B04     		.2byte	0x42b
 2199 0648 77000000 		.4byte	0x77
 2200 064c 00000000 		.4byte	.LFB29
 2201 0650 0C000000 		.4byte	.LFE29-.LFB29
 2202 0654 01       		.uleb128 0x1
 2203 0655 9C       		.byte	0x9c
 2204 0656 0E       		.uleb128 0xe
 2205 0657 FB040000 		.4byte	.LASF61
 2206 065b 01       		.byte	0x1
 2207 065c 4604     		.2byte	0x446
 2208 065e 00000000 		.4byte	.LFB30
 2209 0662 24000000 		.4byte	.LFE30-.LFB30
 2210 0666 01       		.uleb128 0x1
ARM GAS  C:\Users\zhiantec\AppData\Local\Temp\ccsSOYXN.s 			page 69


 2211 0667 9C       		.byte	0x9c
 2212 0668 9F060000 		.4byte	0x69f
 2213 066c 11       		.uleb128 0x11
 2214 066d AB020000 		.4byte	.LASF62
 2215 0671 01       		.byte	0x1
 2216 0672 4604     		.2byte	0x446
 2217 0674 77000000 		.4byte	0x77
 2218 0678 8E030000 		.4byte	.LLST29
 2219 067c 0F       		.uleb128 0xf
 2220 067d 4B060000 		.4byte	.LASF27
 2221 0681 01       		.byte	0x1
 2222 0682 4804     		.2byte	0x448
 2223 0684 6B000000 		.4byte	0x6b
 2224 0688 BA030000 		.4byte	.LLST30
 2225 068c 10       		.uleb128 0x10
 2226 068d 08000000 		.4byte	.LVL63
 2227 0691 48090000 		.4byte	0x948
 2228 0695 10       		.uleb128 0x10
 2229 0696 1C000000 		.4byte	.LVL64
 2230 069a 53090000 		.4byte	0x953
 2231 069e 00       		.byte	0
 2232 069f 0E       		.uleb128 0xe
 2233 06a0 9E040000 		.4byte	.LASF63
 2234 06a4 01       		.byte	0x1
 2235 06a5 6704     		.2byte	0x467
 2236 06a7 00000000 		.4byte	.LFB31
 2237 06ab 24000000 		.4byte	.LFE31-.LFB31
 2238 06af 01       		.uleb128 0x1
 2239 06b0 9C       		.byte	0x9c
 2240 06b1 E8060000 		.4byte	0x6e8
 2241 06b5 11       		.uleb128 0x11
 2242 06b6 AB020000 		.4byte	.LASF62
 2243 06ba 01       		.byte	0x1
 2244 06bb 6704     		.2byte	0x467
 2245 06bd 77000000 		.4byte	0x77
 2246 06c1 CD030000 		.4byte	.LLST31
 2247 06c5 0F       		.uleb128 0xf
 2248 06c6 4B060000 		.4byte	.LASF27
 2249 06ca 01       		.byte	0x1
 2250 06cb 6904     		.2byte	0x469
 2251 06cd 6B000000 		.4byte	0x6b
 2252 06d1 F9030000 		.4byte	.LLST32
 2253 06d5 10       		.uleb128 0x10
 2254 06d6 08000000 		.4byte	.LVL67
 2255 06da 48090000 		.4byte	0x948
 2256 06de 10       		.uleb128 0x10
 2257 06df 1E000000 		.4byte	.LVL68
 2258 06e3 53090000 		.4byte	0x953
 2259 06e7 00       		.byte	0
 2260 06e8 0E       		.uleb128 0xe
 2261 06e9 C7000000 		.4byte	.LASF64
 2262 06ed 01       		.byte	0x1
 2263 06ee 8804     		.2byte	0x488
 2264 06f0 00000000 		.4byte	.LFB32
 2265 06f4 28000000 		.4byte	.LFE32-.LFB32
 2266 06f8 01       		.uleb128 0x1
 2267 06f9 9C       		.byte	0x9c
ARM GAS  C:\Users\zhiantec\AppData\Local\Temp\ccsSOYXN.s 			page 70


 2268 06fa 31070000 		.4byte	0x731
 2269 06fe 11       		.uleb128 0x11
 2270 06ff AB020000 		.4byte	.LASF62
 2271 0703 01       		.byte	0x1
 2272 0704 8804     		.2byte	0x488
 2273 0706 77000000 		.4byte	0x77
 2274 070a 0C040000 		.4byte	.LLST33
 2275 070e 0F       		.uleb128 0xf
 2276 070f 4B060000 		.4byte	.LASF27
 2277 0713 01       		.byte	0x1
 2278 0714 8A04     		.2byte	0x48a
 2279 0716 6B000000 		.4byte	0x6b
 2280 071a 38040000 		.4byte	.LLST34
 2281 071e 10       		.uleb128 0x10
 2282 071f 08000000 		.4byte	.LVL71
 2283 0723 48090000 		.4byte	0x948
 2284 0727 10       		.uleb128 0x10
 2285 0728 1E000000 		.4byte	.LVL72
 2286 072c 53090000 		.4byte	0x953
 2287 0730 00       		.byte	0
 2288 0731 0E       		.uleb128 0xe
 2289 0732 EA030000 		.4byte	.LASF65
 2290 0736 01       		.byte	0x1
 2291 0737 A804     		.2byte	0x4a8
 2292 0739 00000000 		.4byte	.LFB33
 2293 073d 24000000 		.4byte	.LFE33-.LFB33
 2294 0741 01       		.uleb128 0x1
 2295 0742 9C       		.byte	0x9c
 2296 0743 7A070000 		.4byte	0x77a
 2297 0747 11       		.uleb128 0x11
 2298 0748 AB020000 		.4byte	.LASF62
 2299 074c 01       		.byte	0x1
 2300 074d A804     		.2byte	0x4a8
 2301 074f 77000000 		.4byte	0x77
 2302 0753 4B040000 		.4byte	.LLST35
 2303 0757 0F       		.uleb128 0xf
 2304 0758 4B060000 		.4byte	.LASF27
 2305 075c 01       		.byte	0x1
 2306 075d AA04     		.2byte	0x4aa
 2307 075f 6B000000 		.4byte	0x6b
 2308 0763 77040000 		.4byte	.LLST36
 2309 0767 10       		.uleb128 0x10
 2310 0768 08000000 		.4byte	.LVL75
 2311 076c 48090000 		.4byte	0x948
 2312 0770 10       		.uleb128 0x10
 2313 0771 1E000000 		.4byte	.LVL76
 2314 0775 53090000 		.4byte	0x953
 2315 0779 00       		.byte	0
 2316 077a 0E       		.uleb128 0xe
 2317 077b D1060000 		.4byte	.LASF66
 2318 077f 01       		.byte	0x1
 2319 0780 C904     		.2byte	0x4c9
 2320 0782 00000000 		.4byte	.LFB34
 2321 0786 24000000 		.4byte	.LFE34-.LFB34
 2322 078a 01       		.uleb128 0x1
 2323 078b 9C       		.byte	0x9c
 2324 078c C3070000 		.4byte	0x7c3
ARM GAS  C:\Users\zhiantec\AppData\Local\Temp\ccsSOYXN.s 			page 71


 2325 0790 11       		.uleb128 0x11
 2326 0791 AB020000 		.4byte	.LASF62
 2327 0795 01       		.byte	0x1
 2328 0796 C904     		.2byte	0x4c9
 2329 0798 77000000 		.4byte	0x77
 2330 079c 8A040000 		.4byte	.LLST37
 2331 07a0 0F       		.uleb128 0xf
 2332 07a1 4B060000 		.4byte	.LASF27
 2333 07a5 01       		.byte	0x1
 2334 07a6 CB04     		.2byte	0x4cb
 2335 07a8 6B000000 		.4byte	0x6b
 2336 07ac B6040000 		.4byte	.LLST38
 2337 07b0 10       		.uleb128 0x10
 2338 07b1 08000000 		.4byte	.LVL79
 2339 07b5 48090000 		.4byte	0x948
 2340 07b9 10       		.uleb128 0x10
 2341 07ba 1E000000 		.4byte	.LVL80
 2342 07be 53090000 		.4byte	0x953
 2343 07c2 00       		.byte	0
 2344 07c3 0E       		.uleb128 0xe
 2345 07c4 AC060000 		.4byte	.LASF67
 2346 07c8 01       		.byte	0x1
 2347 07c9 F104     		.2byte	0x4f1
 2348 07cb 00000000 		.4byte	.LFB35
 2349 07cf 1C000000 		.4byte	.LFE35-.LFB35
 2350 07d3 01       		.uleb128 0x1
 2351 07d4 9C       		.byte	0x9c
 2352 07d5 1C080000 		.4byte	0x81c
 2353 07d9 11       		.uleb128 0x11
 2354 07da B7020000 		.4byte	.LASF44
 2355 07de 01       		.byte	0x1
 2356 07df F104     		.2byte	0x4f1
 2357 07e1 77000000 		.4byte	0x77
 2358 07e5 C9040000 		.4byte	.LLST39
 2359 07e9 11       		.uleb128 0x11
 2360 07ea E0050000 		.4byte	.LASF68
 2361 07ee 01       		.byte	0x1
 2362 07ef F104     		.2byte	0x4f1
 2363 07f1 77000000 		.4byte	0x77
 2364 07f5 EA040000 		.4byte	.LLST40
 2365 07f9 0F       		.uleb128 0xf
 2366 07fa 4B060000 		.4byte	.LASF27
 2367 07fe 01       		.byte	0x1
 2368 07ff F304     		.2byte	0x4f3
 2369 0801 6B000000 		.4byte	0x6b
 2370 0805 16050000 		.4byte	.LLST41
 2371 0809 10       		.uleb128 0x10
 2372 080a 0C000000 		.4byte	.LVL83
 2373 080e 48090000 		.4byte	0x948
 2374 0812 10       		.uleb128 0x10
 2375 0813 14000000 		.4byte	.LVL84
 2376 0817 53090000 		.4byte	0x953
 2377 081b 00       		.byte	0
 2378 081c 08       		.uleb128 0x8
 2379 081d B2050000 		.4byte	.LASF69
 2380 0821 01       		.byte	0x1
 2381 0822 B1       		.byte	0xb1
ARM GAS  C:\Users\zhiantec\AppData\Local\Temp\ccsSOYXN.s 			page 72


 2382 0823 00000000 		.4byte	.LFB3
 2383 0827 24000000 		.4byte	.LFE3-.LFB3
 2384 082b 01       		.uleb128 0x1
 2385 082c 9C       		.byte	0x9c
 2386 082d 68080000 		.4byte	0x868
 2387 0831 15       		.uleb128 0x15
 2388 0832 4B060000 		.4byte	.LASF27
 2389 0836 01       		.byte	0x1
 2390 0837 B3       		.byte	0xb3
 2391 0838 6B000000 		.4byte	0x6b
 2392 083c 29050000 		.4byte	.LLST42
 2393 0840 10       		.uleb128 0x10
 2394 0841 08000000 		.4byte	.LVL86
 2395 0845 48090000 		.4byte	0x948
 2396 0849 10       		.uleb128 0x10
 2397 084a 14000000 		.4byte	.LVL87
 2398 084e 53090000 		.4byte	0x953
 2399 0852 16       		.uleb128 0x16
 2400 0853 1C000000 		.4byte	.LVL88
 2401 0857 C3070000 		.4byte	0x7c3
 2402 085b 17       		.uleb128 0x17
 2403 085c 01       		.uleb128 0x1
 2404 085d 51       		.byte	0x51
 2405 085e 01       		.uleb128 0x1
 2406 085f 48       		.byte	0x48
 2407 0860 17       		.uleb128 0x17
 2408 0861 01       		.uleb128 0x1
 2409 0862 50       		.byte	0x50
 2410 0863 02       		.uleb128 0x2
 2411 0864 74       		.byte	0x74
 2412 0865 00       		.sleb128 0
 2413 0866 00       		.byte	0
 2414 0867 00       		.byte	0
 2415 0868 08       		.uleb128 0x8
 2416 0869 01020000 		.4byte	.LASF70
 2417 086d 01       		.byte	0x1
 2418 086e E6       		.byte	0xe6
 2419 086f 00000000 		.4byte	.LFB4
 2420 0873 1C000000 		.4byte	.LFE4-.LFB4
 2421 0877 01       		.uleb128 0x1
 2422 0878 9C       		.byte	0x9c
 2423 0879 90080000 		.4byte	0x890
 2424 087d 10       		.uleb128 0x10
 2425 087e 0E000000 		.4byte	.LVL89
 2426 0882 18010000 		.4byte	0x118
 2427 0886 10       		.uleb128 0x10
 2428 0887 16000000 		.4byte	.LVL90
 2429 088b 1C080000 		.4byte	0x81c
 2430 088f 00       		.byte	0
 2431 0890 14       		.uleb128 0x14
 2432 0891 34060000 		.4byte	.LASF71
 2433 0895 01       		.byte	0x1
 2434 0896 0E05     		.2byte	0x50e
 2435 0898 77000000 		.4byte	0x77
 2436 089c 00000000 		.4byte	.LFB36
 2437 08a0 14000000 		.4byte	.LFE36-.LFB36
 2438 08a4 01       		.uleb128 0x1
ARM GAS  C:\Users\zhiantec\AppData\Local\Temp\ccsSOYXN.s 			page 73


 2439 08a5 9C       		.byte	0x9c
 2440 08a6 12       		.uleb128 0x12
 2441 08a7 B0000000 		.4byte	0xb0
 2442 08ab 00000000 		.4byte	.LFB37
 2443 08af 0C000000 		.4byte	.LFE37-.LFB37
 2444 08b3 01       		.uleb128 0x1
 2445 08b4 9C       		.byte	0x9c
 2446 08b5 C1080000 		.4byte	0x8c1
 2447 08b9 18       		.uleb128 0x18
 2448 08ba BD000000 		.4byte	0xbd
 2449 08be 01       		.uleb128 0x1
 2450 08bf 50       		.byte	0x50
 2451 08c0 00       		.byte	0
 2452 08c1 14       		.uleb128 0x14
 2453 08c2 3F050000 		.4byte	.LASF72
 2454 08c6 01       		.byte	0x1
 2455 08c7 3E05     		.2byte	0x53e
 2456 08c9 77000000 		.4byte	0x77
 2457 08cd 00000000 		.4byte	.LFB38
 2458 08d1 0C000000 		.4byte	.LFE38-.LFB38
 2459 08d5 01       		.uleb128 0x1
 2460 08d6 9C       		.byte	0x9c
 2461 08d7 14       		.uleb128 0x14
 2462 08d8 B8040000 		.4byte	.LASF73
 2463 08dc 01       		.byte	0x1
 2464 08dd 5505     		.2byte	0x555
 2465 08df 77000000 		.4byte	0x77
 2466 08e3 00000000 		.4byte	.LFB39
 2467 08e7 0C000000 		.4byte	.LFE39-.LFB39
 2468 08eb 01       		.uleb128 0x1
 2469 08ec 9C       		.byte	0x9c
 2470 08ed 0E       		.uleb128 0xe
 2471 08ee 72050000 		.4byte	.LASF74
 2472 08f2 01       		.byte	0x1
 2473 08f3 6C05     		.2byte	0x56c
 2474 08f5 00000000 		.4byte	.LFB40
 2475 08f9 0C000000 		.4byte	.LFE40-.LFB40
 2476 08fd 01       		.uleb128 0x1
 2477 08fe 9C       		.byte	0x9c
 2478 08ff 12090000 		.4byte	0x912
 2479 0903 19       		.uleb128 0x19
 2480 0904 64050000 		.4byte	.LASF18
 2481 0908 01       		.byte	0x1
 2482 0909 6C05     		.2byte	0x56c
 2483 090b 77000000 		.4byte	0x77
 2484 090f 01       		.uleb128 0x1
 2485 0910 50       		.byte	0x50
 2486 0911 00       		.byte	0
 2487 0912 0E       		.uleb128 0xe
 2488 0913 5C060000 		.4byte	.LASF75
 2489 0917 01       		.byte	0x1
 2490 0918 8305     		.2byte	0x583
 2491 091a 00000000 		.4byte	.LFB41
 2492 091e 0C000000 		.4byte	.LFE41-.LFB41
 2493 0922 01       		.uleb128 0x1
 2494 0923 9C       		.byte	0x9c
 2495 0924 37090000 		.4byte	0x937
ARM GAS  C:\Users\zhiantec\AppData\Local\Temp\ccsSOYXN.s 			page 74


 2496 0928 19       		.uleb128 0x19
 2497 0929 64050000 		.4byte	.LASF18
 2498 092d 01       		.byte	0x1
 2499 092e 8305     		.2byte	0x583
 2500 0930 77000000 		.4byte	0x77
 2501 0934 01       		.uleb128 0x1
 2502 0935 50       		.byte	0x50
 2503 0936 00       		.byte	0
 2504 0937 1A       		.uleb128 0x1a
 2505 0938 3D040000 		.4byte	.LASF79
 2506 093c 01       		.byte	0x1
 2507 093d 15       		.byte	0x15
 2508 093e 6B000000 		.4byte	0x6b
 2509 0942 05       		.uleb128 0x5
 2510 0943 03       		.byte	0x3
 2511 0944 00000000 		.4byte	Timer_100ms_initVar
 2512 0948 1B       		.uleb128 0x1b
 2513 0949 49030000 		.4byte	.LASF80
 2514 094d 03       		.byte	0x3
 2515 094e E5       		.byte	0xe5
 2516 094f 6B000000 		.4byte	0x6b
 2517 0953 1C       		.uleb128 0x1c
 2518 0954 94000000 		.4byte	.LASF81
 2519 0958 03       		.byte	0x3
 2520 0959 E6       		.byte	0xe6
 2521 095a 1D       		.uleb128 0x1d
 2522 095b 6B000000 		.4byte	0x6b
 2523 095f 00       		.byte	0
 2524 0960 00       		.byte	0
 2525              		.section	.debug_abbrev,"",%progbits
 2526              	.Ldebug_abbrev0:
 2527 0000 01       		.uleb128 0x1
 2528 0001 11       		.uleb128 0x11
 2529 0002 01       		.byte	0x1
 2530 0003 25       		.uleb128 0x25
 2531 0004 0E       		.uleb128 0xe
 2532 0005 13       		.uleb128 0x13
 2533 0006 0B       		.uleb128 0xb
 2534 0007 03       		.uleb128 0x3
 2535 0008 0E       		.uleb128 0xe
 2536 0009 1B       		.uleb128 0x1b
 2537 000a 0E       		.uleb128 0xe
 2538 000b 55       		.uleb128 0x55
 2539 000c 17       		.uleb128 0x17
 2540 000d 11       		.uleb128 0x11
 2541 000e 01       		.uleb128 0x1
 2542 000f 10       		.uleb128 0x10
 2543 0010 17       		.uleb128 0x17
 2544 0011 00       		.byte	0
 2545 0012 00       		.byte	0
 2546 0013 02       		.uleb128 0x2
 2547 0014 24       		.uleb128 0x24
 2548 0015 00       		.byte	0
 2549 0016 0B       		.uleb128 0xb
 2550 0017 0B       		.uleb128 0xb
 2551 0018 3E       		.uleb128 0x3e
 2552 0019 0B       		.uleb128 0xb
ARM GAS  C:\Users\zhiantec\AppData\Local\Temp\ccsSOYXN.s 			page 75


 2553 001a 03       		.uleb128 0x3
 2554 001b 0E       		.uleb128 0xe
 2555 001c 00       		.byte	0
 2556 001d 00       		.byte	0
 2557 001e 03       		.uleb128 0x3
 2558 001f 24       		.uleb128 0x24
 2559 0020 00       		.byte	0
 2560 0021 0B       		.uleb128 0xb
 2561 0022 0B       		.uleb128 0xb
 2562 0023 3E       		.uleb128 0x3e
 2563 0024 0B       		.uleb128 0xb
 2564 0025 03       		.uleb128 0x3
 2565 0026 08       		.uleb128 0x8
 2566 0027 00       		.byte	0
 2567 0028 00       		.byte	0
 2568 0029 04       		.uleb128 0x4
 2569 002a 16       		.uleb128 0x16
 2570 002b 00       		.byte	0
 2571 002c 03       		.uleb128 0x3
 2572 002d 0E       		.uleb128 0xe
 2573 002e 3A       		.uleb128 0x3a
 2574 002f 0B       		.uleb128 0xb
 2575 0030 3B       		.uleb128 0x3b
 2576 0031 05       		.uleb128 0x5
 2577 0032 49       		.uleb128 0x49
 2578 0033 13       		.uleb128 0x13
 2579 0034 00       		.byte	0
 2580 0035 00       		.byte	0
 2581 0036 05       		.uleb128 0x5
 2582 0037 35       		.uleb128 0x35
 2583 0038 00       		.byte	0
 2584 0039 49       		.uleb128 0x49
 2585 003a 13       		.uleb128 0x13
 2586 003b 00       		.byte	0
 2587 003c 00       		.byte	0
 2588 003d 06       		.uleb128 0x6
 2589 003e 2E       		.uleb128 0x2e
 2590 003f 01       		.byte	0x1
 2591 0040 3F       		.uleb128 0x3f
 2592 0041 19       		.uleb128 0x19
 2593 0042 03       		.uleb128 0x3
 2594 0043 0E       		.uleb128 0xe
 2595 0044 3A       		.uleb128 0x3a
 2596 0045 0B       		.uleb128 0xb
 2597 0046 3B       		.uleb128 0x3b
 2598 0047 05       		.uleb128 0x5
 2599 0048 27       		.uleb128 0x27
 2600 0049 19       		.uleb128 0x19
 2601 004a 20       		.uleb128 0x20
 2602 004b 0B       		.uleb128 0xb
 2603 004c 01       		.uleb128 0x1
 2604 004d 13       		.uleb128 0x13
 2605 004e 00       		.byte	0
 2606 004f 00       		.byte	0
 2607 0050 07       		.uleb128 0x7
 2608 0051 05       		.uleb128 0x5
 2609 0052 00       		.byte	0
ARM GAS  C:\Users\zhiantec\AppData\Local\Temp\ccsSOYXN.s 			page 76


 2610 0053 03       		.uleb128 0x3
 2611 0054 0E       		.uleb128 0xe
 2612 0055 3A       		.uleb128 0x3a
 2613 0056 0B       		.uleb128 0xb
 2614 0057 3B       		.uleb128 0x3b
 2615 0058 05       		.uleb128 0x5
 2616 0059 49       		.uleb128 0x49
 2617 005a 13       		.uleb128 0x13
 2618 005b 00       		.byte	0
 2619 005c 00       		.byte	0
 2620 005d 08       		.uleb128 0x8
 2621 005e 2E       		.uleb128 0x2e
 2622 005f 01       		.byte	0x1
 2623 0060 3F       		.uleb128 0x3f
 2624 0061 19       		.uleb128 0x19
 2625 0062 03       		.uleb128 0x3
 2626 0063 0E       		.uleb128 0xe
 2627 0064 3A       		.uleb128 0x3a
 2628 0065 0B       		.uleb128 0xb
 2629 0066 3B       		.uleb128 0x3b
 2630 0067 0B       		.uleb128 0xb
 2631 0068 27       		.uleb128 0x27
 2632 0069 19       		.uleb128 0x19
 2633 006a 11       		.uleb128 0x11
 2634 006b 01       		.uleb128 0x1
 2635 006c 12       		.uleb128 0x12
 2636 006d 06       		.uleb128 0x6
 2637 006e 40       		.uleb128 0x40
 2638 006f 18       		.uleb128 0x18
 2639 0070 9742     		.uleb128 0x2117
 2640 0072 19       		.uleb128 0x19
 2641 0073 01       		.uleb128 0x1
 2642 0074 13       		.uleb128 0x13
 2643 0075 00       		.byte	0
 2644 0076 00       		.byte	0
 2645 0077 09       		.uleb128 0x9
 2646 0078 1D       		.uleb128 0x1d
 2647 0079 01       		.byte	0x1
 2648 007a 31       		.uleb128 0x31
 2649 007b 13       		.uleb128 0x13
 2650 007c 52       		.uleb128 0x52
 2651 007d 01       		.uleb128 0x1
 2652 007e 55       		.uleb128 0x55
 2653 007f 17       		.uleb128 0x17
 2654 0080 58       		.uleb128 0x58
 2655 0081 0B       		.uleb128 0xb
 2656 0082 59       		.uleb128 0x59
 2657 0083 0B       		.uleb128 0xb
 2658 0084 01       		.uleb128 0x1
 2659 0085 13       		.uleb128 0x13
 2660 0086 00       		.byte	0
 2661 0087 00       		.byte	0
 2662 0088 0A       		.uleb128 0xa
 2663 0089 05       		.uleb128 0x5
 2664 008a 00       		.byte	0
 2665 008b 31       		.uleb128 0x31
 2666 008c 13       		.uleb128 0x13
ARM GAS  C:\Users\zhiantec\AppData\Local\Temp\ccsSOYXN.s 			page 77


 2667 008d 1C       		.uleb128 0x1c
 2668 008e 0B       		.uleb128 0xb
 2669 008f 00       		.byte	0
 2670 0090 00       		.byte	0
 2671 0091 0B       		.uleb128 0xb
 2672 0092 1D       		.uleb128 0x1d
 2673 0093 01       		.byte	0x1
 2674 0094 31       		.uleb128 0x31
 2675 0095 13       		.uleb128 0x13
 2676 0096 11       		.uleb128 0x11
 2677 0097 01       		.uleb128 0x1
 2678 0098 12       		.uleb128 0x12
 2679 0099 06       		.uleb128 0x6
 2680 009a 58       		.uleb128 0x58
 2681 009b 0B       		.uleb128 0xb
 2682 009c 59       		.uleb128 0x59
 2683 009d 0B       		.uleb128 0xb
 2684 009e 01       		.uleb128 0x1
 2685 009f 13       		.uleb128 0x13
 2686 00a0 00       		.byte	0
 2687 00a1 00       		.byte	0
 2688 00a2 0C       		.uleb128 0xc
 2689 00a3 05       		.uleb128 0x5
 2690 00a4 00       		.byte	0
 2691 00a5 31       		.uleb128 0x31
 2692 00a6 13       		.uleb128 0x13
 2693 00a7 1C       		.uleb128 0x1c
 2694 00a8 05       		.uleb128 0x5
 2695 00a9 00       		.byte	0
 2696 00aa 00       		.byte	0
 2697 00ab 0D       		.uleb128 0xd
 2698 00ac 1D       		.uleb128 0x1d
 2699 00ad 01       		.byte	0x1
 2700 00ae 31       		.uleb128 0x31
 2701 00af 13       		.uleb128 0x13
 2702 00b0 11       		.uleb128 0x11
 2703 00b1 01       		.uleb128 0x1
 2704 00b2 12       		.uleb128 0x12
 2705 00b3 06       		.uleb128 0x6
 2706 00b4 58       		.uleb128 0x58
 2707 00b5 0B       		.uleb128 0xb
 2708 00b6 59       		.uleb128 0x59
 2709 00b7 0B       		.uleb128 0xb
 2710 00b8 00       		.byte	0
 2711 00b9 00       		.byte	0
 2712 00ba 0E       		.uleb128 0xe
 2713 00bb 2E       		.uleb128 0x2e
 2714 00bc 01       		.byte	0x1
 2715 00bd 3F       		.uleb128 0x3f
 2716 00be 19       		.uleb128 0x19
 2717 00bf 03       		.uleb128 0x3
 2718 00c0 0E       		.uleb128 0xe
 2719 00c1 3A       		.uleb128 0x3a
 2720 00c2 0B       		.uleb128 0xb
 2721 00c3 3B       		.uleb128 0x3b
 2722 00c4 05       		.uleb128 0x5
 2723 00c5 27       		.uleb128 0x27
ARM GAS  C:\Users\zhiantec\AppData\Local\Temp\ccsSOYXN.s 			page 78


 2724 00c6 19       		.uleb128 0x19
 2725 00c7 11       		.uleb128 0x11
 2726 00c8 01       		.uleb128 0x1
 2727 00c9 12       		.uleb128 0x12
 2728 00ca 06       		.uleb128 0x6
 2729 00cb 40       		.uleb128 0x40
 2730 00cc 18       		.uleb128 0x18
 2731 00cd 9742     		.uleb128 0x2117
 2732 00cf 19       		.uleb128 0x19
 2733 00d0 01       		.uleb128 0x1
 2734 00d1 13       		.uleb128 0x13
 2735 00d2 00       		.byte	0
 2736 00d3 00       		.byte	0
 2737 00d4 0F       		.uleb128 0xf
 2738 00d5 34       		.uleb128 0x34
 2739 00d6 00       		.byte	0
 2740 00d7 03       		.uleb128 0x3
 2741 00d8 0E       		.uleb128 0xe
 2742 00d9 3A       		.uleb128 0x3a
 2743 00da 0B       		.uleb128 0xb
 2744 00db 3B       		.uleb128 0x3b
 2745 00dc 05       		.uleb128 0x5
 2746 00dd 49       		.uleb128 0x49
 2747 00de 13       		.uleb128 0x13
 2748 00df 02       		.uleb128 0x2
 2749 00e0 17       		.uleb128 0x17
 2750 00e1 00       		.byte	0
 2751 00e2 00       		.byte	0
 2752 00e3 10       		.uleb128 0x10
 2753 00e4 898201   		.uleb128 0x4109
 2754 00e7 00       		.byte	0
 2755 00e8 11       		.uleb128 0x11
 2756 00e9 01       		.uleb128 0x1
 2757 00ea 31       		.uleb128 0x31
 2758 00eb 13       		.uleb128 0x13
 2759 00ec 00       		.byte	0
 2760 00ed 00       		.byte	0
 2761 00ee 11       		.uleb128 0x11
 2762 00ef 05       		.uleb128 0x5
 2763 00f0 00       		.byte	0
 2764 00f1 03       		.uleb128 0x3
 2765 00f2 0E       		.uleb128 0xe
 2766 00f3 3A       		.uleb128 0x3a
 2767 00f4 0B       		.uleb128 0xb
 2768 00f5 3B       		.uleb128 0x3b
 2769 00f6 05       		.uleb128 0x5
 2770 00f7 49       		.uleb128 0x49
 2771 00f8 13       		.uleb128 0x13
 2772 00f9 02       		.uleb128 0x2
 2773 00fa 17       		.uleb128 0x17
 2774 00fb 00       		.byte	0
 2775 00fc 00       		.byte	0
 2776 00fd 12       		.uleb128 0x12
 2777 00fe 2E       		.uleb128 0x2e
 2778 00ff 01       		.byte	0x1
 2779 0100 31       		.uleb128 0x31
 2780 0101 13       		.uleb128 0x13
ARM GAS  C:\Users\zhiantec\AppData\Local\Temp\ccsSOYXN.s 			page 79


 2781 0102 11       		.uleb128 0x11
 2782 0103 01       		.uleb128 0x1
 2783 0104 12       		.uleb128 0x12
 2784 0105 06       		.uleb128 0x6
 2785 0106 40       		.uleb128 0x40
 2786 0107 18       		.uleb128 0x18
 2787 0108 9742     		.uleb128 0x2117
 2788 010a 19       		.uleb128 0x19
 2789 010b 01       		.uleb128 0x1
 2790 010c 13       		.uleb128 0x13
 2791 010d 00       		.byte	0
 2792 010e 00       		.byte	0
 2793 010f 13       		.uleb128 0x13
 2794 0110 05       		.uleb128 0x5
 2795 0111 00       		.byte	0
 2796 0112 31       		.uleb128 0x31
 2797 0113 13       		.uleb128 0x13
 2798 0114 02       		.uleb128 0x2
 2799 0115 17       		.uleb128 0x17
 2800 0116 00       		.byte	0
 2801 0117 00       		.byte	0
 2802 0118 14       		.uleb128 0x14
 2803 0119 2E       		.uleb128 0x2e
 2804 011a 00       		.byte	0
 2805 011b 3F       		.uleb128 0x3f
 2806 011c 19       		.uleb128 0x19
 2807 011d 03       		.uleb128 0x3
 2808 011e 0E       		.uleb128 0xe
 2809 011f 3A       		.uleb128 0x3a
 2810 0120 0B       		.uleb128 0xb
 2811 0121 3B       		.uleb128 0x3b
 2812 0122 05       		.uleb128 0x5
 2813 0123 27       		.uleb128 0x27
 2814 0124 19       		.uleb128 0x19
 2815 0125 49       		.uleb128 0x49
 2816 0126 13       		.uleb128 0x13
 2817 0127 11       		.uleb128 0x11
 2818 0128 01       		.uleb128 0x1
 2819 0129 12       		.uleb128 0x12
 2820 012a 06       		.uleb128 0x6
 2821 012b 40       		.uleb128 0x40
 2822 012c 18       		.uleb128 0x18
 2823 012d 9742     		.uleb128 0x2117
 2824 012f 19       		.uleb128 0x19
 2825 0130 00       		.byte	0
 2826 0131 00       		.byte	0
 2827 0132 15       		.uleb128 0x15
 2828 0133 34       		.uleb128 0x34
 2829 0134 00       		.byte	0
 2830 0135 03       		.uleb128 0x3
 2831 0136 0E       		.uleb128 0xe
 2832 0137 3A       		.uleb128 0x3a
 2833 0138 0B       		.uleb128 0xb
 2834 0139 3B       		.uleb128 0x3b
 2835 013a 0B       		.uleb128 0xb
 2836 013b 49       		.uleb128 0x49
 2837 013c 13       		.uleb128 0x13
ARM GAS  C:\Users\zhiantec\AppData\Local\Temp\ccsSOYXN.s 			page 80


 2838 013d 02       		.uleb128 0x2
 2839 013e 17       		.uleb128 0x17
 2840 013f 00       		.byte	0
 2841 0140 00       		.byte	0
 2842 0141 16       		.uleb128 0x16
 2843 0142 898201   		.uleb128 0x4109
 2844 0145 01       		.byte	0x1
 2845 0146 11       		.uleb128 0x11
 2846 0147 01       		.uleb128 0x1
 2847 0148 31       		.uleb128 0x31
 2848 0149 13       		.uleb128 0x13
 2849 014a 00       		.byte	0
 2850 014b 00       		.byte	0
 2851 014c 17       		.uleb128 0x17
 2852 014d 8A8201   		.uleb128 0x410a
 2853 0150 00       		.byte	0
 2854 0151 02       		.uleb128 0x2
 2855 0152 18       		.uleb128 0x18
 2856 0153 9142     		.uleb128 0x2111
 2857 0155 18       		.uleb128 0x18
 2858 0156 00       		.byte	0
 2859 0157 00       		.byte	0
 2860 0158 18       		.uleb128 0x18
 2861 0159 05       		.uleb128 0x5
 2862 015a 00       		.byte	0
 2863 015b 31       		.uleb128 0x31
 2864 015c 13       		.uleb128 0x13
 2865 015d 02       		.uleb128 0x2
 2866 015e 18       		.uleb128 0x18
 2867 015f 00       		.byte	0
 2868 0160 00       		.byte	0
 2869 0161 19       		.uleb128 0x19
 2870 0162 05       		.uleb128 0x5
 2871 0163 00       		.byte	0
 2872 0164 03       		.uleb128 0x3
 2873 0165 0E       		.uleb128 0xe
 2874 0166 3A       		.uleb128 0x3a
 2875 0167 0B       		.uleb128 0xb
 2876 0168 3B       		.uleb128 0x3b
 2877 0169 05       		.uleb128 0x5
 2878 016a 49       		.uleb128 0x49
 2879 016b 13       		.uleb128 0x13
 2880 016c 02       		.uleb128 0x2
 2881 016d 18       		.uleb128 0x18
 2882 016e 00       		.byte	0
 2883 016f 00       		.byte	0
 2884 0170 1A       		.uleb128 0x1a
 2885 0171 34       		.uleb128 0x34
 2886 0172 00       		.byte	0
 2887 0173 03       		.uleb128 0x3
 2888 0174 0E       		.uleb128 0xe
 2889 0175 3A       		.uleb128 0x3a
 2890 0176 0B       		.uleb128 0xb
 2891 0177 3B       		.uleb128 0x3b
 2892 0178 0B       		.uleb128 0xb
 2893 0179 49       		.uleb128 0x49
 2894 017a 13       		.uleb128 0x13
ARM GAS  C:\Users\zhiantec\AppData\Local\Temp\ccsSOYXN.s 			page 81


 2895 017b 3F       		.uleb128 0x3f
 2896 017c 19       		.uleb128 0x19
 2897 017d 02       		.uleb128 0x2
 2898 017e 18       		.uleb128 0x18
 2899 017f 00       		.byte	0
 2900 0180 00       		.byte	0
 2901 0181 1B       		.uleb128 0x1b
 2902 0182 2E       		.uleb128 0x2e
 2903 0183 00       		.byte	0
 2904 0184 3F       		.uleb128 0x3f
 2905 0185 19       		.uleb128 0x19
 2906 0186 03       		.uleb128 0x3
 2907 0187 0E       		.uleb128 0xe
 2908 0188 3A       		.uleb128 0x3a
 2909 0189 0B       		.uleb128 0xb
 2910 018a 3B       		.uleb128 0x3b
 2911 018b 0B       		.uleb128 0xb
 2912 018c 27       		.uleb128 0x27
 2913 018d 19       		.uleb128 0x19
 2914 018e 49       		.uleb128 0x49
 2915 018f 13       		.uleb128 0x13
 2916 0190 3C       		.uleb128 0x3c
 2917 0191 19       		.uleb128 0x19
 2918 0192 00       		.byte	0
 2919 0193 00       		.byte	0
 2920 0194 1C       		.uleb128 0x1c
 2921 0195 2E       		.uleb128 0x2e
 2922 0196 01       		.byte	0x1
 2923 0197 3F       		.uleb128 0x3f
 2924 0198 19       		.uleb128 0x19
 2925 0199 03       		.uleb128 0x3
 2926 019a 0E       		.uleb128 0xe
 2927 019b 3A       		.uleb128 0x3a
 2928 019c 0B       		.uleb128 0xb
 2929 019d 3B       		.uleb128 0x3b
 2930 019e 0B       		.uleb128 0xb
 2931 019f 27       		.uleb128 0x27
 2932 01a0 19       		.uleb128 0x19
 2933 01a1 3C       		.uleb128 0x3c
 2934 01a2 19       		.uleb128 0x19
 2935 01a3 00       		.byte	0
 2936 01a4 00       		.byte	0
 2937 01a5 1D       		.uleb128 0x1d
 2938 01a6 05       		.uleb128 0x5
 2939 01a7 00       		.byte	0
 2940 01a8 49       		.uleb128 0x49
 2941 01a9 13       		.uleb128 0x13
 2942 01aa 00       		.byte	0
 2943 01ab 00       		.byte	0
 2944 01ac 00       		.byte	0
 2945              		.section	.debug_loc,"",%progbits
 2946              	.Ldebug_loc0:
 2947              	.LLST0:
 2948 0000 06000000 		.4byte	.LVL4
 2949 0004 13000000 		.4byte	.LVL5-1
 2950 0008 0100     		.2byte	0x1
 2951 000a 50       		.byte	0x50
ARM GAS  C:\Users\zhiantec\AppData\Local\Temp\ccsSOYXN.s 			page 82


 2952 000b 00000000 		.4byte	0
 2953 000f 00000000 		.4byte	0
 2954              	.LLST1:
 2955 0013 00000000 		.4byte	.LVL6
 2956 0017 07000000 		.4byte	.LVL7-1
 2957 001b 0100     		.2byte	0x1
 2958 001d 50       		.byte	0x50
 2959 001e 07000000 		.4byte	.LVL7-1
 2960 0022 1C000000 		.4byte	.LVL9
 2961 0026 0100     		.2byte	0x1
 2962 0028 54       		.byte	0x54
 2963 0029 1C000000 		.4byte	.LVL9
 2964 002d 28000000 		.4byte	.LFE6
 2965 0031 0400     		.2byte	0x4
 2966 0033 F3       		.byte	0xf3
 2967 0034 01       		.uleb128 0x1
 2968 0035 50       		.byte	0x50
 2969 0036 9F       		.byte	0x9f
 2970 0037 00000000 		.4byte	0
 2971 003b 00000000 		.4byte	0
 2972              	.LLST2:
 2973 003f 08000000 		.4byte	.LVL7
 2974 0043 1B000000 		.4byte	.LVL8-1
 2975 0047 0100     		.2byte	0x1
 2976 0049 50       		.byte	0x50
 2977 004a 00000000 		.4byte	0
 2978 004e 00000000 		.4byte	0
 2979              	.LLST3:
 2980 0052 00000000 		.4byte	.LVL10
 2981 0056 07000000 		.4byte	.LVL11-1
 2982 005a 0100     		.2byte	0x1
 2983 005c 50       		.byte	0x50
 2984 005d 07000000 		.4byte	.LVL11-1
 2985 0061 1C000000 		.4byte	.LVL13
 2986 0065 0100     		.2byte	0x1
 2987 0067 54       		.byte	0x54
 2988 0068 1C000000 		.4byte	.LVL13
 2989 006c 28000000 		.4byte	.LFE7
 2990 0070 0400     		.2byte	0x4
 2991 0072 F3       		.byte	0xf3
 2992 0073 01       		.uleb128 0x1
 2993 0074 50       		.byte	0x50
 2994 0075 9F       		.byte	0x9f
 2995 0076 00000000 		.4byte	0
 2996 007a 00000000 		.4byte	0
 2997              	.LLST4:
 2998 007e 08000000 		.4byte	.LVL11
 2999 0082 1B000000 		.4byte	.LVL12-1
 3000 0086 0100     		.2byte	0x1
 3001 0088 50       		.byte	0x50
 3002 0089 00000000 		.4byte	0
 3003 008d 00000000 		.4byte	0
 3004              	.LLST5:
 3005 0091 00000000 		.4byte	.LVL14
 3006 0095 07000000 		.4byte	.LVL15-1
 3007 0099 0100     		.2byte	0x1
 3008 009b 50       		.byte	0x50
ARM GAS  C:\Users\zhiantec\AppData\Local\Temp\ccsSOYXN.s 			page 83


 3009 009c 07000000 		.4byte	.LVL15-1
 3010 00a0 1C000000 		.4byte	.LVL17
 3011 00a4 0100     		.2byte	0x1
 3012 00a6 54       		.byte	0x54
 3013 00a7 1C000000 		.4byte	.LVL17
 3014 00ab 28000000 		.4byte	.LFE8
 3015 00af 0400     		.2byte	0x4
 3016 00b1 F3       		.byte	0xf3
 3017 00b2 01       		.uleb128 0x1
 3018 00b3 50       		.byte	0x50
 3019 00b4 9F       		.byte	0x9f
 3020 00b5 00000000 		.4byte	0
 3021 00b9 00000000 		.4byte	0
 3022              	.LLST6:
 3023 00bd 08000000 		.4byte	.LVL15
 3024 00c1 1B000000 		.4byte	.LVL16-1
 3025 00c5 0100     		.2byte	0x1
 3026 00c7 50       		.byte	0x50
 3027 00c8 00000000 		.4byte	0
 3028 00cc 00000000 		.4byte	0
 3029              	.LLST7:
 3030 00d0 00000000 		.4byte	.LVL18
 3031 00d4 07000000 		.4byte	.LVL19-1
 3032 00d8 0100     		.2byte	0x1
 3033 00da 50       		.byte	0x50
 3034 00db 07000000 		.4byte	.LVL19-1
 3035 00df 22000000 		.4byte	.LVL21
 3036 00e3 0100     		.2byte	0x1
 3037 00e5 54       		.byte	0x54
 3038 00e6 22000000 		.4byte	.LVL21
 3039 00ea 2C000000 		.4byte	.LFE9
 3040 00ee 0400     		.2byte	0x4
 3041 00f0 F3       		.byte	0xf3
 3042 00f1 01       		.uleb128 0x1
 3043 00f2 50       		.byte	0x50
 3044 00f3 9F       		.byte	0x9f
 3045 00f4 00000000 		.4byte	0
 3046 00f8 00000000 		.4byte	0
 3047              	.LLST8:
 3048 00fc 08000000 		.4byte	.LVL19
 3049 0100 21000000 		.4byte	.LVL20-1
 3050 0104 0100     		.2byte	0x1
 3051 0106 50       		.byte	0x50
 3052 0107 00000000 		.4byte	0
 3053 010b 00000000 		.4byte	0
 3054              	.LLST9:
 3055 010f 00000000 		.4byte	.LVL22
 3056 0113 04000000 		.4byte	.LVL23
 3057 0117 0100     		.2byte	0x1
 3058 0119 50       		.byte	0x50
 3059 011a 04000000 		.4byte	.LVL23
 3060 011e 10000000 		.4byte	.LFE10
 3061 0122 0400     		.2byte	0x4
 3062 0124 F3       		.byte	0xf3
 3063 0125 01       		.uleb128 0x1
 3064 0126 50       		.byte	0x50
 3065 0127 9F       		.byte	0x9f
ARM GAS  C:\Users\zhiantec\AppData\Local\Temp\ccsSOYXN.s 			page 84


 3066 0128 00000000 		.4byte	0
 3067 012c 00000000 		.4byte	0
 3068              	.LLST10:
 3069 0130 00000000 		.4byte	.LVL24
 3070 0134 07000000 		.4byte	.LVL25-1
 3071 0138 0100     		.2byte	0x1
 3072 013a 50       		.byte	0x50
 3073 013b 07000000 		.4byte	.LVL25-1
 3074 013f 22000000 		.4byte	.LVL27
 3075 0143 0100     		.2byte	0x1
 3076 0145 54       		.byte	0x54
 3077 0146 22000000 		.4byte	.LVL27
 3078 014a 28000000 		.4byte	.LFE11
 3079 014e 0400     		.2byte	0x4
 3080 0150 F3       		.byte	0xf3
 3081 0151 01       		.uleb128 0x1
 3082 0152 50       		.byte	0x50
 3083 0153 9F       		.byte	0x9f
 3084 0154 00000000 		.4byte	0
 3085 0158 00000000 		.4byte	0
 3086              	.LLST11:
 3087 015c 08000000 		.4byte	.LVL25
 3088 0160 21000000 		.4byte	.LVL26-1
 3089 0164 0100     		.2byte	0x1
 3090 0166 50       		.byte	0x50
 3091 0167 00000000 		.4byte	0
 3092 016b 00000000 		.4byte	0
 3093              	.LLST12:
 3094 016f 00000000 		.4byte	.LVL28
 3095 0173 07000000 		.4byte	.LVL29-1
 3096 0177 0100     		.2byte	0x1
 3097 0179 50       		.byte	0x50
 3098 017a 07000000 		.4byte	.LVL29-1
 3099 017e 22000000 		.4byte	.LVL31
 3100 0182 0100     		.2byte	0x1
 3101 0184 54       		.byte	0x54
 3102 0185 22000000 		.4byte	.LVL31
 3103 0189 28000000 		.4byte	.LFE12
 3104 018d 0400     		.2byte	0x4
 3105 018f F3       		.byte	0xf3
 3106 0190 01       		.uleb128 0x1
 3107 0191 50       		.byte	0x50
 3108 0192 9F       		.byte	0x9f
 3109 0193 00000000 		.4byte	0
 3110 0197 00000000 		.4byte	0
 3111              	.LLST13:
 3112 019b 08000000 		.4byte	.LVL29
 3113 019f 21000000 		.4byte	.LVL30-1
 3114 01a3 0100     		.2byte	0x1
 3115 01a5 50       		.byte	0x50
 3116 01a6 00000000 		.4byte	0
 3117 01aa 00000000 		.4byte	0
 3118              	.LLST14:
 3119 01ae 00000000 		.4byte	.LVL32
 3120 01b2 07000000 		.4byte	.LVL33-1
 3121 01b6 0100     		.2byte	0x1
 3122 01b8 50       		.byte	0x50
ARM GAS  C:\Users\zhiantec\AppData\Local\Temp\ccsSOYXN.s 			page 85


 3123 01b9 07000000 		.4byte	.LVL33-1
 3124 01bd 10000000 		.4byte	.LVL34
 3125 01c1 0100     		.2byte	0x1
 3126 01c3 54       		.byte	0x54
 3127 01c4 10000000 		.4byte	.LVL34
 3128 01c8 2C000000 		.4byte	.LFE13
 3129 01cc 0400     		.2byte	0x4
 3130 01ce F3       		.byte	0xf3
 3131 01cf 01       		.uleb128 0x1
 3132 01d0 50       		.byte	0x50
 3133 01d1 9F       		.byte	0x9f
 3134 01d2 00000000 		.4byte	0
 3135 01d6 00000000 		.4byte	0
 3136              	.LLST15:
 3137 01da 08000000 		.4byte	.LVL33
 3138 01de 1F000000 		.4byte	.LVL35-1
 3139 01e2 0100     		.2byte	0x1
 3140 01e4 50       		.byte	0x50
 3141 01e5 00000000 		.4byte	0
 3142 01e9 00000000 		.4byte	0
 3143              	.LLST16:
 3144 01ed 00000000 		.4byte	.LVL36
 3145 01f1 07000000 		.4byte	.LVL37-1
 3146 01f5 0100     		.2byte	0x1
 3147 01f7 50       		.byte	0x50
 3148 01f8 07000000 		.4byte	.LVL37-1
 3149 01fc 1C000000 		.4byte	.LVL39
 3150 0200 0100     		.2byte	0x1
 3151 0202 54       		.byte	0x54
 3152 0203 1C000000 		.4byte	.LVL39
 3153 0207 28000000 		.4byte	.LFE14
 3154 020b 0400     		.2byte	0x4
 3155 020d F3       		.byte	0xf3
 3156 020e 01       		.uleb128 0x1
 3157 020f 50       		.byte	0x50
 3158 0210 9F       		.byte	0x9f
 3159 0211 00000000 		.4byte	0
 3160 0215 00000000 		.4byte	0
 3161              	.LLST17:
 3162 0219 08000000 		.4byte	.LVL37
 3163 021d 1B000000 		.4byte	.LVL38-1
 3164 0221 0100     		.2byte	0x1
 3165 0223 50       		.byte	0x50
 3166 0224 00000000 		.4byte	0
 3167 0228 00000000 		.4byte	0
 3168              	.LLST18:
 3169 022c 00000000 		.4byte	.LVL40
 3170 0230 04000000 		.4byte	.LVL41
 3171 0234 0100     		.2byte	0x1
 3172 0236 50       		.byte	0x50
 3173 0237 04000000 		.4byte	.LVL41
 3174 023b 0C000000 		.4byte	.LFE15
 3175 023f 0400     		.2byte	0x4
 3176 0241 F3       		.byte	0xf3
 3177 0242 01       		.uleb128 0x1
 3178 0243 50       		.byte	0x50
 3179 0244 9F       		.byte	0x9f
ARM GAS  C:\Users\zhiantec\AppData\Local\Temp\ccsSOYXN.s 			page 86


 3180 0245 00000000 		.4byte	0
 3181 0249 00000000 		.4byte	0
 3182              	.LLST19:
 3183 024d 00000000 		.4byte	.LVL42
 3184 0251 07000000 		.4byte	.LVL43-1
 3185 0255 0100     		.2byte	0x1
 3186 0257 50       		.byte	0x50
 3187 0258 07000000 		.4byte	.LVL43-1
 3188 025c 1C000000 		.4byte	.LVL45
 3189 0260 0100     		.2byte	0x1
 3190 0262 54       		.byte	0x54
 3191 0263 1C000000 		.4byte	.LVL45
 3192 0267 28000000 		.4byte	.LFE17
 3193 026b 0400     		.2byte	0x4
 3194 026d F3       		.byte	0xf3
 3195 026e 01       		.uleb128 0x1
 3196 026f 50       		.byte	0x50
 3197 0270 9F       		.byte	0x9f
 3198 0271 00000000 		.4byte	0
 3199 0275 00000000 		.4byte	0
 3200              	.LLST20:
 3201 0279 08000000 		.4byte	.LVL43
 3202 027d 1B000000 		.4byte	.LVL44-1
 3203 0281 0100     		.2byte	0x1
 3204 0283 50       		.byte	0x50
 3205 0284 00000000 		.4byte	0
 3206 0288 00000000 		.4byte	0
 3207              	.LLST21:
 3208 028c 00000000 		.4byte	.LVL46
 3209 0290 04000000 		.4byte	.LVL47
 3210 0294 0100     		.2byte	0x1
 3211 0296 50       		.byte	0x50
 3212 0297 04000000 		.4byte	.LVL47
 3213 029b 0C000000 		.4byte	.LFE18
 3214 029f 0400     		.2byte	0x4
 3215 02a1 F3       		.byte	0xf3
 3216 02a2 01       		.uleb128 0x1
 3217 02a3 50       		.byte	0x50
 3218 02a4 9F       		.byte	0x9f
 3219 02a5 00000000 		.4byte	0
 3220 02a9 00000000 		.4byte	0
 3221              	.LLST22:
 3222 02ad 00000000 		.4byte	.LVL48
 3223 02b1 07000000 		.4byte	.LVL49-1
 3224 02b5 0100     		.2byte	0x1
 3225 02b7 50       		.byte	0x50
 3226 02b8 07000000 		.4byte	.LVL49-1
 3227 02bc 1E000000 		.4byte	.LVL51
 3228 02c0 0100     		.2byte	0x1
 3229 02c2 54       		.byte	0x54
 3230 02c3 1E000000 		.4byte	.LVL51
 3231 02c7 24000000 		.4byte	.LFE20
 3232 02cb 0400     		.2byte	0x4
 3233 02cd F3       		.byte	0xf3
 3234 02ce 01       		.uleb128 0x1
 3235 02cf 50       		.byte	0x50
 3236 02d0 9F       		.byte	0x9f
ARM GAS  C:\Users\zhiantec\AppData\Local\Temp\ccsSOYXN.s 			page 87


 3237 02d1 00000000 		.4byte	0
 3238 02d5 00000000 		.4byte	0
 3239              	.LLST23:
 3240 02d9 08000000 		.4byte	.LVL49
 3241 02dd 1D000000 		.4byte	.LVL50-1
 3242 02e1 0100     		.2byte	0x1
 3243 02e3 50       		.byte	0x50
 3244 02e4 00000000 		.4byte	0
 3245 02e8 00000000 		.4byte	0
 3246              	.LLST24:
 3247 02ec 00000000 		.4byte	.LVL52
 3248 02f0 04000000 		.4byte	.LVL53
 3249 02f4 0100     		.2byte	0x1
 3250 02f6 50       		.byte	0x50
 3251 02f7 04000000 		.4byte	.LVL53
 3252 02fb 0C000000 		.4byte	.LFE21
 3253 02ff 0400     		.2byte	0x4
 3254 0301 F3       		.byte	0xf3
 3255 0302 01       		.uleb128 0x1
 3256 0303 50       		.byte	0x50
 3257 0304 9F       		.byte	0x9f
 3258 0305 00000000 		.4byte	0
 3259 0309 00000000 		.4byte	0
 3260              	.LLST25:
 3261 030d 00000000 		.4byte	.LVL54
 3262 0311 07000000 		.4byte	.LVL55-1
 3263 0315 0100     		.2byte	0x1
 3264 0317 50       		.byte	0x50
 3265 0318 07000000 		.4byte	.LVL55-1
 3266 031c 22000000 		.4byte	.LVL57
 3267 0320 0100     		.2byte	0x1
 3268 0322 54       		.byte	0x54
 3269 0323 22000000 		.4byte	.LVL57
 3270 0327 28000000 		.4byte	.LFE23
 3271 032b 0400     		.2byte	0x4
 3272 032d F3       		.byte	0xf3
 3273 032e 01       		.uleb128 0x1
 3274 032f 50       		.byte	0x50
 3275 0330 9F       		.byte	0x9f
 3276 0331 00000000 		.4byte	0
 3277 0335 00000000 		.4byte	0
 3278              	.LLST26:
 3279 0339 08000000 		.4byte	.LVL55
 3280 033d 21000000 		.4byte	.LVL56-1
 3281 0341 0100     		.2byte	0x1
 3282 0343 50       		.byte	0x50
 3283 0344 00000000 		.4byte	0
 3284 0348 00000000 		.4byte	0
 3285              	.LLST27:
 3286 034c 00000000 		.4byte	.LVL58
 3287 0350 04000000 		.4byte	.LVL59
 3288 0354 0100     		.2byte	0x1
 3289 0356 50       		.byte	0x50
 3290 0357 04000000 		.4byte	.LVL59
 3291 035b 0C000000 		.4byte	.LFE24
 3292 035f 0400     		.2byte	0x4
 3293 0361 F3       		.byte	0xf3
ARM GAS  C:\Users\zhiantec\AppData\Local\Temp\ccsSOYXN.s 			page 88


 3294 0362 01       		.uleb128 0x1
 3295 0363 50       		.byte	0x50
 3296 0364 9F       		.byte	0x9f
 3297 0365 00000000 		.4byte	0
 3298 0369 00000000 		.4byte	0
 3299              	.LLST28:
 3300 036d 00000000 		.4byte	.LVL60
 3301 0371 04000000 		.4byte	.LVL61
 3302 0375 0100     		.2byte	0x1
 3303 0377 50       		.byte	0x50
 3304 0378 04000000 		.4byte	.LVL61
 3305 037c 0C000000 		.4byte	.LFE26
 3306 0380 0400     		.2byte	0x4
 3307 0382 F3       		.byte	0xf3
 3308 0383 01       		.uleb128 0x1
 3309 0384 50       		.byte	0x50
 3310 0385 9F       		.byte	0x9f
 3311 0386 00000000 		.4byte	0
 3312 038a 00000000 		.4byte	0
 3313              	.LLST29:
 3314 038e 00000000 		.4byte	.LVL62
 3315 0392 07000000 		.4byte	.LVL63-1
 3316 0396 0100     		.2byte	0x1
 3317 0398 50       		.byte	0x50
 3318 0399 07000000 		.4byte	.LVL63-1
 3319 039d 1C000000 		.4byte	.LVL65
 3320 03a1 0100     		.2byte	0x1
 3321 03a3 54       		.byte	0x54
 3322 03a4 1C000000 		.4byte	.LVL65
 3323 03a8 24000000 		.4byte	.LFE30
 3324 03ac 0400     		.2byte	0x4
 3325 03ae F3       		.byte	0xf3
 3326 03af 01       		.uleb128 0x1
 3327 03b0 50       		.byte	0x50
 3328 03b1 9F       		.byte	0x9f
 3329 03b2 00000000 		.4byte	0
 3330 03b6 00000000 		.4byte	0
 3331              	.LLST30:
 3332 03ba 08000000 		.4byte	.LVL63
 3333 03be 1B000000 		.4byte	.LVL64-1
 3334 03c2 0100     		.2byte	0x1
 3335 03c4 50       		.byte	0x50
 3336 03c5 00000000 		.4byte	0
 3337 03c9 00000000 		.4byte	0
 3338              	.LLST31:
 3339 03cd 00000000 		.4byte	.LVL66
 3340 03d1 07000000 		.4byte	.LVL67-1
 3341 03d5 0100     		.2byte	0x1
 3342 03d7 50       		.byte	0x50
 3343 03d8 07000000 		.4byte	.LVL67-1
 3344 03dc 1E000000 		.4byte	.LVL69
 3345 03e0 0100     		.2byte	0x1
 3346 03e2 54       		.byte	0x54
 3347 03e3 1E000000 		.4byte	.LVL69
 3348 03e7 24000000 		.4byte	.LFE31
 3349 03eb 0400     		.2byte	0x4
 3350 03ed F3       		.byte	0xf3
ARM GAS  C:\Users\zhiantec\AppData\Local\Temp\ccsSOYXN.s 			page 89


 3351 03ee 01       		.uleb128 0x1
 3352 03ef 50       		.byte	0x50
 3353 03f0 9F       		.byte	0x9f
 3354 03f1 00000000 		.4byte	0
 3355 03f5 00000000 		.4byte	0
 3356              	.LLST32:
 3357 03f9 08000000 		.4byte	.LVL67
 3358 03fd 1D000000 		.4byte	.LVL68-1
 3359 0401 0100     		.2byte	0x1
 3360 0403 50       		.byte	0x50
 3361 0404 00000000 		.4byte	0
 3362 0408 00000000 		.4byte	0
 3363              	.LLST33:
 3364 040c 00000000 		.4byte	.LVL70
 3365 0410 07000000 		.4byte	.LVL71-1
 3366 0414 0100     		.2byte	0x1
 3367 0416 50       		.byte	0x50
 3368 0417 07000000 		.4byte	.LVL71-1
 3369 041b 1E000000 		.4byte	.LVL73
 3370 041f 0100     		.2byte	0x1
 3371 0421 54       		.byte	0x54
 3372 0422 1E000000 		.4byte	.LVL73
 3373 0426 28000000 		.4byte	.LFE32
 3374 042a 0400     		.2byte	0x4
 3375 042c F3       		.byte	0xf3
 3376 042d 01       		.uleb128 0x1
 3377 042e 50       		.byte	0x50
 3378 042f 9F       		.byte	0x9f
 3379 0430 00000000 		.4byte	0
 3380 0434 00000000 		.4byte	0
 3381              	.LLST34:
 3382 0438 08000000 		.4byte	.LVL71
 3383 043c 1D000000 		.4byte	.LVL72-1
 3384 0440 0100     		.2byte	0x1
 3385 0442 50       		.byte	0x50
 3386 0443 00000000 		.4byte	0
 3387 0447 00000000 		.4byte	0
 3388              	.LLST35:
 3389 044b 00000000 		.4byte	.LVL74
 3390 044f 07000000 		.4byte	.LVL75-1
 3391 0453 0100     		.2byte	0x1
 3392 0455 50       		.byte	0x50
 3393 0456 07000000 		.4byte	.LVL75-1
 3394 045a 1E000000 		.4byte	.LVL77
 3395 045e 0100     		.2byte	0x1
 3396 0460 54       		.byte	0x54
 3397 0461 1E000000 		.4byte	.LVL77
 3398 0465 24000000 		.4byte	.LFE33
 3399 0469 0400     		.2byte	0x4
 3400 046b F3       		.byte	0xf3
 3401 046c 01       		.uleb128 0x1
 3402 046d 50       		.byte	0x50
 3403 046e 9F       		.byte	0x9f
 3404 046f 00000000 		.4byte	0
 3405 0473 00000000 		.4byte	0
 3406              	.LLST36:
 3407 0477 08000000 		.4byte	.LVL75
ARM GAS  C:\Users\zhiantec\AppData\Local\Temp\ccsSOYXN.s 			page 90


 3408 047b 1D000000 		.4byte	.LVL76-1
 3409 047f 0100     		.2byte	0x1
 3410 0481 50       		.byte	0x50
 3411 0482 00000000 		.4byte	0
 3412 0486 00000000 		.4byte	0
 3413              	.LLST37:
 3414 048a 00000000 		.4byte	.LVL78
 3415 048e 07000000 		.4byte	.LVL79-1
 3416 0492 0100     		.2byte	0x1
 3417 0494 50       		.byte	0x50
 3418 0495 07000000 		.4byte	.LVL79-1
 3419 0499 1E000000 		.4byte	.LVL81
 3420 049d 0100     		.2byte	0x1
 3421 049f 54       		.byte	0x54
 3422 04a0 1E000000 		.4byte	.LVL81
 3423 04a4 24000000 		.4byte	.LFE34
 3424 04a8 0400     		.2byte	0x4
 3425 04aa F3       		.byte	0xf3
 3426 04ab 01       		.uleb128 0x1
 3427 04ac 50       		.byte	0x50
 3428 04ad 9F       		.byte	0x9f
 3429 04ae 00000000 		.4byte	0
 3430 04b2 00000000 		.4byte	0
 3431              	.LLST38:
 3432 04b6 08000000 		.4byte	.LVL79
 3433 04ba 1D000000 		.4byte	.LVL80-1
 3434 04be 0100     		.2byte	0x1
 3435 04c0 50       		.byte	0x50
 3436 04c1 00000000 		.4byte	0
 3437 04c5 00000000 		.4byte	0
 3438              	.LLST39:
 3439 04c9 00000000 		.4byte	.LVL82
 3440 04cd 0B000000 		.4byte	.LVL83-1
 3441 04d1 0100     		.2byte	0x1
 3442 04d3 50       		.byte	0x50
 3443 04d4 0B000000 		.4byte	.LVL83-1
 3444 04d8 1C000000 		.4byte	.LFE35
 3445 04dc 0400     		.2byte	0x4
 3446 04de F3       		.byte	0xf3
 3447 04df 01       		.uleb128 0x1
 3448 04e0 50       		.byte	0x50
 3449 04e1 9F       		.byte	0x9f
 3450 04e2 00000000 		.4byte	0
 3451 04e6 00000000 		.4byte	0
 3452              	.LLST40:
 3453 04ea 00000000 		.4byte	.LVL82
 3454 04ee 0B000000 		.4byte	.LVL83-1
 3455 04f2 0100     		.2byte	0x1
 3456 04f4 51       		.byte	0x51
 3457 04f5 0B000000 		.4byte	.LVL83-1
 3458 04f9 14000000 		.4byte	.LVL85
 3459 04fd 0100     		.2byte	0x1
 3460 04ff 55       		.byte	0x55
 3461 0500 14000000 		.4byte	.LVL85
 3462 0504 1C000000 		.4byte	.LFE35
 3463 0508 0400     		.2byte	0x4
 3464 050a F3       		.byte	0xf3
ARM GAS  C:\Users\zhiantec\AppData\Local\Temp\ccsSOYXN.s 			page 91


 3465 050b 01       		.uleb128 0x1
 3466 050c 51       		.byte	0x51
 3467 050d 9F       		.byte	0x9f
 3468 050e 00000000 		.4byte	0
 3469 0512 00000000 		.4byte	0
 3470              	.LLST41:
 3471 0516 0C000000 		.4byte	.LVL83
 3472 051a 13000000 		.4byte	.LVL84-1
 3473 051e 0100     		.2byte	0x1
 3474 0520 50       		.byte	0x50
 3475 0521 00000000 		.4byte	0
 3476 0525 00000000 		.4byte	0
 3477              	.LLST42:
 3478 0529 08000000 		.4byte	.LVL86
 3479 052d 13000000 		.4byte	.LVL87-1
 3480 0531 0100     		.2byte	0x1
 3481 0533 50       		.byte	0x50
 3482 0534 00000000 		.4byte	0
 3483 0538 00000000 		.4byte	0
 3484              		.section	.debug_aranges,"",%progbits
 3485 0000 54010000 		.4byte	0x154
 3486 0004 0200     		.2byte	0x2
 3487 0006 00000000 		.4byte	.Ldebug_info0
 3488 000a 04       		.byte	0x4
 3489 000b 00       		.byte	0
 3490 000c 0000     		.2byte	0
 3491 000e 0000     		.2byte	0
 3492 0010 00000000 		.4byte	.LFB2
 3493 0014 40000000 		.4byte	.LFE2-.LFB2
 3494 0018 00000000 		.4byte	.LFB5
 3495 001c 1C000000 		.4byte	.LFE5-.LFB5
 3496 0020 00000000 		.4byte	.LFB6
 3497 0024 28000000 		.4byte	.LFE6-.LFB6
 3498 0028 00000000 		.4byte	.LFB7
 3499 002c 28000000 		.4byte	.LFE7-.LFB7
 3500 0030 00000000 		.4byte	.LFB8
 3501 0034 28000000 		.4byte	.LFE8-.LFB8
 3502 0038 00000000 		.4byte	.LFB9
 3503 003c 2C000000 		.4byte	.LFE9-.LFB9
 3504 0040 00000000 		.4byte	.LFB10
 3505 0044 10000000 		.4byte	.LFE10-.LFB10
 3506 0048 00000000 		.4byte	.LFB11
 3507 004c 28000000 		.4byte	.LFE11-.LFB11
 3508 0050 00000000 		.4byte	.LFB12
 3509 0054 28000000 		.4byte	.LFE12-.LFB12
 3510 0058 00000000 		.4byte	.LFB13
 3511 005c 2C000000 		.4byte	.LFE13-.LFB13
 3512 0060 00000000 		.4byte	.LFB14
 3513 0064 28000000 		.4byte	.LFE14-.LFB14
 3514 0068 00000000 		.4byte	.LFB15
 3515 006c 0C000000 		.4byte	.LFE15-.LFB15
 3516 0070 00000000 		.4byte	.LFB16
 3517 0074 0C000000 		.4byte	.LFE16-.LFB16
 3518 0078 00000000 		.4byte	.LFB17
 3519 007c 28000000 		.4byte	.LFE17-.LFB17
 3520 0080 00000000 		.4byte	.LFB18
 3521 0084 0C000000 		.4byte	.LFE18-.LFB18
ARM GAS  C:\Users\zhiantec\AppData\Local\Temp\ccsSOYXN.s 			page 92


 3522 0088 00000000 		.4byte	.LFB19
 3523 008c 0C000000 		.4byte	.LFE19-.LFB19
 3524 0090 00000000 		.4byte	.LFB20
 3525 0094 24000000 		.4byte	.LFE20-.LFB20
 3526 0098 00000000 		.4byte	.LFB21
 3527 009c 0C000000 		.4byte	.LFE21-.LFB21
 3528 00a0 00000000 		.4byte	.LFB22
 3529 00a4 0C000000 		.4byte	.LFE22-.LFB22
 3530 00a8 00000000 		.4byte	.LFB23
 3531 00ac 28000000 		.4byte	.LFE23-.LFB23
 3532 00b0 00000000 		.4byte	.LFB24
 3533 00b4 0C000000 		.4byte	.LFE24-.LFB24
 3534 00b8 00000000 		.4byte	.LFB25
 3535 00bc 0C000000 		.4byte	.LFE25-.LFB25
 3536 00c0 00000000 		.4byte	.LFB26
 3537 00c4 0C000000 		.4byte	.LFE26-.LFB26
 3538 00c8 00000000 		.4byte	.LFB27
 3539 00cc 0C000000 		.4byte	.LFE27-.LFB27
 3540 00d0 00000000 		.4byte	.LFB28
 3541 00d4 0C000000 		.4byte	.LFE28-.LFB28
 3542 00d8 00000000 		.4byte	.LFB29
 3543 00dc 0C000000 		.4byte	.LFE29-.LFB29
 3544 00e0 00000000 		.4byte	.LFB30
 3545 00e4 24000000 		.4byte	.LFE30-.LFB30
 3546 00e8 00000000 		.4byte	.LFB31
 3547 00ec 24000000 		.4byte	.LFE31-.LFB31
 3548 00f0 00000000 		.4byte	.LFB32
 3549 00f4 28000000 		.4byte	.LFE32-.LFB32
 3550 00f8 00000000 		.4byte	.LFB33
 3551 00fc 24000000 		.4byte	.LFE33-.LFB33
 3552 0100 00000000 		.4byte	.LFB34
 3553 0104 24000000 		.4byte	.LFE34-.LFB34
 3554 0108 00000000 		.4byte	.LFB35
 3555 010c 1C000000 		.4byte	.LFE35-.LFB35
 3556 0110 00000000 		.4byte	.LFB3
 3557 0114 24000000 		.4byte	.LFE3-.LFB3
 3558 0118 00000000 		.4byte	.LFB4
 3559 011c 1C000000 		.4byte	.LFE4-.LFB4
 3560 0120 00000000 		.4byte	.LFB36
 3561 0124 14000000 		.4byte	.LFE36-.LFB36
 3562 0128 00000000 		.4byte	.LFB37
 3563 012c 0C000000 		.4byte	.LFE37-.LFB37
 3564 0130 00000000 		.4byte	.LFB38
 3565 0134 0C000000 		.4byte	.LFE38-.LFB38
 3566 0138 00000000 		.4byte	.LFB39
 3567 013c 0C000000 		.4byte	.LFE39-.LFB39
 3568 0140 00000000 		.4byte	.LFB40
 3569 0144 0C000000 		.4byte	.LFE40-.LFB40
 3570 0148 00000000 		.4byte	.LFB41
 3571 014c 0C000000 		.4byte	.LFE41-.LFB41
 3572 0150 00000000 		.4byte	0
 3573 0154 00000000 		.4byte	0
 3574              		.section	.debug_ranges,"",%progbits
 3575              	.Ldebug_ranges0:
 3576 0000 0C000000 		.4byte	.LBB10
 3577 0004 0E000000 		.4byte	.LBE10
 3578 0008 1E000000 		.4byte	.LBB18
ARM GAS  C:\Users\zhiantec\AppData\Local\Temp\ccsSOYXN.s 			page 93


 3579 000c 20000000 		.4byte	.LBE18
 3580 0010 20000000 		.4byte	.LBB19
 3581 0014 22000000 		.4byte	.LBE19
 3582 0018 00000000 		.4byte	0
 3583 001c 00000000 		.4byte	0
 3584 0020 00000000 		.4byte	.LFB2
 3585 0024 40000000 		.4byte	.LFE2
 3586 0028 00000000 		.4byte	.LFB5
 3587 002c 1C000000 		.4byte	.LFE5
 3588 0030 00000000 		.4byte	.LFB6
 3589 0034 28000000 		.4byte	.LFE6
 3590 0038 00000000 		.4byte	.LFB7
 3591 003c 28000000 		.4byte	.LFE7
 3592 0040 00000000 		.4byte	.LFB8
 3593 0044 28000000 		.4byte	.LFE8
 3594 0048 00000000 		.4byte	.LFB9
 3595 004c 2C000000 		.4byte	.LFE9
 3596 0050 00000000 		.4byte	.LFB10
 3597 0054 10000000 		.4byte	.LFE10
 3598 0058 00000000 		.4byte	.LFB11
 3599 005c 28000000 		.4byte	.LFE11
 3600 0060 00000000 		.4byte	.LFB12
 3601 0064 28000000 		.4byte	.LFE12
 3602 0068 00000000 		.4byte	.LFB13
 3603 006c 2C000000 		.4byte	.LFE13
 3604 0070 00000000 		.4byte	.LFB14
 3605 0074 28000000 		.4byte	.LFE14
 3606 0078 00000000 		.4byte	.LFB15
 3607 007c 0C000000 		.4byte	.LFE15
 3608 0080 00000000 		.4byte	.LFB16
 3609 0084 0C000000 		.4byte	.LFE16
 3610 0088 00000000 		.4byte	.LFB17
 3611 008c 28000000 		.4byte	.LFE17
 3612 0090 00000000 		.4byte	.LFB18
 3613 0094 0C000000 		.4byte	.LFE18
 3614 0098 00000000 		.4byte	.LFB19
 3615 009c 0C000000 		.4byte	.LFE19
 3616 00a0 00000000 		.4byte	.LFB20
 3617 00a4 24000000 		.4byte	.LFE20
 3618 00a8 00000000 		.4byte	.LFB21
 3619 00ac 0C000000 		.4byte	.LFE21
 3620 00b0 00000000 		.4byte	.LFB22
 3621 00b4 0C000000 		.4byte	.LFE22
 3622 00b8 00000000 		.4byte	.LFB23
 3623 00bc 28000000 		.4byte	.LFE23
 3624 00c0 00000000 		.4byte	.LFB24
 3625 00c4 0C000000 		.4byte	.LFE24
 3626 00c8 00000000 		.4byte	.LFB25
 3627 00cc 0C000000 		.4byte	.LFE25
 3628 00d0 00000000 		.4byte	.LFB26
 3629 00d4 0C000000 		.4byte	.LFE26
 3630 00d8 00000000 		.4byte	.LFB27
 3631 00dc 0C000000 		.4byte	.LFE27
 3632 00e0 00000000 		.4byte	.LFB28
 3633 00e4 0C000000 		.4byte	.LFE28
 3634 00e8 00000000 		.4byte	.LFB29
 3635 00ec 0C000000 		.4byte	.LFE29
ARM GAS  C:\Users\zhiantec\AppData\Local\Temp\ccsSOYXN.s 			page 94


 3636 00f0 00000000 		.4byte	.LFB30
 3637 00f4 24000000 		.4byte	.LFE30
 3638 00f8 00000000 		.4byte	.LFB31
 3639 00fc 24000000 		.4byte	.LFE31
 3640 0100 00000000 		.4byte	.LFB32
 3641 0104 28000000 		.4byte	.LFE32
 3642 0108 00000000 		.4byte	.LFB33
 3643 010c 24000000 		.4byte	.LFE33
 3644 0110 00000000 		.4byte	.LFB34
 3645 0114 24000000 		.4byte	.LFE34
 3646 0118 00000000 		.4byte	.LFB35
 3647 011c 1C000000 		.4byte	.LFE35
 3648 0120 00000000 		.4byte	.LFB3
 3649 0124 24000000 		.4byte	.LFE3
 3650 0128 00000000 		.4byte	.LFB4
 3651 012c 1C000000 		.4byte	.LFE4
 3652 0130 00000000 		.4byte	.LFB36
 3653 0134 14000000 		.4byte	.LFE36
 3654 0138 00000000 		.4byte	.LFB37
 3655 013c 0C000000 		.4byte	.LFE37
 3656 0140 00000000 		.4byte	.LFB38
 3657 0144 0C000000 		.4byte	.LFE38
 3658 0148 00000000 		.4byte	.LFB39
 3659 014c 0C000000 		.4byte	.LFE39
 3660 0150 00000000 		.4byte	.LFB40
 3661 0154 0C000000 		.4byte	.LFE40
 3662 0158 00000000 		.4byte	.LFB41
 3663 015c 0C000000 		.4byte	.LFE41
 3664 0160 00000000 		.4byte	0
 3665 0164 00000000 		.4byte	0
 3666              		.section	.debug_line,"",%progbits
 3667              	.Ldebug_line0:
 3668 0000 F1030000 		.section	.debug_str,"MS",%progbits,1
 3668      02005300 
 3668      00000201 
 3668      FB0E0D00 
 3668      01010101 
 3669              	.LASF23:
 3670 0000 636F756E 		.ascii	"count\000"
 3670      7400
 3671              	.LASF76:
 3672 0006 474E5520 		.ascii	"GNU C 4.9.3 20150303 (release) [ARM/embedded-4_9-br"
 3672      4320342E 
 3672      392E3320 
 3672      32303135 
 3672      30333033 
 3673 0039 616E6368 		.ascii	"anch revision 221220] -mcpu=cortex-m0 -mthumb -g -O"
 3673      20726576 
 3673      6973696F 
 3673      6E203232 
 3673      31323230 
 3674 006c 73202D66 		.ascii	"s -ffunction-sections -ffat-lto-objects\000"
 3674      66756E63 
 3674      74696F6E 
 3674      2D736563 
 3674      74696F6E 
 3675              	.LASF81:
ARM GAS  C:\Users\zhiantec\AppData\Local\Temp\ccsSOYXN.s 			page 95


 3676 0094 43794578 		.ascii	"CyExitCriticalSection\000"
 3676      69744372 
 3676      69746963 
 3676      616C5365 
 3676      6374696F 
 3677              	.LASF16:
 3678 00aa 54696D65 		.ascii	"Timer_100ms_SetInterruptMode\000"
 3678      725F3130 
 3678      306D735F 
 3678      53657449 
 3678      6E746572 
 3679              	.LASF64:
 3680 00c7 54696D65 		.ascii	"Timer_100ms_SetStartMode\000"
 3680      725F3130 
 3680      306D735F 
 3680      53657453 
 3680      74617274 
 3681              	.LASF77:
 3682 00e0 47656E65 		.ascii	"Generated_Source\\PSoC4\\Timer_100ms.c\000"
 3682      72617465 
 3682      645F536F 
 3682      75726365 
 3682      5C50536F 
 3683              	.LASF19:
 3684 0105 70657269 		.ascii	"period\000"
 3684      6F6400
 3685              	.LASF20:
 3686 010c 54696D65 		.ascii	"Timer_100ms_WriteCompare\000"
 3686      725F3130 
 3686      306D735F 
 3686      57726974 
 3686      65436F6D 
 3687              	.LASF7:
 3688 0125 6C6F6E67 		.ascii	"long long unsigned int\000"
 3688      206C6F6E 
 3688      6720756E 
 3688      7369676E 
 3688      65642069 
 3689              	.LASF33:
 3690 013c 54696D65 		.ascii	"Timer_100ms_SetOneShot\000"
 3690      725F3130 
 3690      306D735F 
 3690      5365744F 
 3690      6E655368 
 3691              	.LASF78:
 3692 0153 433A5C55 		.ascii	"C:\\Users\\zhiantec\\Documents\\Tencent Files\\1241"
 3692      73657273 
 3692      5C7A6869 
 3692      616E7465 
 3692      635C446F 
 3693 0181 39333938 		.ascii	"939835\\FileRecv\\MobileFile\\second_images[4-8]\\E"
 3693      33355C46 
 3693      696C6552 
 3693      6563765C 
 3693      4D6F6269 
 3694 01b0 6E747261 		.ascii	"ntranceGuard_171019-12.50\\EntranceGuard.cydsn\000"
 3694      6E636547 
ARM GAS  C:\Users\zhiantec\AppData\Local\Temp\ccsSOYXN.s 			page 96


 3694      75617264 
 3694      5F313731 
 3694      3031392D 
 3695              	.LASF30:
 3696 01de 71644D6F 		.ascii	"qdMode\000"
 3696      646500
 3697              	.LASF56:
 3698 01e5 54696D65 		.ascii	"Timer_100ms_WriteCompareBuf\000"
 3698      725F3130 
 3698      306D735F 
 3698      57726974 
 3698      65436F6D 
 3699              	.LASF70:
 3700 0201 54696D65 		.ascii	"Timer_100ms_Start\000"
 3700      725F3130 
 3700      306D735F 
 3700      53746172 
 3700      7400
 3701              	.LASF6:
 3702 0213 6C6F6E67 		.ascii	"long long int\000"
 3702      206C6F6E 
 3702      6720696E 
 3702      7400
 3703              	.LASF0:
 3704 0221 7369676E 		.ascii	"signed char\000"
 3704      65642063 
 3704      68617200 
 3705              	.LASF55:
 3706 022d 54696D65 		.ascii	"Timer_100ms_ReadCompare\000"
 3706      725F3130 
 3706      306D735F 
 3706      52656164 
 3706      436F6D70 
 3707              	.LASF4:
 3708 0245 6C6F6E67 		.ascii	"long int\000"
 3708      20696E74 
 3708      00
 3709              	.LASF31:
 3710 024e 54696D65 		.ascii	"Timer_100ms_SetPrescaler\000"
 3710      725F3130 
 3710      306D735F 
 3710      53657450 
 3710      72657363 
 3711              	.LASF22:
 3712 0267 54696D65 		.ascii	"Timer_100ms_WriteCounter\000"
 3712      725F3130 
 3712      306D735F 
 3712      57726974 
 3712      65436F75 
 3713              	.LASF9:
 3714 0280 75696E74 		.ascii	"uint8\000"
 3714      3800
 3715              	.LASF35:
 3716 0286 54696D65 		.ascii	"Timer_100ms_SetPWMMode\000"
 3716      725F3130 
 3716      306D735F 
 3716      53657450 
ARM GAS  C:\Users\zhiantec\AppData\Local\Temp\ccsSOYXN.s 			page 97


 3716      574D4D6F 
 3717              	.LASF12:
 3718 029d 646F7562 		.ascii	"double\000"
 3718      6C6500
 3719              	.LASF10:
 3720 02a4 75696E74 		.ascii	"uint32\000"
 3720      333200
 3721              	.LASF62:
 3722 02ab 74726967 		.ascii	"triggerMode\000"
 3722      6765724D 
 3722      6F646500 
 3723              	.LASF44:
 3724 02b7 6D61736B 		.ascii	"mask\000"
 3724      00
 3725              	.LASF24:
 3726 02bc 54696D65 		.ascii	"Timer_100ms_Init\000"
 3726      725F3130 
 3726      306D735F 
 3726      496E6974 
 3726      00
 3727              	.LASF42:
 3728 02cd 64656164 		.ascii	"deadTime\000"
 3728      54696D65 
 3728      00
 3729              	.LASF47:
 3730 02d6 54696D65 		.ascii	"Timer_100ms_ReadCounter\000"
 3730      725F3130 
 3730      306D735F 
 3730      52656164 
 3730      436F756E 
 3731              	.LASF8:
 3732 02ee 756E7369 		.ascii	"unsigned int\000"
 3732      676E6564 
 3732      20696E74 
 3732      00
 3733              	.LASF53:
 3734 02fb 54696D65 		.ascii	"Timer_100ms_ReadPeriodBuf\000"
 3734      725F3130 
 3734      306D735F 
 3734      52656164 
 3734      50657269 
 3735              	.LASF43:
 3736 0315 54696D65 		.ascii	"Timer_100ms_SetPWMInvert\000"
 3736      725F3130 
 3736      306D735F 
 3736      53657450 
 3736      574D496E 
 3737              	.LASF5:
 3738 032e 6C6F6E67 		.ascii	"long unsigned int\000"
 3738      20756E73 
 3738      69676E65 
 3738      6420696E 
 3738      7400
 3739              	.LASF36:
 3740 0340 6D6F6465 		.ascii	"modeMask\000"
 3740      4D61736B 
 3740      00
ARM GAS  C:\Users\zhiantec\AppData\Local\Temp\ccsSOYXN.s 			page 98


 3741              	.LASF80:
 3742 0349 4379456E 		.ascii	"CyEnterCriticalSection\000"
 3742      74657243 
 3742      72697469 
 3742      63616C53 
 3742      65637469 
 3743              	.LASF28:
 3744 0360 54696D65 		.ascii	"Timer_100ms_SetQDMode\000"
 3744      725F3130 
 3744      306D735F 
 3744      53657451 
 3744      444D6F64 
 3745              	.LASF60:
 3746 0376 54696D65 		.ascii	"Timer_100ms_ReadCaptureBuf\000"
 3746      725F3130 
 3746      306D735F 
 3746      52656164 
 3746      43617074 
 3747              	.LASF3:
 3748 0391 73686F72 		.ascii	"short unsigned int\000"
 3748      7420756E 
 3748      7369676E 
 3748      65642069 
 3748      6E7400
 3749              	.LASF17:
 3750 03a4 54696D65 		.ascii	"Timer_100ms_WritePeriod\000"
 3750      725F3130 
 3750      306D735F 
 3750      57726974 
 3750      65506572 
 3751              	.LASF54:
 3752 03bc 54696D65 		.ascii	"Timer_100ms_SetPeriodSwap\000"
 3752      725F3130 
 3752      306D735F 
 3752      53657450 
 3752      6572696F 
 3753              	.LASF34:
 3754 03d6 6F6E6553 		.ascii	"oneShotEnable\000"
 3754      686F7445 
 3754      6E61626C 
 3754      6500
 3755              	.LASF14:
 3756 03e4 72656733 		.ascii	"reg32\000"
 3756      3200
 3757              	.LASF65:
 3758 03ea 54696D65 		.ascii	"Timer_100ms_SetStopMode\000"
 3758      725F3130 
 3758      306D735F 
 3758      53657453 
 3758      746F704D 
 3759              	.LASF15:
 3760 0402 73697A65 		.ascii	"sizetype\000"
 3760      74797065 
 3760      00
 3761              	.LASF51:
 3762 040b 54696D65 		.ascii	"Timer_100ms_WritePeriodBuf\000"
 3762      725F3130 
ARM GAS  C:\Users\zhiantec\AppData\Local\Temp\ccsSOYXN.s 			page 99


 3762      306D735F 
 3762      57726974 
 3762      65506572 
 3763              	.LASF48:
 3764 0426 54696D65 		.ascii	"Timer_100ms_ReadPeriod\000"
 3764      725F3130 
 3764      306D735F 
 3764      52656164 
 3764      50657269 
 3765              	.LASF79:
 3766 043d 54696D65 		.ascii	"Timer_100ms_initVar\000"
 3766      725F3130 
 3766      306D735F 
 3766      696E6974 
 3766      56617200 
 3767              	.LASF38:
 3768 0451 73796E63 		.ascii	"syncKillEnable\000"
 3768      4B696C6C 
 3768      456E6162 
 3768      6C6500
 3769              	.LASF45:
 3770 0460 54696D65 		.ascii	"Timer_100ms_SetCounterMode\000"
 3770      725F3130 
 3770      306D735F 
 3770      53657443 
 3770      6F756E74 
 3771              	.LASF21:
 3772 047b 636F6D70 		.ascii	"compare\000"
 3772      61726500 
 3773              	.LASF37:
 3774 0483 54696D65 		.ascii	"Timer_100ms_SetPWMSyncKill\000"
 3774      725F3130 
 3774      306D735F 
 3774      53657450 
 3774      574D5379 
 3775              	.LASF63:
 3776 049e 54696D65 		.ascii	"Timer_100ms_SetReloadMode\000"
 3776      725F3130 
 3776      306D735F 
 3776      53657452 
 3776      656C6F61 
 3777              	.LASF73:
 3778 04b8 54696D65 		.ascii	"Timer_100ms_GetInterruptSource\000"
 3778      725F3130 
 3778      306D735F 
 3778      47657449 
 3778      6E746572 
 3779              	.LASF11:
 3780 04d7 666C6F61 		.ascii	"float\000"
 3780      7400
 3781              	.LASF32:
 3782 04dd 70726573 		.ascii	"prescaler\000"
 3782      63616C65 
 3782      7200
 3783              	.LASF26:
 3784 04e7 54696D65 		.ascii	"Timer_100ms_SetMode\000"
 3784      725F3130 
ARM GAS  C:\Users\zhiantec\AppData\Local\Temp\ccsSOYXN.s 			page 100


 3784      306D735F 
 3784      5365744D 
 3784      6F646500 
 3785              	.LASF61:
 3786 04fb 54696D65 		.ascii	"Timer_100ms_SetCaptureMode\000"
 3786      725F3130 
 3786      306D735F 
 3786      53657443 
 3786      61707475 
 3787              	.LASF1:
 3788 0516 756E7369 		.ascii	"unsigned char\000"
 3788      676E6564 
 3788      20636861 
 3788      7200
 3789              	.LASF40:
 3790 0524 73746F70 		.ascii	"stopOnKillEnable\000"
 3790      4F6E4B69 
 3790      6C6C456E 
 3790      61626C65 
 3790      00
 3791              	.LASF2:
 3792 0535 73686F72 		.ascii	"short int\000"
 3792      7420696E 
 3792      7400
 3793              	.LASF72:
 3794 053f 54696D65 		.ascii	"Timer_100ms_GetInterruptSourceMasked\000"
 3794      725F3130 
 3794      306D735F 
 3794      47657449 
 3794      6E746572 
 3795              	.LASF18:
 3796 0564 696E7465 		.ascii	"interruptMask\000"
 3796      72727570 
 3796      744D6173 
 3796      6B00
 3797              	.LASF74:
 3798 0572 54696D65 		.ascii	"Timer_100ms_ClearInterrupt\000"
 3798      725F3130 
 3798      306D735F 
 3798      436C6561 
 3798      72496E74 
 3799              	.LASF13:
 3800 058d 63686172 		.ascii	"char\000"
 3800      00
 3801              	.LASF29:
 3802 0592 6D6F6465 		.ascii	"mode\000"
 3802      00
 3803              	.LASF58:
 3804 0597 54696D65 		.ascii	"Timer_100ms_ReadCompareBuf\000"
 3804      725F3130 
 3804      306D735F 
 3804      52656164 
 3804      436F6D70 
 3805              	.LASF69:
 3806 05b2 54696D65 		.ascii	"Timer_100ms_Enable\000"
 3806      725F3130 
 3806      306D735F 
ARM GAS  C:\Users\zhiantec\AppData\Local\Temp\ccsSOYXN.s 			page 101


 3806      456E6162 
 3806      6C6500
 3807              	.LASF49:
 3808 05c5 54696D65 		.ascii	"Timer_100ms_SetCompareSwap\000"
 3808      725F3130 
 3808      306D735F 
 3808      53657443 
 3808      6F6D7061 
 3809              	.LASF68:
 3810 05e0 636F6D6D 		.ascii	"command\000"
 3810      616E6400 
 3811              	.LASF59:
 3812 05e8 54696D65 		.ascii	"Timer_100ms_ReadCapture\000"
 3812      725F3130 
 3812      306D735F 
 3812      52656164 
 3812      43617074 
 3813              	.LASF46:
 3814 0600 636F756E 		.ascii	"counterMode\000"
 3814      7465724D 
 3814      6F646500 
 3815              	.LASF39:
 3816 060c 54696D65 		.ascii	"Timer_100ms_SetPWMStopOnKill\000"
 3816      725F3130 
 3816      306D735F 
 3816      53657450 
 3816      574D5374 
 3817              	.LASF57:
 3818 0629 636F6D70 		.ascii	"compareBuf\000"
 3818      61726542 
 3818      756600
 3819              	.LASF71:
 3820 0634 54696D65 		.ascii	"Timer_100ms_ReadStatus\000"
 3820      725F3130 
 3820      306D735F 
 3820      52656164 
 3820      53746174 
 3821              	.LASF27:
 3822 064b 656E6162 		.ascii	"enableInterrupts\000"
 3822      6C65496E 
 3822      74657272 
 3822      75707473 
 3822      00
 3823              	.LASF75:
 3824 065c 54696D65 		.ascii	"Timer_100ms_SetInterrupt\000"
 3824      725F3130 
 3824      306D735F 
 3824      53657449 
 3824      6E746572 
 3825              	.LASF25:
 3826 0675 54696D65 		.ascii	"Timer_100ms_Stop\000"
 3826      725F3130 
 3826      306D735F 
 3826      53746F70 
 3826      00
 3827              	.LASF41:
 3828 0686 54696D65 		.ascii	"Timer_100ms_SetPWMDeadTime\000"
ARM GAS  C:\Users\zhiantec\AppData\Local\Temp\ccsSOYXN.s 			page 102


 3828      725F3130 
 3828      306D735F 
 3828      53657450 
 3828      574D4465 
 3829              	.LASF50:
 3830 06a1 73776170 		.ascii	"swapEnable\000"
 3830      456E6162 
 3830      6C6500
 3831              	.LASF67:
 3832 06ac 54696D65 		.ascii	"Timer_100ms_TriggerCommand\000"
 3832      725F3130 
 3832      306D735F 
 3832      54726967 
 3832      67657243 
 3833              	.LASF52:
 3834 06c7 70657269 		.ascii	"periodBuf\000"
 3834      6F644275 
 3834      6600
 3835              	.LASF66:
 3836 06d1 54696D65 		.ascii	"Timer_100ms_SetCountMode\000"
 3836      725F3130 
 3836      306D735F 
 3836      53657443 
 3836      6F756E74 
 3837              		.ident	"GCC: (GNU Tools for ARM Embedded Processors) 4.9.3 20150303 (release) [ARM/embedded-4_9-br
