ARM GAS  C:\Users\Administrator\AppData\Local\Temp\ccDtb8Uo.s 			page 1


   1              		.cpu cortex-m0
   2              		.fpu softvfp
   3              		.eabi_attribute 20, 1
   4              		.eabi_attribute 21, 1
   5              		.eabi_attribute 23, 3
   6              		.eabi_attribute 24, 1
   7              		.eabi_attribute 25, 1
   8              		.eabi_attribute 26, 1
   9              		.eabi_attribute 30, 4
  10              		.eabi_attribute 34, 0
  11              		.eabi_attribute 18, 4
  12              		.code	16
  13              		.file	"Uart433.c"
  14              		.text
  15              	.Ltext0:
  16              		.cfi_sections	.debug_frame
  17              		.section	.text.Uart433Send,"ax",%progbits
  18              		.align	1
  19              		.global	Uart433Send
  20              		.code	16
  21              		.thumb_func
  22              		.type	Uart433Send, %function
  23              	Uart433Send:
  24              	.LFB63:
  25              		.file 1 "Code\\Device\\GPRS\\Uart433.c"
   1:Code\Device\GPRS/Uart433.c **** //*************************************************************************************************
   2:Code\Device\GPRS/Uart433.c **** // File name		: Protocol_CmdParse.c
   3:Code\Device\GPRS/Uart433.c **** // Description		: GPRS命令解析的相关函数
   4:Code\Device\GPRS/Uart433.c **** // Author			: Keno
   5:Code\Device\GPRS/Uart433.c **** // Date				: 2016.8.8
   6:Code\Device\GPRS/Uart433.c **** // Version			: V02
   7:Code\Device\GPRS/Uart433.c **** //-------------------------------------------------------------------------------------------------
   8:Code\Device\GPRS/Uart433.c **** // Info				: 
   9:Code\Device\GPRS/Uart433.c **** //*************************************************************************************************
  10:Code\Device\GPRS/Uart433.c **** #include "Uart433.h"
  11:Code\Device\GPRS/Uart433.c **** #include "config.h"
  12:Code\Device\GPRS/Uart433.c **** 
  13:Code\Device\GPRS/Uart433.c **** 
  14:Code\Device\GPRS/Uart433.c **** //******************************************* 外部变量声明 ****************************************
  15:Code\Device\GPRS/Uart433.c **** extern volatile char  GPRS_AT_Buf[64];      					// AT指令缓存，用于AT指令解析			//
  16:Code\Device\GPRS/Uart433.c **** extern volatile uint8 GPRS_AT_RecFinish;
  17:Code\Device\GPRS/Uart433.c **** 
  18:Code\Device\GPRS/Uart433.c **** extern volatile uint8 GPRSCmdParseFlag1;
  19:Code\Device\GPRS/Uart433.c **** extern volatile uint8 GPRSCmdParseFlag2;
  20:Code\Device\GPRS/Uart433.c **** extern volatile uint8 GPRSCmd_buf1[DATABUF_SIZE];
  21:Code\Device\GPRS/Uart433.c **** extern volatile uint8 GPRSCmd_buf2[DATABUF_SIZE];
  22:Code\Device\GPRS/Uart433.c **** 
  23:Code\Device\GPRS/Uart433.c **** 
  24:Code\Device\GPRS/Uart433.c **** 
  25:Code\Device\GPRS/Uart433.c **** //********************************************* 变量声明 ******************************************
  26:Code\Device\GPRS/Uart433.c **** volatile uint8  RecvType = 0;
  27:Code\Device\GPRS/Uart433.c **** 
  28:Code\Device\GPRS/Uart433.c **** volatile char   GPRS_AT_RecBuf[64];
  29:Code\Device\GPRS/Uart433.c **** volatile uint8  AT_RecvSta;
  30:Code\Device\GPRS/Uart433.c **** volatile uint8  AT_index;
  31:Code\Device\GPRS/Uart433.c **** 
  32:Code\Device\GPRS/Uart433.c **** volatile uint8  CmdRev_buf[DATABUF_SIZE];
ARM GAS  C:\Users\Administrator\AppData\Local\Temp\ccDtb8Uo.s 			page 2


  33:Code\Device\GPRS/Uart433.c **** volatile uint16 Cmd_Baglen;
  34:Code\Device\GPRS/Uart433.c **** volatile uint8  Cmd_Revsta;
  35:Code\Device\GPRS/Uart433.c **** volatile uint16 Cmd_index;
  36:Code\Device\GPRS/Uart433.c **** 
  37:Code\Device\GPRS/Uart433.c **** 
  38:Code\Device\GPRS/Uart433.c **** 
  39:Code\Device\GPRS/Uart433.c **** //*************************************************************************************************
  40:Code\Device\GPRS/Uart433.c **** // Function name	: Uart433Send
  41:Code\Device\GPRS/Uart433.c **** // Description		: 串口发送指定大小的数据
  42:Code\Device\GPRS/Uart433.c **** // Parameter		: *data
  43:Code\Device\GPRS/Uart433.c **** //					: size
  44:Code\Device\GPRS/Uart433.c **** // Return			: none
  45:Code\Device\GPRS/Uart433.c **** //-------------------------------------------------------------------------------------------------
  46:Code\Device\GPRS/Uart433.c **** // Info				: 通用的发送数据给GPRS模块的函数.
  47:Code\Device\GPRS/Uart433.c **** //*************************************************************************************************
  48:Code\Device\GPRS/Uart433.c **** void Uart433Send(uint8 *data, uint16 size)
  49:Code\Device\GPRS/Uart433.c **** {
  26              		.loc 1 49 0
  27              		.cfi_startproc
  28              	.LVL0:
  29 0000 38B5     		push	{r3, r4, r5, lr}
  30              		.cfi_def_cfa_offset 16
  31              		.cfi_offset 3, -16
  32              		.cfi_offset 4, -12
  33              		.cfi_offset 5, -8
  34              		.cfi_offset 14, -4
  35 0002 041C     		mov	r4, r0
  36 0004 4518     		add	r5, r0, r1
  37              	.LVL1:
  38              	.L2:
  50:Code\Device\GPRS/Uart433.c ****     uint16 i;
  51:Code\Device\GPRS/Uart433.c ****     
  52:Code\Device\GPRS/Uart433.c ****     for (i = 0; i < size; i++)
  39              		.loc 1 52 0 discriminator 1
  40 0006 AC42     		cmp	r4, r5
  41 0008 04D0     		beq	.L5
  53:Code\Device\GPRS/Uart433.c ****     {
  54:Code\Device\GPRS/Uart433.c **** 		UART_433_UartPutChar(data[i]);
  42              		.loc 1 54 0 discriminator 3
  43 000a 2078     		ldrb	r0, [r4]
  44 000c FFF7FEFF 		bl	UART_433_SpiUartWriteTxData
  45              	.LVL2:
  46 0010 0134     		add	r4, r4, #1
  47              	.LVL3:
  48 0012 F8E7     		b	.L2
  49              	.LVL4:
  50              	.L5:
  55:Code\Device\GPRS/Uart433.c ****     }
  56:Code\Device\GPRS/Uart433.c **** }
  51              		.loc 1 56 0
  52              		@ sp needed
  53              	.LVL5:
  54 0014 38BD     		pop	{r3, r4, r5, pc}
  55              		.cfi_endproc
  56              	.LFE63:
  57              		.size	Uart433Send, .-Uart433Send
  58              		.section	.text.Uart433Recv,"ax",%progbits
ARM GAS  C:\Users\Administrator\AppData\Local\Temp\ccDtb8Uo.s 			page 3


  59              		.align	1
  60              		.global	Uart433Recv
  61              		.code	16
  62              		.thumb_func
  63              		.type	Uart433Recv, %function
  64              	Uart433Recv:
  65              	.LFB64:
  57:Code\Device\GPRS/Uart433.c **** 
  58:Code\Device\GPRS/Uart433.c **** //*************************************************************************************************
  59:Code\Device\GPRS/Uart433.c **** // Function name	: Uart433Recv
  60:Code\Device\GPRS/Uart433.c **** // Description		: 串口接收GPRS模块的数据
  61:Code\Device\GPRS/Uart433.c **** // Parameter		: none
  62:Code\Device\GPRS/Uart433.c **** // Return			: none
  63:Code\Device\GPRS/Uart433.c **** //-------------------------------------------------------------------------------------------------
  64:Code\Device\GPRS/Uart433.c **** // Info				: 在串口中断中调用
  65:Code\Device\GPRS/Uart433.c **** //-------------------------------------------------------------------------------------------------
  66:Code\Device\GPRS/Uart433.c **** // 注意				: '>'括号后没有换行；
  67:Code\Device\GPRS/Uart433.c **** //*************************************************************************************************
  68:Code\Device\GPRS/Uart433.c **** void Uart433Recv(uint8 uData)
  69:Code\Device\GPRS/Uart433.c **** {
  66              		.loc 1 69 0
  67              		.cfi_startproc
  68              	.LVL6:
  69 0000 70B5     		push	{r4, r5, r6, lr}
  70              		.cfi_def_cfa_offset 16
  71              		.cfi_offset 4, -16
  72              		.cfi_offset 5, -12
  73              		.cfi_offset 6, -8
  74              		.cfi_offset 14, -4
  70:Code\Device\GPRS/Uart433.c **** 	switch (AT_RecvSta)
  75              		.loc 1 70 0
  76 0002 674B     		ldr	r3, .L32
  69:Code\Device\GPRS/Uart433.c **** 	switch (AT_RecvSta)
  77              		.loc 1 69 0
  78 0004 041C     		mov	r4, r0
  79              		.loc 1 70 0
  80 0006 1878     		ldrb	r0, [r3]
  81              	.LVL7:
  82 0008 C0B2     		uxtb	r0, r0
  83 000a 0428     		cmp	r0, #4
  84 000c 5ED8     		bhi	.L7
  85 000e FFF7FEFF 		bl	__gnu_thumb1_case_uqi
  86              	.L9:
  87 0012 03       		.byte	(.L8-.L9)/2
  88 0013 13       		.byte	(.L10-.L9)/2
  89 0014 20       		.byte	(.L11-.L9)/2
  90 0015 5D       		.byte	(.L7-.L9)/2
  91 0016 3D       		.byte	(.L12-.L9)/2
  92 0017 00       		.p2align 1
  93              	.L8:
  71:Code\Device\GPRS/Uart433.c **** 	{
  72:Code\Device\GPRS/Uart433.c **** 		case HEAD_R:
  73:Code\Device\GPRS/Uart433.c **** 			if ((uData == '\r') && (RecvType == 0))
  94              		.loc 1 73 0
  95 0018 0D2C     		cmp	r4, #13
  96 001a 57D1     		bne	.L7
  97              		.loc 1 73 0 is_stmt 0 discriminator 1
ARM GAS  C:\Users\Administrator\AppData\Local\Temp\ccDtb8Uo.s 			page 4


  98 001c 6149     		ldr	r1, .L32+4
  99 001e 0A78     		ldrb	r2, [r1]
 100 0020 D2B2     		uxtb	r2, r2
 101 0022 002A     		cmp	r2, #0
 102 0024 52D1     		bne	.L7
  74:Code\Device\GPRS/Uart433.c **** 			{
  75:Code\Device\GPRS/Uart433.c **** 				RecvType = 1;
 103              		.loc 1 75 0 is_stmt 1
 104 0026 0120     		mov	r0, #1
 105 0028 0870     		strb	r0, [r1]
  76:Code\Device\GPRS/Uart433.c **** 				AT_index = 0;
 106              		.loc 1 76 0
 107 002a 5F49     		ldr	r1, .L32+8
 108 002c 0A70     		strb	r2, [r1]
  77:Code\Device\GPRS/Uart433.c **** 				AT_RecvSta = HEAD_N;
 109              		.loc 1 77 0
 110 002e 1870     		strb	r0, [r3]
  78:Code\Device\GPRS/Uart433.c **** 				GPRS_AT_RecBuf[AT_index++] = uData;
 111              		.loc 1 78 0
 112 0030 0B78     		ldrb	r3, [r1]
 113 0032 DBB2     		uxtb	r3, r3
 114 0034 1A18     		add	r2, r3, r0
 115 0036 07E0     		b	.L27
 116              	.L10:
  79:Code\Device\GPRS/Uart433.c **** 			}
  80:Code\Device\GPRS/Uart433.c **** 			break;
  81:Code\Device\GPRS/Uart433.c **** 		case HEAD_N:
  82:Code\Device\GPRS/Uart433.c **** 			if (uData == '\n')
 117              		.loc 1 82 0
 118 0038 0A2C     		cmp	r4, #10
 119 003a 47D1     		bne	.L7
  83:Code\Device\GPRS/Uart433.c **** 			{
  84:Code\Device\GPRS/Uart433.c **** 				AT_RecvSta = REV_DATA;
 120              		.loc 1 84 0
 121 003c 0222     		mov	r2, #2
  85:Code\Device\GPRS/Uart433.c **** 				GPRS_AT_RecBuf[AT_index++] = uData;
 122              		.loc 1 85 0
 123 003e 5A49     		ldr	r1, .L32+8
  84:Code\Device\GPRS/Uart433.c **** 				GPRS_AT_RecBuf[AT_index++] = uData;
 124              		.loc 1 84 0
 125 0040 1A70     		strb	r2, [r3]
 126              		.loc 1 85 0
 127 0042 0B78     		ldrb	r3, [r1]
 128 0044 DBB2     		uxtb	r3, r3
 129 0046 5A1C     		add	r2, r3, #1
 130              	.L27:
 131 0048 D2B2     		uxtb	r2, r2
 132 004a 0A70     		strb	r2, [r1]
 133 004c 574A     		ldr	r2, .L32+12
 134 004e D454     		strb	r4, [r2, r3]
 135 0050 3CE0     		b	.L7
 136              	.L11:
 137 0052 554A     		ldr	r2, .L32+8
 138 0054 554D     		ldr	r5, .L32+12
  86:Code\Device\GPRS/Uart433.c **** 			}
  87:Code\Device\GPRS/Uart433.c **** 			break;
  88:Code\Device\GPRS/Uart433.c **** 		case REV_DATA:
ARM GAS  C:\Users\Administrator\AppData\Local\Temp\ccDtb8Uo.s 			page 5


  89:Code\Device\GPRS/Uart433.c **** 			if (uData == '>')
  90:Code\Device\GPRS/Uart433.c **** 			{
  91:Code\Device\GPRS/Uart433.c **** 				GPRS_AT_RecBuf[AT_index++] = uData;
 139              		.loc 1 91 0
 140 0056 1178     		ldrb	r1, [r2]
 141 0058 C9B2     		uxtb	r1, r1
 142 005a 481C     		add	r0, r1, #1
 143 005c C0B2     		uxtb	r0, r0
 144 005e 1070     		strb	r0, [r2]
 145 0060 6C54     		strb	r4, [r5, r1]
  89:Code\Device\GPRS/Uart433.c **** 			{
 146              		.loc 1 89 0
 147 0062 3E2C     		cmp	r4, #62
 148 0064 0DD1     		bne	.L15
  92:Code\Device\GPRS/Uart433.c **** 				AT_RecvSta = HEAD_R;
 149              		.loc 1 92 0
 150 0066 0026     		mov	r6, #0
 151 0068 1E70     		strb	r6, [r3]
  93:Code\Device\GPRS/Uart433.c **** 				AT_index = 0;
 152              		.loc 1 93 0
 153 006a 1670     		strb	r6, [r2]
  94:Code\Device\GPRS/Uart433.c **** 				GPRS_AT_RecFinish = 1;
 154              		.loc 1 94 0
 155 006c 0122     		mov	r2, #1
 156 006e 504B     		ldr	r3, .L32+16
  95:Code\Device\GPRS/Uart433.c **** 				memcpy((uint8 *)GPRS_AT_Buf, (uint8 *)GPRS_AT_RecBuf, sizeof(GPRS_AT_RecBuf));
 157              		.loc 1 95 0
 158 0070 291C     		mov	r1, r5
  94:Code\Device\GPRS/Uart433.c **** 				GPRS_AT_RecFinish = 1;
 159              		.loc 1 94 0
 160 0072 1A70     		strb	r2, [r3]
 161              		.loc 1 95 0
 162 0074 4F48     		ldr	r0, .L32+20
 163 0076 3F32     		add	r2, r2, #63
 164 0078 FFF7FEFF 		bl	memcpy
 165              	.LVL8:
  96:Code\Device\GPRS/Uart433.c **** 				memset((uint8 *)GPRS_AT_RecBuf, 0, sizeof(GPRS_AT_RecBuf));
 166              		.loc 1 96 0
 167 007c 281C     		mov	r0, r5
 168 007e 311C     		mov	r1, r6
 169 0080 21E0     		b	.L28
 170              	.L15:
  97:Code\Device\GPRS/Uart433.c **** 			}
  98:Code\Device\GPRS/Uart433.c **** 			else
  99:Code\Device\GPRS/Uart433.c **** 			{
 100:Code\Device\GPRS/Uart433.c **** 				GPRS_AT_RecBuf[AT_index++] = uData;
 101:Code\Device\GPRS/Uart433.c **** 				if (uData == '\r')
 171              		.loc 1 101 0
 172 0082 0D2C     		cmp	r4, #13
 173 0084 22D1     		bne	.L7
 102:Code\Device\GPRS/Uart433.c **** 				{
 103:Code\Device\GPRS/Uart433.c **** 					AT_RecvSta = TAIL_N;
 174              		.loc 1 103 0
 175 0086 0422     		mov	r2, #4
 176 0088 1A70     		strb	r2, [r3]
 177 008a 1FE0     		b	.L7
 178              	.L12:
ARM GAS  C:\Users\Administrator\AppData\Local\Temp\ccDtb8Uo.s 			page 6


 104:Code\Device\GPRS/Uart433.c **** 				}
 105:Code\Device\GPRS/Uart433.c **** 			}
 106:Code\Device\GPRS/Uart433.c **** 			break;
 107:Code\Device\GPRS/Uart433.c **** 		case TAIL_N:
 108:Code\Device\GPRS/Uart433.c **** 			if (uData == '\n')
 179              		.loc 1 108 0
 180 008c 0A2C     		cmp	r4, #10
 181 008e 1DD1     		bne	.L7
 109:Code\Device\GPRS/Uart433.c **** 			{
 110:Code\Device\GPRS/Uart433.c **** 				GPRS_AT_RecBuf[AT_index++] = uData;
 182              		.loc 1 110 0
 183 0090 4549     		ldr	r1, .L32+8
 184 0092 464E     		ldr	r6, .L32+12
 185 0094 0A78     		ldrb	r2, [r1]
 186 0096 D2B2     		uxtb	r2, r2
 187 0098 501C     		add	r0, r2, #1
 188 009a C0B2     		uxtb	r0, r0
 189 009c 0870     		strb	r0, [r1]
 190 009e B454     		strb	r4, [r6, r2]
 111:Code\Device\GPRS/Uart433.c **** 				AT_RecvSta = HEAD_R;
 191              		.loc 1 111 0
 192 00a0 0022     		mov	r2, #0
 193 00a2 1A70     		strb	r2, [r3]
 112:Code\Device\GPRS/Uart433.c **** 				AT_index = 0;
 113:Code\Device\GPRS/Uart433.c **** 				RecvType = 0;
 194              		.loc 1 113 0
 195 00a4 3F4B     		ldr	r3, .L32+4
 112:Code\Device\GPRS/Uart433.c **** 				AT_index = 0;
 196              		.loc 1 112 0
 197 00a6 0A70     		strb	r2, [r1]
 198              		.loc 1 113 0
 199 00a8 1A70     		strb	r2, [r3]
 114:Code\Device\GPRS/Uart433.c **** 				if (GPRS_AT_RecFinish == 0)
 200              		.loc 1 114 0
 201 00aa 414B     		ldr	r3, .L32+16
 202 00ac 1D78     		ldrb	r5, [r3]
 203 00ae EDB2     		uxtb	r5, r5
 204 00b0 9542     		cmp	r5, r2
 205 00b2 0BD1     		bne	.L7
 115:Code\Device\GPRS/Uart433.c **** 				{
 116:Code\Device\GPRS/Uart433.c **** 					GPRS_AT_RecFinish = 1;
 206              		.loc 1 116 0
 207 00b4 0132     		add	r2, r2, #1
 208 00b6 1A70     		strb	r2, [r3]
 117:Code\Device\GPRS/Uart433.c **** 					memcpy((uint8 *)GPRS_AT_Buf, (uint8 *)GPRS_AT_RecBuf, sizeof(GPRS_AT_RecBuf));
 209              		.loc 1 117 0
 210 00b8 311C     		mov	r1, r6
 211 00ba 3E48     		ldr	r0, .L32+20
 212 00bc 3F32     		add	r2, r2, #63
 213 00be FFF7FEFF 		bl	memcpy
 214              	.LVL9:
 118:Code\Device\GPRS/Uart433.c **** 					memset((uint8 *)GPRS_AT_RecBuf, 0, sizeof(GPRS_AT_RecBuf));
 215              		.loc 1 118 0
 216 00c2 301C     		mov	r0, r6
 217 00c4 291C     		mov	r1, r5
 218              	.L28:
 219 00c6 4022     		mov	r2, #64
ARM GAS  C:\Users\Administrator\AppData\Local\Temp\ccDtb8Uo.s 			page 7


 220 00c8 FFF7FEFF 		bl	memset
 221              	.LVL10:
 222              	.L7:
 119:Code\Device\GPRS/Uart433.c **** 				}
 120:Code\Device\GPRS/Uart433.c **** 			}
 121:Code\Device\GPRS/Uart433.c **** 			break;
 122:Code\Device\GPRS/Uart433.c **** 		default:
 123:Code\Device\GPRS/Uart433.c **** 			break;
 124:Code\Device\GPRS/Uart433.c **** 	}
 125:Code\Device\GPRS/Uart433.c **** 		
 126:Code\Device\GPRS/Uart433.c **** 	switch (Cmd_Revsta)
 223              		.loc 1 126 0
 224 00cc 3A4B     		ldr	r3, .L32+24
 225 00ce 1878     		ldrb	r0, [r3]
 226 00d0 C0B2     		uxtb	r0, r0
 227 00d2 0428     		cmp	r0, #4
 228 00d4 63D8     		bhi	.L6
 229 00d6 FFF7FEFF 		bl	__gnu_thumb1_case_uqi
 230              	.L18:
 231 00da 03       		.byte	(.L17-.L18)/2
 232 00db 14       		.byte	(.L19-.L18)/2
 233 00dc 21       		.byte	(.L20-.L18)/2
 234 00dd 23       		.byte	(.L21-.L18)/2
 235 00de 34       		.byte	(.L22-.L18)/2
 236 00df 00       		.p2align 1
 237              	.L17:
 127:Code\Device\GPRS/Uart433.c **** 	{
 128:Code\Device\GPRS/Uart433.c **** 		case HEX_EF:
 129:Code\Device\GPRS/Uart433.c **** 			if ((uData == 0xef) && (RecvType == 0))
 238              		.loc 1 129 0
 239 00e0 EF2C     		cmp	r4, #239
 240 00e2 5CD1     		bne	.L6
 241              		.loc 1 129 0 is_stmt 0 discriminator 1
 242 00e4 2F49     		ldr	r1, .L32+4
 243 00e6 0A78     		ldrb	r2, [r1]
 244 00e8 D2B2     		uxtb	r2, r2
 245 00ea 002A     		cmp	r2, #0
 246 00ec 57D1     		bne	.L6
 130:Code\Device\GPRS/Uart433.c **** 			{
 131:Code\Device\GPRS/Uart433.c **** 				RecvType = 2;
 247              		.loc 1 131 0 is_stmt 1
 248 00ee 0220     		mov	r0, #2
 249 00f0 0870     		strb	r0, [r1]
 132:Code\Device\GPRS/Uart433.c **** 				Cmd_index = 0;
 250              		.loc 1 132 0
 251 00f2 3249     		ldr	r1, .L32+28
 252 00f4 0A80     		strh	r2, [r1]
 133:Code\Device\GPRS/Uart433.c **** 				Cmd_Revsta = HEX_3A;
 253              		.loc 1 133 0
 254 00f6 0132     		add	r2, r2, #1
 255 00f8 1A70     		strb	r2, [r3]
 134:Code\Device\GPRS/Uart433.c **** 				CmdRev_buf[Cmd_index++] = uData;
 256              		.loc 1 134 0
 257 00fa 0B88     		ldrh	r3, [r1]
 258 00fc 9BB2     		uxth	r3, r3
 259 00fe 9A18     		add	r2, r3, r2
 260 0100 07E0     		b	.L30
ARM GAS  C:\Users\Administrator\AppData\Local\Temp\ccDtb8Uo.s 			page 8


 261              	.L19:
 135:Code\Device\GPRS/Uart433.c **** 			}
 136:Code\Device\GPRS/Uart433.c **** 			break;
 137:Code\Device\GPRS/Uart433.c **** 		case HEX_3A:
 138:Code\Device\GPRS/Uart433.c **** 			if (uData == 0x3a)
 262              		.loc 1 138 0
 263 0102 3A2C     		cmp	r4, #58
 264 0104 4BD1     		bne	.L6
 139:Code\Device\GPRS/Uart433.c **** 			{
 140:Code\Device\GPRS/Uart433.c **** 				Cmd_Revsta = HEX_LEN_H;
 265              		.loc 1 140 0
 266 0106 0222     		mov	r2, #2
 267              	.L31:
 141:Code\Device\GPRS/Uart433.c **** 				CmdRev_buf[Cmd_index++] = uData;
 268              		.loc 1 141 0
 269 0108 2C49     		ldr	r1, .L32+28
 140:Code\Device\GPRS/Uart433.c **** 				CmdRev_buf[Cmd_index++] = uData;
 270              		.loc 1 140 0
 271 010a 1A70     		strb	r2, [r3]
 272              		.loc 1 141 0
 273 010c 0B88     		ldrh	r3, [r1]
 274 010e 9BB2     		uxth	r3, r3
 275 0110 5A1C     		add	r2, r3, #1
 276              	.L30:
 277 0112 92B2     		uxth	r2, r2
 278 0114 0A80     		strh	r2, [r1]
 279 0116 2A4A     		ldr	r2, .L32+32
 280 0118 D454     		strb	r4, [r2, r3]
 281 011a 40E0     		b	.L6
 282              	.L20:
 142:Code\Device\GPRS/Uart433.c **** 			}
 143:Code\Device\GPRS/Uart433.c **** 			break;
 144:Code\Device\GPRS/Uart433.c **** 		case HEX_LEN_H:
 145:Code\Device\GPRS/Uart433.c **** 			Cmd_Revsta = HEX_LEN_L;
 283              		.loc 1 145 0
 284 011c 0322     		mov	r2, #3
 285 011e F3E7     		b	.L31
 286              	.L21:
 146:Code\Device\GPRS/Uart433.c **** 			CmdRev_buf[Cmd_index++] = uData;
 147:Code\Device\GPRS/Uart433.c **** 			break;
 148:Code\Device\GPRS/Uart433.c **** 		case HEX_LEN_L:
 149:Code\Device\GPRS/Uart433.c **** 			Cmd_Revsta = HEX_DATA;
 287              		.loc 1 149 0
 288 0120 0422     		mov	r2, #4
 150:Code\Device\GPRS/Uart433.c **** 			CmdRev_buf[Cmd_index++] = uData;
 289              		.loc 1 150 0
 290 0122 2649     		ldr	r1, .L32+28
 149:Code\Device\GPRS/Uart433.c **** 			CmdRev_buf[Cmd_index++] = uData;
 291              		.loc 1 149 0
 292 0124 1A70     		strb	r2, [r3]
 293              		.loc 1 150 0
 294 0126 0B88     		ldrh	r3, [r1]
 295 0128 9BB2     		uxth	r3, r3
 296 012a 5A1C     		add	r2, r3, #1
 297 012c 92B2     		uxth	r2, r2
 298 012e 0A80     		strh	r2, [r1]
 299 0130 234A     		ldr	r2, .L32+32
ARM GAS  C:\Users\Administrator\AppData\Local\Temp\ccDtb8Uo.s 			page 9


 300 0132 D454     		strb	r4, [r2, r3]
 151:Code\Device\GPRS/Uart433.c **** 			Cmd_Baglen = (CmdRev_buf[2] << 8) | CmdRev_buf[3];
 301              		.loc 1 151 0
 302 0134 9378     		ldrb	r3, [r2, #2]
 303 0136 D278     		ldrb	r2, [r2, #3]
 304 0138 1B02     		lsl	r3, r3, #8
 305 013a 1343     		orr	r3, r2
 306 013c 214A     		ldr	r2, .L32+36
 307 013e 1380     		strh	r3, [r2]
 152:Code\Device\GPRS/Uart433.c **** 			break;
 308              		.loc 1 152 0
 309 0140 2DE0     		b	.L6
 310              	.L22:
 153:Code\Device\GPRS/Uart433.c **** 		case HEX_DATA:
 154:Code\Device\GPRS/Uart433.c **** 			CmdRev_buf[Cmd_index++] = uData;
 311              		.loc 1 154 0
 312 0142 1E4A     		ldr	r2, .L32+28
 155:Code\Device\GPRS/Uart433.c **** 			if (Cmd_index == Cmd_Baglen + 4)
 313              		.loc 1 155 0
 314 0144 1F4D     		ldr	r5, .L32+36
 154:Code\Device\GPRS/Uart433.c **** 			if (Cmd_index == Cmd_Baglen + 4)
 315              		.loc 1 154 0
 316 0146 1188     		ldrh	r1, [r2]
 317 0148 89B2     		uxth	r1, r1
 318 014a 481C     		add	r0, r1, #1
 319 014c 80B2     		uxth	r0, r0
 320 014e 1080     		strh	r0, [r2]
 321 0150 1B48     		ldr	r0, .L32+32
 322 0152 4454     		strb	r4, [r0, r1]
 323              		.loc 1 155 0
 324 0154 1688     		ldrh	r6, [r2]
 325 0156 2988     		ldrh	r1, [r5]
 326 0158 041C     		mov	r4, r0
 327 015a 0431     		add	r1, r1, #4
 328 015c 8E42     		cmp	r6, r1
 329 015e 1ED1     		bne	.L6
 156:Code\Device\GPRS/Uart433.c **** 			{
 157:Code\Device\GPRS/Uart433.c **** 				Cmd_Revsta = HEX_EF;
 330              		.loc 1 157 0
 331 0160 0021     		mov	r1, #0
 332 0162 1970     		strb	r1, [r3]
 158:Code\Device\GPRS/Uart433.c **** 				Cmd_index = 0;
 159:Code\Device\GPRS/Uart433.c **** 				RecvType = 0;
 333              		.loc 1 159 0
 334 0164 0F4B     		ldr	r3, .L32+4
 160:Code\Device\GPRS/Uart433.c **** 				
 161:Code\Device\GPRS/Uart433.c **** 				if (GPRSCmdParseFlag1 == 0)
 335              		.loc 1 161 0
 336 0166 184E     		ldr	r6, .L32+40
 158:Code\Device\GPRS/Uart433.c **** 				Cmd_index = 0;
 337              		.loc 1 158 0
 338 0168 1180     		strh	r1, [r2]
 159:Code\Device\GPRS/Uart433.c **** 				
 339              		.loc 1 159 0
 340 016a 1970     		strb	r1, [r3]
 341              		.loc 1 161 0
 342 016c 3378     		ldrb	r3, [r6]
ARM GAS  C:\Users\Administrator\AppData\Local\Temp\ccDtb8Uo.s 			page 10


 343 016e 8B42     		cmp	r3, r1
 344 0170 03D1     		bne	.L25
 162:Code\Device\GPRS/Uart433.c **** 				{
 163:Code\Device\GPRS/Uart433.c **** 					memcpy((uint8 *)GPRSCmd_buf1, (uint8 *)CmdRev_buf, Cmd_Baglen + 4);
 345              		.loc 1 163 0
 346 0172 2A88     		ldrh	r2, [r5]
 347 0174 1548     		ldr	r0, .L32+44
 348 0176 0432     		add	r2, r2, #4
 349 0178 06E0     		b	.L29
 350              	.L25:
 164:Code\Device\GPRS/Uart433.c **** 					GPRSCmdParseFlag1 = 1;
 165:Code\Device\GPRS/Uart433.c **** 				}
 166:Code\Device\GPRS/Uart433.c **** 				else if(GPRSCmdParseFlag2 == 0)
 351              		.loc 1 166 0
 352 017a 154E     		ldr	r6, .L32+48
 353 017c 3378     		ldrb	r3, [r6]
 354 017e 002B     		cmp	r3, #0
 355 0180 07D1     		bne	.L26
 167:Code\Device\GPRS/Uart433.c **** 				{
 168:Code\Device\GPRS/Uart433.c **** 					// 
 169:Code\Device\GPRS/Uart433.c **** 					memcpy((uint8 *)GPRSCmd_buf2, (uint8 *)CmdRev_buf, Cmd_Baglen + 4);
 356              		.loc 1 169 0
 357 0182 2A88     		ldrh	r2, [r5]
 358 0184 1348     		ldr	r0, .L32+52
 359 0186 0432     		add	r2, r2, #4
 360              	.L29:
 361 0188 211C     		mov	r1, r4
 362 018a FFF7FEFF 		bl	memcpy
 363              	.LVL11:
 170:Code\Device\GPRS/Uart433.c **** 					GPRSCmdParseFlag2 = 1;
 364              		.loc 1 170 0
 365 018e 0123     		mov	r3, #1
 366 0190 3370     		strb	r3, [r6]
 367              	.L26:
 171:Code\Device\GPRS/Uart433.c **** 				}
 172:Code\Device\GPRS/Uart433.c **** 				Cmd_Baglen = 0;
 368              		.loc 1 172 0
 369 0192 0021     		mov	r1, #0
 173:Code\Device\GPRS/Uart433.c **** 				memset((uint8 *)CmdRev_buf, 0, sizeof(CmdRev_buf));
 370              		.loc 1 173 0
 371 0194 201C     		mov	r0, r4
 372 0196 104A     		ldr	r2, .L32+56
 172:Code\Device\GPRS/Uart433.c **** 				memset((uint8 *)CmdRev_buf, 0, sizeof(CmdRev_buf));
 373              		.loc 1 172 0
 374 0198 2980     		strh	r1, [r5]
 375              		.loc 1 173 0
 376 019a FFF7FEFF 		bl	memset
 377              	.LVL12:
 378              	.L6:
 174:Code\Device\GPRS/Uart433.c **** 			}
 175:Code\Device\GPRS/Uart433.c **** 			break;
 176:Code\Device\GPRS/Uart433.c **** 		default:
 177:Code\Device\GPRS/Uart433.c **** 			break;
 178:Code\Device\GPRS/Uart433.c **** 	}
 179:Code\Device\GPRS/Uart433.c **** }
 379              		.loc 1 179 0
 380              		@ sp needed
ARM GAS  C:\Users\Administrator\AppData\Local\Temp\ccDtb8Uo.s 			page 11


 381 019e 70BD     		pop	{r4, r5, r6, pc}
 382              	.L33:
 383              		.align	2
 384              	.L32:
 385 01a0 00000000 		.word	AT_RecvSta
 386 01a4 00000000 		.word	.LANCHOR0
 387 01a8 00000000 		.word	AT_index
 388 01ac 00000000 		.word	GPRS_AT_RecBuf
 389 01b0 00000000 		.word	GPRS_AT_RecFinish
 390 01b4 00000000 		.word	GPRS_AT_Buf
 391 01b8 00000000 		.word	Cmd_Revsta
 392 01bc 00000000 		.word	Cmd_index
 393 01c0 00000000 		.word	CmdRev_buf
 394 01c4 00000000 		.word	Cmd_Baglen
 395 01c8 00000000 		.word	GPRSCmdParseFlag1
 396 01cc 00000000 		.word	GPRSCmd_buf1
 397 01d0 00000000 		.word	GPRSCmdParseFlag2
 398 01d4 00000000 		.word	GPRSCmd_buf2
 399 01d8 1A040000 		.word	1050
 400              		.cfi_endproc
 401              	.LFE64:
 402              		.size	Uart433Recv, .-Uart433Recv
 403              		.comm	Cmd_index,2,2
 404              		.comm	Cmd_Revsta,1,1
 405              		.comm	Cmd_Baglen,2,2
 406              		.comm	CmdRev_buf,1050,1
 407              		.comm	AT_index,1,1
 408              		.comm	AT_RecvSta,1,1
 409              		.comm	GPRS_AT_RecBuf,64,1
 410              		.global	RecvType
 411              		.bss
 412              		.set	.LANCHOR0,. + 0
 413              		.type	RecvType, %object
 414              		.size	RecvType, 1
 415              	RecvType:
 416 0000 00       		.space	1
 417              		.text
 418              	.Letext0:
 419              		.file 2 "Generated_Source\\PSoC4/cytypes.h"
 420              		.file 3 "Generated_Source\\PSoC4/UART_433_SPI_UART.h"