ARM GAS  C:\Users\zhiantec\AppData\Local\Temp\ccYr9OEd.s 			page 1


   1              		.cpu cortex-m0
   2              		.fpu softvfp
   3              		.eabi_attribute 20, 1
   4              		.eabi_attribute 21, 1
   5              		.eabi_attribute 23, 3
   6              		.eabi_attribute 24, 1
   7              		.eabi_attribute 25, 1
   8              		.eabi_attribute 26, 1
   9              		.eabi_attribute 30, 4
  10              		.eabi_attribute 34, 0
  11              		.eabi_attribute 18, 4
  12              		.code	16
  13              		.file	"UART_433_SPI_UART.c"
  14              		.text
  15              	.Ltext0:
  16              		.cfi_sections	.debug_frame
  17              		.section	.text.UART_433_SpiUartReadRxData,"ax",%progbits
  18              		.align	1
  19              		.global	UART_433_SpiUartReadRxData
  20              		.code	16
  21              		.thumb_func
  22              		.type	UART_433_SpiUartReadRxData, %function
  23              	UART_433_SpiUartReadRxData:
  24              	.LFB2:
  25              		.file 1 "Generated_Source\\PSoC4\\UART_433_SPI_UART.c"
   1:Generated_Source\PSoC4/UART_433_SPI_UART.c **** /***************************************************************************//**
   2:Generated_Source\PSoC4/UART_433_SPI_UART.c **** * \file UART_433_SPI_UART.c
   3:Generated_Source\PSoC4/UART_433_SPI_UART.c **** * \version 3.20
   4:Generated_Source\PSoC4/UART_433_SPI_UART.c **** *
   5:Generated_Source\PSoC4/UART_433_SPI_UART.c **** * \brief
   6:Generated_Source\PSoC4/UART_433_SPI_UART.c **** *  This file provides the source code to the API for the SCB Component in
   7:Generated_Source\PSoC4/UART_433_SPI_UART.c **** *  SPI and UART modes.
   8:Generated_Source\PSoC4/UART_433_SPI_UART.c **** *
   9:Generated_Source\PSoC4/UART_433_SPI_UART.c **** * Note:
  10:Generated_Source\PSoC4/UART_433_SPI_UART.c **** *
  11:Generated_Source\PSoC4/UART_433_SPI_UART.c **** *******************************************************************************
  12:Generated_Source\PSoC4/UART_433_SPI_UART.c **** * \copyright
  13:Generated_Source\PSoC4/UART_433_SPI_UART.c **** * Copyright 2013-2016, Cypress Semiconductor Corporation.  All rights reserved.
  14:Generated_Source\PSoC4/UART_433_SPI_UART.c **** * You may use this file only in accordance with the license, terms, conditions,
  15:Generated_Source\PSoC4/UART_433_SPI_UART.c **** * disclaimers, and limitations in the end user license agreement accompanying
  16:Generated_Source\PSoC4/UART_433_SPI_UART.c **** * the software package with which this file was provided.
  17:Generated_Source\PSoC4/UART_433_SPI_UART.c **** *******************************************************************************/
  18:Generated_Source\PSoC4/UART_433_SPI_UART.c **** 
  19:Generated_Source\PSoC4/UART_433_SPI_UART.c **** #include "UART_433_PVT.h"
  20:Generated_Source\PSoC4/UART_433_SPI_UART.c **** #include "UART_433_SPI_UART_PVT.h"
  21:Generated_Source\PSoC4/UART_433_SPI_UART.c **** 
  22:Generated_Source\PSoC4/UART_433_SPI_UART.c **** /***************************************
  23:Generated_Source\PSoC4/UART_433_SPI_UART.c **** *        SPI/UART Private Vars
  24:Generated_Source\PSoC4/UART_433_SPI_UART.c **** ***************************************/
  25:Generated_Source\PSoC4/UART_433_SPI_UART.c **** 
  26:Generated_Source\PSoC4/UART_433_SPI_UART.c **** #if(UART_433_INTERNAL_RX_SW_BUFFER_CONST)
  27:Generated_Source\PSoC4/UART_433_SPI_UART.c ****     /* Start index to put data into the software receive buffer.*/
  28:Generated_Source\PSoC4/UART_433_SPI_UART.c ****     volatile uint32 UART_433_rxBufferHead;
  29:Generated_Source\PSoC4/UART_433_SPI_UART.c ****     /* Start index to get data from the software receive buffer.*/
  30:Generated_Source\PSoC4/UART_433_SPI_UART.c ****     volatile uint32 UART_433_rxBufferTail;
  31:Generated_Source\PSoC4/UART_433_SPI_UART.c ****     /**
  32:Generated_Source\PSoC4/UART_433_SPI_UART.c ****     * \addtogroup group_globals
ARM GAS  C:\Users\zhiantec\AppData\Local\Temp\ccYr9OEd.s 			page 2


  33:Generated_Source\PSoC4/UART_433_SPI_UART.c ****     * \{
  34:Generated_Source\PSoC4/UART_433_SPI_UART.c ****     */
  35:Generated_Source\PSoC4/UART_433_SPI_UART.c ****     /** Sets when internal software receive buffer overflow
  36:Generated_Source\PSoC4/UART_433_SPI_UART.c ****     *  was occurred.
  37:Generated_Source\PSoC4/UART_433_SPI_UART.c ****     */
  38:Generated_Source\PSoC4/UART_433_SPI_UART.c ****     volatile uint8  UART_433_rxBufferOverflow;
  39:Generated_Source\PSoC4/UART_433_SPI_UART.c ****     /** \} globals */
  40:Generated_Source\PSoC4/UART_433_SPI_UART.c **** #endif /* (UART_433_INTERNAL_RX_SW_BUFFER_CONST) */
  41:Generated_Source\PSoC4/UART_433_SPI_UART.c **** 
  42:Generated_Source\PSoC4/UART_433_SPI_UART.c **** #if(UART_433_INTERNAL_TX_SW_BUFFER_CONST)
  43:Generated_Source\PSoC4/UART_433_SPI_UART.c ****     /* Start index to put data into the software transmit buffer.*/
  44:Generated_Source\PSoC4/UART_433_SPI_UART.c ****     volatile uint32 UART_433_txBufferHead;
  45:Generated_Source\PSoC4/UART_433_SPI_UART.c ****     /* Start index to get data from the software transmit buffer.*/
  46:Generated_Source\PSoC4/UART_433_SPI_UART.c ****     volatile uint32 UART_433_txBufferTail;
  47:Generated_Source\PSoC4/UART_433_SPI_UART.c **** #endif /* (UART_433_INTERNAL_TX_SW_BUFFER_CONST) */
  48:Generated_Source\PSoC4/UART_433_SPI_UART.c **** 
  49:Generated_Source\PSoC4/UART_433_SPI_UART.c **** #if(UART_433_INTERNAL_RX_SW_BUFFER)
  50:Generated_Source\PSoC4/UART_433_SPI_UART.c ****     /* Add one element to the buffer to receive full packet. One byte in receive buffer is always e
  51:Generated_Source\PSoC4/UART_433_SPI_UART.c ****     volatile uint8 UART_433_rxBufferInternal[UART_433_INTERNAL_RX_BUFFER_SIZE];
  52:Generated_Source\PSoC4/UART_433_SPI_UART.c **** #endif /* (UART_433_INTERNAL_RX_SW_BUFFER) */
  53:Generated_Source\PSoC4/UART_433_SPI_UART.c **** 
  54:Generated_Source\PSoC4/UART_433_SPI_UART.c **** #if(UART_433_INTERNAL_TX_SW_BUFFER)
  55:Generated_Source\PSoC4/UART_433_SPI_UART.c ****     volatile uint8 UART_433_txBufferInternal[UART_433_TX_BUFFER_SIZE];
  56:Generated_Source\PSoC4/UART_433_SPI_UART.c **** #endif /* (UART_433_INTERNAL_TX_SW_BUFFER) */
  57:Generated_Source\PSoC4/UART_433_SPI_UART.c **** 
  58:Generated_Source\PSoC4/UART_433_SPI_UART.c **** 
  59:Generated_Source\PSoC4/UART_433_SPI_UART.c **** #if(UART_433_RX_DIRECTION)
  60:Generated_Source\PSoC4/UART_433_SPI_UART.c ****     /*******************************************************************************
  61:Generated_Source\PSoC4/UART_433_SPI_UART.c ****     * Function Name: UART_433_SpiUartReadRxData
  62:Generated_Source\PSoC4/UART_433_SPI_UART.c ****     ****************************************************************************//**
  63:Generated_Source\PSoC4/UART_433_SPI_UART.c ****     *
  64:Generated_Source\PSoC4/UART_433_SPI_UART.c ****     *  Retrieves the next data element from the receive buffer.
  65:Generated_Source\PSoC4/UART_433_SPI_UART.c ****     *   - RX software buffer is disabled: Returns data element retrieved from
  66:Generated_Source\PSoC4/UART_433_SPI_UART.c ****     *     RX FIFO. Undefined data will be returned if the RX FIFO is empty.
  67:Generated_Source\PSoC4/UART_433_SPI_UART.c ****     *   - RX software buffer is enabled: Returns data element from the software
  68:Generated_Source\PSoC4/UART_433_SPI_UART.c ****     *     receive buffer. Zero value is returned if the software receive buffer
  69:Generated_Source\PSoC4/UART_433_SPI_UART.c ****     *     is empty.
  70:Generated_Source\PSoC4/UART_433_SPI_UART.c ****     *
  71:Generated_Source\PSoC4/UART_433_SPI_UART.c ****     * \return
  72:Generated_Source\PSoC4/UART_433_SPI_UART.c ****     *  Next data element from the receive buffer. 
  73:Generated_Source\PSoC4/UART_433_SPI_UART.c ****     *  The amount of data bits to be received depends on RX data bits selection 
  74:Generated_Source\PSoC4/UART_433_SPI_UART.c ****     *  (the data bit counting starts from LSB of return value).
  75:Generated_Source\PSoC4/UART_433_SPI_UART.c ****     *
  76:Generated_Source\PSoC4/UART_433_SPI_UART.c ****     * \globalvars
  77:Generated_Source\PSoC4/UART_433_SPI_UART.c ****     *  UART_433_rxBufferHead - the start index to put data into the 
  78:Generated_Source\PSoC4/UART_433_SPI_UART.c ****     *  software receive buffer.
  79:Generated_Source\PSoC4/UART_433_SPI_UART.c ****     *  UART_433_rxBufferTail - the start index to get data from the 
  80:Generated_Source\PSoC4/UART_433_SPI_UART.c ****     *  software receive buffer.
  81:Generated_Source\PSoC4/UART_433_SPI_UART.c ****     *
  82:Generated_Source\PSoC4/UART_433_SPI_UART.c ****     *******************************************************************************/
  83:Generated_Source\PSoC4/UART_433_SPI_UART.c ****     uint32 UART_433_SpiUartReadRxData(void)
  84:Generated_Source\PSoC4/UART_433_SPI_UART.c ****     {
  26              		.loc 1 84 0
  27              		.cfi_startproc
  28              	.LVL0:
  85:Generated_Source\PSoC4/UART_433_SPI_UART.c ****         uint32 rxData = 0u;
  86:Generated_Source\PSoC4/UART_433_SPI_UART.c **** 
ARM GAS  C:\Users\zhiantec\AppData\Local\Temp\ccYr9OEd.s 			page 3


  87:Generated_Source\PSoC4/UART_433_SPI_UART.c ****     #if (UART_433_INTERNAL_RX_SW_BUFFER_CONST)
  88:Generated_Source\PSoC4/UART_433_SPI_UART.c ****         uint32 locTail;
  89:Generated_Source\PSoC4/UART_433_SPI_UART.c ****     #endif /* (UART_433_INTERNAL_RX_SW_BUFFER_CONST) */
  90:Generated_Source\PSoC4/UART_433_SPI_UART.c **** 
  91:Generated_Source\PSoC4/UART_433_SPI_UART.c ****         #if (UART_433_CHECK_RX_SW_BUFFER)
  92:Generated_Source\PSoC4/UART_433_SPI_UART.c ****         {
  93:Generated_Source\PSoC4/UART_433_SPI_UART.c ****             if (UART_433_rxBufferHead != UART_433_rxBufferTail)
  94:Generated_Source\PSoC4/UART_433_SPI_UART.c ****             {
  95:Generated_Source\PSoC4/UART_433_SPI_UART.c ****                 /* There is data in RX software buffer */
  96:Generated_Source\PSoC4/UART_433_SPI_UART.c **** 
  97:Generated_Source\PSoC4/UART_433_SPI_UART.c ****                 /* Calculate index to read from */
  98:Generated_Source\PSoC4/UART_433_SPI_UART.c ****                 locTail = (UART_433_rxBufferTail + 1u);
  99:Generated_Source\PSoC4/UART_433_SPI_UART.c **** 
 100:Generated_Source\PSoC4/UART_433_SPI_UART.c ****                 if (UART_433_INTERNAL_RX_BUFFER_SIZE == locTail)
 101:Generated_Source\PSoC4/UART_433_SPI_UART.c ****                 {
 102:Generated_Source\PSoC4/UART_433_SPI_UART.c ****                     locTail = 0u;
 103:Generated_Source\PSoC4/UART_433_SPI_UART.c ****                 }
 104:Generated_Source\PSoC4/UART_433_SPI_UART.c **** 
 105:Generated_Source\PSoC4/UART_433_SPI_UART.c ****                 /* Get data from RX software buffer */
 106:Generated_Source\PSoC4/UART_433_SPI_UART.c ****                 rxData = UART_433_GetWordFromRxBuffer(locTail);
 107:Generated_Source\PSoC4/UART_433_SPI_UART.c **** 
 108:Generated_Source\PSoC4/UART_433_SPI_UART.c ****                 /* Change index in the buffer */
 109:Generated_Source\PSoC4/UART_433_SPI_UART.c ****                 UART_433_rxBufferTail = locTail;
 110:Generated_Source\PSoC4/UART_433_SPI_UART.c **** 
 111:Generated_Source\PSoC4/UART_433_SPI_UART.c ****                 #if (UART_433_CHECK_UART_RTS_CONTROL_FLOW)
 112:Generated_Source\PSoC4/UART_433_SPI_UART.c ****                 {
 113:Generated_Source\PSoC4/UART_433_SPI_UART.c ****                     /* Check if RX Not Empty is disabled in the interrupt */
 114:Generated_Source\PSoC4/UART_433_SPI_UART.c ****                     if (0u == (UART_433_INTR_RX_MASK_REG & UART_433_INTR_RX_NOT_EMPTY))
 115:Generated_Source\PSoC4/UART_433_SPI_UART.c ****                     {
 116:Generated_Source\PSoC4/UART_433_SPI_UART.c ****                         /* Enable RX Not Empty interrupt source to continue
 117:Generated_Source\PSoC4/UART_433_SPI_UART.c ****                         * receiving data into software buffer.
 118:Generated_Source\PSoC4/UART_433_SPI_UART.c ****                         */
 119:Generated_Source\PSoC4/UART_433_SPI_UART.c ****                         UART_433_INTR_RX_MASK_REG |= UART_433_INTR_RX_NOT_EMPTY;
 120:Generated_Source\PSoC4/UART_433_SPI_UART.c ****                     }
 121:Generated_Source\PSoC4/UART_433_SPI_UART.c ****                 }
 122:Generated_Source\PSoC4/UART_433_SPI_UART.c ****                 #endif
 123:Generated_Source\PSoC4/UART_433_SPI_UART.c **** 
 124:Generated_Source\PSoC4/UART_433_SPI_UART.c ****             }
 125:Generated_Source\PSoC4/UART_433_SPI_UART.c ****         }
 126:Generated_Source\PSoC4/UART_433_SPI_UART.c ****         #else
 127:Generated_Source\PSoC4/UART_433_SPI_UART.c ****         {
 128:Generated_Source\PSoC4/UART_433_SPI_UART.c ****             /* Read data from RX FIFO */
 129:Generated_Source\PSoC4/UART_433_SPI_UART.c ****             rxData = UART_433_RX_FIFO_RD_REG;
  29              		.loc 1 129 0
  30 0000 014B     		ldr	r3, .L2
 130:Generated_Source\PSoC4/UART_433_SPI_UART.c ****         }
 131:Generated_Source\PSoC4/UART_433_SPI_UART.c ****         #endif
 132:Generated_Source\PSoC4/UART_433_SPI_UART.c **** 
 133:Generated_Source\PSoC4/UART_433_SPI_UART.c ****         return (rxData);
 134:Generated_Source\PSoC4/UART_433_SPI_UART.c ****     }
  31              		.loc 1 134 0
  32              		@ sp needed
 129:Generated_Source\PSoC4/UART_433_SPI_UART.c ****         }
  33              		.loc 1 129 0
  34 0002 1868     		ldr	r0, [r3]
  35              	.LVL1:
  36              		.loc 1 134 0
ARM GAS  C:\Users\zhiantec\AppData\Local\Temp\ccYr9OEd.s 			page 4


  37 0004 7047     		bx	lr
  38              	.L3:
  39 0006 C046     		.align	2
  40              	.L2:
  41 0008 40032440 		.word	1076101952
  42              		.cfi_endproc
  43              	.LFE2:
  44              		.size	UART_433_SpiUartReadRxData, .-UART_433_SpiUartReadRxData
  45              		.section	.text.UART_433_SpiUartGetRxBufferSize,"ax",%progbits
  46              		.align	1
  47              		.global	UART_433_SpiUartGetRxBufferSize
  48              		.code	16
  49              		.thumb_func
  50              		.type	UART_433_SpiUartGetRxBufferSize, %function
  51              	UART_433_SpiUartGetRxBufferSize:
  52              	.LFB3:
 135:Generated_Source\PSoC4/UART_433_SPI_UART.c **** 
 136:Generated_Source\PSoC4/UART_433_SPI_UART.c **** 
 137:Generated_Source\PSoC4/UART_433_SPI_UART.c ****     /*******************************************************************************
 138:Generated_Source\PSoC4/UART_433_SPI_UART.c ****     * Function Name: UART_433_SpiUartGetRxBufferSize
 139:Generated_Source\PSoC4/UART_433_SPI_UART.c ****     ****************************************************************************//**
 140:Generated_Source\PSoC4/UART_433_SPI_UART.c ****     *
 141:Generated_Source\PSoC4/UART_433_SPI_UART.c ****     *  Returns the number of received data elements in the receive buffer.
 142:Generated_Source\PSoC4/UART_433_SPI_UART.c ****     *   - RX software buffer disabled: returns the number of used entries in
 143:Generated_Source\PSoC4/UART_433_SPI_UART.c ****     *     RX FIFO.
 144:Generated_Source\PSoC4/UART_433_SPI_UART.c ****     *   - RX software buffer enabled: returns the number of elements which were
 145:Generated_Source\PSoC4/UART_433_SPI_UART.c ****     *     placed in the receive buffer. This does not include the hardware RX FIFO.
 146:Generated_Source\PSoC4/UART_433_SPI_UART.c ****     *
 147:Generated_Source\PSoC4/UART_433_SPI_UART.c ****     * \return
 148:Generated_Source\PSoC4/UART_433_SPI_UART.c ****     *  Number of received data elements.
 149:Generated_Source\PSoC4/UART_433_SPI_UART.c ****     *
 150:Generated_Source\PSoC4/UART_433_SPI_UART.c ****     * \globalvars
 151:Generated_Source\PSoC4/UART_433_SPI_UART.c ****     *  UART_433_rxBufferHead - the start index to put data into the 
 152:Generated_Source\PSoC4/UART_433_SPI_UART.c ****     *  software receive buffer.
 153:Generated_Source\PSoC4/UART_433_SPI_UART.c ****     *  UART_433_rxBufferTail - the start index to get data from the 
 154:Generated_Source\PSoC4/UART_433_SPI_UART.c ****     *  software receive buffer.
 155:Generated_Source\PSoC4/UART_433_SPI_UART.c ****     *
 156:Generated_Source\PSoC4/UART_433_SPI_UART.c ****     *******************************************************************************/
 157:Generated_Source\PSoC4/UART_433_SPI_UART.c ****     uint32 UART_433_SpiUartGetRxBufferSize(void)
 158:Generated_Source\PSoC4/UART_433_SPI_UART.c ****     {
  53              		.loc 1 158 0
  54              		.cfi_startproc
 159:Generated_Source\PSoC4/UART_433_SPI_UART.c ****         uint32 size;
 160:Generated_Source\PSoC4/UART_433_SPI_UART.c ****     #if (UART_433_INTERNAL_RX_SW_BUFFER_CONST)
 161:Generated_Source\PSoC4/UART_433_SPI_UART.c ****         uint32 locHead;
 162:Generated_Source\PSoC4/UART_433_SPI_UART.c ****     #endif /* (UART_433_INTERNAL_RX_SW_BUFFER_CONST) */
 163:Generated_Source\PSoC4/UART_433_SPI_UART.c **** 
 164:Generated_Source\PSoC4/UART_433_SPI_UART.c ****         #if (UART_433_CHECK_RX_SW_BUFFER)
 165:Generated_Source\PSoC4/UART_433_SPI_UART.c ****         {
 166:Generated_Source\PSoC4/UART_433_SPI_UART.c ****             locHead = UART_433_rxBufferHead;
 167:Generated_Source\PSoC4/UART_433_SPI_UART.c **** 
 168:Generated_Source\PSoC4/UART_433_SPI_UART.c ****             if(locHead >= UART_433_rxBufferTail)
 169:Generated_Source\PSoC4/UART_433_SPI_UART.c ****             {
 170:Generated_Source\PSoC4/UART_433_SPI_UART.c ****                 size = (locHead - UART_433_rxBufferTail);
 171:Generated_Source\PSoC4/UART_433_SPI_UART.c ****             }
 172:Generated_Source\PSoC4/UART_433_SPI_UART.c ****             else
 173:Generated_Source\PSoC4/UART_433_SPI_UART.c ****             {
ARM GAS  C:\Users\zhiantec\AppData\Local\Temp\ccYr9OEd.s 			page 5


 174:Generated_Source\PSoC4/UART_433_SPI_UART.c ****                 size = (locHead + (UART_433_INTERNAL_RX_BUFFER_SIZE - UART_433_rxBufferTail));
 175:Generated_Source\PSoC4/UART_433_SPI_UART.c ****             }
 176:Generated_Source\PSoC4/UART_433_SPI_UART.c ****         }
 177:Generated_Source\PSoC4/UART_433_SPI_UART.c ****         #else
 178:Generated_Source\PSoC4/UART_433_SPI_UART.c ****         {
 179:Generated_Source\PSoC4/UART_433_SPI_UART.c ****             size = UART_433_GET_RX_FIFO_ENTRIES;
  55              		.loc 1 179 0
  56 0000 024B     		ldr	r3, .L5
 180:Generated_Source\PSoC4/UART_433_SPI_UART.c ****         }
 181:Generated_Source\PSoC4/UART_433_SPI_UART.c ****         #endif
 182:Generated_Source\PSoC4/UART_433_SPI_UART.c **** 
 183:Generated_Source\PSoC4/UART_433_SPI_UART.c ****         return (size);
 184:Generated_Source\PSoC4/UART_433_SPI_UART.c ****     }
  57              		.loc 1 184 0
  58              		@ sp needed
 179:Generated_Source\PSoC4/UART_433_SPI_UART.c ****         }
  59              		.loc 1 179 0
  60 0002 1868     		ldr	r0, [r3]
  61              	.LVL2:
  62 0004 1F23     		mov	r3, #31
  63 0006 1840     		and	r0, r3
  64              	.LVL3:
  65              		.loc 1 184 0
  66 0008 7047     		bx	lr
  67              	.L6:
  68 000a C046     		.align	2
  69              	.L5:
  70 000c 08032440 		.word	1076101896
  71              		.cfi_endproc
  72              	.LFE3:
  73              		.size	UART_433_SpiUartGetRxBufferSize, .-UART_433_SpiUartGetRxBufferSize
  74              		.section	.text.UART_433_SpiUartClearRxBuffer,"ax",%progbits
  75              		.align	1
  76              		.global	UART_433_SpiUartClearRxBuffer
  77              		.code	16
  78              		.thumb_func
  79              		.type	UART_433_SpiUartClearRxBuffer, %function
  80              	UART_433_SpiUartClearRxBuffer:
  81              	.LFB4:
 185:Generated_Source\PSoC4/UART_433_SPI_UART.c **** 
 186:Generated_Source\PSoC4/UART_433_SPI_UART.c **** 
 187:Generated_Source\PSoC4/UART_433_SPI_UART.c ****     /*******************************************************************************
 188:Generated_Source\PSoC4/UART_433_SPI_UART.c ****     * Function Name: UART_433_SpiUartClearRxBuffer
 189:Generated_Source\PSoC4/UART_433_SPI_UART.c ****     ****************************************************************************//**
 190:Generated_Source\PSoC4/UART_433_SPI_UART.c ****     *
 191:Generated_Source\PSoC4/UART_433_SPI_UART.c ****     *  Clears the receive buffer and RX FIFO.
 192:Generated_Source\PSoC4/UART_433_SPI_UART.c ****     *
 193:Generated_Source\PSoC4/UART_433_SPI_UART.c ****     * \globalvars
 194:Generated_Source\PSoC4/UART_433_SPI_UART.c ****     *  UART_433_rxBufferHead - the start index to put data into the 
 195:Generated_Source\PSoC4/UART_433_SPI_UART.c ****     *  software receive buffer.
 196:Generated_Source\PSoC4/UART_433_SPI_UART.c ****     *  UART_433_rxBufferTail - the start index to get data from the 
 197:Generated_Source\PSoC4/UART_433_SPI_UART.c ****     *  software receive buffer.
 198:Generated_Source\PSoC4/UART_433_SPI_UART.c ****     *
 199:Generated_Source\PSoC4/UART_433_SPI_UART.c ****     *******************************************************************************/
 200:Generated_Source\PSoC4/UART_433_SPI_UART.c ****     void UART_433_SpiUartClearRxBuffer(void)
 201:Generated_Source\PSoC4/UART_433_SPI_UART.c ****     {
  82              		.loc 1 201 0
ARM GAS  C:\Users\zhiantec\AppData\Local\Temp\ccYr9OEd.s 			page 6


  83              		.cfi_startproc
 202:Generated_Source\PSoC4/UART_433_SPI_UART.c ****         #if (UART_433_CHECK_RX_SW_BUFFER)
 203:Generated_Source\PSoC4/UART_433_SPI_UART.c ****         {
 204:Generated_Source\PSoC4/UART_433_SPI_UART.c ****             /* Lock from component interruption */
 205:Generated_Source\PSoC4/UART_433_SPI_UART.c ****             UART_433_DisableInt();
 206:Generated_Source\PSoC4/UART_433_SPI_UART.c **** 
 207:Generated_Source\PSoC4/UART_433_SPI_UART.c ****             /* Flush RX software buffer */
 208:Generated_Source\PSoC4/UART_433_SPI_UART.c ****             UART_433_rxBufferHead = UART_433_rxBufferTail;
 209:Generated_Source\PSoC4/UART_433_SPI_UART.c ****             UART_433_rxBufferOverflow = 0u;
 210:Generated_Source\PSoC4/UART_433_SPI_UART.c **** 
 211:Generated_Source\PSoC4/UART_433_SPI_UART.c ****             UART_433_CLEAR_RX_FIFO;
 212:Generated_Source\PSoC4/UART_433_SPI_UART.c ****             UART_433_ClearRxInterruptSource(UART_433_INTR_RX_ALL);
 213:Generated_Source\PSoC4/UART_433_SPI_UART.c **** 
 214:Generated_Source\PSoC4/UART_433_SPI_UART.c ****             #if (UART_433_CHECK_UART_RTS_CONTROL_FLOW)
 215:Generated_Source\PSoC4/UART_433_SPI_UART.c ****             {
 216:Generated_Source\PSoC4/UART_433_SPI_UART.c ****                 /* Enable RX Not Empty interrupt source to continue receiving
 217:Generated_Source\PSoC4/UART_433_SPI_UART.c ****                 * data into software buffer.
 218:Generated_Source\PSoC4/UART_433_SPI_UART.c ****                 */
 219:Generated_Source\PSoC4/UART_433_SPI_UART.c ****                 UART_433_INTR_RX_MASK_REG |= UART_433_INTR_RX_NOT_EMPTY;
 220:Generated_Source\PSoC4/UART_433_SPI_UART.c ****             }
 221:Generated_Source\PSoC4/UART_433_SPI_UART.c ****             #endif
 222:Generated_Source\PSoC4/UART_433_SPI_UART.c ****             
 223:Generated_Source\PSoC4/UART_433_SPI_UART.c ****             /* Release lock */
 224:Generated_Source\PSoC4/UART_433_SPI_UART.c ****             UART_433_EnableInt();
 225:Generated_Source\PSoC4/UART_433_SPI_UART.c ****         }
 226:Generated_Source\PSoC4/UART_433_SPI_UART.c ****         #else
 227:Generated_Source\PSoC4/UART_433_SPI_UART.c ****         {
 228:Generated_Source\PSoC4/UART_433_SPI_UART.c ****             UART_433_CLEAR_RX_FIFO;
  84              		.loc 1 228 0
  85 0000 8021     		mov	r1, #128
  86 0002 054B     		ldr	r3, .L8
  87 0004 4902     		lsl	r1, r1, #9
  88 0006 1A68     		ldr	r2, [r3]
 229:Generated_Source\PSoC4/UART_433_SPI_UART.c ****         }
 230:Generated_Source\PSoC4/UART_433_SPI_UART.c ****         #endif
 231:Generated_Source\PSoC4/UART_433_SPI_UART.c ****     }
  89              		.loc 1 231 0
  90              		@ sp needed
 228:Generated_Source\PSoC4/UART_433_SPI_UART.c ****         }
  91              		.loc 1 228 0
  92 0008 0A43     		orr	r2, r1
  93 000a 1A60     		str	r2, [r3]
  94 000c 1968     		ldr	r1, [r3]
  95 000e 034A     		ldr	r2, .L8+4
  96 0010 0A40     		and	r2, r1
  97 0012 1A60     		str	r2, [r3]
  98              		.loc 1 231 0
  99 0014 7047     		bx	lr
 100              	.L9:
 101 0016 C046     		.align	2
 102              	.L8:
 103 0018 04032440 		.word	1076101892
 104 001c FFFFFEFF 		.word	-65537
 105              		.cfi_endproc
 106              	.LFE4:
 107              		.size	UART_433_SpiUartClearRxBuffer, .-UART_433_SpiUartClearRxBuffer
 108              		.section	.text.UART_433_SpiUartWriteTxData,"ax",%progbits
ARM GAS  C:\Users\zhiantec\AppData\Local\Temp\ccYr9OEd.s 			page 7


 109              		.align	1
 110              		.global	UART_433_SpiUartWriteTxData
 111              		.code	16
 112              		.thumb_func
 113              		.type	UART_433_SpiUartWriteTxData, %function
 114              	UART_433_SpiUartWriteTxData:
 115              	.LFB5:
 232:Generated_Source\PSoC4/UART_433_SPI_UART.c **** 
 233:Generated_Source\PSoC4/UART_433_SPI_UART.c **** #endif /* (UART_433_RX_DIRECTION) */
 234:Generated_Source\PSoC4/UART_433_SPI_UART.c **** 
 235:Generated_Source\PSoC4/UART_433_SPI_UART.c **** 
 236:Generated_Source\PSoC4/UART_433_SPI_UART.c **** #if(UART_433_TX_DIRECTION)
 237:Generated_Source\PSoC4/UART_433_SPI_UART.c ****     /*******************************************************************************
 238:Generated_Source\PSoC4/UART_433_SPI_UART.c ****     * Function Name: UART_433_SpiUartWriteTxData
 239:Generated_Source\PSoC4/UART_433_SPI_UART.c ****     ****************************************************************************//**
 240:Generated_Source\PSoC4/UART_433_SPI_UART.c ****     *
 241:Generated_Source\PSoC4/UART_433_SPI_UART.c ****     *  Places a data entry into the transmit buffer to be sent at the next available
 242:Generated_Source\PSoC4/UART_433_SPI_UART.c ****     *  bus time.
 243:Generated_Source\PSoC4/UART_433_SPI_UART.c ****     *  This function is blocking and waits until there is space available to put the
 244:Generated_Source\PSoC4/UART_433_SPI_UART.c ****     *  requested data in the transmit buffer.
 245:Generated_Source\PSoC4/UART_433_SPI_UART.c ****     *
 246:Generated_Source\PSoC4/UART_433_SPI_UART.c ****     *  \param txDataByte: the data to be transmitted.
 247:Generated_Source\PSoC4/UART_433_SPI_UART.c ****     *   The amount of data bits to be transmitted depends on TX data bits selection 
 248:Generated_Source\PSoC4/UART_433_SPI_UART.c ****     *   (the data bit counting starts from LSB of txDataByte).
 249:Generated_Source\PSoC4/UART_433_SPI_UART.c ****     *
 250:Generated_Source\PSoC4/UART_433_SPI_UART.c ****     * \globalvars
 251:Generated_Source\PSoC4/UART_433_SPI_UART.c ****     *  UART_433_txBufferHead - the start index to put data into the 
 252:Generated_Source\PSoC4/UART_433_SPI_UART.c ****     *  software transmit buffer.
 253:Generated_Source\PSoC4/UART_433_SPI_UART.c ****     *  UART_433_txBufferTail - start index to get data from the software
 254:Generated_Source\PSoC4/UART_433_SPI_UART.c ****     *  transmit buffer.
 255:Generated_Source\PSoC4/UART_433_SPI_UART.c ****     *
 256:Generated_Source\PSoC4/UART_433_SPI_UART.c ****     *******************************************************************************/
 257:Generated_Source\PSoC4/UART_433_SPI_UART.c ****     void UART_433_SpiUartWriteTxData(uint32 txData)
 258:Generated_Source\PSoC4/UART_433_SPI_UART.c ****     {
 116              		.loc 1 258 0
 117              		.cfi_startproc
 118              	.LVL4:
 119              	.L11:
 259:Generated_Source\PSoC4/UART_433_SPI_UART.c ****     #if (UART_433_INTERNAL_TX_SW_BUFFER_CONST)
 260:Generated_Source\PSoC4/UART_433_SPI_UART.c ****         uint32 locHead;
 261:Generated_Source\PSoC4/UART_433_SPI_UART.c ****     #endif /* (UART_433_INTERNAL_TX_SW_BUFFER_CONST) */
 262:Generated_Source\PSoC4/UART_433_SPI_UART.c **** 
 263:Generated_Source\PSoC4/UART_433_SPI_UART.c ****         #if (UART_433_CHECK_TX_SW_BUFFER)
 264:Generated_Source\PSoC4/UART_433_SPI_UART.c ****         {
 265:Generated_Source\PSoC4/UART_433_SPI_UART.c ****             /* Put data directly into the TX FIFO */
 266:Generated_Source\PSoC4/UART_433_SPI_UART.c ****             if ((UART_433_txBufferHead == UART_433_txBufferTail) &&
 267:Generated_Source\PSoC4/UART_433_SPI_UART.c ****                 (UART_433_SPI_UART_FIFO_SIZE != UART_433_GET_TX_FIFO_ENTRIES))
 268:Generated_Source\PSoC4/UART_433_SPI_UART.c ****             {
 269:Generated_Source\PSoC4/UART_433_SPI_UART.c ****                 /* TX software buffer is empty: put data directly in TX FIFO */
 270:Generated_Source\PSoC4/UART_433_SPI_UART.c ****                 UART_433_TX_FIFO_WR_REG = txData;
 271:Generated_Source\PSoC4/UART_433_SPI_UART.c ****             }
 272:Generated_Source\PSoC4/UART_433_SPI_UART.c ****             /* Put data into TX software buffer */
 273:Generated_Source\PSoC4/UART_433_SPI_UART.c ****             else
 274:Generated_Source\PSoC4/UART_433_SPI_UART.c ****             {
 275:Generated_Source\PSoC4/UART_433_SPI_UART.c ****                 /* Head index to put data */
 276:Generated_Source\PSoC4/UART_433_SPI_UART.c ****                 locHead = (UART_433_txBufferHead + 1u);
 277:Generated_Source\PSoC4/UART_433_SPI_UART.c **** 
ARM GAS  C:\Users\zhiantec\AppData\Local\Temp\ccYr9OEd.s 			page 8


 278:Generated_Source\PSoC4/UART_433_SPI_UART.c ****                 /* Adjust TX software buffer index */
 279:Generated_Source\PSoC4/UART_433_SPI_UART.c ****                 if (UART_433_TX_BUFFER_SIZE == locHead)
 280:Generated_Source\PSoC4/UART_433_SPI_UART.c ****                 {
 281:Generated_Source\PSoC4/UART_433_SPI_UART.c ****                     locHead = 0u;
 282:Generated_Source\PSoC4/UART_433_SPI_UART.c ****                 }
 283:Generated_Source\PSoC4/UART_433_SPI_UART.c **** 
 284:Generated_Source\PSoC4/UART_433_SPI_UART.c ****                 /* Wait for space in TX software buffer */
 285:Generated_Source\PSoC4/UART_433_SPI_UART.c ****                 while (locHead == UART_433_txBufferTail)
 286:Generated_Source\PSoC4/UART_433_SPI_UART.c ****                 {
 287:Generated_Source\PSoC4/UART_433_SPI_UART.c ****                 }
 288:Generated_Source\PSoC4/UART_433_SPI_UART.c **** 
 289:Generated_Source\PSoC4/UART_433_SPI_UART.c ****                 /* TX software buffer has at least one room */
 290:Generated_Source\PSoC4/UART_433_SPI_UART.c **** 
 291:Generated_Source\PSoC4/UART_433_SPI_UART.c ****                 /* Clear old status of INTR_TX_NOT_FULL. It sets at the end of transfer when TX FIF
 292:Generated_Source\PSoC4/UART_433_SPI_UART.c ****                 UART_433_ClearTxInterruptSource(UART_433_INTR_TX_NOT_FULL);
 293:Generated_Source\PSoC4/UART_433_SPI_UART.c **** 
 294:Generated_Source\PSoC4/UART_433_SPI_UART.c ****                 UART_433_PutWordInTxBuffer(locHead, txData);
 295:Generated_Source\PSoC4/UART_433_SPI_UART.c **** 
 296:Generated_Source\PSoC4/UART_433_SPI_UART.c ****                 UART_433_txBufferHead = locHead;
 297:Generated_Source\PSoC4/UART_433_SPI_UART.c **** 
 298:Generated_Source\PSoC4/UART_433_SPI_UART.c ****                 /* Check if TX Not Full is disabled in interrupt */
 299:Generated_Source\PSoC4/UART_433_SPI_UART.c ****                 if (0u == (UART_433_INTR_TX_MASK_REG & UART_433_INTR_TX_NOT_FULL))
 300:Generated_Source\PSoC4/UART_433_SPI_UART.c ****                 {
 301:Generated_Source\PSoC4/UART_433_SPI_UART.c ****                     /* Enable TX Not Full interrupt source to transmit from software buffer */
 302:Generated_Source\PSoC4/UART_433_SPI_UART.c ****                     UART_433_INTR_TX_MASK_REG |= (uint32) UART_433_INTR_TX_NOT_FULL;
 303:Generated_Source\PSoC4/UART_433_SPI_UART.c ****                 }
 304:Generated_Source\PSoC4/UART_433_SPI_UART.c ****             }
 305:Generated_Source\PSoC4/UART_433_SPI_UART.c ****         }
 306:Generated_Source\PSoC4/UART_433_SPI_UART.c ****         #else
 307:Generated_Source\PSoC4/UART_433_SPI_UART.c ****         {
 308:Generated_Source\PSoC4/UART_433_SPI_UART.c ****             /* Wait until TX FIFO has space to put data element */
 309:Generated_Source\PSoC4/UART_433_SPI_UART.c ****             while (UART_433_SPI_UART_FIFO_SIZE == UART_433_GET_TX_FIFO_ENTRIES)
 120              		.loc 1 309 0 discriminator 1
 121 0000 044B     		ldr	r3, .L14
 122 0002 1A68     		ldr	r2, [r3]
 123 0004 1F23     		mov	r3, #31
 124 0006 1340     		and	r3, r2
 125 0008 082B     		cmp	r3, #8
 126 000a F9D0     		beq	.L11
 310:Generated_Source\PSoC4/UART_433_SPI_UART.c ****             {
 311:Generated_Source\PSoC4/UART_433_SPI_UART.c ****             }
 312:Generated_Source\PSoC4/UART_433_SPI_UART.c **** 
 313:Generated_Source\PSoC4/UART_433_SPI_UART.c ****             UART_433_TX_FIFO_WR_REG = txData;
 127              		.loc 1 313 0
 128 000c 024B     		ldr	r3, .L14+4
 314:Generated_Source\PSoC4/UART_433_SPI_UART.c ****         }
 315:Generated_Source\PSoC4/UART_433_SPI_UART.c ****         #endif
 316:Generated_Source\PSoC4/UART_433_SPI_UART.c ****     }
 129              		.loc 1 316 0
 130              		@ sp needed
 313:Generated_Source\PSoC4/UART_433_SPI_UART.c ****         }
 131              		.loc 1 313 0
 132 000e 1860     		str	r0, [r3]
 133              		.loc 1 316 0
 134 0010 7047     		bx	lr
 135              	.L15:
 136 0012 C046     		.align	2
ARM GAS  C:\Users\zhiantec\AppData\Local\Temp\ccYr9OEd.s 			page 9


 137              	.L14:
 138 0014 08022440 		.word	1076101640
 139 0018 40022440 		.word	1076101696
 140              		.cfi_endproc
 141              	.LFE5:
 142              		.size	UART_433_SpiUartWriteTxData, .-UART_433_SpiUartWriteTxData
 143              		.section	.text.UART_433_SpiUartPutArray,"ax",%progbits
 144              		.align	1
 145              		.global	UART_433_SpiUartPutArray
 146              		.code	16
 147              		.thumb_func
 148              		.type	UART_433_SpiUartPutArray, %function
 149              	UART_433_SpiUartPutArray:
 150              	.LFB6:
 317:Generated_Source\PSoC4/UART_433_SPI_UART.c **** 
 318:Generated_Source\PSoC4/UART_433_SPI_UART.c **** 
 319:Generated_Source\PSoC4/UART_433_SPI_UART.c ****     /*******************************************************************************
 320:Generated_Source\PSoC4/UART_433_SPI_UART.c ****     * Function Name: UART_433_SpiUartPutArray
 321:Generated_Source\PSoC4/UART_433_SPI_UART.c ****     ****************************************************************************//**
 322:Generated_Source\PSoC4/UART_433_SPI_UART.c ****     *
 323:Generated_Source\PSoC4/UART_433_SPI_UART.c ****     *  Places an array of data into the transmit buffer to be sent.
 324:Generated_Source\PSoC4/UART_433_SPI_UART.c ****     *  This function is blocking and waits until there is a space available to put
 325:Generated_Source\PSoC4/UART_433_SPI_UART.c ****     *  all the requested data in the transmit buffer. The array size can be greater
 326:Generated_Source\PSoC4/UART_433_SPI_UART.c ****     *  than transmit buffer size.
 327:Generated_Source\PSoC4/UART_433_SPI_UART.c ****     *
 328:Generated_Source\PSoC4/UART_433_SPI_UART.c ****     * \param wrBuf: pointer to an array of data to be placed in transmit buffer. 
 329:Generated_Source\PSoC4/UART_433_SPI_UART.c ****     *  The width of the data to be transmitted depends on TX data width selection 
 330:Generated_Source\PSoC4/UART_433_SPI_UART.c ****     *  (the data bit counting starts from LSB for each array element).
 331:Generated_Source\PSoC4/UART_433_SPI_UART.c ****     * \param count: number of data elements to be placed in the transmit buffer.
 332:Generated_Source\PSoC4/UART_433_SPI_UART.c ****     *
 333:Generated_Source\PSoC4/UART_433_SPI_UART.c ****     * \globalvars
 334:Generated_Source\PSoC4/UART_433_SPI_UART.c ****     *  UART_433_txBufferHead - the start index to put data into the 
 335:Generated_Source\PSoC4/UART_433_SPI_UART.c ****     *  software transmit buffer.
 336:Generated_Source\PSoC4/UART_433_SPI_UART.c ****     *  UART_433_txBufferTail - start index to get data from the software
 337:Generated_Source\PSoC4/UART_433_SPI_UART.c ****     *  transmit buffer.
 338:Generated_Source\PSoC4/UART_433_SPI_UART.c ****     *
 339:Generated_Source\PSoC4/UART_433_SPI_UART.c ****     *******************************************************************************/
 340:Generated_Source\PSoC4/UART_433_SPI_UART.c ****     void UART_433_SpiUartPutArray(const uint8 wrBuf[], uint32 count)
 341:Generated_Source\PSoC4/UART_433_SPI_UART.c ****     {
 151              		.loc 1 341 0
 152              		.cfi_startproc
 153              	.LVL5:
 154 0000 38B5     		push	{r3, r4, r5, lr}
 155              		.cfi_def_cfa_offset 16
 156              		.cfi_offset 3, -16
 157              		.cfi_offset 4, -12
 158              		.cfi_offset 5, -8
 159              		.cfi_offset 14, -4
 160 0002 041C     		mov	r4, r0
 161 0004 4518     		add	r5, r0, r1
 162              	.LVL6:
 163              	.L17:
 342:Generated_Source\PSoC4/UART_433_SPI_UART.c ****         uint32 i;
 343:Generated_Source\PSoC4/UART_433_SPI_UART.c **** 
 344:Generated_Source\PSoC4/UART_433_SPI_UART.c ****         for (i=0u; i < count; i++)
 164              		.loc 1 344 0 discriminator 1
 165 0006 AC42     		cmp	r4, r5
ARM GAS  C:\Users\zhiantec\AppData\Local\Temp\ccYr9OEd.s 			page 10


 166 0008 04D0     		beq	.L19
 345:Generated_Source\PSoC4/UART_433_SPI_UART.c ****         {
 346:Generated_Source\PSoC4/UART_433_SPI_UART.c ****             UART_433_SpiUartWriteTxData((uint32) wrBuf[i]);
 167              		.loc 1 346 0 discriminator 3
 168 000a 2078     		ldrb	r0, [r4]
 169 000c FFF7FEFF 		bl	UART_433_SpiUartWriteTxData
 170              	.LVL7:
 171 0010 0134     		add	r4, r4, #1
 172              	.LVL8:
 173 0012 F8E7     		b	.L17
 174              	.L19:
 347:Generated_Source\PSoC4/UART_433_SPI_UART.c ****         }
 348:Generated_Source\PSoC4/UART_433_SPI_UART.c ****     }
 175              		.loc 1 348 0
 176              		@ sp needed
 177              	.LVL9:
 178 0014 38BD     		pop	{r3, r4, r5, pc}
 179              		.cfi_endproc
 180              	.LFE6:
 181              		.size	UART_433_SpiUartPutArray, .-UART_433_SpiUartPutArray
 182              		.section	.text.UART_433_SpiUartGetTxBufferSize,"ax",%progbits
 183              		.align	1
 184              		.global	UART_433_SpiUartGetTxBufferSize
 185              		.code	16
 186              		.thumb_func
 187              		.type	UART_433_SpiUartGetTxBufferSize, %function
 188              	UART_433_SpiUartGetTxBufferSize:
 189              	.LFB7:
 349:Generated_Source\PSoC4/UART_433_SPI_UART.c **** 
 350:Generated_Source\PSoC4/UART_433_SPI_UART.c **** 
 351:Generated_Source\PSoC4/UART_433_SPI_UART.c ****     /*******************************************************************************
 352:Generated_Source\PSoC4/UART_433_SPI_UART.c ****     * Function Name: UART_433_SpiUartGetTxBufferSize
 353:Generated_Source\PSoC4/UART_433_SPI_UART.c ****     ****************************************************************************//**
 354:Generated_Source\PSoC4/UART_433_SPI_UART.c ****     *
 355:Generated_Source\PSoC4/UART_433_SPI_UART.c ****     *  Returns the number of elements currently in the transmit buffer.
 356:Generated_Source\PSoC4/UART_433_SPI_UART.c ****     *   - TX software buffer is disabled: returns the number of used entries in
 357:Generated_Source\PSoC4/UART_433_SPI_UART.c ****     *     TX FIFO.
 358:Generated_Source\PSoC4/UART_433_SPI_UART.c ****     *   - TX software buffer is enabled: returns the number of elements currently
 359:Generated_Source\PSoC4/UART_433_SPI_UART.c ****     *     used in the transmit buffer. This number does not include used entries in
 360:Generated_Source\PSoC4/UART_433_SPI_UART.c ****     *     the TX FIFO. The transmit buffer size is zero until the TX FIFO is
 361:Generated_Source\PSoC4/UART_433_SPI_UART.c ****     *     not full.
 362:Generated_Source\PSoC4/UART_433_SPI_UART.c ****     *
 363:Generated_Source\PSoC4/UART_433_SPI_UART.c ****     * \return
 364:Generated_Source\PSoC4/UART_433_SPI_UART.c ****     *  Number of data elements ready to transmit.
 365:Generated_Source\PSoC4/UART_433_SPI_UART.c ****     *
 366:Generated_Source\PSoC4/UART_433_SPI_UART.c ****     * \globalvars
 367:Generated_Source\PSoC4/UART_433_SPI_UART.c ****     *  UART_433_txBufferHead - the start index to put data into the 
 368:Generated_Source\PSoC4/UART_433_SPI_UART.c ****     *  software transmit buffer.
 369:Generated_Source\PSoC4/UART_433_SPI_UART.c ****     *  UART_433_txBufferTail - start index to get data from the software
 370:Generated_Source\PSoC4/UART_433_SPI_UART.c ****     *  transmit buffer.
 371:Generated_Source\PSoC4/UART_433_SPI_UART.c ****     *
 372:Generated_Source\PSoC4/UART_433_SPI_UART.c ****     *******************************************************************************/
 373:Generated_Source\PSoC4/UART_433_SPI_UART.c ****     uint32 UART_433_SpiUartGetTxBufferSize(void)
 374:Generated_Source\PSoC4/UART_433_SPI_UART.c ****     {
 190              		.loc 1 374 0
 191              		.cfi_startproc
 375:Generated_Source\PSoC4/UART_433_SPI_UART.c ****         uint32 size;
ARM GAS  C:\Users\zhiantec\AppData\Local\Temp\ccYr9OEd.s 			page 11


 376:Generated_Source\PSoC4/UART_433_SPI_UART.c ****     #if (UART_433_INTERNAL_TX_SW_BUFFER_CONST)
 377:Generated_Source\PSoC4/UART_433_SPI_UART.c ****         uint32 locTail;
 378:Generated_Source\PSoC4/UART_433_SPI_UART.c ****     #endif /* (UART_433_INTERNAL_TX_SW_BUFFER_CONST) */
 379:Generated_Source\PSoC4/UART_433_SPI_UART.c **** 
 380:Generated_Source\PSoC4/UART_433_SPI_UART.c ****         #if (UART_433_CHECK_TX_SW_BUFFER)
 381:Generated_Source\PSoC4/UART_433_SPI_UART.c ****         {
 382:Generated_Source\PSoC4/UART_433_SPI_UART.c ****             /* Get current Tail index */
 383:Generated_Source\PSoC4/UART_433_SPI_UART.c ****             locTail = UART_433_txBufferTail;
 384:Generated_Source\PSoC4/UART_433_SPI_UART.c **** 
 385:Generated_Source\PSoC4/UART_433_SPI_UART.c ****             if (UART_433_txBufferHead >= locTail)
 386:Generated_Source\PSoC4/UART_433_SPI_UART.c ****             {
 387:Generated_Source\PSoC4/UART_433_SPI_UART.c ****                 size = (UART_433_txBufferHead - locTail);
 388:Generated_Source\PSoC4/UART_433_SPI_UART.c ****             }
 389:Generated_Source\PSoC4/UART_433_SPI_UART.c ****             else
 390:Generated_Source\PSoC4/UART_433_SPI_UART.c ****             {
 391:Generated_Source\PSoC4/UART_433_SPI_UART.c ****                 size = (UART_433_txBufferHead + (UART_433_TX_BUFFER_SIZE - locTail));
 392:Generated_Source\PSoC4/UART_433_SPI_UART.c ****             }
 393:Generated_Source\PSoC4/UART_433_SPI_UART.c ****         }
 394:Generated_Source\PSoC4/UART_433_SPI_UART.c ****         #else
 395:Generated_Source\PSoC4/UART_433_SPI_UART.c ****         {
 396:Generated_Source\PSoC4/UART_433_SPI_UART.c ****             size = UART_433_GET_TX_FIFO_ENTRIES;
 192              		.loc 1 396 0
 193 0000 024B     		ldr	r3, .L21
 397:Generated_Source\PSoC4/UART_433_SPI_UART.c ****         }
 398:Generated_Source\PSoC4/UART_433_SPI_UART.c ****         #endif
 399:Generated_Source\PSoC4/UART_433_SPI_UART.c **** 
 400:Generated_Source\PSoC4/UART_433_SPI_UART.c ****         return (size);
 401:Generated_Source\PSoC4/UART_433_SPI_UART.c ****     }
 194              		.loc 1 401 0
 195              		@ sp needed
 396:Generated_Source\PSoC4/UART_433_SPI_UART.c ****         }
 196              		.loc 1 396 0
 197 0002 1868     		ldr	r0, [r3]
 198              	.LVL10:
 199 0004 1F23     		mov	r3, #31
 200 0006 1840     		and	r0, r3
 201              	.LVL11:
 202              		.loc 1 401 0
 203 0008 7047     		bx	lr
 204              	.L22:
 205 000a C046     		.align	2
 206              	.L21:
 207 000c 08022440 		.word	1076101640
 208              		.cfi_endproc
 209              	.LFE7:
 210              		.size	UART_433_SpiUartGetTxBufferSize, .-UART_433_SpiUartGetTxBufferSize
 211              		.section	.text.UART_433_SpiUartClearTxBuffer,"ax",%progbits
 212              		.align	1
 213              		.global	UART_433_SpiUartClearTxBuffer
 214              		.code	16
 215              		.thumb_func
 216              		.type	UART_433_SpiUartClearTxBuffer, %function
 217              	UART_433_SpiUartClearTxBuffer:
 218              	.LFB8:
 402:Generated_Source\PSoC4/UART_433_SPI_UART.c **** 
 403:Generated_Source\PSoC4/UART_433_SPI_UART.c **** 
 404:Generated_Source\PSoC4/UART_433_SPI_UART.c ****     /*******************************************************************************
ARM GAS  C:\Users\zhiantec\AppData\Local\Temp\ccYr9OEd.s 			page 12


 405:Generated_Source\PSoC4/UART_433_SPI_UART.c ****     * Function Name: UART_433_SpiUartClearTxBuffer
 406:Generated_Source\PSoC4/UART_433_SPI_UART.c ****     ****************************************************************************//**
 407:Generated_Source\PSoC4/UART_433_SPI_UART.c ****     *
 408:Generated_Source\PSoC4/UART_433_SPI_UART.c ****     *  Clears the transmit buffer and TX FIFO.
 409:Generated_Source\PSoC4/UART_433_SPI_UART.c ****     *
 410:Generated_Source\PSoC4/UART_433_SPI_UART.c ****     * \globalvars
 411:Generated_Source\PSoC4/UART_433_SPI_UART.c ****     *  UART_433_txBufferHead - the start index to put data into the 
 412:Generated_Source\PSoC4/UART_433_SPI_UART.c ****     *  software transmit buffer.
 413:Generated_Source\PSoC4/UART_433_SPI_UART.c ****     *  UART_433_txBufferTail - start index to get data from the software
 414:Generated_Source\PSoC4/UART_433_SPI_UART.c ****     *  transmit buffer.
 415:Generated_Source\PSoC4/UART_433_SPI_UART.c ****     *
 416:Generated_Source\PSoC4/UART_433_SPI_UART.c ****     *******************************************************************************/
 417:Generated_Source\PSoC4/UART_433_SPI_UART.c ****     void UART_433_SpiUartClearTxBuffer(void)
 418:Generated_Source\PSoC4/UART_433_SPI_UART.c ****     {
 219              		.loc 1 418 0
 220              		.cfi_startproc
 419:Generated_Source\PSoC4/UART_433_SPI_UART.c ****         #if (UART_433_CHECK_TX_SW_BUFFER)
 420:Generated_Source\PSoC4/UART_433_SPI_UART.c ****         {
 421:Generated_Source\PSoC4/UART_433_SPI_UART.c ****             /* Lock from component interruption */
 422:Generated_Source\PSoC4/UART_433_SPI_UART.c ****             UART_433_DisableInt();
 423:Generated_Source\PSoC4/UART_433_SPI_UART.c **** 
 424:Generated_Source\PSoC4/UART_433_SPI_UART.c ****             /* Flush TX software buffer */
 425:Generated_Source\PSoC4/UART_433_SPI_UART.c ****             UART_433_txBufferHead = UART_433_txBufferTail;
 426:Generated_Source\PSoC4/UART_433_SPI_UART.c **** 
 427:Generated_Source\PSoC4/UART_433_SPI_UART.c ****             UART_433_INTR_TX_MASK_REG &= (uint32) ~UART_433_INTR_TX_NOT_FULL;
 428:Generated_Source\PSoC4/UART_433_SPI_UART.c ****             UART_433_CLEAR_TX_FIFO;
 429:Generated_Source\PSoC4/UART_433_SPI_UART.c ****             UART_433_ClearTxInterruptSource(UART_433_INTR_TX_ALL);
 430:Generated_Source\PSoC4/UART_433_SPI_UART.c **** 
 431:Generated_Source\PSoC4/UART_433_SPI_UART.c ****             /* Release lock */
 432:Generated_Source\PSoC4/UART_433_SPI_UART.c ****             UART_433_EnableInt();
 433:Generated_Source\PSoC4/UART_433_SPI_UART.c ****         }
 434:Generated_Source\PSoC4/UART_433_SPI_UART.c ****         #else
 435:Generated_Source\PSoC4/UART_433_SPI_UART.c ****         {
 436:Generated_Source\PSoC4/UART_433_SPI_UART.c ****             UART_433_CLEAR_TX_FIFO;
 221              		.loc 1 436 0
 222 0000 8021     		mov	r1, #128
 223 0002 054B     		ldr	r3, .L24
 224 0004 4902     		lsl	r1, r1, #9
 225 0006 1A68     		ldr	r2, [r3]
 437:Generated_Source\PSoC4/UART_433_SPI_UART.c ****         }
 438:Generated_Source\PSoC4/UART_433_SPI_UART.c ****         #endif
 439:Generated_Source\PSoC4/UART_433_SPI_UART.c ****     }
 226              		.loc 1 439 0
 227              		@ sp needed
 436:Generated_Source\PSoC4/UART_433_SPI_UART.c ****         }
 228              		.loc 1 436 0
 229 0008 0A43     		orr	r2, r1
 230 000a 1A60     		str	r2, [r3]
 231 000c 1968     		ldr	r1, [r3]
 232 000e 034A     		ldr	r2, .L24+4
 233 0010 0A40     		and	r2, r1
 234 0012 1A60     		str	r2, [r3]
 235              		.loc 1 439 0
 236 0014 7047     		bx	lr
 237              	.L25:
 238 0016 C046     		.align	2
 239              	.L24:
ARM GAS  C:\Users\zhiantec\AppData\Local\Temp\ccYr9OEd.s 			page 13


 240 0018 04022440 		.word	1076101636
 241 001c FFFFFEFF 		.word	-65537
 242              		.cfi_endproc
 243              	.LFE8:
 244              		.size	UART_433_SpiUartClearTxBuffer, .-UART_433_SpiUartClearTxBuffer
 245              		.section	.text.UART_433_SpiUartDisableIntRx,"ax",%progbits
 246              		.align	1
 247              		.global	UART_433_SpiUartDisableIntRx
 248              		.code	16
 249              		.thumb_func
 250              		.type	UART_433_SpiUartDisableIntRx, %function
 251              	UART_433_SpiUartDisableIntRx:
 252              	.LFB9:
 440:Generated_Source\PSoC4/UART_433_SPI_UART.c **** 
 441:Generated_Source\PSoC4/UART_433_SPI_UART.c **** #endif /* (UART_433_TX_DIRECTION) */
 442:Generated_Source\PSoC4/UART_433_SPI_UART.c **** 
 443:Generated_Source\PSoC4/UART_433_SPI_UART.c **** 
 444:Generated_Source\PSoC4/UART_433_SPI_UART.c **** /*******************************************************************************
 445:Generated_Source\PSoC4/UART_433_SPI_UART.c **** * Function Name: UART_433_SpiUartDisableIntRx
 446:Generated_Source\PSoC4/UART_433_SPI_UART.c **** ****************************************************************************//**
 447:Generated_Source\PSoC4/UART_433_SPI_UART.c **** *
 448:Generated_Source\PSoC4/UART_433_SPI_UART.c **** *  Disables the RX interrupt sources.
 449:Generated_Source\PSoC4/UART_433_SPI_UART.c **** *
 450:Generated_Source\PSoC4/UART_433_SPI_UART.c **** *  \return
 451:Generated_Source\PSoC4/UART_433_SPI_UART.c **** *   Returns the RX interrupt sources enabled before the function call.
 452:Generated_Source\PSoC4/UART_433_SPI_UART.c **** *
 453:Generated_Source\PSoC4/UART_433_SPI_UART.c **** *******************************************************************************/
 454:Generated_Source\PSoC4/UART_433_SPI_UART.c **** uint32 UART_433_SpiUartDisableIntRx(void)
 455:Generated_Source\PSoC4/UART_433_SPI_UART.c **** {
 253              		.loc 1 455 0
 254              		.cfi_startproc
 456:Generated_Source\PSoC4/UART_433_SPI_UART.c ****     uint32 intSource;
 457:Generated_Source\PSoC4/UART_433_SPI_UART.c **** 
 458:Generated_Source\PSoC4/UART_433_SPI_UART.c ****     intSource = UART_433_GetRxInterruptMode();
 459:Generated_Source\PSoC4/UART_433_SPI_UART.c **** 
 460:Generated_Source\PSoC4/UART_433_SPI_UART.c ****     UART_433_SetRxInterruptMode(UART_433_NO_INTR_SOURCES);
 255              		.loc 1 460 0
 256 0000 0022     		mov	r2, #0
 458:Generated_Source\PSoC4/UART_433_SPI_UART.c **** 
 257              		.loc 1 458 0
 258 0002 024B     		ldr	r3, .L27
 461:Generated_Source\PSoC4/UART_433_SPI_UART.c **** 
 462:Generated_Source\PSoC4/UART_433_SPI_UART.c ****     return (intSource);
 463:Generated_Source\PSoC4/UART_433_SPI_UART.c **** }
 259              		.loc 1 463 0
 260              		@ sp needed
 458:Generated_Source\PSoC4/UART_433_SPI_UART.c **** 
 261              		.loc 1 458 0
 262 0004 1868     		ldr	r0, [r3]
 263              	.LVL12:
 460:Generated_Source\PSoC4/UART_433_SPI_UART.c **** 
 264              		.loc 1 460 0
 265 0006 1A60     		str	r2, [r3]
 266              		.loc 1 463 0
 267 0008 7047     		bx	lr
 268              	.L28:
 269 000a C046     		.align	2
ARM GAS  C:\Users\zhiantec\AppData\Local\Temp\ccYr9OEd.s 			page 14


 270              	.L27:
 271 000c C80F2440 		.word	1076105160
 272              		.cfi_endproc
 273              	.LFE9:
 274              		.size	UART_433_SpiUartDisableIntRx, .-UART_433_SpiUartDisableIntRx
 275              		.section	.text.UART_433_SpiUartDisableIntTx,"ax",%progbits
 276              		.align	1
 277              		.global	UART_433_SpiUartDisableIntTx
 278              		.code	16
 279              		.thumb_func
 280              		.type	UART_433_SpiUartDisableIntTx, %function
 281              	UART_433_SpiUartDisableIntTx:
 282              	.LFB10:
 464:Generated_Source\PSoC4/UART_433_SPI_UART.c **** 
 465:Generated_Source\PSoC4/UART_433_SPI_UART.c **** 
 466:Generated_Source\PSoC4/UART_433_SPI_UART.c **** /*******************************************************************************
 467:Generated_Source\PSoC4/UART_433_SPI_UART.c **** * Function Name: UART_433_SpiUartDisableIntTx
 468:Generated_Source\PSoC4/UART_433_SPI_UART.c **** ****************************************************************************//**
 469:Generated_Source\PSoC4/UART_433_SPI_UART.c **** *
 470:Generated_Source\PSoC4/UART_433_SPI_UART.c **** *  Disables TX interrupt sources.
 471:Generated_Source\PSoC4/UART_433_SPI_UART.c **** *
 472:Generated_Source\PSoC4/UART_433_SPI_UART.c **** *  \return
 473:Generated_Source\PSoC4/UART_433_SPI_UART.c **** *   Returns TX interrupt sources enabled before function call.
 474:Generated_Source\PSoC4/UART_433_SPI_UART.c **** *
 475:Generated_Source\PSoC4/UART_433_SPI_UART.c **** *******************************************************************************/
 476:Generated_Source\PSoC4/UART_433_SPI_UART.c **** uint32 UART_433_SpiUartDisableIntTx(void)
 477:Generated_Source\PSoC4/UART_433_SPI_UART.c **** {
 283              		.loc 1 477 0
 284              		.cfi_startproc
 478:Generated_Source\PSoC4/UART_433_SPI_UART.c ****     uint32 intSourceMask;
 479:Generated_Source\PSoC4/UART_433_SPI_UART.c **** 
 480:Generated_Source\PSoC4/UART_433_SPI_UART.c ****     intSourceMask = UART_433_GetTxInterruptMode();
 481:Generated_Source\PSoC4/UART_433_SPI_UART.c **** 
 482:Generated_Source\PSoC4/UART_433_SPI_UART.c ****     UART_433_SetTxInterruptMode(UART_433_NO_INTR_SOURCES);
 285              		.loc 1 482 0
 286 0000 0022     		mov	r2, #0
 480:Generated_Source\PSoC4/UART_433_SPI_UART.c **** 
 287              		.loc 1 480 0
 288 0002 024B     		ldr	r3, .L30
 483:Generated_Source\PSoC4/UART_433_SPI_UART.c **** 
 484:Generated_Source\PSoC4/UART_433_SPI_UART.c ****     return (intSourceMask);
 485:Generated_Source\PSoC4/UART_433_SPI_UART.c **** }
 289              		.loc 1 485 0
 290              		@ sp needed
 480:Generated_Source\PSoC4/UART_433_SPI_UART.c **** 
 291              		.loc 1 480 0
 292 0004 1868     		ldr	r0, [r3]
 293              	.LVL13:
 482:Generated_Source\PSoC4/UART_433_SPI_UART.c **** 
 294              		.loc 1 482 0
 295 0006 1A60     		str	r2, [r3]
 296              		.loc 1 485 0
 297 0008 7047     		bx	lr
 298              	.L31:
 299 000a C046     		.align	2
 300              	.L30:
 301 000c 880F2440 		.word	1076105096
ARM GAS  C:\Users\zhiantec\AppData\Local\Temp\ccYr9OEd.s 			page 15


 302              		.cfi_endproc
 303              	.LFE10:
 304              		.size	UART_433_SpiUartDisableIntTx, .-UART_433_SpiUartDisableIntTx
 305              		.text
 306              	.Letext0:
 307              		.file 2 "Generated_Source\\PSoC4/cytypes.h"