ARM GAS  C:\Users\zhiantec\AppData\Local\Temp\ccy1RDEb.s 			page 1


   1              		.cpu cortex-m0
   2              		.fpu softvfp
   3              		.eabi_attribute 20, 1
   4              		.eabi_attribute 21, 1
   5              		.eabi_attribute 23, 3
   6              		.eabi_attribute 24, 1
   7              		.eabi_attribute 25, 1
   8              		.eabi_attribute 26, 1
   9              		.eabi_attribute 30, 4
  10              		.eabi_attribute 34, 0
  11              		.eabi_attribute 18, 4
  12              		.code	16
  13              		.file	"UART_433_UART.c"
  14              		.text
  15              	.Ltext0:
  16              		.cfi_sections	.debug_frame
  17              		.section	.text.UART_433_UartInit,"ax",%progbits
  18              		.align	1
  19              		.global	UART_433_UartInit
  20              		.code	16
  21              		.thumb_func
  22              		.type	UART_433_UartInit, %function
  23              	UART_433_UartInit:
  24              	.LFB2:
  25              		.file 1 "Generated_Source\\PSoC4\\UART_433_UART.c"
   1:Generated_Source\PSoC4/UART_433_UART.c **** /***************************************************************************//**
   2:Generated_Source\PSoC4/UART_433_UART.c **** * \file UART_433_UART.c
   3:Generated_Source\PSoC4/UART_433_UART.c **** * \version 3.20
   4:Generated_Source\PSoC4/UART_433_UART.c **** *
   5:Generated_Source\PSoC4/UART_433_UART.c **** * \brief
   6:Generated_Source\PSoC4/UART_433_UART.c **** *  This file provides the source code to the API for the SCB Component in
   7:Generated_Source\PSoC4/UART_433_UART.c **** *  UART mode.
   8:Generated_Source\PSoC4/UART_433_UART.c **** *
   9:Generated_Source\PSoC4/UART_433_UART.c **** * Note:
  10:Generated_Source\PSoC4/UART_433_UART.c **** *
  11:Generated_Source\PSoC4/UART_433_UART.c **** *******************************************************************************
  12:Generated_Source\PSoC4/UART_433_UART.c **** * \copyright
  13:Generated_Source\PSoC4/UART_433_UART.c **** * Copyright 2013-2016, Cypress Semiconductor Corporation.  All rights reserved.
  14:Generated_Source\PSoC4/UART_433_UART.c **** * You may use this file only in accordance with the license, terms, conditions,
  15:Generated_Source\PSoC4/UART_433_UART.c **** * disclaimers, and limitations in the end user license agreement accompanying
  16:Generated_Source\PSoC4/UART_433_UART.c **** * the software package with which this file was provided.
  17:Generated_Source\PSoC4/UART_433_UART.c **** *******************************************************************************/
  18:Generated_Source\PSoC4/UART_433_UART.c **** 
  19:Generated_Source\PSoC4/UART_433_UART.c **** #include "UART_433_PVT.h"
  20:Generated_Source\PSoC4/UART_433_UART.c **** #include "UART_433_SPI_UART_PVT.h"
  21:Generated_Source\PSoC4/UART_433_UART.c **** 
  22:Generated_Source\PSoC4/UART_433_UART.c **** 
  23:Generated_Source\PSoC4/UART_433_UART.c **** #if (UART_433_UART_WAKE_ENABLE_CONST && UART_433_UART_RX_WAKEUP_IRQ)
  24:Generated_Source\PSoC4/UART_433_UART.c ****     /**
  25:Generated_Source\PSoC4/UART_433_UART.c ****     * \addtogroup group_globals
  26:Generated_Source\PSoC4/UART_433_UART.c ****     * \{
  27:Generated_Source\PSoC4/UART_433_UART.c ****     */
  28:Generated_Source\PSoC4/UART_433_UART.c ****     /** This global variable determines whether to enable Skip Start
  29:Generated_Source\PSoC4/UART_433_UART.c ****     * functionality when UART_433_Sleep() function is called:
  30:Generated_Source\PSoC4/UART_433_UART.c ****     * 0 ¨C disable, other values ¨C enable. Default value is 1.
  31:Generated_Source\PSoC4/UART_433_UART.c ****     * It is only available when Enable wakeup from Deep Sleep Mode is enabled.
  32:Generated_Source\PSoC4/UART_433_UART.c ****     */
ARM GAS  C:\Users\zhiantec\AppData\Local\Temp\ccy1RDEb.s 			page 2


  33:Generated_Source\PSoC4/UART_433_UART.c ****     uint8 UART_433_skipStart = 1u;
  34:Generated_Source\PSoC4/UART_433_UART.c ****     /** \} globals */
  35:Generated_Source\PSoC4/UART_433_UART.c **** #endif /* (UART_433_UART_WAKE_ENABLE_CONST && UART_433_UART_RX_WAKEUP_IRQ) */
  36:Generated_Source\PSoC4/UART_433_UART.c **** 
  37:Generated_Source\PSoC4/UART_433_UART.c **** #if(UART_433_SCB_MODE_UNCONFIG_CONST_CFG)
  38:Generated_Source\PSoC4/UART_433_UART.c **** 
  39:Generated_Source\PSoC4/UART_433_UART.c ****     /***************************************
  40:Generated_Source\PSoC4/UART_433_UART.c ****     *  Configuration Structure Initialization
  41:Generated_Source\PSoC4/UART_433_UART.c ****     ***************************************/
  42:Generated_Source\PSoC4/UART_433_UART.c **** 
  43:Generated_Source\PSoC4/UART_433_UART.c ****     const UART_433_UART_INIT_STRUCT UART_433_configUart =
  44:Generated_Source\PSoC4/UART_433_UART.c ****     {
  45:Generated_Source\PSoC4/UART_433_UART.c ****         UART_433_UART_SUB_MODE,
  46:Generated_Source\PSoC4/UART_433_UART.c ****         UART_433_UART_DIRECTION,
  47:Generated_Source\PSoC4/UART_433_UART.c ****         UART_433_UART_DATA_BITS_NUM,
  48:Generated_Source\PSoC4/UART_433_UART.c ****         UART_433_UART_PARITY_TYPE,
  49:Generated_Source\PSoC4/UART_433_UART.c ****         UART_433_UART_STOP_BITS_NUM,
  50:Generated_Source\PSoC4/UART_433_UART.c ****         UART_433_UART_OVS_FACTOR,
  51:Generated_Source\PSoC4/UART_433_UART.c ****         UART_433_UART_IRDA_LOW_POWER,
  52:Generated_Source\PSoC4/UART_433_UART.c ****         UART_433_UART_MEDIAN_FILTER_ENABLE,
  53:Generated_Source\PSoC4/UART_433_UART.c ****         UART_433_UART_RETRY_ON_NACK,
  54:Generated_Source\PSoC4/UART_433_UART.c ****         UART_433_UART_IRDA_POLARITY,
  55:Generated_Source\PSoC4/UART_433_UART.c ****         UART_433_UART_DROP_ON_PARITY_ERR,
  56:Generated_Source\PSoC4/UART_433_UART.c ****         UART_433_UART_DROP_ON_FRAME_ERR,
  57:Generated_Source\PSoC4/UART_433_UART.c ****         UART_433_UART_WAKE_ENABLE,
  58:Generated_Source\PSoC4/UART_433_UART.c ****         0u,
  59:Generated_Source\PSoC4/UART_433_UART.c ****         NULL,
  60:Generated_Source\PSoC4/UART_433_UART.c ****         0u,
  61:Generated_Source\PSoC4/UART_433_UART.c ****         NULL,
  62:Generated_Source\PSoC4/UART_433_UART.c ****         UART_433_UART_MP_MODE_ENABLE,
  63:Generated_Source\PSoC4/UART_433_UART.c ****         UART_433_UART_MP_ACCEPT_ADDRESS,
  64:Generated_Source\PSoC4/UART_433_UART.c ****         UART_433_UART_MP_RX_ADDRESS,
  65:Generated_Source\PSoC4/UART_433_UART.c ****         UART_433_UART_MP_RX_ADDRESS_MASK,
  66:Generated_Source\PSoC4/UART_433_UART.c ****         (uint32) UART_433_SCB_IRQ_INTERNAL,
  67:Generated_Source\PSoC4/UART_433_UART.c ****         UART_433_UART_INTR_RX_MASK,
  68:Generated_Source\PSoC4/UART_433_UART.c ****         UART_433_UART_RX_TRIGGER_LEVEL,
  69:Generated_Source\PSoC4/UART_433_UART.c ****         UART_433_UART_INTR_TX_MASK,
  70:Generated_Source\PSoC4/UART_433_UART.c ****         UART_433_UART_TX_TRIGGER_LEVEL,
  71:Generated_Source\PSoC4/UART_433_UART.c ****         (uint8) UART_433_UART_BYTE_MODE_ENABLE,
  72:Generated_Source\PSoC4/UART_433_UART.c ****         (uint8) UART_433_UART_CTS_ENABLE,
  73:Generated_Source\PSoC4/UART_433_UART.c ****         (uint8) UART_433_UART_CTS_POLARITY,
  74:Generated_Source\PSoC4/UART_433_UART.c ****         (uint8) UART_433_UART_RTS_POLARITY,
  75:Generated_Source\PSoC4/UART_433_UART.c ****         (uint8) UART_433_UART_RTS_FIFO_LEVEL
  76:Generated_Source\PSoC4/UART_433_UART.c ****     };
  77:Generated_Source\PSoC4/UART_433_UART.c **** 
  78:Generated_Source\PSoC4/UART_433_UART.c **** 
  79:Generated_Source\PSoC4/UART_433_UART.c ****     /*******************************************************************************
  80:Generated_Source\PSoC4/UART_433_UART.c ****     * Function Name: UART_433_UartInit
  81:Generated_Source\PSoC4/UART_433_UART.c ****     ****************************************************************************//**
  82:Generated_Source\PSoC4/UART_433_UART.c ****     *
  83:Generated_Source\PSoC4/UART_433_UART.c ****     *  Configures the UART_433 for UART operation.
  84:Generated_Source\PSoC4/UART_433_UART.c ****     *
  85:Generated_Source\PSoC4/UART_433_UART.c ****     *  This function is intended specifically to be used when the UART_433
  86:Generated_Source\PSoC4/UART_433_UART.c ****     *  configuration is set to ¡°Unconfigured UART_433¡± in the customizer.
  87:Generated_Source\PSoC4/UART_433_UART.c ****     *  After initializing the UART_433 in UART mode using this function,
  88:Generated_Source\PSoC4/UART_433_UART.c ****     *  the component can be enabled using the UART_433_Start() or
  89:Generated_Source\PSoC4/UART_433_UART.c ****     * UART_433_Enable() function.
ARM GAS  C:\Users\zhiantec\AppData\Local\Temp\ccy1RDEb.s 			page 3


  90:Generated_Source\PSoC4/UART_433_UART.c ****     *  This function uses a pointer to a structure that provides the configuration
  91:Generated_Source\PSoC4/UART_433_UART.c ****     *  settings. This structure contains the same information that would otherwise
  92:Generated_Source\PSoC4/UART_433_UART.c ****     *  be provided by the customizer settings.
  93:Generated_Source\PSoC4/UART_433_UART.c ****     *
  94:Generated_Source\PSoC4/UART_433_UART.c ****     *  \param config: pointer to a structure that contains the following list of
  95:Generated_Source\PSoC4/UART_433_UART.c ****     *   fields. These fields match the selections available in the customizer.
  96:Generated_Source\PSoC4/UART_433_UART.c ****     *   Refer to the customizer for further description of the settings.
  97:Generated_Source\PSoC4/UART_433_UART.c ****     *
  98:Generated_Source\PSoC4/UART_433_UART.c ****     *******************************************************************************/
  99:Generated_Source\PSoC4/UART_433_UART.c ****     void UART_433_UartInit(const UART_433_UART_INIT_STRUCT *config)
 100:Generated_Source\PSoC4/UART_433_UART.c ****     {
 101:Generated_Source\PSoC4/UART_433_UART.c ****         uint32 pinsConfig;
 102:Generated_Source\PSoC4/UART_433_UART.c **** 
 103:Generated_Source\PSoC4/UART_433_UART.c ****         if (NULL == config)
 104:Generated_Source\PSoC4/UART_433_UART.c ****         {
 105:Generated_Source\PSoC4/UART_433_UART.c ****             CYASSERT(0u != 0u); /* Halt execution due to bad function parameter */
 106:Generated_Source\PSoC4/UART_433_UART.c ****         }
 107:Generated_Source\PSoC4/UART_433_UART.c ****         else
 108:Generated_Source\PSoC4/UART_433_UART.c ****         {
 109:Generated_Source\PSoC4/UART_433_UART.c ****             /* Get direction to configure UART pins: TX, RX or TX+RX */
 110:Generated_Source\PSoC4/UART_433_UART.c ****             pinsConfig  = config->direction;
 111:Generated_Source\PSoC4/UART_433_UART.c **** 
 112:Generated_Source\PSoC4/UART_433_UART.c ****         #if !(UART_433_CY_SCBIP_V0 || UART_433_CY_SCBIP_V1)
 113:Generated_Source\PSoC4/UART_433_UART.c ****             /* Add RTS and CTS pins to configure */
 114:Generated_Source\PSoC4/UART_433_UART.c ****             pinsConfig |= (0u != config->rtsRxFifoLevel) ? (UART_433_UART_RTS_PIN_ENABLE) : (0u);
 115:Generated_Source\PSoC4/UART_433_UART.c ****             pinsConfig |= (0u != config->enableCts)      ? (UART_433_UART_CTS_PIN_ENABLE) : (0u);
 116:Generated_Source\PSoC4/UART_433_UART.c ****         #endif /* !(UART_433_CY_SCBIP_V0 || UART_433_CY_SCBIP_V1) */
 117:Generated_Source\PSoC4/UART_433_UART.c **** 
 118:Generated_Source\PSoC4/UART_433_UART.c ****             /* Configure pins */
 119:Generated_Source\PSoC4/UART_433_UART.c ****             UART_433_SetPins(UART_433_SCB_MODE_UART, config->mode, pinsConfig);
 120:Generated_Source\PSoC4/UART_433_UART.c **** 
 121:Generated_Source\PSoC4/UART_433_UART.c ****             /* Store internal configuration */
 122:Generated_Source\PSoC4/UART_433_UART.c ****             UART_433_scbMode       = (uint8) UART_433_SCB_MODE_UART;
 123:Generated_Source\PSoC4/UART_433_UART.c ****             UART_433_scbEnableWake = (uint8) config->enableWake;
 124:Generated_Source\PSoC4/UART_433_UART.c ****             UART_433_scbEnableIntr = (uint8) config->enableInterrupt;
 125:Generated_Source\PSoC4/UART_433_UART.c **** 
 126:Generated_Source\PSoC4/UART_433_UART.c ****             /* Set RX direction internal variables */
 127:Generated_Source\PSoC4/UART_433_UART.c ****             UART_433_rxBuffer      =         config->rxBuffer;
 128:Generated_Source\PSoC4/UART_433_UART.c ****             UART_433_rxDataBits    = (uint8) config->dataBits;
 129:Generated_Source\PSoC4/UART_433_UART.c ****             UART_433_rxBufferSize  = (uint8) config->rxBufferSize;
 130:Generated_Source\PSoC4/UART_433_UART.c **** 
 131:Generated_Source\PSoC4/UART_433_UART.c ****             /* Set TX direction internal variables */
 132:Generated_Source\PSoC4/UART_433_UART.c ****             UART_433_txBuffer      =         config->txBuffer;
 133:Generated_Source\PSoC4/UART_433_UART.c ****             UART_433_txDataBits    = (uint8) config->dataBits;
 134:Generated_Source\PSoC4/UART_433_UART.c ****             UART_433_txBufferSize  = (uint8) config->txBufferSize;
 135:Generated_Source\PSoC4/UART_433_UART.c **** 
 136:Generated_Source\PSoC4/UART_433_UART.c ****             /* Configure UART interface */
 137:Generated_Source\PSoC4/UART_433_UART.c ****             if(UART_433_UART_MODE_IRDA == config->mode)
 138:Generated_Source\PSoC4/UART_433_UART.c ****             {
 139:Generated_Source\PSoC4/UART_433_UART.c ****                 /* OVS settings: IrDA */
 140:Generated_Source\PSoC4/UART_433_UART.c ****                 UART_433_CTRL_REG  = ((0u != config->enableIrdaLowPower) ?
 141:Generated_Source\PSoC4/UART_433_UART.c ****                                                 (UART_433_UART_GET_CTRL_OVS_IRDA_LP(config->oversam
 142:Generated_Source\PSoC4/UART_433_UART.c ****                                                 (UART_433_CTRL_OVS_IRDA_OVS16));
 143:Generated_Source\PSoC4/UART_433_UART.c ****             }
 144:Generated_Source\PSoC4/UART_433_UART.c ****             else
 145:Generated_Source\PSoC4/UART_433_UART.c ****             {
 146:Generated_Source\PSoC4/UART_433_UART.c ****                 /* OVS settings: UART and SmartCard */
ARM GAS  C:\Users\zhiantec\AppData\Local\Temp\ccy1RDEb.s 			page 4


 147:Generated_Source\PSoC4/UART_433_UART.c ****                 UART_433_CTRL_REG  = UART_433_GET_CTRL_OVS(config->oversample);
 148:Generated_Source\PSoC4/UART_433_UART.c ****             }
 149:Generated_Source\PSoC4/UART_433_UART.c **** 
 150:Generated_Source\PSoC4/UART_433_UART.c ****             UART_433_CTRL_REG     |= UART_433_GET_CTRL_BYTE_MODE  (config->enableByteMode)      |
 151:Generated_Source\PSoC4/UART_433_UART.c ****                                              UART_433_GET_CTRL_ADDR_ACCEPT(config->multiprocAcceptA
 152:Generated_Source\PSoC4/UART_433_UART.c ****                                              UART_433_CTRL_UART;
 153:Generated_Source\PSoC4/UART_433_UART.c **** 
 154:Generated_Source\PSoC4/UART_433_UART.c ****             /* Configure sub-mode: UART, SmartCard or IrDA */
 155:Generated_Source\PSoC4/UART_433_UART.c ****             UART_433_UART_CTRL_REG = UART_433_GET_UART_CTRL_MODE(config->mode);
 156:Generated_Source\PSoC4/UART_433_UART.c **** 
 157:Generated_Source\PSoC4/UART_433_UART.c ****             /* Configure RX direction */
 158:Generated_Source\PSoC4/UART_433_UART.c ****             UART_433_UART_RX_CTRL_REG = UART_433_GET_UART_RX_CTRL_MODE(config->stopBits)           
 159:Generated_Source\PSoC4/UART_433_UART.c ****                                         UART_433_GET_UART_RX_CTRL_POLARITY(config->enableInvertedRx
 160:Generated_Source\PSoC4/UART_433_UART.c ****                                         UART_433_GET_UART_RX_CTRL_MP_MODE(config->enableMultiproc) 
 161:Generated_Source\PSoC4/UART_433_UART.c ****                                         UART_433_GET_UART_RX_CTRL_DROP_ON_PARITY_ERR(config->dropOn
 162:Generated_Source\PSoC4/UART_433_UART.c ****                                         UART_433_GET_UART_RX_CTRL_DROP_ON_FRAME_ERR(config->dropOnF
 163:Generated_Source\PSoC4/UART_433_UART.c **** 
 164:Generated_Source\PSoC4/UART_433_UART.c ****             if(UART_433_UART_PARITY_NONE != config->parity)
 165:Generated_Source\PSoC4/UART_433_UART.c ****             {
 166:Generated_Source\PSoC4/UART_433_UART.c ****                UART_433_UART_RX_CTRL_REG |= UART_433_GET_UART_RX_CTRL_PARITY(config->parity) |
 167:Generated_Source\PSoC4/UART_433_UART.c ****                                                     UART_433_UART_RX_CTRL_PARITY_ENABLED;
 168:Generated_Source\PSoC4/UART_433_UART.c ****             }
 169:Generated_Source\PSoC4/UART_433_UART.c **** 
 170:Generated_Source\PSoC4/UART_433_UART.c ****             UART_433_RX_CTRL_REG      = UART_433_GET_RX_CTRL_DATA_WIDTH(config->dataBits)       |
 171:Generated_Source\PSoC4/UART_433_UART.c ****                                                 UART_433_GET_RX_CTRL_MEDIAN(config->enableMedianFil
 172:Generated_Source\PSoC4/UART_433_UART.c ****                                                 UART_433_GET_UART_RX_CTRL_ENABLED(config->direction
 173:Generated_Source\PSoC4/UART_433_UART.c **** 
 174:Generated_Source\PSoC4/UART_433_UART.c ****             UART_433_RX_FIFO_CTRL_REG = UART_433_GET_RX_FIFO_CTRL_TRIGGER_LEVEL(config->rxTriggerLe
 175:Generated_Source\PSoC4/UART_433_UART.c **** 
 176:Generated_Source\PSoC4/UART_433_UART.c ****             /* Configure MP address */
 177:Generated_Source\PSoC4/UART_433_UART.c ****             UART_433_RX_MATCH_REG     = UART_433_GET_RX_MATCH_ADDR(config->multiprocAddr) |
 178:Generated_Source\PSoC4/UART_433_UART.c ****                                                 UART_433_GET_RX_MATCH_MASK(config->multiprocAddrMas
 179:Generated_Source\PSoC4/UART_433_UART.c **** 
 180:Generated_Source\PSoC4/UART_433_UART.c ****             /* Configure RX direction */
 181:Generated_Source\PSoC4/UART_433_UART.c ****             UART_433_UART_TX_CTRL_REG = UART_433_GET_UART_TX_CTRL_MODE(config->stopBits) |
 182:Generated_Source\PSoC4/UART_433_UART.c ****                                                 UART_433_GET_UART_TX_CTRL_RETRY_NACK(config->enable
 183:Generated_Source\PSoC4/UART_433_UART.c **** 
 184:Generated_Source\PSoC4/UART_433_UART.c ****             if(UART_433_UART_PARITY_NONE != config->parity)
 185:Generated_Source\PSoC4/UART_433_UART.c ****             {
 186:Generated_Source\PSoC4/UART_433_UART.c ****                UART_433_UART_TX_CTRL_REG |= UART_433_GET_UART_TX_CTRL_PARITY(config->parity) |
 187:Generated_Source\PSoC4/UART_433_UART.c ****                                                     UART_433_UART_TX_CTRL_PARITY_ENABLED;
 188:Generated_Source\PSoC4/UART_433_UART.c ****             }
 189:Generated_Source\PSoC4/UART_433_UART.c **** 
 190:Generated_Source\PSoC4/UART_433_UART.c ****             UART_433_TX_CTRL_REG      = UART_433_GET_TX_CTRL_DATA_WIDTH(config->dataBits)    |
 191:Generated_Source\PSoC4/UART_433_UART.c ****                                                 UART_433_GET_UART_TX_CTRL_ENABLED(config->direction
 192:Generated_Source\PSoC4/UART_433_UART.c **** 
 193:Generated_Source\PSoC4/UART_433_UART.c ****             UART_433_TX_FIFO_CTRL_REG = UART_433_GET_TX_FIFO_CTRL_TRIGGER_LEVEL(config->txTriggerLe
 194:Generated_Source\PSoC4/UART_433_UART.c **** 
 195:Generated_Source\PSoC4/UART_433_UART.c ****         #if !(UART_433_CY_SCBIP_V0 || UART_433_CY_SCBIP_V1)
 196:Generated_Source\PSoC4/UART_433_UART.c ****             UART_433_UART_FLOW_CTRL_REG = UART_433_GET_UART_FLOW_CTRL_CTS_ENABLE(config->enableCts)
 197:Generated_Source\PSoC4/UART_433_UART.c ****                                             UART_433_GET_UART_FLOW_CTRL_CTS_POLARITY (config->ctsPo
 198:Generated_Source\PSoC4/UART_433_UART.c ****                                             UART_433_GET_UART_FLOW_CTRL_RTS_POLARITY (config->rtsPo
 199:Generated_Source\PSoC4/UART_433_UART.c ****                                             UART_433_GET_UART_FLOW_CTRL_TRIGGER_LEVEL(config->rtsRx
 200:Generated_Source\PSoC4/UART_433_UART.c ****         #endif /* !(UART_433_CY_SCBIP_V0 || UART_433_CY_SCBIP_V1) */
 201:Generated_Source\PSoC4/UART_433_UART.c **** 
 202:Generated_Source\PSoC4/UART_433_UART.c ****             /* Configure interrupt with UART handler but do not enable it */
 203:Generated_Source\PSoC4/UART_433_UART.c ****             CyIntDisable    (UART_433_ISR_NUMBER);
ARM GAS  C:\Users\zhiantec\AppData\Local\Temp\ccy1RDEb.s 			page 5


 204:Generated_Source\PSoC4/UART_433_UART.c ****             CyIntSetPriority(UART_433_ISR_NUMBER, UART_433_ISR_PRIORITY);
 205:Generated_Source\PSoC4/UART_433_UART.c ****             (void) CyIntSetVector(UART_433_ISR_NUMBER, &UART_433_SPI_UART_ISR);
 206:Generated_Source\PSoC4/UART_433_UART.c **** 
 207:Generated_Source\PSoC4/UART_433_UART.c ****             /* Configure WAKE interrupt */
 208:Generated_Source\PSoC4/UART_433_UART.c ****         #if(UART_433_UART_RX_WAKEUP_IRQ)
 209:Generated_Source\PSoC4/UART_433_UART.c ****             CyIntDisable    (UART_433_RX_WAKE_ISR_NUMBER);
 210:Generated_Source\PSoC4/UART_433_UART.c ****             CyIntSetPriority(UART_433_RX_WAKE_ISR_NUMBER, UART_433_RX_WAKE_ISR_PRIORITY);
 211:Generated_Source\PSoC4/UART_433_UART.c ****             (void) CyIntSetVector(UART_433_RX_WAKE_ISR_NUMBER, &UART_433_UART_WAKEUP_ISR);
 212:Generated_Source\PSoC4/UART_433_UART.c ****         #endif /* (UART_433_UART_RX_WAKEUP_IRQ) */
 213:Generated_Source\PSoC4/UART_433_UART.c **** 
 214:Generated_Source\PSoC4/UART_433_UART.c ****             /* Configure interrupt sources */
 215:Generated_Source\PSoC4/UART_433_UART.c ****             UART_433_INTR_I2C_EC_MASK_REG = UART_433_NO_INTR_SOURCES;
 216:Generated_Source\PSoC4/UART_433_UART.c ****             UART_433_INTR_SPI_EC_MASK_REG = UART_433_NO_INTR_SOURCES;
 217:Generated_Source\PSoC4/UART_433_UART.c ****             UART_433_INTR_SLAVE_MASK_REG  = UART_433_NO_INTR_SOURCES;
 218:Generated_Source\PSoC4/UART_433_UART.c ****             UART_433_INTR_MASTER_MASK_REG = UART_433_NO_INTR_SOURCES;
 219:Generated_Source\PSoC4/UART_433_UART.c ****             UART_433_INTR_RX_MASK_REG     = config->rxInterruptMask;
 220:Generated_Source\PSoC4/UART_433_UART.c ****             UART_433_INTR_TX_MASK_REG     = config->txInterruptMask;
 221:Generated_Source\PSoC4/UART_433_UART.c ****         
 222:Generated_Source\PSoC4/UART_433_UART.c ****             /* Configure TX interrupt sources to restore. */
 223:Generated_Source\PSoC4/UART_433_UART.c ****             UART_433_IntrTxMask = LO16(UART_433_INTR_TX_MASK_REG);
 224:Generated_Source\PSoC4/UART_433_UART.c **** 
 225:Generated_Source\PSoC4/UART_433_UART.c ****             /* Clear RX buffer indexes */
 226:Generated_Source\PSoC4/UART_433_UART.c ****             UART_433_rxBufferHead     = 0u;
 227:Generated_Source\PSoC4/UART_433_UART.c ****             UART_433_rxBufferTail     = 0u;
 228:Generated_Source\PSoC4/UART_433_UART.c ****             UART_433_rxBufferOverflow = 0u;
 229:Generated_Source\PSoC4/UART_433_UART.c **** 
 230:Generated_Source\PSoC4/UART_433_UART.c ****             /* Clear TX buffer indexes */
 231:Generated_Source\PSoC4/UART_433_UART.c ****             UART_433_txBufferHead = 0u;
 232:Generated_Source\PSoC4/UART_433_UART.c ****             UART_433_txBufferTail = 0u;
 233:Generated_Source\PSoC4/UART_433_UART.c ****         }
 234:Generated_Source\PSoC4/UART_433_UART.c ****     }
 235:Generated_Source\PSoC4/UART_433_UART.c **** 
 236:Generated_Source\PSoC4/UART_433_UART.c **** #else
 237:Generated_Source\PSoC4/UART_433_UART.c **** 
 238:Generated_Source\PSoC4/UART_433_UART.c ****     /*******************************************************************************
 239:Generated_Source\PSoC4/UART_433_UART.c ****     * Function Name: UART_433_UartInit
 240:Generated_Source\PSoC4/UART_433_UART.c ****     ****************************************************************************//**
 241:Generated_Source\PSoC4/UART_433_UART.c ****     *
 242:Generated_Source\PSoC4/UART_433_UART.c ****     *  Configures the SCB for the UART operation.
 243:Generated_Source\PSoC4/UART_433_UART.c ****     *
 244:Generated_Source\PSoC4/UART_433_UART.c ****     *******************************************************************************/
 245:Generated_Source\PSoC4/UART_433_UART.c ****     void UART_433_UartInit(void)
 246:Generated_Source\PSoC4/UART_433_UART.c ****     {
  26              		.loc 1 246 0
  27              		.cfi_startproc
 247:Generated_Source\PSoC4/UART_433_UART.c ****         /* Configure UART interface */
 248:Generated_Source\PSoC4/UART_433_UART.c ****         UART_433_CTRL_REG = UART_433_UART_DEFAULT_CTRL;
  28              		.loc 1 248 0
  29 0000 154A     		ldr	r2, .L2
  30 0002 164B     		ldr	r3, .L2+4
 246:Generated_Source\PSoC4/UART_433_UART.c ****         /* Configure UART interface */
  31              		.loc 1 246 0
  32 0004 10B5     		push	{r4, lr}
  33              		.cfi_def_cfa_offset 8
  34              		.cfi_offset 4, -8
  35              		.cfi_offset 14, -4
  36              		.loc 1 248 0
ARM GAS  C:\Users\zhiantec\AppData\Local\Temp\ccy1RDEb.s 			page 6


  37 0006 1A60     		str	r2, [r3]
 249:Generated_Source\PSoC4/UART_433_UART.c **** 
 250:Generated_Source\PSoC4/UART_433_UART.c ****         /* Configure sub-mode: UART, SmartCard or IrDA */
 251:Generated_Source\PSoC4/UART_433_UART.c ****         UART_433_UART_CTRL_REG = UART_433_UART_DEFAULT_UART_CTRL;
  38              		.loc 1 251 0
  39 0008 0023     		mov	r3, #0
 252:Generated_Source\PSoC4/UART_433_UART.c **** 
 253:Generated_Source\PSoC4/UART_433_UART.c ****         /* Configure RX direction */
 254:Generated_Source\PSoC4/UART_433_UART.c ****         UART_433_UART_RX_CTRL_REG = UART_433_UART_DEFAULT_UART_RX_CTRL;
  40              		.loc 1 254 0
  41 000a 0121     		mov	r1, #1
 255:Generated_Source\PSoC4/UART_433_UART.c ****         UART_433_RX_CTRL_REG      = UART_433_UART_DEFAULT_RX_CTRL;
 256:Generated_Source\PSoC4/UART_433_UART.c ****         UART_433_RX_FIFO_CTRL_REG = UART_433_UART_DEFAULT_RX_FIFO_CTRL;
  42              		.loc 1 256 0
  43 000c 0724     		mov	r4, #7
 251:Generated_Source\PSoC4/UART_433_UART.c **** 
  44              		.loc 1 251 0
  45 000e 144A     		ldr	r2, .L2+8
 255:Generated_Source\PSoC4/UART_433_UART.c ****         UART_433_RX_CTRL_REG      = UART_433_UART_DEFAULT_RX_CTRL;
  46              		.loc 1 255 0
  47 0010 1448     		ldr	r0, .L2+12
 251:Generated_Source\PSoC4/UART_433_UART.c **** 
  48              		.loc 1 251 0
  49 0012 1360     		str	r3, [r2]
 254:Generated_Source\PSoC4/UART_433_UART.c ****         UART_433_RX_CTRL_REG      = UART_433_UART_DEFAULT_RX_CTRL;
  50              		.loc 1 254 0
  51 0014 144A     		ldr	r2, .L2+16
 257:Generated_Source\PSoC4/UART_433_UART.c ****         UART_433_RX_MATCH_REG     = UART_433_UART_DEFAULT_RX_MATCH_REG;
 258:Generated_Source\PSoC4/UART_433_UART.c **** 
 259:Generated_Source\PSoC4/UART_433_UART.c ****         /* Configure TX direction */
 260:Generated_Source\PSoC4/UART_433_UART.c ****         UART_433_UART_TX_CTRL_REG = UART_433_UART_DEFAULT_UART_TX_CTRL;
 261:Generated_Source\PSoC4/UART_433_UART.c ****         UART_433_TX_CTRL_REG      = UART_433_UART_DEFAULT_TX_CTRL;
 262:Generated_Source\PSoC4/UART_433_UART.c ****         UART_433_TX_FIFO_CTRL_REG = UART_433_UART_DEFAULT_TX_FIFO_CTRL;
 263:Generated_Source\PSoC4/UART_433_UART.c **** 
 264:Generated_Source\PSoC4/UART_433_UART.c ****     #if !(UART_433_CY_SCBIP_V0 || UART_433_CY_SCBIP_V1)
 265:Generated_Source\PSoC4/UART_433_UART.c ****         UART_433_UART_FLOW_CTRL_REG = UART_433_UART_DEFAULT_FLOW_CTRL;
 266:Generated_Source\PSoC4/UART_433_UART.c ****     #endif /* !(UART_433_CY_SCBIP_V0 || UART_433_CY_SCBIP_V1) */
 267:Generated_Source\PSoC4/UART_433_UART.c **** 
 268:Generated_Source\PSoC4/UART_433_UART.c ****         /* Configure interrupt with UART handler but do not enable it */
 269:Generated_Source\PSoC4/UART_433_UART.c ****     #if(UART_433_SCB_IRQ_INTERNAL)
 270:Generated_Source\PSoC4/UART_433_UART.c ****         CyIntDisable    (UART_433_ISR_NUMBER);
 271:Generated_Source\PSoC4/UART_433_UART.c ****         CyIntSetPriority(UART_433_ISR_NUMBER, UART_433_ISR_PRIORITY);
 272:Generated_Source\PSoC4/UART_433_UART.c ****         (void) CyIntSetVector(UART_433_ISR_NUMBER, &UART_433_SPI_UART_ISR);
 273:Generated_Source\PSoC4/UART_433_UART.c ****     #endif /* (UART_433_SCB_IRQ_INTERNAL) */
 274:Generated_Source\PSoC4/UART_433_UART.c **** 
 275:Generated_Source\PSoC4/UART_433_UART.c ****         /* Configure WAKE interrupt */
 276:Generated_Source\PSoC4/UART_433_UART.c ****     #if(UART_433_UART_RX_WAKEUP_IRQ)
 277:Generated_Source\PSoC4/UART_433_UART.c ****         CyIntDisable    (UART_433_RX_WAKE_ISR_NUMBER);
 278:Generated_Source\PSoC4/UART_433_UART.c ****         CyIntSetPriority(UART_433_RX_WAKE_ISR_NUMBER, UART_433_RX_WAKE_ISR_PRIORITY);
 279:Generated_Source\PSoC4/UART_433_UART.c ****         (void) CyIntSetVector(UART_433_RX_WAKE_ISR_NUMBER, &UART_433_UART_WAKEUP_ISR);
 280:Generated_Source\PSoC4/UART_433_UART.c ****     #endif /* (UART_433_UART_RX_WAKEUP_IRQ) */
 281:Generated_Source\PSoC4/UART_433_UART.c **** 
 282:Generated_Source\PSoC4/UART_433_UART.c ****         /* Configure interrupt sources */
 283:Generated_Source\PSoC4/UART_433_UART.c ****         UART_433_INTR_I2C_EC_MASK_REG = UART_433_UART_DEFAULT_INTR_I2C_EC_MASK;
 284:Generated_Source\PSoC4/UART_433_UART.c ****         UART_433_INTR_SPI_EC_MASK_REG = UART_433_UART_DEFAULT_INTR_SPI_EC_MASK;
 285:Generated_Source\PSoC4/UART_433_UART.c ****         UART_433_INTR_SLAVE_MASK_REG  = UART_433_UART_DEFAULT_INTR_SLAVE_MASK;
 286:Generated_Source\PSoC4/UART_433_UART.c ****         UART_433_INTR_MASTER_MASK_REG = UART_433_UART_DEFAULT_INTR_MASTER_MASK;
ARM GAS  C:\Users\zhiantec\AppData\Local\Temp\ccy1RDEb.s 			page 7


 287:Generated_Source\PSoC4/UART_433_UART.c ****         UART_433_INTR_RX_MASK_REG     = UART_433_UART_DEFAULT_INTR_RX_MASK;
 288:Generated_Source\PSoC4/UART_433_UART.c ****         UART_433_INTR_TX_MASK_REG     = UART_433_UART_DEFAULT_INTR_TX_MASK;
 289:Generated_Source\PSoC4/UART_433_UART.c ****     
 290:Generated_Source\PSoC4/UART_433_UART.c ****         /* Configure TX interrupt sources to restore. */
 291:Generated_Source\PSoC4/UART_433_UART.c ****         UART_433_IntrTxMask = LO16(UART_433_INTR_TX_MASK_REG);
 292:Generated_Source\PSoC4/UART_433_UART.c **** 
 293:Generated_Source\PSoC4/UART_433_UART.c ****     #if(UART_433_INTERNAL_RX_SW_BUFFER_CONST)
 294:Generated_Source\PSoC4/UART_433_UART.c ****         UART_433_rxBufferHead     = 0u;
 295:Generated_Source\PSoC4/UART_433_UART.c ****         UART_433_rxBufferTail     = 0u;
 296:Generated_Source\PSoC4/UART_433_UART.c ****         UART_433_rxBufferOverflow = 0u;
 297:Generated_Source\PSoC4/UART_433_UART.c ****     #endif /* (UART_433_INTERNAL_RX_SW_BUFFER_CONST) */
 298:Generated_Source\PSoC4/UART_433_UART.c **** 
 299:Generated_Source\PSoC4/UART_433_UART.c ****     #if(UART_433_INTERNAL_TX_SW_BUFFER_CONST)
 300:Generated_Source\PSoC4/UART_433_UART.c ****         UART_433_txBufferHead = 0u;
 301:Generated_Source\PSoC4/UART_433_UART.c ****         UART_433_txBufferTail = 0u;
 302:Generated_Source\PSoC4/UART_433_UART.c ****     #endif /* (UART_433_INTERNAL_TX_SW_BUFFER_CONST) */
 303:Generated_Source\PSoC4/UART_433_UART.c ****     }
  52              		.loc 1 303 0
  53              		@ sp needed
 254:Generated_Source\PSoC4/UART_433_UART.c ****         UART_433_RX_CTRL_REG      = UART_433_UART_DEFAULT_RX_CTRL;
  54              		.loc 1 254 0
  55 0016 1160     		str	r1, [r2]
 255:Generated_Source\PSoC4/UART_433_UART.c ****         UART_433_RX_FIFO_CTRL_REG = UART_433_UART_DEFAULT_RX_FIFO_CTRL;
  56              		.loc 1 255 0
  57 0018 144A     		ldr	r2, .L2+20
  58 001a 0260     		str	r2, [r0]
 256:Generated_Source\PSoC4/UART_433_UART.c ****         UART_433_RX_MATCH_REG     = UART_433_UART_DEFAULT_RX_MATCH_REG;
  59              		.loc 1 256 0
  60 001c 1448     		ldr	r0, .L2+24
  61 001e 0460     		str	r4, [r0]
 257:Generated_Source\PSoC4/UART_433_UART.c ****         UART_433_RX_MATCH_REG     = UART_433_UART_DEFAULT_RX_MATCH_REG;
  62              		.loc 1 257 0
  63 0020 1448     		ldr	r0, .L2+28
  64 0022 0360     		str	r3, [r0]
 260:Generated_Source\PSoC4/UART_433_UART.c ****         UART_433_TX_CTRL_REG      = UART_433_UART_DEFAULT_TX_CTRL;
  65              		.loc 1 260 0
  66 0024 1448     		ldr	r0, .L2+32
  67 0026 0160     		str	r1, [r0]
 261:Generated_Source\PSoC4/UART_433_UART.c ****         UART_433_TX_FIFO_CTRL_REG = UART_433_UART_DEFAULT_TX_FIFO_CTRL;
  68              		.loc 1 261 0
  69 0028 1449     		ldr	r1, .L2+36
  70 002a 0A60     		str	r2, [r1]
 262:Generated_Source\PSoC4/UART_433_UART.c **** 
  71              		.loc 1 262 0
  72 002c 144A     		ldr	r2, .L2+40
 265:Generated_Source\PSoC4/UART_433_UART.c ****     #endif /* !(UART_433_CY_SCBIP_V0 || UART_433_CY_SCBIP_V1) */
  73              		.loc 1 265 0
  74 002e 1549     		ldr	r1, .L2+44
 262:Generated_Source\PSoC4/UART_433_UART.c **** 
  75              		.loc 1 262 0
  76 0030 1360     		str	r3, [r2]
 265:Generated_Source\PSoC4/UART_433_UART.c ****     #endif /* !(UART_433_CY_SCBIP_V0 || UART_433_CY_SCBIP_V1) */
  77              		.loc 1 265 0
  78 0032 0422     		mov	r2, #4
  79 0034 0A60     		str	r2, [r1]
 283:Generated_Source\PSoC4/UART_433_UART.c ****         UART_433_INTR_SPI_EC_MASK_REG = UART_433_UART_DEFAULT_INTR_SPI_EC_MASK;
  80              		.loc 1 283 0
ARM GAS  C:\Users\zhiantec\AppData\Local\Temp\ccy1RDEb.s 			page 8


  81 0036 1449     		ldr	r1, .L2+48
  82 0038 0B60     		str	r3, [r1]
 284:Generated_Source\PSoC4/UART_433_UART.c ****         UART_433_INTR_SLAVE_MASK_REG  = UART_433_UART_DEFAULT_INTR_SLAVE_MASK;
  83              		.loc 1 284 0
  84 003a 1449     		ldr	r1, .L2+52
  85 003c 0B60     		str	r3, [r1]
 285:Generated_Source\PSoC4/UART_433_UART.c ****         UART_433_INTR_MASTER_MASK_REG = UART_433_UART_DEFAULT_INTR_MASTER_MASK;
  86              		.loc 1 285 0
  87 003e 1449     		ldr	r1, .L2+56
  88 0040 0B60     		str	r3, [r1]
 286:Generated_Source\PSoC4/UART_433_UART.c ****         UART_433_INTR_RX_MASK_REG     = UART_433_UART_DEFAULT_INTR_RX_MASK;
  89              		.loc 1 286 0
  90 0042 1449     		ldr	r1, .L2+60
  91 0044 0B60     		str	r3, [r1]
 287:Generated_Source\PSoC4/UART_433_UART.c ****         UART_433_INTR_TX_MASK_REG     = UART_433_UART_DEFAULT_INTR_TX_MASK;
  92              		.loc 1 287 0
  93 0046 1449     		ldr	r1, .L2+64
  94 0048 0A60     		str	r2, [r1]
 288:Generated_Source\PSoC4/UART_433_UART.c ****     
  95              		.loc 1 288 0
  96 004a 144A     		ldr	r2, .L2+68
  97 004c 1360     		str	r3, [r2]
 291:Generated_Source\PSoC4/UART_433_UART.c **** 
  98              		.loc 1 291 0
  99 004e 1268     		ldr	r2, [r2]
 100 0050 134B     		ldr	r3, .L2+72
 101 0052 1A80     		strh	r2, [r3]
 102              		.loc 1 303 0
 103 0054 10BD     		pop	{r4, pc}
 104              	.L3:
 105 0056 C046     		.align	2
 106              	.L2:
 107 0058 0B000002 		.word	33554443
 108 005c 00002440 		.word	1076101120
 109 0060 40002440 		.word	1076101184
 110 0064 00032440 		.word	1076101888
 111 0068 48002440 		.word	1076101192
 112 006c 07000080 		.word	-2147483641
 113 0070 04032440 		.word	1076101892
 114 0074 10032440 		.word	1076101904
 115 0078 44002440 		.word	1076101188
 116 007c 00022440 		.word	1076101632
 117 0080 04022440 		.word	1076101636
 118 0084 50002440 		.word	1076101200
 119 0088 880E2440 		.word	1076104840
 120 008c C80E2440 		.word	1076104904
 121 0090 480F2440 		.word	1076105032
 122 0094 080F2440 		.word	1076104968
 123 0098 C80F2440 		.word	1076105160
 124 009c 880F2440 		.word	1076105096
 125 00a0 00000000 		.word	UART_433_IntrTxMask
 126              		.cfi_endproc
 127              	.LFE2:
 128              		.size	UART_433_UartInit, .-UART_433_UartInit
 129              		.section	.text.UART_433_UartPostEnable,"ax",%progbits
 130              		.align	1
 131              		.global	UART_433_UartPostEnable
ARM GAS  C:\Users\zhiantec\AppData\Local\Temp\ccy1RDEb.s 			page 9


 132              		.code	16
 133              		.thumb_func
 134              		.type	UART_433_UartPostEnable, %function
 135              	UART_433_UartPostEnable:
 136              	.LFB3:
 304:Generated_Source\PSoC4/UART_433_UART.c **** #endif /* (UART_433_SCB_MODE_UNCONFIG_CONST_CFG) */
 305:Generated_Source\PSoC4/UART_433_UART.c **** 
 306:Generated_Source\PSoC4/UART_433_UART.c **** 
 307:Generated_Source\PSoC4/UART_433_UART.c **** /*******************************************************************************
 308:Generated_Source\PSoC4/UART_433_UART.c **** * Function Name: UART_433_UartPostEnable
 309:Generated_Source\PSoC4/UART_433_UART.c **** ****************************************************************************//**
 310:Generated_Source\PSoC4/UART_433_UART.c **** *
 311:Generated_Source\PSoC4/UART_433_UART.c **** *  Restores HSIOM settings for the UART output pins (TX and/or RTS) to be
 312:Generated_Source\PSoC4/UART_433_UART.c **** *  controlled by the SCB UART.
 313:Generated_Source\PSoC4/UART_433_UART.c **** *
 314:Generated_Source\PSoC4/UART_433_UART.c **** *******************************************************************************/
 315:Generated_Source\PSoC4/UART_433_UART.c **** void UART_433_UartPostEnable(void)
 316:Generated_Source\PSoC4/UART_433_UART.c **** {
 137              		.loc 1 316 0
 138              		.cfi_startproc
 317:Generated_Source\PSoC4/UART_433_UART.c **** #if (UART_433_SCB_MODE_UNCONFIG_CONST_CFG)
 318:Generated_Source\PSoC4/UART_433_UART.c ****     #if (UART_433_TX_SCL_MISO_PIN)
 319:Generated_Source\PSoC4/UART_433_UART.c ****         if (UART_433_CHECK_TX_SCL_MISO_PIN_USED)
 320:Generated_Source\PSoC4/UART_433_UART.c ****         {
 321:Generated_Source\PSoC4/UART_433_UART.c ****             /* Set SCB UART to drive the output pin */
 322:Generated_Source\PSoC4/UART_433_UART.c ****             UART_433_SET_HSIOM_SEL(UART_433_TX_SCL_MISO_HSIOM_REG, UART_433_TX_SCL_MISO_HSIOM_MASK,
 323:Generated_Source\PSoC4/UART_433_UART.c ****                                            UART_433_TX_SCL_MISO_HSIOM_POS, UART_433_TX_SCL_MISO_HSI
 324:Generated_Source\PSoC4/UART_433_UART.c ****         }
 325:Generated_Source\PSoC4/UART_433_UART.c ****     #endif /* (UART_433_TX_SCL_MISO_PIN_PIN) */
 326:Generated_Source\PSoC4/UART_433_UART.c **** 
 327:Generated_Source\PSoC4/UART_433_UART.c ****     #if !(UART_433_CY_SCBIP_V0 || UART_433_CY_SCBIP_V1)
 328:Generated_Source\PSoC4/UART_433_UART.c ****         #if (UART_433_RTS_SS0_PIN)
 329:Generated_Source\PSoC4/UART_433_UART.c ****             if (UART_433_CHECK_RTS_SS0_PIN_USED)
 330:Generated_Source\PSoC4/UART_433_UART.c ****             {
 331:Generated_Source\PSoC4/UART_433_UART.c ****                 /* Set SCB UART to drive the output pin */
 332:Generated_Source\PSoC4/UART_433_UART.c ****                 UART_433_SET_HSIOM_SEL(UART_433_RTS_SS0_HSIOM_REG, UART_433_RTS_SS0_HSIOM_MASK,
 333:Generated_Source\PSoC4/UART_433_UART.c ****                                                UART_433_RTS_SS0_HSIOM_POS, UART_433_RTS_SS0_HSIOM_S
 334:Generated_Source\PSoC4/UART_433_UART.c ****             }
 335:Generated_Source\PSoC4/UART_433_UART.c ****         #endif /* (UART_433_RTS_SS0_PIN) */
 336:Generated_Source\PSoC4/UART_433_UART.c ****     #endif /* !(UART_433_CY_SCBIP_V0 || UART_433_CY_SCBIP_V1) */
 337:Generated_Source\PSoC4/UART_433_UART.c **** 
 338:Generated_Source\PSoC4/UART_433_UART.c **** #else
 339:Generated_Source\PSoC4/UART_433_UART.c ****     #if (UART_433_UART_TX_PIN)
 340:Generated_Source\PSoC4/UART_433_UART.c ****          /* Set SCB UART to drive the output pin */
 341:Generated_Source\PSoC4/UART_433_UART.c ****         UART_433_SET_HSIOM_SEL(UART_433_TX_HSIOM_REG, UART_433_TX_HSIOM_MASK,
 139              		.loc 1 341 0
 140 0000 064A     		ldr	r2, .L5
 141 0002 074B     		ldr	r3, .L5+4
 142 0004 1168     		ldr	r1, [r2]
 342:Generated_Source\PSoC4/UART_433_UART.c ****                                        UART_433_TX_HSIOM_POS, UART_433_TX_HSIOM_SEL_UART);
 343:Generated_Source\PSoC4/UART_433_UART.c ****     #endif /* (UART_433_UART_TX_PIN) */
 344:Generated_Source\PSoC4/UART_433_UART.c **** 
 345:Generated_Source\PSoC4/UART_433_UART.c ****     #if (UART_433_UART_RTS_PIN)
 346:Generated_Source\PSoC4/UART_433_UART.c ****         /* Set SCB UART to drive the output pin */
 347:Generated_Source\PSoC4/UART_433_UART.c ****         UART_433_SET_HSIOM_SEL(UART_433_RTS_HSIOM_REG, UART_433_RTS_HSIOM_MASK,
 348:Generated_Source\PSoC4/UART_433_UART.c ****                                        UART_433_RTS_HSIOM_POS, UART_433_RTS_HSIOM_SEL_UART);
 349:Generated_Source\PSoC4/UART_433_UART.c ****     #endif /* (UART_433_UART_RTS_PIN) */
ARM GAS  C:\Users\zhiantec\AppData\Local\Temp\ccy1RDEb.s 			page 10


 350:Generated_Source\PSoC4/UART_433_UART.c **** #endif /* (UART_433_SCB_MODE_UNCONFIG_CONST_CFG) */
 351:Generated_Source\PSoC4/UART_433_UART.c **** 
 352:Generated_Source\PSoC4/UART_433_UART.c ****     /* Restore TX interrupt sources. */
 353:Generated_Source\PSoC4/UART_433_UART.c ****     UART_433_SetTxInterruptMode(UART_433_IntrTxMask);
 354:Generated_Source\PSoC4/UART_433_UART.c **** }
 143              		.loc 1 354 0
 144              		@ sp needed
 341:Generated_Source\PSoC4/UART_433_UART.c ****                                        UART_433_TX_HSIOM_POS, UART_433_TX_HSIOM_SEL_UART);
 145              		.loc 1 341 0
 146 0006 0B40     		and	r3, r1
 147 0008 9021     		mov	r1, #144
 148 000a 0904     		lsl	r1, r1, #16
 149 000c 0B43     		orr	r3, r1
 150 000e 1360     		str	r3, [r2]
 353:Generated_Source\PSoC4/UART_433_UART.c **** }
 151              		.loc 1 353 0
 152 0010 044B     		ldr	r3, .L5+8
 153 0012 1A88     		ldrh	r2, [r3]
 154 0014 044B     		ldr	r3, .L5+12
 155 0016 1A60     		str	r2, [r3]
 156              		.loc 1 354 0
 157 0018 7047     		bx	lr
 158              	.L6:
 159 001a C046     		.align	2
 160              	.L5:
 161 001c 00010240 		.word	1073873152
 162 0020 FFFF0FFF 		.word	-15728641
 163 0024 00000000 		.word	UART_433_IntrTxMask
 164 0028 880F2440 		.word	1076105096
 165              		.cfi_endproc
 166              	.LFE3:
 167              		.size	UART_433_UartPostEnable, .-UART_433_UartPostEnable
 168              		.section	.text.UART_433_UartStop,"ax",%progbits
 169              		.align	1
 170              		.global	UART_433_UartStop
 171              		.code	16
 172              		.thumb_func
 173              		.type	UART_433_UartStop, %function
 174              	UART_433_UartStop:
 175              	.LFB4:
 355:Generated_Source\PSoC4/UART_433_UART.c **** 
 356:Generated_Source\PSoC4/UART_433_UART.c **** 
 357:Generated_Source\PSoC4/UART_433_UART.c **** /*******************************************************************************
 358:Generated_Source\PSoC4/UART_433_UART.c **** * Function Name: UART_433_UartStop
 359:Generated_Source\PSoC4/UART_433_UART.c **** ****************************************************************************//**
 360:Generated_Source\PSoC4/UART_433_UART.c **** *
 361:Generated_Source\PSoC4/UART_433_UART.c **** *  Changes the HSIOM settings for the UART output pins (TX and/or RTS) to keep
 362:Generated_Source\PSoC4/UART_433_UART.c **** *  them inactive after the block is disabled. The output pins are controlled by
 363:Generated_Source\PSoC4/UART_433_UART.c **** *  the GPIO data register. Also, the function disables the skip start feature
 364:Generated_Source\PSoC4/UART_433_UART.c **** *  to not cause it to trigger after the component is enabled.
 365:Generated_Source\PSoC4/UART_433_UART.c **** *
 366:Generated_Source\PSoC4/UART_433_UART.c **** *******************************************************************************/
 367:Generated_Source\PSoC4/UART_433_UART.c **** void UART_433_UartStop(void)
 368:Generated_Source\PSoC4/UART_433_UART.c **** {
 176              		.loc 1 368 0
 177              		.cfi_startproc
 369:Generated_Source\PSoC4/UART_433_UART.c **** #if(UART_433_SCB_MODE_UNCONFIG_CONST_CFG)
ARM GAS  C:\Users\zhiantec\AppData\Local\Temp\ccy1RDEb.s 			page 11


 370:Generated_Source\PSoC4/UART_433_UART.c ****     #if (UART_433_TX_SCL_MISO_PIN)
 371:Generated_Source\PSoC4/UART_433_UART.c ****         if (UART_433_CHECK_TX_SCL_MISO_PIN_USED)
 372:Generated_Source\PSoC4/UART_433_UART.c ****         {
 373:Generated_Source\PSoC4/UART_433_UART.c ****             /* Set GPIO to drive output pin */
 374:Generated_Source\PSoC4/UART_433_UART.c ****             UART_433_SET_HSIOM_SEL(UART_433_TX_SCL_MISO_HSIOM_REG, UART_433_TX_SCL_MISO_HSIOM_MASK,
 375:Generated_Source\PSoC4/UART_433_UART.c ****                                            UART_433_TX_SCL_MISO_HSIOM_POS, UART_433_TX_SCL_MISO_HSI
 376:Generated_Source\PSoC4/UART_433_UART.c ****         }
 377:Generated_Source\PSoC4/UART_433_UART.c ****     #endif /* (UART_433_TX_SCL_MISO_PIN_PIN) */
 378:Generated_Source\PSoC4/UART_433_UART.c **** 
 379:Generated_Source\PSoC4/UART_433_UART.c ****     #if !(UART_433_CY_SCBIP_V0 || UART_433_CY_SCBIP_V1)
 380:Generated_Source\PSoC4/UART_433_UART.c ****         #if (UART_433_RTS_SS0_PIN)
 381:Generated_Source\PSoC4/UART_433_UART.c ****             if (UART_433_CHECK_RTS_SS0_PIN_USED)
 382:Generated_Source\PSoC4/UART_433_UART.c ****             {
 383:Generated_Source\PSoC4/UART_433_UART.c ****                 /* Set output pin state after block is disabled */
 384:Generated_Source\PSoC4/UART_433_UART.c ****                 UART_433_uart_rts_spi_ss0_Write(UART_433_GET_UART_RTS_INACTIVE);
 385:Generated_Source\PSoC4/UART_433_UART.c **** 
 386:Generated_Source\PSoC4/UART_433_UART.c ****                 /* Set GPIO to drive output pin */
 387:Generated_Source\PSoC4/UART_433_UART.c ****                 UART_433_SET_HSIOM_SEL(UART_433_RTS_SS0_HSIOM_REG, UART_433_RTS_SS0_HSIOM_MASK,
 388:Generated_Source\PSoC4/UART_433_UART.c ****                                                UART_433_RTS_SS0_HSIOM_POS, UART_433_RTS_SS0_HSIOM_S
 389:Generated_Source\PSoC4/UART_433_UART.c ****             }
 390:Generated_Source\PSoC4/UART_433_UART.c ****         #endif /* (UART_433_RTS_SS0_PIN) */
 391:Generated_Source\PSoC4/UART_433_UART.c ****     #endif /* !(UART_433_CY_SCBIP_V0 || UART_433_CY_SCBIP_V1) */
 392:Generated_Source\PSoC4/UART_433_UART.c **** 
 393:Generated_Source\PSoC4/UART_433_UART.c **** #else
 394:Generated_Source\PSoC4/UART_433_UART.c ****     #if (UART_433_UART_TX_PIN)
 395:Generated_Source\PSoC4/UART_433_UART.c ****         /* Set GPIO to drive output pin */
 396:Generated_Source\PSoC4/UART_433_UART.c ****         UART_433_SET_HSIOM_SEL(UART_433_TX_HSIOM_REG, UART_433_TX_HSIOM_MASK,
 178              		.loc 1 396 0
 179 0000 064A     		ldr	r2, .L8
 180 0002 074B     		ldr	r3, .L8+4
 181 0004 1168     		ldr	r1, [r2]
 397:Generated_Source\PSoC4/UART_433_UART.c ****                                        UART_433_TX_HSIOM_POS, UART_433_TX_HSIOM_SEL_GPIO);
 398:Generated_Source\PSoC4/UART_433_UART.c ****     #endif /* (UART_433_UART_TX_PIN) */
 399:Generated_Source\PSoC4/UART_433_UART.c **** 
 400:Generated_Source\PSoC4/UART_433_UART.c ****     #if (UART_433_UART_RTS_PIN)
 401:Generated_Source\PSoC4/UART_433_UART.c ****         /* Set output pin state after block is disabled */
 402:Generated_Source\PSoC4/UART_433_UART.c ****         UART_433_rts_Write(UART_433_GET_UART_RTS_INACTIVE);
 403:Generated_Source\PSoC4/UART_433_UART.c **** 
 404:Generated_Source\PSoC4/UART_433_UART.c ****         /* Set GPIO to drive output pin */
 405:Generated_Source\PSoC4/UART_433_UART.c ****         UART_433_SET_HSIOM_SEL(UART_433_RTS_HSIOM_REG, UART_433_RTS_HSIOM_MASK,
 406:Generated_Source\PSoC4/UART_433_UART.c ****                                        UART_433_RTS_HSIOM_POS, UART_433_RTS_HSIOM_SEL_GPIO);
 407:Generated_Source\PSoC4/UART_433_UART.c ****     #endif /* (UART_433_UART_RTS_PIN) */
 408:Generated_Source\PSoC4/UART_433_UART.c **** 
 409:Generated_Source\PSoC4/UART_433_UART.c **** #endif /* (UART_433_SCB_MODE_UNCONFIG_CONST_CFG) */
 410:Generated_Source\PSoC4/UART_433_UART.c **** 
 411:Generated_Source\PSoC4/UART_433_UART.c **** #if (UART_433_UART_WAKE_ENABLE_CONST)
 412:Generated_Source\PSoC4/UART_433_UART.c ****     /* Disable skip start feature used for wakeup */
 413:Generated_Source\PSoC4/UART_433_UART.c ****     UART_433_UART_RX_CTRL_REG &= (uint32) ~UART_433_UART_RX_CTRL_SKIP_START;
 414:Generated_Source\PSoC4/UART_433_UART.c **** #endif /* (UART_433_UART_WAKE_ENABLE_CONST) */
 415:Generated_Source\PSoC4/UART_433_UART.c **** 
 416:Generated_Source\PSoC4/UART_433_UART.c ****     /* Store TX interrupt sources (exclude level triggered). */
 417:Generated_Source\PSoC4/UART_433_UART.c ****     UART_433_IntrTxMask = LO16(UART_433_GetTxInterruptMode() & UART_433_INTR_UART_TX_RESTORE);
 418:Generated_Source\PSoC4/UART_433_UART.c **** }
 182              		.loc 1 418 0
 183              		@ sp needed
 396:Generated_Source\PSoC4/UART_433_UART.c ****                                        UART_433_TX_HSIOM_POS, UART_433_TX_HSIOM_SEL_GPIO);
 184              		.loc 1 396 0
ARM GAS  C:\Users\zhiantec\AppData\Local\Temp\ccy1RDEb.s 			page 12


 185 0006 0B40     		and	r3, r1
 186 0008 1360     		str	r3, [r2]
 417:Generated_Source\PSoC4/UART_433_UART.c **** }
 187              		.loc 1 417 0
 188 000a 064B     		ldr	r3, .L8+8
 189 000c 1A68     		ldr	r2, [r3]
 190 000e E423     		mov	r3, #228
 191 0010 DB00     		lsl	r3, r3, #3
 192 0012 1340     		and	r3, r2
 193 0014 044A     		ldr	r2, .L8+12
 194 0016 1380     		strh	r3, [r2]
 195              		.loc 1 418 0
 196 0018 7047     		bx	lr
 197              	.L9:
 198 001a C046     		.align	2
 199              	.L8:
 200 001c 00010240 		.word	1073873152
 201 0020 FFFF0FFF 		.word	-15728641
 202 0024 880F2440 		.word	1076105096
 203 0028 00000000 		.word	UART_433_IntrTxMask
 204              		.cfi_endproc
 205              	.LFE4:
 206              		.size	UART_433_UartStop, .-UART_433_UartStop
 207              		.section	.text.UART_433_UartSetRxAddress,"ax",%progbits
 208              		.align	1
 209              		.global	UART_433_UartSetRxAddress
 210              		.code	16
 211              		.thumb_func
 212              		.type	UART_433_UartSetRxAddress, %function
 213              	UART_433_UartSetRxAddress:
 214              	.LFB5:
 419:Generated_Source\PSoC4/UART_433_UART.c **** 
 420:Generated_Source\PSoC4/UART_433_UART.c **** 
 421:Generated_Source\PSoC4/UART_433_UART.c **** /*******************************************************************************
 422:Generated_Source\PSoC4/UART_433_UART.c **** * Function Name: UART_433_UartSetRxAddress
 423:Generated_Source\PSoC4/UART_433_UART.c **** ****************************************************************************//**
 424:Generated_Source\PSoC4/UART_433_UART.c **** *
 425:Generated_Source\PSoC4/UART_433_UART.c **** *  Sets the hardware detectable receiver address for the UART in the
 426:Generated_Source\PSoC4/UART_433_UART.c **** *  Multiprocessor mode.
 427:Generated_Source\PSoC4/UART_433_UART.c **** *
 428:Generated_Source\PSoC4/UART_433_UART.c **** *  \param address: Address for hardware address detection.
 429:Generated_Source\PSoC4/UART_433_UART.c **** *
 430:Generated_Source\PSoC4/UART_433_UART.c **** *******************************************************************************/
 431:Generated_Source\PSoC4/UART_433_UART.c **** void UART_433_UartSetRxAddress(uint32 address)
 432:Generated_Source\PSoC4/UART_433_UART.c **** {
 215              		.loc 1 432 0
 216              		.cfi_startproc
 217              	.LVL0:
 433:Generated_Source\PSoC4/UART_433_UART.c ****      uint32 matchReg;
 434:Generated_Source\PSoC4/UART_433_UART.c **** 
 435:Generated_Source\PSoC4/UART_433_UART.c ****     matchReg = UART_433_RX_MATCH_REG;
 436:Generated_Source\PSoC4/UART_433_UART.c **** 
 437:Generated_Source\PSoC4/UART_433_UART.c ****     matchReg &= ((uint32) ~UART_433_RX_MATCH_ADDR_MASK); /* Clear address bits */
 218              		.loc 1 437 0
 219 0000 FF22     		mov	r2, #255
 435:Generated_Source\PSoC4/UART_433_UART.c **** 
 220              		.loc 1 435 0
ARM GAS  C:\Users\zhiantec\AppData\Local\Temp\ccy1RDEb.s 			page 13


 221 0002 0349     		ldr	r1, .L11
 438:Generated_Source\PSoC4/UART_433_UART.c ****     matchReg |= ((uint32)  (address & UART_433_RX_MATCH_ADDR_MASK)); /* Set address  */
 222              		.loc 1 438 0
 223 0004 1040     		and	r0, r2
 224              	.LVL1:
 435:Generated_Source\PSoC4/UART_433_UART.c **** 
 225              		.loc 1 435 0
 226 0006 0B68     		ldr	r3, [r1]
 227              	.LVL2:
 439:Generated_Source\PSoC4/UART_433_UART.c **** 
 440:Generated_Source\PSoC4/UART_433_UART.c ****     UART_433_RX_MATCH_REG = matchReg;
 441:Generated_Source\PSoC4/UART_433_UART.c **** }
 228              		.loc 1 441 0
 229              		@ sp needed
 437:Generated_Source\PSoC4/UART_433_UART.c ****     matchReg |= ((uint32)  (address & UART_433_RX_MATCH_ADDR_MASK)); /* Set address  */
 230              		.loc 1 437 0
 231 0008 9343     		bic	r3, r2
 232              	.LVL3:
 438:Generated_Source\PSoC4/UART_433_UART.c ****     matchReg |= ((uint32)  (address & UART_433_RX_MATCH_ADDR_MASK)); /* Set address  */
 233              		.loc 1 438 0
 234 000a 1843     		orr	r0, r3
 235              	.LVL4:
 440:Generated_Source\PSoC4/UART_433_UART.c **** }
 236              		.loc 1 440 0
 237 000c 0860     		str	r0, [r1]
 238              		.loc 1 441 0
 239 000e 7047     		bx	lr
 240              	.L12:
 241              		.align	2
 242              	.L11:
 243 0010 10032440 		.word	1076101904
 244              		.cfi_endproc
 245              	.LFE5:
 246              		.size	UART_433_UartSetRxAddress, .-UART_433_UartSetRxAddress
 247              		.section	.text.UART_433_UartSetRxAddressMask,"ax",%progbits
 248              		.align	1
 249              		.global	UART_433_UartSetRxAddressMask
 250              		.code	16
 251              		.thumb_func
 252              		.type	UART_433_UartSetRxAddressMask, %function
 253              	UART_433_UartSetRxAddressMask:
 254              	.LFB6:
 442:Generated_Source\PSoC4/UART_433_UART.c **** 
 443:Generated_Source\PSoC4/UART_433_UART.c **** 
 444:Generated_Source\PSoC4/UART_433_UART.c **** /*******************************************************************************
 445:Generated_Source\PSoC4/UART_433_UART.c **** * Function Name: UART_433_UartSetRxAddressMask
 446:Generated_Source\PSoC4/UART_433_UART.c **** ****************************************************************************//**
 447:Generated_Source\PSoC4/UART_433_UART.c **** *
 448:Generated_Source\PSoC4/UART_433_UART.c **** *  Sets the hardware address mask for the UART in the Multiprocessor mode.
 449:Generated_Source\PSoC4/UART_433_UART.c **** *
 450:Generated_Source\PSoC4/UART_433_UART.c **** *  \param addressMask: Address mask.
 451:Generated_Source\PSoC4/UART_433_UART.c **** *   - Bit value 0 ¨C excludes bit from address comparison.
 452:Generated_Source\PSoC4/UART_433_UART.c **** *   - Bit value 1 ¨C the bit needs to match with the corresponding bit
 453:Generated_Source\PSoC4/UART_433_UART.c **** *     of the address.
 454:Generated_Source\PSoC4/UART_433_UART.c **** *
 455:Generated_Source\PSoC4/UART_433_UART.c **** *******************************************************************************/
 456:Generated_Source\PSoC4/UART_433_UART.c **** void UART_433_UartSetRxAddressMask(uint32 addressMask)
ARM GAS  C:\Users\zhiantec\AppData\Local\Temp\ccy1RDEb.s 			page 14


 457:Generated_Source\PSoC4/UART_433_UART.c **** {
 255              		.loc 1 457 0
 256              		.cfi_startproc
 257              	.LVL5:
 458:Generated_Source\PSoC4/UART_433_UART.c ****     uint32 matchReg;
 459:Generated_Source\PSoC4/UART_433_UART.c **** 
 460:Generated_Source\PSoC4/UART_433_UART.c ****     matchReg = UART_433_RX_MATCH_REG;
 258              		.loc 1 460 0
 259 0000 034A     		ldr	r2, .L14
 461:Generated_Source\PSoC4/UART_433_UART.c **** 
 462:Generated_Source\PSoC4/UART_433_UART.c ****     matchReg &= ((uint32) ~UART_433_RX_MATCH_MASK_MASK); /* Clear address mask bits */
 260              		.loc 1 462 0
 261 0002 044B     		ldr	r3, .L14+4
 460:Generated_Source\PSoC4/UART_433_UART.c **** 
 262              		.loc 1 460 0
 263 0004 1168     		ldr	r1, [r2]
 264              	.LVL6:
 463:Generated_Source\PSoC4/UART_433_UART.c ****     matchReg |= ((uint32) (addressMask << UART_433_RX_MATCH_MASK_POS));
 265              		.loc 1 463 0
 266 0006 0004     		lsl	r0, r0, #16
 267              	.LVL7:
 462:Generated_Source\PSoC4/UART_433_UART.c ****     matchReg |= ((uint32) (addressMask << UART_433_RX_MATCH_MASK_POS));
 268              		.loc 1 462 0
 269 0008 0B40     		and	r3, r1
 270              	.LVL8:
 271              		.loc 1 463 0
 272 000a 1843     		orr	r0, r3
 273              	.LVL9:
 464:Generated_Source\PSoC4/UART_433_UART.c **** 
 465:Generated_Source\PSoC4/UART_433_UART.c ****     UART_433_RX_MATCH_REG = matchReg;
 274              		.loc 1 465 0
 275 000c 1060     		str	r0, [r2]
 466:Generated_Source\PSoC4/UART_433_UART.c **** }
 276              		.loc 1 466 0
 277              		@ sp needed
 278 000e 7047     		bx	lr
 279              	.L15:
 280              		.align	2
 281              	.L14:
 282 0010 10032440 		.word	1076101904
 283 0014 FFFF00FF 		.word	-16711681
 284              		.cfi_endproc
 285              	.LFE6:
 286              		.size	UART_433_UartSetRxAddressMask, .-UART_433_UartSetRxAddressMask
 287              		.section	.text.UART_433_UartGetChar,"ax",%progbits
 288              		.align	1
 289              		.global	UART_433_UartGetChar
 290              		.code	16
 291              		.thumb_func
 292              		.type	UART_433_UartGetChar, %function
 293              	UART_433_UartGetChar:
 294              	.LFB7:
 467:Generated_Source\PSoC4/UART_433_UART.c **** 
 468:Generated_Source\PSoC4/UART_433_UART.c **** 
 469:Generated_Source\PSoC4/UART_433_UART.c **** #if(UART_433_UART_RX_DIRECTION)
 470:Generated_Source\PSoC4/UART_433_UART.c ****     /*******************************************************************************
 471:Generated_Source\PSoC4/UART_433_UART.c ****     * Function Name: UART_433_UartGetChar
ARM GAS  C:\Users\zhiantec\AppData\Local\Temp\ccy1RDEb.s 			page 15


 472:Generated_Source\PSoC4/UART_433_UART.c ****     ****************************************************************************//**
 473:Generated_Source\PSoC4/UART_433_UART.c ****     *
 474:Generated_Source\PSoC4/UART_433_UART.c ****     *  Retrieves next data element from receive buffer.
 475:Generated_Source\PSoC4/UART_433_UART.c ****     *  This function is designed for ASCII characters and returns a char where
 476:Generated_Source\PSoC4/UART_433_UART.c ****     *  1 to 255 are valid characters and 0 indicates an error occurred or no data
 477:Generated_Source\PSoC4/UART_433_UART.c ****     *  is present.
 478:Generated_Source\PSoC4/UART_433_UART.c ****     *  - RX software buffer is disabled: Returns data element retrieved from RX
 479:Generated_Source\PSoC4/UART_433_UART.c ****     *    FIFO.
 480:Generated_Source\PSoC4/UART_433_UART.c ****     *  - RX software buffer is enabled: Returns data element from the software
 481:Generated_Source\PSoC4/UART_433_UART.c ****     *    receive buffer.
 482:Generated_Source\PSoC4/UART_433_UART.c ****     *
 483:Generated_Source\PSoC4/UART_433_UART.c ****     *  \return
 484:Generated_Source\PSoC4/UART_433_UART.c ****     *   Next data element from the receive buffer. ASCII character values from
 485:Generated_Source\PSoC4/UART_433_UART.c ****     *   1 to 255 are valid. A returned zero signifies an error condition or no
 486:Generated_Source\PSoC4/UART_433_UART.c ****     *   data available.
 487:Generated_Source\PSoC4/UART_433_UART.c ****     *
 488:Generated_Source\PSoC4/UART_433_UART.c ****     *  \sideeffect
 489:Generated_Source\PSoC4/UART_433_UART.c ****     *   The errors bits may not correspond with reading characters due to
 490:Generated_Source\PSoC4/UART_433_UART.c ****     *   RX FIFO and software buffer usage.
 491:Generated_Source\PSoC4/UART_433_UART.c ****     *   RX software buffer is enabled: The internal software buffer overflow
 492:Generated_Source\PSoC4/UART_433_UART.c ****     *   is not treated as an error condition.
 493:Generated_Source\PSoC4/UART_433_UART.c ****     *   Check UART_433_rxBufferOverflow to capture that error condition.
 494:Generated_Source\PSoC4/UART_433_UART.c ****     *
 495:Generated_Source\PSoC4/UART_433_UART.c ****     *******************************************************************************/
 496:Generated_Source\PSoC4/UART_433_UART.c ****     uint32 UART_433_UartGetChar(void)
 497:Generated_Source\PSoC4/UART_433_UART.c ****     {
 295              		.loc 1 497 0
 296              		.cfi_startproc
 297              	.LVL10:
 298 0000 08B5     		push	{r3, lr}
 299              		.cfi_def_cfa_offset 8
 300              		.cfi_offset 3, -8
 301              		.cfi_offset 14, -4
 498:Generated_Source\PSoC4/UART_433_UART.c ****         uint32 rxData = 0u;
 499:Generated_Source\PSoC4/UART_433_UART.c **** 
 500:Generated_Source\PSoC4/UART_433_UART.c ****         /* Reads data only if there is data to read */
 501:Generated_Source\PSoC4/UART_433_UART.c ****         if (0u != UART_433_SpiUartGetRxBufferSize())
 302              		.loc 1 501 0
 303 0002 FFF7FEFF 		bl	UART_433_SpiUartGetRxBufferSize
 304              	.LVL11:
 305 0006 031C     		mov	r3, r0
 498:Generated_Source\PSoC4/UART_433_UART.c ****         uint32 rxData = 0u;
 306              		.loc 1 498 0
 307 0008 0020     		mov	r0, #0
 308              		.loc 1 501 0
 309 000a 8342     		cmp	r3, r0
 310 000c 01D0     		beq	.L17
 502:Generated_Source\PSoC4/UART_433_UART.c ****         {
 503:Generated_Source\PSoC4/UART_433_UART.c ****             rxData = UART_433_SpiUartReadRxData();
 311              		.loc 1 503 0
 312 000e FFF7FEFF 		bl	UART_433_SpiUartReadRxData
 313              	.LVL12:
 314              	.L17:
 504:Generated_Source\PSoC4/UART_433_UART.c ****         }
 505:Generated_Source\PSoC4/UART_433_UART.c **** 
 506:Generated_Source\PSoC4/UART_433_UART.c ****         if (UART_433_CHECK_INTR_RX(UART_433_INTR_RX_ERR))
 315              		.loc 1 506 0
ARM GAS  C:\Users\zhiantec\AppData\Local\Temp\ccy1RDEb.s 			page 16


 316 0012 D822     		mov	r2, #216
 317 0014 034B     		ldr	r3, .L25
 318 0016 9200     		lsl	r2, r2, #2
 319 0018 1968     		ldr	r1, [r3]
 320 001a 1142     		tst	r1, r2
 321 001c 01D0     		beq	.L18
 322              	.LVL13:
 507:Generated_Source\PSoC4/UART_433_UART.c ****         {
 508:Generated_Source\PSoC4/UART_433_UART.c ****             rxData = 0u; /* Error occurred: returns zero */
 323              		.loc 1 508 0
 324 001e 0020     		mov	r0, #0
 509:Generated_Source\PSoC4/UART_433_UART.c ****             UART_433_ClearRxInterruptSource(UART_433_INTR_RX_ERR);
 325              		.loc 1 509 0
 326 0020 1A60     		str	r2, [r3]
 327              	.LVL14:
 328              	.L18:
 510:Generated_Source\PSoC4/UART_433_UART.c ****         }
 511:Generated_Source\PSoC4/UART_433_UART.c **** 
 512:Generated_Source\PSoC4/UART_433_UART.c ****         return (rxData);
 513:Generated_Source\PSoC4/UART_433_UART.c ****     }
 329              		.loc 1 513 0
 330              		@ sp needed
 331 0022 08BD     		pop	{r3, pc}
 332              	.L26:
 333              		.align	2
 334              	.L25:
 335 0024 C00F2440 		.word	1076105152
 336              		.cfi_endproc
 337              	.LFE7:
 338              		.size	UART_433_UartGetChar, .-UART_433_UartGetChar
 339              		.section	.text.UART_433_UartGetByte,"ax",%progbits
 340              		.align	1
 341              		.global	UART_433_UartGetByte
 342              		.code	16
 343              		.thumb_func
 344              		.type	UART_433_UartGetByte, %function
 345              	UART_433_UartGetByte:
 346              	.LFB8:
 514:Generated_Source\PSoC4/UART_433_UART.c **** 
 515:Generated_Source\PSoC4/UART_433_UART.c **** 
 516:Generated_Source\PSoC4/UART_433_UART.c ****     /*******************************************************************************
 517:Generated_Source\PSoC4/UART_433_UART.c ****     * Function Name: UART_433_UartGetByte
 518:Generated_Source\PSoC4/UART_433_UART.c ****     ****************************************************************************//**
 519:Generated_Source\PSoC4/UART_433_UART.c ****     *
 520:Generated_Source\PSoC4/UART_433_UART.c ****     *  Retrieves the next data element from the receive buffer, returns the
 521:Generated_Source\PSoC4/UART_433_UART.c ****     *  received byte and error condition.
 522:Generated_Source\PSoC4/UART_433_UART.c ****     *   - The RX software buffer is disabled: returns the data element retrieved
 523:Generated_Source\PSoC4/UART_433_UART.c ****     *     from the RX FIFO. Undefined data will be returned if the RX FIFO is
 524:Generated_Source\PSoC4/UART_433_UART.c ****     *     empty.
 525:Generated_Source\PSoC4/UART_433_UART.c ****     *   - The RX software buffer is enabled: returns data element from the
 526:Generated_Source\PSoC4/UART_433_UART.c ****     *     software receive buffer.
 527:Generated_Source\PSoC4/UART_433_UART.c ****     *
 528:Generated_Source\PSoC4/UART_433_UART.c ****     *  \return
 529:Generated_Source\PSoC4/UART_433_UART.c ****     *   Bits 7-0 contain the next data element from the receive buffer and
 530:Generated_Source\PSoC4/UART_433_UART.c ****     *   other bits contain the error condition.
 531:Generated_Source\PSoC4/UART_433_UART.c ****     *   - UART_433_UART_RX_OVERFLOW - Attempt to write to a full
 532:Generated_Source\PSoC4/UART_433_UART.c ****     *     receiver FIFO.
ARM GAS  C:\Users\zhiantec\AppData\Local\Temp\ccy1RDEb.s 			page 17


 533:Generated_Source\PSoC4/UART_433_UART.c ****     *   - UART_433_UART_RX_UNDERFLOW	Attempt to read from an empty
 534:Generated_Source\PSoC4/UART_433_UART.c ****     *     receiver FIFO.
 535:Generated_Source\PSoC4/UART_433_UART.c ****     *   - UART_433_UART_RX_FRAME_ERROR - UART framing error detected.
 536:Generated_Source\PSoC4/UART_433_UART.c ****     *   - UART_433_UART_RX_PARITY_ERROR - UART parity error detected.
 537:Generated_Source\PSoC4/UART_433_UART.c ****     *
 538:Generated_Source\PSoC4/UART_433_UART.c ****     *  \sideeffect
 539:Generated_Source\PSoC4/UART_433_UART.c ****     *   The errors bits may not correspond with reading characters due to
 540:Generated_Source\PSoC4/UART_433_UART.c ****     *   RX FIFO and software buffer usage.
 541:Generated_Source\PSoC4/UART_433_UART.c ****     *   RX software buffer is enabled: The internal software buffer overflow
 542:Generated_Source\PSoC4/UART_433_UART.c ****     *   is not treated as an error condition.
 543:Generated_Source\PSoC4/UART_433_UART.c ****     *   Check UART_433_rxBufferOverflow to capture that error condition.
 544:Generated_Source\PSoC4/UART_433_UART.c ****     *
 545:Generated_Source\PSoC4/UART_433_UART.c ****     *******************************************************************************/
 546:Generated_Source\PSoC4/UART_433_UART.c ****     uint32 UART_433_UartGetByte(void)
 547:Generated_Source\PSoC4/UART_433_UART.c ****     {
 347              		.loc 1 547 0
 348              		.cfi_startproc
 349 0000 08B5     		push	{r3, lr}
 350              		.cfi_def_cfa_offset 8
 351              		.cfi_offset 3, -8
 352              		.cfi_offset 14, -4
 548:Generated_Source\PSoC4/UART_433_UART.c ****         uint32 rxData;
 549:Generated_Source\PSoC4/UART_433_UART.c ****         uint32 tmpStatus;
 550:Generated_Source\PSoC4/UART_433_UART.c **** 
 551:Generated_Source\PSoC4/UART_433_UART.c ****         #if (UART_433_CHECK_RX_SW_BUFFER)
 552:Generated_Source\PSoC4/UART_433_UART.c ****         {
 553:Generated_Source\PSoC4/UART_433_UART.c ****             UART_433_DisableInt();
 554:Generated_Source\PSoC4/UART_433_UART.c ****         }
 555:Generated_Source\PSoC4/UART_433_UART.c ****         #endif
 556:Generated_Source\PSoC4/UART_433_UART.c **** 
 557:Generated_Source\PSoC4/UART_433_UART.c ****         if (0u != UART_433_SpiUartGetRxBufferSize())
 353              		.loc 1 557 0
 354 0002 FFF7FEFF 		bl	UART_433_SpiUartGetRxBufferSize
 355              	.LVL15:
 356 0006 0028     		cmp	r0, #0
 357 0008 02D0     		beq	.L28
 558:Generated_Source\PSoC4/UART_433_UART.c ****         {
 559:Generated_Source\PSoC4/UART_433_UART.c ****             /* Enables interrupt to receive more bytes: at least one byte is in
 560:Generated_Source\PSoC4/UART_433_UART.c ****             * buffer.
 561:Generated_Source\PSoC4/UART_433_UART.c ****             */
 562:Generated_Source\PSoC4/UART_433_UART.c ****             #if (UART_433_CHECK_RX_SW_BUFFER)
 563:Generated_Source\PSoC4/UART_433_UART.c ****             {
 564:Generated_Source\PSoC4/UART_433_UART.c ****                 UART_433_EnableInt();
 565:Generated_Source\PSoC4/UART_433_UART.c ****             }
 566:Generated_Source\PSoC4/UART_433_UART.c ****             #endif
 567:Generated_Source\PSoC4/UART_433_UART.c **** 
 568:Generated_Source\PSoC4/UART_433_UART.c ****             /* Get received byte */
 569:Generated_Source\PSoC4/UART_433_UART.c ****             rxData = UART_433_SpiUartReadRxData();
 358              		.loc 1 569 0
 359 000a FFF7FEFF 		bl	UART_433_SpiUartReadRxData
 360              	.LVL16:
 361 000e 01E0     		b	.L29
 362              	.LVL17:
 363              	.L28:
 570:Generated_Source\PSoC4/UART_433_UART.c ****         }
 571:Generated_Source\PSoC4/UART_433_UART.c ****         else
 572:Generated_Source\PSoC4/UART_433_UART.c ****         {
ARM GAS  C:\Users\zhiantec\AppData\Local\Temp\ccy1RDEb.s 			page 18


 573:Generated_Source\PSoC4/UART_433_UART.c ****             /* Reads a byte directly from RX FIFO: underflow is raised in the
 574:Generated_Source\PSoC4/UART_433_UART.c ****             * case of empty. Otherwise the first received byte will be read.
 575:Generated_Source\PSoC4/UART_433_UART.c ****             */
 576:Generated_Source\PSoC4/UART_433_UART.c ****             rxData = UART_433_RX_FIFO_RD_REG;
 364              		.loc 1 576 0
 365 0010 054B     		ldr	r3, .L30
 366 0012 1868     		ldr	r0, [r3]
 367              	.LVL18:
 368              	.L29:
 577:Generated_Source\PSoC4/UART_433_UART.c **** 
 578:Generated_Source\PSoC4/UART_433_UART.c **** 
 579:Generated_Source\PSoC4/UART_433_UART.c ****             /* Enables interrupt to receive more bytes. */
 580:Generated_Source\PSoC4/UART_433_UART.c ****             #if (UART_433_CHECK_RX_SW_BUFFER)
 581:Generated_Source\PSoC4/UART_433_UART.c ****             {
 582:Generated_Source\PSoC4/UART_433_UART.c **** 
 583:Generated_Source\PSoC4/UART_433_UART.c ****                 /* The byte has been read from RX FIFO. Clear RX interrupt to
 584:Generated_Source\PSoC4/UART_433_UART.c ****                 * not involve interrupt handler when RX FIFO is empty.
 585:Generated_Source\PSoC4/UART_433_UART.c ****                 */
 586:Generated_Source\PSoC4/UART_433_UART.c ****                 UART_433_ClearRxInterruptSource(UART_433_INTR_RX_NOT_EMPTY);
 587:Generated_Source\PSoC4/UART_433_UART.c **** 
 588:Generated_Source\PSoC4/UART_433_UART.c ****                 UART_433_EnableInt();
 589:Generated_Source\PSoC4/UART_433_UART.c ****             }
 590:Generated_Source\PSoC4/UART_433_UART.c ****             #endif
 591:Generated_Source\PSoC4/UART_433_UART.c ****         }
 592:Generated_Source\PSoC4/UART_433_UART.c **** 
 593:Generated_Source\PSoC4/UART_433_UART.c ****         /* Get and clear RX error mask */
 594:Generated_Source\PSoC4/UART_433_UART.c ****         tmpStatus = (UART_433_GetRxInterruptSource() & UART_433_INTR_RX_ERR);
 595:Generated_Source\PSoC4/UART_433_UART.c ****         UART_433_ClearRxInterruptSource(UART_433_INTR_RX_ERR);
 369              		.loc 1 595 0
 370 0014 D823     		mov	r3, #216
 594:Generated_Source\PSoC4/UART_433_UART.c ****         UART_433_ClearRxInterruptSource(UART_433_INTR_RX_ERR);
 371              		.loc 1 594 0
 372 0016 054A     		ldr	r2, .L30+4
 373              		.loc 1 595 0
 374 0018 9B00     		lsl	r3, r3, #2
 594:Generated_Source\PSoC4/UART_433_UART.c ****         UART_433_ClearRxInterruptSource(UART_433_INTR_RX_ERR);
 375              		.loc 1 594 0
 376 001a 1168     		ldr	r1, [r2]
 377              	.LVL19:
 378              		.loc 1 595 0
 379 001c 1360     		str	r3, [r2]
 380              	.LVL20:
 594:Generated_Source\PSoC4/UART_433_UART.c ****         UART_433_ClearRxInterruptSource(UART_433_INTR_RX_ERR);
 381              		.loc 1 594 0
 382 001e 0B40     		and	r3, r1
 596:Generated_Source\PSoC4/UART_433_UART.c **** 
 597:Generated_Source\PSoC4/UART_433_UART.c ****         /* Puts together data and error status:
 598:Generated_Source\PSoC4/UART_433_UART.c ****         * MP mode and accept address: 9th bit is set to notify mark.
 599:Generated_Source\PSoC4/UART_433_UART.c ****         */
 600:Generated_Source\PSoC4/UART_433_UART.c ****         rxData |= ((uint32) (tmpStatus << 8u));
 383              		.loc 1 600 0
 384 0020 1B02     		lsl	r3, r3, #8
 385 0022 1843     		orr	r0, r3
 386              	.LVL21:
 601:Generated_Source\PSoC4/UART_433_UART.c **** 
 602:Generated_Source\PSoC4/UART_433_UART.c ****         return (rxData);
 603:Generated_Source\PSoC4/UART_433_UART.c ****     }
ARM GAS  C:\Users\zhiantec\AppData\Local\Temp\ccy1RDEb.s 			page 19


 387              		.loc 1 603 0
 388              		@ sp needed
 389 0024 08BD     		pop	{r3, pc}
 390              	.L31:
 391 0026 C046     		.align	2
 392              	.L30:
 393 0028 40032440 		.word	1076101952
 394 002c C00F2440 		.word	1076105152
 395              		.cfi_endproc
 396              	.LFE8:
 397              		.size	UART_433_UartGetByte, .-UART_433_UartGetByte
 398              		.section	.text.UART_433_UartSetRtsPolarity,"ax",%progbits
 399              		.align	1
 400              		.global	UART_433_UartSetRtsPolarity
 401              		.code	16
 402              		.thumb_func
 403              		.type	UART_433_UartSetRtsPolarity, %function
 404              	UART_433_UartSetRtsPolarity:
 405              	.LFB9:
 604:Generated_Source\PSoC4/UART_433_UART.c **** 
 605:Generated_Source\PSoC4/UART_433_UART.c **** 
 606:Generated_Source\PSoC4/UART_433_UART.c ****     #if !(UART_433_CY_SCBIP_V0 || UART_433_CY_SCBIP_V1)
 607:Generated_Source\PSoC4/UART_433_UART.c ****         /*******************************************************************************
 608:Generated_Source\PSoC4/UART_433_UART.c ****         * Function Name: UART_433_UartSetRtsPolarity
 609:Generated_Source\PSoC4/UART_433_UART.c ****         ****************************************************************************//**
 610:Generated_Source\PSoC4/UART_433_UART.c ****         *
 611:Generated_Source\PSoC4/UART_433_UART.c ****         *  Sets active polarity of RTS output signal.
 612:Generated_Source\PSoC4/UART_433_UART.c ****         *  Only available for PSoC 4100 BLE / PSoC 4200 BLE / PSoC 4100M / PSoC 4200M /
 613:Generated_Source\PSoC4/UART_433_UART.c ****         *  PSoC 4200L / PSoC 4000S / PSoC 4100S / PSoC Analog Coprocessor devices.
 614:Generated_Source\PSoC4/UART_433_UART.c ****         *
 615:Generated_Source\PSoC4/UART_433_UART.c ****         *  \param polarity: Active polarity of RTS output signal.
 616:Generated_Source\PSoC4/UART_433_UART.c ****         *   - UART_433_UART_RTS_ACTIVE_LOW  - RTS signal is active low.
 617:Generated_Source\PSoC4/UART_433_UART.c ****         *   - UART_433_UART_RTS_ACTIVE_HIGH - RTS signal is active high.
 618:Generated_Source\PSoC4/UART_433_UART.c ****         *
 619:Generated_Source\PSoC4/UART_433_UART.c ****         *******************************************************************************/
 620:Generated_Source\PSoC4/UART_433_UART.c ****         void UART_433_UartSetRtsPolarity(uint32 polarity)
 621:Generated_Source\PSoC4/UART_433_UART.c ****         {
 406              		.loc 1 621 0
 407              		.cfi_startproc
 408              	.LVL22:
 409 0000 064B     		ldr	r3, .L36
 622:Generated_Source\PSoC4/UART_433_UART.c ****             if(0u != polarity)
 410              		.loc 1 622 0
 411 0002 0028     		cmp	r0, #0
 412 0004 04D0     		beq	.L33
 623:Generated_Source\PSoC4/UART_433_UART.c ****             {
 624:Generated_Source\PSoC4/UART_433_UART.c ****                 UART_433_UART_FLOW_CTRL_REG |= (uint32)  UART_433_UART_FLOW_CTRL_RTS_POLARITY;
 413              		.loc 1 624 0
 414 0006 8021     		mov	r1, #128
 415 0008 1A68     		ldr	r2, [r3]
 416 000a 4902     		lsl	r1, r1, #9
 417 000c 0A43     		orr	r2, r1
 418 000e 02E0     		b	.L35
 419              	.L33:
 625:Generated_Source\PSoC4/UART_433_UART.c ****             }
 626:Generated_Source\PSoC4/UART_433_UART.c ****             else
 627:Generated_Source\PSoC4/UART_433_UART.c ****             {
ARM GAS  C:\Users\zhiantec\AppData\Local\Temp\ccy1RDEb.s 			page 20


 628:Generated_Source\PSoC4/UART_433_UART.c ****                 UART_433_UART_FLOW_CTRL_REG &= (uint32) ~UART_433_UART_FLOW_CTRL_RTS_POLARITY;
 420              		.loc 1 628 0
 421 0010 1968     		ldr	r1, [r3]
 422 0012 034A     		ldr	r2, .L36+4
 423 0014 0A40     		and	r2, r1
 424              	.L35:
 425 0016 1A60     		str	r2, [r3]
 629:Generated_Source\PSoC4/UART_433_UART.c ****             }
 630:Generated_Source\PSoC4/UART_433_UART.c ****         }
 426              		.loc 1 630 0
 427              		@ sp needed
 428 0018 7047     		bx	lr
 429              	.L37:
 430 001a C046     		.align	2
 431              	.L36:
 432 001c 50002440 		.word	1076101200
 433 0020 FFFFFEFF 		.word	-65537
 434              		.cfi_endproc
 435              	.LFE9:
 436              		.size	UART_433_UartSetRtsPolarity, .-UART_433_UartSetRtsPolarity
 437              		.section	.text.UART_433_UartSetRtsFifoLevel,"ax",%progbits
 438              		.align	1
 439              		.global	UART_433_UartSetRtsFifoLevel
 440              		.code	16
 441              		.thumb_func
 442              		.type	UART_433_UartSetRtsFifoLevel, %function
 443              	UART_433_UartSetRtsFifoLevel:
 444              	.LFB10:
 631:Generated_Source\PSoC4/UART_433_UART.c **** 
 632:Generated_Source\PSoC4/UART_433_UART.c **** 
 633:Generated_Source\PSoC4/UART_433_UART.c ****         /*******************************************************************************
 634:Generated_Source\PSoC4/UART_433_UART.c ****         * Function Name: UART_433_UartSetRtsFifoLevel
 635:Generated_Source\PSoC4/UART_433_UART.c ****         ****************************************************************************//**
 636:Generated_Source\PSoC4/UART_433_UART.c ****         *
 637:Generated_Source\PSoC4/UART_433_UART.c ****         *  Sets level in the RX FIFO for RTS signal activation.
 638:Generated_Source\PSoC4/UART_433_UART.c ****         *  While the RX FIFO has fewer entries than the RX FIFO level the RTS signal
 639:Generated_Source\PSoC4/UART_433_UART.c ****         *  remains active, otherwise the RTS signal becomes inactive.
 640:Generated_Source\PSoC4/UART_433_UART.c ****         *  Only available for PSoC 4100 BLE / PSoC 4200 BLE / PSoC 4100M / PSoC 4200M /
 641:Generated_Source\PSoC4/UART_433_UART.c ****         *  PSoC 4200L / PSoC 4000S / PSoC 4100S / PSoC Analog Coprocessor devices.
 642:Generated_Source\PSoC4/UART_433_UART.c ****         *
 643:Generated_Source\PSoC4/UART_433_UART.c ****         *  \param level: Level in the RX FIFO for RTS signal activation.
 644:Generated_Source\PSoC4/UART_433_UART.c ****         *   The range of valid level values is between 0 and RX FIFO depth - 1.
 645:Generated_Source\PSoC4/UART_433_UART.c ****         *   Setting level value to 0 disables RTS signal activation.
 646:Generated_Source\PSoC4/UART_433_UART.c ****         *
 647:Generated_Source\PSoC4/UART_433_UART.c ****         *******************************************************************************/
 648:Generated_Source\PSoC4/UART_433_UART.c ****         void UART_433_UartSetRtsFifoLevel(uint32 level)
 649:Generated_Source\PSoC4/UART_433_UART.c ****         {
 445              		.loc 1 649 0
 446              		.cfi_startproc
 447              	.LVL23:
 650:Generated_Source\PSoC4/UART_433_UART.c ****             uint32 uartFlowCtrl;
 651:Generated_Source\PSoC4/UART_433_UART.c **** 
 652:Generated_Source\PSoC4/UART_433_UART.c ****             uartFlowCtrl = UART_433_UART_FLOW_CTRL_REG;
 653:Generated_Source\PSoC4/UART_433_UART.c **** 
 654:Generated_Source\PSoC4/UART_433_UART.c ****             uartFlowCtrl &= ((uint32) ~UART_433_UART_FLOW_CTRL_TRIGGER_LEVEL_MASK); /* Clear level 
 448              		.loc 1 654 0
 449 0000 0F22     		mov	r2, #15
ARM GAS  C:\Users\zhiantec\AppData\Local\Temp\ccy1RDEb.s 			page 21


 652:Generated_Source\PSoC4/UART_433_UART.c **** 
 450              		.loc 1 652 0
 451 0002 0349     		ldr	r1, .L39
 655:Generated_Source\PSoC4/UART_433_UART.c ****             uartFlowCtrl |= ((uint32) (UART_433_UART_FLOW_CTRL_TRIGGER_LEVEL_MASK & level));
 452              		.loc 1 655 0
 453 0004 1040     		and	r0, r2
 454              	.LVL24:
 652:Generated_Source\PSoC4/UART_433_UART.c **** 
 455              		.loc 1 652 0
 456 0006 0B68     		ldr	r3, [r1]
 457              	.LVL25:
 656:Generated_Source\PSoC4/UART_433_UART.c **** 
 657:Generated_Source\PSoC4/UART_433_UART.c ****             UART_433_UART_FLOW_CTRL_REG = uartFlowCtrl;
 658:Generated_Source\PSoC4/UART_433_UART.c ****         }
 458              		.loc 1 658 0
 459              		@ sp needed
 654:Generated_Source\PSoC4/UART_433_UART.c ****             uartFlowCtrl |= ((uint32) (UART_433_UART_FLOW_CTRL_TRIGGER_LEVEL_MASK & level));
 460              		.loc 1 654 0
 461 0008 9343     		bic	r3, r2
 462              	.LVL26:
 655:Generated_Source\PSoC4/UART_433_UART.c ****             uartFlowCtrl |= ((uint32) (UART_433_UART_FLOW_CTRL_TRIGGER_LEVEL_MASK & level));
 463              		.loc 1 655 0
 464 000a 1843     		orr	r0, r3
 465              	.LVL27:
 657:Generated_Source\PSoC4/UART_433_UART.c ****         }
 466              		.loc 1 657 0
 467 000c 0860     		str	r0, [r1]
 468              		.loc 1 658 0
 469 000e 7047     		bx	lr
 470              	.L40:
 471              		.align	2
 472              	.L39:
 473 0010 50002440 		.word	1076101200
 474              		.cfi_endproc
 475              	.LFE10:
 476              		.size	UART_433_UartSetRtsFifoLevel, .-UART_433_UartSetRtsFifoLevel
 477              		.section	.text.UART_433_UartPutString,"ax",%progbits
 478              		.align	1
 479              		.global	UART_433_UartPutString
 480              		.code	16
 481              		.thumb_func
 482              		.type	UART_433_UartPutString, %function
 483              	UART_433_UartPutString:
 484              	.LFB11:
 659:Generated_Source\PSoC4/UART_433_UART.c ****     #endif /* !(UART_433_CY_SCBIP_V0 || UART_433_CY_SCBIP_V1) */
 660:Generated_Source\PSoC4/UART_433_UART.c **** 
 661:Generated_Source\PSoC4/UART_433_UART.c **** #endif /* (UART_433_UART_RX_DIRECTION) */
 662:Generated_Source\PSoC4/UART_433_UART.c **** 
 663:Generated_Source\PSoC4/UART_433_UART.c **** 
 664:Generated_Source\PSoC4/UART_433_UART.c **** #if(UART_433_UART_TX_DIRECTION)
 665:Generated_Source\PSoC4/UART_433_UART.c ****     /*******************************************************************************
 666:Generated_Source\PSoC4/UART_433_UART.c ****     * Function Name: UART_433_UartPutString
 667:Generated_Source\PSoC4/UART_433_UART.c ****     ****************************************************************************//**
 668:Generated_Source\PSoC4/UART_433_UART.c ****     *
 669:Generated_Source\PSoC4/UART_433_UART.c ****     *  Places a NULL terminated string in the transmit buffer to be sent at the
 670:Generated_Source\PSoC4/UART_433_UART.c ****     *  next available bus time.
 671:Generated_Source\PSoC4/UART_433_UART.c ****     *  This function is blocking and waits until there is a space available to put
ARM GAS  C:\Users\zhiantec\AppData\Local\Temp\ccy1RDEb.s 			page 22


 672:Generated_Source\PSoC4/UART_433_UART.c ****     *  requested data in transmit buffer.
 673:Generated_Source\PSoC4/UART_433_UART.c ****     *
 674:Generated_Source\PSoC4/UART_433_UART.c ****     *  \param string: pointer to the null terminated string array to be placed in the
 675:Generated_Source\PSoC4/UART_433_UART.c ****     *   transmit buffer.
 676:Generated_Source\PSoC4/UART_433_UART.c ****     *
 677:Generated_Source\PSoC4/UART_433_UART.c ****     *******************************************************************************/
 678:Generated_Source\PSoC4/UART_433_UART.c ****     void UART_433_UartPutString(const char8 string[])
 679:Generated_Source\PSoC4/UART_433_UART.c ****     {
 485              		.loc 1 679 0
 486              		.cfi_startproc
 487              	.LVL28:
 488 0000 10B5     		push	{r4, lr}
 489              		.cfi_def_cfa_offset 8
 490              		.cfi_offset 4, -8
 491              		.cfi_offset 14, -4
 492 0002 041C     		mov	r4, r0
 493              	.LVL29:
 494              	.L42:
 495 0004 0134     		add	r4, r4, #1
 496              	.LVL30:
 497 0006 631E     		sub	r3, r4, #1
 680:Generated_Source\PSoC4/UART_433_UART.c ****         uint32 bufIndex;
 681:Generated_Source\PSoC4/UART_433_UART.c **** 
 682:Generated_Source\PSoC4/UART_433_UART.c ****         bufIndex = 0u;
 683:Generated_Source\PSoC4/UART_433_UART.c **** 
 684:Generated_Source\PSoC4/UART_433_UART.c ****         /* Blocks the control flow until all data has been sent */
 685:Generated_Source\PSoC4/UART_433_UART.c ****         while(string[bufIndex] != ((char8) 0))
 498              		.loc 1 685 0
 499 0008 1878     		ldrb	r0, [r3]
 500 000a 0028     		cmp	r0, #0
 501 000c 02D0     		beq	.L44
 686:Generated_Source\PSoC4/UART_433_UART.c ****         {
 687:Generated_Source\PSoC4/UART_433_UART.c ****             UART_433_UartPutChar((uint32) string[bufIndex]);
 502              		.loc 1 687 0
 503 000e FFF7FEFF 		bl	UART_433_SpiUartWriteTxData
 504              	.LVL31:
 505 0012 F7E7     		b	.L42
 506              	.LVL32:
 507              	.L44:
 688:Generated_Source\PSoC4/UART_433_UART.c ****             bufIndex++;
 689:Generated_Source\PSoC4/UART_433_UART.c ****         }
 690:Generated_Source\PSoC4/UART_433_UART.c ****     }
 508              		.loc 1 690 0
 509              		@ sp needed
 510              	.LVL33:
 511 0014 10BD     		pop	{r4, pc}
 512              		.cfi_endproc
 513              	.LFE11:
 514              		.size	UART_433_UartPutString, .-UART_433_UartPutString
 515              		.section	.text.UART_433_UartPutCRLF,"ax",%progbits
 516              		.align	1
 517              		.global	UART_433_UartPutCRLF
 518              		.code	16
 519              		.thumb_func
 520              		.type	UART_433_UartPutCRLF, %function
 521              	UART_433_UartPutCRLF:
 522              	.LFB12:
ARM GAS  C:\Users\zhiantec\AppData\Local\Temp\ccy1RDEb.s 			page 23


 691:Generated_Source\PSoC4/UART_433_UART.c **** 
 692:Generated_Source\PSoC4/UART_433_UART.c **** 
 693:Generated_Source\PSoC4/UART_433_UART.c ****     /*******************************************************************************
 694:Generated_Source\PSoC4/UART_433_UART.c ****     * Function Name: UART_433_UartPutCRLF
 695:Generated_Source\PSoC4/UART_433_UART.c ****     ****************************************************************************//**
 696:Generated_Source\PSoC4/UART_433_UART.c ****     *
 697:Generated_Source\PSoC4/UART_433_UART.c ****     *  Places byte of data followed by a carriage return (0x0D) and line feed
 698:Generated_Source\PSoC4/UART_433_UART.c ****     *  (0x0A) in the transmit buffer.
 699:Generated_Source\PSoC4/UART_433_UART.c ****     *  This function is blocking and waits until there is a space available to put
 700:Generated_Source\PSoC4/UART_433_UART.c ****     *  all requested data in transmit buffer.
 701:Generated_Source\PSoC4/UART_433_UART.c ****     *
 702:Generated_Source\PSoC4/UART_433_UART.c ****     *  \param txDataByte: the data to be transmitted.
 703:Generated_Source\PSoC4/UART_433_UART.c ****     *
 704:Generated_Source\PSoC4/UART_433_UART.c ****     *******************************************************************************/
 705:Generated_Source\PSoC4/UART_433_UART.c ****     void UART_433_UartPutCRLF(uint32 txDataByte)
 706:Generated_Source\PSoC4/UART_433_UART.c ****     {
 523              		.loc 1 706 0
 524              		.cfi_startproc
 525              	.LVL34:
 526 0000 08B5     		push	{r3, lr}
 527              		.cfi_def_cfa_offset 8
 528              		.cfi_offset 3, -8
 529              		.cfi_offset 14, -4
 707:Generated_Source\PSoC4/UART_433_UART.c ****         UART_433_UartPutChar(txDataByte);  /* Blocks control flow until all data has been sent */
 530              		.loc 1 707 0
 531 0002 FFF7FEFF 		bl	UART_433_SpiUartWriteTxData
 532              	.LVL35:
 708:Generated_Source\PSoC4/UART_433_UART.c ****         UART_433_UartPutChar(0x0Du);       /* Blocks control flow until all data has been sent */
 533              		.loc 1 708 0
 534 0006 0D20     		mov	r0, #13
 535 0008 FFF7FEFF 		bl	UART_433_SpiUartWriteTxData
 536              	.LVL36:
 709:Generated_Source\PSoC4/UART_433_UART.c ****         UART_433_UartPutChar(0x0Au);       /* Blocks control flow until all data has been sent */
 537              		.loc 1 709 0
 538 000c 0A20     		mov	r0, #10
 539 000e FFF7FEFF 		bl	UART_433_SpiUartWriteTxData
 540              	.LVL37:
 710:Generated_Source\PSoC4/UART_433_UART.c ****     }
 541              		.loc 1 710 0
 542              		@ sp needed
 543 0012 08BD     		pop	{r3, pc}
 544              		.cfi_endproc
 545              	.LFE12:
 546              		.size	UART_433_UartPutCRLF, .-UART_433_UartPutCRLF
 547              		.section	.text.UART_433_UartEnableCts,"ax",%progbits
 548              		.align	1
 549              		.global	UART_433_UartEnableCts
 550              		.code	16
 551              		.thumb_func
 552              		.type	UART_433_UartEnableCts, %function
 553              	UART_433_UartEnableCts:
 554              	.LFB13:
 711:Generated_Source\PSoC4/UART_433_UART.c **** 
 712:Generated_Source\PSoC4/UART_433_UART.c **** 
 713:Generated_Source\PSoC4/UART_433_UART.c ****     #if !(UART_433_CY_SCBIP_V0 || UART_433_CY_SCBIP_V1)
 714:Generated_Source\PSoC4/UART_433_UART.c ****         /*******************************************************************************
 715:Generated_Source\PSoC4/UART_433_UART.c ****         * Function Name: UART_433SCB_UartEnableCts
ARM GAS  C:\Users\zhiantec\AppData\Local\Temp\ccy1RDEb.s 			page 24


 716:Generated_Source\PSoC4/UART_433_UART.c ****         ****************************************************************************//**
 717:Generated_Source\PSoC4/UART_433_UART.c ****         *
 718:Generated_Source\PSoC4/UART_433_UART.c ****         *  Enables usage of CTS input signal by the UART transmitter.
 719:Generated_Source\PSoC4/UART_433_UART.c ****         *  Only available for PSoC 4100 BLE / PSoC 4200 BLE / PSoC 4100M / PSoC 4200M /
 720:Generated_Source\PSoC4/UART_433_UART.c ****         *  PSoC 4200L / PSoC 4000S / PSoC 4100S / PSoC Analog Coprocessor devices.
 721:Generated_Source\PSoC4/UART_433_UART.c ****         *
 722:Generated_Source\PSoC4/UART_433_UART.c ****         *******************************************************************************/
 723:Generated_Source\PSoC4/UART_433_UART.c ****         void UART_433_UartEnableCts(void)
 724:Generated_Source\PSoC4/UART_433_UART.c ****         {
 555              		.loc 1 724 0
 556              		.cfi_startproc
 725:Generated_Source\PSoC4/UART_433_UART.c ****             UART_433_UART_FLOW_CTRL_REG |= (uint32)  UART_433_UART_FLOW_CTRL_CTS_ENABLE;
 557              		.loc 1 725 0
 558 0000 8021     		mov	r1, #128
 559 0002 034A     		ldr	r2, .L47
 560 0004 8904     		lsl	r1, r1, #18
 561 0006 1368     		ldr	r3, [r2]
 726:Generated_Source\PSoC4/UART_433_UART.c ****         }
 562              		.loc 1 726 0
 563              		@ sp needed
 725:Generated_Source\PSoC4/UART_433_UART.c ****             UART_433_UART_FLOW_CTRL_REG |= (uint32)  UART_433_UART_FLOW_CTRL_CTS_ENABLE;
 564              		.loc 1 725 0
 565 0008 0B43     		orr	r3, r1
 566 000a 1360     		str	r3, [r2]
 567              		.loc 1 726 0
 568 000c 7047     		bx	lr
 569              	.L48:
 570 000e C046     		.align	2
 571              	.L47:
 572 0010 50002440 		.word	1076101200
 573              		.cfi_endproc
 574              	.LFE13:
 575              		.size	UART_433_UartEnableCts, .-UART_433_UartEnableCts
 576              		.section	.text.UART_433_UartDisableCts,"ax",%progbits
 577              		.align	1
 578              		.global	UART_433_UartDisableCts
 579              		.code	16
 580              		.thumb_func
 581              		.type	UART_433_UartDisableCts, %function
 582              	UART_433_UartDisableCts:
 583              	.LFB14:
 727:Generated_Source\PSoC4/UART_433_UART.c **** 
 728:Generated_Source\PSoC4/UART_433_UART.c **** 
 729:Generated_Source\PSoC4/UART_433_UART.c ****         /*******************************************************************************
 730:Generated_Source\PSoC4/UART_433_UART.c ****         * Function Name: UART_433_UartDisableCts
 731:Generated_Source\PSoC4/UART_433_UART.c ****         ****************************************************************************//**
 732:Generated_Source\PSoC4/UART_433_UART.c ****         *
 733:Generated_Source\PSoC4/UART_433_UART.c ****         *  Disables usage of CTS input signal by the UART transmitter.
 734:Generated_Source\PSoC4/UART_433_UART.c ****         *  Only available for PSoC 4100 BLE / PSoC 4200 BLE / PSoC 4100M / PSoC 4200M /
 735:Generated_Source\PSoC4/UART_433_UART.c ****         *  PSoC 4200L / PSoC 4000S / PSoC 4100S / PSoC Analog Coprocessor devices.
 736:Generated_Source\PSoC4/UART_433_UART.c ****         *
 737:Generated_Source\PSoC4/UART_433_UART.c ****         *******************************************************************************/
 738:Generated_Source\PSoC4/UART_433_UART.c ****         void UART_433_UartDisableCts(void)
 739:Generated_Source\PSoC4/UART_433_UART.c ****         {
 584              		.loc 1 739 0
 585              		.cfi_startproc
 740:Generated_Source\PSoC4/UART_433_UART.c ****             UART_433_UART_FLOW_CTRL_REG &= (uint32) ~UART_433_UART_FLOW_CTRL_CTS_ENABLE;
ARM GAS  C:\Users\zhiantec\AppData\Local\Temp\ccy1RDEb.s 			page 25


 586              		.loc 1 740 0
 587 0000 024A     		ldr	r2, .L50
 588 0002 034B     		ldr	r3, .L50+4
 589 0004 1168     		ldr	r1, [r2]
 741:Generated_Source\PSoC4/UART_433_UART.c ****         }
 590              		.loc 1 741 0
 591              		@ sp needed
 740:Generated_Source\PSoC4/UART_433_UART.c ****             UART_433_UART_FLOW_CTRL_REG &= (uint32) ~UART_433_UART_FLOW_CTRL_CTS_ENABLE;
 592              		.loc 1 740 0
 593 0006 0B40     		and	r3, r1
 594 0008 1360     		str	r3, [r2]
 595              		.loc 1 741 0
 596 000a 7047     		bx	lr
 597              	.L51:
 598              		.align	2
 599              	.L50:
 600 000c 50002440 		.word	1076101200
 601 0010 FFFFFFFD 		.word	-33554433
 602              		.cfi_endproc
 603              	.LFE14:
 604              		.size	UART_433_UartDisableCts, .-UART_433_UartDisableCts
 605              		.section	.text.UART_433_UartSetCtsPolarity,"ax",%progbits
 606              		.align	1
 607              		.global	UART_433_UartSetCtsPolarity
 608              		.code	16
 609              		.thumb_func
 610              		.type	UART_433_UartSetCtsPolarity, %function
 611              	UART_433_UartSetCtsPolarity:
 612              	.LFB15:
 742:Generated_Source\PSoC4/UART_433_UART.c **** 
 743:Generated_Source\PSoC4/UART_433_UART.c **** 
 744:Generated_Source\PSoC4/UART_433_UART.c ****         /*******************************************************************************
 745:Generated_Source\PSoC4/UART_433_UART.c ****         * Function Name: UART_433_UartSetCtsPolarity
 746:Generated_Source\PSoC4/UART_433_UART.c ****         ****************************************************************************//**
 747:Generated_Source\PSoC4/UART_433_UART.c ****         *
 748:Generated_Source\PSoC4/UART_433_UART.c ****         *  Sets active polarity of CTS input signal.
 749:Generated_Source\PSoC4/UART_433_UART.c ****         *  Only available for PSoC 4100 BLE / PSoC 4200 BLE / PSoC 4100M / PSoC 4200M /
 750:Generated_Source\PSoC4/UART_433_UART.c ****         *  PSoC 4200L / PSoC 4000S / PSoC 4100S / PSoC Analog Coprocessor devices.
 751:Generated_Source\PSoC4/UART_433_UART.c ****         *
 752:Generated_Source\PSoC4/UART_433_UART.c ****         *  \param polarity: Active polarity of CTS output signal.
 753:Generated_Source\PSoC4/UART_433_UART.c ****         *   - UART_433_UART_CTS_ACTIVE_LOW  - CTS signal is active low.
 754:Generated_Source\PSoC4/UART_433_UART.c ****         *   - UART_433_UART_CTS_ACTIVE_HIGH - CTS signal is active high.
 755:Generated_Source\PSoC4/UART_433_UART.c ****         *
 756:Generated_Source\PSoC4/UART_433_UART.c ****         *******************************************************************************/
 757:Generated_Source\PSoC4/UART_433_UART.c ****         void UART_433_UartSetCtsPolarity(uint32 polarity)
 758:Generated_Source\PSoC4/UART_433_UART.c ****         {
 613              		.loc 1 758 0
 614              		.cfi_startproc
 615              	.LVL38:
 616 0000 064B     		ldr	r3, .L56
 759:Generated_Source\PSoC4/UART_433_UART.c ****             if (0u != polarity)
 617              		.loc 1 759 0
 618 0002 0028     		cmp	r0, #0
 619 0004 04D0     		beq	.L53
 760:Generated_Source\PSoC4/UART_433_UART.c ****             {
 761:Generated_Source\PSoC4/UART_433_UART.c ****                 UART_433_UART_FLOW_CTRL_REG |= (uint32)  UART_433_UART_FLOW_CTRL_CTS_POLARITY;
 620              		.loc 1 761 0
ARM GAS  C:\Users\zhiantec\AppData\Local\Temp\ccy1RDEb.s 			page 26


 621 0006 8021     		mov	r1, #128
 622 0008 1A68     		ldr	r2, [r3]
 623 000a 4904     		lsl	r1, r1, #17
 624 000c 0A43     		orr	r2, r1
 625 000e 02E0     		b	.L55
 626              	.L53:
 762:Generated_Source\PSoC4/UART_433_UART.c ****             }
 763:Generated_Source\PSoC4/UART_433_UART.c ****             else
 764:Generated_Source\PSoC4/UART_433_UART.c ****             {
 765:Generated_Source\PSoC4/UART_433_UART.c ****                 UART_433_UART_FLOW_CTRL_REG &= (uint32) ~UART_433_UART_FLOW_CTRL_CTS_POLARITY;
 627              		.loc 1 765 0
 628 0010 1968     		ldr	r1, [r3]
 629 0012 034A     		ldr	r2, .L56+4
 630 0014 0A40     		and	r2, r1
 631              	.L55:
 632 0016 1A60     		str	r2, [r3]
 766:Generated_Source\PSoC4/UART_433_UART.c ****             }
 767:Generated_Source\PSoC4/UART_433_UART.c ****         }
 633              		.loc 1 767 0
 634              		@ sp needed
 635 0018 7047     		bx	lr
 636              	.L57:
 637 001a C046     		.align	2
 638              	.L56:
 639 001c 50002440 		.word	1076101200
 640 0020 FFFFFFFE 		.word	-16777217
 641              		.cfi_endproc
 642              	.LFE15:
 643              		.size	UART_433_UartSetCtsPolarity, .-UART_433_UartSetCtsPolarity
 644              		.text
 645              	.Letext0:
 646              		.file 2 "Generated_Source\\PSoC4/cytypes.h"
 647              		.file 3 "Generated_Source\\PSoC4\\UART_433_SPI_UART.h"
 648              		.file 4 "Generated_Source\\PSoC4\\UART_433_PVT.h"