ARM GAS  C:\Users\zhiantec\AppData\Local\Temp\ccwJcpWN.s 			page 1


   1              		.cpu cortex-m0
   2              		.fpu softvfp
   3              		.eabi_attribute 20, 1
   4              		.eabi_attribute 21, 1
   5              		.eabi_attribute 23, 3
   6              		.eabi_attribute 24, 1
   7              		.eabi_attribute 25, 1
   8              		.eabi_attribute 26, 1
   9              		.eabi_attribute 30, 4
  10              		.eabi_attribute 34, 0
  11              		.eabi_attribute 18, 4
  12              		.code	16
  13              		.file	"UART_433.c"
  14              		.text
  15              	.Ltext0:
  16              		.cfi_sections	.debug_frame
  17              		.section	.text.UART_433_Init,"ax",%progbits
  18              		.align	1
  19              		.global	UART_433_Init
  20              		.code	16
  21              		.thumb_func
  22              		.type	UART_433_Init, %function
  23              	UART_433_Init:
  24              	.LFB2:
  25              		.file 1 "Generated_Source\\PSoC4\\UART_433.c"
   1:Generated_Source\PSoC4/UART_433.c **** /***************************************************************************//**
   2:Generated_Source\PSoC4/UART_433.c **** * \file UART_433.c
   3:Generated_Source\PSoC4/UART_433.c **** * \version 3.20
   4:Generated_Source\PSoC4/UART_433.c **** *
   5:Generated_Source\PSoC4/UART_433.c **** * \brief
   6:Generated_Source\PSoC4/UART_433.c **** *  This file provides the source code to the API for the SCB Component.
   7:Generated_Source\PSoC4/UART_433.c **** *
   8:Generated_Source\PSoC4/UART_433.c **** * Note:
   9:Generated_Source\PSoC4/UART_433.c **** *
  10:Generated_Source\PSoC4/UART_433.c **** *******************************************************************************
  11:Generated_Source\PSoC4/UART_433.c **** * \copyright
  12:Generated_Source\PSoC4/UART_433.c **** * Copyright 2013-2016, Cypress Semiconductor Corporation.  All rights reserved.
  13:Generated_Source\PSoC4/UART_433.c **** * You may use this file only in accordance with the license, terms, conditions,
  14:Generated_Source\PSoC4/UART_433.c **** * disclaimers, and limitations in the end user license agreement accompanying
  15:Generated_Source\PSoC4/UART_433.c **** * the software package with which this file was provided.
  16:Generated_Source\PSoC4/UART_433.c **** *******************************************************************************/
  17:Generated_Source\PSoC4/UART_433.c **** 
  18:Generated_Source\PSoC4/UART_433.c **** #include "UART_433_PVT.h"
  19:Generated_Source\PSoC4/UART_433.c **** 
  20:Generated_Source\PSoC4/UART_433.c **** #if (UART_433_SCB_MODE_I2C_INC)
  21:Generated_Source\PSoC4/UART_433.c ****     #include "UART_433_I2C_PVT.h"
  22:Generated_Source\PSoC4/UART_433.c **** #endif /* (UART_433_SCB_MODE_I2C_INC) */
  23:Generated_Source\PSoC4/UART_433.c **** 
  24:Generated_Source\PSoC4/UART_433.c **** #if (UART_433_SCB_MODE_EZI2C_INC)
  25:Generated_Source\PSoC4/UART_433.c ****     #include "UART_433_EZI2C_PVT.h"
  26:Generated_Source\PSoC4/UART_433.c **** #endif /* (UART_433_SCB_MODE_EZI2C_INC) */
  27:Generated_Source\PSoC4/UART_433.c **** 
  28:Generated_Source\PSoC4/UART_433.c **** #if (UART_433_SCB_MODE_SPI_INC || UART_433_SCB_MODE_UART_INC)
  29:Generated_Source\PSoC4/UART_433.c ****     #include "UART_433_SPI_UART_PVT.h"
  30:Generated_Source\PSoC4/UART_433.c **** #endif /* (UART_433_SCB_MODE_SPI_INC || UART_433_SCB_MODE_UART_INC) */
  31:Generated_Source\PSoC4/UART_433.c **** 
  32:Generated_Source\PSoC4/UART_433.c **** 
ARM GAS  C:\Users\zhiantec\AppData\Local\Temp\ccwJcpWN.s 			page 2


  33:Generated_Source\PSoC4/UART_433.c **** /***************************************
  34:Generated_Source\PSoC4/UART_433.c **** *    Run Time Configuration Vars
  35:Generated_Source\PSoC4/UART_433.c **** ***************************************/
  36:Generated_Source\PSoC4/UART_433.c **** 
  37:Generated_Source\PSoC4/UART_433.c **** /* Stores internal component configuration for Unconfigured mode */
  38:Generated_Source\PSoC4/UART_433.c **** #if (UART_433_SCB_MODE_UNCONFIG_CONST_CFG)
  39:Generated_Source\PSoC4/UART_433.c ****     /* Common configuration variables */
  40:Generated_Source\PSoC4/UART_433.c ****     uint8 UART_433_scbMode = UART_433_SCB_MODE_UNCONFIG;
  41:Generated_Source\PSoC4/UART_433.c ****     uint8 UART_433_scbEnableWake;
  42:Generated_Source\PSoC4/UART_433.c ****     uint8 UART_433_scbEnableIntr;
  43:Generated_Source\PSoC4/UART_433.c **** 
  44:Generated_Source\PSoC4/UART_433.c ****     /* I2C configuration variables */
  45:Generated_Source\PSoC4/UART_433.c ****     uint8 UART_433_mode;
  46:Generated_Source\PSoC4/UART_433.c ****     uint8 UART_433_acceptAddr;
  47:Generated_Source\PSoC4/UART_433.c **** 
  48:Generated_Source\PSoC4/UART_433.c ****     /* SPI/UART configuration variables */
  49:Generated_Source\PSoC4/UART_433.c ****     volatile uint8 * UART_433_rxBuffer;
  50:Generated_Source\PSoC4/UART_433.c ****     uint8  UART_433_rxDataBits;
  51:Generated_Source\PSoC4/UART_433.c ****     uint32 UART_433_rxBufferSize;
  52:Generated_Source\PSoC4/UART_433.c **** 
  53:Generated_Source\PSoC4/UART_433.c ****     volatile uint8 * UART_433_txBuffer;
  54:Generated_Source\PSoC4/UART_433.c ****     uint8  UART_433_txDataBits;
  55:Generated_Source\PSoC4/UART_433.c ****     uint32 UART_433_txBufferSize;
  56:Generated_Source\PSoC4/UART_433.c **** 
  57:Generated_Source\PSoC4/UART_433.c ****     /* EZI2C configuration variables */
  58:Generated_Source\PSoC4/UART_433.c ****     uint8 UART_433_numberOfAddr;
  59:Generated_Source\PSoC4/UART_433.c ****     uint8 UART_433_subAddrSize;
  60:Generated_Source\PSoC4/UART_433.c **** #endif /* (UART_433_SCB_MODE_UNCONFIG_CONST_CFG) */
  61:Generated_Source\PSoC4/UART_433.c **** 
  62:Generated_Source\PSoC4/UART_433.c **** 
  63:Generated_Source\PSoC4/UART_433.c **** /***************************************
  64:Generated_Source\PSoC4/UART_433.c **** *     Common SCB Vars
  65:Generated_Source\PSoC4/UART_433.c **** ***************************************/
  66:Generated_Source\PSoC4/UART_433.c **** /**
  67:Generated_Source\PSoC4/UART_433.c **** * \addtogroup group_general
  68:Generated_Source\PSoC4/UART_433.c **** * \{
  69:Generated_Source\PSoC4/UART_433.c **** */
  70:Generated_Source\PSoC4/UART_433.c **** 
  71:Generated_Source\PSoC4/UART_433.c **** /** UART_433_initVar indicates whether the UART_433 
  72:Generated_Source\PSoC4/UART_433.c **** *  component has been initialized. The variable is initialized to 0 
  73:Generated_Source\PSoC4/UART_433.c **** *  and set to 1 the first time SCB_Start() is called. This allows 
  74:Generated_Source\PSoC4/UART_433.c **** *  the component to restart without reinitialization after the first 
  75:Generated_Source\PSoC4/UART_433.c **** *  call to the UART_433_Start() routine.
  76:Generated_Source\PSoC4/UART_433.c **** *
  77:Generated_Source\PSoC4/UART_433.c **** *  If re-initialization of the component is required, then the 
  78:Generated_Source\PSoC4/UART_433.c **** *  UART_433_Init() function can be called before the 
  79:Generated_Source\PSoC4/UART_433.c **** *  UART_433_Start() or UART_433_Enable() function.
  80:Generated_Source\PSoC4/UART_433.c **** */
  81:Generated_Source\PSoC4/UART_433.c **** uint8 UART_433_initVar = 0u;
  82:Generated_Source\PSoC4/UART_433.c **** 
  83:Generated_Source\PSoC4/UART_433.c **** 
  84:Generated_Source\PSoC4/UART_433.c **** #if (! (UART_433_SCB_MODE_I2C_CONST_CFG || \
  85:Generated_Source\PSoC4/UART_433.c ****         UART_433_SCB_MODE_EZI2C_CONST_CFG))
  86:Generated_Source\PSoC4/UART_433.c ****     /** This global variable stores TX interrupt sources after 
  87:Generated_Source\PSoC4/UART_433.c ****     * UART_433_Stop() is called. Only these TX interrupt sources 
  88:Generated_Source\PSoC4/UART_433.c ****     * will be restored on a subsequent UART_433_Enable() call.
  89:Generated_Source\PSoC4/UART_433.c ****     */
ARM GAS  C:\Users\zhiantec\AppData\Local\Temp\ccwJcpWN.s 			page 3


  90:Generated_Source\PSoC4/UART_433.c ****     uint16 UART_433_IntrTxMask = 0u;
  91:Generated_Source\PSoC4/UART_433.c **** #endif /* (! (UART_433_SCB_MODE_I2C_CONST_CFG || \
  92:Generated_Source\PSoC4/UART_433.c ****               UART_433_SCB_MODE_EZI2C_CONST_CFG)) */
  93:Generated_Source\PSoC4/UART_433.c **** /** \} globals */
  94:Generated_Source\PSoC4/UART_433.c **** 
  95:Generated_Source\PSoC4/UART_433.c **** #if (UART_433_SCB_IRQ_INTERNAL)
  96:Generated_Source\PSoC4/UART_433.c **** #if !defined (CY_REMOVE_UART_433_CUSTOM_INTR_HANDLER)
  97:Generated_Source\PSoC4/UART_433.c ****     void (*UART_433_customIntrHandler)(void) = NULL;
  98:Generated_Source\PSoC4/UART_433.c **** #endif /* !defined (CY_REMOVE_UART_433_CUSTOM_INTR_HANDLER) */
  99:Generated_Source\PSoC4/UART_433.c **** #endif /* (UART_433_SCB_IRQ_INTERNAL) */
 100:Generated_Source\PSoC4/UART_433.c **** 
 101:Generated_Source\PSoC4/UART_433.c **** 
 102:Generated_Source\PSoC4/UART_433.c **** /***************************************
 103:Generated_Source\PSoC4/UART_433.c **** *    Private Function Prototypes
 104:Generated_Source\PSoC4/UART_433.c **** ***************************************/
 105:Generated_Source\PSoC4/UART_433.c **** 
 106:Generated_Source\PSoC4/UART_433.c **** static void UART_433_ScbEnableIntr(void);
 107:Generated_Source\PSoC4/UART_433.c **** static void UART_433_ScbModeStop(void);
 108:Generated_Source\PSoC4/UART_433.c **** static void UART_433_ScbModePostEnable(void);
 109:Generated_Source\PSoC4/UART_433.c **** 
 110:Generated_Source\PSoC4/UART_433.c **** 
 111:Generated_Source\PSoC4/UART_433.c **** /*******************************************************************************
 112:Generated_Source\PSoC4/UART_433.c **** * Function Name: UART_433_Init
 113:Generated_Source\PSoC4/UART_433.c **** ****************************************************************************//**
 114:Generated_Source\PSoC4/UART_433.c **** *
 115:Generated_Source\PSoC4/UART_433.c **** *  Initializes the UART_433 component to operate in one of the selected
 116:Generated_Source\PSoC4/UART_433.c **** *  configurations: I2C, SPI, UART or EZI2C.
 117:Generated_Source\PSoC4/UART_433.c **** *  When the configuration is set to "Unconfigured SCB", this function does
 118:Generated_Source\PSoC4/UART_433.c **** *  not do any initialization. Use mode-specific initialization APIs instead:
 119:Generated_Source\PSoC4/UART_433.c **** *  UART_433_I2CInit, UART_433_SpiInit, 
 120:Generated_Source\PSoC4/UART_433.c **** *  UART_433_UartInit or UART_433_EzI2CInit.
 121:Generated_Source\PSoC4/UART_433.c **** *
 122:Generated_Source\PSoC4/UART_433.c **** *******************************************************************************/
 123:Generated_Source\PSoC4/UART_433.c **** void UART_433_Init(void)
 124:Generated_Source\PSoC4/UART_433.c **** {
  26              		.loc 1 124 0
  27              		.cfi_startproc
  28 0000 08B5     		push	{r3, lr}
  29              		.cfi_def_cfa_offset 8
  30              		.cfi_offset 3, -8
  31              		.cfi_offset 14, -4
 125:Generated_Source\PSoC4/UART_433.c **** #if (UART_433_SCB_MODE_UNCONFIG_CONST_CFG)
 126:Generated_Source\PSoC4/UART_433.c ****     if (UART_433_SCB_MODE_UNCONFIG_RUNTM_CFG)
 127:Generated_Source\PSoC4/UART_433.c ****     {
 128:Generated_Source\PSoC4/UART_433.c ****         UART_433_initVar = 0u;
 129:Generated_Source\PSoC4/UART_433.c ****     }
 130:Generated_Source\PSoC4/UART_433.c ****     else
 131:Generated_Source\PSoC4/UART_433.c ****     {
 132:Generated_Source\PSoC4/UART_433.c ****         /* Initialization was done before this function call */
 133:Generated_Source\PSoC4/UART_433.c ****     }
 134:Generated_Source\PSoC4/UART_433.c **** 
 135:Generated_Source\PSoC4/UART_433.c **** #elif (UART_433_SCB_MODE_I2C_CONST_CFG)
 136:Generated_Source\PSoC4/UART_433.c ****     UART_433_I2CInit();
 137:Generated_Source\PSoC4/UART_433.c **** 
 138:Generated_Source\PSoC4/UART_433.c **** #elif (UART_433_SCB_MODE_SPI_CONST_CFG)
 139:Generated_Source\PSoC4/UART_433.c ****     UART_433_SpiInit();
 140:Generated_Source\PSoC4/UART_433.c **** 
ARM GAS  C:\Users\zhiantec\AppData\Local\Temp\ccwJcpWN.s 			page 4


 141:Generated_Source\PSoC4/UART_433.c **** #elif (UART_433_SCB_MODE_UART_CONST_CFG)
 142:Generated_Source\PSoC4/UART_433.c ****     UART_433_UartInit();
  32              		.loc 1 142 0
  33 0002 FFF7FEFF 		bl	UART_433_UartInit
  34              	.LVL0:
 143:Generated_Source\PSoC4/UART_433.c **** 
 144:Generated_Source\PSoC4/UART_433.c **** #elif (UART_433_SCB_MODE_EZI2C_CONST_CFG)
 145:Generated_Source\PSoC4/UART_433.c ****     UART_433_EzI2CInit();
 146:Generated_Source\PSoC4/UART_433.c **** 
 147:Generated_Source\PSoC4/UART_433.c **** #endif /* (UART_433_SCB_MODE_UNCONFIG_CONST_CFG) */
 148:Generated_Source\PSoC4/UART_433.c **** }
  35              		.loc 1 148 0
  36              		@ sp needed
  37 0006 08BD     		pop	{r3, pc}
  38              		.cfi_endproc
  39              	.LFE2:
  40              		.size	UART_433_Init, .-UART_433_Init
  41              		.section	.text.UART_433_Enable,"ax",%progbits
  42              		.align	1
  43              		.global	UART_433_Enable
  44              		.code	16
  45              		.thumb_func
  46              		.type	UART_433_Enable, %function
  47              	UART_433_Enable:
  48              	.LFB3:
 149:Generated_Source\PSoC4/UART_433.c **** 
 150:Generated_Source\PSoC4/UART_433.c **** 
 151:Generated_Source\PSoC4/UART_433.c **** /*******************************************************************************
 152:Generated_Source\PSoC4/UART_433.c **** * Function Name: UART_433_Enable
 153:Generated_Source\PSoC4/UART_433.c **** ****************************************************************************//**
 154:Generated_Source\PSoC4/UART_433.c **** *
 155:Generated_Source\PSoC4/UART_433.c **** *  Enables UART_433 component operation: activates the hardware and 
 156:Generated_Source\PSoC4/UART_433.c **** *  internal interrupt. It also restores TX interrupt sources disabled after the 
 157:Generated_Source\PSoC4/UART_433.c **** *  UART_433_Stop() function was called (note that level-triggered TX 
 158:Generated_Source\PSoC4/UART_433.c **** *  interrupt sources remain disabled to not cause code lock-up).
 159:Generated_Source\PSoC4/UART_433.c **** *  For I2C and EZI2C modes the interrupt is internal and mandatory for 
 160:Generated_Source\PSoC4/UART_433.c **** *  operation. For SPI and UART modes the interrupt can be configured as none, 
 161:Generated_Source\PSoC4/UART_433.c **** *  internal or external.
 162:Generated_Source\PSoC4/UART_433.c **** *  The UART_433 configuration should be not changed when the component
 163:Generated_Source\PSoC4/UART_433.c **** *  is enabled. Any configuration changes should be made after disabling the 
 164:Generated_Source\PSoC4/UART_433.c **** *  component.
 165:Generated_Source\PSoC4/UART_433.c **** *  When configuration is set to ¡°Unconfigured UART_433¡±, the component 
 166:Generated_Source\PSoC4/UART_433.c **** *  must first be initialized to operate in one of the following configurations: 
 167:Generated_Source\PSoC4/UART_433.c **** *  I2C, SPI, UART or EZ I2C, using the mode-specific initialization API. 
 168:Generated_Source\PSoC4/UART_433.c **** *  Otherwise this function does not enable the component.
 169:Generated_Source\PSoC4/UART_433.c **** *
 170:Generated_Source\PSoC4/UART_433.c **** *******************************************************************************/
 171:Generated_Source\PSoC4/UART_433.c **** void UART_433_Enable(void)
 172:Generated_Source\PSoC4/UART_433.c **** {
  49              		.loc 1 172 0
  50              		.cfi_startproc
 173:Generated_Source\PSoC4/UART_433.c **** #if (UART_433_SCB_MODE_UNCONFIG_CONST_CFG)
 174:Generated_Source\PSoC4/UART_433.c ****     /* Enable SCB block, only if it is already configured */
 175:Generated_Source\PSoC4/UART_433.c ****     if (!UART_433_SCB_MODE_UNCONFIG_RUNTM_CFG)
 176:Generated_Source\PSoC4/UART_433.c ****     {
 177:Generated_Source\PSoC4/UART_433.c ****         UART_433_CTRL_REG |= UART_433_CTRL_ENABLED;
 178:Generated_Source\PSoC4/UART_433.c **** 
ARM GAS  C:\Users\zhiantec\AppData\Local\Temp\ccwJcpWN.s 			page 5


 179:Generated_Source\PSoC4/UART_433.c ****         UART_433_ScbEnableIntr();
 180:Generated_Source\PSoC4/UART_433.c **** 
 181:Generated_Source\PSoC4/UART_433.c ****         /* Call PostEnable function specific to current operation mode */
 182:Generated_Source\PSoC4/UART_433.c ****         UART_433_ScbModePostEnable();
 183:Generated_Source\PSoC4/UART_433.c ****     }
 184:Generated_Source\PSoC4/UART_433.c **** #else
 185:Generated_Source\PSoC4/UART_433.c ****     UART_433_CTRL_REG |= UART_433_CTRL_ENABLED;
  51              		.loc 1 185 0
  52 0000 8021     		mov	r1, #128
  53 0002 044A     		ldr	r2, .L3
 172:Generated_Source\PSoC4/UART_433.c **** #if (UART_433_SCB_MODE_UNCONFIG_CONST_CFG)
  54              		.loc 1 172 0
  55 0004 08B5     		push	{r3, lr}
  56              		.cfi_def_cfa_offset 8
  57              		.cfi_offset 3, -8
  58              		.cfi_offset 14, -4
  59              		.loc 1 185 0
  60 0006 1368     		ldr	r3, [r2]
  61 0008 0906     		lsl	r1, r1, #24
  62 000a 0B43     		orr	r3, r1
  63 000c 1360     		str	r3, [r2]
  64              	.LBB10:
  65              	.LBB11:
 186:Generated_Source\PSoC4/UART_433.c **** 
 187:Generated_Source\PSoC4/UART_433.c ****     UART_433_ScbEnableIntr();
 188:Generated_Source\PSoC4/UART_433.c **** 
 189:Generated_Source\PSoC4/UART_433.c ****     /* Call PostEnable function specific to current operation mode */
 190:Generated_Source\PSoC4/UART_433.c ****     UART_433_ScbModePostEnable();
 191:Generated_Source\PSoC4/UART_433.c **** #endif /* (UART_433_SCB_MODE_UNCONFIG_CONST_CFG) */
 192:Generated_Source\PSoC4/UART_433.c **** }
 193:Generated_Source\PSoC4/UART_433.c **** 
 194:Generated_Source\PSoC4/UART_433.c **** 
 195:Generated_Source\PSoC4/UART_433.c **** /*******************************************************************************
 196:Generated_Source\PSoC4/UART_433.c **** * Function Name: UART_433_Start
 197:Generated_Source\PSoC4/UART_433.c **** ****************************************************************************//**
 198:Generated_Source\PSoC4/UART_433.c **** *
 199:Generated_Source\PSoC4/UART_433.c **** *  Invokes UART_433_Init() and UART_433_Enable().
 200:Generated_Source\PSoC4/UART_433.c **** *  After this function call, the component is enabled and ready for operation.
 201:Generated_Source\PSoC4/UART_433.c **** *  When configuration is set to "Unconfigured SCB", the component must first be
 202:Generated_Source\PSoC4/UART_433.c **** *  initialized to operate in one of the following configurations: I2C, SPI, UART
 203:Generated_Source\PSoC4/UART_433.c **** *  or EZI2C. Otherwise this function does not enable the component.
 204:Generated_Source\PSoC4/UART_433.c **** *
 205:Generated_Source\PSoC4/UART_433.c **** * \globalvars
 206:Generated_Source\PSoC4/UART_433.c **** *  UART_433_initVar - used to check initial configuration, modified
 207:Generated_Source\PSoC4/UART_433.c **** *  on first function call.
 208:Generated_Source\PSoC4/UART_433.c **** *
 209:Generated_Source\PSoC4/UART_433.c **** *******************************************************************************/
 210:Generated_Source\PSoC4/UART_433.c **** void UART_433_Start(void)
 211:Generated_Source\PSoC4/UART_433.c **** {
 212:Generated_Source\PSoC4/UART_433.c ****     if (0u == UART_433_initVar)
 213:Generated_Source\PSoC4/UART_433.c ****     {
 214:Generated_Source\PSoC4/UART_433.c ****         UART_433_Init();
 215:Generated_Source\PSoC4/UART_433.c ****         UART_433_initVar = 1u; /* Component was initialized */
 216:Generated_Source\PSoC4/UART_433.c ****     }
 217:Generated_Source\PSoC4/UART_433.c **** 
 218:Generated_Source\PSoC4/UART_433.c ****     UART_433_Enable();
 219:Generated_Source\PSoC4/UART_433.c **** }
ARM GAS  C:\Users\zhiantec\AppData\Local\Temp\ccwJcpWN.s 			page 6


 220:Generated_Source\PSoC4/UART_433.c **** 
 221:Generated_Source\PSoC4/UART_433.c **** 
 222:Generated_Source\PSoC4/UART_433.c **** /*******************************************************************************
 223:Generated_Source\PSoC4/UART_433.c **** * Function Name: UART_433_Stop
 224:Generated_Source\PSoC4/UART_433.c **** ****************************************************************************//**
 225:Generated_Source\PSoC4/UART_433.c **** *
 226:Generated_Source\PSoC4/UART_433.c **** *  Disables the UART_433 component: disable the hardware and internal 
 227:Generated_Source\PSoC4/UART_433.c **** *  interrupt. It also disables all TX interrupt sources so as not to cause an 
 228:Generated_Source\PSoC4/UART_433.c **** *  unexpected interrupt trigger because after the component is enabled, the 
 229:Generated_Source\PSoC4/UART_433.c **** *  TX FIFO is empty.
 230:Generated_Source\PSoC4/UART_433.c **** *  Refer to the function UART_433_Enable() for the interrupt 
 231:Generated_Source\PSoC4/UART_433.c **** *  configuration details.
 232:Generated_Source\PSoC4/UART_433.c **** *  This function disables the SCB component without checking to see if 
 233:Generated_Source\PSoC4/UART_433.c **** *  communication is in progress. Before calling this function it may be 
 234:Generated_Source\PSoC4/UART_433.c **** *  necessary to check the status of communication to make sure communication 
 235:Generated_Source\PSoC4/UART_433.c **** *  is complete. If this is not done then communication could be stopped mid 
 236:Generated_Source\PSoC4/UART_433.c **** *  byte and corrupted data could result.
 237:Generated_Source\PSoC4/UART_433.c **** *
 238:Generated_Source\PSoC4/UART_433.c **** *******************************************************************************/
 239:Generated_Source\PSoC4/UART_433.c **** void UART_433_Stop(void)
 240:Generated_Source\PSoC4/UART_433.c **** {
 241:Generated_Source\PSoC4/UART_433.c **** #if (UART_433_SCB_IRQ_INTERNAL)
 242:Generated_Source\PSoC4/UART_433.c ****     UART_433_DisableInt();
 243:Generated_Source\PSoC4/UART_433.c **** #endif /* (UART_433_SCB_IRQ_INTERNAL) */
 244:Generated_Source\PSoC4/UART_433.c **** 
 245:Generated_Source\PSoC4/UART_433.c ****     /* Call Stop function specific to current operation mode */
 246:Generated_Source\PSoC4/UART_433.c ****     UART_433_ScbModeStop();
 247:Generated_Source\PSoC4/UART_433.c **** 
 248:Generated_Source\PSoC4/UART_433.c ****     /* Disable SCB IP */
 249:Generated_Source\PSoC4/UART_433.c ****     UART_433_CTRL_REG &= (uint32) ~UART_433_CTRL_ENABLED;
 250:Generated_Source\PSoC4/UART_433.c **** 
 251:Generated_Source\PSoC4/UART_433.c ****     /* Disable all TX interrupt sources so as not to cause an unexpected
 252:Generated_Source\PSoC4/UART_433.c ****     * interrupt trigger after the component will be enabled because the 
 253:Generated_Source\PSoC4/UART_433.c ****     * TX FIFO is empty.
 254:Generated_Source\PSoC4/UART_433.c ****     * For SCB IP v0, it is critical as it does not mask-out interrupt
 255:Generated_Source\PSoC4/UART_433.c ****     * sources when it is disabled. This can cause a code lock-up in the
 256:Generated_Source\PSoC4/UART_433.c ****     * interrupt handler because TX FIFO cannot be loaded after the block
 257:Generated_Source\PSoC4/UART_433.c ****     * is disabled.
 258:Generated_Source\PSoC4/UART_433.c ****     */
 259:Generated_Source\PSoC4/UART_433.c ****     UART_433_SetTxInterruptMode(UART_433_NO_INTR_SOURCES);
 260:Generated_Source\PSoC4/UART_433.c **** 
 261:Generated_Source\PSoC4/UART_433.c **** #if (UART_433_SCB_IRQ_INTERNAL)
 262:Generated_Source\PSoC4/UART_433.c ****     UART_433_ClearPendingInt();
 263:Generated_Source\PSoC4/UART_433.c **** #endif /* (UART_433_SCB_IRQ_INTERNAL) */
 264:Generated_Source\PSoC4/UART_433.c **** }
 265:Generated_Source\PSoC4/UART_433.c **** 
 266:Generated_Source\PSoC4/UART_433.c **** 
 267:Generated_Source\PSoC4/UART_433.c **** /*******************************************************************************
 268:Generated_Source\PSoC4/UART_433.c **** * Function Name: UART_433_SetRxFifoLevel
 269:Generated_Source\PSoC4/UART_433.c **** ****************************************************************************//**
 270:Generated_Source\PSoC4/UART_433.c **** *
 271:Generated_Source\PSoC4/UART_433.c **** *  Sets level in the RX FIFO to generate a RX level interrupt.
 272:Generated_Source\PSoC4/UART_433.c **** *  When the RX FIFO has more entries than the RX FIFO level an RX level
 273:Generated_Source\PSoC4/UART_433.c **** *  interrupt request is generated.
 274:Generated_Source\PSoC4/UART_433.c **** *
 275:Generated_Source\PSoC4/UART_433.c **** *  \param level: Level in the RX FIFO to generate RX level interrupt.
 276:Generated_Source\PSoC4/UART_433.c **** *   The range of valid level values is between 0 and RX FIFO depth - 1.
ARM GAS  C:\Users\zhiantec\AppData\Local\Temp\ccwJcpWN.s 			page 7


 277:Generated_Source\PSoC4/UART_433.c **** *
 278:Generated_Source\PSoC4/UART_433.c **** *******************************************************************************/
 279:Generated_Source\PSoC4/UART_433.c **** void UART_433_SetRxFifoLevel(uint32 level)
 280:Generated_Source\PSoC4/UART_433.c **** {
 281:Generated_Source\PSoC4/UART_433.c ****     uint32 rxFifoCtrl;
 282:Generated_Source\PSoC4/UART_433.c **** 
 283:Generated_Source\PSoC4/UART_433.c ****     rxFifoCtrl = UART_433_RX_FIFO_CTRL_REG;
 284:Generated_Source\PSoC4/UART_433.c **** 
 285:Generated_Source\PSoC4/UART_433.c ****     rxFifoCtrl &= ((uint32) ~UART_433_RX_FIFO_CTRL_TRIGGER_LEVEL_MASK); /* Clear level mask bits */
 286:Generated_Source\PSoC4/UART_433.c ****     rxFifoCtrl |= ((uint32) (UART_433_RX_FIFO_CTRL_TRIGGER_LEVEL_MASK & level));
 287:Generated_Source\PSoC4/UART_433.c **** 
 288:Generated_Source\PSoC4/UART_433.c ****     UART_433_RX_FIFO_CTRL_REG = rxFifoCtrl;
 289:Generated_Source\PSoC4/UART_433.c **** }
 290:Generated_Source\PSoC4/UART_433.c **** 
 291:Generated_Source\PSoC4/UART_433.c **** 
 292:Generated_Source\PSoC4/UART_433.c **** /*******************************************************************************
 293:Generated_Source\PSoC4/UART_433.c **** * Function Name: UART_433_SetTxFifoLevel
 294:Generated_Source\PSoC4/UART_433.c **** ****************************************************************************//**
 295:Generated_Source\PSoC4/UART_433.c **** *
 296:Generated_Source\PSoC4/UART_433.c **** *  Sets level in the TX FIFO to generate a TX level interrupt.
 297:Generated_Source\PSoC4/UART_433.c **** *  When the TX FIFO has less entries than the TX FIFO level an TX level
 298:Generated_Source\PSoC4/UART_433.c **** *  interrupt request is generated.
 299:Generated_Source\PSoC4/UART_433.c **** *
 300:Generated_Source\PSoC4/UART_433.c **** *  \param level: Level in the TX FIFO to generate TX level interrupt.
 301:Generated_Source\PSoC4/UART_433.c **** *   The range of valid level values is between 0 and TX FIFO depth - 1.
 302:Generated_Source\PSoC4/UART_433.c **** *
 303:Generated_Source\PSoC4/UART_433.c **** *******************************************************************************/
 304:Generated_Source\PSoC4/UART_433.c **** void UART_433_SetTxFifoLevel(uint32 level)
 305:Generated_Source\PSoC4/UART_433.c **** {
 306:Generated_Source\PSoC4/UART_433.c ****     uint32 txFifoCtrl;
 307:Generated_Source\PSoC4/UART_433.c **** 
 308:Generated_Source\PSoC4/UART_433.c ****     txFifoCtrl = UART_433_TX_FIFO_CTRL_REG;
 309:Generated_Source\PSoC4/UART_433.c **** 
 310:Generated_Source\PSoC4/UART_433.c ****     txFifoCtrl &= ((uint32) ~UART_433_TX_FIFO_CTRL_TRIGGER_LEVEL_MASK); /* Clear level mask bits */
 311:Generated_Source\PSoC4/UART_433.c ****     txFifoCtrl |= ((uint32) (UART_433_TX_FIFO_CTRL_TRIGGER_LEVEL_MASK & level));
 312:Generated_Source\PSoC4/UART_433.c **** 
 313:Generated_Source\PSoC4/UART_433.c ****     UART_433_TX_FIFO_CTRL_REG = txFifoCtrl;
 314:Generated_Source\PSoC4/UART_433.c **** }
 315:Generated_Source\PSoC4/UART_433.c **** 
 316:Generated_Source\PSoC4/UART_433.c **** 
 317:Generated_Source\PSoC4/UART_433.c **** #if (UART_433_SCB_IRQ_INTERNAL)
 318:Generated_Source\PSoC4/UART_433.c ****     /*******************************************************************************
 319:Generated_Source\PSoC4/UART_433.c ****     * Function Name: UART_433_SetCustomInterruptHandler
 320:Generated_Source\PSoC4/UART_433.c ****     ****************************************************************************//**
 321:Generated_Source\PSoC4/UART_433.c ****     *
 322:Generated_Source\PSoC4/UART_433.c ****     *  Registers a function to be called by the internal interrupt handler.
 323:Generated_Source\PSoC4/UART_433.c ****     *  First the function that is registered is called, then the internal interrupt
 324:Generated_Source\PSoC4/UART_433.c ****     *  handler performs any operation such as software buffer management functions
 325:Generated_Source\PSoC4/UART_433.c ****     *  before the interrupt returns.  It is the user's responsibility not to break
 326:Generated_Source\PSoC4/UART_433.c ****     *  the software buffer operations. Only one custom handler is supported, which
 327:Generated_Source\PSoC4/UART_433.c ****     *  is the function provided by the most recent call.
 328:Generated_Source\PSoC4/UART_433.c ****     *  At the initialization time no custom handler is registered.
 329:Generated_Source\PSoC4/UART_433.c ****     *
 330:Generated_Source\PSoC4/UART_433.c ****     *  \param func: Pointer to the function to register.
 331:Generated_Source\PSoC4/UART_433.c ****     *        The value NULL indicates to remove the current custom interrupt
 332:Generated_Source\PSoC4/UART_433.c ****     *        handler.
 333:Generated_Source\PSoC4/UART_433.c ****     *
ARM GAS  C:\Users\zhiantec\AppData\Local\Temp\ccwJcpWN.s 			page 8


 334:Generated_Source\PSoC4/UART_433.c ****     *******************************************************************************/
 335:Generated_Source\PSoC4/UART_433.c ****     void UART_433_SetCustomInterruptHandler(void (*func)(void))
 336:Generated_Source\PSoC4/UART_433.c ****     {
 337:Generated_Source\PSoC4/UART_433.c ****     #if !defined (CY_REMOVE_UART_433_CUSTOM_INTR_HANDLER)
 338:Generated_Source\PSoC4/UART_433.c ****         UART_433_customIntrHandler = func; /* Register interrupt handler */
 339:Generated_Source\PSoC4/UART_433.c ****     #else
 340:Generated_Source\PSoC4/UART_433.c ****         if (NULL != func)
 341:Generated_Source\PSoC4/UART_433.c ****         {
 342:Generated_Source\PSoC4/UART_433.c ****             /* Suppress compiler warning */
 343:Generated_Source\PSoC4/UART_433.c ****         }
 344:Generated_Source\PSoC4/UART_433.c ****     #endif /* !defined (CY_REMOVE_UART_433_CUSTOM_INTR_HANDLER) */
 345:Generated_Source\PSoC4/UART_433.c ****     }
 346:Generated_Source\PSoC4/UART_433.c **** #endif /* (UART_433_SCB_IRQ_INTERNAL) */
 347:Generated_Source\PSoC4/UART_433.c **** 
 348:Generated_Source\PSoC4/UART_433.c **** 
 349:Generated_Source\PSoC4/UART_433.c **** /*******************************************************************************
 350:Generated_Source\PSoC4/UART_433.c **** * Function Name: UART_433_ScbModeEnableIntr
 351:Generated_Source\PSoC4/UART_433.c **** ****************************************************************************//**
 352:Generated_Source\PSoC4/UART_433.c **** *
 353:Generated_Source\PSoC4/UART_433.c **** *  Enables an interrupt for a specific mode.
 354:Generated_Source\PSoC4/UART_433.c **** *
 355:Generated_Source\PSoC4/UART_433.c **** *******************************************************************************/
 356:Generated_Source\PSoC4/UART_433.c **** static void UART_433_ScbEnableIntr(void)
 357:Generated_Source\PSoC4/UART_433.c **** {
 358:Generated_Source\PSoC4/UART_433.c **** #if (UART_433_SCB_IRQ_INTERNAL)
 359:Generated_Source\PSoC4/UART_433.c ****     /* Enable interrupt in NVIC */
 360:Generated_Source\PSoC4/UART_433.c ****     #if (UART_433_SCB_MODE_UNCONFIG_CONST_CFG)
 361:Generated_Source\PSoC4/UART_433.c ****         if (0u != UART_433_scbEnableIntr)
 362:Generated_Source\PSoC4/UART_433.c ****         {
 363:Generated_Source\PSoC4/UART_433.c ****             UART_433_EnableInt();
 364:Generated_Source\PSoC4/UART_433.c ****         }
 365:Generated_Source\PSoC4/UART_433.c **** 
 366:Generated_Source\PSoC4/UART_433.c ****     #else
 367:Generated_Source\PSoC4/UART_433.c ****         UART_433_EnableInt();
 368:Generated_Source\PSoC4/UART_433.c **** 
 369:Generated_Source\PSoC4/UART_433.c ****     #endif /* (UART_433_SCB_MODE_UNCONFIG_CONST_CFG) */
 370:Generated_Source\PSoC4/UART_433.c **** #endif /* (UART_433_SCB_IRQ_INTERNAL) */
 371:Generated_Source\PSoC4/UART_433.c **** }
 372:Generated_Source\PSoC4/UART_433.c **** 
 373:Generated_Source\PSoC4/UART_433.c **** 
 374:Generated_Source\PSoC4/UART_433.c **** /*******************************************************************************
 375:Generated_Source\PSoC4/UART_433.c **** * Function Name: UART_433_ScbModePostEnable
 376:Generated_Source\PSoC4/UART_433.c **** ****************************************************************************//**
 377:Generated_Source\PSoC4/UART_433.c **** *
 378:Generated_Source\PSoC4/UART_433.c **** *  Calls the PostEnable function for a specific operation mode.
 379:Generated_Source\PSoC4/UART_433.c **** *
 380:Generated_Source\PSoC4/UART_433.c **** *******************************************************************************/
 381:Generated_Source\PSoC4/UART_433.c **** static void UART_433_ScbModePostEnable(void)
 382:Generated_Source\PSoC4/UART_433.c **** {
 383:Generated_Source\PSoC4/UART_433.c **** #if (UART_433_SCB_MODE_UNCONFIG_CONST_CFG)
 384:Generated_Source\PSoC4/UART_433.c **** #if (!UART_433_CY_SCBIP_V1)
 385:Generated_Source\PSoC4/UART_433.c ****     if (UART_433_SCB_MODE_SPI_RUNTM_CFG)
 386:Generated_Source\PSoC4/UART_433.c ****     {
 387:Generated_Source\PSoC4/UART_433.c ****         UART_433_SpiPostEnable();
 388:Generated_Source\PSoC4/UART_433.c ****     }
 389:Generated_Source\PSoC4/UART_433.c ****     else if (UART_433_SCB_MODE_UART_RUNTM_CFG)
 390:Generated_Source\PSoC4/UART_433.c ****     {
ARM GAS  C:\Users\zhiantec\AppData\Local\Temp\ccwJcpWN.s 			page 9


 391:Generated_Source\PSoC4/UART_433.c ****         UART_433_UartPostEnable();
 392:Generated_Source\PSoC4/UART_433.c ****     }
 393:Generated_Source\PSoC4/UART_433.c ****     else
 394:Generated_Source\PSoC4/UART_433.c ****     {
 395:Generated_Source\PSoC4/UART_433.c ****         /* Unknown mode: do nothing */
 396:Generated_Source\PSoC4/UART_433.c ****     }
 397:Generated_Source\PSoC4/UART_433.c **** #endif /* (!UART_433_CY_SCBIP_V1) */
 398:Generated_Source\PSoC4/UART_433.c **** 
 399:Generated_Source\PSoC4/UART_433.c **** #elif (UART_433_SCB_MODE_SPI_CONST_CFG)
 400:Generated_Source\PSoC4/UART_433.c ****     UART_433_SpiPostEnable();
 401:Generated_Source\PSoC4/UART_433.c **** 
 402:Generated_Source\PSoC4/UART_433.c **** #elif (UART_433_SCB_MODE_UART_CONST_CFG)
 403:Generated_Source\PSoC4/UART_433.c ****     UART_433_UartPostEnable();
  66              		.loc 1 403 0
  67 000e FFF7FEFF 		bl	UART_433_UartPostEnable
  68              	.LVL1:
  69              	.LBE11:
  70              	.LBE10:
 192:Generated_Source\PSoC4/UART_433.c **** 
  71              		.loc 1 192 0
  72              		@ sp needed
  73 0012 08BD     		pop	{r3, pc}
  74              	.L4:
  75              		.align	2
  76              	.L3:
  77 0014 00002440 		.word	1076101120
  78              		.cfi_endproc
  79              	.LFE3:
  80              		.size	UART_433_Enable, .-UART_433_Enable
  81              		.section	.text.UART_433_Start,"ax",%progbits
  82              		.align	1
  83              		.global	UART_433_Start
  84              		.code	16
  85              		.thumb_func
  86              		.type	UART_433_Start, %function
  87              	UART_433_Start:
  88              	.LFB4:
 211:Generated_Source\PSoC4/UART_433.c ****     if (0u == UART_433_initVar)
  89              		.loc 1 211 0
  90              		.cfi_startproc
  91 0000 10B5     		push	{r4, lr}
  92              		.cfi_def_cfa_offset 8
  93              		.cfi_offset 4, -8
  94              		.cfi_offset 14, -4
 212:Generated_Source\PSoC4/UART_433.c ****     {
  95              		.loc 1 212 0
  96 0002 054C     		ldr	r4, .L8
  97 0004 2378     		ldrb	r3, [r4]
  98 0006 002B     		cmp	r3, #0
  99 0008 03D1     		bne	.L6
 100              	.LBB12:
 101              	.LBB13:
 142:Generated_Source\PSoC4/UART_433.c **** 
 102              		.loc 1 142 0
 103 000a FFF7FEFF 		bl	UART_433_UartInit
 104              	.LVL2:
 105              	.LBE13:
ARM GAS  C:\Users\zhiantec\AppData\Local\Temp\ccwJcpWN.s 			page 10


 106              	.LBE12:
 215:Generated_Source\PSoC4/UART_433.c ****     }
 107              		.loc 1 215 0
 108 000e 0123     		mov	r3, #1
 109 0010 2370     		strb	r3, [r4]
 110              	.L6:
 218:Generated_Source\PSoC4/UART_433.c **** }
 111              		.loc 1 218 0
 112 0012 FFF7FEFF 		bl	UART_433_Enable
 113              	.LVL3:
 219:Generated_Source\PSoC4/UART_433.c **** 
 114              		.loc 1 219 0
 115              		@ sp needed
 116 0016 10BD     		pop	{r4, pc}
 117              	.L9:
 118              		.align	2
 119              	.L8:
 120 0018 00000000 		.word	.LANCHOR0
 121              		.cfi_endproc
 122              	.LFE4:
 123              		.size	UART_433_Start, .-UART_433_Start
 124              		.section	.text.UART_433_Stop,"ax",%progbits
 125              		.align	1
 126              		.global	UART_433_Stop
 127              		.code	16
 128              		.thumb_func
 129              		.type	UART_433_Stop, %function
 130              	UART_433_Stop:
 131              	.LFB5:
 240:Generated_Source\PSoC4/UART_433.c **** #if (UART_433_SCB_IRQ_INTERNAL)
 132              		.loc 1 240 0
 133              		.cfi_startproc
 134 0000 08B5     		push	{r3, lr}
 135              		.cfi_def_cfa_offset 8
 136              		.cfi_offset 3, -8
 137              		.cfi_offset 14, -4
 138              	.LBB14:
 139              	.LBB15:
 404:Generated_Source\PSoC4/UART_433.c **** 
 405:Generated_Source\PSoC4/UART_433.c **** #else
 406:Generated_Source\PSoC4/UART_433.c ****     /* Unknown mode: do nothing */
 407:Generated_Source\PSoC4/UART_433.c **** #endif /* (UART_433_SCB_MODE_UNCONFIG_CONST_CFG) */
 408:Generated_Source\PSoC4/UART_433.c **** }
 409:Generated_Source\PSoC4/UART_433.c **** 
 410:Generated_Source\PSoC4/UART_433.c **** 
 411:Generated_Source\PSoC4/UART_433.c **** /*******************************************************************************
 412:Generated_Source\PSoC4/UART_433.c **** * Function Name: UART_433_ScbModeStop
 413:Generated_Source\PSoC4/UART_433.c **** ****************************************************************************//**
 414:Generated_Source\PSoC4/UART_433.c **** *
 415:Generated_Source\PSoC4/UART_433.c **** *  Calls the Stop function for a specific operation mode.
 416:Generated_Source\PSoC4/UART_433.c **** *
 417:Generated_Source\PSoC4/UART_433.c **** *******************************************************************************/
 418:Generated_Source\PSoC4/UART_433.c **** static void UART_433_ScbModeStop(void)
 419:Generated_Source\PSoC4/UART_433.c **** {
 420:Generated_Source\PSoC4/UART_433.c **** #if (UART_433_SCB_MODE_UNCONFIG_CONST_CFG)
 421:Generated_Source\PSoC4/UART_433.c ****     if (UART_433_SCB_MODE_I2C_RUNTM_CFG)
 422:Generated_Source\PSoC4/UART_433.c ****     {
ARM GAS  C:\Users\zhiantec\AppData\Local\Temp\ccwJcpWN.s 			page 11


 423:Generated_Source\PSoC4/UART_433.c ****         UART_433_I2CStop();
 424:Generated_Source\PSoC4/UART_433.c ****     }
 425:Generated_Source\PSoC4/UART_433.c ****     else if (UART_433_SCB_MODE_EZI2C_RUNTM_CFG)
 426:Generated_Source\PSoC4/UART_433.c ****     {
 427:Generated_Source\PSoC4/UART_433.c ****         UART_433_EzI2CStop();
 428:Generated_Source\PSoC4/UART_433.c ****     }
 429:Generated_Source\PSoC4/UART_433.c **** #if (!UART_433_CY_SCBIP_V1)
 430:Generated_Source\PSoC4/UART_433.c ****     else if (UART_433_SCB_MODE_SPI_RUNTM_CFG)
 431:Generated_Source\PSoC4/UART_433.c ****     {
 432:Generated_Source\PSoC4/UART_433.c ****         UART_433_SpiStop();
 433:Generated_Source\PSoC4/UART_433.c ****     }
 434:Generated_Source\PSoC4/UART_433.c ****     else if (UART_433_SCB_MODE_UART_RUNTM_CFG)
 435:Generated_Source\PSoC4/UART_433.c ****     {
 436:Generated_Source\PSoC4/UART_433.c ****         UART_433_UartStop();
 437:Generated_Source\PSoC4/UART_433.c ****     }
 438:Generated_Source\PSoC4/UART_433.c **** #endif /* (!UART_433_CY_SCBIP_V1) */
 439:Generated_Source\PSoC4/UART_433.c ****     else
 440:Generated_Source\PSoC4/UART_433.c ****     {
 441:Generated_Source\PSoC4/UART_433.c ****         /* Unknown mode: do nothing */
 442:Generated_Source\PSoC4/UART_433.c ****     }
 443:Generated_Source\PSoC4/UART_433.c **** #elif (UART_433_SCB_MODE_I2C_CONST_CFG)
 444:Generated_Source\PSoC4/UART_433.c ****     UART_433_I2CStop();
 445:Generated_Source\PSoC4/UART_433.c **** 
 446:Generated_Source\PSoC4/UART_433.c **** #elif (UART_433_SCB_MODE_EZI2C_CONST_CFG)
 447:Generated_Source\PSoC4/UART_433.c ****     UART_433_EzI2CStop();
 448:Generated_Source\PSoC4/UART_433.c **** 
 449:Generated_Source\PSoC4/UART_433.c **** #elif (UART_433_SCB_MODE_SPI_CONST_CFG)
 450:Generated_Source\PSoC4/UART_433.c ****     UART_433_SpiStop();
 451:Generated_Source\PSoC4/UART_433.c **** 
 452:Generated_Source\PSoC4/UART_433.c **** #elif (UART_433_SCB_MODE_UART_CONST_CFG)
 453:Generated_Source\PSoC4/UART_433.c ****     UART_433_UartStop();
 140              		.loc 1 453 0
 141 0002 FFF7FEFF 		bl	UART_433_UartStop
 142              	.LVL4:
 143              	.LBE15:
 144              	.LBE14:
 249:Generated_Source\PSoC4/UART_433.c **** 
 145              		.loc 1 249 0
 146 0006 044A     		ldr	r2, .L11
 264:Generated_Source\PSoC4/UART_433.c **** 
 147              		.loc 1 264 0
 148              		@ sp needed
 249:Generated_Source\PSoC4/UART_433.c **** 
 149              		.loc 1 249 0
 150 0008 1368     		ldr	r3, [r2]
 151 000a 5B00     		lsl	r3, r3, #1
 152 000c 5B08     		lsr	r3, r3, #1
 153 000e 1360     		str	r3, [r2]
 259:Generated_Source\PSoC4/UART_433.c **** 
 154              		.loc 1 259 0
 155 0010 0022     		mov	r2, #0
 156 0012 024B     		ldr	r3, .L11+4
 157 0014 1A60     		str	r2, [r3]
 264:Generated_Source\PSoC4/UART_433.c **** 
 158              		.loc 1 264 0
 159 0016 08BD     		pop	{r3, pc}
 160              	.L12:
ARM GAS  C:\Users\zhiantec\AppData\Local\Temp\ccwJcpWN.s 			page 12


 161              		.align	2
 162              	.L11:
 163 0018 00002440 		.word	1076101120
 164 001c 880F2440 		.word	1076105096
 165              		.cfi_endproc
 166              	.LFE5:
 167              		.size	UART_433_Stop, .-UART_433_Stop
 168              		.section	.text.UART_433_SetRxFifoLevel,"ax",%progbits
 169              		.align	1
 170              		.global	UART_433_SetRxFifoLevel
 171              		.code	16
 172              		.thumb_func
 173              		.type	UART_433_SetRxFifoLevel, %function
 174              	UART_433_SetRxFifoLevel:
 175              	.LFB6:
 280:Generated_Source\PSoC4/UART_433.c ****     uint32 rxFifoCtrl;
 176              		.loc 1 280 0
 177              		.cfi_startproc
 178              	.LVL5:
 285:Generated_Source\PSoC4/UART_433.c ****     rxFifoCtrl |= ((uint32) (UART_433_RX_FIFO_CTRL_TRIGGER_LEVEL_MASK & level));
 179              		.loc 1 285 0
 180 0000 0F22     		mov	r2, #15
 283:Generated_Source\PSoC4/UART_433.c **** 
 181              		.loc 1 283 0
 182 0002 0349     		ldr	r1, .L14
 286:Generated_Source\PSoC4/UART_433.c **** 
 183              		.loc 1 286 0
 184 0004 1040     		and	r0, r2
 185              	.LVL6:
 283:Generated_Source\PSoC4/UART_433.c **** 
 186              		.loc 1 283 0
 187 0006 0B68     		ldr	r3, [r1]
 188              	.LVL7:
 289:Generated_Source\PSoC4/UART_433.c **** 
 189              		.loc 1 289 0
 190              		@ sp needed
 285:Generated_Source\PSoC4/UART_433.c ****     rxFifoCtrl |= ((uint32) (UART_433_RX_FIFO_CTRL_TRIGGER_LEVEL_MASK & level));
 191              		.loc 1 285 0
 192 0008 9343     		bic	r3, r2
 193              	.LVL8:
 286:Generated_Source\PSoC4/UART_433.c **** 
 194              		.loc 1 286 0
 195 000a 1843     		orr	r0, r3
 196              	.LVL9:
 288:Generated_Source\PSoC4/UART_433.c **** }
 197              		.loc 1 288 0
 198 000c 0860     		str	r0, [r1]
 289:Generated_Source\PSoC4/UART_433.c **** 
 199              		.loc 1 289 0
 200 000e 7047     		bx	lr
 201              	.L15:
 202              		.align	2
 203              	.L14:
 204 0010 04032440 		.word	1076101892
 205              		.cfi_endproc
 206              	.LFE6:
 207              		.size	UART_433_SetRxFifoLevel, .-UART_433_SetRxFifoLevel
ARM GAS  C:\Users\zhiantec\AppData\Local\Temp\ccwJcpWN.s 			page 13


 208              		.section	.text.UART_433_SetTxFifoLevel,"ax",%progbits
 209              		.align	1
 210              		.global	UART_433_SetTxFifoLevel
 211              		.code	16
 212              		.thumb_func
 213              		.type	UART_433_SetTxFifoLevel, %function
 214              	UART_433_SetTxFifoLevel:
 215              	.LFB7:
 305:Generated_Source\PSoC4/UART_433.c ****     uint32 txFifoCtrl;
 216              		.loc 1 305 0
 217              		.cfi_startproc
 218              	.LVL10:
 310:Generated_Source\PSoC4/UART_433.c ****     txFifoCtrl |= ((uint32) (UART_433_TX_FIFO_CTRL_TRIGGER_LEVEL_MASK & level));
 219              		.loc 1 310 0
 220 0000 0F22     		mov	r2, #15
 308:Generated_Source\PSoC4/UART_433.c **** 
 221              		.loc 1 308 0
 222 0002 0349     		ldr	r1, .L17
 311:Generated_Source\PSoC4/UART_433.c **** 
 223              		.loc 1 311 0
 224 0004 1040     		and	r0, r2
 225              	.LVL11:
 308:Generated_Source\PSoC4/UART_433.c **** 
 226              		.loc 1 308 0
 227 0006 0B68     		ldr	r3, [r1]
 228              	.LVL12:
 314:Generated_Source\PSoC4/UART_433.c **** 
 229              		.loc 1 314 0
 230              		@ sp needed
 310:Generated_Source\PSoC4/UART_433.c ****     txFifoCtrl |= ((uint32) (UART_433_TX_FIFO_CTRL_TRIGGER_LEVEL_MASK & level));
 231              		.loc 1 310 0
 232 0008 9343     		bic	r3, r2
 233              	.LVL13:
 311:Generated_Source\PSoC4/UART_433.c **** 
 234              		.loc 1 311 0
 235 000a 1843     		orr	r0, r3
 236              	.LVL14:
 313:Generated_Source\PSoC4/UART_433.c **** }
 237              		.loc 1 313 0
 238 000c 0860     		str	r0, [r1]
 314:Generated_Source\PSoC4/UART_433.c **** 
 239              		.loc 1 314 0
 240 000e 7047     		bx	lr
 241              	.L18:
 242              		.align	2
 243              	.L17:
 244 0010 04022440 		.word	1076101636
 245              		.cfi_endproc
 246              	.LFE7:
 247              		.size	UART_433_SetTxFifoLevel, .-UART_433_SetTxFifoLevel
 248              		.global	UART_433_IntrTxMask
 249              		.global	UART_433_initVar
 250              		.bss
 251              		.align	1
 252              		.set	.LANCHOR0,. + 0
 253              		.type	UART_433_initVar, %object
 254              		.size	UART_433_initVar, 1
ARM GAS  C:\Users\zhiantec\AppData\Local\Temp\ccwJcpWN.s 			page 14


 255              	UART_433_initVar:
 256 0000 00       		.space	1
 257 0001 00       		.space	1
 258              		.type	UART_433_IntrTxMask, %object
 259              		.size	UART_433_IntrTxMask, 2
 260              	UART_433_IntrTxMask:
 261 0002 0000     		.space	2
 262              		.text
 263              	.Letext0:
 264              		.file 2 "Generated_Source\\PSoC4/cytypes.h"
 265              		.file 3 "Generated_Source\\PSoC4\\UART_433_SPI_UART_PVT.h"