ARM GAS  C:\Users\Administrator\AppData\Local\Temp\ccShlVUx.s 			page 1


   1              		.cpu cortex-m0
   2              		.fpu softvfp
   3              		.eabi_attribute 20, 1
   4              		.eabi_attribute 21, 1
   5              		.eabi_attribute 23, 3
   6              		.eabi_attribute 24, 1
   7              		.eabi_attribute 25, 1
   8              		.eabi_attribute 26, 1
   9              		.eabi_attribute 30, 4
  10              		.eabi_attribute 34, 0
  11              		.eabi_attribute 18, 4
  12              		.code	16
  13              		.file	"user_data.c"
  14              		.text
  15              	.Ltext0:
  16              		.cfi_sections	.debug_frame
  17              		.section	.text.user_init_valid_flag,"ax",%progbits
  18              		.align	1
  19              		.global	user_init_valid_flag
  20              		.code	16
  21              		.thumb_func
  22              		.type	user_init_valid_flag, %function
  23              	user_init_valid_flag:
  24              	.LFB63:
  25              		.file 1 "Code\\Device\\W25Q80\\user_data.c"
   1:Code\Device\W25Q80/user_data.c **** //*************************************************************************************************
   2:Code\Device\W25Q80/user_data.c **** // File name		: user_data.c
   3:Code\Device\W25Q80/user_data.c **** // Description		: 用户数据相关的函数
   4:Code\Device\W25Q80/user_data.c **** // Author			: Keno
   5:Code\Device\W25Q80/user_data.c **** // Date				: 2016.8.8
   6:Code\Device\W25Q80/user_data.c **** // Version			: V02
   7:Code\Device\W25Q80/user_data.c **** //-------------------------------------------------------------------------------------------------
   8:Code\Device\W25Q80/user_data.c **** // Info				: 用户编号从0开始，0-499；开门记录也从0开始，0-4999，5000为一周期
   9:Code\Device\W25Q80/user_data.c **** //*************************************************************************************************
  10:Code\Device\W25Q80/user_data.c **** #include "user_data.h"
  11:Code\Device\W25Q80/user_data.c **** 
  12:Code\Device\W25Q80/user_data.c **** 
  13:Code\Device\W25Q80/user_data.c **** int Endpoint_exchange(uint8 card_data[]);
  14:Code\Device\W25Q80/user_data.c **** extern uint8  uploadpolling_stop;										// 轮训上报开门信息 停止位		//
  15:Code\Device\W25Q80/user_data.c **** 
  16:Code\Device\W25Q80/user_data.c **** //===================================== 用户信息存储 ========================================
  17:Code\Device\W25Q80/user_data.c **** 
  18:Code\Device\W25Q80/user_data.c **** //*************************************************************************************************
  19:Code\Device\W25Q80/user_data.c **** // Function name	: user_init_valid_flag
  20:Code\Device\W25Q80/user_data.c **** // Description		: 初始化用户有效位标志，清零所有用户标志位
  21:Code\Device\W25Q80/user_data.c **** // Parameter		: none
  22:Code\Device\W25Q80/user_data.c **** // Return			: none
  23:Code\Device\W25Q80/user_data.c **** //-------------------------------------------------------------------------------------------------
  24:Code\Device\W25Q80/user_data.c **** // Info				: 
  25:Code\Device\W25Q80/user_data.c **** //*************************************************************************************************
  26:Code\Device\W25Q80/user_data.c **** void user_init_valid_flag(void)
  27:Code\Device\W25Q80/user_data.c **** {
  26              		.loc 1 27 0
  27              		.cfi_startproc
  28 0000 10B5     		push	{r4, lr}
  29              		.cfi_def_cfa_offset 8
  30              		.cfi_offset 4, -8
ARM GAS  C:\Users\Administrator\AppData\Local\Temp\ccShlVUx.s 			page 2


  31              		.cfi_offset 14, -4
  28:Code\Device\W25Q80/user_data.c **** 	uint8 flag[USER_FLAG_SIZE];
  29:Code\Device\W25Q80/user_data.c **** 	
  30:Code\Device\W25Q80/user_data.c **** 	memset(flag, 0, sizeof(flag));
  32              		.loc 1 30 0
  33 0002 FA24     		mov	r4, #250
  27:Code\Device\W25Q80/user_data.c **** 	uint8 flag[USER_FLAG_SIZE];
  34              		.loc 1 27 0
  35 0004 FEB0     		sub	sp, sp, #504
  36              		.cfi_def_cfa_offset 512
  37              		.loc 1 30 0
  38 0006 6400     		lsl	r4, r4, #1
  39 0008 221C     		mov	r2, r4
  40 000a 01A8     		add	r0, sp, #4
  41 000c 0021     		mov	r1, #0
  42 000e FFF7FEFF 		bl	memset
  43              	.LVL0:
  31:Code\Device\W25Q80/user_data.c **** 	W25QXX_Write(flag, USER_FLAG_BASE, (uint16)sizeof(flag));
  44              		.loc 1 31 0
  45 0012 01A8     		add	r0, sp, #4
  46 0014 0021     		mov	r1, #0
  47 0016 221C     		mov	r2, r4
  48 0018 FFF7FEFF 		bl	W25QXX_Write
  49              	.LVL1:
  32:Code\Device\W25Q80/user_data.c **** }
  50              		.loc 1 32 0
  51 001c 7EB0     		add	sp, sp, #504
  52              		@ sp needed
  53 001e 10BD     		pop	{r4, pc}
  54              		.cfi_endproc
  55              	.LFE63:
  56              		.size	user_init_valid_flag, .-user_init_valid_flag
  57              		.section	.text.user_find_free_id,"ax",%progbits
  58              		.align	1
  59              		.global	user_find_free_id
  60              		.code	16
  61              		.thumb_func
  62              		.type	user_find_free_id, %function
  63              	user_find_free_id:
  64              	.LFB64:
  33:Code\Device\W25Q80/user_data.c **** 
  34:Code\Device\W25Q80/user_data.c **** //*************************************************************************************************
  35:Code\Device\W25Q80/user_data.c **** // Function name	: user_find_free_id
  36:Code\Device\W25Q80/user_data.c **** // Description		: 查找空闲的用户有效位标志 
  37:Code\Device\W25Q80/user_data.c **** // Parameter		: user_id
  38:Code\Device\W25Q80/user_data.c **** // Return			: RET_OK : 找到 / RET_ERR : 未找到
  39:Code\Device\W25Q80/user_data.c **** //-------------------------------------------------------------------------------------------------
  40:Code\Device\W25Q80/user_data.c **** // Info				: 
  41:Code\Device\W25Q80/user_data.c **** //*************************************************************************************************
  42:Code\Device\W25Q80/user_data.c **** uint8 user_find_free_id(uint16 *user_id)
  43:Code\Device\W25Q80/user_data.c **** {
  65              		.loc 1 43 0
  66              		.cfi_startproc
  67              	.LVL2:
  44:Code\Device\W25Q80/user_data.c **** 	uint16 user_id_local;
  45:Code\Device\W25Q80/user_data.c **** 	uint8 flag[USER_FLAG_SIZE];
  46:Code\Device\W25Q80/user_data.c **** 	
ARM GAS  C:\Users\Administrator\AppData\Local\Temp\ccShlVUx.s 			page 3


  47:Code\Device\W25Q80/user_data.c **** 	W25QXX_Read(flag, USER_FLAG_BASE, (uint16)sizeof(flag));
  68              		.loc 1 47 0
  69 0000 FA22     		mov	r2, #250
  43:Code\Device\W25Q80/user_data.c **** 	uint16 user_id_local;
  70              		.loc 1 43 0
  71 0002 30B5     		push	{r4, r5, lr}
  72              		.cfi_def_cfa_offset 12
  73              		.cfi_offset 4, -12
  74              		.cfi_offset 5, -8
  75              		.cfi_offset 14, -4
  76 0004 FFB0     		sub	sp, sp, #508
  77              		.cfi_def_cfa_offset 520
  78              		.loc 1 47 0
  79 0006 01AC     		add	r4, sp, #4
  43:Code\Device\W25Q80/user_data.c **** 	uint16 user_id_local;
  80              		.loc 1 43 0
  81 0008 051C     		mov	r5, r0
  82              		.loc 1 47 0
  83 000a 0021     		mov	r1, #0
  84 000c 201C     		mov	r0, r4
  85              	.LVL3:
  86 000e 5200     		lsl	r2, r2, #1
  87 0010 FFF7FEFF 		bl	W25QXX_Read
  88              	.LVL4:
  89 0014 0023     		mov	r3, #0
  90              	.LVL5:
  91              	.L5:
  48:Code\Device\W25Q80/user_data.c **** 	for (user_id_local = 0; user_id_local < MAX_USR_NUM; user_id_local++)
  49:Code\Device\W25Q80/user_data.c **** 	{
  50:Code\Device\W25Q80/user_data.c **** 		if ((flag[user_id_local] == 0) || (flag[user_id_local] == 0xFF))
  92              		.loc 1 50 0
  93 0016 E25C     		ldrb	r2, [r4, r3]
  94 0018 99B2     		uxth	r1, r3
  95              	.LVL6:
  96 001a 013A     		sub	r2, r2, #1
  97 001c D2B2     		uxtb	r2, r2
  98 001e FD2A     		cmp	r2, #253
  99 0020 02D9     		bls	.L3
  51:Code\Device\W25Q80/user_data.c **** 		{
  52:Code\Device\W25Q80/user_data.c **** 			*user_id = user_id_local;
 100              		.loc 1 52 0
 101 0022 2980     		strh	r1, [r5]
  53:Code\Device\W25Q80/user_data.c **** 			return RET_OK;
 102              		.loc 1 53 0
 103 0024 0120     		mov	r0, #1
 104 0026 05E0     		b	.L4
 105              	.L3:
 106              	.LVL7:
  48:Code\Device\W25Q80/user_data.c **** 	for (user_id_local = 0; user_id_local < MAX_USR_NUM; user_id_local++)
 107              		.loc 1 48 0 discriminator 2
 108 0028 FA22     		mov	r2, #250
 109 002a 0133     		add	r3, r3, #1
 110              	.LVL8:
 111 002c 5200     		lsl	r2, r2, #1
 112 002e 9342     		cmp	r3, r2
 113 0030 F1D1     		bne	.L5
  54:Code\Device\W25Q80/user_data.c **** 		}
ARM GAS  C:\Users\Administrator\AppData\Local\Temp\ccShlVUx.s 			page 4


  55:Code\Device\W25Q80/user_data.c **** 	}
  56:Code\Device\W25Q80/user_data.c **** 	return RET_ERR;
 114              		.loc 1 56 0
 115 0032 0020     		mov	r0, #0
 116              	.LVL9:
 117              	.L4:
  57:Code\Device\W25Q80/user_data.c **** }
 118              		.loc 1 57 0
 119 0034 7FB0     		add	sp, sp, #508
 120              		@ sp needed
 121              	.LVL10:
 122 0036 30BD     		pop	{r4, r5, pc}
 123              		.cfi_endproc
 124              	.LFE64:
 125              		.size	user_find_free_id, .-user_find_free_id
 126              		.section	.text.user_id_if_valid,"ax",%progbits
 127              		.align	1
 128              		.global	user_id_if_valid
 129              		.code	16
 130              		.thumb_func
 131              		.type	user_id_if_valid, %function
 132              	user_id_if_valid:
 133              	.LFB65:
  58:Code\Device\W25Q80/user_data.c **** 
  59:Code\Device\W25Q80/user_data.c **** //*************************************************************************************************
  60:Code\Device\W25Q80/user_data.c **** // Function name	: user_id_if_valid
  61:Code\Device\W25Q80/user_data.c **** // Description		: 判断对应编号的用户是否存在
  62:Code\Device\W25Q80/user_data.c **** // Parameter		: user_id
  63:Code\Device\W25Q80/user_data.c **** // Return			: none
  64:Code\Device\W25Q80/user_data.c **** //-------------------------------------------------------------------------------------------------
  65:Code\Device\W25Q80/user_data.c **** // Info				: 用户编号从0开始，0-499.
  66:Code\Device\W25Q80/user_data.c **** //*************************************************************************************************
  67:Code\Device\W25Q80/user_data.c **** uint8 user_id_if_valid(uint16 user_id)
  68:Code\Device\W25Q80/user_data.c **** {
 134              		.loc 1 68 0
 135              		.cfi_startproc
 136              	.LVL11:
  69:Code\Device\W25Q80/user_data.c **** 	uint8 flag[USER_FLAG_SIZE];
  70:Code\Device\W25Q80/user_data.c **** 	
  71:Code\Device\W25Q80/user_data.c **** 	W25QXX_Read(flag, USER_FLAG_BASE, USER_FLAG_SIZE);
 137              		.loc 1 71 0
 138 0000 FA22     		mov	r2, #250
  68:Code\Device\W25Q80/user_data.c **** 	uint8 flag[USER_FLAG_SIZE];
 139              		.loc 1 68 0
 140 0002 30B5     		push	{r4, r5, lr}
 141              		.cfi_def_cfa_offset 12
 142              		.cfi_offset 4, -12
 143              		.cfi_offset 5, -8
 144              		.cfi_offset 14, -4
 145 0004 051C     		mov	r5, r0
 146 0006 FFB0     		sub	sp, sp, #508
 147              		.cfi_def_cfa_offset 520
 148              		.loc 1 71 0
 149 0008 01AC     		add	r4, sp, #4
 150 000a 201C     		mov	r0, r4
 151              	.LVL12:
 152 000c 0021     		mov	r1, #0
ARM GAS  C:\Users\Administrator\AppData\Local\Temp\ccShlVUx.s 			page 5


 153 000e 5200     		lsl	r2, r2, #1
 154 0010 FFF7FEFF 		bl	W25QXX_Read
 155              	.LVL13:
  72:Code\Device\W25Q80/user_data.c **** 	if (flag[user_id] == TRUE)
 156              		.loc 1 72 0
 157 0014 605D     		ldrb	r0, [r4, r5]
 158 0016 0138     		sub	r0, r0, #1
 159 0018 4342     		neg	r3, r0
 160 001a 5841     		adc	r0, r0, r3
  73:Code\Device\W25Q80/user_data.c **** 	{
  74:Code\Device\W25Q80/user_data.c **** 		return TRUE;
 161              		.loc 1 74 0
 162 001c C0B2     		uxtb	r0, r0
  75:Code\Device\W25Q80/user_data.c **** 	}
  76:Code\Device\W25Q80/user_data.c **** 	else
  77:Code\Device\W25Q80/user_data.c **** 	{
  78:Code\Device\W25Q80/user_data.c **** 		return FALSE;
  79:Code\Device\W25Q80/user_data.c **** 	}
  80:Code\Device\W25Q80/user_data.c **** }
 163              		.loc 1 80 0
 164 001e 7FB0     		add	sp, sp, #508
 165              		@ sp needed
 166 0020 30BD     		pop	{r4, r5, pc}
 167              		.cfi_endproc
 168              	.LFE65:
 169              		.size	user_id_if_valid, .-user_id_if_valid
 170              		.section	.text.user_get_reg_qty,"ax",%progbits
 171              		.align	1
 172              		.global	user_get_reg_qty
 173              		.code	16
 174              		.thumb_func
 175              		.type	user_get_reg_qty, %function
 176              	user_get_reg_qty:
 177              	.LFB66:
  81:Code\Device\W25Q80/user_data.c **** 
  82:Code\Device\W25Q80/user_data.c **** //*************************************************************************************************
  83:Code\Device\W25Q80/user_data.c **** // Function name	: user_get_reg_qty
  84:Code\Device\W25Q80/user_data.c **** // Description		: 获取已注册用户数量
  85:Code\Device\W25Q80/user_data.c **** // Parameter		: none
  86:Code\Device\W25Q80/user_data.c **** // Return			: qty	: 已注册用户数量
  87:Code\Device\W25Q80/user_data.c **** //-------------------------------------------------------------------------------------------------
  88:Code\Device\W25Q80/user_data.c **** // Info				: 
  89:Code\Device\W25Q80/user_data.c **** //*************************************************************************************************
  90:Code\Device\W25Q80/user_data.c **** uint16 user_get_reg_qty(void)
  91:Code\Device\W25Q80/user_data.c **** {
 178              		.loc 1 91 0
 179              		.cfi_startproc
 180              	.LVL14:
  92:Code\Device\W25Q80/user_data.c **** 	uint8 flag[USER_FLAG_SIZE];
  93:Code\Device\W25Q80/user_data.c **** 	uint16 user_id_local;
  94:Code\Device\W25Q80/user_data.c **** 	uint16 qty = 0;
  95:Code\Device\W25Q80/user_data.c **** 	
  96:Code\Device\W25Q80/user_data.c **** 	W25QXX_Read(flag, USER_FLAG_BASE, USER_FLAG_SIZE);
 181              		.loc 1 96 0
 182 0000 FA22     		mov	r2, #250
  91:Code\Device\W25Q80/user_data.c **** 	uint8 flag[USER_FLAG_SIZE];
 183              		.loc 1 91 0
ARM GAS  C:\Users\Administrator\AppData\Local\Temp\ccShlVUx.s 			page 6


 184 0002 10B5     		push	{r4, lr}
 185              		.cfi_def_cfa_offset 8
 186              		.cfi_offset 4, -8
 187              		.cfi_offset 14, -4
 188 0004 FEB0     		sub	sp, sp, #504
 189              		.cfi_def_cfa_offset 512
 190              		.loc 1 96 0
 191 0006 01AC     		add	r4, sp, #4
 192 0008 201C     		mov	r0, r4
 193 000a 0021     		mov	r1, #0
 194 000c 5200     		lsl	r2, r2, #1
 195 000e FFF7FEFF 		bl	W25QXX_Read
 196              	.LVL15:
 197 0012 0023     		mov	r3, #0
  94:Code\Device\W25Q80/user_data.c **** 	
 198              		.loc 1 94 0
 199 0014 181C     		mov	r0, r3
 200              	.LVL16:
 201              	.L10:
  97:Code\Device\W25Q80/user_data.c **** 	for (user_id_local = 0; user_id_local < MAX_USR_NUM; user_id_local++)
  98:Code\Device\W25Q80/user_data.c **** 	{
  99:Code\Device\W25Q80/user_data.c **** 		if (flag[user_id_local] == TRUE)
 202              		.loc 1 99 0
 203 0016 E25C     		ldrb	r2, [r4, r3]
 204 0018 012A     		cmp	r2, #1
 205 001a 01D1     		bne	.L9
 100:Code\Device\W25Q80/user_data.c **** 		{
 101:Code\Device\W25Q80/user_data.c **** 			qty += 1;
 206              		.loc 1 101 0
 207 001c 0130     		add	r0, r0, #1
 208              	.LVL17:
 209 001e 80B2     		uxth	r0, r0
 210              	.LVL18:
 211              	.L9:
  97:Code\Device\W25Q80/user_data.c **** 	for (user_id_local = 0; user_id_local < MAX_USR_NUM; user_id_local++)
 212              		.loc 1 97 0 discriminator 2
 213 0020 FA22     		mov	r2, #250
 214 0022 0133     		add	r3, r3, #1
 215              	.LVL19:
 216 0024 5200     		lsl	r2, r2, #1
 217 0026 9342     		cmp	r3, r2
 218 0028 F5D1     		bne	.L10
 102:Code\Device\W25Q80/user_data.c **** 		}
 103:Code\Device\W25Q80/user_data.c **** 	}
 104:Code\Device\W25Q80/user_data.c **** 	return qty;
 105:Code\Device\W25Q80/user_data.c **** }
 219              		.loc 1 105 0
 220 002a 7EB0     		add	sp, sp, #504
 221              		@ sp needed
 222 002c 10BD     		pop	{r4, pc}
 223              		.cfi_endproc
 224              	.LFE66:
 225              		.size	user_get_reg_qty, .-user_get_reg_qty
 226              		.section	.text.user_set_valid_flag,"ax",%progbits
 227              		.align	1
 228              		.global	user_set_valid_flag
 229              		.code	16
ARM GAS  C:\Users\Administrator\AppData\Local\Temp\ccShlVUx.s 			page 7


 230              		.thumb_func
 231              		.type	user_set_valid_flag, %function
 232              	user_set_valid_flag:
 233              	.LFB67:
 106:Code\Device\W25Q80/user_data.c **** 
 107:Code\Device\W25Q80/user_data.c **** //*************************************************************************************************
 108:Code\Device\W25Q80/user_data.c **** // Function name	: user_set_valid_flag
 109:Code\Device\W25Q80/user_data.c **** // Description		: 置位用户有效位标志
 110:Code\Device\W25Q80/user_data.c **** // Parameter		: user_id
 111:Code\Device\W25Q80/user_data.c **** // Return			: none
 112:Code\Device\W25Q80/user_data.c **** //-------------------------------------------------------------------------------------------------
 113:Code\Device\W25Q80/user_data.c **** // Info				: 
 114:Code\Device\W25Q80/user_data.c **** //*************************************************************************************************
 115:Code\Device\W25Q80/user_data.c **** void user_set_valid_flag(uint16 user_id)
 116:Code\Device\W25Q80/user_data.c **** {
 234              		.loc 1 116 0
 235              		.cfi_startproc
 236              	.LVL20:
 237 0000 07B5     		push	{r0, r1, r2, lr}
 238              		.cfi_def_cfa_offset 16
 239              		.cfi_offset 0, -16
 240              		.cfi_offset 1, -12
 241              		.cfi_offset 2, -8
 242              		.cfi_offset 14, -4
 117:Code\Device\W25Q80/user_data.c **** 	uint8 flag = TRUE;
 243              		.loc 1 117 0
 244 0002 6B46     		mov	r3, sp
 245 0004 0122     		mov	r2, #1
 116:Code\Device\W25Q80/user_data.c **** 	uint8 flag = TRUE;
 246              		.loc 1 116 0
 247 0006 011C     		mov	r1, r0
 248              		.loc 1 117 0
 249 0008 D81D     		add	r0, r3, #7
 250              	.LVL21:
 251 000a 0270     		strb	r2, [r0]
 118:Code\Device\W25Q80/user_data.c **** 	
 119:Code\Device\W25Q80/user_data.c **** 	W25QXX_Write(&flag, USER_FLAG_BASE + user_id, 1);
 120:Code\Device\W25Q80/user_data.c **** }
 252              		.loc 1 120 0
 253              		@ sp needed
 119:Code\Device\W25Q80/user_data.c **** }
 254              		.loc 1 119 0
 255 000c FFF7FEFF 		bl	W25QXX_Write
 256              	.LVL22:
 257              		.loc 1 120 0
 258 0010 07BD     		pop	{r0, r1, r2, pc}
 259              		.cfi_endproc
 260              	.LFE67:
 261              		.size	user_set_valid_flag, .-user_set_valid_flag
 262              		.section	.text.user_clr_valid_flag,"ax",%progbits
 263              		.align	1
 264              		.global	user_clr_valid_flag
 265              		.code	16
 266              		.thumb_func
 267              		.type	user_clr_valid_flag, %function
 268              	user_clr_valid_flag:
 269              	.LFB68:
ARM GAS  C:\Users\Administrator\AppData\Local\Temp\ccShlVUx.s 			page 8


 121:Code\Device\W25Q80/user_data.c **** 
 122:Code\Device\W25Q80/user_data.c **** //*************************************************************************************************
 123:Code\Device\W25Q80/user_data.c **** // Function name	: user_clr_valid_flag
 124:Code\Device\W25Q80/user_data.c **** // Description		: 清除用户有效位标志
 125:Code\Device\W25Q80/user_data.c **** // Parameter		: user_id
 126:Code\Device\W25Q80/user_data.c **** // Return			: none
 127:Code\Device\W25Q80/user_data.c **** //-------------------------------------------------------------------------------------------------
 128:Code\Device\W25Q80/user_data.c **** // Info				: 
 129:Code\Device\W25Q80/user_data.c **** //*************************************************************************************************
 130:Code\Device\W25Q80/user_data.c **** void user_clr_valid_flag(uint16 user_id)
 131:Code\Device\W25Q80/user_data.c **** {
 270              		.loc 1 131 0
 271              		.cfi_startproc
 272              	.LVL23:
 273 0000 07B5     		push	{r0, r1, r2, lr}
 274              		.cfi_def_cfa_offset 16
 275              		.cfi_offset 0, -16
 276              		.cfi_offset 1, -12
 277              		.cfi_offset 2, -8
 278              		.cfi_offset 14, -4
 132:Code\Device\W25Q80/user_data.c **** 	uint8 flag = FALSE;
 279              		.loc 1 132 0
 280 0002 6B46     		mov	r3, sp
 131:Code\Device\W25Q80/user_data.c **** 	uint8 flag = FALSE;
 281              		.loc 1 131 0
 282 0004 011C     		mov	r1, r0
 283              		.loc 1 132 0
 284 0006 D81D     		add	r0, r3, #7
 285              	.LVL24:
 286 0008 0023     		mov	r3, #0
 133:Code\Device\W25Q80/user_data.c **** 	
 134:Code\Device\W25Q80/user_data.c **** 	W25QXX_Write(&flag, USER_FLAG_BASE + user_id, 1);
 287              		.loc 1 134 0
 288 000a 0122     		mov	r2, #1
 132:Code\Device\W25Q80/user_data.c **** 	
 289              		.loc 1 132 0
 290 000c 0370     		strb	r3, [r0]
 135:Code\Device\W25Q80/user_data.c **** }
 291              		.loc 1 135 0
 292              		@ sp needed
 134:Code\Device\W25Q80/user_data.c **** }
 293              		.loc 1 134 0
 294 000e FFF7FEFF 		bl	W25QXX_Write
 295              	.LVL25:
 296              		.loc 1 135 0
 297 0012 07BD     		pop	{r0, r1, r2, pc}
 298              		.cfi_endproc
 299              	.LFE68:
 300              		.size	user_clr_valid_flag, .-user_clr_valid_flag
 301              		.section	.text.user_add_info,"ax",%progbits
 302              		.align	1
 303              		.global	user_add_info
 304              		.code	16
 305              		.thumb_func
 306              		.type	user_add_info, %function
 307              	user_add_info:
 308              	.LFB69:
ARM GAS  C:\Users\Administrator\AppData\Local\Temp\ccShlVUx.s 			page 9


 136:Code\Device\W25Q80/user_data.c **** 
 137:Code\Device\W25Q80/user_data.c **** //*************************************************************************************************
 138:Code\Device\W25Q80/user_data.c **** // Function name	: user_add_info
 139:Code\Device\W25Q80/user_data.c **** // Description		: 添加新的用户信息
 140:Code\Device\W25Q80/user_data.c **** // Parameter		: user_id，user_info_t
 141:Code\Device\W25Q80/user_data.c **** // Return			: none
 142:Code\Device\W25Q80/user_data.c **** //-------------------------------------------------------------------------------------------------
 143:Code\Device\W25Q80/user_data.c **** // Info				: 
 144:Code\Device\W25Q80/user_data.c **** //*************************************************************************************************
 145:Code\Device\W25Q80/user_data.c **** void user_add_info(uint16 user_id, user_info_t *info)
 146:Code\Device\W25Q80/user_data.c **** {
 309              		.loc 1 146 0
 310              		.cfi_startproc
 311              	.LVL26:
 147:Code\Device\W25Q80/user_data.c **** 	W25QXX_Write((uint8 *)info, USER_INFO_BASE + (sizeof(user_info_t) * user_id), (uint16)sizeof(user_
 312              		.loc 1 147 0
 313 0000 0C22     		mov	r2, #12
 314 0002 031C     		mov	r3, r0
 146:Code\Device\W25Q80/user_data.c **** 	W25QXX_Write((uint8 *)info, USER_INFO_BASE + (sizeof(user_info_t) * user_id), (uint16)sizeof(user_
 315              		.loc 1 146 0
 316 0004 10B5     		push	{r4, lr}
 317              		.cfi_def_cfa_offset 8
 318              		.cfi_offset 4, -8
 319              		.cfi_offset 14, -4
 146:Code\Device\W25Q80/user_data.c **** 	W25QXX_Write((uint8 *)info, USER_INFO_BASE + (sizeof(user_info_t) * user_id), (uint16)sizeof(user_
 320              		.loc 1 146 0
 321 0006 0C1C     		mov	r4, r1
 322              		.loc 1 147 0
 323 0008 8021     		mov	r1, #128
 324              	.LVL27:
 325 000a 5343     		mul	r3, r2
 326 000c 8900     		lsl	r1, r1, #2
 327 000e 5918     		add	r1, r3, r1
 328 0010 201C     		mov	r0, r4
 329              	.LVL28:
 330 0012 FFF7FEFF 		bl	W25QXX_Write
 331              	.LVL29:
 148:Code\Device\W25Q80/user_data.c **** }
 332              		.loc 1 148 0
 333              		@ sp needed
 334              	.LVL30:
 335 0016 10BD     		pop	{r4, pc}
 336              		.cfi_endproc
 337              	.LFE69:
 338              		.size	user_add_info, .-user_add_info
 339              		.section	.text.user_del_info,"ax",%progbits
 340              		.align	1
 341              		.global	user_del_info
 342              		.code	16
 343              		.thumb_func
 344              		.type	user_del_info, %function
 345              	user_del_info:
 346              	.LFB70:
 149:Code\Device\W25Q80/user_data.c **** 
 150:Code\Device\W25Q80/user_data.c **** //*************************************************************************************************
 151:Code\Device\W25Q80/user_data.c **** // Function name	: user_del_info
 152:Code\Device\W25Q80/user_data.c **** // Description		: 删除新的用户信息
ARM GAS  C:\Users\Administrator\AppData\Local\Temp\ccShlVUx.s 			page 10


 153:Code\Device\W25Q80/user_data.c **** // Parameter		: user_id
 154:Code\Device\W25Q80/user_data.c **** // Return			: none
 155:Code\Device\W25Q80/user_data.c **** //-------------------------------------------------------------------------------------------------
 156:Code\Device\W25Q80/user_data.c **** // Info				: 
 157:Code\Device\W25Q80/user_data.c **** //*************************************************************************************************
 158:Code\Device\W25Q80/user_data.c **** void user_del_info(uint16 user_id)
 159:Code\Device\W25Q80/user_data.c **** {
 347              		.loc 1 159 0
 348              		.cfi_startproc
 349              	.LVL31:
 350 0000 30B5     		push	{r4, r5, lr}
 351              		.cfi_def_cfa_offset 12
 352              		.cfi_offset 4, -12
 353              		.cfi_offset 5, -8
 354              		.cfi_offset 14, -4
 160:Code\Device\W25Q80/user_data.c **** 	uint8_t flag[sizeof(user_info_t)] = {0};
 355              		.loc 1 160 0
 356 0002 0C25     		mov	r5, #12
 159:Code\Device\W25Q80/user_data.c **** 	uint8_t flag[sizeof(user_info_t)] = {0};
 357              		.loc 1 159 0
 358 0004 041C     		mov	r4, r0
 359 0006 85B0     		sub	sp, sp, #20
 360              		.cfi_def_cfa_offset 32
 361              		.loc 1 160 0
 362 0008 2A1C     		mov	r2, r5
 363 000a 01A8     		add	r0, sp, #4
 364              	.LVL32:
 365 000c 0021     		mov	r1, #0
 366 000e FFF7FEFF 		bl	memset
 367              	.LVL33:
 161:Code\Device\W25Q80/user_data.c **** 	
 162:Code\Device\W25Q80/user_data.c **** 	W25QXX_Write(flag, USER_INFO_BASE + sizeof(user_info_t) * user_id, (uint16)sizeof(user_info_t));
 368              		.loc 1 162 0
 369 0012 8023     		mov	r3, #128
 370 0014 6C43     		mul	r4, r5
 371 0016 9B00     		lsl	r3, r3, #2
 372 0018 E118     		add	r1, r4, r3
 373 001a 01A8     		add	r0, sp, #4
 374 001c 2A1C     		mov	r2, r5
 375 001e FFF7FEFF 		bl	W25QXX_Write
 376              	.LVL34:
 163:Code\Device\W25Q80/user_data.c **** }
 377              		.loc 1 163 0
 378 0022 05B0     		add	sp, sp, #20
 379              		@ sp needed
 380 0024 30BD     		pop	{r4, r5, pc}
 381              		.cfi_endproc
 382              	.LFE70:
 383              		.size	user_del_info, .-user_del_info
 384              		.section	.text.user_get_info,"ax",%progbits
 385              		.align	1
 386              		.global	user_get_info
 387              		.code	16
 388              		.thumb_func
 389              		.type	user_get_info, %function
 390              	user_get_info:
 391              	.LFB71:
ARM GAS  C:\Users\Administrator\AppData\Local\Temp\ccShlVUx.s 			page 11


 164:Code\Device\W25Q80/user_data.c **** 
 165:Code\Device\W25Q80/user_data.c **** //*************************************************************************************************
 166:Code\Device\W25Q80/user_data.c **** // Function name	: user_get_info
 167:Code\Device\W25Q80/user_data.c **** // Description		: 根据user_id来获取Info用户信息
 168:Code\Device\W25Q80/user_data.c **** // Parameter		: user_id，user_info_t
 169:Code\Device\W25Q80/user_data.c **** // Return			: none
 170:Code\Device\W25Q80/user_data.c **** //-------------------------------------------------------------------------------------------------
 171:Code\Device\W25Q80/user_data.c **** // Info				: 
 172:Code\Device\W25Q80/user_data.c **** //*************************************************************************************************
 173:Code\Device\W25Q80/user_data.c **** void user_get_info(uint16 user_id, user_info_t *info)
 174:Code\Device\W25Q80/user_data.c **** {
 392              		.loc 1 174 0
 393              		.cfi_startproc
 394              	.LVL35:
 175:Code\Device\W25Q80/user_data.c **** 	W25QXX_Read((uint8 *)info, USER_INFO_BASE + sizeof(user_info_t) * user_id, (uint16)sizeof(user_inf
 395              		.loc 1 175 0
 396 0000 0C22     		mov	r2, #12
 397 0002 031C     		mov	r3, r0
 174:Code\Device\W25Q80/user_data.c **** 	W25QXX_Read((uint8 *)info, USER_INFO_BASE + sizeof(user_info_t) * user_id, (uint16)sizeof(user_inf
 398              		.loc 1 174 0
 399 0004 10B5     		push	{r4, lr}
 400              		.cfi_def_cfa_offset 8
 401              		.cfi_offset 4, -8
 402              		.cfi_offset 14, -4
 174:Code\Device\W25Q80/user_data.c **** 	W25QXX_Read((uint8 *)info, USER_INFO_BASE + sizeof(user_info_t) * user_id, (uint16)sizeof(user_inf
 403              		.loc 1 174 0
 404 0006 0C1C     		mov	r4, r1
 405              		.loc 1 175 0
 406 0008 8021     		mov	r1, #128
 407              	.LVL36:
 408 000a 5343     		mul	r3, r2
 409 000c 8900     		lsl	r1, r1, #2
 410 000e 5918     		add	r1, r3, r1
 411 0010 201C     		mov	r0, r4
 412              	.LVL37:
 413 0012 FFF7FEFF 		bl	W25QXX_Read
 414              	.LVL38:
 176:Code\Device\W25Q80/user_data.c **** }
 415              		.loc 1 176 0
 416              		@ sp needed
 417              	.LVL39:
 418 0016 10BD     		pop	{r4, pc}
 419              		.cfi_endproc
 420              	.LFE71:
 421              		.size	user_get_info, .-user_get_info
 422              		.section	.text.user_get_card_uid,"ax",%progbits
 423              		.align	1
 424              		.global	user_get_card_uid
 425              		.code	16
 426              		.thumb_func
 427              		.type	user_get_card_uid, %function
 428              	user_get_card_uid:
 429              	.LFB72:
 177:Code\Device\W25Q80/user_data.c **** 
 178:Code\Device\W25Q80/user_data.c **** //*************************************************************************************************
 179:Code\Device\W25Q80/user_data.c **** // Function name	: user_get_card_uid
 180:Code\Device\W25Q80/user_data.c **** // Description		: 根据user_id来获取卡uid
ARM GAS  C:\Users\Administrator\AppData\Local\Temp\ccShlVUx.s 			page 12


 181:Code\Device\W25Q80/user_data.c **** // Parameter		: user_id，*card_uid
 182:Code\Device\W25Q80/user_data.c **** // Return			: none
 183:Code\Device\W25Q80/user_data.c **** //-------------------------------------------------------------------------------------------------
 184:Code\Device\W25Q80/user_data.c **** // Info				: 
 185:Code\Device\W25Q80/user_data.c **** //*************************************************************************************************
 186:Code\Device\W25Q80/user_data.c **** void user_get_card_uid(uint16 user_id, uint8 *card_uid)
 187:Code\Device\W25Q80/user_data.c **** {
 430              		.loc 1 187 0
 431              		.cfi_startproc
 432              	.LVL40:
 433 0000 08B5     		push	{r3, lr}
 434              		.cfi_def_cfa_offset 8
 435              		.cfi_offset 3, -8
 436              		.cfi_offset 14, -4
 188:Code\Device\W25Q80/user_data.c **** 	W25QXX_Read(card_uid, USER_INFO_BASE + sizeof(user_info_t) * user_id + offsetof(user_info_t, card_
 437              		.loc 1 188 0
 438 0002 0C23     		mov	r3, #12
 187:Code\Device\W25Q80/user_data.c **** 	W25QXX_Read(card_uid, USER_INFO_BASE + sizeof(user_info_t) * user_id + offsetof(user_info_t, card_
 439              		.loc 1 187 0
 440 0004 0A1C     		mov	r2, r1
 441              		.loc 1 188 0
 442 0006 8021     		mov	r1, #128
 443              	.LVL41:
 444 0008 4343     		mul	r3, r0
 445 000a 8900     		lsl	r1, r1, #2
 446 000c 101C     		mov	r0, r2
 447              	.LVL42:
 448 000e 5918     		add	r1, r3, r1
 449 0010 0822     		mov	r2, #8
 450              	.LVL43:
 451 0012 FFF7FEFF 		bl	W25QXX_Read
 452              	.LVL44:
 189:Code\Device\W25Q80/user_data.c **** }
 453              		.loc 1 189 0
 454              		@ sp needed
 455 0016 08BD     		pop	{r3, pc}
 456              		.cfi_endproc
 457              	.LFE72:
 458              		.size	user_get_card_uid, .-user_get_card_uid
 459              		.section	.text.user_get_user_id,"ax",%progbits
 460              		.align	1
 461              		.global	user_get_user_id
 462              		.code	16
 463              		.thumb_func
 464              		.type	user_get_user_id, %function
 465              	user_get_user_id:
 466              	.LFB73:
 190:Code\Device\W25Q80/user_data.c **** 
 191:Code\Device\W25Q80/user_data.c **** //*************************************************************************************************
 192:Code\Device\W25Q80/user_data.c **** // Function name	: user_get_user_id
 193:Code\Device\W25Q80/user_data.c **** // Description		: 根据uid信息来获取user_id
 194:Code\Device\W25Q80/user_data.c **** // Parameter		: *user_id ，*card_uid
 195:Code\Device\W25Q80/user_data.c **** // Return			: none
 196:Code\Device\W25Q80/user_data.c **** //-------------------------------------------------------------------------------------------------
 197:Code\Device\W25Q80/user_data.c **** // Info				: 读到卡了，返回卡用户编号
 198:Code\Device\W25Q80/user_data.c **** //					: 没读到卡，返回MAX_USR_NUM
 199:Code\Device\W25Q80/user_data.c **** //*************************************************************************************************
ARM GAS  C:\Users\Administrator\AppData\Local\Temp\ccShlVUx.s 			page 13


 200:Code\Device\W25Q80/user_data.c **** void user_get_user_id(uint16 *user_id, uint8 *card_uid)
 201:Code\Device\W25Q80/user_data.c **** {
 467              		.loc 1 201 0
 468              		.cfi_startproc
 469              	.LVL45:
 470 0000 FFB5     		push	{r0, r1, r2, r3, r4, r5, r6, r7, lr}
 471              		.cfi_def_cfa_offset 36
 472              		.cfi_offset 0, -36
 473              		.cfi_offset 1, -32
 474              		.cfi_offset 2, -28
 475              		.cfi_offset 3, -24
 476              		.cfi_offset 4, -20
 477              		.cfi_offset 5, -16
 478              		.cfi_offset 6, -12
 479              		.cfi_offset 7, -8
 480              		.cfi_offset 14, -4
 202:Code\Device\W25Q80/user_data.c **** 	uint16 i;
 203:Code\Device\W25Q80/user_data.c **** 	uint8 ret;
 204:Code\Device\W25Q80/user_data.c **** 	uint8 flag[USER_FLAG_SIZE];
 205:Code\Device\W25Q80/user_data.c **** 	uint8 card_id_eeprom[CARD_UID_LEN];
 206:Code\Device\W25Q80/user_data.c **** 	
 207:Code\Device\W25Q80/user_data.c **** 	W25QXX_Read(flag, USER_FLAG_BASE, USER_FLAG_SIZE);
 481              		.loc 1 207 0
 482 0002 FA22     		mov	r2, #250
 201:Code\Device\W25Q80/user_data.c **** 	uint16 i;
 483              		.loc 1 201 0
 484 0004 FFB0     		sub	sp, sp, #508
 485              		.cfi_def_cfa_offset 544
 486              		.loc 1 207 0
 487 0006 05AE     		add	r6, sp, #20
 201:Code\Device\W25Q80/user_data.c **** 	uint16 i;
 488              		.loc 1 201 0
 489 0008 0191     		str	r1, [sp, #4]
 490 000a 051C     		mov	r5, r0
 491              		.loc 1 207 0
 492 000c 0021     		mov	r1, #0
 493              	.LVL46:
 494 000e 301C     		mov	r0, r6
 495              	.LVL47:
 496 0010 5200     		lsl	r2, r2, #1
 497 0012 FFF7FEFF 		bl	W25QXX_Read
 498              	.LVL48:
 499 0016 0024     		mov	r4, #0
 500              	.LVL49:
 501              	.L20:
 208:Code\Device\W25Q80/user_data.c **** 	for (i = 0; i < USER_FLAG_SIZE; i++)
 209:Code\Device\W25Q80/user_data.c **** 	{
 210:Code\Device\W25Q80/user_data.c **** 		if (flag[i] == TRUE)
 502              		.loc 1 210 0
 503 0018 335D     		ldrb	r3, [r6, r4]
 504 001a A7B2     		uxth	r7, r4
 505              	.LVL50:
 506 001c 012B     		cmp	r3, #1
 507 001e 0DD1     		bne	.L18
 211:Code\Device\W25Q80/user_data.c **** 		{
 212:Code\Device\W25Q80/user_data.c **** 			user_get_card_uid(i, card_id_eeprom);
 508              		.loc 1 212 0
ARM GAS  C:\Users\Administrator\AppData\Local\Temp\ccShlVUx.s 			page 14


 509 0020 381C     		mov	r0, r7
 510 0022 03A9     		add	r1, sp, #12
 511 0024 FFF7FEFF 		bl	user_get_card_uid
 512              	.LVL51:
 213:Code\Device\W25Q80/user_data.c **** 			ret = memcmp(card_uid, card_id_eeprom, CARD_UID_LEN);
 513              		.loc 1 213 0
 514 0028 0198     		ldr	r0, [sp, #4]
 515 002a 03A9     		add	r1, sp, #12
 516 002c 0822     		mov	r2, #8
 517 002e FFF7FEFF 		bl	memcmp
 518              	.LVL52:
 214:Code\Device\W25Q80/user_data.c **** 			if (ret == 0)											
 519              		.loc 1 214 0
 520 0032 C0B2     		uxtb	r0, r0
 521 0034 0028     		cmp	r0, #0
 522 0036 01D1     		bne	.L18
 215:Code\Device\W25Q80/user_data.c **** 			{
 216:Code\Device\W25Q80/user_data.c **** 				*user_id = i;
 523              		.loc 1 216 0
 524 0038 2F80     		strh	r7, [r5]
 525 003a 05E0     		b	.L17
 526              	.LVL53:
 527              	.L18:
 208:Code\Device\W25Q80/user_data.c **** 	{
 528              		.loc 1 208 0
 529 003c FA23     		mov	r3, #250
 530 003e 0134     		add	r4, r4, #1
 531              	.LVL54:
 532 0040 5B00     		lsl	r3, r3, #1
 533 0042 9C42     		cmp	r4, r3
 534 0044 E8D1     		bne	.L20
 217:Code\Device\W25Q80/user_data.c **** 				return;
 218:Code\Device\W25Q80/user_data.c **** 			}
 219:Code\Device\W25Q80/user_data.c **** 		}
 220:Code\Device\W25Q80/user_data.c **** 	}
 221:Code\Device\W25Q80/user_data.c **** 	*user_id = MAX_USR_NUM;
 535              		.loc 1 221 0
 536 0046 2C80     		strh	r4, [r5]
 537              	.LVL55:
 538              	.L17:
 222:Code\Device\W25Q80/user_data.c **** }
 539              		.loc 1 222 0
 540 0048 7FB0     		add	sp, sp, #508
 541              		@ sp needed
 542              	.LVL56:
 543 004a FFBD     		pop	{r0, r1, r2, r3, r4, r5, r6, r7, pc}
 544              		.cfi_endproc
 545              	.LFE73:
 546              		.size	user_get_user_id, .-user_get_user_id
 547              		.section	.text.user_get_valid_time,"ax",%progbits
 548              		.align	1
 549              		.global	user_get_valid_time
 550              		.code	16
 551              		.thumb_func
 552              		.type	user_get_valid_time, %function
 553              	user_get_valid_time:
 554              	.LFB74:
ARM GAS  C:\Users\Administrator\AppData\Local\Temp\ccShlVUx.s 			page 15


 223:Code\Device\W25Q80/user_data.c **** 
 224:Code\Device\W25Q80/user_data.c **** //*************************************************************************************************
 225:Code\Device\W25Q80/user_data.c **** // Function name	: user_get_valid_time
 226:Code\Device\W25Q80/user_data.c **** // Description		: 获取已存用户的有效时间
 227:Code\Device\W25Q80/user_data.c **** // Parameter		: user_id，*valid_time
 228:Code\Device\W25Q80/user_data.c **** // Return			: none
 229:Code\Device\W25Q80/user_data.c **** //-------------------------------------------------------------------------------------------------
 230:Code\Device\W25Q80/user_data.c **** // Info				: 
 231:Code\Device\W25Q80/user_data.c **** //*************************************************************************************************
 232:Code\Device\W25Q80/user_data.c **** void user_get_valid_time(uint16 user_id, uint8 *valid_time)
 233:Code\Device\W25Q80/user_data.c **** {
 555              		.loc 1 233 0
 556              		.cfi_startproc
 557              	.LVL57:
 558 0000 08B5     		push	{r3, lr}
 559              		.cfi_def_cfa_offset 8
 560              		.cfi_offset 3, -8
 561              		.cfi_offset 14, -4
 234:Code\Device\W25Q80/user_data.c **** 	W25QXX_Read(valid_time, USER_INFO_BASE + sizeof(user_info_t) * user_id + offsetof(user_info_t, val
 562              		.loc 1 234 0
 563 0002 0C23     		mov	r3, #12
 233:Code\Device\W25Q80/user_data.c **** 	W25QXX_Read(valid_time, USER_INFO_BASE + sizeof(user_info_t) * user_id + offsetof(user_info_t, val
 564              		.loc 1 233 0
 565 0004 0A1C     		mov	r2, r1
 566              		.loc 1 234 0
 567 0006 8221     		mov	r1, #130
 568              	.LVL58:
 569 0008 4343     		mul	r3, r0
 570 000a 8900     		lsl	r1, r1, #2
 571 000c 101C     		mov	r0, r2
 572              	.LVL59:
 573 000e 5918     		add	r1, r3, r1
 574 0010 0422     		mov	r2, #4
 575              	.LVL60:
 576 0012 FFF7FEFF 		bl	W25QXX_Read
 577              	.LVL61:
 235:Code\Device\W25Q80/user_data.c **** }
 578              		.loc 1 235 0
 579              		@ sp needed
 580 0016 08BD     		pop	{r3, pc}
 581              		.cfi_endproc
 582              	.LFE74:
 583              		.size	user_get_valid_time, .-user_get_valid_time
 584              		.section	.text.add_user,"ax",%progbits
 585              		.align	1
 586              		.global	add_user
 587              		.code	16
 588              		.thumb_func
 589              		.type	add_user, %function
 590              	add_user:
 591              	.LFB75:
 236:Code\Device\W25Q80/user_data.c **** 
 237:Code\Device\W25Q80/user_data.c **** //*************************************************************************************************
 238:Code\Device\W25Q80/user_data.c **** // Function name	: add_user
 239:Code\Device\W25Q80/user_data.c **** // Description		: 添加用户信息
 240:Code\Device\W25Q80/user_data.c **** // Parameter		: user_id，*user_info_t
 241:Code\Device\W25Q80/user_data.c **** // Return			: TRUE / FALSE
ARM GAS  C:\Users\Administrator\AppData\Local\Temp\ccShlVUx.s 			page 16


 242:Code\Device\W25Q80/user_data.c **** //-------------------------------------------------------------------------------------------------
 243:Code\Device\W25Q80/user_data.c **** // Info				: 
 244:Code\Device\W25Q80/user_data.c **** //*************************************************************************************************
 245:Code\Device\W25Q80/user_data.c **** uint8 add_user(uint16 user_id,  user_info_t *info)
 246:Code\Device\W25Q80/user_data.c **** {
 592              		.loc 1 246 0
 593              		.cfi_startproc
 594              	.LVL62:
 595 0000 30B5     		push	{r4, r5, lr}
 596              		.cfi_def_cfa_offset 12
 597              		.cfi_offset 4, -12
 598              		.cfi_offset 5, -8
 599              		.cfi_offset 14, -4
 600 0002 041C     		mov	r4, r0
 601 0004 0D1C     		mov	r5, r1
 602 0006 85B0     		sub	sp, sp, #20
 603              		.cfi_def_cfa_offset 32
 247:Code\Device\W25Q80/user_data.c **** 	user_info_t info_tmp;
 248:Code\Device\W25Q80/user_data.c **** 	
 249:Code\Device\W25Q80/user_data.c **** 	user_add_info(user_id, info);
 604              		.loc 1 249 0
 605 0008 FFF7FEFF 		bl	user_add_info
 606              	.LVL63:
 250:Code\Device\W25Q80/user_data.c **** 	user_get_info(user_id, &info_tmp);
 607              		.loc 1 250 0
 608 000c 201C     		mov	r0, r4
 609 000e 01A9     		add	r1, sp, #4
 610 0010 FFF7FEFF 		bl	user_get_info
 611              	.LVL64:
 251:Code\Device\W25Q80/user_data.c **** 	if (0 == memcmp(info, &info_tmp, sizeof(user_info_t)))
 612              		.loc 1 251 0
 613 0014 281C     		mov	r0, r5
 614 0016 01A9     		add	r1, sp, #4
 615 0018 0C22     		mov	r2, #12
 616 001a FFF7FEFF 		bl	memcmp
 617              	.LVL65:
 252:Code\Device\W25Q80/user_data.c **** 	{
 253:Code\Device\W25Q80/user_data.c **** 		user_set_valid_flag(user_id);
 254:Code\Device\W25Q80/user_data.c **** 		return TRUE;
 255:Code\Device\W25Q80/user_data.c **** 	}
 256:Code\Device\W25Q80/user_data.c **** 	else
 257:Code\Device\W25Q80/user_data.c **** 	{
 258:Code\Device\W25Q80/user_data.c **** 		return FALSE;
 618              		.loc 1 258 0
 619 001e 0023     		mov	r3, #0
 251:Code\Device\W25Q80/user_data.c **** 	if (0 == memcmp(info, &info_tmp, sizeof(user_info_t)))
 620              		.loc 1 251 0
 621 0020 9842     		cmp	r0, r3
 622 0022 03D1     		bne	.L23
 253:Code\Device\W25Q80/user_data.c **** 		return TRUE;
 623              		.loc 1 253 0
 624 0024 201C     		mov	r0, r4
 625 0026 FFF7FEFF 		bl	user_set_valid_flag
 626              	.LVL66:
 254:Code\Device\W25Q80/user_data.c **** 	}
 627              		.loc 1 254 0
 628 002a 0123     		mov	r3, #1
ARM GAS  C:\Users\Administrator\AppData\Local\Temp\ccShlVUx.s 			page 17


 629              	.L23:
 259:Code\Device\W25Q80/user_data.c **** 	}
 260:Code\Device\W25Q80/user_data.c **** }
 630              		.loc 1 260 0
 631 002c 181C     		mov	r0, r3
 632 002e 05B0     		add	sp, sp, #20
 633              		@ sp needed
 634              	.LVL67:
 635 0030 30BD     		pop	{r4, r5, pc}
 636              		.cfi_endproc
 637              	.LFE75:
 638              		.size	add_user, .-add_user
 639              		.section	.text.chg_user,"ax",%progbits
 640              		.align	1
 641              		.global	chg_user
 642              		.code	16
 643              		.thumb_func
 644              		.type	chg_user, %function
 645              	chg_user:
 646              	.LFB76:
 261:Code\Device\W25Q80/user_data.c **** 
 262:Code\Device\W25Q80/user_data.c **** //*************************************************************************************************
 263:Code\Device\W25Q80/user_data.c **** // Function name	: chg_user
 264:Code\Device\W25Q80/user_data.c **** // Description		: 修改用户信息
 265:Code\Device\W25Q80/user_data.c **** // Parameter		: user_id，*user_info_t
 266:Code\Device\W25Q80/user_data.c **** // Return			: TRUE / FALSE
 267:Code\Device\W25Q80/user_data.c **** //-------------------------------------------------------------------------------------------------
 268:Code\Device\W25Q80/user_data.c **** // Info				: 
 269:Code\Device\W25Q80/user_data.c **** //*************************************************************************************************
 270:Code\Device\W25Q80/user_data.c **** uint8 chg_user(uint16 user_id, user_info_t *info)
 271:Code\Device\W25Q80/user_data.c **** {
 647              		.loc 1 271 0
 648              		.cfi_startproc
 649              	.LVL68:
 650 0000 30B5     		push	{r4, r5, lr}
 651              		.cfi_def_cfa_offset 12
 652              		.cfi_offset 4, -12
 653              		.cfi_offset 5, -8
 654              		.cfi_offset 14, -4
 655 0002 051C     		mov	r5, r0
 656 0004 0C1C     		mov	r4, r1
 657 0006 85B0     		sub	sp, sp, #20
 658              		.cfi_def_cfa_offset 32
 272:Code\Device\W25Q80/user_data.c **** 	user_info_t info_tmp;
 273:Code\Device\W25Q80/user_data.c **** 	
 274:Code\Device\W25Q80/user_data.c **** 	user_add_info(user_id, info);
 659              		.loc 1 274 0
 660 0008 FFF7FEFF 		bl	user_add_info
 661              	.LVL69:
 275:Code\Device\W25Q80/user_data.c **** 	user_get_info(user_id, &info_tmp);
 662              		.loc 1 275 0
 663 000c 281C     		mov	r0, r5
 664 000e 01A9     		add	r1, sp, #4
 665 0010 FFF7FEFF 		bl	user_get_info
 666              	.LVL70:
 276:Code\Device\W25Q80/user_data.c **** 	if (0 == memcmp(info, &info_tmp, sizeof(user_info_t)))
 667              		.loc 1 276 0
ARM GAS  C:\Users\Administrator\AppData\Local\Temp\ccShlVUx.s 			page 18


 668 0014 201C     		mov	r0, r4
 669 0016 01A9     		add	r1, sp, #4
 670 0018 0C22     		mov	r2, #12
 671 001a FFF7FEFF 		bl	memcmp
 672              	.LVL71:
 673 001e 4342     		neg	r3, r0
 674 0020 5841     		adc	r0, r0, r3
 675 0022 C0B2     		uxtb	r0, r0
 277:Code\Device\W25Q80/user_data.c **** 	{
 278:Code\Device\W25Q80/user_data.c **** 		return TRUE;
 279:Code\Device\W25Q80/user_data.c **** 	}
 280:Code\Device\W25Q80/user_data.c **** 	else
 281:Code\Device\W25Q80/user_data.c **** 	{
 282:Code\Device\W25Q80/user_data.c **** 		return FALSE;
 283:Code\Device\W25Q80/user_data.c **** 	}
 284:Code\Device\W25Q80/user_data.c **** }
 676              		.loc 1 284 0
 677 0024 05B0     		add	sp, sp, #20
 678              		@ sp needed
 679              	.LVL72:
 680 0026 30BD     		pop	{r4, r5, pc}
 681              		.cfi_endproc
 682              	.LFE76:
 683              		.size	chg_user, .-chg_user
 684              		.section	.text.del_user,"ax",%progbits
 685              		.align	1
 686              		.global	del_user
 687              		.code	16
 688              		.thumb_func
 689              		.type	del_user, %function
 690              	del_user:
 691              	.LFB77:
 285:Code\Device\W25Q80/user_data.c **** 
 286:Code\Device\W25Q80/user_data.c **** //*************************************************************************************************
 287:Code\Device\W25Q80/user_data.c **** // Function name	: del_user
 288:Code\Device\W25Q80/user_data.c **** // Description		: 删除用户信息
 289:Code\Device\W25Q80/user_data.c **** // Parameter		: user_id
 290:Code\Device\W25Q80/user_data.c **** // Return			: none
 291:Code\Device\W25Q80/user_data.c **** //-------------------------------------------------------------------------------------------------
 292:Code\Device\W25Q80/user_data.c **** // Info				: 删除后取卡UID和有效期的一个数来验证确认是否删除.
 293:Code\Device\W25Q80/user_data.c **** //-------------------------------------------------------------------------------------------------
 294:Code\Device\W25Q80/user_data.c **** //					: 还可以再写一个根据UID来删除的函数
 295:Code\Device\W25Q80/user_data.c **** //*************************************************************************************************
 296:Code\Device\W25Q80/user_data.c **** uint8 del_user(uint16 user_id)
 297:Code\Device\W25Q80/user_data.c **** {
 692              		.loc 1 297 0
 693              		.cfi_startproc
 694              	.LVL73:
 695 0000 30B5     		push	{r4, r5, lr}
 696              		.cfi_def_cfa_offset 12
 697              		.cfi_offset 4, -12
 698              		.cfi_offset 5, -8
 699              		.cfi_offset 14, -4
 700 0002 041C     		mov	r4, r0
 701 0004 85B0     		sub	sp, sp, #20
 702              		.cfi_def_cfa_offset 32
 298:Code\Device\W25Q80/user_data.c **** 	user_info_t info_tmp;
ARM GAS  C:\Users\Administrator\AppData\Local\Temp\ccShlVUx.s 			page 19


 299:Code\Device\W25Q80/user_data.c **** 	
 300:Code\Device\W25Q80/user_data.c **** 	user_del_info(user_id);
 301:Code\Device\W25Q80/user_data.c **** 	user_get_info(user_id, &info_tmp);
 703              		.loc 1 301 0
 704 0006 01AD     		add	r5, sp, #4
 300:Code\Device\W25Q80/user_data.c **** 	user_get_info(user_id, &info_tmp);
 705              		.loc 1 300 0
 706 0008 FFF7FEFF 		bl	user_del_info
 707              	.LVL74:
 708              		.loc 1 301 0
 709 000c 201C     		mov	r0, r4
 710 000e 291C     		mov	r1, r5
 711 0010 FFF7FEFF 		bl	user_get_info
 712              	.LVL75:
 302:Code\Device\W25Q80/user_data.c **** 	if ((info_tmp.card_uid[5] == 0) && (info_tmp.valid_time[3] == 0))
 713              		.loc 1 302 0
 714 0014 6879     		ldrb	r0, [r5, #5]
 715 0016 0028     		cmp	r0, #0
 716 0018 07D1     		bne	.L28
 717              		.loc 1 302 0 is_stmt 0 discriminator 1
 718 001a EB7A     		ldrb	r3, [r5, #11]
 719 001c 002B     		cmp	r3, #0
 720 001e 05D1     		bne	.L27
 303:Code\Device\W25Q80/user_data.c **** 	{
 304:Code\Device\W25Q80/user_data.c **** 		user_clr_valid_flag(user_id);
 721              		.loc 1 304 0 is_stmt 1
 722 0020 201C     		mov	r0, r4
 723 0022 FFF7FEFF 		bl	user_clr_valid_flag
 724              	.LVL76:
 305:Code\Device\W25Q80/user_data.c **** 		return TRUE;
 725              		.loc 1 305 0
 726 0026 0120     		mov	r0, #1
 727 0028 00E0     		b	.L27
 728              	.L28:
 306:Code\Device\W25Q80/user_data.c **** 	}
 307:Code\Device\W25Q80/user_data.c **** 	else
 308:Code\Device\W25Q80/user_data.c **** 	{
 309:Code\Device\W25Q80/user_data.c **** 		return FALSE;
 729              		.loc 1 309 0
 730 002a 0020     		mov	r0, #0
 731              	.L27:
 310:Code\Device\W25Q80/user_data.c **** 	}
 311:Code\Device\W25Q80/user_data.c **** }
 732              		.loc 1 311 0
 733 002c 05B0     		add	sp, sp, #20
 734              		@ sp needed
 735 002e 30BD     		pop	{r4, r5, pc}
 736              		.cfi_endproc
 737              	.LFE77:
 738              		.size	del_user, .-del_user
 739              		.section	.text.clr_user,"ax",%progbits
 740              		.align	1
 741              		.global	clr_user
 742              		.code	16
 743              		.thumb_func
 744              		.type	clr_user, %function
 745              	clr_user:
ARM GAS  C:\Users\Administrator\AppData\Local\Temp\ccShlVUx.s 			page 20


 746              	.LFB78:
 312:Code\Device\W25Q80/user_data.c **** 
 313:Code\Device\W25Q80/user_data.c **** //*************************************************************************************************
 314:Code\Device\W25Q80/user_data.c **** // Function name	: clr_user
 315:Code\Device\W25Q80/user_data.c **** // Description		: 清空所有用户
 316:Code\Device\W25Q80/user_data.c **** // Parameter		: user_id
 317:Code\Device\W25Q80/user_data.c **** // Return			: none
 318:Code\Device\W25Q80/user_data.c **** //-------------------------------------------------------------------------------------------------
 319:Code\Device\W25Q80/user_data.c **** // Info				: 清空所有用户时，是否保留房东？
 320:Code\Device\W25Q80/user_data.c **** //					: 与平涛沟通后，确认全删，锁不管业务层的处理.170829-19:29.
 321:Code\Device\W25Q80/user_data.c **** //*************************************************************************************************
 322:Code\Device\W25Q80/user_data.c **** uint8 clr_user(void)
 323:Code\Device\W25Q80/user_data.c **** {
 747              		.loc 1 323 0
 748              		.cfi_startproc
 749 0000 30B5     		push	{r4, r5, lr}
 750              		.cfi_def_cfa_offset 12
 751              		.cfi_offset 4, -12
 752              		.cfi_offset 5, -8
 753              		.cfi_offset 14, -4
 324:Code\Device\W25Q80/user_data.c **** 	uint8_t userflag[USER_FLAG_SIZE] = {0};
 754              		.loc 1 324 0
 755 0002 FA25     		mov	r5, #250
 323:Code\Device\W25Q80/user_data.c **** 	uint8_t userflag[USER_FLAG_SIZE] = {0};
 756              		.loc 1 323 0
 757 0004 0E4C     		ldr	r4, .L30
 758              		.loc 1 324 0
 759 0006 6D00     		lsl	r5, r5, #1
 323:Code\Device\W25Q80/user_data.c **** 	uint8_t userflag[USER_FLAG_SIZE] = {0};
 760              		.loc 1 323 0
 761 0008 A544     		add	sp, sp, r4
 762              		.cfi_def_cfa_offset 6520
 325:Code\Device\W25Q80/user_data.c **** 	uint8_t userinfo[USER_FLAG_SIZE * sizeof(user_info_t)] = {0};
 763              		.loc 1 325 0
 764 000a 0E4C     		ldr	r4, .L30+4
 324:Code\Device\W25Q80/user_data.c **** 	uint8_t userflag[USER_FLAG_SIZE] = {0};
 765              		.loc 1 324 0
 766 000c 2A1C     		mov	r2, r5
 767 000e 01A8     		add	r0, sp, #4
 768 0010 0021     		mov	r1, #0
 769 0012 FFF7FEFF 		bl	memset
 770              	.LVL77:
 771              		.loc 1 325 0
 772 0016 221C     		mov	r2, r4
 773 0018 7EA8     		add	r0, sp, #504
 774 001a 0021     		mov	r1, #0
 775 001c FFF7FEFF 		bl	memset
 776              	.LVL78:
 326:Code\Device\W25Q80/user_data.c **** 	
 327:Code\Device\W25Q80/user_data.c **** 	W25QXX_Write(userflag, USER_FLAG_BASE, USER_FLAG_SIZE);
 777              		.loc 1 327 0
 778 0020 01A8     		add	r0, sp, #4
 779 0022 2A1C     		mov	r2, r5
 780 0024 0021     		mov	r1, #0
 781 0026 FFF7FEFF 		bl	W25QXX_Write
 782              	.LVL79:
 328:Code\Device\W25Q80/user_data.c **** 	W25QXX_Write(userinfo, USER_INFO_BASE, MAX_USR_NUM * sizeof(user_info_t));
ARM GAS  C:\Users\Administrator\AppData\Local\Temp\ccShlVUx.s 			page 21


 783              		.loc 1 328 0
 784 002a 8021     		mov	r1, #128
 785 002c 7EA8     		add	r0, sp, #504
 786 002e 8900     		lsl	r1, r1, #2
 787 0030 221C     		mov	r2, r4
 788 0032 FFF7FEFF 		bl	W25QXX_Write
 789              	.LVL80:
 329:Code\Device\W25Q80/user_data.c **** 	return TRUE;
 330:Code\Device\W25Q80/user_data.c **** }
 790              		.loc 1 330 0
 791 0036 0120     		mov	r0, #1
 792 0038 034B     		ldr	r3, .L30+8
 793 003a 9D44     		add	sp, sp, r3
 794              		@ sp needed
 795 003c 30BD     		pop	{r4, r5, pc}
 796              	.L31:
 797 003e C046     		.align	2
 798              	.L30:
 799 0040 94E6FFFF 		.word	-6508
 800 0044 70170000 		.word	6000
 801 0048 6C190000 		.word	6508
 802              		.cfi_endproc
 803              	.LFE78:
 804              		.size	clr_user, .-clr_user
 805              		.section	.text.UserData_Add_User,"ax",%progbits
 806              		.align	1
 807              		.global	UserData_Add_User
 808              		.code	16
 809              		.thumb_func
 810              		.type	UserData_Add_User, %function
 811              	UserData_Add_User:
 812              	.LFB79:
 331:Code\Device\W25Q80/user_data.c **** 
 332:Code\Device\W25Q80/user_data.c **** //*************************************************************************************************
 333:Code\Device\W25Q80/user_data.c **** // Function name	: UserData_Add_User
 334:Code\Device\W25Q80/user_data.c **** // Description		: 添加用户
 335:Code\Device\W25Q80/user_data.c **** // Parameter		: info	: 用户信息
 336:Code\Device\W25Q80/user_data.c **** // Return			: 处理结果
 337:Code\Device\W25Q80/user_data.c **** //-------------------------------------------------------------------------------------------------
 338:Code\Device\W25Q80/user_data.c **** // Info				: 
 339:Code\Device\W25Q80/user_data.c **** //*************************************************************************************************
 340:Code\Device\W25Q80/user_data.c **** uint8 UserData_Add_User(user_info_t *info)
 341:Code\Device\W25Q80/user_data.c **** {
 813              		.loc 1 341 0
 814              		.cfi_startproc
 815              	.LVL81:
 816 0000 73B5     		push	{r0, r1, r4, r5, r6, lr}
 817              		.cfi_def_cfa_offset 24
 818              		.cfi_offset 0, -24
 819              		.cfi_offset 1, -20
 820              		.cfi_offset 4, -16
 821              		.cfi_offset 5, -12
 822              		.cfi_offset 6, -8
 823              		.cfi_offset 14, -4
 342:Code\Device\W25Q80/user_data.c **** 	uint16_t user_id = 0;
 824              		.loc 1 342 0
 825 0002 6B46     		mov	r3, sp
ARM GAS  C:\Users\Administrator\AppData\Local\Temp\ccShlVUx.s 			page 22


 341:Code\Device\W25Q80/user_data.c **** 	uint16_t user_id = 0;
 826              		.loc 1 341 0
 827 0004 061C     		mov	r6, r0
 828              		.loc 1 342 0
 829 0006 0024     		mov	r4, #0
 830 0008 9D1D     		add	r5, r3, #6
 343:Code\Device\W25Q80/user_data.c **** 	
 344:Code\Device\W25Q80/user_data.c **** 	user_get_user_id(&user_id, info->card_uid);
 831              		.loc 1 344 0
 832 000a 281C     		mov	r0, r5
 833              	.LVL82:
 834 000c 311C     		mov	r1, r6
 342:Code\Device\W25Q80/user_data.c **** 	
 835              		.loc 1 342 0
 836 000e 2C80     		strh	r4, [r5]
 837              		.loc 1 344 0
 838 0010 FFF7FEFF 		bl	user_get_user_id
 839              	.LVL83:
 345:Code\Device\W25Q80/user_data.c **** 	if (user_id < MAX_USR_NUM)
 840              		.loc 1 345 0
 841 0014 F423     		mov	r3, #244
 842 0016 2888     		ldrh	r0, [r5]
 843 0018 FF33     		add	r3, r3, #255
 844 001a 9842     		cmp	r0, r3
 845 001c 03D8     		bhi	.L33
 346:Code\Device\W25Q80/user_data.c **** 	{
 347:Code\Device\W25Q80/user_data.c **** 		if (TRUE == chg_user(user_id, info))
 846              		.loc 1 347 0
 847 001e 311C     		mov	r1, r6
 848 0020 FFF7FEFF 		bl	chg_user
 849              	.LVL84:
 850 0024 0AE0     		b	.L36
 851              	.L33:
 348:Code\Device\W25Q80/user_data.c **** 		{
 349:Code\Device\W25Q80/user_data.c **** 			return TRUE;
 350:Code\Device\W25Q80/user_data.c **** 		}
 351:Code\Device\W25Q80/user_data.c **** 		else
 352:Code\Device\W25Q80/user_data.c **** 		{
 353:Code\Device\W25Q80/user_data.c **** 			return FALSE;
 354:Code\Device\W25Q80/user_data.c **** 		}
 355:Code\Device\W25Q80/user_data.c **** 	}
 356:Code\Device\W25Q80/user_data.c **** 	else
 357:Code\Device\W25Q80/user_data.c **** 	{
 358:Code\Device\W25Q80/user_data.c **** 		if (RET_OK != (user_find_free_id(&user_id)))
 852              		.loc 1 358 0
 853 0026 281C     		mov	r0, r5
 854 0028 FFF7FEFF 		bl	user_find_free_id
 855              	.LVL85:
 856 002c 031C     		mov	r3, r0
 359:Code\Device\W25Q80/user_data.c **** 		{
 360:Code\Device\W25Q80/user_data.c **** 			return FALSE;
 857              		.loc 1 360 0
 858 002e 201C     		mov	r0, r4
 358:Code\Device\W25Q80/user_data.c **** 		{
 859              		.loc 1 358 0
 860 0030 012B     		cmp	r3, #1
 861 0032 07D1     		bne	.L34
ARM GAS  C:\Users\Administrator\AppData\Local\Temp\ccShlVUx.s 			page 23


 361:Code\Device\W25Q80/user_data.c **** 		}
 362:Code\Device\W25Q80/user_data.c **** 		else
 363:Code\Device\W25Q80/user_data.c **** 		{
 364:Code\Device\W25Q80/user_data.c **** 			if (TRUE == add_user(user_id, info))
 862              		.loc 1 364 0
 863 0034 2888     		ldrh	r0, [r5]
 864 0036 311C     		mov	r1, r6
 865 0038 FFF7FEFF 		bl	add_user
 866              	.LVL86:
 867              	.L36:
 868 003c 0138     		sub	r0, r0, #1
 869 003e 4342     		neg	r3, r0
 870 0040 5841     		adc	r0, r0, r3
 349:Code\Device\W25Q80/user_data.c **** 		}
 871              		.loc 1 349 0
 872 0042 C0B2     		uxtb	r0, r0
 873              	.L34:
 365:Code\Device\W25Q80/user_data.c **** 			{
 366:Code\Device\W25Q80/user_data.c **** 				return TRUE;
 367:Code\Device\W25Q80/user_data.c **** 			}
 368:Code\Device\W25Q80/user_data.c **** 			else
 369:Code\Device\W25Q80/user_data.c **** 			{
 370:Code\Device\W25Q80/user_data.c **** 				return FALSE;
 371:Code\Device\W25Q80/user_data.c **** 			}
 372:Code\Device\W25Q80/user_data.c **** 		}
 373:Code\Device\W25Q80/user_data.c **** 	}
 374:Code\Device\W25Q80/user_data.c **** }
 874              		.loc 1 374 0
 875              		@ sp needed
 876              	.LVL87:
 877 0044 76BD     		pop	{r1, r2, r4, r5, r6, pc}
 878              		.cfi_endproc
 879              	.LFE79:
 880              		.size	UserData_Add_User, .-UserData_Add_User
 881              		.section	.text.UserData_DEL_User,"ax",%progbits
 882              		.align	1
 883              		.global	UserData_DEL_User
 884              		.code	16
 885              		.thumb_func
 886              		.type	UserData_DEL_User, %function
 887              	UserData_DEL_User:
 888              	.LFB80:
 375:Code\Device\W25Q80/user_data.c **** 
 376:Code\Device\W25Q80/user_data.c **** //*************************************************************************************************
 377:Code\Device\W25Q80/user_data.c **** // Function name	: UserData_DEL_User
 378:Code\Device\W25Q80/user_data.c **** // Description		: 删除用户
 379:Code\Device\W25Q80/user_data.c **** // Parameter		: card_uid
 380:Code\Device\W25Q80/user_data.c **** // Return			: 处理结果
 381:Code\Device\W25Q80/user_data.c **** //-------------------------------------------------------------------------------------------------
 382:Code\Device\W25Q80/user_data.c **** // Info				: 
 383:Code\Device\W25Q80/user_data.c **** //*************************************************************************************************
 384:Code\Device\W25Q80/user_data.c **** uint8 UserData_DEL_User(uint8 *card_uid)
 385:Code\Device\W25Q80/user_data.c **** {
 889              		.loc 1 385 0
 890              		.cfi_startproc
 891              	.LVL88:
 892 0000 13B5     		push	{r0, r1, r4, lr}
ARM GAS  C:\Users\Administrator\AppData\Local\Temp\ccShlVUx.s 			page 24


 893              		.cfi_def_cfa_offset 16
 894              		.cfi_offset 0, -16
 895              		.cfi_offset 1, -12
 896              		.cfi_offset 4, -8
 897              		.cfi_offset 14, -4
 386:Code\Device\W25Q80/user_data.c **** 	uint16_t user_id = 0;
 898              		.loc 1 386 0
 899 0002 6B46     		mov	r3, sp
 900 0004 9C1D     		add	r4, r3, #6
 901 0006 0023     		mov	r3, #0
 385:Code\Device\W25Q80/user_data.c **** 	uint16_t user_id = 0;
 902              		.loc 1 385 0
 903 0008 011C     		mov	r1, r0
 387:Code\Device\W25Q80/user_data.c **** 	
 388:Code\Device\W25Q80/user_data.c **** 	user_get_user_id(&user_id, card_uid);
 904              		.loc 1 388 0
 905 000a 201C     		mov	r0, r4
 906              	.LVL89:
 386:Code\Device\W25Q80/user_data.c **** 	
 907              		.loc 1 386 0
 908 000c 2380     		strh	r3, [r4]
 909              		.loc 1 388 0
 910 000e FFF7FEFF 		bl	user_get_user_id
 911              	.LVL90:
 389:Code\Device\W25Q80/user_data.c **** 	if (user_id >= MAX_USR_NUM)
 912              		.loc 1 389 0
 913 0012 F422     		mov	r2, #244
 914 0014 2388     		ldrh	r3, [r4]
 915 0016 FF32     		add	r2, r2, #255
 390:Code\Device\W25Q80/user_data.c **** 	{
 391:Code\Device\W25Q80/user_data.c **** 		return 0x10;
 916              		.loc 1 391 0
 917 0018 1020     		mov	r0, #16
 389:Code\Device\W25Q80/user_data.c **** 	if (user_id >= MAX_USR_NUM)
 918              		.loc 1 389 0
 919 001a 9342     		cmp	r3, r2
 920 001c 06D8     		bhi	.L38
 392:Code\Device\W25Q80/user_data.c **** 	}
 393:Code\Device\W25Q80/user_data.c **** 	else
 394:Code\Device\W25Q80/user_data.c **** 	{
 395:Code\Device\W25Q80/user_data.c **** 		if (TRUE == del_user(user_id))
 921              		.loc 1 395 0
 922 001e 181C     		mov	r0, r3
 923 0020 FFF7FEFF 		bl	del_user
 924              	.LVL91:
 925 0024 0138     		sub	r0, r0, #1
 926 0026 4342     		neg	r3, r0
 927 0028 5841     		adc	r0, r0, r3
 391:Code\Device\W25Q80/user_data.c **** 	}
 928              		.loc 1 391 0
 929 002a C0B2     		uxtb	r0, r0
 930              	.L38:
 396:Code\Device\W25Q80/user_data.c **** 		{
 397:Code\Device\W25Q80/user_data.c **** 			return TRUE;
 398:Code\Device\W25Q80/user_data.c **** 		}
 399:Code\Device\W25Q80/user_data.c **** 		else
 400:Code\Device\W25Q80/user_data.c **** 		{
ARM GAS  C:\Users\Administrator\AppData\Local\Temp\ccShlVUx.s 			page 25


 401:Code\Device\W25Q80/user_data.c **** 			return FALSE;
 402:Code\Device\W25Q80/user_data.c **** 		}
 403:Code\Device\W25Q80/user_data.c **** 	}
 404:Code\Device\W25Q80/user_data.c **** }
 931              		.loc 1 404 0
 932              		@ sp needed
 933 002c 16BD     		pop	{r1, r2, r4, pc}
 934              		.cfi_endproc
 935              	.LFE80:
 936              		.size	UserData_DEL_User, .-UserData_DEL_User
 937              		.section	.text.UserData_CLR_User,"ax",%progbits
 938              		.align	1
 939              		.global	UserData_CLR_User
 940              		.code	16
 941              		.thumb_func
 942              		.type	UserData_CLR_User, %function
 943              	UserData_CLR_User:
 944              	.LFB81:
 405:Code\Device\W25Q80/user_data.c **** 
 406:Code\Device\W25Q80/user_data.c **** //*************************************************************************************************
 407:Code\Device\W25Q80/user_data.c **** // Function name	: UserData_CLR_User
 408:Code\Device\W25Q80/user_data.c **** // Description		: 清空用户
 409:Code\Device\W25Q80/user_data.c **** // Parameter		: none
 410:Code\Device\W25Q80/user_data.c **** // Return			: none
 411:Code\Device\W25Q80/user_data.c **** //-------------------------------------------------------------------------------------------------
 412:Code\Device\W25Q80/user_data.c **** // Info				: 
 413:Code\Device\W25Q80/user_data.c **** //*************************************************************************************************
 414:Code\Device\W25Q80/user_data.c **** uint8 UserData_CLR_User(void)
 415:Code\Device\W25Q80/user_data.c **** {
 945              		.loc 1 415 0
 946              		.cfi_startproc
 947 0000 08B5     		push	{r3, lr}
 948              		.cfi_def_cfa_offset 8
 949              		.cfi_offset 3, -8
 950              		.cfi_offset 14, -4
 416:Code\Device\W25Q80/user_data.c **** 	return (clr_user());
 951              		.loc 1 416 0
 952 0002 FFF7FEFF 		bl	clr_user
 953              	.LVL92:
 417:Code\Device\W25Q80/user_data.c **** }
 954              		.loc 1 417 0
 955              		@ sp needed
 956 0006 08BD     		pop	{r3, pc}
 957              		.cfi_endproc
 958              	.LFE81:
 959              		.size	UserData_CLR_User, .-UserData_CLR_User
 960              		.section	.text.UserData_Judge_If_Open,"ax",%progbits
 961              		.align	1
 962              		.global	UserData_Judge_If_Open
 963              		.code	16
 964              		.thumb_func
 965              		.type	UserData_Judge_If_Open, %function
 966              	UserData_Judge_If_Open:
 967              	.LFB82:
 418:Code\Device\W25Q80/user_data.c **** 
 419:Code\Device\W25Q80/user_data.c **** 
 420:Code\Device\W25Q80/user_data.c **** //*************************************************************************************************
ARM GAS  C:\Users\Administrator\AppData\Local\Temp\ccShlVUx.s 			page 26


 421:Code\Device\W25Q80/user_data.c **** // Function name	: UserData_Judge_If_Open
 422:Code\Device\W25Q80/user_data.c **** // Description		: 根据用户信息来判断是否能开门
 423:Code\Device\W25Q80/user_data.c **** // Parameter		: info	: 用户信息
 424:Code\Device\W25Q80/user_data.c **** // Return			: none
 425:Code\Device\W25Q80/user_data.c **** //-------------------------------------------------------------------------------------------------
 426:Code\Device\W25Q80/user_data.c **** // Info				: 用户信息包括UID和开门时间
 427:Code\Device\W25Q80/user_data.c **** //*************************************************************************************************
 428:Code\Device\W25Q80/user_data.c **** uint8 UserData_Judge_If_Open(user_info_t *info)
 429:Code\Device\W25Q80/user_data.c **** {
 968              		.loc 1 429 0
 969              		.cfi_startproc
 970              	.LVL93:
 971 0000 73B5     		push	{r0, r1, r4, r5, r6, lr}
 972              		.cfi_def_cfa_offset 24
 973              		.cfi_offset 0, -24
 974              		.cfi_offset 1, -20
 975              		.cfi_offset 4, -16
 976              		.cfi_offset 5, -12
 977              		.cfi_offset 6, -8
 978              		.cfi_offset 14, -4
 430:Code\Device\W25Q80/user_data.c **** 	uint16_t user_id = 0;
 979              		.loc 1 430 0
 980 0002 6B46     		mov	r3, sp
 429:Code\Device\W25Q80/user_data.c **** 	uint16_t user_id = 0;
 981              		.loc 1 429 0
 982 0004 041C     		mov	r4, r0
 983              		.loc 1 430 0
 984 0006 9E1C     		add	r6, r3, #2
 985 0008 0023     		mov	r3, #0
 431:Code\Device\W25Q80/user_data.c **** 	uint8_t val_time[4] = {0};
 432:Code\Device\W25Q80/user_data.c **** 	
 433:Code\Device\W25Q80/user_data.c **** 	user_get_user_id(&user_id, info->card_uid);
 986              		.loc 1 433 0
 987 000a 301C     		mov	r0, r6
 988              	.LVL94:
 989 000c 211C     		mov	r1, r4
 430:Code\Device\W25Q80/user_data.c **** 	uint8_t val_time[4] = {0};
 990              		.loc 1 430 0
 991 000e 3380     		strh	r3, [r6]
 431:Code\Device\W25Q80/user_data.c **** 	uint8_t val_time[4] = {0};
 992              		.loc 1 431 0
 993 0010 0193     		str	r3, [sp, #4]
 994              		.loc 1 433 0
 995 0012 FFF7FEFF 		bl	user_get_user_id
 996              	.LVL95:
 434:Code\Device\W25Q80/user_data.c **** 	if (user_id < MAX_USR_NUM)
 997              		.loc 1 434 0
 998 0016 F423     		mov	r3, #244
 999 0018 3088     		ldrh	r0, [r6]
 1000 001a FF33     		add	r3, r3, #255
 431:Code\Device\W25Q80/user_data.c **** 	uint8_t val_time[4] = {0};
 1001              		.loc 1 431 0
 1002 001c 01AD     		add	r5, sp, #4
 435:Code\Device\W25Q80/user_data.c **** 	{
 436:Code\Device\W25Q80/user_data.c **** 		user_get_valid_time(user_id, val_time);
 437:Code\Device\W25Q80/user_data.c **** 		if((BYTE2LONG(val_time[0], val_time[1], val_time[2], val_time[3])) > 
 438:Code\Device\W25Q80/user_data.c **** 		   (BYTE2LONG(info->valid_time[0], info->valid_time[1], info->valid_time[2], info->valid_time[3])
ARM GAS  C:\Users\Administrator\AppData\Local\Temp\ccShlVUx.s 			page 27


 439:Code\Device\W25Q80/user_data.c **** 		{
 440:Code\Device\W25Q80/user_data.c **** 			DBG_SOFT_PutStr("\nUID OK!");	
 441:Code\Device\W25Q80/user_data.c **** 			return TRUE;
 442:Code\Device\W25Q80/user_data.c **** 		}
 443:Code\Device\W25Q80/user_data.c **** 		else
 444:Code\Device\W25Q80/user_data.c **** 		{
 445:Code\Device\W25Q80/user_data.c **** 			DBG_SOFT_PutStr("\nOut of date!");	
 446:Code\Device\W25Q80/user_data.c **** 			return 0x08;								// 超出有效期
 447:Code\Device\W25Q80/user_data.c **** 		}
 448:Code\Device\W25Q80/user_data.c **** 	}
 449:Code\Device\W25Q80/user_data.c **** 	else
 450:Code\Device\W25Q80/user_data.c **** 	{
 451:Code\Device\W25Q80/user_data.c **** 		DBG_SOFT_PutStr("\nNo UID!");	
 452:Code\Device\W25Q80/user_data.c **** 		return 0x06;									// 不存在
 1003              		.loc 1 452 0
 1004 001e 0622     		mov	r2, #6
 434:Code\Device\W25Q80/user_data.c **** 	if (user_id < MAX_USR_NUM)
 1005              		.loc 1 434 0
 1006 0020 9842     		cmp	r0, r3
 1007 0022 1AD8     		bhi	.L42
 436:Code\Device\W25Q80/user_data.c **** 		if((BYTE2LONG(val_time[0], val_time[1], val_time[2], val_time[3])) > 
 1008              		.loc 1 436 0
 1009 0024 291C     		mov	r1, r5
 1010 0026 FFF7FEFF 		bl	user_get_valid_time
 1011              	.LVL96:
 437:Code\Device\W25Q80/user_data.c **** 		   (BYTE2LONG(info->valid_time[0], info->valid_time[1], info->valid_time[2], info->valid_time[3])
 1012              		.loc 1 437 0
 1013 002a 2978     		ldrb	r1, [r5]
 1014 002c 6B78     		ldrb	r3, [r5, #1]
 1015 002e 0906     		lsl	r1, r1, #24
 1016 0030 1B04     		lsl	r3, r3, #16
 1017 0032 1943     		orr	r1, r3
 1018 0034 EB78     		ldrb	r3, [r5, #3]
 1019 0036 1943     		orr	r1, r3
 1020 0038 AB78     		ldrb	r3, [r5, #2]
 1021 003a 1B02     		lsl	r3, r3, #8
 1022 003c 1943     		orr	r1, r3
 438:Code\Device\W25Q80/user_data.c **** 		{
 1023              		.loc 1 438 0
 1024 003e 237A     		ldrb	r3, [r4, #8]
 1025 0040 1A06     		lsl	r2, r3, #24
 1026 0042 637A     		ldrb	r3, [r4, #9]
 1027 0044 1B04     		lsl	r3, r3, #16
 1028 0046 1343     		orr	r3, r2
 1029 0048 E27A     		ldrb	r2, [r4, #11]
 1030 004a 1343     		orr	r3, r2
 1031 004c A27A     		ldrb	r2, [r4, #10]
 1032 004e 1202     		lsl	r2, r2, #8
 1033 0050 1343     		orr	r3, r2
 441:Code\Device\W25Q80/user_data.c **** 		}
 1034              		.loc 1 441 0
 1035 0052 0122     		mov	r2, #1
 437:Code\Device\W25Q80/user_data.c **** 		   (BYTE2LONG(info->valid_time[0], info->valid_time[1], info->valid_time[2], info->valid_time[3])
 1036              		.loc 1 437 0
 1037 0054 9942     		cmp	r1, r3
 1038 0056 00D8     		bhi	.L42
 446:Code\Device\W25Q80/user_data.c **** 		}
ARM GAS  C:\Users\Administrator\AppData\Local\Temp\ccShlVUx.s 			page 28


 1039              		.loc 1 446 0
 1040 0058 0732     		add	r2, r2, #7
 1041              	.L42:
 453:Code\Device\W25Q80/user_data.c **** 	}
 454:Code\Device\W25Q80/user_data.c **** }
 1042              		.loc 1 454 0
 1043 005a 101C     		mov	r0, r2
 1044              		@ sp needed
 1045              	.LVL97:
 1046 005c 76BD     		pop	{r1, r2, r4, r5, r6, pc}
 1047              		.cfi_endproc
 1048              	.LFE82:
 1049              		.size	UserData_Judge_If_Open, .-UserData_Judge_If_Open
 1050              		.global	__aeabi_uidivmod
 1051              		.section	.text.Write_Open_UploadFlag,"ax",%progbits
 1052              		.align	1
 1053              		.global	Write_Open_UploadFlag
 1054              		.code	16
 1055              		.thumb_func
 1056              		.type	Write_Open_UploadFlag, %function
 1057              	Write_Open_UploadFlag:
 1058              	.LFB83:
 455:Code\Device\W25Q80/user_data.c **** 
 456:Code\Device\W25Q80/user_data.c **** 
 457:Code\Device\W25Q80/user_data.c **** 
 458:Code\Device\W25Q80/user_data.c **** //=================================== 开门记录信息存储 ====================================
 459:Code\Device\W25Q80/user_data.c **** 
 460:Code\Device\W25Q80/user_data.c **** //*************************************************************************************************
 461:Code\Device\W25Q80/user_data.c **** // Function name	: Write_Open_UploadFlag
 462:Code\Device\W25Q80/user_data.c **** // Description		: 写开门记录信息上报成功与否标志
 463:Code\Device\W25Q80/user_data.c **** // Parameter		: open_num	: 开门编号
 464:Code\Device\W25Q80/user_data.c **** //					: SendFlag	: 发送标志位
 465:Code\Device\W25Q80/user_data.c **** // Return			: none
 466:Code\Device\W25Q80/user_data.c **** //-------------------------------------------------------------------------------------------------
 467:Code\Device\W25Q80/user_data.c **** // Info				: 
 468:Code\Device\W25Q80/user_data.c **** //*************************************************************************************************
 469:Code\Device\W25Q80/user_data.c **** void Write_Open_UploadFlag(uint16 open_num, uint8 UploadFlag)
 470:Code\Device\W25Q80/user_data.c **** {
 1059              		.loc 1 470 0
 1060              		.cfi_startproc
 1061              	.LVL98:
 1062 0000 73B5     		push	{r0, r1, r4, r5, r6, lr}
 1063              		.cfi_def_cfa_offset 24
 1064              		.cfi_offset 0, -24
 1065              		.cfi_offset 1, -20
 1066              		.cfi_offset 4, -16
 1067              		.cfi_offset 5, -12
 1068              		.cfi_offset 6, -8
 1069              		.cfi_offset 14, -4
 1070              		.loc 1 470 0
 1071 0002 0E1C     		mov	r6, r1
 471:Code\Device\W25Q80/user_data.c **** 	uint8 flag;
 472:Code\Device\W25Q80/user_data.c **** 	uint16 tmp;
 473:Code\Device\W25Q80/user_data.c **** 	
 474:Code\Device\W25Q80/user_data.c **** 	tmp = open_num % MAX_OPEN_NUM;
 1072              		.loc 1 474 0
 1073 0004 0E49     		ldr	r1, .L49
ARM GAS  C:\Users\Administrator\AppData\Local\Temp\ccShlVUx.s 			page 29


 1074              	.LVL99:
 1075 0006 FFF7FEFF 		bl	__aeabi_uidivmod
 1076              	.LVL100:
 475:Code\Device\W25Q80/user_data.c **** 	W25QXX_Read((uint8 *)&flag, OPEN_FLAG_BASE + tmp, 1);
 1077              		.loc 1 475 0
 1078 000a D023     		mov	r3, #208
 1079 000c 8CB2     		uxth	r4, r1
 1080 000e 5B01     		lsl	r3, r3, #5
 1081 0010 E418     		add	r4, r4, r3
 1082 0012 6B46     		mov	r3, sp
 1083 0014 DD1D     		add	r5, r3, #7
 1084 0016 281C     		mov	r0, r5
 1085 0018 211C     		mov	r1, r4
 1086 001a 0122     		mov	r2, #1
 1087 001c FFF7FEFF 		bl	W25QXX_Read
 1088              	.LVL101:
 1089 0020 2B78     		ldrb	r3, [r5]
 476:Code\Device\W25Q80/user_data.c **** 	if (UploadFlag == TRUE)
 1090              		.loc 1 476 0
 1091 0022 012E     		cmp	r6, #1
 1092 0024 03D1     		bne	.L46
 477:Code\Device\W25Q80/user_data.c **** 	{
 478:Code\Device\W25Q80/user_data.c **** 		flag |= 0x80;
 1093              		.loc 1 478 0
 1094 0026 8022     		mov	r2, #128
 1095 0028 5242     		neg	r2, r2
 1096 002a 1343     		orr	r3, r2
 1097 002c 01E0     		b	.L48
 1098              	.L46:
 479:Code\Device\W25Q80/user_data.c **** 	}
 480:Code\Device\W25Q80/user_data.c **** 	else
 481:Code\Device\W25Q80/user_data.c **** 	{
 482:Code\Device\W25Q80/user_data.c **** 		flag &= 0x7F;
 1099              		.loc 1 482 0
 1100 002e 7F22     		mov	r2, #127
 1101 0030 1340     		and	r3, r2
 1102              	.L48:
 483:Code\Device\W25Q80/user_data.c **** 	}
 484:Code\Device\W25Q80/user_data.c **** 	W25QXX_Write((uint8 *)&flag, OPEN_FLAG_BASE + tmp, 1);
 1103              		.loc 1 484 0
 1104 0032 281C     		mov	r0, r5
 1105 0034 211C     		mov	r1, r4
 1106 0036 0122     		mov	r2, #1
 482:Code\Device\W25Q80/user_data.c **** 	}
 1107              		.loc 1 482 0
 1108 0038 2B70     		strb	r3, [r5]
 485:Code\Device\W25Q80/user_data.c **** }
 1109              		.loc 1 485 0
 1110              		@ sp needed
 484:Code\Device\W25Q80/user_data.c **** }
 1111              		.loc 1 484 0
 1112 003a FFF7FEFF 		bl	W25QXX_Write
 1113              	.LVL102:
 1114              		.loc 1 485 0
 1115 003e 73BD     		pop	{r0, r1, r4, r5, r6, pc}
 1116              	.L50:
 1117              		.align	2
ARM GAS  C:\Users\Administrator\AppData\Local\Temp\ccShlVUx.s 			page 30


 1118              	.L49:
 1119 0040 88130000 		.word	5000
 1120              		.cfi_endproc
 1121              	.LFE83:
 1122              		.size	Write_Open_UploadFlag, .-Write_Open_UploadFlag
 1123              		.section	.text.Read_Open_UploadFlag,"ax",%progbits
 1124              		.align	1
 1125              		.global	Read_Open_UploadFlag
 1126              		.code	16
 1127              		.thumb_func
 1128              		.type	Read_Open_UploadFlag, %function
 1129              	Read_Open_UploadFlag:
 1130              	.LFB84:
 486:Code\Device\W25Q80/user_data.c **** 
 487:Code\Device\W25Q80/user_data.c **** //*************************************************************************************************
 488:Code\Device\W25Q80/user_data.c **** // Function name	: Read_Open_UploadFlag
 489:Code\Device\W25Q80/user_data.c **** // Description		: 读开门记录信息上报成功与否标志
 490:Code\Device\W25Q80/user_data.c **** // Parameter		: open_num	: 开门编号
 491:Code\Device\W25Q80/user_data.c **** // Return			: 上报结果
 492:Code\Device\W25Q80/user_data.c **** //-------------------------------------------------------------------------------------------------
 493:Code\Device\W25Q80/user_data.c **** // Info				: 
 494:Code\Device\W25Q80/user_data.c **** //*************************************************************************************************
 495:Code\Device\W25Q80/user_data.c **** uint8 Read_Open_UploadFlag(uint16 open_num)
 496:Code\Device\W25Q80/user_data.c **** {
 1131              		.loc 1 496 0
 1132              		.cfi_startproc
 1133              	.LVL103:
 1134 0000 13B5     		push	{r0, r1, r4, lr}
 1135              		.cfi_def_cfa_offset 16
 1136              		.cfi_offset 0, -16
 1137              		.cfi_offset 1, -12
 1138              		.cfi_offset 4, -8
 1139              		.cfi_offset 14, -4
 497:Code\Device\W25Q80/user_data.c **** 	uint8 flag;
 498:Code\Device\W25Q80/user_data.c **** 	uint16 tmp;
 499:Code\Device\W25Q80/user_data.c **** 	
 500:Code\Device\W25Q80/user_data.c **** 	tmp = open_num % MAX_OPEN_NUM;
 501:Code\Device\W25Q80/user_data.c **** 	W25QXX_Read((uint8 *)&flag, OPEN_FLAG_BASE + tmp, 1);
 1140              		.loc 1 501 0
 1141 0002 6B46     		mov	r3, sp
 500:Code\Device\W25Q80/user_data.c **** 	W25QXX_Read((uint8 *)&flag, OPEN_FLAG_BASE + tmp, 1);
 1142              		.loc 1 500 0
 1143 0004 0749     		ldr	r1, .L52
 1144              		.loc 1 501 0
 1145 0006 DC1D     		add	r4, r3, #7
 500:Code\Device\W25Q80/user_data.c **** 	W25QXX_Read((uint8 *)&flag, OPEN_FLAG_BASE + tmp, 1);
 1146              		.loc 1 500 0
 1147 0008 FFF7FEFF 		bl	__aeabi_uidivmod
 1148              	.LVL104:
 1149              		.loc 1 501 0
 1150 000c D023     		mov	r3, #208
 1151 000e 89B2     		uxth	r1, r1
 1152 0010 5B01     		lsl	r3, r3, #5
 1153 0012 201C     		mov	r0, r4
 1154 0014 C918     		add	r1, r1, r3
 1155 0016 0122     		mov	r2, #1
 1156 0018 FFF7FEFF 		bl	W25QXX_Read
ARM GAS  C:\Users\Administrator\AppData\Local\Temp\ccShlVUx.s 			page 31


 1157              	.LVL105:
 502:Code\Device\W25Q80/user_data.c **** 	if (flag & 0x80)
 1158              		.loc 1 502 0
 1159 001c 2078     		ldrb	r0, [r4]
 503:Code\Device\W25Q80/user_data.c **** 	{
 504:Code\Device\W25Q80/user_data.c **** 		return TRUE;
 505:Code\Device\W25Q80/user_data.c **** 	}
 506:Code\Device\W25Q80/user_data.c **** 	else
 507:Code\Device\W25Q80/user_data.c **** 	{
 508:Code\Device\W25Q80/user_data.c **** 		return FALSE;
 509:Code\Device\W25Q80/user_data.c **** 	}
 510:Code\Device\W25Q80/user_data.c **** }
 1160              		.loc 1 510 0
 1161              		@ sp needed
 504:Code\Device\W25Q80/user_data.c **** 	}
 1162              		.loc 1 504 0
 1163 001e C009     		lsr	r0, r0, #7
 1164              		.loc 1 510 0
 1165 0020 16BD     		pop	{r1, r2, r4, pc}
 1166              	.L53:
 1167 0022 C046     		.align	2
 1168              	.L52:
 1169 0024 88130000 		.word	5000
 1170              		.cfi_endproc
 1171              	.LFE84:
 1172              		.size	Read_Open_UploadFlag, .-Read_Open_UploadFlag
 1173              		.section	.text.Write_Open_Type,"ax",%progbits
 1174              		.align	1
 1175              		.global	Write_Open_Type
 1176              		.code	16
 1177              		.thumb_func
 1178              		.type	Write_Open_Type, %function
 1179              	Write_Open_Type:
 1180              	.LFB85:
 511:Code\Device\W25Q80/user_data.c **** 
 512:Code\Device\W25Q80/user_data.c **** //*************************************************************************************************
 513:Code\Device\W25Q80/user_data.c **** // Function name	: Write_Open_Type
 514:Code\Device\W25Q80/user_data.c **** // Description		: 写开门记录的开门类型
 515:Code\Device\W25Q80/user_data.c **** // Parameter		: open_num	: 开门编号
 516:Code\Device\W25Q80/user_data.c **** //					: type		: 开门类型
 517:Code\Device\W25Q80/user_data.c **** // Return			: none
 518:Code\Device\W25Q80/user_data.c **** //-------------------------------------------------------------------------------------------------
 519:Code\Device\W25Q80/user_data.c **** // Info				: 
 520:Code\Device\W25Q80/user_data.c **** //*************************************************************************************************
 521:Code\Device\W25Q80/user_data.c **** void Write_Open_Type(uint16 open_num, uint8 type)
 522:Code\Device\W25Q80/user_data.c **** {
 1181              		.loc 1 522 0
 1182              		.cfi_startproc
 1183              	.LVL106:
 1184 0000 13B5     		push	{r0, r1, r4, lr}
 1185              		.cfi_def_cfa_offset 16
 1186              		.cfi_offset 0, -16
 1187              		.cfi_offset 1, -12
 1188              		.cfi_offset 4, -8
 1189              		.cfi_offset 14, -4
 523:Code\Device\W25Q80/user_data.c **** 	uint8 flag;
 524:Code\Device\W25Q80/user_data.c **** 	uint16 tmp;
ARM GAS  C:\Users\Administrator\AppData\Local\Temp\ccShlVUx.s 			page 32


 525:Code\Device\W25Q80/user_data.c **** 	
 526:Code\Device\W25Q80/user_data.c **** 	tmp = open_num % MAX_OPEN_NUM;
 527:Code\Device\W25Q80/user_data.c **** 	//W25QXX_Read((uint8 *)&flag, OPEN_FLAG_BASE + tmp, 1);
 528:Code\Device\W25Q80/user_data.c **** 	//flag = ((flag & 0x80) | (type & 0x7F));
 529:Code\Device\W25Q80/user_data.c **** 	flag = type;												// @12.06 modify
 1190              		.loc 1 529 0
 1191 0002 6B46     		mov	r3, sp
 1192 0004 D971     		strb	r1, [r3, #7]
 526:Code\Device\W25Q80/user_data.c **** 	//W25QXX_Read((uint8 *)&flag, OPEN_FLAG_BASE + tmp, 1);
 1193              		.loc 1 526 0
 1194 0006 0649     		ldr	r1, .L55
 1195              	.LVL107:
 1196              		.loc 1 529 0
 1197 0008 DC1D     		add	r4, r3, #7
 1198              	.LVL108:
 526:Code\Device\W25Q80/user_data.c **** 	//W25QXX_Read((uint8 *)&flag, OPEN_FLAG_BASE + tmp, 1);
 1199              		.loc 1 526 0
 1200 000a FFF7FEFF 		bl	__aeabi_uidivmod
 1201              	.LVL109:
 530:Code\Device\W25Q80/user_data.c **** 	W25QXX_Write((uint8 *)&flag, OPEN_FLAG_BASE + tmp, 1);
 1202              		.loc 1 530 0
 1203 000e D023     		mov	r3, #208
 1204 0010 89B2     		uxth	r1, r1
 1205 0012 5B01     		lsl	r3, r3, #5
 1206 0014 C918     		add	r1, r1, r3
 1207 0016 201C     		mov	r0, r4
 1208 0018 0122     		mov	r2, #1
 1209 001a FFF7FEFF 		bl	W25QXX_Write
 1210              	.LVL110:
 531:Code\Device\W25Q80/user_data.c **** }
 1211              		.loc 1 531 0
 1212              		@ sp needed
 1213 001e 13BD     		pop	{r0, r1, r4, pc}
 1214              	.L56:
 1215              		.align	2
 1216              	.L55:
 1217 0020 88130000 		.word	5000
 1218              		.cfi_endproc
 1219              	.LFE85:
 1220              		.size	Write_Open_Type, .-Write_Open_Type
 1221              		.section	.text.Read_Open_Type,"ax",%progbits
 1222              		.align	1
 1223              		.global	Read_Open_Type
 1224              		.code	16
 1225              		.thumb_func
 1226              		.type	Read_Open_Type, %function
 1227              	Read_Open_Type:
 1228              	.LFB86:
 532:Code\Device\W25Q80/user_data.c **** 
 533:Code\Device\W25Q80/user_data.c **** //*************************************************************************************************
 534:Code\Device\W25Q80/user_data.c **** // Function name	: Read_Open_Type
 535:Code\Device\W25Q80/user_data.c **** // Description		: 读开门记录的开门类型
 536:Code\Device\W25Q80/user_data.c **** // Parameter		: open_num	: 开门编号
 537:Code\Device\W25Q80/user_data.c **** // Return			: 开门类型
 538:Code\Device\W25Q80/user_data.c **** //-------------------------------------------------------------------------------------------------
 539:Code\Device\W25Q80/user_data.c **** // Info				: ？？
 540:Code\Device\W25Q80/user_data.c **** //*************************************************************************************************
ARM GAS  C:\Users\Administrator\AppData\Local\Temp\ccShlVUx.s 			page 33


 541:Code\Device\W25Q80/user_data.c **** uint8 Read_Open_Type(uint16 open_num)
 542:Code\Device\W25Q80/user_data.c **** {
 1229              		.loc 1 542 0
 1230              		.cfi_startproc
 1231              	.LVL111:
 1232 0000 13B5     		push	{r0, r1, r4, lr}
 1233              		.cfi_def_cfa_offset 16
 1234              		.cfi_offset 0, -16
 1235              		.cfi_offset 1, -12
 1236              		.cfi_offset 4, -8
 1237              		.cfi_offset 14, -4
 543:Code\Device\W25Q80/user_data.c **** 	uint8 flag;
 544:Code\Device\W25Q80/user_data.c **** 	uint16 tmp;
 545:Code\Device\W25Q80/user_data.c **** 	
 546:Code\Device\W25Q80/user_data.c **** 	tmp = open_num % MAX_OPEN_NUM;
 547:Code\Device\W25Q80/user_data.c **** 	W25QXX_Read((uint8 *)&flag, OPEN_FLAG_BASE + tmp, 1);
 1238              		.loc 1 547 0
 1239 0002 6B46     		mov	r3, sp
 546:Code\Device\W25Q80/user_data.c **** 	W25QXX_Read((uint8 *)&flag, OPEN_FLAG_BASE + tmp, 1);
 1240              		.loc 1 546 0
 1241 0004 0749     		ldr	r1, .L58
 1242              		.loc 1 547 0
 1243 0006 DC1D     		add	r4, r3, #7
 546:Code\Device\W25Q80/user_data.c **** 	W25QXX_Read((uint8 *)&flag, OPEN_FLAG_BASE + tmp, 1);
 1244              		.loc 1 546 0
 1245 0008 FFF7FEFF 		bl	__aeabi_uidivmod
 1246              	.LVL112:
 1247              		.loc 1 547 0
 1248 000c D023     		mov	r3, #208
 1249 000e 89B2     		uxth	r1, r1
 1250 0010 5B01     		lsl	r3, r3, #5
 1251 0012 C918     		add	r1, r1, r3
 1252 0014 201C     		mov	r0, r4
 1253 0016 0122     		mov	r2, #1
 1254 0018 FFF7FEFF 		bl	W25QXX_Read
 1255              	.LVL113:
 548:Code\Device\W25Q80/user_data.c **** 	return (flag & 0x7F);
 1256              		.loc 1 548 0
 1257 001c 7F23     		mov	r3, #127
 1258 001e 2078     		ldrb	r0, [r4]
 549:Code\Device\W25Q80/user_data.c **** }
 1259              		.loc 1 549 0
 1260              		@ sp needed
 548:Code\Device\W25Q80/user_data.c **** 	return (flag & 0x7F);
 1261              		.loc 1 548 0
 1262 0020 1840     		and	r0, r3
 1263              		.loc 1 549 0
 1264 0022 16BD     		pop	{r1, r2, r4, pc}
 1265              	.L59:
 1266              		.align	2
 1267              	.L58:
 1268 0024 88130000 		.word	5000
 1269              		.cfi_endproc
 1270              	.LFE86:
 1271              		.size	Read_Open_Type, .-Read_Open_Type
 1272              		.section	.text.Write_Open_Qty,"ax",%progbits
 1273              		.align	1
ARM GAS  C:\Users\Administrator\AppData\Local\Temp\ccShlVUx.s 			page 34


 1274              		.global	Write_Open_Qty
 1275              		.code	16
 1276              		.thumb_func
 1277              		.type	Write_Open_Qty, %function
 1278              	Write_Open_Qty:
 1279              	.LFB87:
 550:Code\Device\W25Q80/user_data.c **** 
 551:Code\Device\W25Q80/user_data.c **** //*************************************************************************************************
 552:Code\Device\W25Q80/user_data.c **** // Function name	: Write_Open_Qty
 553:Code\Device\W25Q80/user_data.c **** // Description		: 写开门记录总数量
 554:Code\Device\W25Q80/user_data.c **** // Parameter		: openQty
 555:Code\Device\W25Q80/user_data.c **** // Return			: none
 556:Code\Device\W25Q80/user_data.c **** //-------------------------------------------------------------------------------------------------
 557:Code\Device\W25Q80/user_data.c **** // Info				: 
 558:Code\Device\W25Q80/user_data.c **** //*************************************************************************************************
 559:Code\Device\W25Q80/user_data.c **** void Write_Open_Qty(uint16 openQty)
 560:Code\Device\W25Q80/user_data.c **** {
 1280              		.loc 1 560 0
 1281              		.cfi_startproc
 1282              	.LVL114:
 1283 0000 07B5     		push	{r0, r1, r2, lr}
 1284              		.cfi_def_cfa_offset 16
 1285              		.cfi_offset 0, -16
 1286              		.cfi_offset 1, -12
 1287              		.cfi_offset 2, -8
 1288              		.cfi_offset 14, -4
 561:Code\Device\W25Q80/user_data.c ****     uint8 qty[2];
 562:Code\Device\W25Q80/user_data.c **** 	
 563:Code\Device\W25Q80/user_data.c ****     qty[0] = (openQty >> 8) & 0xff;
 564:Code\Device\W25Q80/user_data.c ****     qty[1] = openQty & 0xff;
 565:Code\Device\W25Q80/user_data.c **** 	W25QXX_Write(qty, OPEN_QTY_BASE, (uint16)sizeof(qty));
 1289              		.loc 1 565 0
 1290 0002 C821     		mov	r1, #200
 563:Code\Device\W25Q80/user_data.c ****     qty[1] = openQty & 0xff;
 1291              		.loc 1 563 0
 1292 0004 01AB     		add	r3, sp, #4
 1293 0006 020A     		lsr	r2, r0, #8
 1294 0008 1A70     		strb	r2, [r3]
 564:Code\Device\W25Q80/user_data.c **** 	W25QXX_Write(qty, OPEN_QTY_BASE, (uint16)sizeof(qty));
 1295              		.loc 1 564 0
 1296 000a 5870     		strb	r0, [r3, #1]
 1297              		.loc 1 565 0
 1298 000c 4902     		lsl	r1, r1, #9
 1299 000e 181C     		mov	r0, r3
 1300              	.LVL115:
 1301 0010 0222     		mov	r2, #2
 1302 0012 FFF7FEFF 		bl	W25QXX_Write
 1303              	.LVL116:
 566:Code\Device\W25Q80/user_data.c **** }
 1304              		.loc 1 566 0
 1305              		@ sp needed
 1306 0016 07BD     		pop	{r0, r1, r2, pc}
 1307              		.cfi_endproc
 1308              	.LFE87:
 1309              		.size	Write_Open_Qty, .-Write_Open_Qty
 1310              		.section	.text.Read_Open_Qty,"ax",%progbits
 1311              		.align	1
ARM GAS  C:\Users\Administrator\AppData\Local\Temp\ccShlVUx.s 			page 35


 1312              		.global	Read_Open_Qty
 1313              		.code	16
 1314              		.thumb_func
 1315              		.type	Read_Open_Qty, %function
 1316              	Read_Open_Qty:
 1317              	.LFB88:
 567:Code\Device\W25Q80/user_data.c **** 
 568:Code\Device\W25Q80/user_data.c **** //*************************************************************************************************
 569:Code\Device\W25Q80/user_data.c **** // Function name	: Read_Open_Qty
 570:Code\Device\W25Q80/user_data.c **** // Description		: 读开门记录总数量
 571:Code\Device\W25Q80/user_data.c **** // Parameter		: openQty
 572:Code\Device\W25Q80/user_data.c **** // Return			: openQty
 573:Code\Device\W25Q80/user_data.c **** //-------------------------------------------------------------------------------------------------
 574:Code\Device\W25Q80/user_data.c **** // Info				: 
 575:Code\Device\W25Q80/user_data.c **** //*************************************************************************************************
 576:Code\Device\W25Q80/user_data.c **** uint16 Read_Open_Qty(void)
 577:Code\Device\W25Q80/user_data.c **** {
 1318              		.loc 1 577 0
 1319              		.cfi_startproc
 1320 0000 13B5     		push	{r0, r1, r4, lr}
 1321              		.cfi_def_cfa_offset 16
 1322              		.cfi_offset 0, -16
 1323              		.cfi_offset 1, -12
 1324              		.cfi_offset 4, -8
 1325              		.cfi_offset 14, -4
 578:Code\Device\W25Q80/user_data.c **** 	uint8 qty[2];
 579:Code\Device\W25Q80/user_data.c **** 	
 580:Code\Device\W25Q80/user_data.c **** 	W25QXX_Read(qty, OPEN_QTY_BASE, (uint16)sizeof(qty));
 1326              		.loc 1 580 0
 1327 0002 C821     		mov	r1, #200
 1328 0004 01AC     		add	r4, sp, #4
 1329 0006 201C     		mov	r0, r4
 1330 0008 4902     		lsl	r1, r1, #9
 1331 000a 0222     		mov	r2, #2
 1332 000c FFF7FEFF 		bl	W25QXX_Read
 1333              	.LVL117:
 581:Code\Device\W25Q80/user_data.c **** 	return ((uint16)((qty[0] << 8) | qty[1]));
 1334              		.loc 1 581 0
 1335 0010 2078     		ldrb	r0, [r4]
 1336 0012 6378     		ldrb	r3, [r4, #1]
 1337 0014 0002     		lsl	r0, r0, #8
 1338 0016 1843     		orr	r0, r3
 582:Code\Device\W25Q80/user_data.c **** }
 1339              		.loc 1 582 0
 1340              		@ sp needed
 1341 0018 16BD     		pop	{r1, r2, r4, pc}
 1342              		.cfi_endproc
 1343              	.LFE88:
 1344              		.size	Read_Open_Qty, .-Read_Open_Qty
 1345              		.section	.text.Write_OpenInfo,"ax",%progbits
 1346              		.align	1
 1347              		.global	Write_OpenInfo
 1348              		.code	16
 1349              		.thumb_func
 1350              		.type	Write_OpenInfo, %function
 1351              	Write_OpenInfo:
 1352              	.LFB89:
ARM GAS  C:\Users\Administrator\AppData\Local\Temp\ccShlVUx.s 			page 36


 583:Code\Device\W25Q80/user_data.c **** 
 584:Code\Device\W25Q80/user_data.c **** //*************************************************************************************************
 585:Code\Device\W25Q80/user_data.c **** // Function name	: Write_OpenInfo
 586:Code\Device\W25Q80/user_data.c **** // Description		: 写开门记录信息(自带数量处理)
 587:Code\Device\W25Q80/user_data.c **** // Parameter		: openInfo	: 开门信息
 588:Code\Device\W25Q80/user_data.c **** //					: openType	: 开门类型
 589:Code\Device\W25Q80/user_data.c **** // Return			: none
 590:Code\Device\W25Q80/user_data.c **** //-------------------------------------------------------------------------------------------------
 591:Code\Device\W25Q80/user_data.c **** // Info				: 开门记录也从0开始，0-4999，5000为一周期；
 592:Code\Device\W25Q80/user_data.c **** //*************************************************************************************************
 593:Code\Device\W25Q80/user_data.c **** void Write_OpenInfo(open_door_t *openInfo, uint8_t openType)
 594:Code\Device\W25Q80/user_data.c **** {
 1353              		.loc 1 594 0
 1354              		.cfi_startproc
 1355              	.LVL118:
 1356 0000 F0B5     		push	{r4, r5, r6, r7, lr}
 1357              		.cfi_def_cfa_offset 20
 1358              		.cfi_offset 4, -20
 1359              		.cfi_offset 5, -16
 1360              		.cfi_offset 6, -12
 1361              		.cfi_offset 7, -8
 1362              		.cfi_offset 14, -4
 1363 0002 89B0     		sub	sp, sp, #36
 1364              		.cfi_def_cfa_offset 56
 1365              		.loc 1 594 0
 1366 0004 0F1C     		mov	r7, r1
 595:Code\Device\W25Q80/user_data.c **** 	uint16 open_qty, tmp;
 596:Code\Device\W25Q80/user_data.c **** 	
 597:Code\Device\W25Q80/user_data.c **** 	open_qty = Read_Open_Qty();										// 读出的数量即是下一个要写的偏移量		//
 598:Code\Device\W25Q80/user_data.c **** 	tmp = open_qty % MAX_OPEN_NUM;
 599:Code\Device\W25Q80/user_data.c **** 	uint8 openinfo_tmp[17] = {0x01};
 1367              		.loc 1 599 0
 1368 0006 1125     		mov	r5, #17
 594:Code\Device\W25Q80/user_data.c **** 	uint16 open_qty, tmp;
 1369              		.loc 1 594 0
 1370 0008 0190     		str	r0, [sp, #4]
 597:Code\Device\W25Q80/user_data.c **** 	tmp = open_qty % MAX_OPEN_NUM;
 1371              		.loc 1 597 0
 1372 000a FFF7FEFF 		bl	Read_Open_Qty
 1373              	.LVL119:
 1374              		.loc 1 599 0
 1375 000e 03AE     		add	r6, sp, #12
 597:Code\Device\W25Q80/user_data.c **** 	tmp = open_qty % MAX_OPEN_NUM;
 1376              		.loc 1 597 0
 1377 0010 041C     		mov	r4, r0
 1378              	.LVL120:
 1379              		.loc 1 599 0
 1380 0012 0021     		mov	r1, #0
 1381 0014 2A1C     		mov	r2, r5
 1382 0016 301C     		mov	r0, r6
 1383 0018 FFF7FEFF 		bl	memset
 1384              	.LVL121:
 1385 001c 0123     		mov	r3, #1
 1386 001e 3370     		strb	r3, [r6]
 600:Code\Device\W25Q80/user_data.c **** 	
 601:Code\Device\W25Q80/user_data.c **** 	
 602:Code\Device\W25Q80/user_data.c **** 	memcpy(openinfo_tmp+1,openInfo,16);
ARM GAS  C:\Users\Administrator\AppData\Local\Temp\ccShlVUx.s 			page 37


 1387              		.loc 1 602 0
 1388 0020 02AB     		add	r3, sp, #8
 1389 0022 581D     		add	r0, r3, #5
 1390 0024 1022     		mov	r2, #16
 1391 0026 0199     		ldr	r1, [sp, #4]
 1392 0028 FFF7FEFF 		bl	memcpy
 1393              	.LVL122:
 598:Code\Device\W25Q80/user_data.c **** 	uint8 openinfo_tmp[17] = {0x01};
 1394              		.loc 1 598 0
 1395 002c 201C     		mov	r0, r4
 1396 002e 0D49     		ldr	r1, .L67
 1397 0030 FFF7FEFF 		bl	__aeabi_uidivmod
 1398              	.LVL123:
 603:Code\Device\W25Q80/user_data.c **** 		#if 0
 604:Code\Device\W25Q80/user_data.c **** 		// 读出写入前的flash数据测试
 605:Code\Device\W25Q80/user_data.c **** 		//W25QXX_Read((uint8 *)&tmp_t, OPEN_INFO_BASE + sizeof(open_door_t) * tmp, (uint16)sizeof(open_do
 606:Code\Device\W25Q80/user_data.c **** 		DBG_SOFT_PutStr("\nTest before write in open date :\n");
 607:Code\Device\W25Q80/user_data.c **** 		DBG_SOFT_PrintfHex((uint8 *)openinfo_tmp,(uint16)sizeof(open_door_t)+1,16);
 608:Code\Device\W25Q80/user_data.c **** 		#endif	
 609:Code\Device\W25Q80/user_data.c **** 		
 610:Code\Device\W25Q80/user_data.c **** 	W25QXX_Write((uint8 *)openinfo_tmp, OPEN_INFO_BASE + (1+sizeof(open_door_t)) * tmp, (uint16)sizeof
 1399              		.loc 1 610 0
 1400 0034 B823     		mov	r3, #184
 1401 0036 89B2     		uxth	r1, r1
 1402 0038 6943     		mul	r1, r5
 1403 003a 9B01     		lsl	r3, r3, #6
 1404 003c C918     		add	r1, r1, r3
 1405 003e 301C     		mov	r0, r6
 1406 0040 2A1C     		mov	r2, r5
 1407 0042 FFF7FEFF 		bl	W25QXX_Write
 1408              	.LVL124:
 611:Code\Device\W25Q80/user_data.c **** 	if(openType)
 1409              		.loc 1 611 0
 1410 0046 002F     		cmp	r7, #0
 1411 0048 07D0     		beq	.L63
 612:Code\Device\W25Q80/user_data.c **** 	{
 613:Code\Device\W25Q80/user_data.c **** 		Write_Open_Type(open_qty, openType);						// 写入开门类型信息						//
 1412              		.loc 1 613 0
 1413 004a 201C     		mov	r0, r4
 1414 004c 391C     		mov	r1, r7
 614:Code\Device\W25Q80/user_data.c **** 	
 615:Code\Device\W25Q80/user_data.c **** 		open_qty++;
 1415              		.loc 1 615 0
 1416 004e 0134     		add	r4, r4, #1
 1417              	.LVL125:
 613:Code\Device\W25Q80/user_data.c **** 	
 1418              		.loc 1 613 0
 1419 0050 FFF7FEFF 		bl	Write_Open_Type
 1420              	.LVL126:
 616:Code\Device\W25Q80/user_data.c **** 		Write_Open_Qty(open_qty);									// 更新开门数量							//
 1421              		.loc 1 616 0
 1422 0054 A0B2     		uxth	r0, r4
 1423 0056 FFF7FEFF 		bl	Write_Open_Qty
 1424              	.LVL127:
 1425              	.L63:
 617:Code\Device\W25Q80/user_data.c **** 	}
 618:Code\Device\W25Q80/user_data.c **** 		#if 0
ARM GAS  C:\Users\Administrator\AppData\Local\Temp\ccShlVUx.s 			page 38


 619:Code\Device\W25Q80/user_data.c **** 		// 读出写入的flash数据测试
 620:Code\Device\W25Q80/user_data.c **** 		uint8 temp[17] = {0x00};	
 621:Code\Device\W25Q80/user_data.c **** 		W25QXX_Read((uint8 *)temp, OPEN_INFO_BASE + (1+sizeof(open_door_t)) * tmp, (uint16)sizeof(open_do
 622:Code\Device\W25Q80/user_data.c **** 		DBG_SOFT_PutStr("\nTest after write in open date :\n");
 623:Code\Device\W25Q80/user_data.c **** 		DBG_SOFT_PrintfHex((uint8 *)temp,(uint16)sizeof(open_door_t)+1,16);
 624:Code\Device\W25Q80/user_data.c **** 		#endif	
 625:Code\Device\W25Q80/user_data.c **** 	uploadpolling_stop = 0;											// 清除开门信息轮询上报停止位			// 
 1426              		.loc 1 625 0
 1427 005a 0022     		mov	r2, #0
 1428 005c 024B     		ldr	r3, .L67+4
 1429 005e 1A70     		strb	r2, [r3]
 626:Code\Device\W25Q80/user_data.c **** }
 1430              		.loc 1 626 0
 1431 0060 09B0     		add	sp, sp, #36
 1432              		@ sp needed
 1433 0062 F0BD     		pop	{r4, r5, r6, r7, pc}
 1434              	.L68:
 1435              		.align	2
 1436              	.L67:
 1437 0064 88130000 		.word	5000
 1438 0068 00000000 		.word	uploadpolling_stop
 1439              		.cfi_endproc
 1440              	.LFE89:
 1441              		.size	Write_OpenInfo, .-Write_OpenInfo
 1442              		.section	.text.Read_OpenInfo,"ax",%progbits
 1443              		.align	1
 1444              		.global	Read_OpenInfo
 1445              		.code	16
 1446              		.thumb_func
 1447              		.type	Read_OpenInfo, %function
 1448              	Read_OpenInfo:
 1449              	.LFB90:
 627:Code\Device\W25Q80/user_data.c **** 
 628:Code\Device\W25Q80/user_data.c **** //*************************************************************************************************
 629:Code\Device\W25Q80/user_data.c **** // Function name	: Read_OpenInfo
 630:Code\Device\W25Q80/user_data.c **** // Description		: 读开门记录信息
 631:Code\Device\W25Q80/user_data.c **** // Parameter		: open_num	: 开门记录编号
 632:Code\Device\W25Q80/user_data.c **** //					  openInfo	: 读回来的开门信息
 633:Code\Device\W25Q80/user_data.c **** // Return			: none
 634:Code\Device\W25Q80/user_data.c **** //-------------------------------------------------------------------------------------------------
 635:Code\Device\W25Q80/user_data.c **** // Info				: 开门记录也从0开始，0-4999，5000为一周期；
 636:Code\Device\W25Q80/user_data.c **** //*************************************************************************************************
 637:Code\Device\W25Q80/user_data.c **** void Read_OpenInfo(uint16 open_num, open_door_t *openInfo)
 638:Code\Device\W25Q80/user_data.c **** {
 1450              		.loc 1 638 0
 1451              		.cfi_startproc
 1452              	.LVL128:
 1453 0000 70B5     		push	{r4, r5, r6, lr}
 1454              		.cfi_def_cfa_offset 16
 1455              		.cfi_offset 4, -16
 1456              		.cfi_offset 5, -12
 1457              		.cfi_offset 6, -8
 1458              		.cfi_offset 14, -4
 639:Code\Device\W25Q80/user_data.c ****     uint16 tmp;
 640:Code\Device\W25Q80/user_data.c **** 	uint8 data_temp[17] = {0};		//每条开门记录开头加一个标志数据0x01
 1459              		.loc 1 640 0
 1460 0002 1126     		mov	r6, #17
ARM GAS  C:\Users\Administrator\AppData\Local\Temp\ccShlVUx.s 			page 39


 638:Code\Device\W25Q80/user_data.c ****     uint16 tmp;
 1461              		.loc 1 638 0
 1462 0004 041C     		mov	r4, r0
 1463 0006 86B0     		sub	sp, sp, #24
 1464              		.cfi_def_cfa_offset 40
 1465              		.loc 1 640 0
 1466 0008 321C     		mov	r2, r6
 638:Code\Device\W25Q80/user_data.c ****     uint16 tmp;
 1467              		.loc 1 638 0
 1468 000a 0D1C     		mov	r5, r1
 1469              		.loc 1 640 0
 1470 000c 01A8     		add	r0, sp, #4
 1471              	.LVL129:
 1472 000e 0021     		mov	r1, #0
 1473              	.LVL130:
 1474 0010 FFF7FEFF 		bl	memset
 1475              	.LVL131:
 641:Code\Device\W25Q80/user_data.c **** 	uint32 readoff = 0;
 642:Code\Device\W25Q80/user_data.c **** 	
 643:Code\Device\W25Q80/user_data.c **** 	tmp = open_num % MAX_OPEN_NUM;
 1476              		.loc 1 643 0
 1477 0014 201C     		mov	r0, r4
 1478 0016 1149     		ldr	r1, .L73
 1479 0018 FFF7FEFF 		bl	__aeabi_uidivmod
 1480              	.LVL132:
 644:Code\Device\W25Q80/user_data.c **** 	//W25QXX_Read((uint8 *)data_temp, OPEN_INFO_BASE + (1+sizeof(open_door_t)) * tmp, (uint16)sizeof(o
 645:Code\Device\W25Q80/user_data.c **** 	readoff = (1+sizeof(open_door_t)) * tmp;
 1481              		.loc 1 645 0
 1482 001c 8CB2     		uxth	r4, r1
 1483              	.LVL133:
 1484 001e 7443     		mul	r4, r6
 1485              	.LVL134:
 646:Code\Device\W25Q80/user_data.c **** 	if((readoff % 0xff) == 0)
 1486              		.loc 1 646 0
 1487 0020 FF21     		mov	r1, #255
 1488 0022 201C     		mov	r0, r4
 1489 0024 FFF7FEFF 		bl	__aeabi_uidivmod
 1490              	.LVL135:
 1491 0028 0029     		cmp	r1, #0
 1492 002a 05D1     		bne	.L70
 1493              	.LVL136:
 647:Code\Device\W25Q80/user_data.c **** 	{
 648:Code\Device\W25Q80/user_data.c **** 		readoff += 1;
 649:Code\Device\W25Q80/user_data.c **** 		W25QXX_Read((uint8 *)data_temp+1, OPEN_INFO_BASE + (readoff), (sizeof(open_door_t)));
 1494              		.loc 1 649 0
 1495 002c 0C4B     		ldr	r3, .L73+4
 1496 002e 1022     		mov	r2, #16
 1497 0030 E118     		add	r1, r4, r3
 1498 0032 6B46     		mov	r3, sp
 1499 0034 581D     		add	r0, r3, #5
 1500 0036 04E0     		b	.L72
 1501              	.LVL137:
 1502              	.L70:
 650:Code\Device\W25Q80/user_data.c **** 	}
 651:Code\Device\W25Q80/user_data.c **** 	else
 652:Code\Device\W25Q80/user_data.c **** 	{
 653:Code\Device\W25Q80/user_data.c **** 		W25QXX_Read((uint8 *)data_temp, OPEN_INFO_BASE + (readoff), (sizeof(open_door_t) + 1));
ARM GAS  C:\Users\Administrator\AppData\Local\Temp\ccShlVUx.s 			page 40


 1503              		.loc 1 653 0
 1504 0038 B823     		mov	r3, #184
 1505 003a 321C     		mov	r2, r6
 1506 003c 9B01     		lsl	r3, r3, #6
 1507 003e E118     		add	r1, r4, r3
 1508 0040 01A8     		add	r0, sp, #4
 1509              	.LVL138:
 1510              	.L72:
 1511 0042 FFF7FEFF 		bl	W25QXX_Read
 1512              	.LVL139:
 654:Code\Device\W25Q80/user_data.c **** 	}
 655:Code\Device\W25Q80/user_data.c **** 	
 656:Code\Device\W25Q80/user_data.c **** 	memcpy(openInfo, data_temp+1, sizeof(open_door_t));
 1513              		.loc 1 656 0
 1514 0046 6B46     		mov	r3, sp
 1515 0048 1022     		mov	r2, #16
 1516 004a 591D     		add	r1, r3, #5
 1517 004c 281C     		mov	r0, r5
 1518 004e FFF7FEFF 		bl	memcpy
 1519              	.LVL140:
 657:Code\Device\W25Q80/user_data.c **** 	
 658:Code\Device\W25Q80/user_data.c **** 	Endpoint_exchange(openInfo->card_uid);									// A卡数据位置转换 @ 18-1-17			//
 1520              		.loc 1 658 0
 1521 0052 281C     		mov	r0, r5
 1522 0054 FFF7FEFF 		bl	Endpoint_exchange
 1523              	.LVL141:
 659:Code\Device\W25Q80/user_data.c **** }
 1524              		.loc 1 659 0
 1525 0058 06B0     		add	sp, sp, #24
 1526              		@ sp needed
 1527              	.LVL142:
 1528 005a 70BD     		pop	{r4, r5, r6, pc}
 1529              	.L74:
 1530              		.align	2
 1531              	.L73:
 1532 005c 88130000 		.word	5000
 1533 0060 012E0000 		.word	11777
 1534              		.cfi_endproc
 1535              	.LFE90:
 1536              		.size	Read_OpenInfo, .-Read_OpenInfo
 1537              		.section	.text.Find_Open_StartNum,"ax",%progbits
 1538              		.align	1
 1539              		.global	Find_Open_StartNum
 1540              		.code	16
 1541              		.thumb_func
 1542              		.type	Find_Open_StartNum, %function
 1543              	Find_Open_StartNum:
 1544              	.LFB91:
 660:Code\Device\W25Q80/user_data.c **** 
 661:Code\Device\W25Q80/user_data.c **** //*************************************************************************************************
 662:Code\Device\W25Q80/user_data.c **** // Function name	: Find_Open_StartNum
 663:Code\Device\W25Q80/user_data.c **** // Description		: 根据开始时间查找开始编号
 664:Code\Device\W25Q80/user_data.c **** // Parameter		: start_time
 665:Code\Device\W25Q80/user_data.c **** // Return			: 开门编号，找不到返回0xFFFF
 666:Code\Device\W25Q80/user_data.c **** //-------------------------------------------------------------------------------------------------
 667:Code\Device\W25Q80/user_data.c **** // Info				: 
 668:Code\Device\W25Q80/user_data.c **** //*************************************************************************************************
ARM GAS  C:\Users\Administrator\AppData\Local\Temp\ccShlVUx.s 			page 41


 669:Code\Device\W25Q80/user_data.c **** uint16 Find_Open_StartNum(uint32 start_time)
 670:Code\Device\W25Q80/user_data.c **** {
 1545              		.loc 1 670 0
 1546              		.cfi_startproc
 1547              	.LVL143:
 1548 0000 7FB5     		push	{r0, r1, r2, r3, r4, r5, r6, lr}
 1549              		.cfi_def_cfa_offset 32
 1550              		.cfi_offset 0, -32
 1551              		.cfi_offset 1, -28
 1552              		.cfi_offset 2, -24
 1553              		.cfi_offset 3, -20
 1554              		.cfi_offset 4, -16
 1555              		.cfi_offset 5, -12
 1556              		.cfi_offset 6, -8
 1557              		.cfi_offset 14, -4
 1558              		.loc 1 670 0
 1559 0002 061C     		mov	r6, r0
 671:Code\Device\W25Q80/user_data.c **** 	uint16 i, qty;
 672:Code\Device\W25Q80/user_data.c **** 	uint32 tmp1;
 673:Code\Device\W25Q80/user_data.c **** 	open_door_t openTmp;
 674:Code\Device\W25Q80/user_data.c ****     
 675:Code\Device\W25Q80/user_data.c **** 	qty = Read_Open_Qty();
 1560              		.loc 1 675 0
 1561 0004 FFF7FEFF 		bl	Read_Open_Qty
 1562              	.LVL144:
 1563 0008 051C     		mov	r5, r0
 1564              	.LVL145:
 676:Code\Device\W25Q80/user_data.c **** 	if (qty == 0)
 677:Code\Device\W25Q80/user_data.c **** 	{
 678:Code\Device\W25Q80/user_data.c **** 		return 0;
 1565              		.loc 1 678 0
 1566 000a 0020     		mov	r0, #0
 676:Code\Device\W25Q80/user_data.c **** 	if (qty == 0)
 1567              		.loc 1 676 0
 1568 000c 8542     		cmp	r5, r0
 1569 000e 39D0     		beq	.L76
 679:Code\Device\W25Q80/user_data.c **** 	}
 680:Code\Device\W25Q80/user_data.c **** 	else if (qty <= MAX_OPEN_NUM)
 1570              		.loc 1 680 0
 1571 0010 1D4B     		ldr	r3, .L87
 1572 0012 9D42     		cmp	r5, r3
 1573 0014 1AD8     		bhi	.L77
 1574 0016 041C     		mov	r4, r0
 1575              	.L78:
 1576              	.LVL146:
 681:Code\Device\W25Q80/user_data.c **** 	{
 682:Code\Device\W25Q80/user_data.c **** 		for (i = 0; i < qty; i++)
 683:Code\Device\W25Q80/user_data.c **** 		{
 684:Code\Device\W25Q80/user_data.c **** 			Read_OpenInfo(i, &openTmp);
 1577              		.loc 1 684 0
 1578 0018 201C     		mov	r0, r4
 1579 001a 6946     		mov	r1, sp
 1580 001c FFF7FEFF 		bl	Read_OpenInfo
 1581              	.LVL147:
 685:Code\Device\W25Q80/user_data.c **** 			tmp1 = BYTE2LONG(openTmp.open_time[0], openTmp.open_time[1],
 1582              		.loc 1 685 0
 1583 0020 6B46     		mov	r3, sp
ARM GAS  C:\Users\Administrator\AppData\Local\Temp\ccShlVUx.s 			page 42


 1584 0022 1B7A     		ldrb	r3, [r3, #8]
 1585 0024 1A06     		lsl	r2, r3, #24
 1586 0026 6B46     		mov	r3, sp
 1587 0028 5B7A     		ldrb	r3, [r3, #9]
 1588 002a 1B04     		lsl	r3, r3, #16
 1589 002c 1343     		orr	r3, r2
 1590 002e 6A46     		mov	r2, sp
 1591 0030 D27A     		ldrb	r2, [r2, #11]
 1592 0032 1343     		orr	r3, r2
 1593 0034 6A46     		mov	r2, sp
 1594 0036 927A     		ldrb	r2, [r2, #10]
 1595 0038 1202     		lsl	r2, r2, #8
 1596 003a 1343     		orr	r3, r2
 686:Code\Device\W25Q80/user_data.c **** 			                 openTmp.open_time[2], openTmp.open_time[3]);
 687:Code\Device\W25Q80/user_data.c **** 			if (tmp1 >= start_time)
 1597              		.loc 1 687 0
 1598 003c B342     		cmp	r3, r6
 1599 003e 20D2     		bcs	.L84
 682:Code\Device\W25Q80/user_data.c **** 		{
 1600              		.loc 1 682 0 discriminator 2
 1601 0040 0134     		add	r4, r4, #1
 1602              	.LVL148:
 1603 0042 A4B2     		uxth	r4, r4
 1604              	.LVL149:
 1605 0044 AC42     		cmp	r4, r5
 1606 0046 E7D1     		bne	.L78
 1607              	.LVL150:
 1608              	.L81:
 688:Code\Device\W25Q80/user_data.c **** 			{
 689:Code\Device\W25Q80/user_data.c **** 				return i;
 690:Code\Device\W25Q80/user_data.c **** 			}
 691:Code\Device\W25Q80/user_data.c **** 		}
 692:Code\Device\W25Q80/user_data.c **** 	}
 693:Code\Device\W25Q80/user_data.c **** 	else
 694:Code\Device\W25Q80/user_data.c **** 	{
 695:Code\Device\W25Q80/user_data.c **** 		for (i = qty - MAX_OPEN_NUM; i < qty; i++)
 696:Code\Device\W25Q80/user_data.c **** 		{
 697:Code\Device\W25Q80/user_data.c **** 			Read_OpenInfo(i, &openTmp);
 698:Code\Device\W25Q80/user_data.c **** 			tmp1 = BYTE2LONG(openTmp.open_time[0], openTmp.open_time[1],
 699:Code\Device\W25Q80/user_data.c **** 							 openTmp.open_time[2], openTmp.open_time[3]);
 700:Code\Device\W25Q80/user_data.c **** 			if (tmp1 >= start_time)
 701:Code\Device\W25Q80/user_data.c **** 			{
 702:Code\Device\W25Q80/user_data.c **** 				return i;
 703:Code\Device\W25Q80/user_data.c **** 			}
 704:Code\Device\W25Q80/user_data.c **** 		}
 705:Code\Device\W25Q80/user_data.c **** 	}
 706:Code\Device\W25Q80/user_data.c **** 	return 0xFFFF;
 1609              		.loc 1 706 0
 1610 0048 1048     		ldr	r0, .L87+4
 1611 004a 1BE0     		b	.L76
 1612              	.LVL151:
 1613              	.L77:
 695:Code\Device\W25Q80/user_data.c **** 		{
 1614              		.loc 1 695 0
 1615 004c 104B     		ldr	r3, .L87+8
 1616 004e EC18     		add	r4, r5, r3
 1617              	.L86:
ARM GAS  C:\Users\Administrator\AppData\Local\Temp\ccShlVUx.s 			page 43


 695:Code\Device\W25Q80/user_data.c **** 		{
 1618              		.loc 1 695 0 is_stmt 0 discriminator 2
 1619 0050 A4B2     		uxth	r4, r4
 1620              	.LVL152:
 1621 0052 AC42     		cmp	r4, r5
 1622 0054 F8D2     		bcs	.L81
 697:Code\Device\W25Q80/user_data.c **** 			tmp1 = BYTE2LONG(openTmp.open_time[0], openTmp.open_time[1],
 1623              		.loc 1 697 0 is_stmt 1
 1624 0056 201C     		mov	r0, r4
 1625 0058 6946     		mov	r1, sp
 1626 005a FFF7FEFF 		bl	Read_OpenInfo
 1627              	.LVL153:
 698:Code\Device\W25Q80/user_data.c **** 							 openTmp.open_time[2], openTmp.open_time[3]);
 1628              		.loc 1 698 0
 1629 005e 6B46     		mov	r3, sp
 1630 0060 1B7A     		ldrb	r3, [r3, #8]
 1631 0062 1A06     		lsl	r2, r3, #24
 1632 0064 6B46     		mov	r3, sp
 1633 0066 5B7A     		ldrb	r3, [r3, #9]
 1634 0068 1B04     		lsl	r3, r3, #16
 1635 006a 1343     		orr	r3, r2
 1636 006c 6A46     		mov	r2, sp
 1637 006e D27A     		ldrb	r2, [r2, #11]
 1638 0070 1343     		orr	r3, r2
 1639 0072 6A46     		mov	r2, sp
 1640 0074 927A     		ldrb	r2, [r2, #10]
 1641 0076 1202     		lsl	r2, r2, #8
 1642 0078 1343     		orr	r3, r2
 700:Code\Device\W25Q80/user_data.c **** 			{
 1643              		.loc 1 700 0
 1644 007a B342     		cmp	r3, r6
 1645 007c 01D2     		bcs	.L84
 695:Code\Device\W25Q80/user_data.c **** 		{
 1646              		.loc 1 695 0 discriminator 2
 1647 007e 0134     		add	r4, r4, #1
 1648              	.LVL154:
 1649 0080 E6E7     		b	.L86
 1650              	.LVL155:
 1651              	.L84:
 1652 0082 201C     		mov	r0, r4
 1653              	.LVL156:
 1654              	.L76:
 707:Code\Device\W25Q80/user_data.c **** }
 1655              		.loc 1 707 0
 1656 0084 04B0     		add	sp, sp, #16
 1657              		@ sp needed
 1658              	.LVL157:
 1659              	.LVL158:
 1660 0086 70BD     		pop	{r4, r5, r6, pc}
 1661              	.L88:
 1662              		.align	2
 1663              	.L87:
 1664 0088 88130000 		.word	5000
 1665 008c FFFF0000 		.word	65535
 1666 0090 78ECFFFF 		.word	-5000
 1667              		.cfi_endproc
 1668              	.LFE91:
ARM GAS  C:\Users\Administrator\AppData\Local\Temp\ccShlVUx.s 			page 44


 1669              		.size	Find_Open_StartNum, .-Find_Open_StartNum
 1670              		.section	.text.Find_Open_EndNum,"ax",%progbits
 1671              		.align	1
 1672              		.global	Find_Open_EndNum
 1673              		.code	16
 1674              		.thumb_func
 1675              		.type	Find_Open_EndNum, %function
 1676              	Find_Open_EndNum:
 1677              	.LFB92:
 708:Code\Device\W25Q80/user_data.c **** 
 709:Code\Device\W25Q80/user_data.c **** //*************************************************************************************************
 710:Code\Device\W25Q80/user_data.c **** // Function name	: Find_Open_StartNum
 711:Code\Device\W25Q80/user_data.c **** // Description		: 根据结束时间查找结束编号
 712:Code\Device\W25Q80/user_data.c **** // Parameter		: end_time
 713:Code\Device\W25Q80/user_data.c **** // Return			: 开门编号，找不到返回0xFFFF
 714:Code\Device\W25Q80/user_data.c **** //-------------------------------------------------------------------------------------------------
 715:Code\Device\W25Q80/user_data.c **** // Info				: 
 716:Code\Device\W25Q80/user_data.c **** //*************************************************************************************************
 717:Code\Device\W25Q80/user_data.c **** uint16 Find_Open_EndNum(uint32 end_time)
 718:Code\Device\W25Q80/user_data.c **** {
 1678              		.loc 1 718 0
 1679              		.cfi_startproc
 1680              	.LVL159:
 1681 0000 7FB5     		push	{r0, r1, r2, r3, r4, r5, r6, lr}
 1682              		.cfi_def_cfa_offset 32
 1683              		.cfi_offset 0, -32
 1684              		.cfi_offset 1, -28
 1685              		.cfi_offset 2, -24
 1686              		.cfi_offset 3, -20
 1687              		.cfi_offset 4, -16
 1688              		.cfi_offset 5, -12
 1689              		.cfi_offset 6, -8
 1690              		.cfi_offset 14, -4
 1691              		.loc 1 718 0
 1692 0002 051C     		mov	r5, r0
 719:Code\Device\W25Q80/user_data.c **** 	uint16 i, qty;
 720:Code\Device\W25Q80/user_data.c **** 	uint32 tmp1;
 721:Code\Device\W25Q80/user_data.c **** 	open_door_t openTmp;
 722:Code\Device\W25Q80/user_data.c **** 
 723:Code\Device\W25Q80/user_data.c **** 	qty = Read_Open_Qty();
 1693              		.loc 1 723 0
 1694 0004 FFF7FEFF 		bl	Read_Open_Qty
 1695              	.LVL160:
 1696 0008 061C     		mov	r6, r0
 1697              	.LVL161:
 724:Code\Device\W25Q80/user_data.c **** 	if (qty == 0)
 725:Code\Device\W25Q80/user_data.c **** 	{
 726:Code\Device\W25Q80/user_data.c **** 		return 0;
 1698              		.loc 1 726 0
 1699 000a 0020     		mov	r0, #0
 724:Code\Device\W25Q80/user_data.c **** 	if (qty == 0)
 1700              		.loc 1 724 0
 1701 000c 8642     		cmp	r6, r0
 1702 000e 38D0     		beq	.L90
 727:Code\Device\W25Q80/user_data.c **** 	}
 728:Code\Device\W25Q80/user_data.c **** 	else if (qty <= MAX_OPEN_NUM)
 1703              		.loc 1 728 0
ARM GAS  C:\Users\Administrator\AppData\Local\Temp\ccShlVUx.s 			page 45


 1704 0010 1D4B     		ldr	r3, .L99
 1705 0012 741E     		sub	r4, r6, #1
 729:Code\Device\W25Q80/user_data.c **** 	{
 730:Code\Device\W25Q80/user_data.c **** 		for (i = qty -1; i >= 0; i--)
 1706              		.loc 1 730 0
 1707 0014 A4B2     		uxth	r4, r4
 728:Code\Device\W25Q80/user_data.c **** 	{
 1708              		.loc 1 728 0
 1709 0016 9E42     		cmp	r6, r3
 1710 0018 2CD8     		bhi	.L93
 1711              	.L92:
 1712              	.LVL162:
 731:Code\Device\W25Q80/user_data.c **** 		{
 732:Code\Device\W25Q80/user_data.c **** 			Read_OpenInfo(i, &openTmp);
 1713              		.loc 1 732 0
 1714 001a 201C     		mov	r0, r4
 1715 001c 6946     		mov	r1, sp
 1716 001e FFF7FEFF 		bl	Read_OpenInfo
 1717              	.LVL163:
 733:Code\Device\W25Q80/user_data.c **** 			tmp1 = BYTE2LONG(openTmp.open_time[0], openTmp.open_time[1],
 1718              		.loc 1 733 0
 1719 0022 6B46     		mov	r3, sp
 1720 0024 1B7A     		ldrb	r3, [r3, #8]
 1721 0026 1A06     		lsl	r2, r3, #24
 1722 0028 6B46     		mov	r3, sp
 1723 002a 5B7A     		ldrb	r3, [r3, #9]
 1724 002c 1B04     		lsl	r3, r3, #16
 1725 002e 1343     		orr	r3, r2
 1726 0030 6A46     		mov	r2, sp
 1727 0032 D27A     		ldrb	r2, [r2, #11]
 1728 0034 1343     		orr	r3, r2
 1729 0036 6A46     		mov	r2, sp
 1730 0038 927A     		ldrb	r2, [r2, #10]
 1731 003a 1202     		lsl	r2, r2, #8
 1732 003c 1343     		orr	r3, r2
 734:Code\Device\W25Q80/user_data.c **** 							 openTmp.open_time[2], openTmp.open_time[3]);
 735:Code\Device\W25Q80/user_data.c **** 			if (tmp1 <= end_time)
 1733              		.loc 1 735 0
 1734 003e AB42     		cmp	r3, r5
 1735 0040 1ED9     		bls	.L97
 730:Code\Device\W25Q80/user_data.c **** 		{
 1736              		.loc 1 730 0
 1737 0042 013C     		sub	r4, r4, #1
 1738              	.LVL164:
 1739 0044 A4B2     		uxth	r4, r4
 1740              	.LVL165:
 736:Code\Device\W25Q80/user_data.c **** 			{
 737:Code\Device\W25Q80/user_data.c **** 				return i;
 738:Code\Device\W25Q80/user_data.c **** 			}
 739:Code\Device\W25Q80/user_data.c **** 		}
 1741              		.loc 1 739 0
 1742 0046 E8E7     		b	.L92
 1743              	.LVL166:
 1744              	.L94:
 740:Code\Device\W25Q80/user_data.c **** 	}
 741:Code\Device\W25Q80/user_data.c **** 	else
 742:Code\Device\W25Q80/user_data.c **** 	{
ARM GAS  C:\Users\Administrator\AppData\Local\Temp\ccShlVUx.s 			page 46


 743:Code\Device\W25Q80/user_data.c **** 		for (i = qty - 1; i >= qty - MAX_OPEN_NUM; i--)
 744:Code\Device\W25Q80/user_data.c **** 		{
 745:Code\Device\W25Q80/user_data.c **** 			Read_OpenInfo(i, &openTmp);
 1745              		.loc 1 745 0
 1746 0048 201C     		mov	r0, r4
 1747 004a 6946     		mov	r1, sp
 1748 004c FFF7FEFF 		bl	Read_OpenInfo
 1749              	.LVL167:
 746:Code\Device\W25Q80/user_data.c **** 			tmp1 = BYTE2LONG(openTmp.open_time[0], openTmp.open_time[1],
 1750              		.loc 1 746 0
 1751 0050 6B46     		mov	r3, sp
 1752 0052 1B7A     		ldrb	r3, [r3, #8]
 1753 0054 1A06     		lsl	r2, r3, #24
 1754 0056 6B46     		mov	r3, sp
 1755 0058 5B7A     		ldrb	r3, [r3, #9]
 1756 005a 1B04     		lsl	r3, r3, #16
 1757 005c 1343     		orr	r3, r2
 1758 005e 6A46     		mov	r2, sp
 1759 0060 D27A     		ldrb	r2, [r2, #11]
 1760 0062 1343     		orr	r3, r2
 1761 0064 6A46     		mov	r2, sp
 1762 0066 927A     		ldrb	r2, [r2, #10]
 1763 0068 1202     		lsl	r2, r2, #8
 1764 006a 1343     		orr	r3, r2
 747:Code\Device\W25Q80/user_data.c **** 							 openTmp.open_time[2], openTmp.open_time[3]);
 748:Code\Device\W25Q80/user_data.c **** 			if (tmp1 <= end_time)
 1765              		.loc 1 748 0
 1766 006c AB42     		cmp	r3, r5
 1767 006e 07D9     		bls	.L97
 743:Code\Device\W25Q80/user_data.c **** 		{
 1768              		.loc 1 743 0 discriminator 2
 1769 0070 013C     		sub	r4, r4, #1
 1770              	.LVL168:
 1771 0072 A4B2     		uxth	r4, r4
 1772              	.LVL169:
 1773              	.L93:
 743:Code\Device\W25Q80/user_data.c **** 		{
 1774              		.loc 1 743 0 is_stmt 0 discriminator 1
 1775 0074 054B     		ldr	r3, .L99+4
 1776 0076 F318     		add	r3, r6, r3
 1777 0078 9C42     		cmp	r4, r3
 1778 007a E5DA     		bge	.L94
 749:Code\Device\W25Q80/user_data.c **** 			{
 750:Code\Device\W25Q80/user_data.c **** 				return i;
 751:Code\Device\W25Q80/user_data.c **** 			}
 752:Code\Device\W25Q80/user_data.c **** 		}
 753:Code\Device\W25Q80/user_data.c **** 	}
 754:Code\Device\W25Q80/user_data.c **** 	return 0xFFFF;
 1779              		.loc 1 754 0 is_stmt 1
 1780 007c 0448     		ldr	r0, .L99+8
 1781 007e 00E0     		b	.L90
 1782              	.L97:
 750:Code\Device\W25Q80/user_data.c **** 			}
 1783              		.loc 1 750 0
 1784 0080 201C     		mov	r0, r4
 1785              	.LVL170:
 1786              	.L90:
ARM GAS  C:\Users\Administrator\AppData\Local\Temp\ccShlVUx.s 			page 47


 755:Code\Device\W25Q80/user_data.c **** }
 1787              		.loc 1 755 0
 1788 0082 04B0     		add	sp, sp, #16
 1789              		@ sp needed
 1790              	.LVL171:
 1791              	.LVL172:
 1792 0084 70BD     		pop	{r4, r5, r6, pc}
 1793              	.L100:
 1794 0086 C046     		.align	2
 1795              	.L99:
 1796 0088 88130000 		.word	5000
 1797 008c 78ECFFFF 		.word	-5000
 1798 0090 FFFF0000 		.word	65535
 1799              		.cfi_endproc
 1800              	.LFE92:
 1801              		.size	Find_Open_EndNum, .-Find_Open_EndNum
 1802              		.section	.text.Find_Open_ValidQty,"ax",%progbits
 1803              		.align	1
 1804              		.global	Find_Open_ValidQty
 1805              		.code	16
 1806              		.thumb_func
 1807              		.type	Find_Open_ValidQty, %function
 1808              	Find_Open_ValidQty:
 1809              	.LFB93:
 756:Code\Device\W25Q80/user_data.c **** 
 757:Code\Device\W25Q80/user_data.c **** //*************************************************************************************************
 758:Code\Device\W25Q80/user_data.c **** // Function name	: Find_Open_ValidQty
 759:Code\Device\W25Q80/user_data.c **** // Description		: 根据开始时间、结束时间计算需回传的开门总数
 760:Code\Device\W25Q80/user_data.c **** // Parameter		: start_time, end_time
 761:Code\Device\W25Q80/user_data.c **** // Return			: none
 762:Code\Device\W25Q80/user_data.c **** //-------------------------------------------------------------------------------------------------
 763:Code\Device\W25Q80/user_data.c **** // Info				: 
 764:Code\Device\W25Q80/user_data.c **** //*************************************************************************************************
 765:Code\Device\W25Q80/user_data.c **** uint16 Find_Open_ValidQty(uint32 start_time, uint32 end_time)
 766:Code\Device\W25Q80/user_data.c **** {
 1810              		.loc 1 766 0
 1811              		.cfi_startproc
 1812              	.LVL173:
 1813 0000 70B5     		push	{r4, r5, r6, lr}
 1814              		.cfi_def_cfa_offset 16
 1815              		.cfi_offset 4, -16
 1816              		.cfi_offset 5, -12
 1817              		.cfi_offset 6, -8
 1818              		.cfi_offset 14, -4
 1819              		.loc 1 766 0
 1820 0002 051C     		mov	r5, r0
 1821 0004 0E1C     		mov	r6, r1
 767:Code\Device\W25Q80/user_data.c **** 	uint16 start_num, end_num, allqty;
 768:Code\Device\W25Q80/user_data.c **** 
 769:Code\Device\W25Q80/user_data.c **** 	allqty = Read_Open_Qty();
 1822              		.loc 1 769 0
 1823 0006 FFF7FEFF 		bl	Read_Open_Qty
 1824              	.LVL174:
 1825 000a 041E     		sub	r4, r0, #0
 1826              	.LVL175:
 770:Code\Device\W25Q80/user_data.c **** 	if (allqty == 0)
 1827              		.loc 1 770 0
ARM GAS  C:\Users\Administrator\AppData\Local\Temp\ccShlVUx.s 			page 48


 1828 000c 01D1     		bne	.L102
 1829              	.LVL176:
 1830              	.L104:
 771:Code\Device\W25Q80/user_data.c **** 	{
 772:Code\Device\W25Q80/user_data.c **** 		return 0;
 1831              		.loc 1 772 0
 1832 000e 0020     		mov	r0, #0
 1833 0010 10E0     		b	.L103
 1834              	.LVL177:
 1835              	.L102:
 773:Code\Device\W25Q80/user_data.c **** 	}
 774:Code\Device\W25Q80/user_data.c **** 	start_num = Find_Open_StartNum(start_time);
 1836              		.loc 1 774 0
 1837 0012 281C     		mov	r0, r5
 1838              	.LVL178:
 1839 0014 FFF7FEFF 		bl	Find_Open_StartNum
 1840              	.LVL179:
 1841 0018 051C     		mov	r5, r0
 1842              	.LVL180:
 775:Code\Device\W25Q80/user_data.c **** 	end_num = Find_Open_EndNum(end_time);
 1843              		.loc 1 775 0
 1844 001a 301C     		mov	r0, r6
 1845 001c FFF7FEFF 		bl	Find_Open_EndNum
 1846              	.LVL181:
 776:Code\Device\W25Q80/user_data.c **** 	if (start_num == 0xFFFF)
 1847              		.loc 1 776 0
 1848 0020 054B     		ldr	r3, .L107
 1849 0022 9D42     		cmp	r5, r3
 1850 0024 F3D0     		beq	.L104
 777:Code\Device\W25Q80/user_data.c **** 	{
 778:Code\Device\W25Q80/user_data.c **** 		return 0;
 779:Code\Device\W25Q80/user_data.c **** 	}
 780:Code\Device\W25Q80/user_data.c **** 	else
 781:Code\Device\W25Q80/user_data.c **** 	{
 782:Code\Device\W25Q80/user_data.c **** 		if (end_num == 0xFFFF)
 1851              		.loc 1 782 0
 1852 0026 9842     		cmp	r0, r3
 1853 0028 01D1     		bne	.L105
 783:Code\Device\W25Q80/user_data.c **** 		{
 784:Code\Device\W25Q80/user_data.c **** 			return (allqty - start_num);
 1854              		.loc 1 784 0
 1855 002a 601B     		sub	r0, r4, r5
 1856              	.LVL182:
 1857 002c 01E0     		b	.L106
 1858              	.LVL183:
 1859              	.L105:
 1860 002e 0130     		add	r0, r0, #1
 1861              	.LVL184:
 785:Code\Device\W25Q80/user_data.c **** 		}
 786:Code\Device\W25Q80/user_data.c **** 		else
 787:Code\Device\W25Q80/user_data.c **** 		{
 788:Code\Device\W25Q80/user_data.c **** 			return (end_num - start_num + 1);
 1862              		.loc 1 788 0
 1863 0030 401B     		sub	r0, r0, r5
 1864              	.L106:
 1865 0032 80B2     		uxth	r0, r0
 1866              	.LVL185:
ARM GAS  C:\Users\Administrator\AppData\Local\Temp\ccShlVUx.s 			page 49


 1867              	.L103:
 789:Code\Device\W25Q80/user_data.c **** 		}
 790:Code\Device\W25Q80/user_data.c **** 	}
 791:Code\Device\W25Q80/user_data.c **** }
 1868              		.loc 1 791 0
 1869              		@ sp needed
 1870              	.LVL186:
 1871 0034 70BD     		pop	{r4, r5, r6, pc}
 1872              	.L108:
 1873 0036 C046     		.align	2
 1874              	.L107:
 1875 0038 FFFF0000 		.word	65535
 1876              		.cfi_endproc
 1877              	.LFE93:
 1878              		.size	Find_Open_ValidQty, .-Find_Open_ValidQty
 1879              		.section	.text.Get_Open_Info,"ax",%progbits
 1880              		.align	1
 1881              		.global	Get_Open_Info
 1882              		.code	16
 1883              		.thumb_func
 1884              		.type	Get_Open_Info, %function
 1885              	Get_Open_Info:
 1886              	.LFB94:
 792:Code\Device\W25Q80/user_data.c **** 
 793:Code\Device\W25Q80/user_data.c **** //*************************************************************************************************
 794:Code\Device\W25Q80/user_data.c **** // Function name	: Get_Open_Info
 795:Code\Device\W25Q80/user_data.c **** // Description		: 根据开始编号、数量来提取开门记录信息
 796:Code\Device\W25Q80/user_data.c **** // Parameter		: start_num, qty , *data
 797:Code\Device\W25Q80/user_data.c **** // Return			: none
 798:Code\Device\W25Q80/user_data.c **** //-------------------------------------------------------------------------------------------------
 799:Code\Device\W25Q80/user_data.c **** // Info				: 
 800:Code\Device\W25Q80/user_data.c **** //*************************************************************************************************
 801:Code\Device\W25Q80/user_data.c **** void Get_Open_Info(uint16 start_num, uint16 qty, uint8 *data)
 802:Code\Device\W25Q80/user_data.c **** {
 1887              		.loc 1 802 0
 1888              		.cfi_startproc
 1889              	.LVL187:
 1890 0000 F8B5     		push	{r3, r4, r5, r6, r7, lr}
 1891              		.cfi_def_cfa_offset 24
 1892              		.cfi_offset 3, -24
 1893              		.cfi_offset 4, -20
 1894              		.cfi_offset 5, -16
 1895              		.cfi_offset 6, -12
 1896              		.cfi_offset 7, -8
 1897              		.cfi_offset 14, -4
 1898              		.loc 1 802 0
 1899 0002 051C     		mov	r5, r0
 1900              	.LVL188:
 1901 0004 0E1C     		mov	r6, r1
 1902 0006 171C     		mov	r7, r2
 803:Code\Device\W25Q80/user_data.c **** 	uint16 i, offset = 0;
 804:Code\Device\W25Q80/user_data.c **** 	
 805:Code\Device\W25Q80/user_data.c **** 	for (i = start_num; i < start_num + qty; i++)
 1903              		.loc 1 805 0
 1904 0008 0024     		mov	r4, #0
 1905              	.LVL189:
 1906              	.L110:
ARM GAS  C:\Users\Administrator\AppData\Local\Temp\ccShlVUx.s 			page 50


 1907 000a A0B2     		uxth	r0, r4
 1908 000c 0101     		lsl	r1, r0, #4
 1909 000e 4019     		add	r0, r0, r5
 1910 0010 80B2     		uxth	r0, r0
 1911              		.loc 1 805 0 is_stmt 0 discriminator 1
 1912 0012 AB19     		add	r3, r5, r6
 1913 0014 89B2     		uxth	r1, r1
 1914              	.LVL190:
 1915 0016 0134     		add	r4, r4, #1
 1916 0018 9842     		cmp	r0, r3
 1917 001a 03DA     		bge	.L112
 806:Code\Device\W25Q80/user_data.c **** 	{
 807:Code\Device\W25Q80/user_data.c **** 		Read_OpenInfo(i, (open_door_t *)(data + offset));
 1918              		.loc 1 807 0 is_stmt 1 discriminator 3
 1919 001c 7918     		add	r1, r7, r1
 1920              	.LVL191:
 1921 001e FFF7FEFF 		bl	Read_OpenInfo
 1922              	.LVL192:
 1923 0022 F2E7     		b	.L110
 1924              	.LVL193:
 1925              	.L112:
 808:Code\Device\W25Q80/user_data.c **** 		offset += sizeof(open_door_t);
 809:Code\Device\W25Q80/user_data.c **** 	}
 810:Code\Device\W25Q80/user_data.c **** }
 1926              		.loc 1 810 0
 1927              		@ sp needed
 1928              	.LVL194:
 1929 0024 F8BD     		pop	{r3, r4, r5, r6, r7, pc}
 1930              		.cfi_endproc
 1931              	.LFE94:
 1932              		.size	Get_Open_Info, .-Get_Open_Info
 1933              		.section	.text.FindAndSet_UploadTime_UploadFlag,"ax",%progbits
 1934              		.align	1
 1935              		.global	FindAndSet_UploadTime_UploadFlag
 1936              		.code	16
 1937              		.thumb_func
 1938              		.type	FindAndSet_UploadTime_UploadFlag, %function
 1939              	FindAndSet_UploadTime_UploadFlag:
 1940              	.LFB95:
 811:Code\Device\W25Q80/user_data.c **** 
 812:Code\Device\W25Q80/user_data.c **** //*************************************************************************************************
 813:Code\Device\W25Q80/user_data.c **** // Function name	: FindAndSet_UploadTime_UploadFlag
 814:Code\Device\W25Q80/user_data.c **** // Description		: 根据时间查找开门记录，并更新上报时间及上报成功标志
 815:Code\Device\W25Q80/user_data.c **** // Parameter		: open_time	: 开门时间
 816:Code\Device\W25Q80/user_data.c **** //					: utc_time	: 时间戳
 817:Code\Device\W25Q80/user_data.c **** // Return			: none
 818:Code\Device\W25Q80/user_data.c **** //-------------------------------------------------------------------------------------------------
 819:Code\Device\W25Q80/user_data.c **** // Info				: 
 820:Code\Device\W25Q80/user_data.c **** //*************************************************************************************************
 821:Code\Device\W25Q80/user_data.c **** void FindAndSet_UploadTime_UploadFlag(uint8 *open_time, uint8 *utc_time)
 822:Code\Device\W25Q80/user_data.c **** {
 1941              		.loc 1 822 0
 1942              		.cfi_startproc
 1943              	.LVL195:
 1944 0000 F0B5     		push	{r4, r5, r6, r7, lr}
 1945              		.cfi_def_cfa_offset 20
 1946              		.cfi_offset 4, -20
ARM GAS  C:\Users\Administrator\AppData\Local\Temp\ccShlVUx.s 			page 51


 1947              		.cfi_offset 5, -16
 1948              		.cfi_offset 6, -12
 1949              		.cfi_offset 7, -8
 1950              		.cfi_offset 14, -4
 1951 0002 041C     		mov	r4, r0
 1952 0004 93B0     		sub	sp, sp, #76
 1953              		.cfi_def_cfa_offset 96
 1954              		.loc 1 822 0
 1955 0006 0791     		str	r1, [sp, #28]
 823:Code\Device\W25Q80/user_data.c **** 	uint16_t i, OpenQty;
 824:Code\Device\W25Q80/user_data.c **** 	open_door_t OpenInfo;
 825:Code\Device\W25Q80/user_data.c **** 	uint32 open_time_utc;
 826:Code\Device\W25Q80/user_data.c **** 	uint32 open_time_flash;
 827:Code\Device\W25Q80/user_data.c **** 	uint8 opendate_tmp[17] = {0};
 1956              		.loc 1 827 0
 1957 0008 1122     		mov	r2, #17
 1958 000a 0021     		mov	r1, #0
 1959              	.LVL196:
 1960 000c 0DA8     		add	r0, sp, #52
 1961              	.LVL197:
 1962 000e FFF7FEFF 		bl	memset
 1963              	.LVL198:
 828:Code\Device\W25Q80/user_data.c **** 	uint32 readoff = 0;
 829:Code\Device\W25Q80/user_data.c **** 	
 830:Code\Device\W25Q80/user_data.c **** 	open_time_utc = BYTE2LONG(open_time[0], open_time[1], open_time[2], open_time[3]);
 1964              		.loc 1 830 0
 1965 0012 2378     		ldrb	r3, [r4]
 1966 0014 1A06     		lsl	r2, r3, #24
 1967 0016 6378     		ldrb	r3, [r4, #1]
 1968 0018 1B04     		lsl	r3, r3, #16
 1969 001a 1343     		orr	r3, r2
 1970 001c E278     		ldrb	r2, [r4, #3]
 1971 001e 1343     		orr	r3, r2
 1972 0020 A278     		ldrb	r2, [r4, #2]
 1973 0022 1202     		lsl	r2, r2, #8
 1974 0024 1343     		orr	r3, r2
 1975 0026 0193     		str	r3, [sp, #4]
 1976              	.LVL199:
 831:Code\Device\W25Q80/user_data.c **** 	OpenQty = Read_Open_Qty();
 1977              		.loc 1 831 0
 1978 0028 FFF7FEFF 		bl	Read_Open_Qty
 1979              	.LVL200:
 832:Code\Device\W25Q80/user_data.c **** 	//OpenQty %= MAX_OPEN_NUM;
 833:Code\Device\W25Q80/user_data.c **** 	if (OpenQty <= MAX_OPEN_NUM)
 1980              		.loc 1 833 0
 1981 002c 6F4B     		ldr	r3, .L130
 831:Code\Device\W25Q80/user_data.c **** 	OpenQty = Read_Open_Qty();
 1982              		.loc 1 831 0
 1983 002e 071C     		mov	r7, r0
 1984              	.LVL201:
 1985 0030 0138     		sub	r0, r0, #1
 1986              	.LVL202:
 834:Code\Device\W25Q80/user_data.c **** 	{
 835:Code\Device\W25Q80/user_data.c **** 		for (i = OpenQty - 1; i >= 0; i--)
 1987              		.loc 1 835 0
 1988 0032 80B2     		uxth	r0, r0
 833:Code\Device\W25Q80/user_data.c **** 	{
ARM GAS  C:\Users\Administrator\AppData\Local\Temp\ccShlVUx.s 			page 52


 1989              		.loc 1 833 0
 1990 0034 9F42     		cmp	r7, r3
 1991 0036 00D9     		bls	.LCB1751
 1992 0038 C6E0     		b	.L121	@long jump
 1993              	.LCB1751:
 1994              	.LVL203:
 1995              	.L120:
 836:Code\Device\W25Q80/user_data.c **** 		{
 837:Code\Device\W25Q80/user_data.c **** 			i %= MAX_OPEN_NUM;
 838:Code\Device\W25Q80/user_data.c **** 			readoff = i * (1 + sizeof(open_door_t));
 1996              		.loc 1 838 0
 1997 003a 1126     		mov	r6, #17
 837:Code\Device\W25Q80/user_data.c **** 			readoff = i * (1 + sizeof(open_door_t));
 1998              		.loc 1 837 0
 1999 003c 6B49     		ldr	r1, .L130
 2000 003e FFF7FEFF 		bl	__aeabi_uidivmod
 2001              	.LVL204:
 2002              		.loc 1 838 0
 2003 0042 351C     		mov	r5, r6
 837:Code\Device\W25Q80/user_data.c **** 			readoff = i * (1 + sizeof(open_door_t));
 2004              		.loc 1 837 0
 2005 0044 8FB2     		uxth	r7, r1
 2006              	.LVL205:
 2007              		.loc 1 838 0
 2008 0046 7D43     		mul	r5, r7
 2009              	.LVL206:
 839:Code\Device\W25Q80/user_data.c **** 			if((readoff % 0xff) == 0)
 2010              		.loc 1 839 0
 2011 0048 FF21     		mov	r1, #255
 2012 004a 281C     		mov	r0, r5
 2013 004c FFF7FEFF 		bl	__aeabi_uidivmod
 2014              	.LVL207:
 2015 0050 0DAC     		add	r4, sp, #52
 2016 0052 0029     		cmp	r1, #0
 2017 0054 07D1     		bne	.L115
 2018              	.LVL208:
 840:Code\Device\W25Q80/user_data.c **** 			{
 841:Code\Device\W25Q80/user_data.c **** 				readoff += 1;
 842:Code\Device\W25Q80/user_data.c **** 				W25QXX_Read((uint8 *)opendate_tmp+1, OPEN_INFO_BASE + (readoff), (sizeof(open_door_t)));
 2019              		.loc 1 842 0
 2020 0056 1523     		mov	r3, #21
 2021 0058 08AA     		add	r2, sp, #32
 2022 005a 9B18     		add	r3, r3, r2
 2023 005c 181C     		mov	r0, r3
 2024 005e 644B     		ldr	r3, .L130+4
 2025 0060 1022     		mov	r2, #16
 2026 0062 E918     		add	r1, r5, r3
 2027 0064 04E0     		b	.L128
 2028              	.LVL209:
 2029              	.L115:
 843:Code\Device\W25Q80/user_data.c **** 			}
 844:Code\Device\W25Q80/user_data.c **** 			else
 845:Code\Device\W25Q80/user_data.c **** 			{
 846:Code\Device\W25Q80/user_data.c **** 				W25QXX_Read((uint8 *)opendate_tmp, OPEN_INFO_BASE + (readoff), (sizeof(open_door_t) + 1));
 2030              		.loc 1 846 0
 2031 0066 B823     		mov	r3, #184
 2032 0068 201C     		mov	r0, r4
ARM GAS  C:\Users\Administrator\AppData\Local\Temp\ccShlVUx.s 			page 53


 2033 006a 321C     		mov	r2, r6
 2034 006c 9B01     		lsl	r3, r3, #6
 2035 006e E918     		add	r1, r5, r3
 2036              	.LVL210:
 2037              	.L128:
 2038 0070 FFF7FEFF 		bl	W25QXX_Read
 2039              	.LVL211:
 847:Code\Device\W25Q80/user_data.c **** 			}
 848:Code\Device\W25Q80/user_data.c **** 			memcpy((uint8 *)&OpenInfo, opendate_tmp+1, 16);
 2040              		.loc 1 848 0
 2041 0074 1523     		mov	r3, #21
 2042 0076 08AA     		add	r2, sp, #32
 2043 0078 9B18     		add	r3, r3, r2
 2044 007a 09AE     		add	r6, sp, #36
 2045 007c 191C     		mov	r1, r3
 2046 007e 1022     		mov	r2, #16
 2047 0080 301C     		mov	r0, r6
 2048 0082 FFF7FEFF 		bl	memcpy
 2049              	.LVL212:
 2050 0086 637A     		ldrb	r3, [r4, #9]
 2051 0088 0393     		str	r3, [sp, #12]
 2052              	.LVL213:
 2053 008a A37A     		ldrb	r3, [r4, #10]
 2054 008c 0493     		str	r3, [sp, #16]
 2055              	.LVL214:
 2056 008e E37A     		ldrb	r3, [r4, #11]
 2057 0090 0293     		str	r3, [sp, #8]
 2058              	.LVL215:
 2059 0092 237B     		ldrb	r3, [r4, #12]
 2060 0094 0593     		str	r3, [sp, #20]
 2061              	.LVL216:
 849:Code\Device\W25Q80/user_data.c **** 			//DBG_SOFT_PutStr("\n ret_code = 1, find sendtime @ i:");
 850:Code\Device\W25Q80/user_data.c **** 			//DBG_SOFT_PrintfHex(&i,1,1);	
 851:Code\Device\W25Q80/user_data.c **** 			//DBG_SOFT_PrintfHex(opendate_tmp,16,16);		
 852:Code\Device\W25Q80/user_data.c **** 			
 853:Code\Device\W25Q80/user_data.c **** 			//Read_OpenInfo(i,&OpenInfo);
 854:Code\Device\W25Q80/user_data.c **** 			open_time_flash = BYTE2LONG(OpenInfo.open_time[0], OpenInfo.open_time[1],
 2062              		.loc 1 854 0
 2063 0096 039B     		ldr	r3, [sp, #12]
 2064 0098 1A06     		lsl	r2, r3, #24
 2065 009a 049B     		ldr	r3, [sp, #16]
 2066 009c 1B04     		lsl	r3, r3, #16
 2067 009e 1343     		orr	r3, r2
 2068 00a0 059A     		ldr	r2, [sp, #20]
 2069 00a2 1343     		orr	r3, r2
 2070 00a4 029A     		ldr	r2, [sp, #8]
 2071 00a6 1202     		lsl	r2, r2, #8
 2072 00a8 1343     		orr	r3, r2
 2073              	.LVL217:
 855:Code\Device\W25Q80/user_data.c **** 							 			OpenInfo.open_time[2], OpenInfo.open_time[3]);
 856:Code\Device\W25Q80/user_data.c **** 			//DBG_SOFT_PutStr("\nopen_time_flash :");
 857:Code\Device\W25Q80/user_data.c **** 			//DBG_SOFT_PutHexInt(open_time_flash);
 858:Code\Device\W25Q80/user_data.c **** 			if (open_time_flash == open_time_utc)
 2074              		.loc 1 858 0
 2075 00aa 019A     		ldr	r2, [sp, #4]
 2076 00ac 9342     		cmp	r3, r2
 2077 00ae 26D1     		bne	.L117
ARM GAS  C:\Users\Administrator\AppData\Local\Temp\ccShlVUx.s 			page 54


 859:Code\Device\W25Q80/user_data.c **** 			{
 860:Code\Device\W25Q80/user_data.c **** 				DBG_SOFT_PutStr("\n===>back upload open date :<===\n");
 861:Code\Device\W25Q80/user_data.c **** 				memcpy(OpenInfo.send_time, utc_time, TIME_LEN);
 2078              		.loc 1 861 0
 2079 00b0 0799     		ldr	r1, [sp, #28]
 2080 00b2 0CA8     		add	r0, sp, #48
 2081 00b4 0422     		mov	r2, #4
 2082 00b6 FFF7FEFF 		bl	memcpy
 2083              	.LVL218:
 862:Code\Device\W25Q80/user_data.c **** 				opendate_tmp[0] = 0x01;
 2084              		.loc 1 862 0
 2085 00ba 0123     		mov	r3, #1
 2086 00bc 2370     		strb	r3, [r4]
 863:Code\Device\W25Q80/user_data.c **** 				memcpy(opendate_tmp+1,(uint8 *)&OpenInfo,16);
 2087              		.loc 1 863 0
 2088 00be 6B46     		mov	r3, sp
 2089 00c0 1B7B     		ldrb	r3, [r3, #12]
 2090 00c2 08AA     		add	r2, sp, #32
 2091 00c4 3372     		strb	r3, [r6, #8]
 2092 00c6 6B46     		mov	r3, sp
 2093 00c8 1B7C     		ldrb	r3, [r3, #16]
 2094 00ca 311C     		mov	r1, r6
 2095 00cc 7372     		strb	r3, [r6, #9]
 2096 00ce 6B46     		mov	r3, sp
 2097 00d0 1B7A     		ldrb	r3, [r3, #8]
 2098 00d2 B372     		strb	r3, [r6, #10]
 2099 00d4 6B46     		mov	r3, sp
 2100 00d6 1B7D     		ldrb	r3, [r3, #20]
 2101 00d8 F372     		strb	r3, [r6, #11]
 2102 00da 1523     		mov	r3, #21
 2103 00dc 9B18     		add	r3, r3, r2
 2104 00de 181C     		mov	r0, r3
 2105 00e0 1022     		mov	r2, #16
 2106 00e2 FFF7FEFF 		bl	memcpy
 2107              	.LVL219:
 864:Code\Device\W25Q80/user_data.c **** 				W25QXX_Write((uint8 *)opendate_tmp, OPEN_INFO_BASE + i * (1 + sizeof(open_door_t)), (sizeof(ope
 2108              		.loc 1 864 0
 2109 00e6 B823     		mov	r3, #184
 2110 00e8 9B01     		lsl	r3, r3, #6
 2111 00ea E918     		add	r1, r5, r3
 2112 00ec 201C     		mov	r0, r4
 2113 00ee 1122     		mov	r2, #17
 2114 00f0 FFF7FEFF 		bl	W25QXX_Write
 2115              	.LVL220:
 865:Code\Device\W25Q80/user_data.c **** 				  //==Write_OpenInfo((open_door_t *)&OpenInfo, 0);				
 866:Code\Device\W25Q80/user_data.c **** 				Write_Open_UploadFlag(i, TRUE);
 2116              		.loc 1 866 0
 2117 00f4 381C     		mov	r0, r7
 2118 00f6 0121     		mov	r1, #1
 2119 00f8 FFF7FEFF 		bl	Write_Open_UploadFlag
 2120              	.LVL221:
 2121 00fc 03E0     		b	.L118
 2122              	.LVL222:
 2123              	.L117:
 867:Code\Device\W25Q80/user_data.c **** 			}
 868:Code\Device\W25Q80/user_data.c **** 			else if ((open_time_flash + Delta) < open_time_utc)
 2124              		.loc 1 868 0
ARM GAS  C:\Users\Administrator\AppData\Local\Temp\ccShlVUx.s 			page 55


 2125 00fe 019A     		ldr	r2, [sp, #4]
 2126 0100 1E33     		add	r3, r3, #30
 2127              	.LVL223:
 2128 0102 9342     		cmp	r3, r2
 2129 0104 6FD3     		bcc	.L113
 2130              	.LVL224:
 2131              	.L118:
 835:Code\Device\W25Q80/user_data.c **** 		{
 2132              		.loc 1 835 0
 2133 0106 781E     		sub	r0, r7, #1
 2134 0108 80B2     		uxth	r0, r0
 2135              	.LVL225:
 869:Code\Device\W25Q80/user_data.c **** 			{
 870:Code\Device\W25Q80/user_data.c **** 				return;
 871:Code\Device\W25Q80/user_data.c **** 			}
 872:Code\Device\W25Q80/user_data.c **** 		}
 2136              		.loc 1 872 0
 2137 010a 96E7     		b	.L120
 2138              	.LVL226:
 2139              	.L126:
 873:Code\Device\W25Q80/user_data.c **** 	}
 874:Code\Device\W25Q80/user_data.c **** 	else
 875:Code\Device\W25Q80/user_data.c **** 	{
 876:Code\Device\W25Q80/user_data.c **** 		for (i = OpenQty - 1; i >= OpenQty - MAX_OPEN_NUM; i--)
 877:Code\Device\W25Q80/user_data.c **** 		{
 878:Code\Device\W25Q80/user_data.c **** 			i %= MAX_OPEN_NUM;
 2140              		.loc 1 878 0
 2141 010c 3749     		ldr	r1, .L130
 2142 010e FFF7FEFF 		bl	__aeabi_uidivmod
 2143              	.LVL227:
 2144 0112 8BB2     		uxth	r3, r1
 879:Code\Device\W25Q80/user_data.c **** 			readoff = i * (1 + sizeof(open_door_t));
 2145              		.loc 1 879 0
 2146 0114 1D1C     		mov	r5, r3
 2147 0116 1126     		mov	r6, #17
 2148 0118 7543     		mul	r5, r6
 880:Code\Device\W25Q80/user_data.c **** 			if((readoff % 0xff) == 0)
 2149              		.loc 1 880 0
 2150 011a FF21     		mov	r1, #255
 2151 011c 281C     		mov	r0, r5
 878:Code\Device\W25Q80/user_data.c **** 			readoff = i * (1 + sizeof(open_door_t));
 2152              		.loc 1 878 0
 2153 011e 0293     		str	r3, [sp, #8]
 2154              	.LVL228:
 2155              		.loc 1 880 0
 2156 0120 FFF7FEFF 		bl	__aeabi_uidivmod
 2157              	.LVL229:
 2158 0124 0DAC     		add	r4, sp, #52
 2159 0126 0029     		cmp	r1, #0
 2160 0128 53D1     		bne	.L122
 2161              	.LVL230:
 881:Code\Device\W25Q80/user_data.c **** 			{
 882:Code\Device\W25Q80/user_data.c **** 				readoff += 1;
 883:Code\Device\W25Q80/user_data.c **** 				W25QXX_Read((uint8 *)opendate_tmp+1, OPEN_INFO_BASE + (readoff), (sizeof(open_door_t)));
 2162              		.loc 1 883 0
 2163 012a 1520     		mov	r0, #21
 2164 012c 1022     		mov	r2, #16
ARM GAS  C:\Users\Administrator\AppData\Local\Temp\ccShlVUx.s 			page 56


 2165 012e 08AB     		add	r3, sp, #32
 2166 0130 C018     		add	r0, r0, r3
 2167 0132 2F4B     		ldr	r3, .L130+4
 2168 0134 E918     		add	r1, r5, r3
 2169              	.LVL231:
 2170              	.L129:
 884:Code\Device\W25Q80/user_data.c **** 			}
 885:Code\Device\W25Q80/user_data.c **** 			else
 886:Code\Device\W25Q80/user_data.c **** 			{
 887:Code\Device\W25Q80/user_data.c **** 				W25QXX_Read((uint8 *)opendate_tmp, OPEN_INFO_BASE + (readoff), (sizeof(open_door_t) + 1));
 2171              		.loc 1 887 0
 2172 0136 FFF7FEFF 		bl	W25QXX_Read
 2173              	.LVL232:
 888:Code\Device\W25Q80/user_data.c **** 			}
 889:Code\Device\W25Q80/user_data.c **** 			//W25QXX_Read((uint8 *)opendate_tmp, OPEN_INFO_BASE + i * (1+sizeof(open_door_t)), (sizeof(open_
 890:Code\Device\W25Q80/user_data.c **** 			memcpy((uint8 *)&OpenInfo, opendate_tmp+1, 16);
 2174              		.loc 1 890 0
 2175 013a 1523     		mov	r3, #21
 2176 013c 08AA     		add	r2, sp, #32
 2177 013e 9B18     		add	r3, r3, r2
 2178 0140 09AE     		add	r6, sp, #36
 2179 0142 191C     		mov	r1, r3
 2180 0144 1022     		mov	r2, #16
 2181 0146 301C     		mov	r0, r6
 2182 0148 FFF7FEFF 		bl	memcpy
 2183              	.LVL233:
 2184 014c 637A     		ldrb	r3, [r4, #9]
 2185 014e 0393     		str	r3, [sp, #12]
 2186              	.LVL234:
 2187 0150 A37A     		ldrb	r3, [r4, #10]
 2188 0152 0593     		str	r3, [sp, #20]
 2189              	.LVL235:
 2190 0154 E37A     		ldrb	r3, [r4, #11]
 2191 0156 0693     		str	r3, [sp, #24]
 2192              	.LVL236:
 2193 0158 237B     		ldrb	r3, [r4, #12]
 2194 015a 0493     		str	r3, [sp, #16]
 2195              	.LVL237:
 891:Code\Device\W25Q80/user_data.c **** 			
 892:Code\Device\W25Q80/user_data.c **** 			//==Read_OpenInfo(i,&OpenInfo);
 893:Code\Device\W25Q80/user_data.c **** 			open_time_flash = BYTE2LONG(OpenInfo.open_time[0], OpenInfo.open_time[1],
 2196              		.loc 1 893 0
 2197 015c 039B     		ldr	r3, [sp, #12]
 2198 015e 1A06     		lsl	r2, r3, #24
 2199 0160 059B     		ldr	r3, [sp, #20]
 2200 0162 1B04     		lsl	r3, r3, #16
 2201 0164 1343     		orr	r3, r2
 2202 0166 049A     		ldr	r2, [sp, #16]
 2203 0168 1343     		orr	r3, r2
 2204 016a 069A     		ldr	r2, [sp, #24]
 2205 016c 1202     		lsl	r2, r2, #8
 2206 016e 1343     		orr	r3, r2
 2207              	.LVL238:
 894:Code\Device\W25Q80/user_data.c **** 							 			OpenInfo.open_time[2], OpenInfo.open_time[3]);
 895:Code\Device\W25Q80/user_data.c **** 			if (open_time_flash == open_time_utc)
 2208              		.loc 1 895 0
 2209 0170 019A     		ldr	r2, [sp, #4]
ARM GAS  C:\Users\Administrator\AppData\Local\Temp\ccShlVUx.s 			page 57


 2210 0172 9342     		cmp	r3, r2
 2211 0174 33D1     		bne	.L124
 896:Code\Device\W25Q80/user_data.c **** 			{
 897:Code\Device\W25Q80/user_data.c **** 				memcpy(OpenInfo.send_time, utc_time, TIME_LEN);
 2212              		.loc 1 897 0
 2213 0176 0799     		ldr	r1, [sp, #28]
 2214 0178 0422     		mov	r2, #4
 2215 017a 0CA8     		add	r0, sp, #48
 2216 017c FFF7FEFF 		bl	memcpy
 2217              	.LVL239:
 898:Code\Device\W25Q80/user_data.c **** 				opendate_tmp[0] = 0x01;
 2218              		.loc 1 898 0
 2219 0180 0123     		mov	r3, #1
 2220 0182 2370     		strb	r3, [r4]
 899:Code\Device\W25Q80/user_data.c **** 				memcpy(opendate_tmp+1,(uint8 *)&OpenInfo,16);
 2221              		.loc 1 899 0
 2222 0184 6B46     		mov	r3, sp
 2223 0186 1B7B     		ldrb	r3, [r3, #12]
 2224 0188 08AA     		add	r2, sp, #32
 2225 018a 3372     		strb	r3, [r6, #8]
 2226 018c 6B46     		mov	r3, sp
 2227 018e 1B7D     		ldrb	r3, [r3, #20]
 2228 0190 311C     		mov	r1, r6
 2229 0192 7372     		strb	r3, [r6, #9]
 2230 0194 6B46     		mov	r3, sp
 2231 0196 1B7E     		ldrb	r3, [r3, #24]
 2232 0198 B372     		strb	r3, [r6, #10]
 2233 019a 6B46     		mov	r3, sp
 2234 019c 1B7C     		ldrb	r3, [r3, #16]
 2235 019e F372     		strb	r3, [r6, #11]
 2236 01a0 1523     		mov	r3, #21
 2237 01a2 9B18     		add	r3, r3, r2
 2238 01a4 181C     		mov	r0, r3
 2239 01a6 1022     		mov	r2, #16
 2240 01a8 FFF7FEFF 		bl	memcpy
 2241              	.LVL240:
 900:Code\Device\W25Q80/user_data.c **** 				W25QXX_Write((uint8 *)opendate_tmp, OPEN_INFO_BASE + i * (1 + sizeof(open_door_t)), (sizeof(ope
 2242              		.loc 1 900 0
 2243 01ac B823     		mov	r3, #184
 2244 01ae 9B01     		lsl	r3, r3, #6
 2245 01b0 E918     		add	r1, r5, r3
 2246 01b2 201C     		mov	r0, r4
 2247 01b4 1122     		mov	r2, #17
 2248 01b6 FFF7FEFF 		bl	W25QXX_Write
 2249              	.LVL241:
 901:Code\Device\W25Q80/user_data.c **** 				
 902:Code\Device\W25Q80/user_data.c **** 				//==Write_OpenInfo((open_door_t *)&OpenInfo, 0);	
 903:Code\Device\W25Q80/user_data.c **** 				Write_Open_UploadFlag(i, TRUE);				
 2250              		.loc 1 903 0
 2251 01ba 0298     		ldr	r0, [sp, #8]
 2252 01bc 0121     		mov	r1, #1
 2253 01be FFF7FEFF 		bl	Write_Open_UploadFlag
 2254              	.LVL242:
 2255              	.L125:
 876:Code\Device\W25Q80/user_data.c **** 		{
 2256              		.loc 1 876 0 discriminator 2
 2257 01c2 0298     		ldr	r0, [sp, #8]
ARM GAS  C:\Users\Administrator\AppData\Local\Temp\ccShlVUx.s 			page 58


 2258 01c4 0138     		sub	r0, r0, #1
 2259 01c6 80B2     		uxth	r0, r0
 2260              	.LVL243:
 2261              	.L121:
 876:Code\Device\W25Q80/user_data.c **** 		{
 2262              		.loc 1 876 0 is_stmt 0 discriminator 1
 2263 01c8 0A4B     		ldr	r3, .L130+8
 2264 01ca FB18     		add	r3, r7, r3
 2265 01cc 9842     		cmp	r0, r3
 2266 01ce 9DDA     		bge	.L126
 2267 01d0 09E0     		b	.L113
 2268              	.LVL244:
 2269              	.L122:
 887:Code\Device\W25Q80/user_data.c **** 			}
 2270              		.loc 1 887 0 is_stmt 1
 2271 01d2 B823     		mov	r3, #184
 2272 01d4 9B01     		lsl	r3, r3, #6
 2273 01d6 201C     		mov	r0, r4
 2274 01d8 E918     		add	r1, r5, r3
 2275 01da 321C     		mov	r2, r6
 2276 01dc ABE7     		b	.L129
 2277              	.LVL245:
 2278              	.L124:
 904:Code\Device\W25Q80/user_data.c **** 			}
 905:Code\Device\W25Q80/user_data.c **** 			else if (open_time_flash  + Delta < open_time_utc)
 2279              		.loc 1 905 0
 2280 01de 019A     		ldr	r2, [sp, #4]
 2281 01e0 1E33     		add	r3, r3, #30
 2282              	.LVL246:
 2283 01e2 9342     		cmp	r3, r2
 2284 01e4 EDD2     		bcs	.L125
 2285              	.LVL247:
 2286              	.L113:
 906:Code\Device\W25Q80/user_data.c **** 			{
 907:Code\Device\W25Q80/user_data.c **** 				return;
 908:Code\Device\W25Q80/user_data.c **** 			}
 909:Code\Device\W25Q80/user_data.c **** 		}
 910:Code\Device\W25Q80/user_data.c **** 	}
 911:Code\Device\W25Q80/user_data.c **** }
 2287              		.loc 1 911 0
 2288 01e6 13B0     		add	sp, sp, #76
 2289              		@ sp needed
 2290 01e8 F0BD     		pop	{r4, r5, r6, r7, pc}
 2291              	.L131:
 2292 01ea C046     		.align	2
 2293              	.L130:
 2294 01ec 88130000 		.word	5000
 2295 01f0 012E0000 		.word	11777
 2296 01f4 78ECFFFF 		.word	-5000
 2297              		.cfi_endproc
 2298              	.LFE95:
 2299              		.size	FindAndSet_UploadTime_UploadFlag, .-FindAndSet_UploadTime_UploadFlag
 2300              		.section	.text.Write_RebootType,"ax",%progbits
 2301              		.align	1
 2302              		.global	Write_RebootType
 2303              		.code	16
 2304              		.thumb_func
ARM GAS  C:\Users\Administrator\AppData\Local\Temp\ccShlVUx.s 			page 59


 2305              		.type	Write_RebootType, %function
 2306              	Write_RebootType:
 2307              	.LFB96:
 912:Code\Device\W25Q80/user_data.c **** 
 913:Code\Device\W25Q80/user_data.c **** #if 0
 914:Code\Device\W25Q80/user_data.c **** uint16 FindfailOpeninfo_offset(uint8 open_time[])
 915:Code\Device\W25Q80/user_data.c **** {
 916:Code\Device\W25Q80/user_data.c **** 	uint16 i, OpenQty;
 917:Code\Device\W25Q80/user_data.c **** 	open_door_t OpenInfo;
 918:Code\Device\W25Q80/user_data.c **** 	uint32 open_time_utc;
 919:Code\Device\W25Q80/user_data.c **** 	uint32 open_time_flash;
 920:Code\Device\W25Q80/user_data.c **** 	
 921:Code\Device\W25Q80/user_data.c **** 	open_time_utc = BYTE2LONG(open_time[0], open_time[1], open_time[2], open_time[3]);
 922:Code\Device\W25Q80/user_data.c **** 	OpenQty = Read_Open_Qty();
 923:Code\Device\W25Q80/user_data.c **** 	if (OpenQty <= MAX_OPEN_NUM)							// 总数少于5000的情况 没有覆盖
 924:Code\Device\W25Q80/user_data.c **** 	{
 925:Code\Device\W25Q80/user_data.c **** 		for (i = OpenQty - 1; i >= 0; i--)
 926:Code\Device\W25Q80/user_data.c **** 		{
 927:Code\Device\W25Q80/user_data.c **** 			i %= MAX_OPEN_NUM;
 928:Code\Device\W25Q80/user_data.c **** 			W25QXX_Read((uint8 *)&OpenInfo, OPEN_INFO_BASE + i * sizeof(open_door_t), sizeof(open_door_t));
 929:Code\Device\W25Q80/user_data.c **** 			open_time_flash = BYTE2LONG(OpenInfo.open_time[0], OpenInfo.open_time[1],
 930:Code\Device\W25Q80/user_data.c **** 							 			OpenInfo.open_time[2], OpenInfo.open_time[3]);
 931:Code\Device\W25Q80/user_data.c **** 			if (open_time_flash == open_time_utc)
 932:Code\Device\W25Q80/user_data.c **** 			{
 933:Code\Device\W25Q80/user_data.c **** 				return i;
 934:Code\Device\W25Q80/user_data.c **** 			}
 935:Code\Device\W25Q80/user_data.c **** 		}
 936:Code\Device\W25Q80/user_data.c **** 	}
 937:Code\Device\W25Q80/user_data.c **** 	else												// 总数超过5000 有覆盖
 938:Code\Device\W25Q80/user_data.c **** 	{
 939:Code\Device\W25Q80/user_data.c **** 		for (i = OpenQty - 1; i >= OpenQty - MAX_OPEN_NUM; i--)
 940:Code\Device\W25Q80/user_data.c **** 		{
 941:Code\Device\W25Q80/user_data.c **** 			i %= MAX_OPEN_NUM;
 942:Code\Device\W25Q80/user_data.c **** 			W25QXX_Read((uint8 *)&OpenInfo, OPEN_INFO_BASE + i * sizeof(open_door_t), sizeof(open_door_t));
 943:Code\Device\W25Q80/user_data.c **** 			open_time_flash = BYTE2LONG(OpenInfo.open_time[0], OpenInfo.open_time[1],
 944:Code\Device\W25Q80/user_data.c **** 							 			OpenInfo.open_time[2], OpenInfo.open_time[3]);
 945:Code\Device\W25Q80/user_data.c **** 			if (open_time_flash == open_time_utc)
 946:Code\Device\W25Q80/user_data.c **** 			{
 947:Code\Device\W25Q80/user_data.c **** 				return i;
 948:Code\Device\W25Q80/user_data.c **** 			}
 949:Code\Device\W25Q80/user_data.c **** 		}
 950:Code\Device\W25Q80/user_data.c **** 	}
 951:Code\Device\W25Q80/user_data.c **** 
 952:Code\Device\W25Q80/user_data.c **** }
 953:Code\Device\W25Q80/user_data.c **** #endif
 954:Code\Device\W25Q80/user_data.c **** 
 955:Code\Device\W25Q80/user_data.c **** 
 956:Code\Device\W25Q80/user_data.c **** //*************************************************************************************************
 957:Code\Device\W25Q80/user_data.c **** // Function name	: Write_RebootType
 958:Code\Device\W25Q80/user_data.c **** // Description		: 写重启类型
 959:Code\Device\W25Q80/user_data.c **** // Parameter		: rType	    : 重启类型
 960:Code\Device\W25Q80/user_data.c **** // Return			: none
 961:Code\Device\W25Q80/user_data.c **** //-------------------------------------------------------------------------------------------------
 962:Code\Device\W25Q80/user_data.c **** // Info				: 
 963:Code\Device\W25Q80/user_data.c **** //*************************************************************************************************
 964:Code\Device\W25Q80/user_data.c **** void Write_RebootType(uint8 rType)
 965:Code\Device\W25Q80/user_data.c **** {
ARM GAS  C:\Users\Administrator\AppData\Local\Temp\ccShlVUx.s 			page 60


 2308              		.loc 1 965 0
 2309              		.cfi_startproc
 2310              	.LVL248:
 2311 0000 07B5     		push	{r0, r1, r2, lr}
 2312              		.cfi_def_cfa_offset 16
 2313              		.cfi_offset 0, -16
 2314              		.cfi_offset 1, -12
 2315              		.cfi_offset 2, -8
 2316              		.cfi_offset 14, -4
 2317              		.loc 1 965 0
 2318 0002 6B46     		mov	r3, sp
 2319 0004 D871     		strb	r0, [r3, #7]
 2320 0006 0733     		add	r3, r3, #7
 966:Code\Device\W25Q80/user_data.c **** 	W25QXX_Write((uint8 *)&rType, REBOOT_TYPE, 1);
 2321              		.loc 1 966 0
 2322 0008 181C     		mov	r0, r3
 2323              	.LVL249:
 2324 000a 0249     		ldr	r1, .L133
 2325 000c 0122     		mov	r2, #1
 2326 000e FFF7FEFF 		bl	W25QXX_Write
 2327              	.LVL250:
 967:Code\Device\W25Q80/user_data.c **** }
 2328              		.loc 1 967 0
 2329              		@ sp needed
 2330 0012 07BD     		pop	{r0, r1, r2, pc}
 2331              	.L134:
 2332              		.align	2
 2333              	.L133:
 2334 0014 00910100 		.word	102656
 2335              		.cfi_endproc
 2336              	.LFE96:
 2337              		.size	Write_RebootType, .-Write_RebootType
 2338              		.section	.text.Read_RebootType,"ax",%progbits
 2339              		.align	1
 2340              		.global	Read_RebootType
 2341              		.code	16
 2342              		.thumb_func
 2343              		.type	Read_RebootType, %function
 2344              	Read_RebootType:
 2345              	.LFB97:
 968:Code\Device\W25Q80/user_data.c **** 
 969:Code\Device\W25Q80/user_data.c **** //*************************************************************************************************
 970:Code\Device\W25Q80/user_data.c **** // Function name	: Read_RebootType
 971:Code\Device\W25Q80/user_data.c **** // Description		: 读重启类型
 972:Code\Device\W25Q80/user_data.c **** // Parameter		: none
 973:Code\Device\W25Q80/user_data.c **** // Return			: rType	    : 重启类型
 974:Code\Device\W25Q80/user_data.c **** //-------------------------------------------------------------------------------------------------
 975:Code\Device\W25Q80/user_data.c **** // Info				: 
 976:Code\Device\W25Q80/user_data.c **** //*************************************************************************************************
 977:Code\Device\W25Q80/user_data.c **** uint8 Read_RebootType(void)
 978:Code\Device\W25Q80/user_data.c **** {
 2346              		.loc 1 978 0
 2347              		.cfi_startproc
 2348 0000 13B5     		push	{r0, r1, r4, lr}
 2349              		.cfi_def_cfa_offset 16
 2350              		.cfi_offset 0, -16
 2351              		.cfi_offset 1, -12
ARM GAS  C:\Users\Administrator\AppData\Local\Temp\ccShlVUx.s 			page 61


 2352              		.cfi_offset 4, -8
 2353              		.cfi_offset 14, -4
 979:Code\Device\W25Q80/user_data.c ****     uint8 rType;
 980:Code\Device\W25Q80/user_data.c ****     
 981:Code\Device\W25Q80/user_data.c **** 	W25QXX_Read((uint8 *)&rType, REBOOT_TYPE, 1);
 2354              		.loc 1 981 0
 2355 0002 6B46     		mov	r3, sp
 2356 0004 DC1D     		add	r4, r3, #7
 2357 0006 201C     		mov	r0, r4
 2358 0008 0249     		ldr	r1, .L136
 2359 000a 0122     		mov	r2, #1
 2360 000c FFF7FEFF 		bl	W25QXX_Read
 2361              	.LVL251:
 982:Code\Device\W25Q80/user_data.c ****     return rType;
 983:Code\Device\W25Q80/user_data.c **** }
 2362              		.loc 1 983 0
 2363              		@ sp needed
 982:Code\Device\W25Q80/user_data.c ****     return rType;
 2364              		.loc 1 982 0
 2365 0010 2078     		ldrb	r0, [r4]
 2366              		.loc 1 983 0
 2367 0012 16BD     		pop	{r1, r2, r4, pc}
 2368              	.L137:
 2369              		.align	2
 2370              	.L136:
 2371 0014 00910100 		.word	102656
 2372              		.cfi_endproc
 2373              	.LFE97:
 2374              		.size	Read_RebootType, .-Read_RebootType
 2375              		.section	.text.Write_CenterIpType,"ax",%progbits
 2376              		.align	1
 2377              		.global	Write_CenterIpType
 2378              		.code	16
 2379              		.thumb_func
 2380              		.type	Write_CenterIpType, %function
 2381              	Write_CenterIpType:
 2382              	.LFB98:
 984:Code\Device\W25Q80/user_data.c **** 
 985:Code\Device\W25Q80/user_data.c **** //*************************************************************************************************
 986:Code\Device\W25Q80/user_data.c **** // Function name	: Write_CenterIpType
 987:Code\Device\W25Q80/user_data.c **** // Description		: 写中心服务器类型
 988:Code\Device\W25Q80/user_data.c **** // Parameter		: rType	    : 中心服务器类型
 989:Code\Device\W25Q80/user_data.c **** // Return			: none
 990:Code\Device\W25Q80/user_data.c **** //-------------------------------------------------------------------------------------------------
 991:Code\Device\W25Q80/user_data.c **** // Info				: 
 992:Code\Device\W25Q80/user_data.c **** //*************************************************************************************************
 993:Code\Device\W25Q80/user_data.c **** void Write_CenterIpType(uint8 rType)
 994:Code\Device\W25Q80/user_data.c **** {
 2383              		.loc 1 994 0
 2384              		.cfi_startproc
 2385              	.LVL252:
 2386 0000 07B5     		push	{r0, r1, r2, lr}
 2387              		.cfi_def_cfa_offset 16
 2388              		.cfi_offset 0, -16
 2389              		.cfi_offset 1, -12
 2390              		.cfi_offset 2, -8
 2391              		.cfi_offset 14, -4
ARM GAS  C:\Users\Administrator\AppData\Local\Temp\ccShlVUx.s 			page 62


 2392              		.loc 1 994 0
 2393 0002 6B46     		mov	r3, sp
 2394 0004 D871     		strb	r0, [r3, #7]
 2395 0006 0733     		add	r3, r3, #7
 995:Code\Device\W25Q80/user_data.c **** 	W25QXX_Write((uint8 *)&rType, CenterIP_TYPE, 1);
 2396              		.loc 1 995 0
 2397 0008 181C     		mov	r0, r3
 2398              	.LVL253:
 2399 000a 0249     		ldr	r1, .L139
 2400 000c 0122     		mov	r2, #1
 2401 000e FFF7FEFF 		bl	W25QXX_Write
 2402              	.LVL254:
 996:Code\Device\W25Q80/user_data.c **** }
 2403              		.loc 1 996 0
 2404              		@ sp needed
 2405 0012 07BD     		pop	{r0, r1, r2, pc}
 2406              	.L140:
 2407              		.align	2
 2408              	.L139:
 2409 0014 01910100 		.word	102657
 2410              		.cfi_endproc
 2411              	.LFE98:
 2412              		.size	Write_CenterIpType, .-Write_CenterIpType
 2413              		.section	.text.Read_CenterIpType,"ax",%progbits
 2414              		.align	1
 2415              		.global	Read_CenterIpType
 2416              		.code	16
 2417              		.thumb_func
 2418              		.type	Read_CenterIpType, %function
 2419              	Read_CenterIpType:
 2420              	.LFB99:
 997:Code\Device\W25Q80/user_data.c **** 
 998:Code\Device\W25Q80/user_data.c **** //*************************************************************************************************
 999:Code\Device\W25Q80/user_data.c **** // Function name	: Read_RebootType
1000:Code\Device\W25Q80/user_data.c **** // Description		: 读中心服务器类型
1001:Code\Device\W25Q80/user_data.c **** // Parameter		: none
1002:Code\Device\W25Q80/user_data.c **** // Return			: rType	    : 中心服务器类型
1003:Code\Device\W25Q80/user_data.c **** //-------------------------------------------------------------------------------------------------
1004:Code\Device\W25Q80/user_data.c **** // Info				: 
1005:Code\Device\W25Q80/user_data.c **** //*************************************************************************************************
1006:Code\Device\W25Q80/user_data.c **** uint8 Read_CenterIpType(void)
1007:Code\Device\W25Q80/user_data.c **** {
 2421              		.loc 1 1007 0
 2422              		.cfi_startproc
 2423 0000 13B5     		push	{r0, r1, r4, lr}
 2424              		.cfi_def_cfa_offset 16
 2425              		.cfi_offset 0, -16
 2426              		.cfi_offset 1, -12
 2427              		.cfi_offset 4, -8
 2428              		.cfi_offset 14, -4
1008:Code\Device\W25Q80/user_data.c ****     uint8 rType;
1009:Code\Device\W25Q80/user_data.c ****     
1010:Code\Device\W25Q80/user_data.c **** 	W25QXX_Read((uint8 *)&rType, CenterIP_TYPE, 1);
 2429              		.loc 1 1010 0
 2430 0002 6B46     		mov	r3, sp
 2431 0004 DC1D     		add	r4, r3, #7
 2432 0006 201C     		mov	r0, r4
ARM GAS  C:\Users\Administrator\AppData\Local\Temp\ccShlVUx.s 			page 63


 2433 0008 0249     		ldr	r1, .L142
 2434 000a 0122     		mov	r2, #1
 2435 000c FFF7FEFF 		bl	W25QXX_Read
 2436              	.LVL255:
1011:Code\Device\W25Q80/user_data.c ****     return rType;
1012:Code\Device\W25Q80/user_data.c **** }
 2437              		.loc 1 1012 0
 2438              		@ sp needed
1011:Code\Device\W25Q80/user_data.c ****     return rType;
 2439              		.loc 1 1011 0
 2440 0010 2078     		ldrb	r0, [r4]
 2441              		.loc 1 1012 0
 2442 0012 16BD     		pop	{r1, r2, r4, pc}
 2443              	.L143:
 2444              		.align	2
 2445              	.L142:
 2446 0014 01910100 		.word	102657
 2447              		.cfi_endproc
 2448              	.LFE99:
 2449              		.size	Read_CenterIpType, .-Read_CenterIpType
 2450              		.section	.text.Write_UpdateInfo,"ax",%progbits
 2451              		.align	1
 2452              		.global	Write_UpdateInfo
 2453              		.code	16
 2454              		.thumb_func
 2455              		.type	Write_UpdateInfo, %function
 2456              	Write_UpdateInfo:
 2457              	.LFB100:
1013:Code\Device\W25Q80/user_data.c **** 
1014:Code\Device\W25Q80/user_data.c **** //*************************************************************************************************
1015:Code\Device\W25Q80/user_data.c **** // Function name	: Write_UpdateInfo
1016:Code\Device\W25Q80/user_data.c **** // Description		: 存升级版本和标志
1017:Code\Device\W25Q80/user_data.c **** // Parameter		: flag/ver
1018:Code\Device\W25Q80/user_data.c **** // Return			: none
1019:Code\Device\W25Q80/user_data.c **** //-------------------------------------------------------------------------------------------------
1020:Code\Device\W25Q80/user_data.c **** // Info				: 
1021:Code\Device\W25Q80/user_data.c **** //*************************************************************************************************
1022:Code\Device\W25Q80/user_data.c **** void Write_UpdateInfo(uint8 flag, uint16 ver)
1023:Code\Device\W25Q80/user_data.c **** {
 2458              		.loc 1 1023 0
 2459              		.cfi_startproc
 2460              	.LVL256:
 2461 0000 07B5     		push	{r0, r1, r2, lr}
 2462              		.cfi_def_cfa_offset 16
 2463              		.cfi_offset 0, -16
 2464              		.cfi_offset 1, -12
 2465              		.cfi_offset 2, -8
 2466              		.cfi_offset 14, -4
1024:Code\Device\W25Q80/user_data.c **** 	uint8 tmp[3] = {0};
1025:Code\Device\W25Q80/user_data.c **** 	
1026:Code\Device\W25Q80/user_data.c **** 	tmp[0] = (uint8)(ver>>8);
 2467              		.loc 1 1026 0
 2468 0002 0A0A     		lsr	r2, r1, #8
1024:Code\Device\W25Q80/user_data.c **** 	uint8 tmp[3] = {0};
 2469              		.loc 1 1024 0
 2470 0004 01AB     		add	r3, sp, #4
 2471              		.loc 1 1026 0
ARM GAS  C:\Users\Administrator\AppData\Local\Temp\ccShlVUx.s 			page 64


 2472 0006 1A70     		strb	r2, [r3]
1027:Code\Device\W25Q80/user_data.c **** 	tmp[1] = (uint8)ver;
 2473              		.loc 1 1027 0
 2474 0008 5970     		strb	r1, [r3, #1]
1028:Code\Device\W25Q80/user_data.c **** 	tmp[2] = flag;
 2475              		.loc 1 1028 0
 2476 000a 9870     		strb	r0, [r3, #2]
1029:Code\Device\W25Q80/user_data.c **** 	
1030:Code\Device\W25Q80/user_data.c **** 	W25QXX_Write(tmp, UPDATE_SYSTEMVER, 3);
 2477              		.loc 1 1030 0
 2478 000c 0249     		ldr	r1, .L145
 2479              	.LVL257:
 2480 000e 181C     		mov	r0, r3
 2481              	.LVL258:
 2482 0010 0322     		mov	r2, #3
 2483 0012 FFF7FEFF 		bl	W25QXX_Write
 2484              	.LVL259:
1031:Code\Device\W25Q80/user_data.c **** 	
1032:Code\Device\W25Q80/user_data.c **** }
 2485              		.loc 1 1032 0
 2486              		@ sp needed
 2487 0016 07BD     		pop	{r0, r1, r2, pc}
 2488              	.L146:
 2489              		.align	2
 2490              	.L145:
 2491 0018 03910100 		.word	102659
 2492              		.cfi_endproc
 2493              	.LFE100:
 2494              		.size	Write_UpdateInfo, .-Write_UpdateInfo
 2495              		.section	.text.Read_Updateflag,"ax",%progbits
 2496              		.align	1
 2497              		.global	Read_Updateflag
 2498              		.code	16
 2499              		.thumb_func
 2500              		.type	Read_Updateflag, %function
 2501              	Read_Updateflag:
 2502              	.LFB101:
1033:Code\Device\W25Q80/user_data.c **** 
1034:Code\Device\W25Q80/user_data.c **** 
1035:Code\Device\W25Q80/user_data.c **** //*************************************************************************************************
1036:Code\Device\W25Q80/user_data.c **** // Function name	: Read_Updateflag
1037:Code\Device\W25Q80/user_data.c **** // Description		: 读升级标志
1038:Code\Device\W25Q80/user_data.c **** // Parameter		: none
1039:Code\Device\W25Q80/user_data.c **** // Return			: flag
1040:Code\Device\W25Q80/user_data.c **** //-------------------------------------------------------------------------------------------------
1041:Code\Device\W25Q80/user_data.c **** // Info				: 
1042:Code\Device\W25Q80/user_data.c **** //*************************************************************************************************
1043:Code\Device\W25Q80/user_data.c **** uint8 Read_Updateflag(void)
1044:Code\Device\W25Q80/user_data.c **** {	
 2503              		.loc 1 1044 0
 2504              		.cfi_startproc
 2505 0000 13B5     		push	{r0, r1, r4, lr}
 2506              		.cfi_def_cfa_offset 16
 2507              		.cfi_offset 0, -16
 2508              		.cfi_offset 1, -12
 2509              		.cfi_offset 4, -8
 2510              		.cfi_offset 14, -4
ARM GAS  C:\Users\Administrator\AppData\Local\Temp\ccShlVUx.s 			page 65


1045:Code\Device\W25Q80/user_data.c **** 	uint8 flag;
1046:Code\Device\W25Q80/user_data.c **** 	W25QXX_Read((uint8 *)&flag, UPDATE_FLAG, 1);
 2511              		.loc 1 1046 0
 2512 0002 6B46     		mov	r3, sp
 2513 0004 DC1D     		add	r4, r3, #7
 2514 0006 201C     		mov	r0, r4
 2515 0008 0249     		ldr	r1, .L148
 2516 000a 0122     		mov	r2, #1
 2517 000c FFF7FEFF 		bl	W25QXX_Read
 2518              	.LVL260:
1047:Code\Device\W25Q80/user_data.c **** 	return flag;
1048:Code\Device\W25Q80/user_data.c **** }
 2519              		.loc 1 1048 0
 2520              		@ sp needed
1047:Code\Device\W25Q80/user_data.c **** 	return flag;
 2521              		.loc 1 1047 0
 2522 0010 2078     		ldrb	r0, [r4]
 2523              		.loc 1 1048 0
 2524 0012 16BD     		pop	{r1, r2, r4, pc}
 2525              	.L149:
 2526              		.align	2
 2527              	.L148:
 2528 0014 05910100 		.word	102661
 2529              		.cfi_endproc
 2530              	.LFE101:
 2531              		.size	Read_Updateflag, .-Read_Updateflag
 2532              		.section	.text.Read_UpdateVer,"ax",%progbits
 2533              		.align	1
 2534              		.global	Read_UpdateVer
 2535              		.code	16
 2536              		.thumb_func
 2537              		.type	Read_UpdateVer, %function
 2538              	Read_UpdateVer:
 2539              	.LFB102:
1049:Code\Device\W25Q80/user_data.c **** 
1050:Code\Device\W25Q80/user_data.c **** //*************************************************************************************************
1051:Code\Device\W25Q80/user_data.c **** // Function name	: Read_UpdateVer
1052:Code\Device\W25Q80/user_data.c **** // Description		: 读升级版本
1053:Code\Device\W25Q80/user_data.c **** // Parameter		: none
1054:Code\Device\W25Q80/user_data.c **** // Return			: flag
1055:Code\Device\W25Q80/user_data.c **** //-------------------------------------------------------------------------------------------------
1056:Code\Device\W25Q80/user_data.c **** // Info				: 
1057:Code\Device\W25Q80/user_data.c **** //*************************************************************************************************
1058:Code\Device\W25Q80/user_data.c **** uint8 Read_UpdateVer(void)
1059:Code\Device\W25Q80/user_data.c **** {	
 2540              		.loc 1 1059 0
 2541              		.cfi_startproc
 2542 0000 13B5     		push	{r0, r1, r4, lr}
 2543              		.cfi_def_cfa_offset 16
 2544              		.cfi_offset 0, -16
 2545              		.cfi_offset 1, -12
 2546              		.cfi_offset 4, -8
 2547              		.cfi_offset 14, -4
1060:Code\Device\W25Q80/user_data.c **** 	uint8 ver;
1061:Code\Device\W25Q80/user_data.c **** 	W25QXX_Read((uint8 *)&ver, UPDATE_SYSTEMVER, 1);
 2548              		.loc 1 1061 0
 2549 0002 6B46     		mov	r3, sp
ARM GAS  C:\Users\Administrator\AppData\Local\Temp\ccShlVUx.s 			page 66


 2550 0004 DC1D     		add	r4, r3, #7
 2551 0006 201C     		mov	r0, r4
 2552 0008 0249     		ldr	r1, .L151
 2553 000a 0122     		mov	r2, #1
 2554 000c FFF7FEFF 		bl	W25QXX_Read
 2555              	.LVL261:
1062:Code\Device\W25Q80/user_data.c **** 	return ver;
1063:Code\Device\W25Q80/user_data.c **** }
 2556              		.loc 1 1063 0
 2557              		@ sp needed
1062:Code\Device\W25Q80/user_data.c **** 	return ver;
 2558              		.loc 1 1062 0
 2559 0010 2078     		ldrb	r0, [r4]
 2560              		.loc 1 1063 0
 2561 0012 16BD     		pop	{r1, r2, r4, pc}
 2562              	.L152:
 2563              		.align	2
 2564              	.L151:
 2565 0014 03910100 		.word	102659
 2566              		.cfi_endproc
 2567              	.LFE102:
 2568              		.size	Read_UpdateVer, .-Read_UpdateVer
 2569              		.section	.text.Clear_AllOPeninfo,"ax",%progbits
 2570              		.align	1
 2571              		.global	Clear_AllOPeninfo
 2572              		.code	16
 2573              		.thumb_func
 2574              		.type	Clear_AllOPeninfo, %function
 2575              	Clear_AllOPeninfo:
 2576              	.LFB103:
1064:Code\Device\W25Q80/user_data.c **** 
1065:Code\Device\W25Q80/user_data.c **** 
1066:Code\Device\W25Q80/user_data.c **** 
1067:Code\Device\W25Q80/user_data.c **** //*************************************************************************************************
1068:Code\Device\W25Q80/user_data.c **** // Function name	: Clear_AllOPeninfo
1069:Code\Device\W25Q80/user_data.c **** // Description		: 清除所有openinfo相关的信息区域
1070:Code\Device\W25Q80/user_data.c **** // Parameter		: none
1071:Code\Device\W25Q80/user_data.c **** // Return			: none
1072:Code\Device\W25Q80/user_data.c **** //-------------------------------------------------------------------------------------------------
1073:Code\Device\W25Q80/user_data.c **** // Info				: 测试用用 
1074:Code\Device\W25Q80/user_data.c **** //*************************************************************************************************
1075:Code\Device\W25Q80/user_data.c **** #if 1
1076:Code\Device\W25Q80/user_data.c **** void Clear_AllOPeninfo(void)
1077:Code\Device\W25Q80/user_data.c **** {
 2577              		.loc 1 1077 0
 2578              		.cfi_startproc
 2579 0000 F0B5     		push	{r4, r5, r6, r7, lr}
 2580              		.cfi_def_cfa_offset 20
 2581              		.cfi_offset 4, -20
 2582              		.cfi_offset 5, -16
 2583              		.cfi_offset 6, -12
 2584              		.cfi_offset 7, -8
 2585              		.cfi_offset 14, -4
 2586 0002 224C     		ldr	r4, .L154
1078:Code\Device\W25Q80/user_data.c **** 	uint8_t opendate[256] = {0};
 2587              		.loc 1 1078 0
 2588 0004 8026     		mov	r6, #128
ARM GAS  C:\Users\Administrator\AppData\Local\Temp\ccShlVUx.s 			page 67


1077:Code\Device\W25Q80/user_data.c **** 	uint8_t opendate[256] = {0};
 2589              		.loc 1 1077 0
 2590 0006 A544     		add	sp, sp, r4
 2591              		.cfi_def_cfa_offset 5416
1079:Code\Device\W25Q80/user_data.c **** 	uint8_t opendate_flag[64] = {0};
 2592              		.loc 1 1079 0
 2593 0008 4024     		mov	r4, #64
1078:Code\Device\W25Q80/user_data.c **** 	uint8_t opendate[256] = {0};
 2594              		.loc 1 1078 0
 2595 000a 7600     		lsl	r6, r6, #1
 2596 000c 321C     		mov	r2, r6
 2597 000e 22A8     		add	r0, sp, #136
 2598 0010 0021     		mov	r1, #0
 2599 0012 FFF7FEFF 		bl	memset
 2600              	.LVL262:
 2601              		.loc 1 1079 0
 2602 0016 221C     		mov	r2, r4
 2603 0018 02A8     		add	r0, sp, #8
 2604 001a 0021     		mov	r1, #0
 2605 001c FFF7FEFF 		bl	memset
 2606              	.LVL263:
1080:Code\Device\W25Q80/user_data.c **** 	uint8_t opendate_qty[64] = {0};
 2607              		.loc 1 1080 0
 2608 0020 221C     		mov	r2, r4
 2609 0022 12A8     		add	r0, sp, #72
 2610 0024 0021     		mov	r1, #0
 2611 0026 FFF7FEFF 		bl	memset
 2612              	.LVL264:
1081:Code\Device\W25Q80/user_data.c **** 	uint16_t data = 0;
 2613              		.loc 1 1081 0
 2614 002a 6B46     		mov	r3, sp
 2615 002c 0021     		mov	r1, #0
1082:Code\Device\W25Q80/user_data.c **** 	uint8_t flag[MAX_OPEN_NUM] = {0};
 2616              		.loc 1 1082 0
 2617 002e 184D     		ldr	r5, .L154+4
 2618 0030 62A8     		add	r0, sp, #392
 2619 0032 2A1C     		mov	r2, r5
1081:Code\Device\W25Q80/user_data.c **** 	uint16_t data = 0;
 2620              		.loc 1 1081 0
 2621 0034 D980     		strh	r1, [r3, #6]
1083:Code\Device\W25Q80/user_data.c **** 	//memset(opendate,0xff,256);
1084:Code\Device\W25Q80/user_data.c **** 	//memset(opendate_flag,0xff,64);
1085:Code\Device\W25Q80/user_data.c **** 	//memset(flag,0xff,MAX_OPEN_NUM);
1086:Code\Device\W25Q80/user_data.c **** 	//清除flag区域
1087:Code\Device\W25Q80/user_data.c **** 	W25QXX_Write(flag,  OPEN_FLAG_BASE, MAX_OPEN_NUM);   
1088:Code\Device\W25Q80/user_data.c **** 	//清除数据区域
1089:Code\Device\W25Q80/user_data.c **** 	W25QXX_Write(flag,  OPEN_INFO_BASE, MAX_OPEN_NUM);  
 2622              		.loc 1 1089 0
 2623 0036 B827     		mov	r7, #184
1082:Code\Device\W25Q80/user_data.c **** 	uint8_t flag[MAX_OPEN_NUM] = {0};
 2624              		.loc 1 1082 0
 2625 0038 FFF7FEFF 		bl	memset
 2626              	.LVL265:
1087:Code\Device\W25Q80/user_data.c **** 	//清除数据区域
 2627              		.loc 1 1087 0
 2628 003c D021     		mov	r1, #208
 2629 003e 62A8     		add	r0, sp, #392
ARM GAS  C:\Users\Administrator\AppData\Local\Temp\ccShlVUx.s 			page 68


 2630 0040 2A1C     		mov	r2, r5
 2631              		.loc 1 1089 0
 2632 0042 BF01     		lsl	r7, r7, #6
1087:Code\Device\W25Q80/user_data.c **** 	//清除数据区域
 2633              		.loc 1 1087 0
 2634 0044 4901     		lsl	r1, r1, #5
 2635 0046 FFF7FEFF 		bl	W25QXX_Write
 2636              	.LVL266:
 2637              		.loc 1 1089 0
 2638 004a 62A8     		add	r0, sp, #392
 2639 004c 391C     		mov	r1, r7
 2640 004e 2A1C     		mov	r2, r5
1090:Code\Device\W25Q80/user_data.c **** 	//W25QXX_Write((uint8_t *)&data,  OPEN_INFO_BASE+ (MAX_OPEN_NUM/2 *sizeof(open_door_t)), MAX_OPEN_
1091:Code\Device\W25Q80/user_data.c **** 	
1092:Code\Device\W25Q80/user_data.c **** 	//清除计数qty区域 2B
1093:Code\Device\W25Q80/user_data.c **** 	W25QXX_Write((uint8_t *)&data,  OPEN_QTY_BASE, 2);  
 2641              		.loc 1 1093 0
 2642 0050 C825     		mov	r5, #200
1089:Code\Device\W25Q80/user_data.c **** 	//W25QXX_Write((uint8_t *)&data,  OPEN_INFO_BASE+ (MAX_OPEN_NUM/2 *sizeof(open_door_t)), MAX_OPEN_
 2643              		.loc 1 1089 0
 2644 0052 FFF7FEFF 		bl	W25QXX_Write
 2645              	.LVL267:
 2646              		.loc 1 1093 0
 2647 0056 6B46     		mov	r3, sp
 2648 0058 6D02     		lsl	r5, r5, #9
 2649 005a 981D     		add	r0, r3, #6
 2650 005c 291C     		mov	r1, r5
 2651 005e 0222     		mov	r2, #2
 2652 0060 FFF7FEFF 		bl	W25QXX_Write
 2653              	.LVL268:
1094:Code\Device\W25Q80/user_data.c **** 	
1095:Code\Device\W25Q80/user_data.c **** 		//==测试开门信息日志表
1096:Code\Device\W25Q80/user_data.c **** 	W25QXX_Read(opendate, OPEN_INFO_BASE,256);
 2654              		.loc 1 1096 0
 2655 0064 22A8     		add	r0, sp, #136
 2656 0066 391C     		mov	r1, r7
 2657 0068 321C     		mov	r2, r6
 2658 006a FFF7FEFF 		bl	W25QXX_Read
 2659              	.LVL269:
1097:Code\Device\W25Q80/user_data.c **** 	W25QXX_Read(opendate_flag, OPEN_FLAG_BASE,64);
 2660              		.loc 1 1097 0
 2661 006e D021     		mov	r1, #208
 2662 0070 02A8     		add	r0, sp, #8
 2663 0072 221C     		mov	r2, r4
 2664 0074 4901     		lsl	r1, r1, #5
 2665 0076 FFF7FEFF 		bl	W25QXX_Read
 2666              	.LVL270:
1098:Code\Device\W25Q80/user_data.c **** 	W25QXX_Read(opendate_qty, OPEN_QTY_BASE,64);
 2667              		.loc 1 1098 0
 2668 007a 12A8     		add	r0, sp, #72
 2669 007c 291C     		mov	r1, r5
 2670 007e 221C     		mov	r2, r4
 2671 0080 FFF7FEFF 		bl	W25QXX_Read
 2672              	.LVL271:
1099:Code\Device\W25Q80/user_data.c **** 	
1100:Code\Device\W25Q80/user_data.c **** 	DBG_SOFT_PutStr("\r\n Read open date:\r\n");
1101:Code\Device\W25Q80/user_data.c **** 	DBG_SOFT_PrintfHex(opendate,256,17);
ARM GAS  C:\Users\Administrator\AppData\Local\Temp\ccShlVUx.s 			page 69


1102:Code\Device\W25Q80/user_data.c **** 	
1103:Code\Device\W25Q80/user_data.c **** 	DBG_SOFT_PutStr("\r\n Read open flag:\r\n");
1104:Code\Device\W25Q80/user_data.c **** 	DBG_SOFT_PrintfHex(opendate_flag,64,16);
1105:Code\Device\W25Q80/user_data.c **** 	
1106:Code\Device\W25Q80/user_data.c **** 	DBG_SOFT_PutStr("\r\n Read open qty:\r\n");
1107:Code\Device\W25Q80/user_data.c **** 	DBG_SOFT_PrintfHex(opendate_qty,8,16);
1108:Code\Device\W25Q80/user_data.c **** }
 2673              		.loc 1 1108 0
 2674 0084 034B     		ldr	r3, .L154+8
 2675 0086 9D44     		add	sp, sp, r3
 2676              		@ sp needed
 2677 0088 F0BD     		pop	{r4, r5, r6, r7, pc}
 2678              	.L155:
 2679 008a C046     		.align	2
 2680              	.L154:
 2681 008c ECEAFFFF 		.word	-5396
 2682 0090 88130000 		.word	5000
 2683 0094 14150000 		.word	5396
 2684              		.cfi_endproc
 2685              	.LFE103:
 2686              		.size	Clear_AllOPeninfo, .-Clear_AllOPeninfo
 2687              		.section	.text.test_Flash,"ax",%progbits
 2688              		.align	1
 2689              		.global	test_Flash
 2690              		.code	16
 2691              		.thumb_func
 2692              		.type	test_Flash, %function
 2693              	test_Flash:
 2694              	.LFB104:
1109:Code\Device\W25Q80/user_data.c **** #endif
1110:Code\Device\W25Q80/user_data.c **** 
1111:Code\Device\W25Q80/user_data.c **** void test_Flash(void)
1112:Code\Device\W25Q80/user_data.c **** {
 2695              		.loc 1 1112 0
 2696              		.cfi_startproc
 2697 0000 70B5     		push	{r4, r5, r6, lr}
 2698              		.cfi_def_cfa_offset 16
 2699              		.cfi_offset 4, -16
 2700              		.cfi_offset 5, -12
 2701              		.cfi_offset 6, -8
 2702              		.cfi_offset 14, -4
 2703 0002 1F4C     		ldr	r4, .L157
1113:Code\Device\W25Q80/user_data.c **** 	uint8_t userflag[64] = {0};
1114:Code\Device\W25Q80/user_data.c **** 	uint8_t userinfo[256] = {0};
 2704              		.loc 1 1114 0
 2705 0004 8026     		mov	r6, #128
1112:Code\Device\W25Q80/user_data.c **** 	uint8_t userflag[64] = {0};
 2706              		.loc 1 1112 0
 2707 0006 A544     		add	sp, sp, r4
 2708              		.cfi_def_cfa_offset 920
1113:Code\Device\W25Q80/user_data.c **** 	uint8_t userflag[64] = {0};
 2709              		.loc 1 1113 0
 2710 0008 4024     		mov	r4, #64
1115:Code\Device\W25Q80/user_data.c **** 	
1116:Code\Device\W25Q80/user_data.c **** 	//==测试用户信息日志表
1117:Code\Device\W25Q80/user_data.c **** 	W25QXX_Read(userflag, USER_FLAG_BASE,64);
1118:Code\Device\W25Q80/user_data.c **** 	W25QXX_Read(userinfo, USER_INFO_BASE,256);
ARM GAS  C:\Users\Administrator\AppData\Local\Temp\ccShlVUx.s 			page 70


 2711              		.loc 1 1118 0
 2712 000a 8025     		mov	r5, #128
1113:Code\Device\W25Q80/user_data.c **** 	uint8_t userinfo[256] = {0};
 2713              		.loc 1 1113 0
 2714 000c 221C     		mov	r2, r4
1114:Code\Device\W25Q80/user_data.c **** 	
 2715              		.loc 1 1114 0
 2716 000e 7600     		lsl	r6, r6, #1
1113:Code\Device\W25Q80/user_data.c **** 	uint8_t userinfo[256] = {0};
 2717              		.loc 1 1113 0
 2718 0010 02A8     		add	r0, sp, #8
 2719 0012 0021     		mov	r1, #0
 2720 0014 FFF7FEFF 		bl	memset
 2721              	.LVL272:
1114:Code\Device\W25Q80/user_data.c **** 	
 2722              		.loc 1 1114 0
 2723 0018 321C     		mov	r2, r6
 2724 001a 22A8     		add	r0, sp, #136
 2725 001c 0021     		mov	r1, #0
 2726 001e FFF7FEFF 		bl	memset
 2727              	.LVL273:
 2728              		.loc 1 1118 0
 2729 0022 AD00     		lsl	r5, r5, #2
1117:Code\Device\W25Q80/user_data.c **** 	W25QXX_Read(userinfo, USER_INFO_BASE,256);
 2730              		.loc 1 1117 0
 2731 0024 02A8     		add	r0, sp, #8
 2732 0026 221C     		mov	r2, r4
 2733 0028 0021     		mov	r1, #0
 2734 002a FFF7FEFF 		bl	W25QXX_Read
 2735              	.LVL274:
 2736              		.loc 1 1118 0
 2737 002e 22A8     		add	r0, sp, #136
 2738 0030 291C     		mov	r1, r5
 2739 0032 321C     		mov	r2, r6
 2740 0034 FFF7FEFF 		bl	W25QXX_Read
 2741              	.LVL275:
1119:Code\Device\W25Q80/user_data.c **** 	
1120:Code\Device\W25Q80/user_data.c **** 	
1121:Code\Device\W25Q80/user_data.c **** 	DBG_SOFT_PutStr("\r\n userflag:\r\n");
1122:Code\Device\W25Q80/user_data.c **** 	DBG_SOFT_PrintfHex(userflag,16,16);
1123:Code\Device\W25Q80/user_data.c **** 	
1124:Code\Device\W25Q80/user_data.c **** 	DBG_SOFT_PutStr("\r\n userinfo:\r\n");
1125:Code\Device\W25Q80/user_data.c **** 	DBG_SOFT_PrintfHex(userinfo,96,16);
1126:Code\Device\W25Q80/user_data.c **** 	
1127:Code\Device\W25Q80/user_data.c **** 	uint8_t opendate[512] = {0};
 2742              		.loc 1 1127 0
 2743 0038 2A1C     		mov	r2, r5
 2744 003a 62A8     		add	r0, sp, #392
 2745 003c 0021     		mov	r1, #0
 2746 003e FFF7FEFF 		bl	memset
 2747              	.LVL276:
1128:Code\Device\W25Q80/user_data.c **** 	uint8_t opendate_flag[64] = {0};
 2748              		.loc 1 1128 0
 2749 0042 221C     		mov	r2, r4
 2750 0044 12A8     		add	r0, sp, #72
 2751 0046 0021     		mov	r1, #0
 2752 0048 FFF7FEFF 		bl	memset
ARM GAS  C:\Users\Administrator\AppData\Local\Temp\ccShlVUx.s 			page 71


 2753              	.LVL277:
1129:Code\Device\W25Q80/user_data.c **** 	uint8_t opendate_qty[8] = {0};
1130:Code\Device\W25Q80/user_data.c **** 	
1131:Code\Device\W25Q80/user_data.c **** 	//==测试开门信息日志表
1132:Code\Device\W25Q80/user_data.c **** 	W25QXX_Read(opendate, OPEN_INFO_BASE,512);
 2754              		.loc 1 1132 0
 2755 004c B821     		mov	r1, #184
1129:Code\Device\W25Q80/user_data.c **** 	uint8_t opendate_qty[8] = {0};
 2756              		.loc 1 1129 0
 2757 004e 0023     		mov	r3, #0
 2758              		.loc 1 1132 0
 2759 0050 62A8     		add	r0, sp, #392
 2760 0052 2A1C     		mov	r2, r5
 2761 0054 8901     		lsl	r1, r1, #6
1129:Code\Device\W25Q80/user_data.c **** 	uint8_t opendate_qty[8] = {0};
 2762              		.loc 1 1129 0
 2763 0056 0093     		str	r3, [sp]
 2764 0058 0193     		str	r3, [sp, #4]
 2765              		.loc 1 1132 0
 2766 005a FFF7FEFF 		bl	W25QXX_Read
 2767              	.LVL278:
1133:Code\Device\W25Q80/user_data.c **** 	W25QXX_Read(opendate_flag, OPEN_FLAG_BASE,64);
 2768              		.loc 1 1133 0
 2769 005e D021     		mov	r1, #208
 2770 0060 12A8     		add	r0, sp, #72
 2771 0062 221C     		mov	r2, r4
 2772 0064 4901     		lsl	r1, r1, #5
 2773 0066 FFF7FEFF 		bl	W25QXX_Read
 2774              	.LVL279:
1134:Code\Device\W25Q80/user_data.c **** 	W25QXX_Read(opendate_qty, OPEN_QTY_BASE,64);
 2775              		.loc 1 1134 0
 2776 006a C821     		mov	r1, #200
 2777 006c 6846     		mov	r0, sp
 2778 006e 4902     		lsl	r1, r1, #9
 2779 0070 221C     		mov	r2, r4
 2780 0072 FFF7FEFF 		bl	W25QXX_Read
 2781              	.LVL280:
1135:Code\Device\W25Q80/user_data.c **** 	
1136:Code\Device\W25Q80/user_data.c **** 	DBG_SOFT_PutStr("\r\n Read open date:\r\n");
1137:Code\Device\W25Q80/user_data.c **** 	DBG_SOFT_PrintfHex(opendate,512,17);
1138:Code\Device\W25Q80/user_data.c **** 	
1139:Code\Device\W25Q80/user_data.c **** 	DBG_SOFT_PutStr("\r\n Read open flag:\r\n");
1140:Code\Device\W25Q80/user_data.c **** 	DBG_SOFT_PrintfHex(opendate_flag,64,16);
1141:Code\Device\W25Q80/user_data.c **** 	
1142:Code\Device\W25Q80/user_data.c **** 	DBG_SOFT_PutStr("\r\n Read open qty:\r\n");
1143:Code\Device\W25Q80/user_data.c **** 	DBG_SOFT_PrintfHex(opendate_qty,8,16);
1144:Code\Device\W25Q80/user_data.c **** }
 2782              		.loc 1 1144 0
 2783 0076 E223     		mov	r3, #226
 2784 0078 9B00     		lsl	r3, r3, #2
 2785 007a 9D44     		add	sp, sp, r3
 2786              		@ sp needed
 2787 007c 70BD     		pop	{r4, r5, r6, pc}
 2788              	.L158:
 2789 007e C046     		.align	2
 2790              	.L157:
 2791 0080 78FCFFFF 		.word	-904
ARM GAS  C:\Users\Administrator\AppData\Local\Temp\ccShlVUx.s 			page 72


 2792              		.cfi_endproc
 2793              	.LFE104:
 2794              		.size	test_Flash, .-test_Flash
 2795              		.section	.text.test_readopeninfo,"ax",%progbits
 2796              		.align	1
 2797              		.global	test_readopeninfo
 2798              		.code	16
 2799              		.thumb_func
 2800              		.type	test_readopeninfo, %function
 2801              	test_readopeninfo:
 2802              	.LFB105:
1145:Code\Device\W25Q80/user_data.c **** 
1146:Code\Device\W25Q80/user_data.c **** void test_readopeninfo(void)
1147:Code\Device\W25Q80/user_data.c **** {
 2803              		.loc 1 1147 0
 2804              		.cfi_startproc
 2805 0000 1FB5     		push	{r0, r1, r2, r3, r4, lr}
 2806              		.cfi_def_cfa_offset 24
 2807              		.cfi_offset 0, -24
 2808              		.cfi_offset 1, -20
 2809              		.cfi_offset 2, -16
 2810              		.cfi_offset 3, -12
 2811              		.cfi_offset 4, -8
 2812              		.cfi_offset 14, -4
1148:Code\Device\W25Q80/user_data.c **** 	open_door_t open_tmp;	
1149:Code\Device\W25Q80/user_data.c **** 	Read_OpenInfo(5,&open_tmp);
 2813              		.loc 1 1149 0
 2814 0002 0520     		mov	r0, #5
 2815 0004 6946     		mov	r1, sp
 2816 0006 FFF7FEFF 		bl	Read_OpenInfo
 2817              	.LVL281:
1150:Code\Device\W25Q80/user_data.c **** 	DBG_SOFT_PutStr("\r\n Read openinfor test:\r\n");
1151:Code\Device\W25Q80/user_data.c **** 	DBG_SOFT_PrintfHex(&open_tmp,16,16);
1152:Code\Device\W25Q80/user_data.c **** }
 2818              		.loc 1 1152 0
 2819 000a 05B0     		add	sp, sp, #20
 2820              		@ sp needed
 2821 000c 00BD     		pop	{pc}
 2822              		.cfi_endproc
 2823              	.LFE105:
 2824              		.size	test_readopeninfo, .-test_readopeninfo
 2825              		.text
 2826              	.Letext0:
 2827              		.file 2 "c:\\program files (x86)\\cypress\\psoc creator\\4.0\\psoc creator\\import\\gnu\\arm\\4.9.
 2828              		.file 3 "c:\\program files (x86)\\cypress\\psoc creator\\4.0\\psoc creator\\import\\gnu\\arm\\4.9.
 2829              		.file 4 "Generated_Source\\PSoC4/cytypes.h"
 2830              		.file 5 "c:\\program files (x86)\\cypress\\psoc creator\\4.0\\psoc creator\\import\\gnu\\arm\\4.9.
 2831              		.file 6 "Code\\Device\\W25Q80\\user_data.h"
 2832              		.file 7 "Code\\Device\\W25Q80\\w25qxx.h"
 2833              		.file 8 "c:\\program files (x86)\\cypress\\psoc creator\\4.0\\psoc creator\\import\\gnu\\arm\\4.9.
 2834              		.section	.debug_info,"",%progbits
 2835              	.Ldebug_info0:
 2836 0000 57190000 		.4byte	0x1957
 2837 0004 0400     		.2byte	0x4
 2838 0006 00000000 		.4byte	.Ldebug_abbrev0
 2839 000a 04       		.byte	0x4
 2840 000b 01       		.uleb128 0x1
ARM GAS  C:\Users\Administrator\AppData\Local\Temp\ccShlVUx.s 			page 73


 2841 000c 30020000 		.4byte	.LASF118
 2842 0010 01       		.byte	0x1
 2843 0011 94000000 		.4byte	.LASF119
 2844 0015 E2000000 		.4byte	.LASF120
 2845 0019 00000000 		.4byte	.Ldebug_ranges0+0
 2846 001d 00000000 		.4byte	0
 2847 0021 00000000 		.4byte	.Ldebug_line0
 2848 0025 02       		.uleb128 0x2
 2849 0026 01       		.byte	0x1
 2850 0027 06       		.byte	0x6
 2851 0028 28060000 		.4byte	.LASF0
 2852 002c 03       		.uleb128 0x3
 2853 002d 3F050000 		.4byte	.LASF3
 2854 0031 02       		.byte	0x2
 2855 0032 1D       		.byte	0x1d
 2856 0033 37000000 		.4byte	0x37
 2857 0037 02       		.uleb128 0x2
 2858 0038 01       		.byte	0x1
 2859 0039 08       		.byte	0x8
 2860 003a C4050000 		.4byte	.LASF1
 2861 003e 02       		.uleb128 0x2
 2862 003f 02       		.byte	0x2
 2863 0040 05       		.byte	0x5
 2864 0041 B6040000 		.4byte	.LASF2
 2865 0045 03       		.uleb128 0x3
 2866 0046 F1010000 		.4byte	.LASF4
 2867 004a 02       		.byte	0x2
 2868 004b 2B       		.byte	0x2b
 2869 004c 50000000 		.4byte	0x50
 2870 0050 02       		.uleb128 0x2
 2871 0051 02       		.byte	0x2
 2872 0052 07       		.byte	0x7
 2873 0053 34060000 		.4byte	.LASF5
 2874 0057 02       		.uleb128 0x2
 2875 0058 04       		.byte	0x4
 2876 0059 05       		.byte	0x5
 2877 005a D2040000 		.4byte	.LASF6
 2878 005e 03       		.uleb128 0x3
 2879 005f D2050000 		.4byte	.LASF7
 2880 0063 02       		.byte	0x2
 2881 0064 41       		.byte	0x41
 2882 0065 69000000 		.4byte	0x69
 2883 0069 02       		.uleb128 0x2
 2884 006a 04       		.byte	0x4
 2885 006b 07       		.byte	0x7
 2886 006c 78050000 		.4byte	.LASF8
 2887 0070 02       		.uleb128 0x2
 2888 0071 08       		.byte	0x8
 2889 0072 05       		.byte	0x5
 2890 0073 A1030000 		.4byte	.LASF9
 2891 0077 02       		.uleb128 0x2
 2892 0078 08       		.byte	0x8
 2893 0079 07       		.byte	0x7
 2894 007a DA010000 		.4byte	.LASF10
 2895 007e 04       		.uleb128 0x4
 2896 007f 04       		.byte	0x4
 2897 0080 05       		.byte	0x5
ARM GAS  C:\Users\Administrator\AppData\Local\Temp\ccShlVUx.s 			page 74


 2898 0081 696E7400 		.ascii	"int\000"
 2899 0085 02       		.uleb128 0x2
 2900 0086 04       		.byte	0x4
 2901 0087 07       		.byte	0x7
 2902 0088 C4000000 		.4byte	.LASF11
 2903 008c 03       		.uleb128 0x3
 2904 008d 4B030000 		.4byte	.LASF12
 2905 0091 03       		.byte	0x3
 2906 0092 15       		.byte	0x15
 2907 0093 2C000000 		.4byte	0x2c
 2908 0097 03       		.uleb128 0x3
 2909 0098 95040000 		.4byte	.LASF13
 2910 009c 03       		.byte	0x3
 2911 009d 21       		.byte	0x21
 2912 009e 45000000 		.4byte	0x45
 2913 00a2 03       		.uleb128 0x3
 2914 00a3 B7010000 		.4byte	.LASF14
 2915 00a7 03       		.byte	0x3
 2916 00a8 2D       		.byte	0x2d
 2917 00a9 5E000000 		.4byte	0x5e
 2918 00ad 05       		.uleb128 0x5
 2919 00ae 67060000 		.4byte	.LASF15
 2920 00b2 04       		.byte	0x4
 2921 00b3 B901     		.2byte	0x1b9
 2922 00b5 37000000 		.4byte	0x37
 2923 00b9 05       		.uleb128 0x5
 2924 00ba 2D030000 		.4byte	.LASF16
 2925 00be 04       		.byte	0x4
 2926 00bf BA01     		.2byte	0x1ba
 2927 00c1 50000000 		.4byte	0x50
 2928 00c5 05       		.uleb128 0x5
 2929 00c6 36040000 		.4byte	.LASF17
 2930 00ca 04       		.byte	0x4
 2931 00cb BB01     		.2byte	0x1bb
 2932 00cd 69000000 		.4byte	0x69
 2933 00d1 02       		.uleb128 0x2
 2934 00d2 04       		.byte	0x4
 2935 00d3 04       		.byte	0x4
 2936 00d4 C0010000 		.4byte	.LASF18
 2937 00d8 02       		.uleb128 0x2
 2938 00d9 08       		.byte	0x8
 2939 00da 04       		.byte	0x4
 2940 00db 6D060000 		.4byte	.LASF19
 2941 00df 02       		.uleb128 0x2
 2942 00e0 01       		.byte	0x1
 2943 00e1 08       		.byte	0x8
 2944 00e2 05030000 		.4byte	.LASF20
 2945 00e6 03       		.uleb128 0x3
 2946 00e7 D3020000 		.4byte	.LASF21
 2947 00eb 05       		.byte	0x5
 2948 00ec D4       		.byte	0xd4
 2949 00ed 85000000 		.4byte	0x85
 2950 00f1 02       		.uleb128 0x2
 2951 00f2 04       		.byte	0x4
 2952 00f3 07       		.byte	0x7
 2953 00f4 6F050000 		.4byte	.LASF22
 2954 00f8 06       		.uleb128 0x6
ARM GAS  C:\Users\Administrator\AppData\Local\Temp\ccShlVUx.s 			page 75


 2955 00f9 04       		.byte	0x4
 2956 00fa 07       		.uleb128 0x7
 2957 00fb 04       		.byte	0x4
 2958 00fc AD000000 		.4byte	0xad
 2959 0100 08       		.uleb128 0x8
 2960 0101 76040000 		.4byte	.LASF26
 2961 0105 0C       		.byte	0xc
 2962 0106 06       		.byte	0x6
 2963 0107 1C       		.byte	0x1c
 2964 0108 25010000 		.4byte	0x125
 2965 010c 09       		.uleb128 0x9
 2966 010d 17060000 		.4byte	.LASF23
 2967 0111 06       		.byte	0x6
 2968 0112 1E       		.byte	0x1e
 2969 0113 25010000 		.4byte	0x125
 2970 0117 00       		.byte	0
 2971 0118 09       		.uleb128 0x9
 2972 0119 68000000 		.4byte	.LASF24
 2973 011d 06       		.byte	0x6
 2974 011e 1F       		.byte	0x1f
 2975 011f 35010000 		.4byte	0x135
 2976 0123 08       		.byte	0x8
 2977 0124 00       		.byte	0
 2978 0125 0A       		.uleb128 0xa
 2979 0126 AD000000 		.4byte	0xad
 2980 012a 35010000 		.4byte	0x135
 2981 012e 0B       		.uleb128 0xb
 2982 012f F1000000 		.4byte	0xf1
 2983 0133 07       		.byte	0x7
 2984 0134 00       		.byte	0
 2985 0135 0A       		.uleb128 0xa
 2986 0136 AD000000 		.4byte	0xad
 2987 013a 45010000 		.4byte	0x145
 2988 013e 0B       		.uleb128 0xb
 2989 013f F1000000 		.4byte	0xf1
 2990 0143 03       		.byte	0x3
 2991 0144 00       		.byte	0
 2992 0145 03       		.uleb128 0x3
 2993 0146 59040000 		.4byte	.LASF25
 2994 014a 06       		.byte	0x6
 2995 014b 20       		.byte	0x20
 2996 014c 00010000 		.4byte	0x100
 2997 0150 08       		.uleb128 0x8
 2998 0151 13030000 		.4byte	.LASF27
 2999 0155 10       		.byte	0x10
 3000 0156 06       		.byte	0x6
 3001 0157 22       		.byte	0x22
 3002 0158 81010000 		.4byte	0x181
 3003 015c 09       		.uleb128 0x9
 3004 015d 17060000 		.4byte	.LASF23
 3005 0161 06       		.byte	0x6
 3006 0162 24       		.byte	0x24
 3007 0163 25010000 		.4byte	0x125
 3008 0167 00       		.byte	0
 3009 0168 09       		.uleb128 0x9
 3010 0169 5E010000 		.4byte	.LASF28
 3011 016d 06       		.byte	0x6
ARM GAS  C:\Users\Administrator\AppData\Local\Temp\ccShlVUx.s 			page 76


 3012 016e 25       		.byte	0x25
 3013 016f 35010000 		.4byte	0x135
 3014 0173 08       		.byte	0x8
 3015 0174 09       		.uleb128 0x9
 3016 0175 0B020000 		.4byte	.LASF29
 3017 0179 06       		.byte	0x6
 3018 017a 26       		.byte	0x26
 3019 017b 35010000 		.4byte	0x135
 3020 017f 0C       		.byte	0xc
 3021 0180 00       		.byte	0
 3022 0181 03       		.uleb128 0x3
 3023 0182 F5030000 		.4byte	.LASF30
 3024 0186 06       		.byte	0x6
 3025 0187 27       		.byte	0x27
 3026 0188 50010000 		.4byte	0x150
 3027 018c 0C       		.uleb128 0xc
 3028 018d E0030000 		.4byte	.LASF37
 3029 0191 01       		.byte	0x1
 3030 0192 1A       		.byte	0x1a
 3031 0193 00000000 		.4byte	.LFB63
 3032 0197 20000000 		.4byte	.LFE63-.LFB63
 3033 019b 01       		.uleb128 0x1
 3034 019c 9C       		.byte	0x9c
 3035 019d ED010000 		.4byte	0x1ed
 3036 01a1 0D       		.uleb128 0xd
 3037 01a2 06050000 		.4byte	.LASF31
 3038 01a6 01       		.byte	0x1
 3039 01a7 1C       		.byte	0x1c
 3040 01a8 ED010000 		.4byte	0x1ed
 3041 01ac 03       		.uleb128 0x3
 3042 01ad 91       		.byte	0x91
 3043 01ae 847C     		.sleb128 -508
 3044 01b0 0E       		.uleb128 0xe
 3045 01b1 12000000 		.4byte	.LVL0
 3046 01b5 AD180000 		.4byte	0x18ad
 3047 01b9 D0010000 		.4byte	0x1d0
 3048 01bd 0F       		.uleb128 0xf
 3049 01be 01       		.uleb128 0x1
 3050 01bf 52       		.byte	0x52
 3051 01c0 02       		.uleb128 0x2
 3052 01c1 74       		.byte	0x74
 3053 01c2 00       		.sleb128 0
 3054 01c3 0F       		.uleb128 0xf
 3055 01c4 01       		.uleb128 0x1
 3056 01c5 51       		.byte	0x51
 3057 01c6 01       		.uleb128 0x1
 3058 01c7 30       		.byte	0x30
 3059 01c8 0F       		.uleb128 0xf
 3060 01c9 01       		.uleb128 0x1
 3061 01ca 50       		.byte	0x50
 3062 01cb 03       		.uleb128 0x3
 3063 01cc 91       		.byte	0x91
 3064 01cd 847C     		.sleb128 -508
 3065 01cf 00       		.byte	0
 3066 01d0 10       		.uleb128 0x10
 3067 01d1 1C000000 		.4byte	.LVL1
 3068 01d5 CA180000 		.4byte	0x18ca
ARM GAS  C:\Users\Administrator\AppData\Local\Temp\ccShlVUx.s 			page 77


 3069 01d9 0F       		.uleb128 0xf
 3070 01da 01       		.uleb128 0x1
 3071 01db 52       		.byte	0x52
 3072 01dc 02       		.uleb128 0x2
 3073 01dd 74       		.byte	0x74
 3074 01de 00       		.sleb128 0
 3075 01df 0F       		.uleb128 0xf
 3076 01e0 01       		.uleb128 0x1
 3077 01e1 51       		.byte	0x51
 3078 01e2 01       		.uleb128 0x1
 3079 01e3 30       		.byte	0x30
 3080 01e4 0F       		.uleb128 0xf
 3081 01e5 01       		.uleb128 0x1
 3082 01e6 50       		.byte	0x50
 3083 01e7 03       		.uleb128 0x3
 3084 01e8 91       		.byte	0x91
 3085 01e9 847C     		.sleb128 -508
 3086 01eb 00       		.byte	0
 3087 01ec 00       		.byte	0
 3088 01ed 0A       		.uleb128 0xa
 3089 01ee AD000000 		.4byte	0xad
 3090 01f2 FE010000 		.4byte	0x1fe
 3091 01f6 11       		.uleb128 0x11
 3092 01f7 F1000000 		.4byte	0xf1
 3093 01fb F301     		.2byte	0x1f3
 3094 01fd 00       		.byte	0
 3095 01fe 12       		.uleb128 0x12
 3096 01ff 88060000 		.4byte	.LASF33
 3097 0203 01       		.byte	0x1
 3098 0204 2A       		.byte	0x2a
 3099 0205 AD000000 		.4byte	0xad
 3100 0209 00000000 		.4byte	.LFB64
 3101 020d 38000000 		.4byte	.LFE64-.LFB64
 3102 0211 01       		.uleb128 0x1
 3103 0212 9C       		.byte	0x9c
 3104 0213 61020000 		.4byte	0x261
 3105 0217 13       		.uleb128 0x13
 3106 0218 6E040000 		.4byte	.LASF35
 3107 021c 01       		.byte	0x1
 3108 021d 2A       		.byte	0x2a
 3109 021e 61020000 		.4byte	0x261
 3110 0222 00000000 		.4byte	.LLST0
 3111 0226 14       		.uleb128 0x14
 3112 0227 EA050000 		.4byte	.LASF32
 3113 022b 01       		.byte	0x1
 3114 022c 2C       		.byte	0x2c
 3115 022d B9000000 		.4byte	0xb9
 3116 0231 2C000000 		.4byte	.LLST1
 3117 0235 0D       		.uleb128 0xd
 3118 0236 06050000 		.4byte	.LASF31
 3119 023a 01       		.byte	0x1
 3120 023b 2D       		.byte	0x2d
 3121 023c ED010000 		.4byte	0x1ed
 3122 0240 03       		.uleb128 0x3
 3123 0241 91       		.byte	0x91
 3124 0242 FC7B     		.sleb128 -516
 3125 0244 10       		.uleb128 0x10
ARM GAS  C:\Users\Administrator\AppData\Local\Temp\ccShlVUx.s 			page 78


 3126 0245 14000000 		.4byte	.LVL4
 3127 0249 EB180000 		.4byte	0x18eb
 3128 024d 0F       		.uleb128 0xf
 3129 024e 01       		.uleb128 0x1
 3130 024f 52       		.byte	0x52
 3131 0250 03       		.uleb128 0x3
 3132 0251 0A       		.byte	0xa
 3133 0252 F401     		.2byte	0x1f4
 3134 0254 0F       		.uleb128 0xf
 3135 0255 01       		.uleb128 0x1
 3136 0256 51       		.byte	0x51
 3137 0257 01       		.uleb128 0x1
 3138 0258 30       		.byte	0x30
 3139 0259 0F       		.uleb128 0xf
 3140 025a 01       		.uleb128 0x1
 3141 025b 50       		.byte	0x50
 3142 025c 02       		.uleb128 0x2
 3143 025d 74       		.byte	0x74
 3144 025e 00       		.sleb128 0
 3145 025f 00       		.byte	0
 3146 0260 00       		.byte	0
 3147 0261 07       		.uleb128 0x7
 3148 0262 04       		.byte	0x4
 3149 0263 B9000000 		.4byte	0xb9
 3150 0267 12       		.uleb128 0x12
 3151 0268 00000000 		.4byte	.LASF34
 3152 026c 01       		.byte	0x1
 3153 026d 43       		.byte	0x43
 3154 026e AD000000 		.4byte	0xad
 3155 0272 00000000 		.4byte	.LFB65
 3156 0276 22000000 		.4byte	.LFE65-.LFB65
 3157 027a 01       		.uleb128 0x1
 3158 027b 9C       		.byte	0x9c
 3159 027c BB020000 		.4byte	0x2bb
 3160 0280 13       		.uleb128 0x13
 3161 0281 6E040000 		.4byte	.LASF35
 3162 0285 01       		.byte	0x1
 3163 0286 43       		.byte	0x43
 3164 0287 B9000000 		.4byte	0xb9
 3165 028b 65000000 		.4byte	.LLST2
 3166 028f 0D       		.uleb128 0xd
 3167 0290 06050000 		.4byte	.LASF31
 3168 0294 01       		.byte	0x1
 3169 0295 45       		.byte	0x45
 3170 0296 ED010000 		.4byte	0x1ed
 3171 029a 03       		.uleb128 0x3
 3172 029b 91       		.byte	0x91
 3173 029c FC7B     		.sleb128 -516
 3174 029e 10       		.uleb128 0x10
 3175 029f 14000000 		.4byte	.LVL13
 3176 02a3 EB180000 		.4byte	0x18eb
 3177 02a7 0F       		.uleb128 0xf
 3178 02a8 01       		.uleb128 0x1
 3179 02a9 52       		.byte	0x52
 3180 02aa 03       		.uleb128 0x3
 3181 02ab 0A       		.byte	0xa
 3182 02ac F401     		.2byte	0x1f4
ARM GAS  C:\Users\Administrator\AppData\Local\Temp\ccShlVUx.s 			page 79


 3183 02ae 0F       		.uleb128 0xf
 3184 02af 01       		.uleb128 0x1
 3185 02b0 51       		.byte	0x51
 3186 02b1 01       		.uleb128 0x1
 3187 02b2 30       		.byte	0x30
 3188 02b3 0F       		.uleb128 0xf
 3189 02b4 01       		.uleb128 0x1
 3190 02b5 50       		.byte	0x50
 3191 02b6 02       		.uleb128 0x2
 3192 02b7 74       		.byte	0x74
 3193 02b8 00       		.sleb128 0
 3194 02b9 00       		.byte	0
 3195 02ba 00       		.byte	0
 3196 02bb 12       		.uleb128 0x12
 3197 02bc D1000000 		.4byte	.LASF36
 3198 02c0 01       		.byte	0x1
 3199 02c1 5A       		.byte	0x5a
 3200 02c2 B9000000 		.4byte	0xb9
 3201 02c6 00000000 		.4byte	.LFB66
 3202 02ca 2E000000 		.4byte	.LFE66-.LFB66
 3203 02ce 01       		.uleb128 0x1
 3204 02cf 9C       		.byte	0x9c
 3205 02d0 1E030000 		.4byte	0x31e
 3206 02d4 0D       		.uleb128 0xd
 3207 02d5 06050000 		.4byte	.LASF31
 3208 02d9 01       		.byte	0x1
 3209 02da 5C       		.byte	0x5c
 3210 02db ED010000 		.4byte	0x1ed
 3211 02df 03       		.uleb128 0x3
 3212 02e0 91       		.byte	0x91
 3213 02e1 847C     		.sleb128 -508
 3214 02e3 14       		.uleb128 0x14
 3215 02e4 EA050000 		.4byte	.LASF32
 3216 02e8 01       		.byte	0x1
 3217 02e9 5D       		.byte	0x5d
 3218 02ea B9000000 		.4byte	0xb9
 3219 02ee 86000000 		.4byte	.LLST3
 3220 02f2 15       		.uleb128 0x15
 3221 02f3 71747900 		.ascii	"qty\000"
 3222 02f7 01       		.byte	0x1
 3223 02f8 5E       		.byte	0x5e
 3224 02f9 B9000000 		.4byte	0xb9
 3225 02fd B2000000 		.4byte	.LLST4
 3226 0301 10       		.uleb128 0x10
 3227 0302 12000000 		.4byte	.LVL15
 3228 0306 EB180000 		.4byte	0x18eb
 3229 030a 0F       		.uleb128 0xf
 3230 030b 01       		.uleb128 0x1
 3231 030c 52       		.byte	0x52
 3232 030d 03       		.uleb128 0x3
 3233 030e 0A       		.byte	0xa
 3234 030f F401     		.2byte	0x1f4
 3235 0311 0F       		.uleb128 0xf
 3236 0312 01       		.uleb128 0x1
 3237 0313 51       		.byte	0x51
 3238 0314 01       		.uleb128 0x1
 3239 0315 30       		.byte	0x30
ARM GAS  C:\Users\Administrator\AppData\Local\Temp\ccShlVUx.s 			page 80


 3240 0316 0F       		.uleb128 0xf
 3241 0317 01       		.uleb128 0x1
 3242 0318 50       		.byte	0x50
 3243 0319 02       		.uleb128 0x2
 3244 031a 74       		.byte	0x74
 3245 031b 00       		.sleb128 0
 3246 031c 00       		.byte	0
 3247 031d 00       		.byte	0
 3248 031e 0C       		.uleb128 0xc
 3249 031f 74060000 		.4byte	.LASF38
 3250 0323 01       		.byte	0x1
 3251 0324 73       		.byte	0x73
 3252 0325 00000000 		.4byte	.LFB67
 3253 0329 12000000 		.4byte	.LFE67-.LFB67
 3254 032d 01       		.uleb128 0x1
 3255 032e 9C       		.byte	0x9c
 3256 032f 66030000 		.4byte	0x366
 3257 0333 13       		.uleb128 0x13
 3258 0334 6E040000 		.4byte	.LASF35
 3259 0338 01       		.byte	0x1
 3260 0339 73       		.byte	0x73
 3261 033a B9000000 		.4byte	0xb9
 3262 033e DC000000 		.4byte	.LLST5
 3263 0342 0D       		.uleb128 0xd
 3264 0343 06050000 		.4byte	.LASF31
 3265 0347 01       		.byte	0x1
 3266 0348 75       		.byte	0x75
 3267 0349 AD000000 		.4byte	0xad
 3268 034d 02       		.uleb128 0x2
 3269 034e 91       		.byte	0x91
 3270 034f 77       		.sleb128 -9
 3271 0350 10       		.uleb128 0x10
 3272 0351 10000000 		.4byte	.LVL22
 3273 0355 CA180000 		.4byte	0x18ca
 3274 0359 0F       		.uleb128 0xf
 3275 035a 01       		.uleb128 0x1
 3276 035b 52       		.byte	0x52
 3277 035c 01       		.uleb128 0x1
 3278 035d 31       		.byte	0x31
 3279 035e 0F       		.uleb128 0xf
 3280 035f 01       		.uleb128 0x1
 3281 0360 50       		.byte	0x50
 3282 0361 02       		.uleb128 0x2
 3283 0362 7D       		.byte	0x7d
 3284 0363 07       		.sleb128 7
 3285 0364 00       		.byte	0
 3286 0365 00       		.byte	0
 3287 0366 0C       		.uleb128 0xc
 3288 0367 AD060000 		.4byte	.LASF39
 3289 036b 01       		.byte	0x1
 3290 036c 82       		.byte	0x82
 3291 036d 00000000 		.4byte	.LFB68
 3292 0371 14000000 		.4byte	.LFE68-.LFB68
 3293 0375 01       		.uleb128 0x1
 3294 0376 9C       		.byte	0x9c
 3295 0377 AE030000 		.4byte	0x3ae
 3296 037b 13       		.uleb128 0x13
ARM GAS  C:\Users\Administrator\AppData\Local\Temp\ccShlVUx.s 			page 81


 3297 037c 6E040000 		.4byte	.LASF35
 3298 0380 01       		.byte	0x1
 3299 0381 82       		.byte	0x82
 3300 0382 B9000000 		.4byte	0xb9
 3301 0386 FD000000 		.4byte	.LLST6
 3302 038a 0D       		.uleb128 0xd
 3303 038b 06050000 		.4byte	.LASF31
 3304 038f 01       		.byte	0x1
 3305 0390 84       		.byte	0x84
 3306 0391 AD000000 		.4byte	0xad
 3307 0395 02       		.uleb128 0x2
 3308 0396 91       		.byte	0x91
 3309 0397 77       		.sleb128 -9
 3310 0398 10       		.uleb128 0x10
 3311 0399 12000000 		.4byte	.LVL25
 3312 039d CA180000 		.4byte	0x18ca
 3313 03a1 0F       		.uleb128 0xf
 3314 03a2 01       		.uleb128 0x1
 3315 03a3 52       		.byte	0x52
 3316 03a4 01       		.uleb128 0x1
 3317 03a5 31       		.byte	0x31
 3318 03a6 0F       		.uleb128 0xf
 3319 03a7 01       		.uleb128 0x1
 3320 03a8 50       		.byte	0x50
 3321 03a9 02       		.uleb128 0x2
 3322 03aa 7D       		.byte	0x7d
 3323 03ab 07       		.sleb128 7
 3324 03ac 00       		.byte	0
 3325 03ad 00       		.byte	0
 3326 03ae 0C       		.uleb128 0xc
 3327 03af ED040000 		.4byte	.LASF40
 3328 03b3 01       		.byte	0x1
 3329 03b4 91       		.byte	0x91
 3330 03b5 00000000 		.4byte	.LFB69
 3331 03b9 18000000 		.4byte	.LFE69-.LFB69
 3332 03bd 01       		.uleb128 0x1
 3333 03be 9C       		.byte	0x9c
 3334 03bf F7030000 		.4byte	0x3f7
 3335 03c3 13       		.uleb128 0x13
 3336 03c4 6E040000 		.4byte	.LASF35
 3337 03c8 01       		.byte	0x1
 3338 03c9 91       		.byte	0x91
 3339 03ca B9000000 		.4byte	0xb9
 3340 03ce 1E010000 		.4byte	.LLST7
 3341 03d2 13       		.uleb128 0x13
 3342 03d3 3D040000 		.4byte	.LASF41
 3343 03d7 01       		.byte	0x1
 3344 03d8 91       		.byte	0x91
 3345 03d9 F7030000 		.4byte	0x3f7
 3346 03dd 3F010000 		.4byte	.LLST8
 3347 03e1 10       		.uleb128 0x10
 3348 03e2 16000000 		.4byte	.LVL29
 3349 03e6 CA180000 		.4byte	0x18ca
 3350 03ea 0F       		.uleb128 0xf
 3351 03eb 01       		.uleb128 0x1
 3352 03ec 52       		.byte	0x52
 3353 03ed 01       		.uleb128 0x1
ARM GAS  C:\Users\Administrator\AppData\Local\Temp\ccShlVUx.s 			page 82


 3354 03ee 3C       		.byte	0x3c
 3355 03ef 0F       		.uleb128 0xf
 3356 03f0 01       		.uleb128 0x1
 3357 03f1 50       		.byte	0x50
 3358 03f2 02       		.uleb128 0x2
 3359 03f3 74       		.byte	0x74
 3360 03f4 00       		.sleb128 0
 3361 03f5 00       		.byte	0
 3362 03f6 00       		.byte	0
 3363 03f7 07       		.uleb128 0x7
 3364 03f8 04       		.byte	0x4
 3365 03f9 45010000 		.4byte	0x145
 3366 03fd 0C       		.uleb128 0xc
 3367 03fe 88010000 		.4byte	.LASF42
 3368 0402 01       		.byte	0x1
 3369 0403 9E       		.byte	0x9e
 3370 0404 00000000 		.4byte	.LFB70
 3371 0408 26000000 		.4byte	.LFE70-.LFB70
 3372 040c 01       		.uleb128 0x1
 3373 040d 9C       		.byte	0x9c
 3374 040e 6C040000 		.4byte	0x46c
 3375 0412 13       		.uleb128 0x13
 3376 0413 6E040000 		.4byte	.LASF35
 3377 0417 01       		.byte	0x1
 3378 0418 9E       		.byte	0x9e
 3379 0419 B9000000 		.4byte	0xb9
 3380 041d 6B010000 		.4byte	.LLST9
 3381 0421 0D       		.uleb128 0xd
 3382 0422 06050000 		.4byte	.LASF31
 3383 0426 01       		.byte	0x1
 3384 0427 A0       		.byte	0xa0
 3385 0428 6C040000 		.4byte	0x46c
 3386 042c 02       		.uleb128 0x2
 3387 042d 91       		.byte	0x91
 3388 042e 64       		.sleb128 -28
 3389 042f 0E       		.uleb128 0xe
 3390 0430 12000000 		.4byte	.LVL33
 3391 0434 AD180000 		.4byte	0x18ad
 3392 0438 4E040000 		.4byte	0x44e
 3393 043c 0F       		.uleb128 0xf
 3394 043d 01       		.uleb128 0x1
 3395 043e 52       		.byte	0x52
 3396 043f 02       		.uleb128 0x2
 3397 0440 75       		.byte	0x75
 3398 0441 00       		.sleb128 0
 3399 0442 0F       		.uleb128 0xf
 3400 0443 01       		.uleb128 0x1
 3401 0444 51       		.byte	0x51
 3402 0445 01       		.uleb128 0x1
 3403 0446 30       		.byte	0x30
 3404 0447 0F       		.uleb128 0xf
 3405 0448 01       		.uleb128 0x1
 3406 0449 50       		.byte	0x50
 3407 044a 02       		.uleb128 0x2
 3408 044b 91       		.byte	0x91
 3409 044c 64       		.sleb128 -28
 3410 044d 00       		.byte	0
ARM GAS  C:\Users\Administrator\AppData\Local\Temp\ccShlVUx.s 			page 83


 3411 044e 10       		.uleb128 0x10
 3412 044f 22000000 		.4byte	.LVL34
 3413 0453 CA180000 		.4byte	0x18ca
 3414 0457 0F       		.uleb128 0xf
 3415 0458 01       		.uleb128 0x1
 3416 0459 52       		.byte	0x52
 3417 045a 02       		.uleb128 0x2
 3418 045b 75       		.byte	0x75
 3419 045c 00       		.sleb128 0
 3420 045d 0F       		.uleb128 0xf
 3421 045e 01       		.uleb128 0x1
 3422 045f 51       		.byte	0x51
 3423 0460 03       		.uleb128 0x3
 3424 0461 74       		.byte	0x74
 3425 0462 8004     		.sleb128 512
 3426 0464 0F       		.uleb128 0xf
 3427 0465 01       		.uleb128 0x1
 3428 0466 50       		.byte	0x50
 3429 0467 02       		.uleb128 0x2
 3430 0468 91       		.byte	0x91
 3431 0469 64       		.sleb128 -28
 3432 046a 00       		.byte	0
 3433 046b 00       		.byte	0
 3434 046c 0A       		.uleb128 0xa
 3435 046d 8C000000 		.4byte	0x8c
 3436 0471 7C040000 		.4byte	0x47c
 3437 0475 0B       		.uleb128 0xb
 3438 0476 F1000000 		.4byte	0xf1
 3439 047a 0B       		.byte	0xb
 3440 047b 00       		.byte	0
 3441 047c 0C       		.uleb128 0xc
 3442 047d 49010000 		.4byte	.LASF43
 3443 0481 01       		.byte	0x1
 3444 0482 AD       		.byte	0xad
 3445 0483 00000000 		.4byte	.LFB71
 3446 0487 18000000 		.4byte	.LFE71-.LFB71
 3447 048b 01       		.uleb128 0x1
 3448 048c 9C       		.byte	0x9c
 3449 048d C5040000 		.4byte	0x4c5
 3450 0491 13       		.uleb128 0x13
 3451 0492 6E040000 		.4byte	.LASF35
 3452 0496 01       		.byte	0x1
 3453 0497 AD       		.byte	0xad
 3454 0498 B9000000 		.4byte	0xb9
 3455 049c 8C010000 		.4byte	.LLST10
 3456 04a0 13       		.uleb128 0x13
 3457 04a1 3D040000 		.4byte	.LASF41
 3458 04a5 01       		.byte	0x1
 3459 04a6 AD       		.byte	0xad
 3460 04a7 F7030000 		.4byte	0x3f7
 3461 04ab AD010000 		.4byte	.LLST11
 3462 04af 10       		.uleb128 0x10
 3463 04b0 16000000 		.4byte	.LVL38
 3464 04b4 EB180000 		.4byte	0x18eb
 3465 04b8 0F       		.uleb128 0xf
 3466 04b9 01       		.uleb128 0x1
 3467 04ba 52       		.byte	0x52
ARM GAS  C:\Users\Administrator\AppData\Local\Temp\ccShlVUx.s 			page 84


 3468 04bb 01       		.uleb128 0x1
 3469 04bc 3C       		.byte	0x3c
 3470 04bd 0F       		.uleb128 0xf
 3471 04be 01       		.uleb128 0x1
 3472 04bf 50       		.byte	0x50
 3473 04c0 02       		.uleb128 0x2
 3474 04c1 74       		.byte	0x74
 3475 04c2 00       		.sleb128 0
 3476 04c3 00       		.byte	0
 3477 04c4 00       		.byte	0
 3478 04c5 0C       		.uleb128 0xc
 3479 04c6 15020000 		.4byte	.LASF44
 3480 04ca 01       		.byte	0x1
 3481 04cb BA       		.byte	0xba
 3482 04cc 00000000 		.4byte	.LFB72
 3483 04d0 18000000 		.4byte	.LFE72-.LFB72
 3484 04d4 01       		.uleb128 0x1
 3485 04d5 9C       		.byte	0x9c
 3486 04d6 0F050000 		.4byte	0x50f
 3487 04da 13       		.uleb128 0x13
 3488 04db 6E040000 		.4byte	.LASF35
 3489 04df 01       		.byte	0x1
 3490 04e0 BA       		.byte	0xba
 3491 04e1 B9000000 		.4byte	0xb9
 3492 04e5 D9010000 		.4byte	.LLST12
 3493 04e9 13       		.uleb128 0x13
 3494 04ea 17060000 		.4byte	.LASF23
 3495 04ee 01       		.byte	0x1
 3496 04ef BA       		.byte	0xba
 3497 04f0 FA000000 		.4byte	0xfa
 3498 04f4 FA010000 		.4byte	.LLST13
 3499 04f8 10       		.uleb128 0x10
 3500 04f9 16000000 		.4byte	.LVL44
 3501 04fd EB180000 		.4byte	0x18eb
 3502 0501 0F       		.uleb128 0xf
 3503 0502 01       		.uleb128 0x1
 3504 0503 52       		.byte	0x52
 3505 0504 01       		.uleb128 0x1
 3506 0505 38       		.byte	0x38
 3507 0506 0F       		.uleb128 0xf
 3508 0507 01       		.uleb128 0x1
 3509 0508 50       		.byte	0x50
 3510 0509 03       		.uleb128 0x3
 3511 050a F3       		.byte	0xf3
 3512 050b 01       		.uleb128 0x1
 3513 050c 51       		.byte	0x51
 3514 050d 00       		.byte	0
 3515 050e 00       		.byte	0
 3516 050f 0C       		.uleb128 0xc
 3517 0510 B3000000 		.4byte	.LASF45
 3518 0514 01       		.byte	0x1
 3519 0515 C8       		.byte	0xc8
 3520 0516 00000000 		.4byte	.LFB73
 3521 051a 4C000000 		.4byte	.LFE73-.LFB73
 3522 051e 01       		.uleb128 0x1
 3523 051f 9C       		.byte	0x9c
 3524 0520 D6050000 		.4byte	0x5d6
ARM GAS  C:\Users\Administrator\AppData\Local\Temp\ccShlVUx.s 			page 85


 3525 0524 13       		.uleb128 0x13
 3526 0525 6E040000 		.4byte	.LASF35
 3527 0529 01       		.byte	0x1
 3528 052a C8       		.byte	0xc8
 3529 052b 61020000 		.4byte	0x261
 3530 052f 31020000 		.4byte	.LLST14
 3531 0533 13       		.uleb128 0x13
 3532 0534 17060000 		.4byte	.LASF23
 3533 0538 01       		.byte	0x1
 3534 0539 C8       		.byte	0xc8
 3535 053a FA000000 		.4byte	0xfa
 3536 053e 5D020000 		.4byte	.LLST15
 3537 0542 15       		.uleb128 0x15
 3538 0543 6900     		.ascii	"i\000"
 3539 0545 01       		.byte	0x1
 3540 0546 CA       		.byte	0xca
 3541 0547 B9000000 		.4byte	0xb9
 3542 054b 7D020000 		.4byte	.LLST16
 3543 054f 15       		.uleb128 0x15
 3544 0550 72657400 		.ascii	"ret\000"
 3545 0554 01       		.byte	0x1
 3546 0555 CB       		.byte	0xcb
 3547 0556 AD000000 		.4byte	0xad
 3548 055a B6020000 		.4byte	.LLST17
 3549 055e 0D       		.uleb128 0xd
 3550 055f 06050000 		.4byte	.LASF31
 3551 0563 01       		.byte	0x1
 3552 0564 CC       		.byte	0xcc
 3553 0565 ED010000 		.4byte	0x1ed
 3554 0569 03       		.uleb128 0x3
 3555 056a 91       		.byte	0x91
 3556 056b F47B     		.sleb128 -524
 3557 056d 0D       		.uleb128 0xd
 3558 056e F6020000 		.4byte	.LASF46
 3559 0572 01       		.byte	0x1
 3560 0573 CD       		.byte	0xcd
 3561 0574 25010000 		.4byte	0x125
 3562 0578 03       		.uleb128 0x3
 3563 0579 91       		.byte	0x91
 3564 057a EC7B     		.sleb128 -532
 3565 057c 0E       		.uleb128 0xe
 3566 057d 16000000 		.4byte	.LVL48
 3567 0581 EB180000 		.4byte	0x18eb
 3568 0585 9C050000 		.4byte	0x59c
 3569 0589 0F       		.uleb128 0xf
 3570 058a 01       		.uleb128 0x1
 3571 058b 52       		.byte	0x52
 3572 058c 03       		.uleb128 0x3
 3573 058d 0A       		.byte	0xa
 3574 058e F401     		.2byte	0x1f4
 3575 0590 0F       		.uleb128 0xf
 3576 0591 01       		.uleb128 0x1
 3577 0592 51       		.byte	0x51
 3578 0593 01       		.uleb128 0x1
 3579 0594 30       		.byte	0x30
 3580 0595 0F       		.uleb128 0xf
 3581 0596 01       		.uleb128 0x1
ARM GAS  C:\Users\Administrator\AppData\Local\Temp\ccShlVUx.s 			page 86


 3582 0597 50       		.byte	0x50
 3583 0598 02       		.uleb128 0x2
 3584 0599 76       		.byte	0x76
 3585 059a 00       		.sleb128 0
 3586 059b 00       		.byte	0
 3587 059c 0E       		.uleb128 0xe
 3588 059d 28000000 		.4byte	.LVL51
 3589 05a1 C5040000 		.4byte	0x4c5
 3590 05a5 B7050000 		.4byte	0x5b7
 3591 05a9 0F       		.uleb128 0xf
 3592 05aa 01       		.uleb128 0x1
 3593 05ab 51       		.byte	0x51
 3594 05ac 03       		.uleb128 0x3
 3595 05ad 91       		.byte	0x91
 3596 05ae EC7B     		.sleb128 -532
 3597 05b0 0F       		.uleb128 0xf
 3598 05b1 01       		.uleb128 0x1
 3599 05b2 50       		.byte	0x50
 3600 05b3 02       		.uleb128 0x2
 3601 05b4 77       		.byte	0x77
 3602 05b5 00       		.sleb128 0
 3603 05b6 00       		.byte	0
 3604 05b7 10       		.uleb128 0x10
 3605 05b8 32000000 		.4byte	.LVL52
 3606 05bc 06190000 		.4byte	0x1906
 3607 05c0 0F       		.uleb128 0xf
 3608 05c1 01       		.uleb128 0x1
 3609 05c2 52       		.byte	0x52
 3610 05c3 01       		.uleb128 0x1
 3611 05c4 38       		.byte	0x38
 3612 05c5 0F       		.uleb128 0xf
 3613 05c6 01       		.uleb128 0x1
 3614 05c7 51       		.byte	0x51
 3615 05c8 03       		.uleb128 0x3
 3616 05c9 91       		.byte	0x91
 3617 05ca EC7B     		.sleb128 -532
 3618 05cc 0F       		.uleb128 0xf
 3619 05cd 01       		.uleb128 0x1
 3620 05ce 50       		.byte	0x50
 3621 05cf 04       		.uleb128 0x4
 3622 05d0 91       		.byte	0x91
 3623 05d1 E47B     		.sleb128 -540
 3624 05d3 06       		.byte	0x6
 3625 05d4 00       		.byte	0
 3626 05d5 00       		.byte	0
 3627 05d6 0C       		.uleb128 0xc
 3628 05d7 49050000 		.4byte	.LASF47
 3629 05db 01       		.byte	0x1
 3630 05dc E8       		.byte	0xe8
 3631 05dd 00000000 		.4byte	.LFB74
 3632 05e1 18000000 		.4byte	.LFE74-.LFB74
 3633 05e5 01       		.uleb128 0x1
 3634 05e6 9C       		.byte	0x9c
 3635 05e7 20060000 		.4byte	0x620
 3636 05eb 13       		.uleb128 0x13
 3637 05ec 6E040000 		.4byte	.LASF35
 3638 05f0 01       		.byte	0x1
ARM GAS  C:\Users\Administrator\AppData\Local\Temp\ccShlVUx.s 			page 87


 3639 05f1 E8       		.byte	0xe8
 3640 05f2 B9000000 		.4byte	0xb9
 3641 05f6 C9020000 		.4byte	.LLST18
 3642 05fa 13       		.uleb128 0x13
 3643 05fb 68000000 		.4byte	.LASF24
 3644 05ff 01       		.byte	0x1
 3645 0600 E8       		.byte	0xe8
 3646 0601 FA000000 		.4byte	0xfa
 3647 0605 EA020000 		.4byte	.LLST19
 3648 0609 10       		.uleb128 0x10
 3649 060a 16000000 		.4byte	.LVL61
 3650 060e EB180000 		.4byte	0x18eb
 3651 0612 0F       		.uleb128 0xf
 3652 0613 01       		.uleb128 0x1
 3653 0614 52       		.byte	0x52
 3654 0615 01       		.uleb128 0x1
 3655 0616 34       		.byte	0x34
 3656 0617 0F       		.uleb128 0xf
 3657 0618 01       		.uleb128 0x1
 3658 0619 50       		.byte	0x50
 3659 061a 03       		.uleb128 0x3
 3660 061b F3       		.byte	0xf3
 3661 061c 01       		.uleb128 0x1
 3662 061d 51       		.byte	0x51
 3663 061e 00       		.byte	0
 3664 061f 00       		.byte	0
 3665 0620 12       		.uleb128 0x12
 3666 0621 DB040000 		.4byte	.LASF48
 3667 0625 01       		.byte	0x1
 3668 0626 F5       		.byte	0xf5
 3669 0627 AD000000 		.4byte	0xad
 3670 062b 00000000 		.4byte	.LFB75
 3671 062f 32000000 		.4byte	.LFE75-.LFB75
 3672 0633 01       		.uleb128 0x1
 3673 0634 9C       		.byte	0x9c
 3674 0635 C9060000 		.4byte	0x6c9
 3675 0639 13       		.uleb128 0x13
 3676 063a 6E040000 		.4byte	.LASF35
 3677 063e 01       		.byte	0x1
 3678 063f F5       		.byte	0xf5
 3679 0640 B9000000 		.4byte	0xb9
 3680 0644 21030000 		.4byte	.LLST20
 3681 0648 13       		.uleb128 0x13
 3682 0649 3D040000 		.4byte	.LASF41
 3683 064d 01       		.byte	0x1
 3684 064e F5       		.byte	0xf5
 3685 064f F7030000 		.4byte	0x3f7
 3686 0653 42030000 		.4byte	.LLST21
 3687 0657 0D       		.uleb128 0xd
 3688 0658 73000000 		.4byte	.LASF49
 3689 065c 01       		.byte	0x1
 3690 065d F7       		.byte	0xf7
 3691 065e 45010000 		.4byte	0x145
 3692 0662 02       		.uleb128 0x2
 3693 0663 91       		.byte	0x91
 3694 0664 64       		.sleb128 -28
 3695 0665 0E       		.uleb128 0xe
ARM GAS  C:\Users\Administrator\AppData\Local\Temp\ccShlVUx.s 			page 88


 3696 0666 0C000000 		.4byte	.LVL63
 3697 066a AE030000 		.4byte	0x3ae
 3698 066e 7F060000 		.4byte	0x67f
 3699 0672 0F       		.uleb128 0xf
 3700 0673 01       		.uleb128 0x1
 3701 0674 51       		.byte	0x51
 3702 0675 02       		.uleb128 0x2
 3703 0676 75       		.byte	0x75
 3704 0677 00       		.sleb128 0
 3705 0678 0F       		.uleb128 0xf
 3706 0679 01       		.uleb128 0x1
 3707 067a 50       		.byte	0x50
 3708 067b 02       		.uleb128 0x2
 3709 067c 74       		.byte	0x74
 3710 067d 00       		.sleb128 0
 3711 067e 00       		.byte	0
 3712 067f 0E       		.uleb128 0xe
 3713 0680 14000000 		.4byte	.LVL64
 3714 0684 7C040000 		.4byte	0x47c
 3715 0688 99060000 		.4byte	0x699
 3716 068c 0F       		.uleb128 0xf
 3717 068d 01       		.uleb128 0x1
 3718 068e 51       		.byte	0x51
 3719 068f 02       		.uleb128 0x2
 3720 0690 91       		.byte	0x91
 3721 0691 64       		.sleb128 -28
 3722 0692 0F       		.uleb128 0xf
 3723 0693 01       		.uleb128 0x1
 3724 0694 50       		.byte	0x50
 3725 0695 02       		.uleb128 0x2
 3726 0696 74       		.byte	0x74
 3727 0697 00       		.sleb128 0
 3728 0698 00       		.byte	0
 3729 0699 0E       		.uleb128 0xe
 3730 069a 1E000000 		.4byte	.LVL65
 3731 069e 06190000 		.4byte	0x1906
 3732 06a2 B8060000 		.4byte	0x6b8
 3733 06a6 0F       		.uleb128 0xf
 3734 06a7 01       		.uleb128 0x1
 3735 06a8 52       		.byte	0x52
 3736 06a9 01       		.uleb128 0x1
 3737 06aa 3C       		.byte	0x3c
 3738 06ab 0F       		.uleb128 0xf
 3739 06ac 01       		.uleb128 0x1
 3740 06ad 51       		.byte	0x51
 3741 06ae 02       		.uleb128 0x2
 3742 06af 91       		.byte	0x91
 3743 06b0 64       		.sleb128 -28
 3744 06b1 0F       		.uleb128 0xf
 3745 06b2 01       		.uleb128 0x1
 3746 06b3 50       		.byte	0x50
 3747 06b4 02       		.uleb128 0x2
 3748 06b5 75       		.byte	0x75
 3749 06b6 00       		.sleb128 0
 3750 06b7 00       		.byte	0
 3751 06b8 10       		.uleb128 0x10
 3752 06b9 2A000000 		.4byte	.LVL66
ARM GAS  C:\Users\Administrator\AppData\Local\Temp\ccShlVUx.s 			page 89


 3753 06bd 1E030000 		.4byte	0x31e
 3754 06c1 0F       		.uleb128 0xf
 3755 06c2 01       		.uleb128 0x1
 3756 06c3 50       		.byte	0x50
 3757 06c4 02       		.uleb128 0x2
 3758 06c5 74       		.byte	0x74
 3759 06c6 00       		.sleb128 0
 3760 06c7 00       		.byte	0
 3761 06c8 00       		.byte	0
 3762 06c9 16       		.uleb128 0x16
 3763 06ca BF030000 		.4byte	.LASF50
 3764 06ce 01       		.byte	0x1
 3765 06cf 0E01     		.2byte	0x10e
 3766 06d1 AD000000 		.4byte	0xad
 3767 06d5 00000000 		.4byte	.LFB76
 3768 06d9 28000000 		.4byte	.LFE76-.LFB76
 3769 06dd 01       		.uleb128 0x1
 3770 06de 9C       		.byte	0x9c
 3771 06df 62070000 		.4byte	0x762
 3772 06e3 17       		.uleb128 0x17
 3773 06e4 6E040000 		.4byte	.LASF35
 3774 06e8 01       		.byte	0x1
 3775 06e9 0E01     		.2byte	0x10e
 3776 06eb B9000000 		.4byte	0xb9
 3777 06ef 6E030000 		.4byte	.LLST22
 3778 06f3 17       		.uleb128 0x17
 3779 06f4 3D040000 		.4byte	.LASF41
 3780 06f8 01       		.byte	0x1
 3781 06f9 0E01     		.2byte	0x10e
 3782 06fb F7030000 		.4byte	0x3f7
 3783 06ff 8F030000 		.4byte	.LLST23
 3784 0703 18       		.uleb128 0x18
 3785 0704 73000000 		.4byte	.LASF49
 3786 0708 01       		.byte	0x1
 3787 0709 1001     		.2byte	0x110
 3788 070b 45010000 		.4byte	0x145
 3789 070f 02       		.uleb128 0x2
 3790 0710 91       		.byte	0x91
 3791 0711 64       		.sleb128 -28
 3792 0712 0E       		.uleb128 0xe
 3793 0713 0C000000 		.4byte	.LVL69
 3794 0717 AE030000 		.4byte	0x3ae
 3795 071b 2C070000 		.4byte	0x72c
 3796 071f 0F       		.uleb128 0xf
 3797 0720 01       		.uleb128 0x1
 3798 0721 51       		.byte	0x51
 3799 0722 02       		.uleb128 0x2
 3800 0723 74       		.byte	0x74
 3801 0724 00       		.sleb128 0
 3802 0725 0F       		.uleb128 0xf
 3803 0726 01       		.uleb128 0x1
 3804 0727 50       		.byte	0x50
 3805 0728 02       		.uleb128 0x2
 3806 0729 75       		.byte	0x75
 3807 072a 00       		.sleb128 0
 3808 072b 00       		.byte	0
 3809 072c 0E       		.uleb128 0xe
ARM GAS  C:\Users\Administrator\AppData\Local\Temp\ccShlVUx.s 			page 90


 3810 072d 14000000 		.4byte	.LVL70
 3811 0731 7C040000 		.4byte	0x47c
 3812 0735 46070000 		.4byte	0x746
 3813 0739 0F       		.uleb128 0xf
 3814 073a 01       		.uleb128 0x1
 3815 073b 51       		.byte	0x51
 3816 073c 02       		.uleb128 0x2
 3817 073d 91       		.byte	0x91
 3818 073e 64       		.sleb128 -28
 3819 073f 0F       		.uleb128 0xf
 3820 0740 01       		.uleb128 0x1
 3821 0741 50       		.byte	0x50
 3822 0742 02       		.uleb128 0x2
 3823 0743 75       		.byte	0x75
 3824 0744 00       		.sleb128 0
 3825 0745 00       		.byte	0
 3826 0746 10       		.uleb128 0x10
 3827 0747 1E000000 		.4byte	.LVL71
 3828 074b 06190000 		.4byte	0x1906
 3829 074f 0F       		.uleb128 0xf
 3830 0750 01       		.uleb128 0x1
 3831 0751 52       		.byte	0x52
 3832 0752 01       		.uleb128 0x1
 3833 0753 3C       		.byte	0x3c
 3834 0754 0F       		.uleb128 0xf
 3835 0755 01       		.uleb128 0x1
 3836 0756 51       		.byte	0x51
 3837 0757 02       		.uleb128 0x2
 3838 0758 91       		.byte	0x91
 3839 0759 64       		.sleb128 -28
 3840 075a 0F       		.uleb128 0xf
 3841 075b 01       		.uleb128 0x1
 3842 075c 50       		.byte	0x50
 3843 075d 02       		.uleb128 0x2
 3844 075e 74       		.byte	0x74
 3845 075f 00       		.sleb128 0
 3846 0760 00       		.byte	0
 3847 0761 00       		.byte	0
 3848 0762 16       		.uleb128 0x16
 3849 0763 71010000 		.4byte	.LASF51
 3850 0767 01       		.byte	0x1
 3851 0768 2801     		.2byte	0x128
 3852 076a AD000000 		.4byte	0xad
 3853 076e 00000000 		.4byte	.LFB77
 3854 0772 30000000 		.4byte	.LFE77-.LFB77
 3855 0776 01       		.uleb128 0x1
 3856 0777 9C       		.byte	0x9c
 3857 0778 DA070000 		.4byte	0x7da
 3858 077c 17       		.uleb128 0x17
 3859 077d 6E040000 		.4byte	.LASF35
 3860 0781 01       		.byte	0x1
 3861 0782 2801     		.2byte	0x128
 3862 0784 B9000000 		.4byte	0xb9
 3863 0788 BB030000 		.4byte	.LLST24
 3864 078c 18       		.uleb128 0x18
 3865 078d 73000000 		.4byte	.LASF49
 3866 0791 01       		.byte	0x1
ARM GAS  C:\Users\Administrator\AppData\Local\Temp\ccShlVUx.s 			page 91


 3867 0792 2A01     		.2byte	0x12a
 3868 0794 45010000 		.4byte	0x145
 3869 0798 02       		.uleb128 0x2
 3870 0799 91       		.byte	0x91
 3871 079a 64       		.sleb128 -28
 3872 079b 0E       		.uleb128 0xe
 3873 079c 0C000000 		.4byte	.LVL74
 3874 07a0 FD030000 		.4byte	0x3fd
 3875 07a4 AF070000 		.4byte	0x7af
 3876 07a8 0F       		.uleb128 0xf
 3877 07a9 01       		.uleb128 0x1
 3878 07aa 50       		.byte	0x50
 3879 07ab 02       		.uleb128 0x2
 3880 07ac 74       		.byte	0x74
 3881 07ad 00       		.sleb128 0
 3882 07ae 00       		.byte	0
 3883 07af 0E       		.uleb128 0xe
 3884 07b0 14000000 		.4byte	.LVL75
 3885 07b4 7C040000 		.4byte	0x47c
 3886 07b8 C9070000 		.4byte	0x7c9
 3887 07bc 0F       		.uleb128 0xf
 3888 07bd 01       		.uleb128 0x1
 3889 07be 51       		.byte	0x51
 3890 07bf 02       		.uleb128 0x2
 3891 07c0 75       		.byte	0x75
 3892 07c1 00       		.sleb128 0
 3893 07c2 0F       		.uleb128 0xf
 3894 07c3 01       		.uleb128 0x1
 3895 07c4 50       		.byte	0x50
 3896 07c5 02       		.uleb128 0x2
 3897 07c6 74       		.byte	0x74
 3898 07c7 00       		.sleb128 0
 3899 07c8 00       		.byte	0
 3900 07c9 10       		.uleb128 0x10
 3901 07ca 26000000 		.4byte	.LVL76
 3902 07ce 66030000 		.4byte	0x366
 3903 07d2 0F       		.uleb128 0xf
 3904 07d3 01       		.uleb128 0x1
 3905 07d4 50       		.byte	0x50
 3906 07d5 02       		.uleb128 0x2
 3907 07d6 74       		.byte	0x74
 3908 07d7 00       		.sleb128 0
 3909 07d8 00       		.byte	0
 3910 07d9 00       		.byte	0
 3911 07da 16       		.uleb128 0x16
 3912 07db ED020000 		.4byte	.LASF52
 3913 07df 01       		.byte	0x1
 3914 07e0 4201     		.2byte	0x142
 3915 07e2 AD000000 		.4byte	0xad
 3916 07e6 00000000 		.4byte	.LFB78
 3917 07ea 4C000000 		.4byte	.LFE78-.LFB78
 3918 07ee 01       		.uleb128 0x1
 3919 07ef 9C       		.byte	0x9c
 3920 07f0 93080000 		.4byte	0x893
 3921 07f4 18       		.uleb128 0x18
 3922 07f5 AD040000 		.4byte	.LASF53
 3923 07f9 01       		.byte	0x1
ARM GAS  C:\Users\Administrator\AppData\Local\Temp\ccShlVUx.s 			page 92


 3924 07fa 4401     		.2byte	0x144
 3925 07fc 93080000 		.4byte	0x893
 3926 0800 03       		.uleb128 0x3
 3927 0801 91       		.byte	0x91
 3928 0802 8C4D     		.sleb128 -6516
 3929 0804 18       		.uleb128 0x18
 3930 0805 C8030000 		.4byte	.LASF54
 3931 0809 01       		.byte	0x1
 3932 080a 4501     		.2byte	0x145
 3933 080c A4080000 		.4byte	0x8a4
 3934 0810 03       		.uleb128 0x3
 3935 0811 91       		.byte	0x91
 3936 0812 8051     		.sleb128 -6016
 3937 0814 0E       		.uleb128 0xe
 3938 0815 16000000 		.4byte	.LVL77
 3939 0819 AD180000 		.4byte	0x18ad
 3940 081d 34080000 		.4byte	0x834
 3941 0821 0F       		.uleb128 0xf
 3942 0822 01       		.uleb128 0x1
 3943 0823 52       		.byte	0x52
 3944 0824 02       		.uleb128 0x2
 3945 0825 75       		.byte	0x75
 3946 0826 00       		.sleb128 0
 3947 0827 0F       		.uleb128 0xf
 3948 0828 01       		.uleb128 0x1
 3949 0829 51       		.byte	0x51
 3950 082a 01       		.uleb128 0x1
 3951 082b 30       		.byte	0x30
 3952 082c 0F       		.uleb128 0xf
 3953 082d 01       		.uleb128 0x1
 3954 082e 50       		.byte	0x50
 3955 082f 03       		.uleb128 0x3
 3956 0830 91       		.byte	0x91
 3957 0831 8C4D     		.sleb128 -6516
 3958 0833 00       		.byte	0
 3959 0834 0E       		.uleb128 0xe
 3960 0835 20000000 		.4byte	.LVL78
 3961 0839 AD180000 		.4byte	0x18ad
 3962 083d 54080000 		.4byte	0x854
 3963 0841 0F       		.uleb128 0xf
 3964 0842 01       		.uleb128 0x1
 3965 0843 52       		.byte	0x52
 3966 0844 02       		.uleb128 0x2
 3967 0845 74       		.byte	0x74
 3968 0846 00       		.sleb128 0
 3969 0847 0F       		.uleb128 0xf
 3970 0848 01       		.uleb128 0x1
 3971 0849 51       		.byte	0x51
 3972 084a 01       		.uleb128 0x1
 3973 084b 30       		.byte	0x30
 3974 084c 0F       		.uleb128 0xf
 3975 084d 01       		.uleb128 0x1
 3976 084e 50       		.byte	0x50
 3977 084f 03       		.uleb128 0x3
 3978 0850 91       		.byte	0x91
 3979 0851 8051     		.sleb128 -6016
 3980 0853 00       		.byte	0
ARM GAS  C:\Users\Administrator\AppData\Local\Temp\ccShlVUx.s 			page 93


 3981 0854 0E       		.uleb128 0xe
 3982 0855 2A000000 		.4byte	.LVL79
 3983 0859 CA180000 		.4byte	0x18ca
 3984 085d 74080000 		.4byte	0x874
 3985 0861 0F       		.uleb128 0xf
 3986 0862 01       		.uleb128 0x1
 3987 0863 52       		.byte	0x52
 3988 0864 02       		.uleb128 0x2
 3989 0865 75       		.byte	0x75
 3990 0866 00       		.sleb128 0
 3991 0867 0F       		.uleb128 0xf
 3992 0868 01       		.uleb128 0x1
 3993 0869 51       		.byte	0x51
 3994 086a 01       		.uleb128 0x1
 3995 086b 30       		.byte	0x30
 3996 086c 0F       		.uleb128 0xf
 3997 086d 01       		.uleb128 0x1
 3998 086e 50       		.byte	0x50
 3999 086f 03       		.uleb128 0x3
 4000 0870 91       		.byte	0x91
 4001 0871 8C4D     		.sleb128 -6516
 4002 0873 00       		.byte	0
 4003 0874 10       		.uleb128 0x10
 4004 0875 36000000 		.4byte	.LVL80
 4005 0879 CA180000 		.4byte	0x18ca
 4006 087d 0F       		.uleb128 0xf
 4007 087e 01       		.uleb128 0x1
 4008 087f 52       		.byte	0x52
 4009 0880 02       		.uleb128 0x2
 4010 0881 74       		.byte	0x74
 4011 0882 00       		.sleb128 0
 4012 0883 0F       		.uleb128 0xf
 4013 0884 01       		.uleb128 0x1
 4014 0885 51       		.byte	0x51
 4015 0886 03       		.uleb128 0x3
 4016 0887 0A       		.byte	0xa
 4017 0888 0002     		.2byte	0x200
 4018 088a 0F       		.uleb128 0xf
 4019 088b 01       		.uleb128 0x1
 4020 088c 50       		.byte	0x50
 4021 088d 03       		.uleb128 0x3
 4022 088e 91       		.byte	0x91
 4023 088f 8051     		.sleb128 -6016
 4024 0891 00       		.byte	0
 4025 0892 00       		.byte	0
 4026 0893 0A       		.uleb128 0xa
 4027 0894 8C000000 		.4byte	0x8c
 4028 0898 A4080000 		.4byte	0x8a4
 4029 089c 11       		.uleb128 0x11
 4030 089d F1000000 		.4byte	0xf1
 4031 08a1 F301     		.2byte	0x1f3
 4032 08a3 00       		.byte	0
 4033 08a4 0A       		.uleb128 0xa
 4034 08a5 8C000000 		.4byte	0x8c
 4035 08a9 B5080000 		.4byte	0x8b5
 4036 08ad 11       		.uleb128 0x11
 4037 08ae F1000000 		.4byte	0xf1
ARM GAS  C:\Users\Administrator\AppData\Local\Temp\ccShlVUx.s 			page 94


 4038 08b2 6F17     		.2byte	0x176f
 4039 08b4 00       		.byte	0
 4040 08b5 16       		.uleb128 0x16
 4041 08b6 0A040000 		.4byte	.LASF55
 4042 08ba 01       		.byte	0x1
 4043 08bb 5401     		.2byte	0x154
 4044 08bd AD000000 		.4byte	0xad
 4045 08c1 00000000 		.4byte	.LFB79
 4046 08c5 46000000 		.4byte	.LFE79-.LFB79
 4047 08c9 01       		.uleb128 0x1
 4048 08ca 9C       		.byte	0x9c
 4049 08cb 41090000 		.4byte	0x941
 4050 08cf 17       		.uleb128 0x17
 4051 08d0 3D040000 		.4byte	.LASF41
 4052 08d4 01       		.byte	0x1
 4053 08d5 5401     		.2byte	0x154
 4054 08d7 F7030000 		.4byte	0x3f7
 4055 08db DC030000 		.4byte	.LLST25
 4056 08df 18       		.uleb128 0x18
 4057 08e0 6E040000 		.4byte	.LASF35
 4058 08e4 01       		.byte	0x1
 4059 08e5 5601     		.2byte	0x156
 4060 08e7 97000000 		.4byte	0x97
 4061 08eb 02       		.uleb128 0x2
 4062 08ec 91       		.byte	0x91
 4063 08ed 6E       		.sleb128 -18
 4064 08ee 0E       		.uleb128 0xe
 4065 08ef 14000000 		.4byte	.LVL83
 4066 08f3 0F050000 		.4byte	0x50f
 4067 08f7 08090000 		.4byte	0x908
 4068 08fb 0F       		.uleb128 0xf
 4069 08fc 01       		.uleb128 0x1
 4070 08fd 51       		.byte	0x51
 4071 08fe 02       		.uleb128 0x2
 4072 08ff 76       		.byte	0x76
 4073 0900 00       		.sleb128 0
 4074 0901 0F       		.uleb128 0xf
 4075 0902 01       		.uleb128 0x1
 4076 0903 50       		.byte	0x50
 4077 0904 02       		.uleb128 0x2
 4078 0905 75       		.byte	0x75
 4079 0906 00       		.sleb128 0
 4080 0907 00       		.byte	0
 4081 0908 0E       		.uleb128 0xe
 4082 0909 24000000 		.4byte	.LVL84
 4083 090d C9060000 		.4byte	0x6c9
 4084 0911 1C090000 		.4byte	0x91c
 4085 0915 0F       		.uleb128 0xf
 4086 0916 01       		.uleb128 0x1
 4087 0917 51       		.byte	0x51
 4088 0918 02       		.uleb128 0x2
 4089 0919 76       		.byte	0x76
 4090 091a 00       		.sleb128 0
 4091 091b 00       		.byte	0
 4092 091c 0E       		.uleb128 0xe
 4093 091d 2C000000 		.4byte	.LVL85
 4094 0921 FE010000 		.4byte	0x1fe
ARM GAS  C:\Users\Administrator\AppData\Local\Temp\ccShlVUx.s 			page 95


 4095 0925 30090000 		.4byte	0x930
 4096 0929 0F       		.uleb128 0xf
 4097 092a 01       		.uleb128 0x1
 4098 092b 50       		.byte	0x50
 4099 092c 02       		.uleb128 0x2
 4100 092d 75       		.byte	0x75
 4101 092e 00       		.sleb128 0
 4102 092f 00       		.byte	0
 4103 0930 10       		.uleb128 0x10
 4104 0931 3C000000 		.4byte	.LVL86
 4105 0935 20060000 		.4byte	0x620
 4106 0939 0F       		.uleb128 0xf
 4107 093a 01       		.uleb128 0x1
 4108 093b 51       		.byte	0x51
 4109 093c 02       		.uleb128 0x2
 4110 093d 76       		.byte	0x76
 4111 093e 00       		.sleb128 0
 4112 093f 00       		.byte	0
 4113 0940 00       		.byte	0
 4114 0941 16       		.uleb128 0x16
 4115 0942 AD050000 		.4byte	.LASF56
 4116 0946 01       		.byte	0x1
 4117 0947 8001     		.2byte	0x180
 4118 0949 AD000000 		.4byte	0xad
 4119 094d 00000000 		.4byte	.LFB80
 4120 0951 2E000000 		.4byte	.LFE80-.LFB80
 4121 0955 01       		.uleb128 0x1
 4122 0956 9C       		.byte	0x9c
 4123 0957 9F090000 		.4byte	0x99f
 4124 095b 17       		.uleb128 0x17
 4125 095c 17060000 		.4byte	.LASF23
 4126 0960 01       		.byte	0x1
 4127 0961 8001     		.2byte	0x180
 4128 0963 FA000000 		.4byte	0xfa
 4129 0967 08040000 		.4byte	.LLST26
 4130 096b 18       		.uleb128 0x18
 4131 096c 6E040000 		.4byte	.LASF35
 4132 0970 01       		.byte	0x1
 4133 0971 8201     		.2byte	0x182
 4134 0973 97000000 		.4byte	0x97
 4135 0977 02       		.uleb128 0x2
 4136 0978 91       		.byte	0x91
 4137 0979 76       		.sleb128 -10
 4138 097a 0E       		.uleb128 0xe
 4139 097b 12000000 		.4byte	.LVL90
 4140 097f 0F050000 		.4byte	0x50f
 4141 0983 95090000 		.4byte	0x995
 4142 0987 0F       		.uleb128 0xf
 4143 0988 01       		.uleb128 0x1
 4144 0989 51       		.byte	0x51
 4145 098a 03       		.uleb128 0x3
 4146 098b F3       		.byte	0xf3
 4147 098c 01       		.uleb128 0x1
 4148 098d 50       		.byte	0x50
 4149 098e 0F       		.uleb128 0xf
 4150 098f 01       		.uleb128 0x1
 4151 0990 50       		.byte	0x50
ARM GAS  C:\Users\Administrator\AppData\Local\Temp\ccShlVUx.s 			page 96


 4152 0991 02       		.uleb128 0x2
 4153 0992 74       		.byte	0x74
 4154 0993 00       		.sleb128 0
 4155 0994 00       		.byte	0
 4156 0995 19       		.uleb128 0x19
 4157 0996 24000000 		.4byte	.LVL91
 4158 099a 62070000 		.4byte	0x762
 4159 099e 00       		.byte	0
 4160 099f 16       		.uleb128 0x16
 4161 09a0 DB060000 		.4byte	.LASF57
 4162 09a4 01       		.byte	0x1
 4163 09a5 9E01     		.2byte	0x19e
 4164 09a7 AD000000 		.4byte	0xad
 4165 09ab 00000000 		.4byte	.LFB81
 4166 09af 08000000 		.4byte	.LFE81-.LFB81
 4167 09b3 01       		.uleb128 0x1
 4168 09b4 9C       		.byte	0x9c
 4169 09b5 C3090000 		.4byte	0x9c3
 4170 09b9 19       		.uleb128 0x19
 4171 09ba 06000000 		.4byte	.LVL92
 4172 09be DA070000 		.4byte	0x7da
 4173 09c2 00       		.byte	0
 4174 09c3 16       		.uleb128 0x16
 4175 09c4 42040000 		.4byte	.LASF58
 4176 09c8 01       		.byte	0x1
 4177 09c9 AC01     		.2byte	0x1ac
 4178 09cb AD000000 		.4byte	0xad
 4179 09cf 00000000 		.4byte	.LFB82
 4180 09d3 5E000000 		.4byte	.LFE82-.LFB82
 4181 09d7 01       		.uleb128 0x1
 4182 09d8 9C       		.byte	0x9c
 4183 09d9 360A0000 		.4byte	0xa36
 4184 09dd 17       		.uleb128 0x17
 4185 09de 3D040000 		.4byte	.LASF41
 4186 09e2 01       		.byte	0x1
 4187 09e3 AC01     		.2byte	0x1ac
 4188 09e5 F7030000 		.4byte	0x3f7
 4189 09e9 34040000 		.4byte	.LLST27
 4190 09ed 18       		.uleb128 0x18
 4191 09ee 6E040000 		.4byte	.LASF35
 4192 09f2 01       		.byte	0x1
 4193 09f3 AE01     		.2byte	0x1ae
 4194 09f5 97000000 		.4byte	0x97
 4195 09f9 02       		.uleb128 0x2
 4196 09fa 91       		.byte	0x91
 4197 09fb 6A       		.sleb128 -22
 4198 09fc 18       		.uleb128 0x18
 4199 09fd 01040000 		.4byte	.LASF59
 4200 0a01 01       		.byte	0x1
 4201 0a02 AF01     		.2byte	0x1af
 4202 0a04 360A0000 		.4byte	0xa36
 4203 0a08 02       		.uleb128 0x2
 4204 0a09 91       		.byte	0x91
 4205 0a0a 6C       		.sleb128 -20
 4206 0a0b 0E       		.uleb128 0xe
 4207 0a0c 16000000 		.4byte	.LVL95
 4208 0a10 0F050000 		.4byte	0x50f
ARM GAS  C:\Users\Administrator\AppData\Local\Temp\ccShlVUx.s 			page 97


 4209 0a14 250A0000 		.4byte	0xa25
 4210 0a18 0F       		.uleb128 0xf
 4211 0a19 01       		.uleb128 0x1
 4212 0a1a 51       		.byte	0x51
 4213 0a1b 02       		.uleb128 0x2
 4214 0a1c 74       		.byte	0x74
 4215 0a1d 00       		.sleb128 0
 4216 0a1e 0F       		.uleb128 0xf
 4217 0a1f 01       		.uleb128 0x1
 4218 0a20 50       		.byte	0x50
 4219 0a21 02       		.uleb128 0x2
 4220 0a22 76       		.byte	0x76
 4221 0a23 00       		.sleb128 0
 4222 0a24 00       		.byte	0
 4223 0a25 10       		.uleb128 0x10
 4224 0a26 2A000000 		.4byte	.LVL96
 4225 0a2a D6050000 		.4byte	0x5d6
 4226 0a2e 0F       		.uleb128 0xf
 4227 0a2f 01       		.uleb128 0x1
 4228 0a30 51       		.byte	0x51
 4229 0a31 02       		.uleb128 0x2
 4230 0a32 75       		.byte	0x75
 4231 0a33 00       		.sleb128 0
 4232 0a34 00       		.byte	0
 4233 0a35 00       		.byte	0
 4234 0a36 0A       		.uleb128 0xa
 4235 0a37 8C000000 		.4byte	0x8c
 4236 0a3b 460A0000 		.4byte	0xa46
 4237 0a3f 0B       		.uleb128 0xb
 4238 0a40 F1000000 		.4byte	0xf1
 4239 0a44 03       		.byte	0x3
 4240 0a45 00       		.byte	0
 4241 0a46 1A       		.uleb128 0x1a
 4242 0a47 11000000 		.4byte	.LASF60
 4243 0a4b 01       		.byte	0x1
 4244 0a4c D501     		.2byte	0x1d5
 4245 0a4e 00000000 		.4byte	.LFB83
 4246 0a52 44000000 		.4byte	.LFE83-.LFB83
 4247 0a56 01       		.uleb128 0x1
 4248 0a57 9C       		.byte	0x9c
 4249 0a58 D60A0000 		.4byte	0xad6
 4250 0a5c 17       		.uleb128 0x17
 4251 0a5d 27020000 		.4byte	.LASF61
 4252 0a61 01       		.byte	0x1
 4253 0a62 D501     		.2byte	0x1d5
 4254 0a64 B9000000 		.4byte	0xb9
 4255 0a68 60040000 		.4byte	.LLST28
 4256 0a6c 17       		.uleb128 0x17
 4257 0a6d CF010000 		.4byte	.LASF62
 4258 0a71 01       		.byte	0x1
 4259 0a72 D501     		.2byte	0x1d5
 4260 0a74 AD000000 		.4byte	0xad
 4261 0a78 81040000 		.4byte	.LLST29
 4262 0a7c 18       		.uleb128 0x18
 4263 0a7d 06050000 		.4byte	.LASF31
 4264 0a81 01       		.byte	0x1
 4265 0a82 D701     		.2byte	0x1d7
ARM GAS  C:\Users\Administrator\AppData\Local\Temp\ccShlVUx.s 			page 98


 4266 0a84 AD000000 		.4byte	0xad
 4267 0a88 02       		.uleb128 0x2
 4268 0a89 91       		.byte	0x91
 4269 0a8a 6F       		.sleb128 -17
 4270 0a8b 1B       		.uleb128 0x1b
 4271 0a8c 746D7000 		.ascii	"tmp\000"
 4272 0a90 01       		.byte	0x1
 4273 0a91 D801     		.2byte	0x1d8
 4274 0a93 B9000000 		.4byte	0xb9
 4275 0a97 A2040000 		.4byte	.LLST30
 4276 0a9b 0E       		.uleb128 0xe
 4277 0a9c 20000000 		.4byte	.LVL101
 4278 0aa0 EB180000 		.4byte	0x18eb
 4279 0aa4 BA0A0000 		.4byte	0xaba
 4280 0aa8 0F       		.uleb128 0xf
 4281 0aa9 01       		.uleb128 0x1
 4282 0aaa 52       		.byte	0x52
 4283 0aab 01       		.uleb128 0x1
 4284 0aac 31       		.byte	0x31
 4285 0aad 0F       		.uleb128 0xf
 4286 0aae 01       		.uleb128 0x1
 4287 0aaf 51       		.byte	0x51
 4288 0ab0 02       		.uleb128 0x2
 4289 0ab1 74       		.byte	0x74
 4290 0ab2 00       		.sleb128 0
 4291 0ab3 0F       		.uleb128 0xf
 4292 0ab4 01       		.uleb128 0x1
 4293 0ab5 50       		.byte	0x50
 4294 0ab6 02       		.uleb128 0x2
 4295 0ab7 75       		.byte	0x75
 4296 0ab8 00       		.sleb128 0
 4297 0ab9 00       		.byte	0
 4298 0aba 10       		.uleb128 0x10
 4299 0abb 3E000000 		.4byte	.LVL102
 4300 0abf CA180000 		.4byte	0x18ca
 4301 0ac3 0F       		.uleb128 0xf
 4302 0ac4 01       		.uleb128 0x1
 4303 0ac5 52       		.byte	0x52
 4304 0ac6 01       		.uleb128 0x1
 4305 0ac7 31       		.byte	0x31
 4306 0ac8 0F       		.uleb128 0xf
 4307 0ac9 01       		.uleb128 0x1
 4308 0aca 51       		.byte	0x51
 4309 0acb 02       		.uleb128 0x2
 4310 0acc 74       		.byte	0x74
 4311 0acd 00       		.sleb128 0
 4312 0ace 0F       		.uleb128 0xf
 4313 0acf 01       		.uleb128 0x1
 4314 0ad0 50       		.byte	0x50
 4315 0ad1 02       		.uleb128 0x2
 4316 0ad2 75       		.byte	0x75
 4317 0ad3 00       		.sleb128 0
 4318 0ad4 00       		.byte	0
 4319 0ad5 00       		.byte	0
 4320 0ad6 1C       		.uleb128 0x1c
 4321 0ad7 80040000 		.4byte	.LASF63
 4322 0adb 01       		.byte	0x1
ARM GAS  C:\Users\Administrator\AppData\Local\Temp\ccShlVUx.s 			page 99


 4323 0adc EF01     		.2byte	0x1ef
 4324 0ade AD000000 		.4byte	0xad
 4325 0ae2 00000000 		.4byte	.LFB84
 4326 0ae6 28000000 		.4byte	.LFE84-.LFB84
 4327 0aea 01       		.uleb128 0x1
 4328 0aeb 9C       		.byte	0x9c
 4329 0aec 350B0000 		.4byte	0xb35
 4330 0af0 17       		.uleb128 0x17
 4331 0af1 27020000 		.4byte	.LASF61
 4332 0af5 01       		.byte	0x1
 4333 0af6 EF01     		.2byte	0x1ef
 4334 0af8 B9000000 		.4byte	0xb9
 4335 0afc CD040000 		.4byte	.LLST31
 4336 0b00 18       		.uleb128 0x18
 4337 0b01 06050000 		.4byte	.LASF31
 4338 0b05 01       		.byte	0x1
 4339 0b06 F101     		.2byte	0x1f1
 4340 0b08 AD000000 		.4byte	0xad
 4341 0b0c 02       		.uleb128 0x2
 4342 0b0d 91       		.byte	0x91
 4343 0b0e 77       		.sleb128 -9
 4344 0b0f 1B       		.uleb128 0x1b
 4345 0b10 746D7000 		.ascii	"tmp\000"
 4346 0b14 01       		.byte	0x1
 4347 0b15 F201     		.2byte	0x1f2
 4348 0b17 B9000000 		.4byte	0xb9
 4349 0b1b EE040000 		.4byte	.LLST32
 4350 0b1f 10       		.uleb128 0x10
 4351 0b20 1C000000 		.4byte	.LVL105
 4352 0b24 EB180000 		.4byte	0x18eb
 4353 0b28 0F       		.uleb128 0xf
 4354 0b29 01       		.uleb128 0x1
 4355 0b2a 52       		.byte	0x52
 4356 0b2b 01       		.uleb128 0x1
 4357 0b2c 31       		.byte	0x31
 4358 0b2d 0F       		.uleb128 0xf
 4359 0b2e 01       		.uleb128 0x1
 4360 0b2f 50       		.byte	0x50
 4361 0b30 02       		.uleb128 0x2
 4362 0b31 74       		.byte	0x74
 4363 0b32 00       		.sleb128 0
 4364 0b33 00       		.byte	0
 4365 0b34 00       		.byte	0
 4366 0b35 1A       		.uleb128 0x1a
 4367 0b36 8A030000 		.4byte	.LASF64
 4368 0b3a 01       		.byte	0x1
 4369 0b3b 0902     		.2byte	0x209
 4370 0b3d 00000000 		.4byte	.LFB85
 4371 0b41 24000000 		.4byte	.LFE85-.LFB85
 4372 0b45 01       		.uleb128 0x1
 4373 0b46 9C       		.byte	0x9c
 4374 0b47 A00B0000 		.4byte	0xba0
 4375 0b4b 17       		.uleb128 0x17
 4376 0b4c 27020000 		.4byte	.LASF61
 4377 0b50 01       		.byte	0x1
 4378 0b51 0902     		.2byte	0x209
 4379 0b53 B9000000 		.4byte	0xb9
ARM GAS  C:\Users\Administrator\AppData\Local\Temp\ccShlVUx.s 			page 100


 4380 0b57 19050000 		.4byte	.LLST33
 4381 0b5b 17       		.uleb128 0x17
 4382 0b5c BF050000 		.4byte	.LASF65
 4383 0b60 01       		.byte	0x1
 4384 0b61 0902     		.2byte	0x209
 4385 0b63 AD000000 		.4byte	0xad
 4386 0b67 3A050000 		.4byte	.LLST34
 4387 0b6b 18       		.uleb128 0x18
 4388 0b6c 06050000 		.4byte	.LASF31
 4389 0b70 01       		.byte	0x1
 4390 0b71 0B02     		.2byte	0x20b
 4391 0b73 AD000000 		.4byte	0xad
 4392 0b77 02       		.uleb128 0x2
 4393 0b78 91       		.byte	0x91
 4394 0b79 77       		.sleb128 -9
 4395 0b7a 1B       		.uleb128 0x1b
 4396 0b7b 746D7000 		.ascii	"tmp\000"
 4397 0b7f 01       		.byte	0x1
 4398 0b80 0C02     		.2byte	0x20c
 4399 0b82 B9000000 		.4byte	0xb9
 4400 0b86 73050000 		.4byte	.LLST35
 4401 0b8a 10       		.uleb128 0x10
 4402 0b8b 1E000000 		.4byte	.LVL110
 4403 0b8f CA180000 		.4byte	0x18ca
 4404 0b93 0F       		.uleb128 0xf
 4405 0b94 01       		.uleb128 0x1
 4406 0b95 52       		.byte	0x52
 4407 0b96 01       		.uleb128 0x1
 4408 0b97 31       		.byte	0x31
 4409 0b98 0F       		.uleb128 0xf
 4410 0b99 01       		.uleb128 0x1
 4411 0b9a 50       		.byte	0x50
 4412 0b9b 02       		.uleb128 0x2
 4413 0b9c 74       		.byte	0x74
 4414 0b9d 00       		.sleb128 0
 4415 0b9e 00       		.byte	0
 4416 0b9f 00       		.byte	0
 4417 0ba0 1C       		.uleb128 0x1c
 4418 0ba1 1C040000 		.4byte	.LASF66
 4419 0ba5 01       		.byte	0x1
 4420 0ba6 1D02     		.2byte	0x21d
 4421 0ba8 AD000000 		.4byte	0xad
 4422 0bac 00000000 		.4byte	.LFB86
 4423 0bb0 28000000 		.4byte	.LFE86-.LFB86
 4424 0bb4 01       		.uleb128 0x1
 4425 0bb5 9C       		.byte	0x9c
 4426 0bb6 FF0B0000 		.4byte	0xbff
 4427 0bba 17       		.uleb128 0x17
 4428 0bbb 27020000 		.4byte	.LASF61
 4429 0bbf 01       		.byte	0x1
 4430 0bc0 1D02     		.2byte	0x21d
 4431 0bc2 B9000000 		.4byte	0xb9
 4432 0bc6 9E050000 		.4byte	.LLST36
 4433 0bca 18       		.uleb128 0x18
 4434 0bcb 06050000 		.4byte	.LASF31
 4435 0bcf 01       		.byte	0x1
 4436 0bd0 1F02     		.2byte	0x21f
ARM GAS  C:\Users\Administrator\AppData\Local\Temp\ccShlVUx.s 			page 101


 4437 0bd2 AD000000 		.4byte	0xad
 4438 0bd6 02       		.uleb128 0x2
 4439 0bd7 91       		.byte	0x91
 4440 0bd8 77       		.sleb128 -9
 4441 0bd9 1B       		.uleb128 0x1b
 4442 0bda 746D7000 		.ascii	"tmp\000"
 4443 0bde 01       		.byte	0x1
 4444 0bdf 2002     		.2byte	0x220
 4445 0be1 B9000000 		.4byte	0xb9
 4446 0be5 BF050000 		.4byte	.LLST37
 4447 0be9 10       		.uleb128 0x10
 4448 0bea 1C000000 		.4byte	.LVL113
 4449 0bee EB180000 		.4byte	0x18eb
 4450 0bf2 0F       		.uleb128 0xf
 4451 0bf3 01       		.uleb128 0x1
 4452 0bf4 52       		.byte	0x52
 4453 0bf5 01       		.uleb128 0x1
 4454 0bf6 31       		.byte	0x31
 4455 0bf7 0F       		.uleb128 0xf
 4456 0bf8 01       		.uleb128 0x1
 4457 0bf9 50       		.byte	0x50
 4458 0bfa 02       		.uleb128 0x2
 4459 0bfb 74       		.byte	0x74
 4460 0bfc 00       		.sleb128 0
 4461 0bfd 00       		.byte	0
 4462 0bfe 00       		.byte	0
 4463 0bff 1D       		.uleb128 0x1d
 4464 0c00 9E040000 		.4byte	.LASF67
 4465 0c04 01       		.byte	0x1
 4466 0c05 2F02     		.2byte	0x22f
 4467 0c07 00000000 		.4byte	.LFB87
 4468 0c0b 18000000 		.4byte	.LFE87-.LFB87
 4469 0c0f 01       		.uleb128 0x1
 4470 0c10 9C       		.byte	0x9c
 4471 0c11 510C0000 		.4byte	0xc51
 4472 0c15 17       		.uleb128 0x17
 4473 0c16 BE020000 		.4byte	.LASF68
 4474 0c1a 01       		.byte	0x1
 4475 0c1b 2F02     		.2byte	0x22f
 4476 0c1d B9000000 		.4byte	0xb9
 4477 0c21 EA050000 		.4byte	.LLST38
 4478 0c25 1E       		.uleb128 0x1e
 4479 0c26 71747900 		.ascii	"qty\000"
 4480 0c2a 01       		.byte	0x1
 4481 0c2b 3102     		.2byte	0x231
 4482 0c2d 510C0000 		.4byte	0xc51
 4483 0c31 02       		.uleb128 0x2
 4484 0c32 91       		.byte	0x91
 4485 0c33 74       		.sleb128 -12
 4486 0c34 10       		.uleb128 0x10
 4487 0c35 16000000 		.4byte	.LVL116
 4488 0c39 CA180000 		.4byte	0x18ca
 4489 0c3d 0F       		.uleb128 0xf
 4490 0c3e 01       		.uleb128 0x1
 4491 0c3f 52       		.byte	0x52
 4492 0c40 01       		.uleb128 0x1
 4493 0c41 32       		.byte	0x32
ARM GAS  C:\Users\Administrator\AppData\Local\Temp\ccShlVUx.s 			page 102


 4494 0c42 0F       		.uleb128 0xf
 4495 0c43 01       		.uleb128 0x1
 4496 0c44 51       		.byte	0x51
 4497 0c45 03       		.uleb128 0x3
 4498 0c46 49       		.byte	0x49
 4499 0c47 3C       		.byte	0x3c
 4500 0c48 24       		.byte	0x24
 4501 0c49 0F       		.uleb128 0xf
 4502 0c4a 01       		.uleb128 0x1
 4503 0c4b 50       		.byte	0x50
 4504 0c4c 02       		.uleb128 0x2
 4505 0c4d 91       		.byte	0x91
 4506 0c4e 74       		.sleb128 -12
 4507 0c4f 00       		.byte	0
 4508 0c50 00       		.byte	0
 4509 0c51 0A       		.uleb128 0xa
 4510 0c52 AD000000 		.4byte	0xad
 4511 0c56 610C0000 		.4byte	0xc61
 4512 0c5a 0B       		.uleb128 0xb
 4513 0c5b F1000000 		.4byte	0xf1
 4514 0c5f 01       		.byte	0x1
 4515 0c60 00       		.byte	0
 4516 0c61 16       		.uleb128 0x16
 4517 0c62 7A010000 		.4byte	.LASF69
 4518 0c66 01       		.byte	0x1
 4519 0c67 4002     		.2byte	0x240
 4520 0c69 B9000000 		.4byte	0xb9
 4521 0c6d 00000000 		.4byte	.LFB88
 4522 0c71 1A000000 		.4byte	.LFE88-.LFB88
 4523 0c75 01       		.uleb128 0x1
 4524 0c76 9C       		.byte	0x9c
 4525 0c77 A70C0000 		.4byte	0xca7
 4526 0c7b 1E       		.uleb128 0x1e
 4527 0c7c 71747900 		.ascii	"qty\000"
 4528 0c80 01       		.byte	0x1
 4529 0c81 4202     		.2byte	0x242
 4530 0c83 510C0000 		.4byte	0xc51
 4531 0c87 02       		.uleb128 0x2
 4532 0c88 91       		.byte	0x91
 4533 0c89 74       		.sleb128 -12
 4534 0c8a 10       		.uleb128 0x10
 4535 0c8b 10000000 		.4byte	.LVL117
 4536 0c8f EB180000 		.4byte	0x18eb
 4537 0c93 0F       		.uleb128 0xf
 4538 0c94 01       		.uleb128 0x1
 4539 0c95 52       		.byte	0x52
 4540 0c96 01       		.uleb128 0x1
 4541 0c97 32       		.byte	0x32
 4542 0c98 0F       		.uleb128 0xf
 4543 0c99 01       		.uleb128 0x1
 4544 0c9a 51       		.byte	0x51
 4545 0c9b 03       		.uleb128 0x3
 4546 0c9c 49       		.byte	0x49
 4547 0c9d 3C       		.byte	0x3c
 4548 0c9e 24       		.byte	0x24
 4549 0c9f 0F       		.uleb128 0xf
 4550 0ca0 01       		.uleb128 0x1
ARM GAS  C:\Users\Administrator\AppData\Local\Temp\ccShlVUx.s 			page 103


 4551 0ca1 50       		.byte	0x50
 4552 0ca2 02       		.uleb128 0x2
 4553 0ca3 74       		.byte	0x74
 4554 0ca4 00       		.sleb128 0
 4555 0ca5 00       		.byte	0
 4556 0ca6 00       		.byte	0
 4557 0ca7 1A       		.uleb128 0x1a
 4558 0ca8 D1030000 		.4byte	.LASF70
 4559 0cac 01       		.byte	0x1
 4560 0cad 5102     		.2byte	0x251
 4561 0caf 00000000 		.4byte	.LFB89
 4562 0cb3 6C000000 		.4byte	.LFE89-.LFB89
 4563 0cb7 01       		.uleb128 0x1
 4564 0cb8 9C       		.byte	0x9c
 4565 0cb9 990D0000 		.4byte	0xd99
 4566 0cbd 17       		.uleb128 0x17
 4567 0cbe 65040000 		.4byte	.LASF71
 4568 0cc2 01       		.byte	0x1
 4569 0cc3 5102     		.2byte	0x251
 4570 0cc5 990D0000 		.4byte	0xd99
 4571 0cc9 0B060000 		.4byte	.LLST39
 4572 0ccd 17       		.uleb128 0x17
 4573 0cce C1060000 		.4byte	.LASF72
 4574 0cd2 01       		.byte	0x1
 4575 0cd3 5102     		.2byte	0x251
 4576 0cd5 8C000000 		.4byte	0x8c
 4577 0cd9 2A060000 		.4byte	.LLST40
 4578 0cdd 1F       		.uleb128 0x1f
 4579 0cde 0A030000 		.4byte	.LASF73
 4580 0ce2 01       		.byte	0x1
 4581 0ce3 5302     		.2byte	0x253
 4582 0ce5 B9000000 		.4byte	0xb9
 4583 0ce9 4B060000 		.4byte	.LLST41
 4584 0ced 1B       		.uleb128 0x1b
 4585 0cee 746D7000 		.ascii	"tmp\000"
 4586 0cf2 01       		.byte	0x1
 4587 0cf3 5302     		.2byte	0x253
 4588 0cf5 B9000000 		.4byte	0xb9
 4589 0cf9 5E060000 		.4byte	.LLST42
 4590 0cfd 18       		.uleb128 0x18
 4591 0cfe DD050000 		.4byte	.LASF74
 4592 0d02 01       		.byte	0x1
 4593 0d03 5702     		.2byte	0x257
 4594 0d05 9F0D0000 		.4byte	0xd9f
 4595 0d09 02       		.uleb128 0x2
 4596 0d0a 91       		.byte	0x91
 4597 0d0b 54       		.sleb128 -44
 4598 0d0c 19       		.uleb128 0x19
 4599 0d0d 0E000000 		.4byte	.LVL119
 4600 0d11 610C0000 		.4byte	0xc61
 4601 0d15 0E       		.uleb128 0xe
 4602 0d16 1C000000 		.4byte	.LVL121
 4603 0d1a AD180000 		.4byte	0x18ad
 4604 0d1e 340D0000 		.4byte	0xd34
 4605 0d22 0F       		.uleb128 0xf
 4606 0d23 01       		.uleb128 0x1
 4607 0d24 52       		.byte	0x52
ARM GAS  C:\Users\Administrator\AppData\Local\Temp\ccShlVUx.s 			page 104


 4608 0d25 02       		.uleb128 0x2
 4609 0d26 75       		.byte	0x75
 4610 0d27 00       		.sleb128 0
 4611 0d28 0F       		.uleb128 0xf
 4612 0d29 01       		.uleb128 0x1
 4613 0d2a 51       		.byte	0x51
 4614 0d2b 01       		.uleb128 0x1
 4615 0d2c 30       		.byte	0x30
 4616 0d2d 0F       		.uleb128 0xf
 4617 0d2e 01       		.uleb128 0x1
 4618 0d2f 50       		.byte	0x50
 4619 0d30 02       		.uleb128 0x2
 4620 0d31 76       		.byte	0x76
 4621 0d32 00       		.sleb128 0
 4622 0d33 00       		.byte	0
 4623 0d34 0E       		.uleb128 0xe
 4624 0d35 2C000000 		.4byte	.LVL122
 4625 0d39 2C190000 		.4byte	0x192c
 4626 0d3d 540D0000 		.4byte	0xd54
 4627 0d41 0F       		.uleb128 0xf
 4628 0d42 01       		.uleb128 0x1
 4629 0d43 52       		.byte	0x52
 4630 0d44 01       		.uleb128 0x1
 4631 0d45 40       		.byte	0x40
 4632 0d46 0F       		.uleb128 0xf
 4633 0d47 01       		.uleb128 0x1
 4634 0d48 51       		.byte	0x51
 4635 0d49 03       		.uleb128 0x3
 4636 0d4a 91       		.byte	0x91
 4637 0d4b 4C       		.sleb128 -52
 4638 0d4c 06       		.byte	0x6
 4639 0d4d 0F       		.uleb128 0xf
 4640 0d4e 01       		.uleb128 0x1
 4641 0d4f 50       		.byte	0x50
 4642 0d50 02       		.uleb128 0x2
 4643 0d51 91       		.byte	0x91
 4644 0d52 55       		.sleb128 -43
 4645 0d53 00       		.byte	0
 4646 0d54 0E       		.uleb128 0xe
 4647 0d55 46000000 		.4byte	.LVL124
 4648 0d59 CA180000 		.4byte	0x18ca
 4649 0d5d 6E0D0000 		.4byte	0xd6e
 4650 0d61 0F       		.uleb128 0xf
 4651 0d62 01       		.uleb128 0x1
 4652 0d63 52       		.byte	0x52
 4653 0d64 02       		.uleb128 0x2
 4654 0d65 75       		.byte	0x75
 4655 0d66 00       		.sleb128 0
 4656 0d67 0F       		.uleb128 0xf
 4657 0d68 01       		.uleb128 0x1
 4658 0d69 50       		.byte	0x50
 4659 0d6a 02       		.uleb128 0x2
 4660 0d6b 76       		.byte	0x76
 4661 0d6c 00       		.sleb128 0
 4662 0d6d 00       		.byte	0
 4663 0d6e 0E       		.uleb128 0xe
 4664 0d6f 54000000 		.4byte	.LVL126
ARM GAS  C:\Users\Administrator\AppData\Local\Temp\ccShlVUx.s 			page 105


 4665 0d73 350B0000 		.4byte	0xb35
 4666 0d77 880D0000 		.4byte	0xd88
 4667 0d7b 0F       		.uleb128 0xf
 4668 0d7c 01       		.uleb128 0x1
 4669 0d7d 51       		.byte	0x51
 4670 0d7e 02       		.uleb128 0x2
 4671 0d7f 77       		.byte	0x77
 4672 0d80 00       		.sleb128 0
 4673 0d81 0F       		.uleb128 0xf
 4674 0d82 01       		.uleb128 0x1
 4675 0d83 50       		.byte	0x50
 4676 0d84 02       		.uleb128 0x2
 4677 0d85 74       		.byte	0x74
 4678 0d86 7F       		.sleb128 -1
 4679 0d87 00       		.byte	0
 4680 0d88 10       		.uleb128 0x10
 4681 0d89 5A000000 		.4byte	.LVL127
 4682 0d8d FF0B0000 		.4byte	0xbff
 4683 0d91 0F       		.uleb128 0xf
 4684 0d92 01       		.uleb128 0x1
 4685 0d93 50       		.byte	0x50
 4686 0d94 02       		.uleb128 0x2
 4687 0d95 74       		.byte	0x74
 4688 0d96 00       		.sleb128 0
 4689 0d97 00       		.byte	0
 4690 0d98 00       		.byte	0
 4691 0d99 07       		.uleb128 0x7
 4692 0d9a 04       		.byte	0x4
 4693 0d9b 81010000 		.4byte	0x181
 4694 0d9f 0A       		.uleb128 0xa
 4695 0da0 AD000000 		.4byte	0xad
 4696 0da4 AF0D0000 		.4byte	0xdaf
 4697 0da8 0B       		.uleb128 0xb
 4698 0da9 F1000000 		.4byte	0xf1
 4699 0dad 10       		.byte	0x10
 4700 0dae 00       		.byte	0
 4701 0daf 1A       		.uleb128 0x1a
 4702 0db0 86000000 		.4byte	.LASF75
 4703 0db4 01       		.byte	0x1
 4704 0db5 7D02     		.2byte	0x27d
 4705 0db7 00000000 		.4byte	.LFB90
 4706 0dbb 64000000 		.4byte	.LFE90-.LFB90
 4707 0dbf 01       		.uleb128 0x1
 4708 0dc0 9C       		.byte	0x9c
 4709 0dc1 6C0E0000 		.4byte	0xe6c
 4710 0dc5 17       		.uleb128 0x17
 4711 0dc6 27020000 		.4byte	.LASF61
 4712 0dca 01       		.byte	0x1
 4713 0dcb 7D02     		.2byte	0x27d
 4714 0dcd B9000000 		.4byte	0xb9
 4715 0dd1 77060000 		.4byte	.LLST43
 4716 0dd5 17       		.uleb128 0x17
 4717 0dd6 65040000 		.4byte	.LASF71
 4718 0dda 01       		.byte	0x1
 4719 0ddb 7D02     		.2byte	0x27d
 4720 0ddd 990D0000 		.4byte	0xd99
 4721 0de1 98060000 		.4byte	.LLST44
ARM GAS  C:\Users\Administrator\AppData\Local\Temp\ccShlVUx.s 			page 106


 4722 0de5 1B       		.uleb128 0x1b
 4723 0de6 746D7000 		.ascii	"tmp\000"
 4724 0dea 01       		.byte	0x1
 4725 0deb 7F02     		.2byte	0x27f
 4726 0ded B9000000 		.4byte	0xb9
 4727 0df1 C4060000 		.4byte	.LLST45
 4728 0df5 18       		.uleb128 0x18
 4729 0df6 6E030000 		.4byte	.LASF76
 4730 0dfa 01       		.byte	0x1
 4731 0dfb 8002     		.2byte	0x280
 4732 0dfd 9F0D0000 		.4byte	0xd9f
 4733 0e01 02       		.uleb128 0x2
 4734 0e02 91       		.byte	0x91
 4735 0e03 5C       		.sleb128 -36
 4736 0e04 1F       		.uleb128 0x1f
 4737 0e05 20060000 		.4byte	.LASF77
 4738 0e09 01       		.byte	0x1
 4739 0e0a 8102     		.2byte	0x281
 4740 0e0c C5000000 		.4byte	0xc5
 4741 0e10 DD060000 		.4byte	.LLST46
 4742 0e14 0E       		.uleb128 0xe
 4743 0e15 14000000 		.4byte	.LVL131
 4744 0e19 AD180000 		.4byte	0x18ad
 4745 0e1d 330E0000 		.4byte	0xe33
 4746 0e21 0F       		.uleb128 0xf
 4747 0e22 01       		.uleb128 0x1
 4748 0e23 52       		.byte	0x52
 4749 0e24 02       		.uleb128 0x2
 4750 0e25 76       		.byte	0x76
 4751 0e26 00       		.sleb128 0
 4752 0e27 0F       		.uleb128 0xf
 4753 0e28 01       		.uleb128 0x1
 4754 0e29 51       		.byte	0x51
 4755 0e2a 01       		.uleb128 0x1
 4756 0e2b 30       		.byte	0x30
 4757 0e2c 0F       		.uleb128 0xf
 4758 0e2d 01       		.uleb128 0x1
 4759 0e2e 50       		.byte	0x50
 4760 0e2f 02       		.uleb128 0x2
 4761 0e30 91       		.byte	0x91
 4762 0e31 5C       		.sleb128 -36
 4763 0e32 00       		.byte	0
 4764 0e33 19       		.uleb128 0x19
 4765 0e34 46000000 		.4byte	.LVL139
 4766 0e38 EB180000 		.4byte	0x18eb
 4767 0e3c 0E       		.uleb128 0xe
 4768 0e3d 52000000 		.4byte	.LVL140
 4769 0e41 2C190000 		.4byte	0x192c
 4770 0e45 5B0E0000 		.4byte	0xe5b
 4771 0e49 0F       		.uleb128 0xf
 4772 0e4a 01       		.uleb128 0x1
 4773 0e4b 52       		.byte	0x52
 4774 0e4c 01       		.uleb128 0x1
 4775 0e4d 40       		.byte	0x40
 4776 0e4e 0F       		.uleb128 0xf
 4777 0e4f 01       		.uleb128 0x1
 4778 0e50 51       		.byte	0x51
ARM GAS  C:\Users\Administrator\AppData\Local\Temp\ccShlVUx.s 			page 107


 4779 0e51 02       		.uleb128 0x2
 4780 0e52 7D       		.byte	0x7d
 4781 0e53 05       		.sleb128 5
 4782 0e54 0F       		.uleb128 0xf
 4783 0e55 01       		.uleb128 0x1
 4784 0e56 50       		.byte	0x50
 4785 0e57 02       		.uleb128 0x2
 4786 0e58 75       		.byte	0x75
 4787 0e59 00       		.sleb128 0
 4788 0e5a 00       		.byte	0
 4789 0e5b 10       		.uleb128 0x10
 4790 0e5c 58000000 		.4byte	.LVL141
 4791 0e60 49190000 		.4byte	0x1949
 4792 0e64 0F       		.uleb128 0xf
 4793 0e65 01       		.uleb128 0x1
 4794 0e66 50       		.byte	0x50
 4795 0e67 02       		.uleb128 0x2
 4796 0e68 75       		.byte	0x75
 4797 0e69 00       		.sleb128 0
 4798 0e6a 00       		.byte	0
 4799 0e6b 00       		.byte	0
 4800 0e6c 16       		.uleb128 0x16
 4801 0e6d 9A050000 		.4byte	.LASF78
 4802 0e71 01       		.byte	0x1
 4803 0e72 9D02     		.2byte	0x29d
 4804 0e74 B9000000 		.4byte	0xb9
 4805 0e78 00000000 		.4byte	.LFB91
 4806 0e7c 94000000 		.4byte	.LFE91-.LFB91
 4807 0e80 01       		.uleb128 0x1
 4808 0e81 9C       		.byte	0x9c
 4809 0e82 0D0F0000 		.4byte	0xf0d
 4810 0e86 17       		.uleb128 0x17
 4811 0e87 2B040000 		.4byte	.LASF79
 4812 0e8b 01       		.byte	0x1
 4813 0e8c 9D02     		.2byte	0x29d
 4814 0e8e C5000000 		.4byte	0xc5
 4815 0e92 14070000 		.4byte	.LLST47
 4816 0e96 1B       		.uleb128 0x1b
 4817 0e97 6900     		.ascii	"i\000"
 4818 0e99 01       		.byte	0x1
 4819 0e9a 9F02     		.2byte	0x29f
 4820 0e9c B9000000 		.4byte	0xb9
 4821 0ea0 40070000 		.4byte	.LLST48
 4822 0ea4 1B       		.uleb128 0x1b
 4823 0ea5 71747900 		.ascii	"qty\000"
 4824 0ea9 01       		.byte	0x1
 4825 0eaa 9F02     		.2byte	0x29f
 4826 0eac B9000000 		.4byte	0xb9
 4827 0eb0 81070000 		.4byte	.LLST49
 4828 0eb4 1F       		.uleb128 0x1f
 4829 0eb5 27000000 		.4byte	.LASF80
 4830 0eb9 01       		.byte	0x1
 4831 0eba A002     		.2byte	0x2a0
 4832 0ebc C5000000 		.4byte	0xc5
 4833 0ec0 94070000 		.4byte	.LLST50
 4834 0ec4 18       		.uleb128 0x18
 4835 0ec5 4D000000 		.4byte	.LASF81
ARM GAS  C:\Users\Administrator\AppData\Local\Temp\ccShlVUx.s 			page 108


 4836 0ec9 01       		.byte	0x1
 4837 0eca A102     		.2byte	0x2a1
 4838 0ecc 81010000 		.4byte	0x181
 4839 0ed0 02       		.uleb128 0x2
 4840 0ed1 91       		.byte	0x91
 4841 0ed2 60       		.sleb128 -32
 4842 0ed3 19       		.uleb128 0x19
 4843 0ed4 08000000 		.4byte	.LVL144
 4844 0ed8 610C0000 		.4byte	0xc61
 4845 0edc 0E       		.uleb128 0xe
 4846 0edd 20000000 		.4byte	.LVL147
 4847 0ee1 AF0D0000 		.4byte	0xdaf
 4848 0ee5 F60E0000 		.4byte	0xef6
 4849 0ee9 0F       		.uleb128 0xf
 4850 0eea 01       		.uleb128 0x1
 4851 0eeb 51       		.byte	0x51
 4852 0eec 02       		.uleb128 0x2
 4853 0eed 7D       		.byte	0x7d
 4854 0eee 00       		.sleb128 0
 4855 0eef 0F       		.uleb128 0xf
 4856 0ef0 01       		.uleb128 0x1
 4857 0ef1 50       		.byte	0x50
 4858 0ef2 02       		.uleb128 0x2
 4859 0ef3 74       		.byte	0x74
 4860 0ef4 00       		.sleb128 0
 4861 0ef5 00       		.byte	0
 4862 0ef6 10       		.uleb128 0x10
 4863 0ef7 5E000000 		.4byte	.LVL153
 4864 0efb AF0D0000 		.4byte	0xdaf
 4865 0eff 0F       		.uleb128 0xf
 4866 0f00 01       		.uleb128 0x1
 4867 0f01 51       		.byte	0x51
 4868 0f02 02       		.uleb128 0x2
 4869 0f03 7D       		.byte	0x7d
 4870 0f04 00       		.sleb128 0
 4871 0f05 0F       		.uleb128 0xf
 4872 0f06 01       		.uleb128 0x1
 4873 0f07 50       		.byte	0x50
 4874 0f08 02       		.uleb128 0x2
 4875 0f09 74       		.byte	0x74
 4876 0f0a 00       		.sleb128 0
 4877 0f0b 00       		.byte	0
 4878 0f0c 00       		.byte	0
 4879 0f0d 16       		.uleb128 0x16
 4880 0f0e F8050000 		.4byte	.LASF82
 4881 0f12 01       		.byte	0x1
 4882 0f13 CD02     		.2byte	0x2cd
 4883 0f15 B9000000 		.4byte	0xb9
 4884 0f19 00000000 		.4byte	.LFB92
 4885 0f1d 94000000 		.4byte	.LFE92-.LFB92
 4886 0f21 01       		.uleb128 0x1
 4887 0f22 9C       		.byte	0x9c
 4888 0f23 AE0F0000 		.4byte	0xfae
 4889 0f27 17       		.uleb128 0x17
 4890 0f28 E4040000 		.4byte	.LASF83
 4891 0f2c 01       		.byte	0x1
 4892 0f2d CD02     		.2byte	0x2cd
ARM GAS  C:\Users\Administrator\AppData\Local\Temp\ccShlVUx.s 			page 109


 4893 0f2f C5000000 		.4byte	0xc5
 4894 0f33 FC070000 		.4byte	.LLST51
 4895 0f37 1B       		.uleb128 0x1b
 4896 0f38 6900     		.ascii	"i\000"
 4897 0f3a 01       		.byte	0x1
 4898 0f3b CF02     		.2byte	0x2cf
 4899 0f3d B9000000 		.4byte	0xb9
 4900 0f41 28080000 		.4byte	.LLST52
 4901 0f45 1B       		.uleb128 0x1b
 4902 0f46 71747900 		.ascii	"qty\000"
 4903 0f4a 01       		.byte	0x1
 4904 0f4b CF02     		.2byte	0x2cf
 4905 0f4d B9000000 		.4byte	0xb9
 4906 0f51 51080000 		.4byte	.LLST53
 4907 0f55 1F       		.uleb128 0x1f
 4908 0f56 27000000 		.4byte	.LASF80
 4909 0f5a 01       		.byte	0x1
 4910 0f5b D002     		.2byte	0x2d0
 4911 0f5d C5000000 		.4byte	0xc5
 4912 0f61 64080000 		.4byte	.LLST54
 4913 0f65 18       		.uleb128 0x18
 4914 0f66 4D000000 		.4byte	.LASF81
 4915 0f6a 01       		.byte	0x1
 4916 0f6b D102     		.2byte	0x2d1
 4917 0f6d 81010000 		.4byte	0x181
 4918 0f71 02       		.uleb128 0x2
 4919 0f72 91       		.byte	0x91
 4920 0f73 60       		.sleb128 -32
 4921 0f74 19       		.uleb128 0x19
 4922 0f75 08000000 		.4byte	.LVL160
 4923 0f79 610C0000 		.4byte	0xc61
 4924 0f7d 0E       		.uleb128 0xe
 4925 0f7e 22000000 		.4byte	.LVL163
 4926 0f82 AF0D0000 		.4byte	0xdaf
 4927 0f86 970F0000 		.4byte	0xf97
 4928 0f8a 0F       		.uleb128 0xf
 4929 0f8b 01       		.uleb128 0x1
 4930 0f8c 51       		.byte	0x51
 4931 0f8d 02       		.uleb128 0x2
 4932 0f8e 7D       		.byte	0x7d
 4933 0f8f 00       		.sleb128 0
 4934 0f90 0F       		.uleb128 0xf
 4935 0f91 01       		.uleb128 0x1
 4936 0f92 50       		.byte	0x50
 4937 0f93 02       		.uleb128 0x2
 4938 0f94 74       		.byte	0x74
 4939 0f95 00       		.sleb128 0
 4940 0f96 00       		.byte	0
 4941 0f97 10       		.uleb128 0x10
 4942 0f98 50000000 		.4byte	.LVL167
 4943 0f9c AF0D0000 		.4byte	0xdaf
 4944 0fa0 0F       		.uleb128 0xf
 4945 0fa1 01       		.uleb128 0x1
 4946 0fa2 51       		.byte	0x51
 4947 0fa3 02       		.uleb128 0x2
 4948 0fa4 7D       		.byte	0x7d
 4949 0fa5 00       		.sleb128 0
ARM GAS  C:\Users\Administrator\AppData\Local\Temp\ccShlVUx.s 			page 110


 4950 0fa6 0F       		.uleb128 0xf
 4951 0fa7 01       		.uleb128 0x1
 4952 0fa8 50       		.byte	0x50
 4953 0fa9 02       		.uleb128 0x2
 4954 0faa 74       		.byte	0x74
 4955 0fab 00       		.sleb128 0
 4956 0fac 00       		.byte	0
 4957 0fad 00       		.byte	0
 4958 0fae 16       		.uleb128 0x16
 4959 0faf 9A060000 		.4byte	.LASF84
 4960 0fb3 01       		.byte	0x1
 4961 0fb4 FD02     		.2byte	0x2fd
 4962 0fb6 B9000000 		.4byte	0xb9
 4963 0fba 00000000 		.4byte	.LFB93
 4964 0fbe 3C000000 		.4byte	.LFE93-.LFB93
 4965 0fc2 01       		.uleb128 0x1
 4966 0fc3 9C       		.byte	0x9c
 4967 0fc4 46100000 		.4byte	0x1046
 4968 0fc8 17       		.uleb128 0x17
 4969 0fc9 2B040000 		.4byte	.LASF79
 4970 0fcd 01       		.byte	0x1
 4971 0fce FD02     		.2byte	0x2fd
 4972 0fd0 C5000000 		.4byte	0xc5
 4973 0fd4 CC080000 		.4byte	.LLST55
 4974 0fd8 17       		.uleb128 0x17
 4975 0fd9 E4040000 		.4byte	.LASF83
 4976 0fdd 01       		.byte	0x1
 4977 0fde FD02     		.2byte	0x2fd
 4978 0fe0 C5000000 		.4byte	0xc5
 4979 0fe4 11090000 		.4byte	.LLST56
 4980 0fe8 1F       		.uleb128 0x1f
 4981 0fe9 7C000000 		.4byte	.LASF85
 4982 0fed 01       		.byte	0x1
 4983 0fee FF02     		.2byte	0x2ff
 4984 0ff0 B9000000 		.4byte	0xb9
 4985 0ff4 3D090000 		.4byte	.LLST57
 4986 0ff8 1F       		.uleb128 0x1f
 4987 0ff9 37050000 		.4byte	.LASF86
 4988 0ffd 01       		.byte	0x1
 4989 0ffe FF02     		.2byte	0x2ff
 4990 1000 B9000000 		.4byte	0xb9
 4991 1004 50090000 		.4byte	.LLST58
 4992 1008 1F       		.uleb128 0x1f
 4993 1009 9A030000 		.4byte	.LASF87
 4994 100d 01       		.byte	0x1
 4995 100e FF02     		.2byte	0x2ff
 4996 1010 B9000000 		.4byte	0xb9
 4997 1014 6E090000 		.4byte	.LLST59
 4998 1018 19       		.uleb128 0x19
 4999 1019 0A000000 		.4byte	.LVL174
 5000 101d 610C0000 		.4byte	0xc61
 5001 1021 0E       		.uleb128 0xe
 5002 1022 18000000 		.4byte	.LVL179
 5003 1026 6C0E0000 		.4byte	0xe6c
 5004 102a 35100000 		.4byte	0x1035
 5005 102e 0F       		.uleb128 0xf
 5006 102f 01       		.uleb128 0x1
ARM GAS  C:\Users\Administrator\AppData\Local\Temp\ccShlVUx.s 			page 111


 5007 1030 50       		.byte	0x50
 5008 1031 02       		.uleb128 0x2
 5009 1032 75       		.byte	0x75
 5010 1033 00       		.sleb128 0
 5011 1034 00       		.byte	0
 5012 1035 10       		.uleb128 0x10
 5013 1036 20000000 		.4byte	.LVL181
 5014 103a 0D0F0000 		.4byte	0xf0d
 5015 103e 0F       		.uleb128 0xf
 5016 103f 01       		.uleb128 0x1
 5017 1040 50       		.byte	0x50
 5018 1041 02       		.uleb128 0x2
 5019 1042 76       		.byte	0x76
 5020 1043 00       		.sleb128 0
 5021 1044 00       		.byte	0
 5022 1045 00       		.byte	0
 5023 1046 1D       		.uleb128 0x1d
 5024 1047 3F000000 		.4byte	.LASF88
 5025 104b 01       		.byte	0x1
 5026 104c 2103     		.2byte	0x321
 5027 104e 00000000 		.4byte	.LFB94
 5028 1052 26000000 		.4byte	.LFE94-.LFB94
 5029 1056 01       		.uleb128 0x1
 5030 1057 9C       		.byte	0x9c
 5031 1058 B4100000 		.4byte	0x10b4
 5032 105c 17       		.uleb128 0x17
 5033 105d 7C000000 		.4byte	.LASF85
 5034 1061 01       		.byte	0x1
 5035 1062 2103     		.2byte	0x321
 5036 1064 B9000000 		.4byte	0xb9
 5037 1068 8C090000 		.4byte	.LLST60
 5038 106c 20       		.uleb128 0x20
 5039 106d 71747900 		.ascii	"qty\000"
 5040 1071 01       		.byte	0x1
 5041 1072 2103     		.2byte	0x321
 5042 1074 B9000000 		.4byte	0xb9
 5043 1078 AD090000 		.4byte	.LLST61
 5044 107c 17       		.uleb128 0x17
 5045 107d 34030000 		.4byte	.LASF89
 5046 1081 01       		.byte	0x1
 5047 1082 2103     		.2byte	0x321
 5048 1084 FA000000 		.4byte	0xfa
 5049 1088 CE090000 		.4byte	.LLST62
 5050 108c 1B       		.uleb128 0x1b
 5051 108d 6900     		.ascii	"i\000"
 5052 108f 01       		.byte	0x1
 5053 1090 2303     		.2byte	0x323
 5054 1092 B9000000 		.4byte	0xb9
 5055 1096 FA090000 		.4byte	.LLST63
 5056 109a 1F       		.uleb128 0x1f
 5057 109b E6020000 		.4byte	.LASF90
 5058 109f 01       		.byte	0x1
 5059 10a0 2303     		.2byte	0x323
 5060 10a2 B9000000 		.4byte	0xb9
 5061 10a6 330A0000 		.4byte	.LLST64
 5062 10aa 19       		.uleb128 0x19
 5063 10ab 22000000 		.4byte	.LVL192
ARM GAS  C:\Users\Administrator\AppData\Local\Temp\ccShlVUx.s 			page 112


 5064 10af AF0D0000 		.4byte	0xdaf
 5065 10b3 00       		.byte	0
 5066 10b4 1A       		.uleb128 0x1a
 5067 10b5 96010000 		.4byte	.LASF91
 5068 10b9 01       		.byte	0x1
 5069 10ba 3503     		.2byte	0x335
 5070 10bc 00000000 		.4byte	.LFB95
 5071 10c0 F8010000 		.4byte	.LFE95-.LFB95
 5072 10c4 01       		.uleb128 0x1
 5073 10c5 9C       		.byte	0x9c
 5074 10c6 C2120000 		.4byte	0x12c2
 5075 10ca 17       		.uleb128 0x17
 5076 10cb 5E010000 		.4byte	.LASF28
 5077 10cf 01       		.byte	0x1
 5078 10d0 3503     		.2byte	0x335
 5079 10d2 FA000000 		.4byte	0xfa
 5080 10d6 6C0A0000 		.4byte	.LLST65
 5081 10da 17       		.uleb128 0x17
 5082 10db C6010000 		.4byte	.LASF92
 5083 10df 01       		.byte	0x1
 5084 10e0 3503     		.2byte	0x335
 5085 10e2 FA000000 		.4byte	0xfa
 5086 10e6 980A0000 		.4byte	.LLST66
 5087 10ea 1B       		.uleb128 0x1b
 5088 10eb 6900     		.ascii	"i\000"
 5089 10ed 01       		.byte	0x1
 5090 10ee 3703     		.2byte	0x337
 5091 10f0 97000000 		.4byte	0x97
 5092 10f4 B80A0000 		.4byte	.LLST67
 5093 10f8 1F       		.uleb128 0x1f
 5094 10f9 66030000 		.4byte	.LASF93
 5095 10fd 01       		.byte	0x1
 5096 10fe 3703     		.2byte	0x337
 5097 1100 97000000 		.4byte	0x97
 5098 1104 060B0000 		.4byte	.LLST68
 5099 1108 1F       		.uleb128 0x1f
 5100 1109 47060000 		.4byte	.LASF94
 5101 110d 01       		.byte	0x1
 5102 110e 3803     		.2byte	0x338
 5103 1110 81010000 		.4byte	0x181
 5104 1114 190B0000 		.4byte	.LLST69
 5105 1118 1F       		.uleb128 0x1f
 5106 1119 0B050000 		.4byte	.LASF95
 5107 111d 01       		.byte	0x1
 5108 111e 3903     		.2byte	0x339
 5109 1120 C5000000 		.4byte	0xc5
 5110 1124 170C0000 		.4byte	.LLST70
 5111 1128 1F       		.uleb128 0x1f
 5112 1129 AF030000 		.4byte	.LASF96
 5113 112d 01       		.byte	0x1
 5114 112e 3A03     		.2byte	0x33a
 5115 1130 C5000000 		.4byte	0xc5
 5116 1134 370C0000 		.4byte	.LLST71
 5117 1138 18       		.uleb128 0x18
 5118 1139 2A050000 		.4byte	.LASF97
 5119 113d 01       		.byte	0x1
 5120 113e 3B03     		.2byte	0x33b
ARM GAS  C:\Users\Administrator\AppData\Local\Temp\ccShlVUx.s 			page 113


 5121 1140 9F0D0000 		.4byte	0xd9f
 5122 1144 02       		.uleb128 0x2
 5123 1145 91       		.byte	0x91
 5124 1146 54       		.sleb128 -44
 5125 1147 1F       		.uleb128 0x1f
 5126 1148 20060000 		.4byte	.LASF77
 5127 114c 01       		.byte	0x1
 5128 114d 3C03     		.2byte	0x33c
 5129 114f C5000000 		.4byte	0xc5
 5130 1153 F10C0000 		.4byte	.LLST72
 5131 1157 0E       		.uleb128 0xe
 5132 1158 12000000 		.4byte	.LVL198
 5133 115c AD180000 		.4byte	0x18ad
 5134 1160 75110000 		.4byte	0x1175
 5135 1164 0F       		.uleb128 0xf
 5136 1165 01       		.uleb128 0x1
 5137 1166 52       		.byte	0x52
 5138 1167 01       		.uleb128 0x1
 5139 1168 41       		.byte	0x41
 5140 1169 0F       		.uleb128 0xf
 5141 116a 01       		.uleb128 0x1
 5142 116b 51       		.byte	0x51
 5143 116c 01       		.uleb128 0x1
 5144 116d 30       		.byte	0x30
 5145 116e 0F       		.uleb128 0xf
 5146 116f 01       		.uleb128 0x1
 5147 1170 50       		.byte	0x50
 5148 1171 02       		.uleb128 0x2
 5149 1172 91       		.byte	0x91
 5150 1173 54       		.sleb128 -44
 5151 1174 00       		.byte	0
 5152 1175 19       		.uleb128 0x19
 5153 1176 2C000000 		.4byte	.LVL200
 5154 117a 610C0000 		.4byte	0xc61
 5155 117e 19       		.uleb128 0x19
 5156 117f 74000000 		.4byte	.LVL211
 5157 1183 EB180000 		.4byte	0x18eb
 5158 1187 0E       		.uleb128 0xe
 5159 1188 86000000 		.4byte	.LVL212
 5160 118c 2C190000 		.4byte	0x192c
 5161 1190 A6110000 		.4byte	0x11a6
 5162 1194 0F       		.uleb128 0xf
 5163 1195 01       		.uleb128 0x1
 5164 1196 52       		.byte	0x52
 5165 1197 01       		.uleb128 0x1
 5166 1198 40       		.byte	0x40
 5167 1199 0F       		.uleb128 0xf
 5168 119a 01       		.uleb128 0x1
 5169 119b 51       		.byte	0x51
 5170 119c 02       		.uleb128 0x2
 5171 119d 91       		.byte	0x91
 5172 119e 55       		.sleb128 -43
 5173 119f 0F       		.uleb128 0xf
 5174 11a0 01       		.uleb128 0x1
 5175 11a1 50       		.byte	0x50
 5176 11a2 02       		.uleb128 0x2
 5177 11a3 76       		.byte	0x76
ARM GAS  C:\Users\Administrator\AppData\Local\Temp\ccShlVUx.s 			page 114


 5178 11a4 00       		.sleb128 0
 5179 11a5 00       		.byte	0
 5180 11a6 0E       		.uleb128 0xe
 5181 11a7 BA000000 		.4byte	.LVL218
 5182 11ab 2C190000 		.4byte	0x192c
 5183 11af C7110000 		.4byte	0x11c7
 5184 11b3 0F       		.uleb128 0xf
 5185 11b4 01       		.uleb128 0x1
 5186 11b5 52       		.byte	0x52
 5187 11b6 01       		.uleb128 0x1
 5188 11b7 34       		.byte	0x34
 5189 11b8 0F       		.uleb128 0xf
 5190 11b9 01       		.uleb128 0x1
 5191 11ba 51       		.byte	0x51
 5192 11bb 04       		.uleb128 0x4
 5193 11bc 91       		.byte	0x91
 5194 11bd BC7F     		.sleb128 -68
 5195 11bf 06       		.byte	0x6
 5196 11c0 0F       		.uleb128 0xf
 5197 11c1 01       		.uleb128 0x1
 5198 11c2 50       		.byte	0x50
 5199 11c3 02       		.uleb128 0x2
 5200 11c4 91       		.byte	0x91
 5201 11c5 50       		.sleb128 -48
 5202 11c6 00       		.byte	0
 5203 11c7 0E       		.uleb128 0xe
 5204 11c8 E6000000 		.4byte	.LVL219
 5205 11cc 2C190000 		.4byte	0x192c
 5206 11d0 E6110000 		.4byte	0x11e6
 5207 11d4 0F       		.uleb128 0xf
 5208 11d5 01       		.uleb128 0x1
 5209 11d6 52       		.byte	0x52
 5210 11d7 01       		.uleb128 0x1
 5211 11d8 40       		.byte	0x40
 5212 11d9 0F       		.uleb128 0xf
 5213 11da 01       		.uleb128 0x1
 5214 11db 51       		.byte	0x51
 5215 11dc 02       		.uleb128 0x2
 5216 11dd 76       		.byte	0x76
 5217 11de 00       		.sleb128 0
 5218 11df 0F       		.uleb128 0xf
 5219 11e0 01       		.uleb128 0x1
 5220 11e1 50       		.byte	0x50
 5221 11e2 02       		.uleb128 0x2
 5222 11e3 91       		.byte	0x91
 5223 11e4 55       		.sleb128 -43
 5224 11e5 00       		.byte	0
 5225 11e6 0E       		.uleb128 0xe
 5226 11e7 F4000000 		.4byte	.LVL220
 5227 11eb CA180000 		.4byte	0x18ca
 5228 11ef 07120000 		.4byte	0x1207
 5229 11f3 0F       		.uleb128 0xf
 5230 11f4 01       		.uleb128 0x1
 5231 11f5 52       		.byte	0x52
 5232 11f6 01       		.uleb128 0x1
 5233 11f7 41       		.byte	0x41
 5234 11f8 0F       		.uleb128 0xf
ARM GAS  C:\Users\Administrator\AppData\Local\Temp\ccShlVUx.s 			page 115


 5235 11f9 01       		.uleb128 0x1
 5236 11fa 51       		.byte	0x51
 5237 11fb 04       		.uleb128 0x4
 5238 11fc 75       		.byte	0x75
 5239 11fd 80DC00   		.sleb128 11776
 5240 1200 0F       		.uleb128 0xf
 5241 1201 01       		.uleb128 0x1
 5242 1202 50       		.byte	0x50
 5243 1203 02       		.uleb128 0x2
 5244 1204 74       		.byte	0x74
 5245 1205 00       		.sleb128 0
 5246 1206 00       		.byte	0
 5247 1207 0E       		.uleb128 0xe
 5248 1208 FC000000 		.4byte	.LVL221
 5249 120c 460A0000 		.4byte	0xa46
 5250 1210 20120000 		.4byte	0x1220
 5251 1214 0F       		.uleb128 0xf
 5252 1215 01       		.uleb128 0x1
 5253 1216 51       		.byte	0x51
 5254 1217 01       		.uleb128 0x1
 5255 1218 31       		.byte	0x31
 5256 1219 0F       		.uleb128 0xf
 5257 121a 01       		.uleb128 0x1
 5258 121b 50       		.byte	0x50
 5259 121c 02       		.uleb128 0x2
 5260 121d 77       		.byte	0x77
 5261 121e 00       		.sleb128 0
 5262 121f 00       		.byte	0
 5263 1220 19       		.uleb128 0x19
 5264 1221 3A010000 		.4byte	.LVL232
 5265 1225 EB180000 		.4byte	0x18eb
 5266 1229 0E       		.uleb128 0xe
 5267 122a 4C010000 		.4byte	.LVL233
 5268 122e 2C190000 		.4byte	0x192c
 5269 1232 48120000 		.4byte	0x1248
 5270 1236 0F       		.uleb128 0xf
 5271 1237 01       		.uleb128 0x1
 5272 1238 52       		.byte	0x52
 5273 1239 01       		.uleb128 0x1
 5274 123a 40       		.byte	0x40
 5275 123b 0F       		.uleb128 0xf
 5276 123c 01       		.uleb128 0x1
 5277 123d 51       		.byte	0x51
 5278 123e 02       		.uleb128 0x2
 5279 123f 91       		.byte	0x91
 5280 1240 55       		.sleb128 -43
 5281 1241 0F       		.uleb128 0xf
 5282 1242 01       		.uleb128 0x1
 5283 1243 50       		.byte	0x50
 5284 1244 02       		.uleb128 0x2
 5285 1245 76       		.byte	0x76
 5286 1246 00       		.sleb128 0
 5287 1247 00       		.byte	0
 5288 1248 0E       		.uleb128 0xe
 5289 1249 80010000 		.4byte	.LVL239
 5290 124d 2C190000 		.4byte	0x192c
 5291 1251 69120000 		.4byte	0x1269
ARM GAS  C:\Users\Administrator\AppData\Local\Temp\ccShlVUx.s 			page 116


 5292 1255 0F       		.uleb128 0xf
 5293 1256 01       		.uleb128 0x1
 5294 1257 52       		.byte	0x52
 5295 1258 01       		.uleb128 0x1
 5296 1259 34       		.byte	0x34
 5297 125a 0F       		.uleb128 0xf
 5298 125b 01       		.uleb128 0x1
 5299 125c 51       		.byte	0x51
 5300 125d 04       		.uleb128 0x4
 5301 125e 91       		.byte	0x91
 5302 125f BC7F     		.sleb128 -68
 5303 1261 06       		.byte	0x6
 5304 1262 0F       		.uleb128 0xf
 5305 1263 01       		.uleb128 0x1
 5306 1264 50       		.byte	0x50
 5307 1265 02       		.uleb128 0x2
 5308 1266 91       		.byte	0x91
 5309 1267 50       		.sleb128 -48
 5310 1268 00       		.byte	0
 5311 1269 0E       		.uleb128 0xe
 5312 126a AC010000 		.4byte	.LVL240
 5313 126e 2C190000 		.4byte	0x192c
 5314 1272 88120000 		.4byte	0x1288
 5315 1276 0F       		.uleb128 0xf
 5316 1277 01       		.uleb128 0x1
 5317 1278 52       		.byte	0x52
 5318 1279 01       		.uleb128 0x1
 5319 127a 40       		.byte	0x40
 5320 127b 0F       		.uleb128 0xf
 5321 127c 01       		.uleb128 0x1
 5322 127d 51       		.byte	0x51
 5323 127e 02       		.uleb128 0x2
 5324 127f 76       		.byte	0x76
 5325 1280 00       		.sleb128 0
 5326 1281 0F       		.uleb128 0xf
 5327 1282 01       		.uleb128 0x1
 5328 1283 50       		.byte	0x50
 5329 1284 02       		.uleb128 0x2
 5330 1285 91       		.byte	0x91
 5331 1286 55       		.sleb128 -43
 5332 1287 00       		.byte	0
 5333 1288 0E       		.uleb128 0xe
 5334 1289 BA010000 		.4byte	.LVL241
 5335 128d CA180000 		.4byte	0x18ca
 5336 1291 A9120000 		.4byte	0x12a9
 5337 1295 0F       		.uleb128 0xf
 5338 1296 01       		.uleb128 0x1
 5339 1297 52       		.byte	0x52
 5340 1298 01       		.uleb128 0x1
 5341 1299 41       		.byte	0x41
 5342 129a 0F       		.uleb128 0xf
 5343 129b 01       		.uleb128 0x1
 5344 129c 51       		.byte	0x51
 5345 129d 04       		.uleb128 0x4
 5346 129e 75       		.byte	0x75
 5347 129f 80DC00   		.sleb128 11776
 5348 12a2 0F       		.uleb128 0xf
ARM GAS  C:\Users\Administrator\AppData\Local\Temp\ccShlVUx.s 			page 117


 5349 12a3 01       		.uleb128 0x1
 5350 12a4 50       		.byte	0x50
 5351 12a5 02       		.uleb128 0x2
 5352 12a6 74       		.byte	0x74
 5353 12a7 00       		.sleb128 0
 5354 12a8 00       		.byte	0
 5355 12a9 10       		.uleb128 0x10
 5356 12aa C2010000 		.4byte	.LVL242
 5357 12ae 460A0000 		.4byte	0xa46
 5358 12b2 0F       		.uleb128 0xf
 5359 12b3 01       		.uleb128 0x1
 5360 12b4 51       		.byte	0x51
 5361 12b5 01       		.uleb128 0x1
 5362 12b6 31       		.byte	0x31
 5363 12b7 0F       		.uleb128 0xf
 5364 12b8 01       		.uleb128 0x1
 5365 12b9 50       		.byte	0x50
 5366 12ba 05       		.uleb128 0x5
 5367 12bb 91       		.byte	0x91
 5368 12bc A87F     		.sleb128 -88
 5369 12be 94       		.byte	0x94
 5370 12bf 02       		.byte	0x2
 5371 12c0 00       		.byte	0
 5372 12c1 00       		.byte	0
 5373 12c2 1D       		.uleb128 0x1d
 5374 12c3 CA060000 		.4byte	.LASF98
 5375 12c7 01       		.byte	0x1
 5376 12c8 C403     		.2byte	0x3c4
 5377 12ca 00000000 		.4byte	.LFB96
 5378 12ce 18000000 		.4byte	.LFE96-.LFB96
 5379 12d2 01       		.uleb128 0x1
 5380 12d3 9C       		.byte	0x9c
 5381 12d4 07130000 		.4byte	0x1307
 5382 12d8 17       		.uleb128 0x17
 5383 12d9 2C000000 		.4byte	.LASF99
 5384 12dd 01       		.byte	0x1
 5385 12de C403     		.2byte	0x3c4
 5386 12e0 AD000000 		.4byte	0xad
 5387 12e4 560D0000 		.4byte	.LLST73
 5388 12e8 10       		.uleb128 0x10
 5389 12e9 12000000 		.4byte	.LVL250
 5390 12ed CA180000 		.4byte	0x18ca
 5391 12f1 0F       		.uleb128 0xf
 5392 12f2 01       		.uleb128 0x1
 5393 12f3 52       		.byte	0x52
 5394 12f4 01       		.uleb128 0x1
 5395 12f5 31       		.byte	0x31
 5396 12f6 0F       		.uleb128 0xf
 5397 12f7 01       		.uleb128 0x1
 5398 12f8 51       		.byte	0x51
 5399 12f9 05       		.uleb128 0x5
 5400 12fa 0C       		.byte	0xc
 5401 12fb 00910100 		.4byte	0x19100
 5402 12ff 0F       		.uleb128 0xf
 5403 1300 01       		.uleb128 0x1
 5404 1301 50       		.byte	0x50
 5405 1302 02       		.uleb128 0x2
ARM GAS  C:\Users\Administrator\AppData\Local\Temp\ccShlVUx.s 			page 118


 5406 1303 7D       		.byte	0x7d
 5407 1304 07       		.sleb128 7
 5408 1305 00       		.byte	0
 5409 1306 00       		.byte	0
 5410 1307 16       		.uleb128 0x16
 5411 1308 1D030000 		.4byte	.LASF100
 5412 130c 01       		.byte	0x1
 5413 130d D103     		.2byte	0x3d1
 5414 130f AD000000 		.4byte	0xad
 5415 1313 00000000 		.4byte	.LFB97
 5416 1317 18000000 		.4byte	.LFE97-.LFB97
 5417 131b 01       		.uleb128 0x1
 5418 131c 9C       		.byte	0x9c
 5419 131d 4F130000 		.4byte	0x134f
 5420 1321 18       		.uleb128 0x18
 5421 1322 2C000000 		.4byte	.LASF99
 5422 1326 01       		.byte	0x1
 5423 1327 D303     		.2byte	0x3d3
 5424 1329 AD000000 		.4byte	0xad
 5425 132d 02       		.uleb128 0x2
 5426 132e 91       		.byte	0x91
 5427 132f 77       		.sleb128 -9
 5428 1330 10       		.uleb128 0x10
 5429 1331 10000000 		.4byte	.LVL251
 5430 1335 EB180000 		.4byte	0x18eb
 5431 1339 0F       		.uleb128 0xf
 5432 133a 01       		.uleb128 0x1
 5433 133b 52       		.byte	0x52
 5434 133c 01       		.uleb128 0x1
 5435 133d 31       		.byte	0x31
 5436 133e 0F       		.uleb128 0xf
 5437 133f 01       		.uleb128 0x1
 5438 1340 51       		.byte	0x51
 5439 1341 05       		.uleb128 0x5
 5440 1342 0C       		.byte	0xc
 5441 1343 00910100 		.4byte	0x19100
 5442 1347 0F       		.uleb128 0xf
 5443 1348 01       		.uleb128 0x1
 5444 1349 50       		.byte	0x50
 5445 134a 02       		.uleb128 0x2
 5446 134b 74       		.byte	0x74
 5447 134c 00       		.sleb128 0
 5448 134d 00       		.byte	0
 5449 134e 00       		.byte	0
 5450 134f 1D       		.uleb128 0x1d
 5451 1350 53030000 		.4byte	.LASF101
 5452 1354 01       		.byte	0x1
 5453 1355 E103     		.2byte	0x3e1
 5454 1357 00000000 		.4byte	.LFB98
 5455 135b 18000000 		.4byte	.LFE98-.LFB98
 5456 135f 01       		.uleb128 0x1
 5457 1360 9C       		.byte	0x9c
 5458 1361 94130000 		.4byte	0x1394
 5459 1365 17       		.uleb128 0x17
 5460 1366 2C000000 		.4byte	.LASF99
 5461 136a 01       		.byte	0x1
 5462 136b E103     		.2byte	0x3e1
ARM GAS  C:\Users\Administrator\AppData\Local\Temp\ccShlVUx.s 			page 119


 5463 136d AD000000 		.4byte	0xad
 5464 1371 810D0000 		.4byte	.LLST74
 5465 1375 10       		.uleb128 0x10
 5466 1376 12000000 		.4byte	.LVL254
 5467 137a CA180000 		.4byte	0x18ca
 5468 137e 0F       		.uleb128 0xf
 5469 137f 01       		.uleb128 0x1
 5470 1380 52       		.byte	0x52
 5471 1381 01       		.uleb128 0x1
 5472 1382 31       		.byte	0x31
 5473 1383 0F       		.uleb128 0xf
 5474 1384 01       		.uleb128 0x1
 5475 1385 51       		.byte	0x51
 5476 1386 05       		.uleb128 0x5
 5477 1387 0C       		.byte	0xc
 5478 1388 01910100 		.4byte	0x19101
 5479 138c 0F       		.uleb128 0xf
 5480 138d 01       		.uleb128 0x1
 5481 138e 50       		.byte	0x50
 5482 138f 02       		.uleb128 0x2
 5483 1390 7D       		.byte	0x7d
 5484 1391 07       		.sleb128 7
 5485 1392 00       		.byte	0
 5486 1393 00       		.byte	0
 5487 1394 16       		.uleb128 0x16
 5488 1395 78030000 		.4byte	.LASF102
 5489 1399 01       		.byte	0x1
 5490 139a EE03     		.2byte	0x3ee
 5491 139c AD000000 		.4byte	0xad
 5492 13a0 00000000 		.4byte	.LFB99
 5493 13a4 18000000 		.4byte	.LFE99-.LFB99
 5494 13a8 01       		.uleb128 0x1
 5495 13a9 9C       		.byte	0x9c
 5496 13aa DC130000 		.4byte	0x13dc
 5497 13ae 18       		.uleb128 0x18
 5498 13af 2C000000 		.4byte	.LASF99
 5499 13b3 01       		.byte	0x1
 5500 13b4 F003     		.2byte	0x3f0
 5501 13b6 AD000000 		.4byte	0xad
 5502 13ba 02       		.uleb128 0x2
 5503 13bb 91       		.byte	0x91
 5504 13bc 77       		.sleb128 -9
 5505 13bd 10       		.uleb128 0x10
 5506 13be 10000000 		.4byte	.LVL255
 5507 13c2 EB180000 		.4byte	0x18eb
 5508 13c6 0F       		.uleb128 0xf
 5509 13c7 01       		.uleb128 0x1
 5510 13c8 52       		.byte	0x52
 5511 13c9 01       		.uleb128 0x1
 5512 13ca 31       		.byte	0x31
 5513 13cb 0F       		.uleb128 0xf
 5514 13cc 01       		.uleb128 0x1
 5515 13cd 51       		.byte	0x51
 5516 13ce 05       		.uleb128 0x5
 5517 13cf 0C       		.byte	0xc
 5518 13d0 01910100 		.4byte	0x19101
 5519 13d4 0F       		.uleb128 0xf
ARM GAS  C:\Users\Administrator\AppData\Local\Temp\ccShlVUx.s 			page 120


 5520 13d5 01       		.uleb128 0x1
 5521 13d6 50       		.byte	0x50
 5522 13d7 02       		.uleb128 0x2
 5523 13d8 74       		.byte	0x74
 5524 13d9 00       		.sleb128 0
 5525 13da 00       		.byte	0
 5526 13db 00       		.byte	0
 5527 13dc 1D       		.uleb128 0x1d
 5528 13dd 19050000 		.4byte	.LASF103
 5529 13e1 01       		.byte	0x1
 5530 13e2 FE03     		.2byte	0x3fe
 5531 13e4 00000000 		.4byte	.LFB100
 5532 13e8 1C000000 		.4byte	.LFE100-.LFB100
 5533 13ec 01       		.uleb128 0x1
 5534 13ed 9C       		.byte	0x9c
 5535 13ee 40140000 		.4byte	0x1440
 5536 13f2 17       		.uleb128 0x17
 5537 13f3 06050000 		.4byte	.LASF31
 5538 13f7 01       		.byte	0x1
 5539 13f8 FE03     		.2byte	0x3fe
 5540 13fa AD000000 		.4byte	0xad
 5541 13fe AC0D0000 		.4byte	.LLST75
 5542 1402 20       		.uleb128 0x20
 5543 1403 76657200 		.ascii	"ver\000"
 5544 1407 01       		.byte	0x1
 5545 1408 FE03     		.2byte	0x3fe
 5546 140a B9000000 		.4byte	0xb9
 5547 140e D90D0000 		.4byte	.LLST76
 5548 1412 1E       		.uleb128 0x1e
 5549 1413 746D7000 		.ascii	"tmp\000"
 5550 1417 01       		.byte	0x1
 5551 1418 0004     		.2byte	0x400
 5552 141a 40140000 		.4byte	0x1440
 5553 141e 02       		.uleb128 0x2
 5554 141f 91       		.byte	0x91
 5555 1420 74       		.sleb128 -12
 5556 1421 10       		.uleb128 0x10
 5557 1422 16000000 		.4byte	.LVL259
 5558 1426 CA180000 		.4byte	0x18ca
 5559 142a 0F       		.uleb128 0xf
 5560 142b 01       		.uleb128 0x1
 5561 142c 52       		.byte	0x52
 5562 142d 01       		.uleb128 0x1
 5563 142e 33       		.byte	0x33
 5564 142f 0F       		.uleb128 0xf
 5565 1430 01       		.uleb128 0x1
 5566 1431 51       		.byte	0x51
 5567 1432 05       		.uleb128 0x5
 5568 1433 0C       		.byte	0xc
 5569 1434 03910100 		.4byte	0x19103
 5570 1438 0F       		.uleb128 0xf
 5571 1439 01       		.uleb128 0x1
 5572 143a 50       		.byte	0x50
 5573 143b 02       		.uleb128 0x2
 5574 143c 91       		.byte	0x91
 5575 143d 74       		.sleb128 -12
 5576 143e 00       		.byte	0
ARM GAS  C:\Users\Administrator\AppData\Local\Temp\ccShlVUx.s 			page 121


 5577 143f 00       		.byte	0
 5578 1440 0A       		.uleb128 0xa
 5579 1441 AD000000 		.4byte	0xad
 5580 1445 50140000 		.4byte	0x1450
 5581 1449 0B       		.uleb128 0xb
 5582 144a F1000000 		.4byte	0xf1
 5583 144e 02       		.byte	0x2
 5584 144f 00       		.byte	0
 5585 1450 16       		.uleb128 0x16
 5586 1451 8A050000 		.4byte	.LASF104
 5587 1455 01       		.byte	0x1
 5588 1456 1304     		.2byte	0x413
 5589 1458 AD000000 		.4byte	0xad
 5590 145c 00000000 		.4byte	.LFB101
 5591 1460 18000000 		.4byte	.LFE101-.LFB101
 5592 1464 01       		.uleb128 0x1
 5593 1465 9C       		.byte	0x9c
 5594 1466 98140000 		.4byte	0x1498
 5595 146a 18       		.uleb128 0x18
 5596 146b 06050000 		.4byte	.LASF31
 5597 146f 01       		.byte	0x1
 5598 1470 1504     		.2byte	0x415
 5599 1472 AD000000 		.4byte	0xad
 5600 1476 02       		.uleb128 0x2
 5601 1477 91       		.byte	0x91
 5602 1478 77       		.sleb128 -9
 5603 1479 10       		.uleb128 0x10
 5604 147a 10000000 		.4byte	.LVL260
 5605 147e EB180000 		.4byte	0x18eb
 5606 1482 0F       		.uleb128 0xf
 5607 1483 01       		.uleb128 0x1
 5608 1484 52       		.byte	0x52
 5609 1485 01       		.uleb128 0x1
 5610 1486 31       		.byte	0x31
 5611 1487 0F       		.uleb128 0xf
 5612 1488 01       		.uleb128 0x1
 5613 1489 51       		.byte	0x51
 5614 148a 05       		.uleb128 0x5
 5615 148b 0C       		.byte	0xc
 5616 148c 05910100 		.4byte	0x19105
 5617 1490 0F       		.uleb128 0xf
 5618 1491 01       		.uleb128 0x1
 5619 1492 50       		.byte	0x50
 5620 1493 02       		.uleb128 0x2
 5621 1494 74       		.byte	0x74
 5622 1495 00       		.sleb128 0
 5623 1496 00       		.byte	0
 5624 1497 00       		.byte	0
 5625 1498 16       		.uleb128 0x16
 5626 1499 FC010000 		.4byte	.LASF105
 5627 149d 01       		.byte	0x1
 5628 149e 2204     		.2byte	0x422
 5629 14a0 AD000000 		.4byte	0xad
 5630 14a4 00000000 		.4byte	.LFB102
 5631 14a8 18000000 		.4byte	.LFE102-.LFB102
 5632 14ac 01       		.uleb128 0x1
 5633 14ad 9C       		.byte	0x9c
ARM GAS  C:\Users\Administrator\AppData\Local\Temp\ccShlVUx.s 			page 122


 5634 14ae E0140000 		.4byte	0x14e0
 5635 14b2 1E       		.uleb128 0x1e
 5636 14b3 76657200 		.ascii	"ver\000"
 5637 14b7 01       		.byte	0x1
 5638 14b8 2404     		.2byte	0x424
 5639 14ba AD000000 		.4byte	0xad
 5640 14be 02       		.uleb128 0x2
 5641 14bf 91       		.byte	0x91
 5642 14c0 77       		.sleb128 -9
 5643 14c1 10       		.uleb128 0x10
 5644 14c2 10000000 		.4byte	.LVL261
 5645 14c6 EB180000 		.4byte	0x18eb
 5646 14ca 0F       		.uleb128 0xf
 5647 14cb 01       		.uleb128 0x1
 5648 14cc 52       		.byte	0x52
 5649 14cd 01       		.uleb128 0x1
 5650 14ce 31       		.byte	0x31
 5651 14cf 0F       		.uleb128 0xf
 5652 14d0 01       		.uleb128 0x1
 5653 14d1 51       		.byte	0x51
 5654 14d2 05       		.uleb128 0x5
 5655 14d3 0C       		.byte	0xc
 5656 14d4 03910100 		.4byte	0x19103
 5657 14d8 0F       		.uleb128 0xf
 5658 14d9 01       		.uleb128 0x1
 5659 14da 50       		.byte	0x50
 5660 14db 02       		.uleb128 0x2
 5661 14dc 74       		.byte	0x74
 5662 14dd 00       		.sleb128 0
 5663 14de 00       		.byte	0
 5664 14df 00       		.byte	0
 5665 14e0 1D       		.uleb128 0x1d
 5666 14e1 C0040000 		.4byte	.LASF106
 5667 14e5 01       		.byte	0x1
 5668 14e6 3404     		.2byte	0x434
 5669 14e8 00000000 		.4byte	.LFB103
 5670 14ec 98000000 		.4byte	.LFE103-.LFB103
 5671 14f0 01       		.uleb128 0x1
 5672 14f1 9C       		.byte	0x9c
 5673 14f2 8B160000 		.4byte	0x168b
 5674 14f6 18       		.uleb128 0x18
 5675 14f7 57060000 		.4byte	.LASF107
 5676 14fb 01       		.byte	0x1
 5677 14fc 3604     		.2byte	0x436
 5678 14fe 8B160000 		.4byte	0x168b
 5679 1502 03       		.uleb128 0x3
 5680 1503 91       		.byte	0x91
 5681 1504 E056     		.sleb128 -5280
 5682 1506 18       		.uleb128 0x18
 5683 1507 09060000 		.4byte	.LASF108
 5684 150b 01       		.byte	0x1
 5685 150c 3704     		.2byte	0x437
 5686 150e 9B160000 		.4byte	0x169b
 5687 1512 03       		.uleb128 0x3
 5688 1513 91       		.byte	0x91
 5689 1514 E055     		.sleb128 -5408
 5690 1516 18       		.uleb128 0x18
ARM GAS  C:\Users\Administrator\AppData\Local\Temp\ccShlVUx.s 			page 123


 5691 1517 32000000 		.4byte	.LASF109
 5692 151b 01       		.byte	0x1
 5693 151c 3804     		.2byte	0x438
 5694 151e 9B160000 		.4byte	0x169b
 5695 1522 03       		.uleb128 0x3
 5696 1523 91       		.byte	0x91
 5697 1524 A056     		.sleb128 -5344
 5698 1526 18       		.uleb128 0x18
 5699 1527 34030000 		.4byte	.LASF89
 5700 152b 01       		.byte	0x1
 5701 152c 3904     		.2byte	0x439
 5702 152e 97000000 		.4byte	0x97
 5703 1532 03       		.uleb128 0x3
 5704 1533 91       		.byte	0x91
 5705 1534 DE55     		.sleb128 -5410
 5706 1536 18       		.uleb128 0x18
 5707 1537 06050000 		.4byte	.LASF31
 5708 153b 01       		.byte	0x1
 5709 153c 3A04     		.2byte	0x43a
 5710 153e AB160000 		.4byte	0x16ab
 5711 1542 03       		.uleb128 0x3
 5712 1543 91       		.byte	0x91
 5713 1544 E058     		.sleb128 -5024
 5714 1546 0E       		.uleb128 0xe
 5715 1547 16000000 		.4byte	.LVL262
 5716 154b AD180000 		.4byte	0x18ad
 5717 154f 66150000 		.4byte	0x1566
 5718 1553 0F       		.uleb128 0xf
 5719 1554 01       		.uleb128 0x1
 5720 1555 52       		.byte	0x52
 5721 1556 02       		.uleb128 0x2
 5722 1557 76       		.byte	0x76
 5723 1558 00       		.sleb128 0
 5724 1559 0F       		.uleb128 0xf
 5725 155a 01       		.uleb128 0x1
 5726 155b 51       		.byte	0x51
 5727 155c 01       		.uleb128 0x1
 5728 155d 30       		.byte	0x30
 5729 155e 0F       		.uleb128 0xf
 5730 155f 01       		.uleb128 0x1
 5731 1560 50       		.byte	0x50
 5732 1561 03       		.uleb128 0x3
 5733 1562 91       		.byte	0x91
 5734 1563 E056     		.sleb128 -5280
 5735 1565 00       		.byte	0
 5736 1566 0E       		.uleb128 0xe
 5737 1567 20000000 		.4byte	.LVL263
 5738 156b AD180000 		.4byte	0x18ad
 5739 156f 86150000 		.4byte	0x1586
 5740 1573 0F       		.uleb128 0xf
 5741 1574 01       		.uleb128 0x1
 5742 1575 52       		.byte	0x52
 5743 1576 02       		.uleb128 0x2
 5744 1577 74       		.byte	0x74
 5745 1578 00       		.sleb128 0
 5746 1579 0F       		.uleb128 0xf
 5747 157a 01       		.uleb128 0x1
ARM GAS  C:\Users\Administrator\AppData\Local\Temp\ccShlVUx.s 			page 124


 5748 157b 51       		.byte	0x51
 5749 157c 01       		.uleb128 0x1
 5750 157d 30       		.byte	0x30
 5751 157e 0F       		.uleb128 0xf
 5752 157f 01       		.uleb128 0x1
 5753 1580 50       		.byte	0x50
 5754 1581 03       		.uleb128 0x3
 5755 1582 91       		.byte	0x91
 5756 1583 E055     		.sleb128 -5408
 5757 1585 00       		.byte	0
 5758 1586 0E       		.uleb128 0xe
 5759 1587 2A000000 		.4byte	.LVL264
 5760 158b AD180000 		.4byte	0x18ad
 5761 158f A6150000 		.4byte	0x15a6
 5762 1593 0F       		.uleb128 0xf
 5763 1594 01       		.uleb128 0x1
 5764 1595 52       		.byte	0x52
 5765 1596 02       		.uleb128 0x2
 5766 1597 74       		.byte	0x74
 5767 1598 00       		.sleb128 0
 5768 1599 0F       		.uleb128 0xf
 5769 159a 01       		.uleb128 0x1
 5770 159b 51       		.byte	0x51
 5771 159c 01       		.uleb128 0x1
 5772 159d 30       		.byte	0x30
 5773 159e 0F       		.uleb128 0xf
 5774 159f 01       		.uleb128 0x1
 5775 15a0 50       		.byte	0x50
 5776 15a1 03       		.uleb128 0x3
 5777 15a2 91       		.byte	0x91
 5778 15a3 A056     		.sleb128 -5344
 5779 15a5 00       		.byte	0
 5780 15a6 0E       		.uleb128 0xe
 5781 15a7 3C000000 		.4byte	.LVL265
 5782 15ab AD180000 		.4byte	0x18ad
 5783 15af C6150000 		.4byte	0x15c6
 5784 15b3 0F       		.uleb128 0xf
 5785 15b4 01       		.uleb128 0x1
 5786 15b5 52       		.byte	0x52
 5787 15b6 02       		.uleb128 0x2
 5788 15b7 75       		.byte	0x75
 5789 15b8 00       		.sleb128 0
 5790 15b9 0F       		.uleb128 0xf
 5791 15ba 01       		.uleb128 0x1
 5792 15bb 51       		.byte	0x51
 5793 15bc 01       		.uleb128 0x1
 5794 15bd 30       		.byte	0x30
 5795 15be 0F       		.uleb128 0xf
 5796 15bf 01       		.uleb128 0x1
 5797 15c0 50       		.byte	0x50
 5798 15c1 03       		.uleb128 0x3
 5799 15c2 91       		.byte	0x91
 5800 15c3 E058     		.sleb128 -5024
 5801 15c5 00       		.byte	0
 5802 15c6 0E       		.uleb128 0xe
 5803 15c7 4A000000 		.4byte	.LVL266
 5804 15cb CA180000 		.4byte	0x18ca
ARM GAS  C:\Users\Administrator\AppData\Local\Temp\ccShlVUx.s 			page 125


 5805 15cf E8150000 		.4byte	0x15e8
 5806 15d3 0F       		.uleb128 0xf
 5807 15d4 01       		.uleb128 0x1
 5808 15d5 52       		.byte	0x52
 5809 15d6 02       		.uleb128 0x2
 5810 15d7 75       		.byte	0x75
 5811 15d8 00       		.sleb128 0
 5812 15d9 0F       		.uleb128 0xf
 5813 15da 01       		.uleb128 0x1
 5814 15db 51       		.byte	0x51
 5815 15dc 03       		.uleb128 0x3
 5816 15dd 0A       		.byte	0xa
 5817 15de 001A     		.2byte	0x1a00
 5818 15e0 0F       		.uleb128 0xf
 5819 15e1 01       		.uleb128 0x1
 5820 15e2 50       		.byte	0x50
 5821 15e3 03       		.uleb128 0x3
 5822 15e4 91       		.byte	0x91
 5823 15e5 E058     		.sleb128 -5024
 5824 15e7 00       		.byte	0
 5825 15e8 0E       		.uleb128 0xe
 5826 15e9 56000000 		.4byte	.LVL267
 5827 15ed CA180000 		.4byte	0x18ca
 5828 15f1 0A160000 		.4byte	0x160a
 5829 15f5 0F       		.uleb128 0xf
 5830 15f6 01       		.uleb128 0x1
 5831 15f7 52       		.byte	0x52
 5832 15f8 03       		.uleb128 0x3
 5833 15f9 0A       		.byte	0xa
 5834 15fa 8813     		.2byte	0x1388
 5835 15fc 0F       		.uleb128 0xf
 5836 15fd 01       		.uleb128 0x1
 5837 15fe 51       		.byte	0x51
 5838 15ff 02       		.uleb128 0x2
 5839 1600 77       		.byte	0x77
 5840 1601 00       		.sleb128 0
 5841 1602 0F       		.uleb128 0xf
 5842 1603 01       		.uleb128 0x1
 5843 1604 50       		.byte	0x50
 5844 1605 03       		.uleb128 0x3
 5845 1606 91       		.byte	0x91
 5846 1607 E058     		.sleb128 -5024
 5847 1609 00       		.byte	0
 5848 160a 0E       		.uleb128 0xe
 5849 160b 64000000 		.4byte	.LVL268
 5850 160f CA180000 		.4byte	0x18ca
 5851 1613 2A160000 		.4byte	0x162a
 5852 1617 0F       		.uleb128 0xf
 5853 1618 01       		.uleb128 0x1
 5854 1619 52       		.byte	0x52
 5855 161a 01       		.uleb128 0x1
 5856 161b 32       		.byte	0x32
 5857 161c 0F       		.uleb128 0xf
 5858 161d 01       		.uleb128 0x1
 5859 161e 51       		.byte	0x51
 5860 161f 02       		.uleb128 0x2
 5861 1620 75       		.byte	0x75
ARM GAS  C:\Users\Administrator\AppData\Local\Temp\ccShlVUx.s 			page 126


 5862 1621 00       		.sleb128 0
 5863 1622 0F       		.uleb128 0xf
 5864 1623 01       		.uleb128 0x1
 5865 1624 50       		.byte	0x50
 5866 1625 03       		.uleb128 0x3
 5867 1626 91       		.byte	0x91
 5868 1627 DE55     		.sleb128 -5410
 5869 1629 00       		.byte	0
 5870 162a 0E       		.uleb128 0xe
 5871 162b 6E000000 		.4byte	.LVL269
 5872 162f EB180000 		.4byte	0x18eb
 5873 1633 4B160000 		.4byte	0x164b
 5874 1637 0F       		.uleb128 0xf
 5875 1638 01       		.uleb128 0x1
 5876 1639 52       		.byte	0x52
 5877 163a 02       		.uleb128 0x2
 5878 163b 76       		.byte	0x76
 5879 163c 00       		.sleb128 0
 5880 163d 0F       		.uleb128 0xf
 5881 163e 01       		.uleb128 0x1
 5882 163f 51       		.byte	0x51
 5883 1640 02       		.uleb128 0x2
 5884 1641 77       		.byte	0x77
 5885 1642 00       		.sleb128 0
 5886 1643 0F       		.uleb128 0xf
 5887 1644 01       		.uleb128 0x1
 5888 1645 50       		.byte	0x50
 5889 1646 03       		.uleb128 0x3
 5890 1647 91       		.byte	0x91
 5891 1648 E056     		.sleb128 -5280
 5892 164a 00       		.byte	0
 5893 164b 0E       		.uleb128 0xe
 5894 164c 7A000000 		.4byte	.LVL270
 5895 1650 EB180000 		.4byte	0x18eb
 5896 1654 6D160000 		.4byte	0x166d
 5897 1658 0F       		.uleb128 0xf
 5898 1659 01       		.uleb128 0x1
 5899 165a 52       		.byte	0x52
 5900 165b 02       		.uleb128 0x2
 5901 165c 74       		.byte	0x74
 5902 165d 00       		.sleb128 0
 5903 165e 0F       		.uleb128 0xf
 5904 165f 01       		.uleb128 0x1
 5905 1660 51       		.byte	0x51
 5906 1661 03       		.uleb128 0x3
 5907 1662 0A       		.byte	0xa
 5908 1663 001A     		.2byte	0x1a00
 5909 1665 0F       		.uleb128 0xf
 5910 1666 01       		.uleb128 0x1
 5911 1667 50       		.byte	0x50
 5912 1668 03       		.uleb128 0x3
 5913 1669 91       		.byte	0x91
 5914 166a E055     		.sleb128 -5408
 5915 166c 00       		.byte	0
 5916 166d 10       		.uleb128 0x10
 5917 166e 84000000 		.4byte	.LVL271
 5918 1672 EB180000 		.4byte	0x18eb
ARM GAS  C:\Users\Administrator\AppData\Local\Temp\ccShlVUx.s 			page 127


 5919 1676 0F       		.uleb128 0xf
 5920 1677 01       		.uleb128 0x1
 5921 1678 52       		.byte	0x52
 5922 1679 02       		.uleb128 0x2
 5923 167a 74       		.byte	0x74
 5924 167b 00       		.sleb128 0
 5925 167c 0F       		.uleb128 0xf
 5926 167d 01       		.uleb128 0x1
 5927 167e 51       		.byte	0x51
 5928 167f 02       		.uleb128 0x2
 5929 1680 75       		.byte	0x75
 5930 1681 00       		.sleb128 0
 5931 1682 0F       		.uleb128 0xf
 5932 1683 01       		.uleb128 0x1
 5933 1684 50       		.byte	0x50
 5934 1685 03       		.uleb128 0x3
 5935 1686 91       		.byte	0x91
 5936 1687 A056     		.sleb128 -5344
 5937 1689 00       		.byte	0
 5938 168a 00       		.byte	0
 5939 168b 0A       		.uleb128 0xa
 5940 168c 8C000000 		.4byte	0x8c
 5941 1690 9B160000 		.4byte	0x169b
 5942 1694 0B       		.uleb128 0xb
 5943 1695 F1000000 		.4byte	0xf1
 5944 1699 FF       		.byte	0xff
 5945 169a 00       		.byte	0
 5946 169b 0A       		.uleb128 0xa
 5947 169c 8C000000 		.4byte	0x8c
 5948 16a0 AB160000 		.4byte	0x16ab
 5949 16a4 0B       		.uleb128 0xb
 5950 16a5 F1000000 		.4byte	0xf1
 5951 16a9 3F       		.byte	0x3f
 5952 16aa 00       		.byte	0
 5953 16ab 0A       		.uleb128 0xa
 5954 16ac 8C000000 		.4byte	0x8c
 5955 16b0 BC160000 		.4byte	0x16bc
 5956 16b4 11       		.uleb128 0x11
 5957 16b5 F1000000 		.4byte	0xf1
 5958 16b9 8713     		.2byte	0x1387
 5959 16bb 00       		.byte	0
 5960 16bc 1D       		.uleb128 0x1d
 5961 16bd FB040000 		.4byte	.LASF110
 5962 16c1 01       		.byte	0x1
 5963 16c2 5704     		.2byte	0x457
 5964 16c4 00000000 		.4byte	.LFB104
 5965 16c8 84000000 		.4byte	.LFE104-.LFB104
 5966 16cc 01       		.uleb128 0x1
 5967 16cd 9C       		.byte	0x9c
 5968 16ce 46180000 		.4byte	0x1846
 5969 16d2 18       		.uleb128 0x18
 5970 16d3 AD040000 		.4byte	.LASF53
 5971 16d7 01       		.byte	0x1
 5972 16d8 5904     		.2byte	0x459
 5973 16da 9B160000 		.4byte	0x169b
 5974 16de 03       		.uleb128 0x3
 5975 16df 91       		.byte	0x91
ARM GAS  C:\Users\Administrator\AppData\Local\Temp\ccShlVUx.s 			page 128


 5976 16e0 F078     		.sleb128 -912
 5977 16e2 18       		.uleb128 0x18
 5978 16e3 C8030000 		.4byte	.LASF54
 5979 16e7 01       		.byte	0x1
 5980 16e8 5A04     		.2byte	0x45a
 5981 16ea 8B160000 		.4byte	0x168b
 5982 16ee 03       		.uleb128 0x3
 5983 16ef 91       		.byte	0x91
 5984 16f0 F079     		.sleb128 -784
 5985 16f2 18       		.uleb128 0x18
 5986 16f3 57060000 		.4byte	.LASF107
 5987 16f7 01       		.byte	0x1
 5988 16f8 6704     		.2byte	0x467
 5989 16fa 46180000 		.4byte	0x1846
 5990 16fe 03       		.uleb128 0x3
 5991 16ff 91       		.byte	0x91
 5992 1700 F07B     		.sleb128 -528
 5993 1702 18       		.uleb128 0x18
 5994 1703 09060000 		.4byte	.LASF108
 5995 1707 01       		.byte	0x1
 5996 1708 6804     		.2byte	0x468
 5997 170a 9B160000 		.4byte	0x169b
 5998 170e 03       		.uleb128 0x3
 5999 170f 91       		.byte	0x91
 6000 1710 B079     		.sleb128 -848
 6001 1712 18       		.uleb128 0x18
 6002 1713 32000000 		.4byte	.LASF109
 6003 1717 01       		.byte	0x1
 6004 1718 6904     		.2byte	0x469
 6005 171a 57180000 		.4byte	0x1857
 6006 171e 03       		.uleb128 0x3
 6007 171f 91       		.byte	0x91
 6008 1720 E878     		.sleb128 -920
 6009 1722 0E       		.uleb128 0xe
 6010 1723 18000000 		.4byte	.LVL272
 6011 1727 AD180000 		.4byte	0x18ad
 6012 172b 42170000 		.4byte	0x1742
 6013 172f 0F       		.uleb128 0xf
 6014 1730 01       		.uleb128 0x1
 6015 1731 52       		.byte	0x52
 6016 1732 02       		.uleb128 0x2
 6017 1733 74       		.byte	0x74
 6018 1734 00       		.sleb128 0
 6019 1735 0F       		.uleb128 0xf
 6020 1736 01       		.uleb128 0x1
 6021 1737 51       		.byte	0x51
 6022 1738 01       		.uleb128 0x1
 6023 1739 30       		.byte	0x30
 6024 173a 0F       		.uleb128 0xf
 6025 173b 01       		.uleb128 0x1
 6026 173c 50       		.byte	0x50
 6027 173d 03       		.uleb128 0x3
 6028 173e 91       		.byte	0x91
 6029 173f F078     		.sleb128 -912
 6030 1741 00       		.byte	0
 6031 1742 0E       		.uleb128 0xe
 6032 1743 22000000 		.4byte	.LVL273
ARM GAS  C:\Users\Administrator\AppData\Local\Temp\ccShlVUx.s 			page 129


 6033 1747 AD180000 		.4byte	0x18ad
 6034 174b 62170000 		.4byte	0x1762
 6035 174f 0F       		.uleb128 0xf
 6036 1750 01       		.uleb128 0x1
 6037 1751 52       		.byte	0x52
 6038 1752 02       		.uleb128 0x2
 6039 1753 76       		.byte	0x76
 6040 1754 00       		.sleb128 0
 6041 1755 0F       		.uleb128 0xf
 6042 1756 01       		.uleb128 0x1
 6043 1757 51       		.byte	0x51
 6044 1758 01       		.uleb128 0x1
 6045 1759 30       		.byte	0x30
 6046 175a 0F       		.uleb128 0xf
 6047 175b 01       		.uleb128 0x1
 6048 175c 50       		.byte	0x50
 6049 175d 03       		.uleb128 0x3
 6050 175e 91       		.byte	0x91
 6051 175f F079     		.sleb128 -784
 6052 1761 00       		.byte	0
 6053 1762 0E       		.uleb128 0xe
 6054 1763 2E000000 		.4byte	.LVL274
 6055 1767 EB180000 		.4byte	0x18eb
 6056 176b 82170000 		.4byte	0x1782
 6057 176f 0F       		.uleb128 0xf
 6058 1770 01       		.uleb128 0x1
 6059 1771 52       		.byte	0x52
 6060 1772 02       		.uleb128 0x2
 6061 1773 74       		.byte	0x74
 6062 1774 00       		.sleb128 0
 6063 1775 0F       		.uleb128 0xf
 6064 1776 01       		.uleb128 0x1
 6065 1777 51       		.byte	0x51
 6066 1778 01       		.uleb128 0x1
 6067 1779 30       		.byte	0x30
 6068 177a 0F       		.uleb128 0xf
 6069 177b 01       		.uleb128 0x1
 6070 177c 50       		.byte	0x50
 6071 177d 03       		.uleb128 0x3
 6072 177e 91       		.byte	0x91
 6073 177f F078     		.sleb128 -912
 6074 1781 00       		.byte	0
 6075 1782 0E       		.uleb128 0xe
 6076 1783 38000000 		.4byte	.LVL275
 6077 1787 EB180000 		.4byte	0x18eb
 6078 178b A3170000 		.4byte	0x17a3
 6079 178f 0F       		.uleb128 0xf
 6080 1790 01       		.uleb128 0x1
 6081 1791 52       		.byte	0x52
 6082 1792 02       		.uleb128 0x2
 6083 1793 76       		.byte	0x76
 6084 1794 00       		.sleb128 0
 6085 1795 0F       		.uleb128 0xf
 6086 1796 01       		.uleb128 0x1
 6087 1797 51       		.byte	0x51
 6088 1798 02       		.uleb128 0x2
 6089 1799 75       		.byte	0x75
ARM GAS  C:\Users\Administrator\AppData\Local\Temp\ccShlVUx.s 			page 130


 6090 179a 00       		.sleb128 0
 6091 179b 0F       		.uleb128 0xf
 6092 179c 01       		.uleb128 0x1
 6093 179d 50       		.byte	0x50
 6094 179e 03       		.uleb128 0x3
 6095 179f 91       		.byte	0x91
 6096 17a0 F079     		.sleb128 -784
 6097 17a2 00       		.byte	0
 6098 17a3 0E       		.uleb128 0xe
 6099 17a4 42000000 		.4byte	.LVL276
 6100 17a8 AD180000 		.4byte	0x18ad
 6101 17ac C3170000 		.4byte	0x17c3
 6102 17b0 0F       		.uleb128 0xf
 6103 17b1 01       		.uleb128 0x1
 6104 17b2 52       		.byte	0x52
 6105 17b3 02       		.uleb128 0x2
 6106 17b4 75       		.byte	0x75
 6107 17b5 00       		.sleb128 0
 6108 17b6 0F       		.uleb128 0xf
 6109 17b7 01       		.uleb128 0x1
 6110 17b8 51       		.byte	0x51
 6111 17b9 01       		.uleb128 0x1
 6112 17ba 30       		.byte	0x30
 6113 17bb 0F       		.uleb128 0xf
 6114 17bc 01       		.uleb128 0x1
 6115 17bd 50       		.byte	0x50
 6116 17be 03       		.uleb128 0x3
 6117 17bf 91       		.byte	0x91
 6118 17c0 F07B     		.sleb128 -528
 6119 17c2 00       		.byte	0
 6120 17c3 0E       		.uleb128 0xe
 6121 17c4 4C000000 		.4byte	.LVL277
 6122 17c8 AD180000 		.4byte	0x18ad
 6123 17cc E3170000 		.4byte	0x17e3
 6124 17d0 0F       		.uleb128 0xf
 6125 17d1 01       		.uleb128 0x1
 6126 17d2 52       		.byte	0x52
 6127 17d3 02       		.uleb128 0x2
 6128 17d4 74       		.byte	0x74
 6129 17d5 00       		.sleb128 0
 6130 17d6 0F       		.uleb128 0xf
 6131 17d7 01       		.uleb128 0x1
 6132 17d8 51       		.byte	0x51
 6133 17d9 01       		.uleb128 0x1
 6134 17da 30       		.byte	0x30
 6135 17db 0F       		.uleb128 0xf
 6136 17dc 01       		.uleb128 0x1
 6137 17dd 50       		.byte	0x50
 6138 17de 03       		.uleb128 0x3
 6139 17df 91       		.byte	0x91
 6140 17e0 B079     		.sleb128 -848
 6141 17e2 00       		.byte	0
 6142 17e3 0E       		.uleb128 0xe
 6143 17e4 5E000000 		.4byte	.LVL278
 6144 17e8 EB180000 		.4byte	0x18eb
 6145 17ec 05180000 		.4byte	0x1805
 6146 17f0 0F       		.uleb128 0xf
ARM GAS  C:\Users\Administrator\AppData\Local\Temp\ccShlVUx.s 			page 131


 6147 17f1 01       		.uleb128 0x1
 6148 17f2 52       		.byte	0x52
 6149 17f3 02       		.uleb128 0x2
 6150 17f4 75       		.byte	0x75
 6151 17f5 00       		.sleb128 0
 6152 17f6 0F       		.uleb128 0xf
 6153 17f7 01       		.uleb128 0x1
 6154 17f8 51       		.byte	0x51
 6155 17f9 03       		.uleb128 0x3
 6156 17fa 0A       		.byte	0xa
 6157 17fb 002E     		.2byte	0x2e00
 6158 17fd 0F       		.uleb128 0xf
 6159 17fe 01       		.uleb128 0x1
 6160 17ff 50       		.byte	0x50
 6161 1800 03       		.uleb128 0x3
 6162 1801 91       		.byte	0x91
 6163 1802 F07B     		.sleb128 -528
 6164 1804 00       		.byte	0
 6165 1805 0E       		.uleb128 0xe
 6166 1806 6A000000 		.4byte	.LVL279
 6167 180a EB180000 		.4byte	0x18eb
 6168 180e 27180000 		.4byte	0x1827
 6169 1812 0F       		.uleb128 0xf
 6170 1813 01       		.uleb128 0x1
 6171 1814 52       		.byte	0x52
 6172 1815 02       		.uleb128 0x2
 6173 1816 74       		.byte	0x74
 6174 1817 00       		.sleb128 0
 6175 1818 0F       		.uleb128 0xf
 6176 1819 01       		.uleb128 0x1
 6177 181a 51       		.byte	0x51
 6178 181b 03       		.uleb128 0x3
 6179 181c 0A       		.byte	0xa
 6180 181d 001A     		.2byte	0x1a00
 6181 181f 0F       		.uleb128 0xf
 6182 1820 01       		.uleb128 0x1
 6183 1821 50       		.byte	0x50
 6184 1822 03       		.uleb128 0x3
 6185 1823 91       		.byte	0x91
 6186 1824 B079     		.sleb128 -848
 6187 1826 00       		.byte	0
 6188 1827 10       		.uleb128 0x10
 6189 1828 76000000 		.4byte	.LVL280
 6190 182c EB180000 		.4byte	0x18eb
 6191 1830 0F       		.uleb128 0xf
 6192 1831 01       		.uleb128 0x1
 6193 1832 52       		.byte	0x52
 6194 1833 02       		.uleb128 0x2
 6195 1834 74       		.byte	0x74
 6196 1835 00       		.sleb128 0
 6197 1836 0F       		.uleb128 0xf
 6198 1837 01       		.uleb128 0x1
 6199 1838 51       		.byte	0x51
 6200 1839 03       		.uleb128 0x3
 6201 183a 49       		.byte	0x49
 6202 183b 3C       		.byte	0x3c
 6203 183c 24       		.byte	0x24
ARM GAS  C:\Users\Administrator\AppData\Local\Temp\ccShlVUx.s 			page 132


 6204 183d 0F       		.uleb128 0xf
 6205 183e 01       		.uleb128 0x1
 6206 183f 50       		.byte	0x50
 6207 1840 03       		.uleb128 0x3
 6208 1841 91       		.byte	0x91
 6209 1842 E878     		.sleb128 -920
 6210 1844 00       		.byte	0
 6211 1845 00       		.byte	0
 6212 1846 0A       		.uleb128 0xa
 6213 1847 8C000000 		.4byte	0x8c
 6214 184b 57180000 		.4byte	0x1857
 6215 184f 11       		.uleb128 0x11
 6216 1850 F1000000 		.4byte	0xf1
 6217 1854 FF01     		.2byte	0x1ff
 6218 1856 00       		.byte	0
 6219 1857 0A       		.uleb128 0xa
 6220 1858 8C000000 		.4byte	0x8c
 6221 185c 67180000 		.4byte	0x1867
 6222 1860 0B       		.uleb128 0xb
 6223 1861 F1000000 		.4byte	0xf1
 6224 1865 07       		.byte	0x7
 6225 1866 00       		.byte	0
 6226 1867 1D       		.uleb128 0x1d
 6227 1868 5D050000 		.4byte	.LASF111
 6228 186c 01       		.byte	0x1
 6229 186d 7A04     		.2byte	0x47a
 6230 186f 00000000 		.4byte	.LFB105
 6231 1873 0E000000 		.4byte	.LFE105-.LFB105
 6232 1877 01       		.uleb128 0x1
 6233 1878 9C       		.byte	0x9c
 6234 1879 A2180000 		.4byte	0x18a2
 6235 187d 18       		.uleb128 0x18
 6236 187e 68010000 		.4byte	.LASF112
 6237 1882 01       		.byte	0x1
 6238 1883 7C04     		.2byte	0x47c
 6239 1885 81010000 		.4byte	0x181
 6240 1889 02       		.uleb128 0x2
 6241 188a 91       		.byte	0x91
 6242 188b 68       		.sleb128 -24
 6243 188c 10       		.uleb128 0x10
 6244 188d 0A000000 		.4byte	.LVL281
 6245 1891 AF0D0000 		.4byte	0xdaf
 6246 1895 0F       		.uleb128 0xf
 6247 1896 01       		.uleb128 0x1
 6248 1897 51       		.byte	0x51
 6249 1898 02       		.uleb128 0x2
 6250 1899 7D       		.byte	0x7d
 6251 189a 00       		.sleb128 0
 6252 189b 0F       		.uleb128 0xf
 6253 189c 01       		.uleb128 0x1
 6254 189d 50       		.byte	0x50
 6255 189e 01       		.uleb128 0x1
 6256 189f 35       		.byte	0x35
 6257 18a0 00       		.byte	0
 6258 18a1 00       		.byte	0
 6259 18a2 21       		.uleb128 0x21
 6260 18a3 55000000 		.4byte	.LASF121
ARM GAS  C:\Users\Administrator\AppData\Local\Temp\ccShlVUx.s 			page 133


 6261 18a7 01       		.byte	0x1
 6262 18a8 0E       		.byte	0xe
 6263 18a9 AD000000 		.4byte	0xad
 6264 18ad 22       		.uleb128 0x22
 6265 18ae 57010000 		.4byte	.LASF113
 6266 18b2 F8000000 		.4byte	0xf8
 6267 18b6 CA180000 		.4byte	0x18ca
 6268 18ba 23       		.uleb128 0x23
 6269 18bb F8000000 		.4byte	0xf8
 6270 18bf 23       		.uleb128 0x23
 6271 18c0 7E000000 		.4byte	0x7e
 6272 18c4 23       		.uleb128 0x23
 6273 18c5 F1000000 		.4byte	0xf1
 6274 18c9 00       		.byte	0
 6275 18ca 24       		.uleb128 0x24
 6276 18cb C6020000 		.4byte	.LASF114
 6277 18cf 07       		.byte	0x7
 6278 18d0 54       		.byte	0x54
 6279 18d1 E5180000 		.4byte	0x18e5
 6280 18d5 23       		.uleb128 0x23
 6281 18d6 E5180000 		.4byte	0x18e5
 6282 18da 23       		.uleb128 0x23
 6283 18db A2000000 		.4byte	0xa2
 6284 18df 23       		.uleb128 0x23
 6285 18e0 97000000 		.4byte	0x97
 6286 18e4 00       		.byte	0
 6287 18e5 07       		.uleb128 0x7
 6288 18e6 04       		.byte	0x4
 6289 18e7 8C000000 		.4byte	0x8c
 6290 18eb 24       		.uleb128 0x24
 6291 18ec DA020000 		.4byte	.LASF115
 6292 18f0 07       		.byte	0x7
 6293 18f1 53       		.byte	0x53
 6294 18f2 06190000 		.4byte	0x1906
 6295 18f6 23       		.uleb128 0x23
 6296 18f7 E5180000 		.4byte	0x18e5
 6297 18fb 23       		.uleb128 0x23
 6298 18fc A2000000 		.4byte	0xa2
 6299 1900 23       		.uleb128 0x23
 6300 1901 97000000 		.4byte	0x97
 6301 1905 00       		.byte	0
 6302 1906 25       		.uleb128 0x25
 6303 1907 60060000 		.4byte	.LASF122
 6304 190b 08       		.byte	0x8
 6305 190c 16       		.byte	0x16
 6306 190d 7E000000 		.4byte	0x7e
 6307 1911 25190000 		.4byte	0x1925
 6308 1915 23       		.uleb128 0x23
 6309 1916 25190000 		.4byte	0x1925
 6310 191a 23       		.uleb128 0x23
 6311 191b 25190000 		.4byte	0x1925
 6312 191f 23       		.uleb128 0x23
 6313 1920 E6000000 		.4byte	0xe6
 6314 1924 00       		.byte	0
 6315 1925 07       		.uleb128 0x7
 6316 1926 04       		.byte	0x4
 6317 1927 2B190000 		.4byte	0x192b
ARM GAS  C:\Users\Administrator\AppData\Local\Temp\ccShlVUx.s 			page 134


 6318 192b 26       		.uleb128 0x26
 6319 192c 22       		.uleb128 0x22
 6320 192d 50060000 		.4byte	.LASF116
 6321 1931 F8000000 		.4byte	0xf8
 6322 1935 49190000 		.4byte	0x1949
 6323 1939 23       		.uleb128 0x23
 6324 193a F8000000 		.4byte	0xf8
 6325 193e 23       		.uleb128 0x23
 6326 193f 25190000 		.4byte	0x1925
 6327 1943 23       		.uleb128 0x23
 6328 1944 F1000000 		.4byte	0xf1
 6329 1948 00       		.byte	0
 6330 1949 27       		.uleb128 0x27
 6331 194a 39030000 		.4byte	.LASF117
 6332 194e 01       		.byte	0x1
 6333 194f 0D       		.byte	0xd
 6334 1950 7E000000 		.4byte	0x7e
 6335 1954 23       		.uleb128 0x23
 6336 1955 FA000000 		.4byte	0xfa
 6337 1959 00       		.byte	0
 6338 195a 00       		.byte	0
 6339              		.section	.debug_abbrev,"",%progbits
 6340              	.Ldebug_abbrev0:
 6341 0000 01       		.uleb128 0x1
 6342 0001 11       		.uleb128 0x11
 6343 0002 01       		.byte	0x1
 6344 0003 25       		.uleb128 0x25
 6345 0004 0E       		.uleb128 0xe
 6346 0005 13       		.uleb128 0x13
 6347 0006 0B       		.uleb128 0xb
 6348 0007 03       		.uleb128 0x3
 6349 0008 0E       		.uleb128 0xe
 6350 0009 1B       		.uleb128 0x1b
 6351 000a 0E       		.uleb128 0xe
 6352 000b 55       		.uleb128 0x55
 6353 000c 17       		.uleb128 0x17
 6354 000d 11       		.uleb128 0x11
 6355 000e 01       		.uleb128 0x1
 6356 000f 10       		.uleb128 0x10
 6357 0010 17       		.uleb128 0x17
 6358 0011 00       		.byte	0
 6359 0012 00       		.byte	0
 6360 0013 02       		.uleb128 0x2
 6361 0014 24       		.uleb128 0x24
 6362 0015 00       		.byte	0
 6363 0016 0B       		.uleb128 0xb
 6364 0017 0B       		.uleb128 0xb
 6365 0018 3E       		.uleb128 0x3e
 6366 0019 0B       		.uleb128 0xb
 6367 001a 03       		.uleb128 0x3
 6368 001b 0E       		.uleb128 0xe
 6369 001c 00       		.byte	0
 6370 001d 00       		.byte	0
 6371 001e 03       		.uleb128 0x3
 6372 001f 16       		.uleb128 0x16
 6373 0020 00       		.byte	0
 6374 0021 03       		.uleb128 0x3
ARM GAS  C:\Users\Administrator\AppData\Local\Temp\ccShlVUx.s 			page 135


 6375 0022 0E       		.uleb128 0xe
 6376 0023 3A       		.uleb128 0x3a
 6377 0024 0B       		.uleb128 0xb
 6378 0025 3B       		.uleb128 0x3b
 6379 0026 0B       		.uleb128 0xb
 6380 0027 49       		.uleb128 0x49
 6381 0028 13       		.uleb128 0x13
 6382 0029 00       		.byte	0
 6383 002a 00       		.byte	0
 6384 002b 04       		.uleb128 0x4
 6385 002c 24       		.uleb128 0x24
 6386 002d 00       		.byte	0
 6387 002e 0B       		.uleb128 0xb
 6388 002f 0B       		.uleb128 0xb
 6389 0030 3E       		.uleb128 0x3e
 6390 0031 0B       		.uleb128 0xb
 6391 0032 03       		.uleb128 0x3
 6392 0033 08       		.uleb128 0x8
 6393 0034 00       		.byte	0
 6394 0035 00       		.byte	0
 6395 0036 05       		.uleb128 0x5
 6396 0037 16       		.uleb128 0x16
 6397 0038 00       		.byte	0
 6398 0039 03       		.uleb128 0x3
 6399 003a 0E       		.uleb128 0xe
 6400 003b 3A       		.uleb128 0x3a
 6401 003c 0B       		.uleb128 0xb
 6402 003d 3B       		.uleb128 0x3b
 6403 003e 05       		.uleb128 0x5
 6404 003f 49       		.uleb128 0x49
 6405 0040 13       		.uleb128 0x13
 6406 0041 00       		.byte	0
 6407 0042 00       		.byte	0
 6408 0043 06       		.uleb128 0x6
 6409 0044 0F       		.uleb128 0xf
 6410 0045 00       		.byte	0
 6411 0046 0B       		.uleb128 0xb
 6412 0047 0B       		.uleb128 0xb
 6413 0048 00       		.byte	0
 6414 0049 00       		.byte	0
 6415 004a 07       		.uleb128 0x7
 6416 004b 0F       		.uleb128 0xf
 6417 004c 00       		.byte	0
 6418 004d 0B       		.uleb128 0xb
 6419 004e 0B       		.uleb128 0xb
 6420 004f 49       		.uleb128 0x49
 6421 0050 13       		.uleb128 0x13
 6422 0051 00       		.byte	0
 6423 0052 00       		.byte	0
 6424 0053 08       		.uleb128 0x8
 6425 0054 13       		.uleb128 0x13
 6426 0055 01       		.byte	0x1
 6427 0056 03       		.uleb128 0x3
 6428 0057 0E       		.uleb128 0xe
 6429 0058 0B       		.uleb128 0xb
 6430 0059 0B       		.uleb128 0xb
 6431 005a 3A       		.uleb128 0x3a
ARM GAS  C:\Users\Administrator\AppData\Local\Temp\ccShlVUx.s 			page 136


 6432 005b 0B       		.uleb128 0xb
 6433 005c 3B       		.uleb128 0x3b
 6434 005d 0B       		.uleb128 0xb
 6435 005e 01       		.uleb128 0x1
 6436 005f 13       		.uleb128 0x13
 6437 0060 00       		.byte	0
 6438 0061 00       		.byte	0
 6439 0062 09       		.uleb128 0x9
 6440 0063 0D       		.uleb128 0xd
 6441 0064 00       		.byte	0
 6442 0065 03       		.uleb128 0x3
 6443 0066 0E       		.uleb128 0xe
 6444 0067 3A       		.uleb128 0x3a
 6445 0068 0B       		.uleb128 0xb
 6446 0069 3B       		.uleb128 0x3b
 6447 006a 0B       		.uleb128 0xb
 6448 006b 49       		.uleb128 0x49
 6449 006c 13       		.uleb128 0x13
 6450 006d 38       		.uleb128 0x38
 6451 006e 0B       		.uleb128 0xb
 6452 006f 00       		.byte	0
 6453 0070 00       		.byte	0
 6454 0071 0A       		.uleb128 0xa
 6455 0072 01       		.uleb128 0x1
 6456 0073 01       		.byte	0x1
 6457 0074 49       		.uleb128 0x49
 6458 0075 13       		.uleb128 0x13
 6459 0076 01       		.uleb128 0x1
 6460 0077 13       		.uleb128 0x13
 6461 0078 00       		.byte	0
 6462 0079 00       		.byte	0
 6463 007a 0B       		.uleb128 0xb
 6464 007b 21       		.uleb128 0x21
 6465 007c 00       		.byte	0
 6466 007d 49       		.uleb128 0x49
 6467 007e 13       		.uleb128 0x13
 6468 007f 2F       		.uleb128 0x2f
 6469 0080 0B       		.uleb128 0xb
 6470 0081 00       		.byte	0
 6471 0082 00       		.byte	0
 6472 0083 0C       		.uleb128 0xc
 6473 0084 2E       		.uleb128 0x2e
 6474 0085 01       		.byte	0x1
 6475 0086 3F       		.uleb128 0x3f
 6476 0087 19       		.uleb128 0x19
 6477 0088 03       		.uleb128 0x3
 6478 0089 0E       		.uleb128 0xe
 6479 008a 3A       		.uleb128 0x3a
 6480 008b 0B       		.uleb128 0xb
 6481 008c 3B       		.uleb128 0x3b
 6482 008d 0B       		.uleb128 0xb
 6483 008e 27       		.uleb128 0x27
 6484 008f 19       		.uleb128 0x19
 6485 0090 11       		.uleb128 0x11
 6486 0091 01       		.uleb128 0x1
 6487 0092 12       		.uleb128 0x12
 6488 0093 06       		.uleb128 0x6
ARM GAS  C:\Users\Administrator\AppData\Local\Temp\ccShlVUx.s 			page 137


 6489 0094 40       		.uleb128 0x40
 6490 0095 18       		.uleb128 0x18
 6491 0096 9742     		.uleb128 0x2117
 6492 0098 19       		.uleb128 0x19
 6493 0099 01       		.uleb128 0x1
 6494 009a 13       		.uleb128 0x13
 6495 009b 00       		.byte	0
 6496 009c 00       		.byte	0
 6497 009d 0D       		.uleb128 0xd
 6498 009e 34       		.uleb128 0x34
 6499 009f 00       		.byte	0
 6500 00a0 03       		.uleb128 0x3
 6501 00a1 0E       		.uleb128 0xe
 6502 00a2 3A       		.uleb128 0x3a
 6503 00a3 0B       		.uleb128 0xb
 6504 00a4 3B       		.uleb128 0x3b
 6505 00a5 0B       		.uleb128 0xb
 6506 00a6 49       		.uleb128 0x49
 6507 00a7 13       		.uleb128 0x13
 6508 00a8 02       		.uleb128 0x2
 6509 00a9 18       		.uleb128 0x18
 6510 00aa 00       		.byte	0
 6511 00ab 00       		.byte	0
 6512 00ac 0E       		.uleb128 0xe
 6513 00ad 898201   		.uleb128 0x4109
 6514 00b0 01       		.byte	0x1
 6515 00b1 11       		.uleb128 0x11
 6516 00b2 01       		.uleb128 0x1
 6517 00b3 31       		.uleb128 0x31
 6518 00b4 13       		.uleb128 0x13
 6519 00b5 01       		.uleb128 0x1
 6520 00b6 13       		.uleb128 0x13
 6521 00b7 00       		.byte	0
 6522 00b8 00       		.byte	0
 6523 00b9 0F       		.uleb128 0xf
 6524 00ba 8A8201   		.uleb128 0x410a
 6525 00bd 00       		.byte	0
 6526 00be 02       		.uleb128 0x2
 6527 00bf 18       		.uleb128 0x18
 6528 00c0 9142     		.uleb128 0x2111
 6529 00c2 18       		.uleb128 0x18
 6530 00c3 00       		.byte	0
 6531 00c4 00       		.byte	0
 6532 00c5 10       		.uleb128 0x10
 6533 00c6 898201   		.uleb128 0x4109
 6534 00c9 01       		.byte	0x1
 6535 00ca 11       		.uleb128 0x11
 6536 00cb 01       		.uleb128 0x1
 6537 00cc 31       		.uleb128 0x31
 6538 00cd 13       		.uleb128 0x13
 6539 00ce 00       		.byte	0
 6540 00cf 00       		.byte	0
 6541 00d0 11       		.uleb128 0x11
 6542 00d1 21       		.uleb128 0x21
 6543 00d2 00       		.byte	0
 6544 00d3 49       		.uleb128 0x49
 6545 00d4 13       		.uleb128 0x13
ARM GAS  C:\Users\Administrator\AppData\Local\Temp\ccShlVUx.s 			page 138


 6546 00d5 2F       		.uleb128 0x2f
 6547 00d6 05       		.uleb128 0x5
 6548 00d7 00       		.byte	0
 6549 00d8 00       		.byte	0
 6550 00d9 12       		.uleb128 0x12
 6551 00da 2E       		.uleb128 0x2e
 6552 00db 01       		.byte	0x1
 6553 00dc 3F       		.uleb128 0x3f
 6554 00dd 19       		.uleb128 0x19
 6555 00de 03       		.uleb128 0x3
 6556 00df 0E       		.uleb128 0xe
 6557 00e0 3A       		.uleb128 0x3a
 6558 00e1 0B       		.uleb128 0xb
 6559 00e2 3B       		.uleb128 0x3b
 6560 00e3 0B       		.uleb128 0xb
 6561 00e4 27       		.uleb128 0x27
 6562 00e5 19       		.uleb128 0x19
 6563 00e6 49       		.uleb128 0x49
 6564 00e7 13       		.uleb128 0x13
 6565 00e8 11       		.uleb128 0x11
 6566 00e9 01       		.uleb128 0x1
 6567 00ea 12       		.uleb128 0x12
 6568 00eb 06       		.uleb128 0x6
 6569 00ec 40       		.uleb128 0x40
 6570 00ed 18       		.uleb128 0x18
 6571 00ee 9742     		.uleb128 0x2117
 6572 00f0 19       		.uleb128 0x19
 6573 00f1 01       		.uleb128 0x1
 6574 00f2 13       		.uleb128 0x13
 6575 00f3 00       		.byte	0
 6576 00f4 00       		.byte	0
 6577 00f5 13       		.uleb128 0x13
 6578 00f6 05       		.uleb128 0x5
 6579 00f7 00       		.byte	0
 6580 00f8 03       		.uleb128 0x3
 6581 00f9 0E       		.uleb128 0xe
 6582 00fa 3A       		.uleb128 0x3a
 6583 00fb 0B       		.uleb128 0xb
 6584 00fc 3B       		.uleb128 0x3b
 6585 00fd 0B       		.uleb128 0xb
 6586 00fe 49       		.uleb128 0x49
 6587 00ff 13       		.uleb128 0x13
 6588 0100 02       		.uleb128 0x2
 6589 0101 17       		.uleb128 0x17
 6590 0102 00       		.byte	0
 6591 0103 00       		.byte	0
 6592 0104 14       		.uleb128 0x14
 6593 0105 34       		.uleb128 0x34
 6594 0106 00       		.byte	0
 6595 0107 03       		.uleb128 0x3
 6596 0108 0E       		.uleb128 0xe
 6597 0109 3A       		.uleb128 0x3a
 6598 010a 0B       		.uleb128 0xb
 6599 010b 3B       		.uleb128 0x3b
 6600 010c 0B       		.uleb128 0xb
 6601 010d 49       		.uleb128 0x49
 6602 010e 13       		.uleb128 0x13
ARM GAS  C:\Users\Administrator\AppData\Local\Temp\ccShlVUx.s 			page 139


 6603 010f 02       		.uleb128 0x2
 6604 0110 17       		.uleb128 0x17
 6605 0111 00       		.byte	0
 6606 0112 00       		.byte	0
 6607 0113 15       		.uleb128 0x15
 6608 0114 34       		.uleb128 0x34
 6609 0115 00       		.byte	0
 6610 0116 03       		.uleb128 0x3
 6611 0117 08       		.uleb128 0x8
 6612 0118 3A       		.uleb128 0x3a
 6613 0119 0B       		.uleb128 0xb
 6614 011a 3B       		.uleb128 0x3b
 6615 011b 0B       		.uleb128 0xb
 6616 011c 49       		.uleb128 0x49
 6617 011d 13       		.uleb128 0x13
 6618 011e 02       		.uleb128 0x2
 6619 011f 17       		.uleb128 0x17
 6620 0120 00       		.byte	0
 6621 0121 00       		.byte	0
 6622 0122 16       		.uleb128 0x16
 6623 0123 2E       		.uleb128 0x2e
 6624 0124 01       		.byte	0x1
 6625 0125 3F       		.uleb128 0x3f
 6626 0126 19       		.uleb128 0x19
 6627 0127 03       		.uleb128 0x3
 6628 0128 0E       		.uleb128 0xe
 6629 0129 3A       		.uleb128 0x3a
 6630 012a 0B       		.uleb128 0xb
 6631 012b 3B       		.uleb128 0x3b
 6632 012c 05       		.uleb128 0x5
 6633 012d 27       		.uleb128 0x27
 6634 012e 19       		.uleb128 0x19
 6635 012f 49       		.uleb128 0x49
 6636 0130 13       		.uleb128 0x13
 6637 0131 11       		.uleb128 0x11
 6638 0132 01       		.uleb128 0x1
 6639 0133 12       		.uleb128 0x12
 6640 0134 06       		.uleb128 0x6
 6641 0135 40       		.uleb128 0x40
 6642 0136 18       		.uleb128 0x18
 6643 0137 9742     		.uleb128 0x2117
 6644 0139 19       		.uleb128 0x19
 6645 013a 01       		.uleb128 0x1
 6646 013b 13       		.uleb128 0x13
 6647 013c 00       		.byte	0
 6648 013d 00       		.byte	0
 6649 013e 17       		.uleb128 0x17
 6650 013f 05       		.uleb128 0x5
 6651 0140 00       		.byte	0
 6652 0141 03       		.uleb128 0x3
 6653 0142 0E       		.uleb128 0xe
 6654 0143 3A       		.uleb128 0x3a
 6655 0144 0B       		.uleb128 0xb
 6656 0145 3B       		.uleb128 0x3b
 6657 0146 05       		.uleb128 0x5
 6658 0147 49       		.uleb128 0x49
 6659 0148 13       		.uleb128 0x13
ARM GAS  C:\Users\Administrator\AppData\Local\Temp\ccShlVUx.s 			page 140


 6660 0149 02       		.uleb128 0x2
 6661 014a 17       		.uleb128 0x17
 6662 014b 00       		.byte	0
 6663 014c 00       		.byte	0
 6664 014d 18       		.uleb128 0x18
 6665 014e 34       		.uleb128 0x34
 6666 014f 00       		.byte	0
 6667 0150 03       		.uleb128 0x3
 6668 0151 0E       		.uleb128 0xe
 6669 0152 3A       		.uleb128 0x3a
 6670 0153 0B       		.uleb128 0xb
 6671 0154 3B       		.uleb128 0x3b
 6672 0155 05       		.uleb128 0x5
 6673 0156 49       		.uleb128 0x49
 6674 0157 13       		.uleb128 0x13
 6675 0158 02       		.uleb128 0x2
 6676 0159 18       		.uleb128 0x18
 6677 015a 00       		.byte	0
 6678 015b 00       		.byte	0
 6679 015c 19       		.uleb128 0x19
 6680 015d 898201   		.uleb128 0x4109
 6681 0160 00       		.byte	0
 6682 0161 11       		.uleb128 0x11
 6683 0162 01       		.uleb128 0x1
 6684 0163 31       		.uleb128 0x31
 6685 0164 13       		.uleb128 0x13
 6686 0165 00       		.byte	0
 6687 0166 00       		.byte	0
 6688 0167 1A       		.uleb128 0x1a
 6689 0168 2E       		.uleb128 0x2e
 6690 0169 01       		.byte	0x1
 6691 016a 3F       		.uleb128 0x3f
 6692 016b 19       		.uleb128 0x19
 6693 016c 03       		.uleb128 0x3
 6694 016d 0E       		.uleb128 0xe
 6695 016e 3A       		.uleb128 0x3a
 6696 016f 0B       		.uleb128 0xb
 6697 0170 3B       		.uleb128 0x3b
 6698 0171 05       		.uleb128 0x5
 6699 0172 27       		.uleb128 0x27
 6700 0173 19       		.uleb128 0x19
 6701 0174 11       		.uleb128 0x11
 6702 0175 01       		.uleb128 0x1
 6703 0176 12       		.uleb128 0x12
 6704 0177 06       		.uleb128 0x6
 6705 0178 40       		.uleb128 0x40
 6706 0179 18       		.uleb128 0x18
 6707 017a 9642     		.uleb128 0x2116
 6708 017c 19       		.uleb128 0x19
 6709 017d 01       		.uleb128 0x1
 6710 017e 13       		.uleb128 0x13
 6711 017f 00       		.byte	0
 6712 0180 00       		.byte	0
 6713 0181 1B       		.uleb128 0x1b
 6714 0182 34       		.uleb128 0x34
 6715 0183 00       		.byte	0
 6716 0184 03       		.uleb128 0x3
ARM GAS  C:\Users\Administrator\AppData\Local\Temp\ccShlVUx.s 			page 141


 6717 0185 08       		.uleb128 0x8
 6718 0186 3A       		.uleb128 0x3a
 6719 0187 0B       		.uleb128 0xb
 6720 0188 3B       		.uleb128 0x3b
 6721 0189 05       		.uleb128 0x5
 6722 018a 49       		.uleb128 0x49
 6723 018b 13       		.uleb128 0x13
 6724 018c 02       		.uleb128 0x2
 6725 018d 17       		.uleb128 0x17
 6726 018e 00       		.byte	0
 6727 018f 00       		.byte	0
 6728 0190 1C       		.uleb128 0x1c
 6729 0191 2E       		.uleb128 0x2e
 6730 0192 01       		.byte	0x1
 6731 0193 3F       		.uleb128 0x3f
 6732 0194 19       		.uleb128 0x19
 6733 0195 03       		.uleb128 0x3
 6734 0196 0E       		.uleb128 0xe
 6735 0197 3A       		.uleb128 0x3a
 6736 0198 0B       		.uleb128 0xb
 6737 0199 3B       		.uleb128 0x3b
 6738 019a 05       		.uleb128 0x5
 6739 019b 27       		.uleb128 0x27
 6740 019c 19       		.uleb128 0x19
 6741 019d 49       		.uleb128 0x49
 6742 019e 13       		.uleb128 0x13
 6743 019f 11       		.uleb128 0x11
 6744 01a0 01       		.uleb128 0x1
 6745 01a1 12       		.uleb128 0x12
 6746 01a2 06       		.uleb128 0x6
 6747 01a3 40       		.uleb128 0x40
 6748 01a4 18       		.uleb128 0x18
 6749 01a5 9642     		.uleb128 0x2116
 6750 01a7 19       		.uleb128 0x19
 6751 01a8 01       		.uleb128 0x1
 6752 01a9 13       		.uleb128 0x13
 6753 01aa 00       		.byte	0
 6754 01ab 00       		.byte	0
 6755 01ac 1D       		.uleb128 0x1d
 6756 01ad 2E       		.uleb128 0x2e
 6757 01ae 01       		.byte	0x1
 6758 01af 3F       		.uleb128 0x3f
 6759 01b0 19       		.uleb128 0x19
 6760 01b1 03       		.uleb128 0x3
 6761 01b2 0E       		.uleb128 0xe
 6762 01b3 3A       		.uleb128 0x3a
 6763 01b4 0B       		.uleb128 0xb
 6764 01b5 3B       		.uleb128 0x3b
 6765 01b6 05       		.uleb128 0x5
 6766 01b7 27       		.uleb128 0x27
 6767 01b8 19       		.uleb128 0x19
 6768 01b9 11       		.uleb128 0x11
 6769 01ba 01       		.uleb128 0x1
 6770 01bb 12       		.uleb128 0x12
 6771 01bc 06       		.uleb128 0x6
 6772 01bd 40       		.uleb128 0x40
 6773 01be 18       		.uleb128 0x18
ARM GAS  C:\Users\Administrator\AppData\Local\Temp\ccShlVUx.s 			page 142


 6774 01bf 9742     		.uleb128 0x2117
 6775 01c1 19       		.uleb128 0x19
 6776 01c2 01       		.uleb128 0x1
 6777 01c3 13       		.uleb128 0x13
 6778 01c4 00       		.byte	0
 6779 01c5 00       		.byte	0
 6780 01c6 1E       		.uleb128 0x1e
 6781 01c7 34       		.uleb128 0x34
 6782 01c8 00       		.byte	0
 6783 01c9 03       		.uleb128 0x3
 6784 01ca 08       		.uleb128 0x8
 6785 01cb 3A       		.uleb128 0x3a
 6786 01cc 0B       		.uleb128 0xb
 6787 01cd 3B       		.uleb128 0x3b
 6788 01ce 05       		.uleb128 0x5
 6789 01cf 49       		.uleb128 0x49
 6790 01d0 13       		.uleb128 0x13
 6791 01d1 02       		.uleb128 0x2
 6792 01d2 18       		.uleb128 0x18
 6793 01d3 00       		.byte	0
 6794 01d4 00       		.byte	0
 6795 01d5 1F       		.uleb128 0x1f
 6796 01d6 34       		.uleb128 0x34
 6797 01d7 00       		.byte	0
 6798 01d8 03       		.uleb128 0x3
 6799 01d9 0E       		.uleb128 0xe
 6800 01da 3A       		.uleb128 0x3a
 6801 01db 0B       		.uleb128 0xb
 6802 01dc 3B       		.uleb128 0x3b
 6803 01dd 05       		.uleb128 0x5
 6804 01de 49       		.uleb128 0x49
 6805 01df 13       		.uleb128 0x13
 6806 01e0 02       		.uleb128 0x2
 6807 01e1 17       		.uleb128 0x17
 6808 01e2 00       		.byte	0
 6809 01e3 00       		.byte	0
 6810 01e4 20       		.uleb128 0x20
 6811 01e5 05       		.uleb128 0x5
 6812 01e6 00       		.byte	0
 6813 01e7 03       		.uleb128 0x3
 6814 01e8 08       		.uleb128 0x8
 6815 01e9 3A       		.uleb128 0x3a
 6816 01ea 0B       		.uleb128 0xb
 6817 01eb 3B       		.uleb128 0x3b
 6818 01ec 05       		.uleb128 0x5
 6819 01ed 49       		.uleb128 0x49
 6820 01ee 13       		.uleb128 0x13
 6821 01ef 02       		.uleb128 0x2
 6822 01f0 17       		.uleb128 0x17
 6823 01f1 00       		.byte	0
 6824 01f2 00       		.byte	0
 6825 01f3 21       		.uleb128 0x21
 6826 01f4 34       		.uleb128 0x34
 6827 01f5 00       		.byte	0
 6828 01f6 03       		.uleb128 0x3
 6829 01f7 0E       		.uleb128 0xe
 6830 01f8 3A       		.uleb128 0x3a
ARM GAS  C:\Users\Administrator\AppData\Local\Temp\ccShlVUx.s 			page 143


 6831 01f9 0B       		.uleb128 0xb
 6832 01fa 3B       		.uleb128 0x3b
 6833 01fb 0B       		.uleb128 0xb
 6834 01fc 49       		.uleb128 0x49
 6835 01fd 13       		.uleb128 0x13
 6836 01fe 3F       		.uleb128 0x3f
 6837 01ff 19       		.uleb128 0x19
 6838 0200 3C       		.uleb128 0x3c
 6839 0201 19       		.uleb128 0x19
 6840 0202 00       		.byte	0
 6841 0203 00       		.byte	0
 6842 0204 22       		.uleb128 0x22
 6843 0205 2E       		.uleb128 0x2e
 6844 0206 01       		.byte	0x1
 6845 0207 3F       		.uleb128 0x3f
 6846 0208 19       		.uleb128 0x19
 6847 0209 03       		.uleb128 0x3
 6848 020a 0E       		.uleb128 0xe
 6849 020b 27       		.uleb128 0x27
 6850 020c 19       		.uleb128 0x19
 6851 020d 49       		.uleb128 0x49
 6852 020e 13       		.uleb128 0x13
 6853 020f 34       		.uleb128 0x34
 6854 0210 19       		.uleb128 0x19
 6855 0211 3C       		.uleb128 0x3c
 6856 0212 19       		.uleb128 0x19
 6857 0213 01       		.uleb128 0x1
 6858 0214 13       		.uleb128 0x13
 6859 0215 00       		.byte	0
 6860 0216 00       		.byte	0
 6861 0217 23       		.uleb128 0x23
 6862 0218 05       		.uleb128 0x5
 6863 0219 00       		.byte	0
 6864 021a 49       		.uleb128 0x49
 6865 021b 13       		.uleb128 0x13
 6866 021c 00       		.byte	0
 6867 021d 00       		.byte	0
 6868 021e 24       		.uleb128 0x24
 6869 021f 2E       		.uleb128 0x2e
 6870 0220 01       		.byte	0x1
 6871 0221 3F       		.uleb128 0x3f
 6872 0222 19       		.uleb128 0x19
 6873 0223 03       		.uleb128 0x3
 6874 0224 0E       		.uleb128 0xe
 6875 0225 3A       		.uleb128 0x3a
 6876 0226 0B       		.uleb128 0xb
 6877 0227 3B       		.uleb128 0x3b
 6878 0228 0B       		.uleb128 0xb
 6879 0229 27       		.uleb128 0x27
 6880 022a 19       		.uleb128 0x19
 6881 022b 3C       		.uleb128 0x3c
 6882 022c 19       		.uleb128 0x19
 6883 022d 01       		.uleb128 0x1
 6884 022e 13       		.uleb128 0x13
 6885 022f 00       		.byte	0
 6886 0230 00       		.byte	0
 6887 0231 25       		.uleb128 0x25
ARM GAS  C:\Users\Administrator\AppData\Local\Temp\ccShlVUx.s 			page 144


 6888 0232 2E       		.uleb128 0x2e
 6889 0233 01       		.byte	0x1
 6890 0234 3F       		.uleb128 0x3f
 6891 0235 19       		.uleb128 0x19
 6892 0236 03       		.uleb128 0x3
 6893 0237 0E       		.uleb128 0xe
 6894 0238 3A       		.uleb128 0x3a
 6895 0239 0B       		.uleb128 0xb
 6896 023a 3B       		.uleb128 0x3b
 6897 023b 0B       		.uleb128 0xb
 6898 023c 27       		.uleb128 0x27
 6899 023d 19       		.uleb128 0x19
 6900 023e 49       		.uleb128 0x49
 6901 023f 13       		.uleb128 0x13
 6902 0240 3C       		.uleb128 0x3c
 6903 0241 19       		.uleb128 0x19
 6904 0242 01       		.uleb128 0x1
 6905 0243 13       		.uleb128 0x13
 6906 0244 00       		.byte	0
 6907 0245 00       		.byte	0
 6908 0246 26       		.uleb128 0x26
 6909 0247 26       		.uleb128 0x26
 6910 0248 00       		.byte	0
 6911 0249 00       		.byte	0
 6912 024a 00       		.byte	0
 6913 024b 27       		.uleb128 0x27
 6914 024c 2E       		.uleb128 0x2e
 6915 024d 01       		.byte	0x1
 6916 024e 3F       		.uleb128 0x3f
 6917 024f 19       		.uleb128 0x19
 6918 0250 03       		.uleb128 0x3
 6919 0251 0E       		.uleb128 0xe
 6920 0252 3A       		.uleb128 0x3a
 6921 0253 0B       		.uleb128 0xb
 6922 0254 3B       		.uleb128 0x3b
 6923 0255 0B       		.uleb128 0xb
 6924 0256 27       		.uleb128 0x27
 6925 0257 19       		.uleb128 0x19
 6926 0258 49       		.uleb128 0x49
 6927 0259 13       		.uleb128 0x13
 6928 025a 3C       		.uleb128 0x3c
 6929 025b 19       		.uleb128 0x19
 6930 025c 00       		.byte	0
 6931 025d 00       		.byte	0
 6932 025e 00       		.byte	0
 6933              		.section	.debug_loc,"",%progbits
 6934              	.Ldebug_loc0:
 6935              	.LLST0:
 6936 0000 00000000 		.4byte	.LVL2
 6937 0004 0E000000 		.4byte	.LVL3
 6938 0008 0100     		.2byte	0x1
 6939 000a 50       		.byte	0x50
 6940 000b 0E000000 		.4byte	.LVL3
 6941 000f 36000000 		.4byte	.LVL10
 6942 0013 0100     		.2byte	0x1
 6943 0015 55       		.byte	0x55
 6944 0016 36000000 		.4byte	.LVL10
ARM GAS  C:\Users\Administrator\AppData\Local\Temp\ccShlVUx.s 			page 145


 6945 001a 38000000 		.4byte	.LFE64
 6946 001e 0400     		.2byte	0x4
 6947 0020 F3       		.byte	0xf3
 6948 0021 01       		.uleb128 0x1
 6949 0022 50       		.byte	0x50
 6950 0023 9F       		.byte	0x9f
 6951 0024 00000000 		.4byte	0
 6952 0028 00000000 		.4byte	0
 6953              	.LLST1:
 6954 002c 14000000 		.4byte	.LVL4
 6955 0030 16000000 		.4byte	.LVL5
 6956 0034 0200     		.2byte	0x2
 6957 0036 30       		.byte	0x30
 6958 0037 9F       		.byte	0x9f
 6959 0038 1A000000 		.4byte	.LVL6
 6960 003c 28000000 		.4byte	.LVL7
 6961 0040 0100     		.2byte	0x1
 6962 0042 51       		.byte	0x51
 6963 0043 28000000 		.4byte	.LVL7
 6964 0047 2C000000 		.4byte	.LVL8
 6965 004b 0300     		.2byte	0x3
 6966 004d 73       		.byte	0x73
 6967 004e 01       		.sleb128 1
 6968 004f 9F       		.byte	0x9f
 6969 0050 2C000000 		.4byte	.LVL8
 6970 0054 34000000 		.4byte	.LVL9
 6971 0058 0300     		.2byte	0x3
 6972 005a 71       		.byte	0x71
 6973 005b 01       		.sleb128 1
 6974 005c 9F       		.byte	0x9f
 6975 005d 00000000 		.4byte	0
 6976 0061 00000000 		.4byte	0
 6977              	.LLST2:
 6978 0065 00000000 		.4byte	.LVL11
 6979 0069 0C000000 		.4byte	.LVL12
 6980 006d 0100     		.2byte	0x1
 6981 006f 50       		.byte	0x50
 6982 0070 0C000000 		.4byte	.LVL12
 6983 0074 22000000 		.4byte	.LFE65
 6984 0078 0400     		.2byte	0x4
 6985 007a F3       		.byte	0xf3
 6986 007b 01       		.uleb128 0x1
 6987 007c 50       		.byte	0x50
 6988 007d 9F       		.byte	0x9f
 6989 007e 00000000 		.4byte	0
 6990 0082 00000000 		.4byte	0
 6991              	.LLST3:
 6992 0086 12000000 		.4byte	.LVL15
 6993 008a 16000000 		.4byte	.LVL16
 6994 008e 0200     		.2byte	0x2
 6995 0090 30       		.byte	0x30
 6996 0091 9F       		.byte	0x9f
 6997 0092 16000000 		.4byte	.LVL16
 6998 0096 20000000 		.4byte	.LVL18
 6999 009a 0100     		.2byte	0x1
 7000 009c 53       		.byte	0x53
 7001 009d 20000000 		.4byte	.LVL18
ARM GAS  C:\Users\Administrator\AppData\Local\Temp\ccShlVUx.s 			page 146


 7002 00a1 24000000 		.4byte	.LVL19
 7003 00a5 0300     		.2byte	0x3
 7004 00a7 73       		.byte	0x73
 7005 00a8 01       		.sleb128 1
 7006 00a9 9F       		.byte	0x9f
 7007 00aa 00000000 		.4byte	0
 7008 00ae 00000000 		.4byte	0
 7009              	.LLST4:
 7010 00b2 00000000 		.4byte	.LVL14
 7011 00b6 16000000 		.4byte	.LVL16
 7012 00ba 0200     		.2byte	0x2
 7013 00bc 30       		.byte	0x30
 7014 00bd 9F       		.byte	0x9f
 7015 00be 16000000 		.4byte	.LVL16
 7016 00c2 1E000000 		.4byte	.LVL17
 7017 00c6 0100     		.2byte	0x1
 7018 00c8 50       		.byte	0x50
 7019 00c9 20000000 		.4byte	.LVL18
 7020 00cd 2E000000 		.4byte	.LFE66
 7021 00d1 0100     		.2byte	0x1
 7022 00d3 50       		.byte	0x50
 7023 00d4 00000000 		.4byte	0
 7024 00d8 00000000 		.4byte	0
 7025              	.LLST5:
 7026 00dc 00000000 		.4byte	.LVL20
 7027 00e0 0A000000 		.4byte	.LVL21
 7028 00e4 0100     		.2byte	0x1
 7029 00e6 50       		.byte	0x50
 7030 00e7 0A000000 		.4byte	.LVL21
 7031 00eb 12000000 		.4byte	.LFE67
 7032 00ef 0400     		.2byte	0x4
 7033 00f1 F3       		.byte	0xf3
 7034 00f2 01       		.uleb128 0x1
 7035 00f3 50       		.byte	0x50
 7036 00f4 9F       		.byte	0x9f
 7037 00f5 00000000 		.4byte	0
 7038 00f9 00000000 		.4byte	0
 7039              	.LLST6:
 7040 00fd 00000000 		.4byte	.LVL23
 7041 0101 08000000 		.4byte	.LVL24
 7042 0105 0100     		.2byte	0x1
 7043 0107 50       		.byte	0x50
 7044 0108 08000000 		.4byte	.LVL24
 7045 010c 14000000 		.4byte	.LFE68
 7046 0110 0400     		.2byte	0x4
 7047 0112 F3       		.byte	0xf3
 7048 0113 01       		.uleb128 0x1
 7049 0114 50       		.byte	0x50
 7050 0115 9F       		.byte	0x9f
 7051 0116 00000000 		.4byte	0
 7052 011a 00000000 		.4byte	0
 7053              	.LLST7:
 7054 011e 00000000 		.4byte	.LVL26
 7055 0122 12000000 		.4byte	.LVL28
 7056 0126 0100     		.2byte	0x1
 7057 0128 50       		.byte	0x50
 7058 0129 12000000 		.4byte	.LVL28
ARM GAS  C:\Users\Administrator\AppData\Local\Temp\ccShlVUx.s 			page 147


 7059 012d 18000000 		.4byte	.LFE69
 7060 0131 0400     		.2byte	0x4
 7061 0133 F3       		.byte	0xf3
 7062 0134 01       		.uleb128 0x1
 7063 0135 50       		.byte	0x50
 7064 0136 9F       		.byte	0x9f
 7065 0137 00000000 		.4byte	0
 7066 013b 00000000 		.4byte	0
 7067              	.LLST8:
 7068 013f 00000000 		.4byte	.LVL26
 7069 0143 0A000000 		.4byte	.LVL27
 7070 0147 0100     		.2byte	0x1
 7071 0149 51       		.byte	0x51
 7072 014a 0A000000 		.4byte	.LVL27
 7073 014e 16000000 		.4byte	.LVL30
 7074 0152 0100     		.2byte	0x1
 7075 0154 54       		.byte	0x54
 7076 0155 16000000 		.4byte	.LVL30
 7077 0159 18000000 		.4byte	.LFE69
 7078 015d 0400     		.2byte	0x4
 7079 015f F3       		.byte	0xf3
 7080 0160 01       		.uleb128 0x1
 7081 0161 51       		.byte	0x51
 7082 0162 9F       		.byte	0x9f
 7083 0163 00000000 		.4byte	0
 7084 0167 00000000 		.4byte	0
 7085              	.LLST9:
 7086 016b 00000000 		.4byte	.LVL31
 7087 016f 0C000000 		.4byte	.LVL32
 7088 0173 0100     		.2byte	0x1
 7089 0175 50       		.byte	0x50
 7090 0176 0C000000 		.4byte	.LVL32
 7091 017a 26000000 		.4byte	.LFE70
 7092 017e 0400     		.2byte	0x4
 7093 0180 F3       		.byte	0xf3
 7094 0181 01       		.uleb128 0x1
 7095 0182 50       		.byte	0x50
 7096 0183 9F       		.byte	0x9f
 7097 0184 00000000 		.4byte	0
 7098 0188 00000000 		.4byte	0
 7099              	.LLST10:
 7100 018c 00000000 		.4byte	.LVL35
 7101 0190 12000000 		.4byte	.LVL37
 7102 0194 0100     		.2byte	0x1
 7103 0196 50       		.byte	0x50
 7104 0197 12000000 		.4byte	.LVL37
 7105 019b 18000000 		.4byte	.LFE71
 7106 019f 0400     		.2byte	0x4
 7107 01a1 F3       		.byte	0xf3
 7108 01a2 01       		.uleb128 0x1
 7109 01a3 50       		.byte	0x50
 7110 01a4 9F       		.byte	0x9f
 7111 01a5 00000000 		.4byte	0
 7112 01a9 00000000 		.4byte	0
 7113              	.LLST11:
 7114 01ad 00000000 		.4byte	.LVL35
 7115 01b1 0A000000 		.4byte	.LVL36
ARM GAS  C:\Users\Administrator\AppData\Local\Temp\ccShlVUx.s 			page 148


 7116 01b5 0100     		.2byte	0x1
 7117 01b7 51       		.byte	0x51
 7118 01b8 0A000000 		.4byte	.LVL36
 7119 01bc 16000000 		.4byte	.LVL39
 7120 01c0 0100     		.2byte	0x1
 7121 01c2 54       		.byte	0x54
 7122 01c3 16000000 		.4byte	.LVL39
 7123 01c7 18000000 		.4byte	.LFE71
 7124 01cb 0400     		.2byte	0x4
 7125 01cd F3       		.byte	0xf3
 7126 01ce 01       		.uleb128 0x1
 7127 01cf 51       		.byte	0x51
 7128 01d0 9F       		.byte	0x9f
 7129 01d1 00000000 		.4byte	0
 7130 01d5 00000000 		.4byte	0
 7131              	.LLST12:
 7132 01d9 00000000 		.4byte	.LVL40
 7133 01dd 0E000000 		.4byte	.LVL42
 7134 01e1 0100     		.2byte	0x1
 7135 01e3 50       		.byte	0x50
 7136 01e4 0E000000 		.4byte	.LVL42
 7137 01e8 18000000 		.4byte	.LFE72
 7138 01ec 0400     		.2byte	0x4
 7139 01ee F3       		.byte	0xf3
 7140 01ef 01       		.uleb128 0x1
 7141 01f0 50       		.byte	0x50
 7142 01f1 9F       		.byte	0x9f
 7143 01f2 00000000 		.4byte	0
 7144 01f6 00000000 		.4byte	0
 7145              	.LLST13:
 7146 01fa 00000000 		.4byte	.LVL40
 7147 01fe 08000000 		.4byte	.LVL41
 7148 0202 0100     		.2byte	0x1
 7149 0204 51       		.byte	0x51
 7150 0205 08000000 		.4byte	.LVL41
 7151 0209 12000000 		.4byte	.LVL43
 7152 020d 0100     		.2byte	0x1
 7153 020f 52       		.byte	0x52
 7154 0210 12000000 		.4byte	.LVL43
 7155 0214 15000000 		.4byte	.LVL44-1
 7156 0218 0100     		.2byte	0x1
 7157 021a 50       		.byte	0x50
 7158 021b 15000000 		.4byte	.LVL44-1
 7159 021f 18000000 		.4byte	.LFE72
 7160 0223 0400     		.2byte	0x4
 7161 0225 F3       		.byte	0xf3
 7162 0226 01       		.uleb128 0x1
 7163 0227 51       		.byte	0x51
 7164 0228 9F       		.byte	0x9f
 7165 0229 00000000 		.4byte	0
 7166 022d 00000000 		.4byte	0
 7167              	.LLST14:
 7168 0231 00000000 		.4byte	.LVL45
 7169 0235 10000000 		.4byte	.LVL47
 7170 0239 0100     		.2byte	0x1
 7171 023b 50       		.byte	0x50
 7172 023c 10000000 		.4byte	.LVL47
ARM GAS  C:\Users\Administrator\AppData\Local\Temp\ccShlVUx.s 			page 149


 7173 0240 4A000000 		.4byte	.LVL56
 7174 0244 0100     		.2byte	0x1
 7175 0246 55       		.byte	0x55
 7176 0247 4A000000 		.4byte	.LVL56
 7177 024b 4C000000 		.4byte	.LFE73
 7178 024f 0400     		.2byte	0x4
 7179 0251 F3       		.byte	0xf3
 7180 0252 01       		.uleb128 0x1
 7181 0253 50       		.byte	0x50
 7182 0254 9F       		.byte	0x9f
 7183 0255 00000000 		.4byte	0
 7184 0259 00000000 		.4byte	0
 7185              	.LLST15:
 7186 025d 00000000 		.4byte	.LVL45
 7187 0261 0E000000 		.4byte	.LVL46
 7188 0265 0100     		.2byte	0x1
 7189 0267 51       		.byte	0x51
 7190 0268 0E000000 		.4byte	.LVL46
 7191 026c 4C000000 		.4byte	.LFE73
 7192 0270 0300     		.2byte	0x3
 7193 0272 91       		.byte	0x91
 7194 0273 E47B     		.sleb128 -540
 7195 0275 00000000 		.4byte	0
 7196 0279 00000000 		.4byte	0
 7197              	.LLST16:
 7198 027d 16000000 		.4byte	.LVL48
 7199 0281 18000000 		.4byte	.LVL49
 7200 0285 0200     		.2byte	0x2
 7201 0287 30       		.byte	0x30
 7202 0288 9F       		.byte	0x9f
 7203 0289 1C000000 		.4byte	.LVL50
 7204 028d 3C000000 		.4byte	.LVL53
 7205 0291 0100     		.2byte	0x1
 7206 0293 57       		.byte	0x57
 7207 0294 3C000000 		.4byte	.LVL53
 7208 0298 40000000 		.4byte	.LVL54
 7209 029c 0300     		.2byte	0x3
 7210 029e 74       		.byte	0x74
 7211 029f 01       		.sleb128 1
 7212 02a0 9F       		.byte	0x9f
 7213 02a1 40000000 		.4byte	.LVL54
 7214 02a5 48000000 		.4byte	.LVL55
 7215 02a9 0300     		.2byte	0x3
 7216 02ab 77       		.byte	0x77
 7217 02ac 01       		.sleb128 1
 7218 02ad 9F       		.byte	0x9f
 7219 02ae 00000000 		.4byte	0
 7220 02b2 00000000 		.4byte	0
 7221              	.LLST17:
 7222 02b6 32000000 		.4byte	.LVL52
 7223 02ba 3C000000 		.4byte	.LVL53
 7224 02be 0100     		.2byte	0x1
 7225 02c0 50       		.byte	0x50
 7226 02c1 00000000 		.4byte	0
 7227 02c5 00000000 		.4byte	0
 7228              	.LLST18:
 7229 02c9 00000000 		.4byte	.LVL57
ARM GAS  C:\Users\Administrator\AppData\Local\Temp\ccShlVUx.s 			page 150


 7230 02cd 0E000000 		.4byte	.LVL59
 7231 02d1 0100     		.2byte	0x1
 7232 02d3 50       		.byte	0x50
 7233 02d4 0E000000 		.4byte	.LVL59
 7234 02d8 18000000 		.4byte	.LFE74
 7235 02dc 0400     		.2byte	0x4
 7236 02de F3       		.byte	0xf3
 7237 02df 01       		.uleb128 0x1
 7238 02e0 50       		.byte	0x50
 7239 02e1 9F       		.byte	0x9f
 7240 02e2 00000000 		.4byte	0
 7241 02e6 00000000 		.4byte	0
 7242              	.LLST19:
 7243 02ea 00000000 		.4byte	.LVL57
 7244 02ee 08000000 		.4byte	.LVL58
 7245 02f2 0100     		.2byte	0x1
 7246 02f4 51       		.byte	0x51
 7247 02f5 08000000 		.4byte	.LVL58
 7248 02f9 12000000 		.4byte	.LVL60
 7249 02fd 0100     		.2byte	0x1
 7250 02ff 52       		.byte	0x52
 7251 0300 12000000 		.4byte	.LVL60
 7252 0304 15000000 		.4byte	.LVL61-1
 7253 0308 0100     		.2byte	0x1
 7254 030a 50       		.byte	0x50
 7255 030b 15000000 		.4byte	.LVL61-1
 7256 030f 18000000 		.4byte	.LFE74
 7257 0313 0400     		.2byte	0x4
 7258 0315 F3       		.byte	0xf3
 7259 0316 01       		.uleb128 0x1
 7260 0317 51       		.byte	0x51
 7261 0318 9F       		.byte	0x9f
 7262 0319 00000000 		.4byte	0
 7263 031d 00000000 		.4byte	0
 7264              	.LLST20:
 7265 0321 00000000 		.4byte	.LVL62
 7266 0325 0B000000 		.4byte	.LVL63-1
 7267 0329 0100     		.2byte	0x1
 7268 032b 50       		.byte	0x50
 7269 032c 0B000000 		.4byte	.LVL63-1
 7270 0330 32000000 		.4byte	.LFE75
 7271 0334 0400     		.2byte	0x4
 7272 0336 F3       		.byte	0xf3
 7273 0337 01       		.uleb128 0x1
 7274 0338 50       		.byte	0x50
 7275 0339 9F       		.byte	0x9f
 7276 033a 00000000 		.4byte	0
 7277 033e 00000000 		.4byte	0
 7278              	.LLST21:
 7279 0342 00000000 		.4byte	.LVL62
 7280 0346 0B000000 		.4byte	.LVL63-1
 7281 034a 0100     		.2byte	0x1
 7282 034c 51       		.byte	0x51
 7283 034d 0B000000 		.4byte	.LVL63-1
 7284 0351 30000000 		.4byte	.LVL67
 7285 0355 0100     		.2byte	0x1
 7286 0357 55       		.byte	0x55
ARM GAS  C:\Users\Administrator\AppData\Local\Temp\ccShlVUx.s 			page 151


 7287 0358 30000000 		.4byte	.LVL67
 7288 035c 32000000 		.4byte	.LFE75
 7289 0360 0400     		.2byte	0x4
 7290 0362 F3       		.byte	0xf3
 7291 0363 01       		.uleb128 0x1
 7292 0364 51       		.byte	0x51
 7293 0365 9F       		.byte	0x9f
 7294 0366 00000000 		.4byte	0
 7295 036a 00000000 		.4byte	0
 7296              	.LLST22:
 7297 036e 00000000 		.4byte	.LVL68
 7298 0372 0B000000 		.4byte	.LVL69-1
 7299 0376 0100     		.2byte	0x1
 7300 0378 50       		.byte	0x50
 7301 0379 0B000000 		.4byte	.LVL69-1
 7302 037d 28000000 		.4byte	.LFE76
 7303 0381 0400     		.2byte	0x4
 7304 0383 F3       		.byte	0xf3
 7305 0384 01       		.uleb128 0x1
 7306 0385 50       		.byte	0x50
 7307 0386 9F       		.byte	0x9f
 7308 0387 00000000 		.4byte	0
 7309 038b 00000000 		.4byte	0
 7310              	.LLST23:
 7311 038f 00000000 		.4byte	.LVL68
 7312 0393 0B000000 		.4byte	.LVL69-1
 7313 0397 0100     		.2byte	0x1
 7314 0399 51       		.byte	0x51
 7315 039a 0B000000 		.4byte	.LVL69-1
 7316 039e 26000000 		.4byte	.LVL72
 7317 03a2 0100     		.2byte	0x1
 7318 03a4 54       		.byte	0x54
 7319 03a5 26000000 		.4byte	.LVL72
 7320 03a9 28000000 		.4byte	.LFE76
 7321 03ad 0400     		.2byte	0x4
 7322 03af F3       		.byte	0xf3
 7323 03b0 01       		.uleb128 0x1
 7324 03b1 51       		.byte	0x51
 7325 03b2 9F       		.byte	0x9f
 7326 03b3 00000000 		.4byte	0
 7327 03b7 00000000 		.4byte	0
 7328              	.LLST24:
 7329 03bb 00000000 		.4byte	.LVL73
 7330 03bf 0B000000 		.4byte	.LVL74-1
 7331 03c3 0100     		.2byte	0x1
 7332 03c5 50       		.byte	0x50
 7333 03c6 0B000000 		.4byte	.LVL74-1
 7334 03ca 30000000 		.4byte	.LFE77
 7335 03ce 0400     		.2byte	0x4
 7336 03d0 F3       		.byte	0xf3
 7337 03d1 01       		.uleb128 0x1
 7338 03d2 50       		.byte	0x50
 7339 03d3 9F       		.byte	0x9f
 7340 03d4 00000000 		.4byte	0
 7341 03d8 00000000 		.4byte	0
 7342              	.LLST25:
 7343 03dc 00000000 		.4byte	.LVL81
ARM GAS  C:\Users\Administrator\AppData\Local\Temp\ccShlVUx.s 			page 152


 7344 03e0 0C000000 		.4byte	.LVL82
 7345 03e4 0100     		.2byte	0x1
 7346 03e6 50       		.byte	0x50
 7347 03e7 0C000000 		.4byte	.LVL82
 7348 03eb 44000000 		.4byte	.LVL87
 7349 03ef 0100     		.2byte	0x1
 7350 03f1 56       		.byte	0x56
 7351 03f2 44000000 		.4byte	.LVL87
 7352 03f6 46000000 		.4byte	.LFE79
 7353 03fa 0400     		.2byte	0x4
 7354 03fc F3       		.byte	0xf3
 7355 03fd 01       		.uleb128 0x1
 7356 03fe 50       		.byte	0x50
 7357 03ff 9F       		.byte	0x9f
 7358 0400 00000000 		.4byte	0
 7359 0404 00000000 		.4byte	0
 7360              	.LLST26:
 7361 0408 00000000 		.4byte	.LVL88
 7362 040c 0C000000 		.4byte	.LVL89
 7363 0410 0100     		.2byte	0x1
 7364 0412 50       		.byte	0x50
 7365 0413 0C000000 		.4byte	.LVL89
 7366 0417 11000000 		.4byte	.LVL90-1
 7367 041b 0100     		.2byte	0x1
 7368 041d 51       		.byte	0x51
 7369 041e 11000000 		.4byte	.LVL90-1
 7370 0422 2E000000 		.4byte	.LFE80
 7371 0426 0400     		.2byte	0x4
 7372 0428 F3       		.byte	0xf3
 7373 0429 01       		.uleb128 0x1
 7374 042a 50       		.byte	0x50
 7375 042b 9F       		.byte	0x9f
 7376 042c 00000000 		.4byte	0
 7377 0430 00000000 		.4byte	0
 7378              	.LLST27:
 7379 0434 00000000 		.4byte	.LVL93
 7380 0438 0C000000 		.4byte	.LVL94
 7381 043c 0100     		.2byte	0x1
 7382 043e 50       		.byte	0x50
 7383 043f 0C000000 		.4byte	.LVL94
 7384 0443 5C000000 		.4byte	.LVL97
 7385 0447 0100     		.2byte	0x1
 7386 0449 54       		.byte	0x54
 7387 044a 5C000000 		.4byte	.LVL97
 7388 044e 5E000000 		.4byte	.LFE82
 7389 0452 0400     		.2byte	0x4
 7390 0454 F3       		.byte	0xf3
 7391 0455 01       		.uleb128 0x1
 7392 0456 50       		.byte	0x50
 7393 0457 9F       		.byte	0x9f
 7394 0458 00000000 		.4byte	0
 7395 045c 00000000 		.4byte	0
 7396              	.LLST28:
 7397 0460 00000000 		.4byte	.LVL98
 7398 0464 09000000 		.4byte	.LVL100-1
 7399 0468 0100     		.2byte	0x1
 7400 046a 50       		.byte	0x50
ARM GAS  C:\Users\Administrator\AppData\Local\Temp\ccShlVUx.s 			page 153


 7401 046b 09000000 		.4byte	.LVL100-1
 7402 046f 44000000 		.4byte	.LFE83
 7403 0473 0400     		.2byte	0x4
 7404 0475 F3       		.byte	0xf3
 7405 0476 01       		.uleb128 0x1
 7406 0477 50       		.byte	0x50
 7407 0478 9F       		.byte	0x9f
 7408 0479 00000000 		.4byte	0
 7409 047d 00000000 		.4byte	0
 7410              	.LLST29:
 7411 0481 00000000 		.4byte	.LVL98
 7412 0485 06000000 		.4byte	.LVL99
 7413 0489 0100     		.2byte	0x1
 7414 048b 51       		.byte	0x51
 7415 048c 06000000 		.4byte	.LVL99
 7416 0490 44000000 		.4byte	.LFE83
 7417 0494 0400     		.2byte	0x4
 7418 0496 F3       		.byte	0xf3
 7419 0497 01       		.uleb128 0x1
 7420 0498 51       		.byte	0x51
 7421 0499 9F       		.byte	0x9f
 7422 049a 00000000 		.4byte	0
 7423 049e 00000000 		.4byte	0
 7424              	.LLST30:
 7425 04a2 00000000 		.4byte	.LVL98
 7426 04a6 09000000 		.4byte	.LVL100-1
 7427 04aa 0700     		.2byte	0x7
 7428 04ac 70       		.byte	0x70
 7429 04ad 00       		.sleb128 0
 7430 04ae 0A       		.byte	0xa
 7431 04af 8813     		.2byte	0x1388
 7432 04b1 1D       		.byte	0x1d
 7433 04b2 9F       		.byte	0x9f
 7434 04b3 09000000 		.4byte	.LVL100-1
 7435 04b7 44000000 		.4byte	.LFE83
 7436 04bb 0800     		.2byte	0x8
 7437 04bd F3       		.byte	0xf3
 7438 04be 01       		.uleb128 0x1
 7439 04bf 50       		.byte	0x50
 7440 04c0 0A       		.byte	0xa
 7441 04c1 8813     		.2byte	0x1388
 7442 04c3 1D       		.byte	0x1d
 7443 04c4 9F       		.byte	0x9f
 7444 04c5 00000000 		.4byte	0
 7445 04c9 00000000 		.4byte	0
 7446              	.LLST31:
 7447 04cd 00000000 		.4byte	.LVL103
 7448 04d1 0B000000 		.4byte	.LVL104-1
 7449 04d5 0100     		.2byte	0x1
 7450 04d7 50       		.byte	0x50
 7451 04d8 0B000000 		.4byte	.LVL104-1
 7452 04dc 28000000 		.4byte	.LFE84
 7453 04e0 0400     		.2byte	0x4
 7454 04e2 F3       		.byte	0xf3
 7455 04e3 01       		.uleb128 0x1
 7456 04e4 50       		.byte	0x50
 7457 04e5 9F       		.byte	0x9f
ARM GAS  C:\Users\Administrator\AppData\Local\Temp\ccShlVUx.s 			page 154


 7458 04e6 00000000 		.4byte	0
 7459 04ea 00000000 		.4byte	0
 7460              	.LLST32:
 7461 04ee 00000000 		.4byte	.LVL103
 7462 04f2 0B000000 		.4byte	.LVL104-1
 7463 04f6 0700     		.2byte	0x7
 7464 04f8 70       		.byte	0x70
 7465 04f9 00       		.sleb128 0
 7466 04fa 0A       		.byte	0xa
 7467 04fb 8813     		.2byte	0x1388
 7468 04fd 1D       		.byte	0x1d
 7469 04fe 9F       		.byte	0x9f
 7470 04ff 0B000000 		.4byte	.LVL104-1
 7471 0503 28000000 		.4byte	.LFE84
 7472 0507 0800     		.2byte	0x8
 7473 0509 F3       		.byte	0xf3
 7474 050a 01       		.uleb128 0x1
 7475 050b 50       		.byte	0x50
 7476 050c 0A       		.byte	0xa
 7477 050d 8813     		.2byte	0x1388
 7478 050f 1D       		.byte	0x1d
 7479 0510 9F       		.byte	0x9f
 7480 0511 00000000 		.4byte	0
 7481 0515 00000000 		.4byte	0
 7482              	.LLST33:
 7483 0519 00000000 		.4byte	.LVL106
 7484 051d 0D000000 		.4byte	.LVL109-1
 7485 0521 0100     		.2byte	0x1
 7486 0523 50       		.byte	0x50
 7487 0524 0D000000 		.4byte	.LVL109-1
 7488 0528 24000000 		.4byte	.LFE85
 7489 052c 0400     		.2byte	0x4
 7490 052e F3       		.byte	0xf3
 7491 052f 01       		.uleb128 0x1
 7492 0530 50       		.byte	0x50
 7493 0531 9F       		.byte	0x9f
 7494 0532 00000000 		.4byte	0
 7495 0536 00000000 		.4byte	0
 7496              	.LLST34:
 7497 053a 00000000 		.4byte	.LVL106
 7498 053e 08000000 		.4byte	.LVL107
 7499 0542 0100     		.2byte	0x1
 7500 0544 51       		.byte	0x51
 7501 0545 08000000 		.4byte	.LVL107
 7502 0549 0A000000 		.4byte	.LVL108
 7503 054d 0200     		.2byte	0x2
 7504 054f 73       		.byte	0x73
 7505 0550 07       		.sleb128 7
 7506 0551 0A000000 		.4byte	.LVL108
 7507 0555 0D000000 		.4byte	.LVL109-1
 7508 0559 0200     		.2byte	0x2
 7509 055b 74       		.byte	0x74
 7510 055c 00       		.sleb128 0
 7511 055d 0D000000 		.4byte	.LVL109-1
 7512 0561 24000000 		.4byte	.LFE85
 7513 0565 0400     		.2byte	0x4
 7514 0567 F3       		.byte	0xf3
ARM GAS  C:\Users\Administrator\AppData\Local\Temp\ccShlVUx.s 			page 155


 7515 0568 01       		.uleb128 0x1
 7516 0569 51       		.byte	0x51
 7517 056a 9F       		.byte	0x9f
 7518 056b 00000000 		.4byte	0
 7519 056f 00000000 		.4byte	0
 7520              	.LLST35:
 7521 0573 00000000 		.4byte	.LVL106
 7522 0577 0D000000 		.4byte	.LVL109-1
 7523 057b 0700     		.2byte	0x7
 7524 057d 70       		.byte	0x70
 7525 057e 00       		.sleb128 0
 7526 057f 0A       		.byte	0xa
 7527 0580 8813     		.2byte	0x1388
 7528 0582 1D       		.byte	0x1d
 7529 0583 9F       		.byte	0x9f
 7530 0584 0D000000 		.4byte	.LVL109-1
 7531 0588 24000000 		.4byte	.LFE85
 7532 058c 0800     		.2byte	0x8
 7533 058e F3       		.byte	0xf3
 7534 058f 01       		.uleb128 0x1
 7535 0590 50       		.byte	0x50
 7536 0591 0A       		.byte	0xa
 7537 0592 8813     		.2byte	0x1388
 7538 0594 1D       		.byte	0x1d
 7539 0595 9F       		.byte	0x9f
 7540 0596 00000000 		.4byte	0
 7541 059a 00000000 		.4byte	0
 7542              	.LLST36:
 7543 059e 00000000 		.4byte	.LVL111
 7544 05a2 0B000000 		.4byte	.LVL112-1
 7545 05a6 0100     		.2byte	0x1
 7546 05a8 50       		.byte	0x50
 7547 05a9 0B000000 		.4byte	.LVL112-1
 7548 05ad 28000000 		.4byte	.LFE86
 7549 05b1 0400     		.2byte	0x4
 7550 05b3 F3       		.byte	0xf3
 7551 05b4 01       		.uleb128 0x1
 7552 05b5 50       		.byte	0x50
 7553 05b6 9F       		.byte	0x9f
 7554 05b7 00000000 		.4byte	0
 7555 05bb 00000000 		.4byte	0
 7556              	.LLST37:
 7557 05bf 00000000 		.4byte	.LVL111
 7558 05c3 0B000000 		.4byte	.LVL112-1
 7559 05c7 0700     		.2byte	0x7
 7560 05c9 70       		.byte	0x70
 7561 05ca 00       		.sleb128 0
 7562 05cb 0A       		.byte	0xa
 7563 05cc 8813     		.2byte	0x1388
 7564 05ce 1D       		.byte	0x1d
 7565 05cf 9F       		.byte	0x9f
 7566 05d0 0B000000 		.4byte	.LVL112-1
 7567 05d4 28000000 		.4byte	.LFE86
 7568 05d8 0800     		.2byte	0x8
 7569 05da F3       		.byte	0xf3
 7570 05db 01       		.uleb128 0x1
 7571 05dc 50       		.byte	0x50
ARM GAS  C:\Users\Administrator\AppData\Local\Temp\ccShlVUx.s 			page 156


 7572 05dd 0A       		.byte	0xa
 7573 05de 8813     		.2byte	0x1388
 7574 05e0 1D       		.byte	0x1d
 7575 05e1 9F       		.byte	0x9f
 7576 05e2 00000000 		.4byte	0
 7577 05e6 00000000 		.4byte	0
 7578              	.LLST38:
 7579 05ea 00000000 		.4byte	.LVL114
 7580 05ee 10000000 		.4byte	.LVL115
 7581 05f2 0100     		.2byte	0x1
 7582 05f4 50       		.byte	0x50
 7583 05f5 10000000 		.4byte	.LVL115
 7584 05f9 18000000 		.4byte	.LFE87
 7585 05fd 0400     		.2byte	0x4
 7586 05ff F3       		.byte	0xf3
 7587 0600 01       		.uleb128 0x1
 7588 0601 50       		.byte	0x50
 7589 0602 9F       		.byte	0x9f
 7590 0603 00000000 		.4byte	0
 7591 0607 00000000 		.4byte	0
 7592              	.LLST39:
 7593 060b 00000000 		.4byte	.LVL118
 7594 060f 0D000000 		.4byte	.LVL119-1
 7595 0613 0100     		.2byte	0x1
 7596 0615 50       		.byte	0x50
 7597 0616 0D000000 		.4byte	.LVL119-1
 7598 061a 6C000000 		.4byte	.LFE89
 7599 061e 0200     		.2byte	0x2
 7600 0620 91       		.byte	0x91
 7601 0621 4C       		.sleb128 -52
 7602 0622 00000000 		.4byte	0
 7603 0626 00000000 		.4byte	0
 7604              	.LLST40:
 7605 062a 00000000 		.4byte	.LVL118
 7606 062e 0D000000 		.4byte	.LVL119-1
 7607 0632 0100     		.2byte	0x1
 7608 0634 51       		.byte	0x51
 7609 0635 0D000000 		.4byte	.LVL119-1
 7610 0639 6C000000 		.4byte	.LFE89
 7611 063d 0400     		.2byte	0x4
 7612 063f F3       		.byte	0xf3
 7613 0640 01       		.uleb128 0x1
 7614 0641 51       		.byte	0x51
 7615 0642 9F       		.byte	0x9f
 7616 0643 00000000 		.4byte	0
 7617 0647 00000000 		.4byte	0
 7618              	.LLST41:
 7619 064b 12000000 		.4byte	.LVL120
 7620 064f 50000000 		.4byte	.LVL125
 7621 0653 0100     		.2byte	0x1
 7622 0655 54       		.byte	0x54
 7623 0656 00000000 		.4byte	0
 7624 065a 00000000 		.4byte	0
 7625              	.LLST42:
 7626 065e 12000000 		.4byte	.LVL120
 7627 0662 50000000 		.4byte	.LVL125
 7628 0666 0700     		.2byte	0x7
ARM GAS  C:\Users\Administrator\AppData\Local\Temp\ccShlVUx.s 			page 157


 7629 0668 74       		.byte	0x74
 7630 0669 00       		.sleb128 0
 7631 066a 0A       		.byte	0xa
 7632 066b 8813     		.2byte	0x1388
 7633 066d 1D       		.byte	0x1d
 7634 066e 9F       		.byte	0x9f
 7635 066f 00000000 		.4byte	0
 7636 0673 00000000 		.4byte	0
 7637              	.LLST43:
 7638 0677 00000000 		.4byte	.LVL128
 7639 067b 0E000000 		.4byte	.LVL129
 7640 067f 0100     		.2byte	0x1
 7641 0681 50       		.byte	0x50
 7642 0682 0E000000 		.4byte	.LVL129
 7643 0686 64000000 		.4byte	.LFE90
 7644 068a 0400     		.2byte	0x4
 7645 068c F3       		.byte	0xf3
 7646 068d 01       		.uleb128 0x1
 7647 068e 50       		.byte	0x50
 7648 068f 9F       		.byte	0x9f
 7649 0690 00000000 		.4byte	0
 7650 0694 00000000 		.4byte	0
 7651              	.LLST44:
 7652 0698 00000000 		.4byte	.LVL128
 7653 069c 10000000 		.4byte	.LVL130
 7654 06a0 0100     		.2byte	0x1
 7655 06a2 51       		.byte	0x51
 7656 06a3 10000000 		.4byte	.LVL130
 7657 06a7 5A000000 		.4byte	.LVL142
 7658 06ab 0100     		.2byte	0x1
 7659 06ad 55       		.byte	0x55
 7660 06ae 5A000000 		.4byte	.LVL142
 7661 06b2 64000000 		.4byte	.LFE90
 7662 06b6 0400     		.2byte	0x4
 7663 06b8 F3       		.byte	0xf3
 7664 06b9 01       		.uleb128 0x1
 7665 06ba 51       		.byte	0x51
 7666 06bb 9F       		.byte	0x9f
 7667 06bc 00000000 		.4byte	0
 7668 06c0 00000000 		.4byte	0
 7669              	.LLST45:
 7670 06c4 14000000 		.4byte	.LVL131
 7671 06c8 1E000000 		.4byte	.LVL133
 7672 06cc 0700     		.2byte	0x7
 7673 06ce 74       		.byte	0x74
 7674 06cf 00       		.sleb128 0
 7675 06d0 0A       		.byte	0xa
 7676 06d1 8813     		.2byte	0x1388
 7677 06d3 1D       		.byte	0x1d
 7678 06d4 9F       		.byte	0x9f
 7679 06d5 00000000 		.4byte	0
 7680 06d9 00000000 		.4byte	0
 7681              	.LLST46:
 7682 06dd 14000000 		.4byte	.LVL131
 7683 06e1 20000000 		.4byte	.LVL134
 7684 06e5 0200     		.2byte	0x2
 7685 06e7 30       		.byte	0x30
ARM GAS  C:\Users\Administrator\AppData\Local\Temp\ccShlVUx.s 			page 158


 7686 06e8 9F       		.byte	0x9f
 7687 06e9 20000000 		.4byte	.LVL134
 7688 06ed 2C000000 		.4byte	.LVL136
 7689 06f1 0100     		.2byte	0x1
 7690 06f3 54       		.byte	0x54
 7691 06f4 2C000000 		.4byte	.LVL136
 7692 06f8 38000000 		.4byte	.LVL137
 7693 06fc 0300     		.2byte	0x3
 7694 06fe 74       		.byte	0x74
 7695 06ff 01       		.sleb128 1
 7696 0700 9F       		.byte	0x9f
 7697 0701 38000000 		.4byte	.LVL137
 7698 0705 42000000 		.4byte	.LVL138
 7699 0709 0100     		.2byte	0x1
 7700 070b 54       		.byte	0x54
 7701 070c 00000000 		.4byte	0
 7702 0710 00000000 		.4byte	0
 7703              	.LLST47:
 7704 0714 00000000 		.4byte	.LVL143
 7705 0718 07000000 		.4byte	.LVL144-1
 7706 071c 0100     		.2byte	0x1
 7707 071e 50       		.byte	0x50
 7708 071f 07000000 		.4byte	.LVL144-1
 7709 0723 86000000 		.4byte	.LVL158
 7710 0727 0100     		.2byte	0x1
 7711 0729 56       		.byte	0x56
 7712 072a 86000000 		.4byte	.LVL158
 7713 072e 94000000 		.4byte	.LFE91
 7714 0732 0400     		.2byte	0x4
 7715 0734 F3       		.byte	0xf3
 7716 0735 01       		.uleb128 0x1
 7717 0736 50       		.byte	0x50
 7718 0737 9F       		.byte	0x9f
 7719 0738 00000000 		.4byte	0
 7720 073c 00000000 		.4byte	0
 7721              	.LLST48:
 7722 0740 18000000 		.4byte	.LVL146
 7723 0744 42000000 		.4byte	.LVL148
 7724 0748 0100     		.2byte	0x1
 7725 074a 54       		.byte	0x54
 7726 074b 44000000 		.4byte	.LVL149
 7727 074f 4C000000 		.4byte	.LVL151
 7728 0753 0100     		.2byte	0x1
 7729 0755 54       		.byte	0x54
 7730 0756 52000000 		.4byte	.LVL152
 7731 075a 80000000 		.4byte	.LVL154
 7732 075e 0100     		.2byte	0x1
 7733 0760 54       		.byte	0x54
 7734 0761 80000000 		.4byte	.LVL154
 7735 0765 82000000 		.4byte	.LVL155
 7736 0769 0300     		.2byte	0x3
 7737 076b 74       		.byte	0x74
 7738 076c 7F       		.sleb128 -1
 7739 076d 9F       		.byte	0x9f
 7740 076e 82000000 		.4byte	.LVL155
 7741 0772 84000000 		.4byte	.LVL156
 7742 0776 0100     		.2byte	0x1
ARM GAS  C:\Users\Administrator\AppData\Local\Temp\ccShlVUx.s 			page 159


 7743 0778 54       		.byte	0x54
 7744 0779 00000000 		.4byte	0
 7745 077d 00000000 		.4byte	0
 7746              	.LLST49:
 7747 0781 0A000000 		.4byte	.LVL145
 7748 0785 86000000 		.4byte	.LVL157
 7749 0789 0100     		.2byte	0x1
 7750 078b 55       		.byte	0x55
 7751 078c 00000000 		.4byte	0
 7752 0790 00000000 		.4byte	0
 7753              	.LLST50:
 7754 0794 20000000 		.4byte	.LVL147
 7755 0798 48000000 		.4byte	.LVL150
 7756 079c 2600     		.2byte	0x26
 7757 079e 91       		.byte	0x91
 7758 079f 68       		.sleb128 -24
 7759 07a0 94       		.byte	0x94
 7760 07a1 01       		.byte	0x1
 7761 07a2 08       		.byte	0x8
 7762 07a3 FF       		.byte	0xff
 7763 07a4 1A       		.byte	0x1a
 7764 07a5 48       		.byte	0x48
 7765 07a6 24       		.byte	0x24
 7766 07a7 91       		.byte	0x91
 7767 07a8 69       		.sleb128 -23
 7768 07a9 94       		.byte	0x94
 7769 07aa 01       		.byte	0x1
 7770 07ab 08       		.byte	0x8
 7771 07ac FF       		.byte	0xff
 7772 07ad 1A       		.byte	0x1a
 7773 07ae 40       		.byte	0x40
 7774 07af 24       		.byte	0x24
 7775 07b0 21       		.byte	0x21
 7776 07b1 91       		.byte	0x91
 7777 07b2 6A       		.sleb128 -22
 7778 07b3 94       		.byte	0x94
 7779 07b4 01       		.byte	0x1
 7780 07b5 08       		.byte	0x8
 7781 07b6 FF       		.byte	0xff
 7782 07b7 1A       		.byte	0x1a
 7783 07b8 38       		.byte	0x38
 7784 07b9 24       		.byte	0x24
 7785 07ba 21       		.byte	0x21
 7786 07bb 91       		.byte	0x91
 7787 07bc 6B       		.sleb128 -21
 7788 07bd 94       		.byte	0x94
 7789 07be 01       		.byte	0x1
 7790 07bf 08       		.byte	0x8
 7791 07c0 FF       		.byte	0xff
 7792 07c1 1A       		.byte	0x1a
 7793 07c2 21       		.byte	0x21
 7794 07c3 9F       		.byte	0x9f
 7795 07c4 5E000000 		.4byte	.LVL153
 7796 07c8 82000000 		.4byte	.LVL155
 7797 07cc 2600     		.2byte	0x26
 7798 07ce 91       		.byte	0x91
 7799 07cf 68       		.sleb128 -24
ARM GAS  C:\Users\Administrator\AppData\Local\Temp\ccShlVUx.s 			page 160


 7800 07d0 94       		.byte	0x94
 7801 07d1 01       		.byte	0x1
 7802 07d2 08       		.byte	0x8
 7803 07d3 FF       		.byte	0xff
 7804 07d4 1A       		.byte	0x1a
 7805 07d5 48       		.byte	0x48
 7806 07d6 24       		.byte	0x24
 7807 07d7 91       		.byte	0x91
 7808 07d8 69       		.sleb128 -23
 7809 07d9 94       		.byte	0x94
 7810 07da 01       		.byte	0x1
 7811 07db 08       		.byte	0x8
 7812 07dc FF       		.byte	0xff
 7813 07dd 1A       		.byte	0x1a
 7814 07de 40       		.byte	0x40
 7815 07df 24       		.byte	0x24
 7816 07e0 21       		.byte	0x21
 7817 07e1 91       		.byte	0x91
 7818 07e2 6A       		.sleb128 -22
 7819 07e3 94       		.byte	0x94
 7820 07e4 01       		.byte	0x1
 7821 07e5 08       		.byte	0x8
 7822 07e6 FF       		.byte	0xff
 7823 07e7 1A       		.byte	0x1a
 7824 07e8 38       		.byte	0x38
 7825 07e9 24       		.byte	0x24
 7826 07ea 21       		.byte	0x21
 7827 07eb 91       		.byte	0x91
 7828 07ec 6B       		.sleb128 -21
 7829 07ed 94       		.byte	0x94
 7830 07ee 01       		.byte	0x1
 7831 07ef 08       		.byte	0x8
 7832 07f0 FF       		.byte	0xff
 7833 07f1 1A       		.byte	0x1a
 7834 07f2 21       		.byte	0x21
 7835 07f3 9F       		.byte	0x9f
 7836 07f4 00000000 		.4byte	0
 7837 07f8 00000000 		.4byte	0
 7838              	.LLST51:
 7839 07fc 00000000 		.4byte	.LVL159
 7840 0800 07000000 		.4byte	.LVL160-1
 7841 0804 0100     		.2byte	0x1
 7842 0806 50       		.byte	0x50
 7843 0807 07000000 		.4byte	.LVL160-1
 7844 080b 84000000 		.4byte	.LVL171
 7845 080f 0100     		.2byte	0x1
 7846 0811 55       		.byte	0x55
 7847 0812 84000000 		.4byte	.LVL171
 7848 0816 94000000 		.4byte	.LFE92
 7849 081a 0400     		.2byte	0x4
 7850 081c F3       		.byte	0xf3
 7851 081d 01       		.uleb128 0x1
 7852 081e 50       		.byte	0x50
 7853 081f 9F       		.byte	0x9f
 7854 0820 00000000 		.4byte	0
 7855 0824 00000000 		.4byte	0
 7856              	.LLST52:
ARM GAS  C:\Users\Administrator\AppData\Local\Temp\ccShlVUx.s 			page 161


 7857 0828 1A000000 		.4byte	.LVL162
 7858 082c 44000000 		.4byte	.LVL164
 7859 0830 0100     		.2byte	0x1
 7860 0832 54       		.byte	0x54
 7861 0833 46000000 		.4byte	.LVL165
 7862 0837 72000000 		.4byte	.LVL168
 7863 083b 0100     		.2byte	0x1
 7864 083d 54       		.byte	0x54
 7865 083e 74000000 		.4byte	.LVL169
 7866 0842 82000000 		.4byte	.LVL170
 7867 0846 0100     		.2byte	0x1
 7868 0848 54       		.byte	0x54
 7869 0849 00000000 		.4byte	0
 7870 084d 00000000 		.4byte	0
 7871              	.LLST53:
 7872 0851 0A000000 		.4byte	.LVL161
 7873 0855 84000000 		.4byte	.LVL172
 7874 0859 0100     		.2byte	0x1
 7875 085b 56       		.byte	0x56
 7876 085c 00000000 		.4byte	0
 7877 0860 00000000 		.4byte	0
 7878              	.LLST54:
 7879 0864 22000000 		.4byte	.LVL163
 7880 0868 48000000 		.4byte	.LVL166
 7881 086c 2600     		.2byte	0x26
 7882 086e 91       		.byte	0x91
 7883 086f 68       		.sleb128 -24
 7884 0870 94       		.byte	0x94
 7885 0871 01       		.byte	0x1
 7886 0872 08       		.byte	0x8
 7887 0873 FF       		.byte	0xff
 7888 0874 1A       		.byte	0x1a
 7889 0875 48       		.byte	0x48
 7890 0876 24       		.byte	0x24
 7891 0877 91       		.byte	0x91
 7892 0878 69       		.sleb128 -23
 7893 0879 94       		.byte	0x94
 7894 087a 01       		.byte	0x1
 7895 087b 08       		.byte	0x8
 7896 087c FF       		.byte	0xff
 7897 087d 1A       		.byte	0x1a
 7898 087e 40       		.byte	0x40
 7899 087f 24       		.byte	0x24
 7900 0880 21       		.byte	0x21
 7901 0881 91       		.byte	0x91
 7902 0882 6A       		.sleb128 -22
 7903 0883 94       		.byte	0x94
 7904 0884 01       		.byte	0x1
 7905 0885 08       		.byte	0x8
 7906 0886 FF       		.byte	0xff
 7907 0887 1A       		.byte	0x1a
 7908 0888 38       		.byte	0x38
 7909 0889 24       		.byte	0x24
 7910 088a 21       		.byte	0x21
 7911 088b 91       		.byte	0x91
 7912 088c 6B       		.sleb128 -21
 7913 088d 94       		.byte	0x94
ARM GAS  C:\Users\Administrator\AppData\Local\Temp\ccShlVUx.s 			page 162


 7914 088e 01       		.byte	0x1
 7915 088f 08       		.byte	0x8
 7916 0890 FF       		.byte	0xff
 7917 0891 1A       		.byte	0x1a
 7918 0892 21       		.byte	0x21
 7919 0893 9F       		.byte	0x9f
 7920 0894 50000000 		.4byte	.LVL167
 7921 0898 74000000 		.4byte	.LVL169
 7922 089c 2600     		.2byte	0x26
 7923 089e 91       		.byte	0x91
 7924 089f 68       		.sleb128 -24
 7925 08a0 94       		.byte	0x94
 7926 08a1 01       		.byte	0x1
 7927 08a2 08       		.byte	0x8
 7928 08a3 FF       		.byte	0xff
 7929 08a4 1A       		.byte	0x1a
 7930 08a5 48       		.byte	0x48
 7931 08a6 24       		.byte	0x24
 7932 08a7 91       		.byte	0x91
 7933 08a8 69       		.sleb128 -23
 7934 08a9 94       		.byte	0x94
 7935 08aa 01       		.byte	0x1
 7936 08ab 08       		.byte	0x8
 7937 08ac FF       		.byte	0xff
 7938 08ad 1A       		.byte	0x1a
 7939 08ae 40       		.byte	0x40
 7940 08af 24       		.byte	0x24
 7941 08b0 21       		.byte	0x21
 7942 08b1 91       		.byte	0x91
 7943 08b2 6A       		.sleb128 -22
 7944 08b3 94       		.byte	0x94
 7945 08b4 01       		.byte	0x1
 7946 08b5 08       		.byte	0x8
 7947 08b6 FF       		.byte	0xff
 7948 08b7 1A       		.byte	0x1a
 7949 08b8 38       		.byte	0x38
 7950 08b9 24       		.byte	0x24
 7951 08ba 21       		.byte	0x21
 7952 08bb 91       		.byte	0x91
 7953 08bc 6B       		.sleb128 -21
 7954 08bd 94       		.byte	0x94
 7955 08be 01       		.byte	0x1
 7956 08bf 08       		.byte	0x8
 7957 08c0 FF       		.byte	0xff
 7958 08c1 1A       		.byte	0x1a
 7959 08c2 21       		.byte	0x21
 7960 08c3 9F       		.byte	0x9f
 7961 08c4 00000000 		.4byte	0
 7962 08c8 00000000 		.4byte	0
 7963              	.LLST55:
 7964 08cc 00000000 		.4byte	.LVL173
 7965 08d0 09000000 		.4byte	.LVL174-1
 7966 08d4 0100     		.2byte	0x1
 7967 08d6 50       		.byte	0x50
 7968 08d7 09000000 		.4byte	.LVL174-1
 7969 08db 0E000000 		.4byte	.LVL176
 7970 08df 0100     		.2byte	0x1
ARM GAS  C:\Users\Administrator\AppData\Local\Temp\ccShlVUx.s 			page 163


 7971 08e1 55       		.byte	0x55
 7972 08e2 0E000000 		.4byte	.LVL176
 7973 08e6 12000000 		.4byte	.LVL177
 7974 08ea 0400     		.2byte	0x4
 7975 08ec F3       		.byte	0xf3
 7976 08ed 01       		.uleb128 0x1
 7977 08ee 50       		.byte	0x50
 7978 08ef 9F       		.byte	0x9f
 7979 08f0 12000000 		.4byte	.LVL177
 7980 08f4 1A000000 		.4byte	.LVL180
 7981 08f8 0100     		.2byte	0x1
 7982 08fa 55       		.byte	0x55
 7983 08fb 1A000000 		.4byte	.LVL180
 7984 08ff 3C000000 		.4byte	.LFE93
 7985 0903 0400     		.2byte	0x4
 7986 0905 F3       		.byte	0xf3
 7987 0906 01       		.uleb128 0x1
 7988 0907 50       		.byte	0x50
 7989 0908 9F       		.byte	0x9f
 7990 0909 00000000 		.4byte	0
 7991 090d 00000000 		.4byte	0
 7992              	.LLST56:
 7993 0911 00000000 		.4byte	.LVL173
 7994 0915 09000000 		.4byte	.LVL174-1
 7995 0919 0100     		.2byte	0x1
 7996 091b 51       		.byte	0x51
 7997 091c 09000000 		.4byte	.LVL174-1
 7998 0920 34000000 		.4byte	.LVL186
 7999 0924 0100     		.2byte	0x1
 8000 0926 56       		.byte	0x56
 8001 0927 34000000 		.4byte	.LVL186
 8002 092b 3C000000 		.4byte	.LFE93
 8003 092f 0400     		.2byte	0x4
 8004 0931 F3       		.byte	0xf3
 8005 0932 01       		.uleb128 0x1
 8006 0933 51       		.byte	0x51
 8007 0934 9F       		.byte	0x9f
 8008 0935 00000000 		.4byte	0
 8009 0939 00000000 		.4byte	0
 8010              	.LLST57:
 8011 093d 1A000000 		.4byte	.LVL180
 8012 0941 34000000 		.4byte	.LVL185
 8013 0945 0100     		.2byte	0x1
 8014 0947 55       		.byte	0x55
 8015 0948 00000000 		.4byte	0
 8016 094c 00000000 		.4byte	0
 8017              	.LLST58:
 8018 0950 20000000 		.4byte	.LVL181
 8019 0954 2C000000 		.4byte	.LVL182
 8020 0958 0100     		.2byte	0x1
 8021 095a 50       		.byte	0x50
 8022 095b 2E000000 		.4byte	.LVL183
 8023 095f 30000000 		.4byte	.LVL184
 8024 0963 0100     		.2byte	0x1
 8025 0965 50       		.byte	0x50
 8026 0966 00000000 		.4byte	0
 8027 096a 00000000 		.4byte	0
ARM GAS  C:\Users\Administrator\AppData\Local\Temp\ccShlVUx.s 			page 164


 8028              	.LLST59:
 8029 096e 0C000000 		.4byte	.LVL175
 8030 0972 0E000000 		.4byte	.LVL176
 8031 0976 0100     		.2byte	0x1
 8032 0978 50       		.byte	0x50
 8033 0979 12000000 		.4byte	.LVL177
 8034 097d 14000000 		.4byte	.LVL178
 8035 0981 0100     		.2byte	0x1
 8036 0983 50       		.byte	0x50
 8037 0984 00000000 		.4byte	0
 8038 0988 00000000 		.4byte	0
 8039              	.LLST60:
 8040 098c 00000000 		.4byte	.LVL187
 8041 0990 0A000000 		.4byte	.LVL189
 8042 0994 0100     		.2byte	0x1
 8043 0996 50       		.byte	0x50
 8044 0997 0A000000 		.4byte	.LVL189
 8045 099b 26000000 		.4byte	.LFE94
 8046 099f 0400     		.2byte	0x4
 8047 09a1 F3       		.byte	0xf3
 8048 09a2 01       		.uleb128 0x1
 8049 09a3 50       		.byte	0x50
 8050 09a4 9F       		.byte	0x9f
 8051 09a5 00000000 		.4byte	0
 8052 09a9 00000000 		.4byte	0
 8053              	.LLST61:
 8054 09ad 00000000 		.4byte	.LVL187
 8055 09b1 0A000000 		.4byte	.LVL189
 8056 09b5 0100     		.2byte	0x1
 8057 09b7 51       		.byte	0x51
 8058 09b8 0A000000 		.4byte	.LVL189
 8059 09bc 26000000 		.4byte	.LFE94
 8060 09c0 0400     		.2byte	0x4
 8061 09c2 F3       		.byte	0xf3
 8062 09c3 01       		.uleb128 0x1
 8063 09c4 51       		.byte	0x51
 8064 09c5 9F       		.byte	0x9f
 8065 09c6 00000000 		.4byte	0
 8066 09ca 00000000 		.4byte	0
 8067              	.LLST62:
 8068 09ce 00000000 		.4byte	.LVL187
 8069 09d2 0A000000 		.4byte	.LVL189
 8070 09d6 0100     		.2byte	0x1
 8071 09d8 52       		.byte	0x52
 8072 09d9 0A000000 		.4byte	.LVL189
 8073 09dd 24000000 		.4byte	.LVL194
 8074 09e1 0100     		.2byte	0x1
 8075 09e3 57       		.byte	0x57
 8076 09e4 24000000 		.4byte	.LVL194
 8077 09e8 26000000 		.4byte	.LFE94
 8078 09ec 0400     		.2byte	0x4
 8079 09ee F3       		.byte	0xf3
 8080 09ef 01       		.uleb128 0x1
 8081 09f0 52       		.byte	0x52
 8082 09f1 9F       		.byte	0x9f
 8083 09f2 00000000 		.4byte	0
 8084 09f6 00000000 		.4byte	0
ARM GAS  C:\Users\Administrator\AppData\Local\Temp\ccShlVUx.s 			page 165


 8085              	.LLST63:
 8086 09fa 04000000 		.4byte	.LVL188
 8087 09fe 0A000000 		.4byte	.LVL189
 8088 0a02 0100     		.2byte	0x1
 8089 0a04 55       		.byte	0x55
 8090 0a05 16000000 		.4byte	.LVL190
 8091 0a09 21000000 		.4byte	.LVL192-1
 8092 0a0d 0100     		.2byte	0x1
 8093 0a0f 50       		.byte	0x50
 8094 0a10 22000000 		.4byte	.LVL192
 8095 0a14 24000000 		.4byte	.LVL193
 8096 0a18 0600     		.2byte	0x6
 8097 0a1a 75       		.byte	0x75
 8098 0a1b 00       		.sleb128 0
 8099 0a1c 74       		.byte	0x74
 8100 0a1d 00       		.sleb128 0
 8101 0a1e 22       		.byte	0x22
 8102 0a1f 9F       		.byte	0x9f
 8103 0a20 24000000 		.4byte	.LVL193
 8104 0a24 26000000 		.4byte	.LFE94
 8105 0a28 0100     		.2byte	0x1
 8106 0a2a 50       		.byte	0x50
 8107 0a2b 00000000 		.4byte	0
 8108 0a2f 00000000 		.4byte	0
 8109              	.LLST64:
 8110 0a33 00000000 		.4byte	.LVL187
 8111 0a37 0A000000 		.4byte	.LVL189
 8112 0a3b 0200     		.2byte	0x2
 8113 0a3d 30       		.byte	0x30
 8114 0a3e 9F       		.byte	0x9f
 8115 0a3f 16000000 		.4byte	.LVL190
 8116 0a43 1E000000 		.4byte	.LVL191
 8117 0a47 0100     		.2byte	0x1
 8118 0a49 51       		.byte	0x51
 8119 0a4a 22000000 		.4byte	.LVL192
 8120 0a4e 24000000 		.4byte	.LVL193
 8121 0a52 0500     		.2byte	0x5
 8122 0a54 74       		.byte	0x74
 8123 0a55 00       		.sleb128 0
 8124 0a56 34       		.byte	0x34
 8125 0a57 24       		.byte	0x24
 8126 0a58 9F       		.byte	0x9f
 8127 0a59 24000000 		.4byte	.LVL193
 8128 0a5d 26000000 		.4byte	.LFE94
 8129 0a61 0100     		.2byte	0x1
 8130 0a63 51       		.byte	0x51
 8131 0a64 00000000 		.4byte	0
 8132 0a68 00000000 		.4byte	0
 8133              	.LLST65:
 8134 0a6c 00000000 		.4byte	.LVL195
 8135 0a70 0E000000 		.4byte	.LVL197
 8136 0a74 0100     		.2byte	0x1
 8137 0a76 50       		.byte	0x50
 8138 0a77 0E000000 		.4byte	.LVL197
 8139 0a7b 3A000000 		.4byte	.LVL203
 8140 0a7f 0100     		.2byte	0x1
 8141 0a81 54       		.byte	0x54
ARM GAS  C:\Users\Administrator\AppData\Local\Temp\ccShlVUx.s 			page 166


 8142 0a82 3A000000 		.4byte	.LVL203
 8143 0a86 F8010000 		.4byte	.LFE95
 8144 0a8a 0400     		.2byte	0x4
 8145 0a8c F3       		.byte	0xf3
 8146 0a8d 01       		.uleb128 0x1
 8147 0a8e 50       		.byte	0x50
 8148 0a8f 9F       		.byte	0x9f
 8149 0a90 00000000 		.4byte	0
 8150 0a94 00000000 		.4byte	0
 8151              	.LLST66:
 8152 0a98 00000000 		.4byte	.LVL195
 8153 0a9c 0C000000 		.4byte	.LVL196
 8154 0aa0 0100     		.2byte	0x1
 8155 0aa2 51       		.byte	0x51
 8156 0aa3 0C000000 		.4byte	.LVL196
 8157 0aa7 F8010000 		.4byte	.LFE95
 8158 0aab 0300     		.2byte	0x3
 8159 0aad 91       		.byte	0x91
 8160 0aae BC7F     		.sleb128 -68
 8161 0ab0 00000000 		.4byte	0
 8162 0ab4 00000000 		.4byte	0
 8163              	.LLST67:
 8164 0ab8 3A000000 		.4byte	.LVL203
 8165 0abc 41000000 		.4byte	.LVL204-1
 8166 0ac0 0100     		.2byte	0x1
 8167 0ac2 50       		.byte	0x50
 8168 0ac3 46000000 		.4byte	.LVL205
 8169 0ac7 0A010000 		.4byte	.LVL225
 8170 0acb 0100     		.2byte	0x1
 8171 0acd 57       		.byte	0x57
 8172 0ace 0A010000 		.4byte	.LVL225
 8173 0ad2 11010000 		.4byte	.LVL227-1
 8174 0ad6 0100     		.2byte	0x1
 8175 0ad8 50       		.byte	0x50
 8176 0ad9 20010000 		.4byte	.LVL228
 8177 0add C8010000 		.4byte	.LVL243
 8178 0ae1 0300     		.2byte	0x3
 8179 0ae3 91       		.byte	0x91
 8180 0ae4 A87F     		.sleb128 -88
 8181 0ae6 C8010000 		.4byte	.LVL243
 8182 0aea D2010000 		.4byte	.LVL244
 8183 0aee 0100     		.2byte	0x1
 8184 0af0 50       		.byte	0x50
 8185 0af1 D2010000 		.4byte	.LVL244
 8186 0af5 E6010000 		.4byte	.LVL247
 8187 0af9 0300     		.2byte	0x3
 8188 0afb 91       		.byte	0x91
 8189 0afc A87F     		.sleb128 -88
 8190 0afe 00000000 		.4byte	0
 8191 0b02 00000000 		.4byte	0
 8192              	.LLST68:
 8193 0b06 30000000 		.4byte	.LVL201
 8194 0b0a 32000000 		.4byte	.LVL202
 8195 0b0e 0100     		.2byte	0x1
 8196 0b10 50       		.byte	0x50
 8197 0b11 00000000 		.4byte	0
 8198 0b15 00000000 		.4byte	0
ARM GAS  C:\Users\Administrator\AppData\Local\Temp\ccShlVUx.s 			page 167


 8199              	.LLST69:
 8200 0b19 8A000000 		.4byte	.LVL213
 8201 0b1d 8E000000 		.4byte	.LVL214
 8202 0b21 0900     		.2byte	0x9
 8203 0b23 93       		.byte	0x93
 8204 0b24 08       		.uleb128 0x8
 8205 0b25 91       		.byte	0x91
 8206 0b26 AC7F     		.sleb128 -84
 8207 0b28 93       		.byte	0x93
 8208 0b29 01       		.uleb128 0x1
 8209 0b2a 93       		.byte	0x93
 8210 0b2b 07       		.uleb128 0x7
 8211 0b2c 8E000000 		.4byte	.LVL214
 8212 0b30 92000000 		.4byte	.LVL215
 8213 0b34 0E00     		.2byte	0xe
 8214 0b36 93       		.byte	0x93
 8215 0b37 08       		.uleb128 0x8
 8216 0b38 91       		.byte	0x91
 8217 0b39 AC7F     		.sleb128 -84
 8218 0b3b 93       		.byte	0x93
 8219 0b3c 01       		.uleb128 0x1
 8220 0b3d 91       		.byte	0x91
 8221 0b3e B07F     		.sleb128 -80
 8222 0b40 93       		.byte	0x93
 8223 0b41 01       		.uleb128 0x1
 8224 0b42 93       		.byte	0x93
 8225 0b43 06       		.uleb128 0x6
 8226 0b44 92000000 		.4byte	.LVL215
 8227 0b48 96000000 		.4byte	.LVL216
 8228 0b4c 1300     		.2byte	0x13
 8229 0b4e 93       		.byte	0x93
 8230 0b4f 08       		.uleb128 0x8
 8231 0b50 91       		.byte	0x91
 8232 0b51 AC7F     		.sleb128 -84
 8233 0b53 93       		.byte	0x93
 8234 0b54 01       		.uleb128 0x1
 8235 0b55 91       		.byte	0x91
 8236 0b56 B07F     		.sleb128 -80
 8237 0b58 93       		.byte	0x93
 8238 0b59 01       		.uleb128 0x1
 8239 0b5a 91       		.byte	0x91
 8240 0b5b A87F     		.sleb128 -88
 8241 0b5d 93       		.byte	0x93
 8242 0b5e 01       		.uleb128 0x1
 8243 0b5f 93       		.byte	0x93
 8244 0b60 05       		.uleb128 0x5
 8245 0b61 96000000 		.4byte	.LVL216
 8246 0b65 0C010000 		.4byte	.LVL226
 8247 0b69 1800     		.2byte	0x18
 8248 0b6b 93       		.byte	0x93
 8249 0b6c 08       		.uleb128 0x8
 8250 0b6d 91       		.byte	0x91
 8251 0b6e AC7F     		.sleb128 -84
 8252 0b70 93       		.byte	0x93
 8253 0b71 01       		.uleb128 0x1
 8254 0b72 91       		.byte	0x91
 8255 0b73 B07F     		.sleb128 -80
ARM GAS  C:\Users\Administrator\AppData\Local\Temp\ccShlVUx.s 			page 168


 8256 0b75 93       		.byte	0x93
 8257 0b76 01       		.uleb128 0x1
 8258 0b77 91       		.byte	0x91
 8259 0b78 A87F     		.sleb128 -88
 8260 0b7a 93       		.byte	0x93
 8261 0b7b 01       		.uleb128 0x1
 8262 0b7c 91       		.byte	0x91
 8263 0b7d B47F     		.sleb128 -76
 8264 0b7f 93       		.byte	0x93
 8265 0b80 01       		.uleb128 0x1
 8266 0b81 93       		.byte	0x93
 8267 0b82 04       		.uleb128 0x4
 8268 0b83 50010000 		.4byte	.LVL234
 8269 0b87 54010000 		.4byte	.LVL235
 8270 0b8b 0900     		.2byte	0x9
 8271 0b8d 93       		.byte	0x93
 8272 0b8e 08       		.uleb128 0x8
 8273 0b8f 91       		.byte	0x91
 8274 0b90 AC7F     		.sleb128 -84
 8275 0b92 93       		.byte	0x93
 8276 0b93 01       		.uleb128 0x1
 8277 0b94 93       		.byte	0x93
 8278 0b95 07       		.uleb128 0x7
 8279 0b96 54010000 		.4byte	.LVL235
 8280 0b9a 58010000 		.4byte	.LVL236
 8281 0b9e 0E00     		.2byte	0xe
 8282 0ba0 93       		.byte	0x93
 8283 0ba1 08       		.uleb128 0x8
 8284 0ba2 91       		.byte	0x91
 8285 0ba3 AC7F     		.sleb128 -84
 8286 0ba5 93       		.byte	0x93
 8287 0ba6 01       		.uleb128 0x1
 8288 0ba7 91       		.byte	0x91
 8289 0ba8 B47F     		.sleb128 -76
 8290 0baa 93       		.byte	0x93
 8291 0bab 01       		.uleb128 0x1
 8292 0bac 93       		.byte	0x93
 8293 0bad 06       		.uleb128 0x6
 8294 0bae 58010000 		.4byte	.LVL236
 8295 0bb2 5C010000 		.4byte	.LVL237
 8296 0bb6 1300     		.2byte	0x13
 8297 0bb8 93       		.byte	0x93
 8298 0bb9 08       		.uleb128 0x8
 8299 0bba 91       		.byte	0x91
 8300 0bbb AC7F     		.sleb128 -84
 8301 0bbd 93       		.byte	0x93
 8302 0bbe 01       		.uleb128 0x1
 8303 0bbf 91       		.byte	0x91
 8304 0bc0 B47F     		.sleb128 -76
 8305 0bc2 93       		.byte	0x93
 8306 0bc3 01       		.uleb128 0x1
 8307 0bc4 91       		.byte	0x91
 8308 0bc5 B87F     		.sleb128 -72
 8309 0bc7 93       		.byte	0x93
 8310 0bc8 01       		.uleb128 0x1
 8311 0bc9 93       		.byte	0x93
 8312 0bca 05       		.uleb128 0x5
ARM GAS  C:\Users\Administrator\AppData\Local\Temp\ccShlVUx.s 			page 169


 8313 0bcb 5C010000 		.4byte	.LVL237
 8314 0bcf C8010000 		.4byte	.LVL243
 8315 0bd3 1800     		.2byte	0x18
 8316 0bd5 93       		.byte	0x93
 8317 0bd6 08       		.uleb128 0x8
 8318 0bd7 91       		.byte	0x91
 8319 0bd8 AC7F     		.sleb128 -84
 8320 0bda 93       		.byte	0x93
 8321 0bdb 01       		.uleb128 0x1
 8322 0bdc 91       		.byte	0x91
 8323 0bdd B47F     		.sleb128 -76
 8324 0bdf 93       		.byte	0x93
 8325 0be0 01       		.uleb128 0x1
 8326 0be1 91       		.byte	0x91
 8327 0be2 B87F     		.sleb128 -72
 8328 0be4 93       		.byte	0x93
 8329 0be5 01       		.uleb128 0x1
 8330 0be6 91       		.byte	0x91
 8331 0be7 B07F     		.sleb128 -80
 8332 0be9 93       		.byte	0x93
 8333 0bea 01       		.uleb128 0x1
 8334 0beb 93       		.byte	0x93
 8335 0bec 04       		.uleb128 0x4
 8336 0bed DE010000 		.4byte	.LVL245
 8337 0bf1 E6010000 		.4byte	.LVL247
 8338 0bf5 1800     		.2byte	0x18
 8339 0bf7 93       		.byte	0x93
 8340 0bf8 08       		.uleb128 0x8
 8341 0bf9 91       		.byte	0x91
 8342 0bfa AC7F     		.sleb128 -84
 8343 0bfc 93       		.byte	0x93
 8344 0bfd 01       		.uleb128 0x1
 8345 0bfe 91       		.byte	0x91
 8346 0bff B47F     		.sleb128 -76
 8347 0c01 93       		.byte	0x93
 8348 0c02 01       		.uleb128 0x1
 8349 0c03 91       		.byte	0x91
 8350 0c04 B87F     		.sleb128 -72
 8351 0c06 93       		.byte	0x93
 8352 0c07 01       		.uleb128 0x1
 8353 0c08 91       		.byte	0x91
 8354 0c09 B07F     		.sleb128 -80
 8355 0c0b 93       		.byte	0x93
 8356 0c0c 01       		.uleb128 0x1
 8357 0c0d 93       		.byte	0x93
 8358 0c0e 04       		.uleb128 0x4
 8359 0c0f 00000000 		.4byte	0
 8360 0c13 00000000 		.4byte	0
 8361              	.LLST70:
 8362 0c17 28000000 		.4byte	.LVL199
 8363 0c1b 2B000000 		.4byte	.LVL200-1
 8364 0c1f 0100     		.2byte	0x1
 8365 0c21 53       		.byte	0x53
 8366 0c22 2B000000 		.4byte	.LVL200-1
 8367 0c26 F8010000 		.4byte	.LFE95
 8368 0c2a 0300     		.2byte	0x3
 8369 0c2c 91       		.byte	0x91
ARM GAS  C:\Users\Administrator\AppData\Local\Temp\ccShlVUx.s 			page 170


 8370 0c2d A47F     		.sleb128 -92
 8371 0c2f 00000000 		.4byte	0
 8372 0c33 00000000 		.4byte	0
 8373              	.LLST71:
 8374 0c37 AA000000 		.4byte	.LVL217
 8375 0c3b B9000000 		.4byte	.LVL218-1
 8376 0c3f 0100     		.2byte	0x1
 8377 0c41 53       		.byte	0x53
 8378 0c42 B9000000 		.4byte	.LVL218-1
 8379 0c46 FE000000 		.4byte	.LVL222
 8380 0c4a 1A00     		.2byte	0x1a
 8381 0c4c 91       		.byte	0x91
 8382 0c4d B07F     		.sleb128 -80
 8383 0c4f 06       		.byte	0x6
 8384 0c50 40       		.byte	0x40
 8385 0c51 24       		.byte	0x24
 8386 0c52 91       		.byte	0x91
 8387 0c53 AC7F     		.sleb128 -84
 8388 0c55 06       		.byte	0x6
 8389 0c56 48       		.byte	0x48
 8390 0c57 24       		.byte	0x24
 8391 0c58 21       		.byte	0x21
 8392 0c59 91       		.byte	0x91
 8393 0c5a A87F     		.sleb128 -88
 8394 0c5c 06       		.byte	0x6
 8395 0c5d 38       		.byte	0x38
 8396 0c5e 24       		.byte	0x24
 8397 0c5f 21       		.byte	0x21
 8398 0c60 91       		.byte	0x91
 8399 0c61 B47F     		.sleb128 -76
 8400 0c63 06       		.byte	0x6
 8401 0c64 21       		.byte	0x21
 8402 0c65 9F       		.byte	0x9f
 8403 0c66 FE000000 		.4byte	.LVL222
 8404 0c6a 02010000 		.4byte	.LVL223
 8405 0c6e 0100     		.2byte	0x1
 8406 0c70 53       		.byte	0x53
 8407 0c71 02010000 		.4byte	.LVL223
 8408 0c75 06010000 		.4byte	.LVL224
 8409 0c79 0300     		.2byte	0x3
 8410 0c7b 73       		.byte	0x73
 8411 0c7c 62       		.sleb128 -30
 8412 0c7d 9F       		.byte	0x9f
 8413 0c7e 06010000 		.4byte	.LVL224
 8414 0c82 0C010000 		.4byte	.LVL226
 8415 0c86 1A00     		.2byte	0x1a
 8416 0c88 91       		.byte	0x91
 8417 0c89 B07F     		.sleb128 -80
 8418 0c8b 06       		.byte	0x6
 8419 0c8c 40       		.byte	0x40
 8420 0c8d 24       		.byte	0x24
 8421 0c8e 91       		.byte	0x91
 8422 0c8f AC7F     		.sleb128 -84
 8423 0c91 06       		.byte	0x6
 8424 0c92 48       		.byte	0x48
 8425 0c93 24       		.byte	0x24
 8426 0c94 21       		.byte	0x21
ARM GAS  C:\Users\Administrator\AppData\Local\Temp\ccShlVUx.s 			page 171


 8427 0c95 91       		.byte	0x91
 8428 0c96 A87F     		.sleb128 -88
 8429 0c98 06       		.byte	0x6
 8430 0c99 38       		.byte	0x38
 8431 0c9a 24       		.byte	0x24
 8432 0c9b 21       		.byte	0x21
 8433 0c9c 91       		.byte	0x91
 8434 0c9d B47F     		.sleb128 -76
 8435 0c9f 06       		.byte	0x6
 8436 0ca0 21       		.byte	0x21
 8437 0ca1 9F       		.byte	0x9f
 8438 0ca2 70010000 		.4byte	.LVL238
 8439 0ca6 7F010000 		.4byte	.LVL239-1
 8440 0caa 0100     		.2byte	0x1
 8441 0cac 53       		.byte	0x53
 8442 0cad 7F010000 		.4byte	.LVL239-1
 8443 0cb1 C8010000 		.4byte	.LVL243
 8444 0cb5 1A00     		.2byte	0x1a
 8445 0cb7 91       		.byte	0x91
 8446 0cb8 B47F     		.sleb128 -76
 8447 0cba 06       		.byte	0x6
 8448 0cbb 40       		.byte	0x40
 8449 0cbc 24       		.byte	0x24
 8450 0cbd 91       		.byte	0x91
 8451 0cbe AC7F     		.sleb128 -84
 8452 0cc0 06       		.byte	0x6
 8453 0cc1 48       		.byte	0x48
 8454 0cc2 24       		.byte	0x24
 8455 0cc3 21       		.byte	0x21
 8456 0cc4 91       		.byte	0x91
 8457 0cc5 B87F     		.sleb128 -72
 8458 0cc7 06       		.byte	0x6
 8459 0cc8 38       		.byte	0x38
 8460 0cc9 24       		.byte	0x24
 8461 0cca 21       		.byte	0x21
 8462 0ccb 91       		.byte	0x91
 8463 0ccc B07F     		.sleb128 -80
 8464 0cce 06       		.byte	0x6
 8465 0ccf 21       		.byte	0x21
 8466 0cd0 9F       		.byte	0x9f
 8467 0cd1 DE010000 		.4byte	.LVL245
 8468 0cd5 E2010000 		.4byte	.LVL246
 8469 0cd9 0100     		.2byte	0x1
 8470 0cdb 53       		.byte	0x53
 8471 0cdc E2010000 		.4byte	.LVL246
 8472 0ce0 E6010000 		.4byte	.LVL247
 8473 0ce4 0300     		.2byte	0x3
 8474 0ce6 73       		.byte	0x73
 8475 0ce7 62       		.sleb128 -30
 8476 0ce8 9F       		.byte	0x9f
 8477 0ce9 00000000 		.4byte	0
 8478 0ced 00000000 		.4byte	0
 8479              	.LLST72:
 8480 0cf1 12000000 		.4byte	.LVL198
 8481 0cf5 3A000000 		.4byte	.LVL203
 8482 0cf9 0200     		.2byte	0x2
 8483 0cfb 30       		.byte	0x30
ARM GAS  C:\Users\Administrator\AppData\Local\Temp\ccShlVUx.s 			page 172


 8484 0cfc 9F       		.byte	0x9f
 8485 0cfd 48000000 		.4byte	.LVL206
 8486 0d01 56000000 		.4byte	.LVL208
 8487 0d05 0100     		.2byte	0x1
 8488 0d07 55       		.byte	0x55
 8489 0d08 56000000 		.4byte	.LVL208
 8490 0d0c 66000000 		.4byte	.LVL209
 8491 0d10 0300     		.2byte	0x3
 8492 0d12 75       		.byte	0x75
 8493 0d13 01       		.sleb128 1
 8494 0d14 9F       		.byte	0x9f
 8495 0d15 66000000 		.4byte	.LVL209
 8496 0d19 70000000 		.4byte	.LVL210
 8497 0d1d 0100     		.2byte	0x1
 8498 0d1f 55       		.byte	0x55
 8499 0d20 20010000 		.4byte	.LVL228
 8500 0d24 23010000 		.4byte	.LVL229-1
 8501 0d28 0100     		.2byte	0x1
 8502 0d2a 50       		.byte	0x50
 8503 0d2b 23010000 		.4byte	.LVL229-1
 8504 0d2f 2A010000 		.4byte	.LVL230
 8505 0d33 0100     		.2byte	0x1
 8506 0d35 55       		.byte	0x55
 8507 0d36 2A010000 		.4byte	.LVL230
 8508 0d3a 36010000 		.4byte	.LVL231
 8509 0d3e 0300     		.2byte	0x3
 8510 0d40 75       		.byte	0x75
 8511 0d41 01       		.sleb128 1
 8512 0d42 9F       		.byte	0x9f
 8513 0d43 D2010000 		.4byte	.LVL244
 8514 0d47 DE010000 		.4byte	.LVL245
 8515 0d4b 0100     		.2byte	0x1
 8516 0d4d 55       		.byte	0x55
 8517 0d4e 00000000 		.4byte	0
 8518 0d52 00000000 		.4byte	0
 8519              	.LLST73:
 8520 0d56 00000000 		.4byte	.LVL248
 8521 0d5a 0A000000 		.4byte	.LVL249
 8522 0d5e 0100     		.2byte	0x1
 8523 0d60 50       		.byte	0x50
 8524 0d61 0A000000 		.4byte	.LVL249
 8525 0d65 11000000 		.4byte	.LVL250-1
 8526 0d69 0200     		.2byte	0x2
 8527 0d6b 70       		.byte	0x70
 8528 0d6c 00       		.sleb128 0
 8529 0d6d 11000000 		.4byte	.LVL250-1
 8530 0d71 18000000 		.4byte	.LFE96
 8531 0d75 0200     		.2byte	0x2
 8532 0d77 7D       		.byte	0x7d
 8533 0d78 07       		.sleb128 7
 8534 0d79 00000000 		.4byte	0
 8535 0d7d 00000000 		.4byte	0
 8536              	.LLST74:
 8537 0d81 00000000 		.4byte	.LVL252
 8538 0d85 0A000000 		.4byte	.LVL253
 8539 0d89 0100     		.2byte	0x1
 8540 0d8b 50       		.byte	0x50
ARM GAS  C:\Users\Administrator\AppData\Local\Temp\ccShlVUx.s 			page 173


 8541 0d8c 0A000000 		.4byte	.LVL253
 8542 0d90 11000000 		.4byte	.LVL254-1
 8543 0d94 0200     		.2byte	0x2
 8544 0d96 70       		.byte	0x70
 8545 0d97 00       		.sleb128 0
 8546 0d98 11000000 		.4byte	.LVL254-1
 8547 0d9c 18000000 		.4byte	.LFE98
 8548 0da0 0200     		.2byte	0x2
 8549 0da2 7D       		.byte	0x7d
 8550 0da3 07       		.sleb128 7
 8551 0da4 00000000 		.4byte	0
 8552 0da8 00000000 		.4byte	0
 8553              	.LLST75:
 8554 0dac 00000000 		.4byte	.LVL256
 8555 0db0 10000000 		.4byte	.LVL258
 8556 0db4 0100     		.2byte	0x1
 8557 0db6 50       		.byte	0x50
 8558 0db7 10000000 		.4byte	.LVL258
 8559 0dbb 15000000 		.4byte	.LVL259-1
 8560 0dbf 0200     		.2byte	0x2
 8561 0dc1 70       		.byte	0x70
 8562 0dc2 02       		.sleb128 2
 8563 0dc3 15000000 		.4byte	.LVL259-1
 8564 0dc7 1C000000 		.4byte	.LFE100
 8565 0dcb 0400     		.2byte	0x4
 8566 0dcd F3       		.byte	0xf3
 8567 0dce 01       		.uleb128 0x1
 8568 0dcf 50       		.byte	0x50
 8569 0dd0 9F       		.byte	0x9f
 8570 0dd1 00000000 		.4byte	0
 8571 0dd5 00000000 		.4byte	0
 8572              	.LLST76:
 8573 0dd9 00000000 		.4byte	.LVL256
 8574 0ddd 0E000000 		.4byte	.LVL257
 8575 0de1 0100     		.2byte	0x1
 8576 0de3 51       		.byte	0x51
 8577 0de4 0E000000 		.4byte	.LVL257
 8578 0de8 1C000000 		.4byte	.LFE100
 8579 0dec 0400     		.2byte	0x4
 8580 0dee F3       		.byte	0xf3
 8581 0def 01       		.uleb128 0x1
 8582 0df0 51       		.byte	0x51
 8583 0df1 9F       		.byte	0x9f
 8584 0df2 00000000 		.4byte	0
 8585 0df6 00000000 		.4byte	0
 8586              		.section	.debug_aranges,"",%progbits
 8587 0000 6C010000 		.4byte	0x16c
 8588 0004 0200     		.2byte	0x2
 8589 0006 00000000 		.4byte	.Ldebug_info0
 8590 000a 04       		.byte	0x4
 8591 000b 00       		.byte	0
 8592 000c 0000     		.2byte	0
 8593 000e 0000     		.2byte	0
 8594 0010 00000000 		.4byte	.LFB63
 8595 0014 20000000 		.4byte	.LFE63-.LFB63
 8596 0018 00000000 		.4byte	.LFB64
 8597 001c 38000000 		.4byte	.LFE64-.LFB64
ARM GAS  C:\Users\Administrator\AppData\Local\Temp\ccShlVUx.s 			page 174


 8598 0020 00000000 		.4byte	.LFB65
 8599 0024 22000000 		.4byte	.LFE65-.LFB65
 8600 0028 00000000 		.4byte	.LFB66
 8601 002c 2E000000 		.4byte	.LFE66-.LFB66
 8602 0030 00000000 		.4byte	.LFB67
 8603 0034 12000000 		.4byte	.LFE67-.LFB67
 8604 0038 00000000 		.4byte	.LFB68
 8605 003c 14000000 		.4byte	.LFE68-.LFB68
 8606 0040 00000000 		.4byte	.LFB69
 8607 0044 18000000 		.4byte	.LFE69-.LFB69
 8608 0048 00000000 		.4byte	.LFB70
 8609 004c 26000000 		.4byte	.LFE70-.LFB70
 8610 0050 00000000 		.4byte	.LFB71
 8611 0054 18000000 		.4byte	.LFE71-.LFB71
 8612 0058 00000000 		.4byte	.LFB72
 8613 005c 18000000 		.4byte	.LFE72-.LFB72
 8614 0060 00000000 		.4byte	.LFB73
 8615 0064 4C000000 		.4byte	.LFE73-.LFB73
 8616 0068 00000000 		.4byte	.LFB74
 8617 006c 18000000 		.4byte	.LFE74-.LFB74
 8618 0070 00000000 		.4byte	.LFB75
 8619 0074 32000000 		.4byte	.LFE75-.LFB75
 8620 0078 00000000 		.4byte	.LFB76
 8621 007c 28000000 		.4byte	.LFE76-.LFB76
 8622 0080 00000000 		.4byte	.LFB77
 8623 0084 30000000 		.4byte	.LFE77-.LFB77
 8624 0088 00000000 		.4byte	.LFB78
 8625 008c 4C000000 		.4byte	.LFE78-.LFB78
 8626 0090 00000000 		.4byte	.LFB79
 8627 0094 46000000 		.4byte	.LFE79-.LFB79
 8628 0098 00000000 		.4byte	.LFB80
 8629 009c 2E000000 		.4byte	.LFE80-.LFB80
 8630 00a0 00000000 		.4byte	.LFB81
 8631 00a4 08000000 		.4byte	.LFE81-.LFB81
 8632 00a8 00000000 		.4byte	.LFB82
 8633 00ac 5E000000 		.4byte	.LFE82-.LFB82
 8634 00b0 00000000 		.4byte	.LFB83
 8635 00b4 44000000 		.4byte	.LFE83-.LFB83
 8636 00b8 00000000 		.4byte	.LFB84
 8637 00bc 28000000 		.4byte	.LFE84-.LFB84
 8638 00c0 00000000 		.4byte	.LFB85
 8639 00c4 24000000 		.4byte	.LFE85-.LFB85
 8640 00c8 00000000 		.4byte	.LFB86
 8641 00cc 28000000 		.4byte	.LFE86-.LFB86
 8642 00d0 00000000 		.4byte	.LFB87
 8643 00d4 18000000 		.4byte	.LFE87-.LFB87
 8644 00d8 00000000 		.4byte	.LFB88
 8645 00dc 1A000000 		.4byte	.LFE88-.LFB88
 8646 00e0 00000000 		.4byte	.LFB89
 8647 00e4 6C000000 		.4byte	.LFE89-.LFB89
 8648 00e8 00000000 		.4byte	.LFB90
 8649 00ec 64000000 		.4byte	.LFE90-.LFB90
 8650 00f0 00000000 		.4byte	.LFB91
 8651 00f4 94000000 		.4byte	.LFE91-.LFB91
 8652 00f8 00000000 		.4byte	.LFB92
 8653 00fc 94000000 		.4byte	.LFE92-.LFB92
 8654 0100 00000000 		.4byte	.LFB93
ARM GAS  C:\Users\Administrator\AppData\Local\Temp\ccShlVUx.s 			page 175


 8655 0104 3C000000 		.4byte	.LFE93-.LFB93
 8656 0108 00000000 		.4byte	.LFB94
 8657 010c 26000000 		.4byte	.LFE94-.LFB94
 8658 0110 00000000 		.4byte	.LFB95
 8659 0114 F8010000 		.4byte	.LFE95-.LFB95
 8660 0118 00000000 		.4byte	.LFB96
 8661 011c 18000000 		.4byte	.LFE96-.LFB96
 8662 0120 00000000 		.4byte	.LFB97
 8663 0124 18000000 		.4byte	.LFE97-.LFB97
 8664 0128 00000000 		.4byte	.LFB98
 8665 012c 18000000 		.4byte	.LFE98-.LFB98
 8666 0130 00000000 		.4byte	.LFB99
 8667 0134 18000000 		.4byte	.LFE99-.LFB99
 8668 0138 00000000 		.4byte	.LFB100
 8669 013c 1C000000 		.4byte	.LFE100-.LFB100
 8670 0140 00000000 		.4byte	.LFB101
 8671 0144 18000000 		.4byte	.LFE101-.LFB101
 8672 0148 00000000 		.4byte	.LFB102
 8673 014c 18000000 		.4byte	.LFE102-.LFB102
 8674 0150 00000000 		.4byte	.LFB103
 8675 0154 98000000 		.4byte	.LFE103-.LFB103
 8676 0158 00000000 		.4byte	.LFB104
 8677 015c 84000000 		.4byte	.LFE104-.LFB104
 8678 0160 00000000 		.4byte	.LFB105
 8679 0164 0E000000 		.4byte	.LFE105-.LFB105
 8680 0168 00000000 		.4byte	0
 8681 016c 00000000 		.4byte	0
 8682              		.section	.debug_ranges,"",%progbits
 8683              	.Ldebug_ranges0:
 8684 0000 00000000 		.4byte	.LFB63
 8685 0004 20000000 		.4byte	.LFE63
 8686 0008 00000000 		.4byte	.LFB64
 8687 000c 38000000 		.4byte	.LFE64
 8688 0010 00000000 		.4byte	.LFB65
 8689 0014 22000000 		.4byte	.LFE65
 8690 0018 00000000 		.4byte	.LFB66
 8691 001c 2E000000 		.4byte	.LFE66
 8692 0020 00000000 		.4byte	.LFB67
 8693 0024 12000000 		.4byte	.LFE67
 8694 0028 00000000 		.4byte	.LFB68
 8695 002c 14000000 		.4byte	.LFE68
 8696 0030 00000000 		.4byte	.LFB69
 8697 0034 18000000 		.4byte	.LFE69
 8698 0038 00000000 		.4byte	.LFB70
 8699 003c 26000000 		.4byte	.LFE70
 8700 0040 00000000 		.4byte	.LFB71
 8701 0044 18000000 		.4byte	.LFE71
 8702 0048 00000000 		.4byte	.LFB72
 8703 004c 18000000 		.4byte	.LFE72
 8704 0050 00000000 		.4byte	.LFB73
 8705 0054 4C000000 		.4byte	.LFE73
 8706 0058 00000000 		.4byte	.LFB74
 8707 005c 18000000 		.4byte	.LFE74
 8708 0060 00000000 		.4byte	.LFB75
 8709 0064 32000000 		.4byte	.LFE75
 8710 0068 00000000 		.4byte	.LFB76
 8711 006c 28000000 		.4byte	.LFE76
ARM GAS  C:\Users\Administrator\AppData\Local\Temp\ccShlVUx.s 			page 176


 8712 0070 00000000 		.4byte	.LFB77
 8713 0074 30000000 		.4byte	.LFE77
 8714 0078 00000000 		.4byte	.LFB78
 8715 007c 4C000000 		.4byte	.LFE78
 8716 0080 00000000 		.4byte	.LFB79
 8717 0084 46000000 		.4byte	.LFE79
 8718 0088 00000000 		.4byte	.LFB80
 8719 008c 2E000000 		.4byte	.LFE80
 8720 0090 00000000 		.4byte	.LFB81
 8721 0094 08000000 		.4byte	.LFE81
 8722 0098 00000000 		.4byte	.LFB82
 8723 009c 5E000000 		.4byte	.LFE82
 8724 00a0 00000000 		.4byte	.LFB83
 8725 00a4 44000000 		.4byte	.LFE83
 8726 00a8 00000000 		.4byte	.LFB84
 8727 00ac 28000000 		.4byte	.LFE84
 8728 00b0 00000000 		.4byte	.LFB85
 8729 00b4 24000000 		.4byte	.LFE85
 8730 00b8 00000000 		.4byte	.LFB86
 8731 00bc 28000000 		.4byte	.LFE86
 8732 00c0 00000000 		.4byte	.LFB87
 8733 00c4 18000000 		.4byte	.LFE87
 8734 00c8 00000000 		.4byte	.LFB88
 8735 00cc 1A000000 		.4byte	.LFE88
 8736 00d0 00000000 		.4byte	.LFB89
 8737 00d4 6C000000 		.4byte	.LFE89
 8738 00d8 00000000 		.4byte	.LFB90
 8739 00dc 64000000 		.4byte	.LFE90
 8740 00e0 00000000 		.4byte	.LFB91
 8741 00e4 94000000 		.4byte	.LFE91
 8742 00e8 00000000 		.4byte	.LFB92
 8743 00ec 94000000 		.4byte	.LFE92
 8744 00f0 00000000 		.4byte	.LFB93
 8745 00f4 3C000000 		.4byte	.LFE93
 8746 00f8 00000000 		.4byte	.LFB94
 8747 00fc 26000000 		.4byte	.LFE94
 8748 0100 00000000 		.4byte	.LFB95
 8749 0104 F8010000 		.4byte	.LFE95
 8750 0108 00000000 		.4byte	.LFB96
 8751 010c 18000000 		.4byte	.LFE96
 8752 0110 00000000 		.4byte	.LFB97
 8753 0114 18000000 		.4byte	.LFE97
 8754 0118 00000000 		.4byte	.LFB98
 8755 011c 18000000 		.4byte	.LFE98
 8756 0120 00000000 		.4byte	.LFB99
 8757 0124 18000000 		.4byte	.LFE99
 8758 0128 00000000 		.4byte	.LFB100
 8759 012c 1C000000 		.4byte	.LFE100
 8760 0130 00000000 		.4byte	.LFB101
 8761 0134 18000000 		.4byte	.LFE101
 8762 0138 00000000 		.4byte	.LFB102
 8763 013c 18000000 		.4byte	.LFE102
 8764 0140 00000000 		.4byte	.LFB103
 8765 0144 98000000 		.4byte	.LFE103
 8766 0148 00000000 		.4byte	.LFB104
 8767 014c 84000000 		.4byte	.LFE104
 8768 0150 00000000 		.4byte	.LFB105
ARM GAS  C:\Users\Administrator\AppData\Local\Temp\ccShlVUx.s 			page 177


 8769 0154 0E000000 		.4byte	.LFE105
 8770 0158 00000000 		.4byte	0
 8771 015c 00000000 		.4byte	0
 8772              		.section	.debug_line,"",%progbits
 8773              	.Ldebug_line0:
 8774 0000 B9060000 		.section	.debug_str,"MS",%progbits,1
 8774      0200FA01 
 8774      00000201 
 8774      FB0E0D00 
 8774      01010101 
 8775              	.LASF34:
 8776 0000 75736572 		.ascii	"user_id_if_valid\000"
 8776      5F69645F 
 8776      69665F76 
 8776      616C6964 
 8776      00
 8777              	.LASF60:
 8778 0011 57726974 		.ascii	"Write_Open_UploadFlag\000"
 8778      655F4F70 
 8778      656E5F55 
 8778      706C6F61 
 8778      64466C61 
 8779              	.LASF80:
 8780 0027 746D7031 		.ascii	"tmp1\000"
 8780      00
 8781              	.LASF99:
 8782 002c 72547970 		.ascii	"rType\000"
 8782      6500
 8783              	.LASF109:
 8784 0032 6F70656E 		.ascii	"opendate_qty\000"
 8784      64617465 
 8784      5F717479 
 8784      00
 8785              	.LASF88:
 8786 003f 4765745F 		.ascii	"Get_Open_Info\000"
 8786      4F70656E 
 8786      5F496E66 
 8786      6F00
 8787              	.LASF81:
 8788 004d 6F70656E 		.ascii	"openTmp\000"
 8788      546D7000 
 8789              	.LASF121:
 8790 0055 75706C6F 		.ascii	"uploadpolling_stop\000"
 8790      6164706F 
 8790      6C6C696E 
 8790      675F7374 
 8790      6F7000
 8791              	.LASF24:
 8792 0068 76616C69 		.ascii	"valid_time\000"
 8792      645F7469 
 8792      6D6500
 8793              	.LASF49:
 8794 0073 696E666F 		.ascii	"info_tmp\000"
 8794      5F746D70 
 8794      00
 8795              	.LASF85:
 8796 007c 73746172 		.ascii	"start_num\000"
ARM GAS  C:\Users\Administrator\AppData\Local\Temp\ccShlVUx.s 			page 178


 8796      745F6E75 
 8796      6D00
 8797              	.LASF75:
 8798 0086 52656164 		.ascii	"Read_OpenInfo\000"
 8798      5F4F7065 
 8798      6E496E66 
 8798      6F00
 8799              	.LASF119:
 8800 0094 436F6465 		.ascii	"Code\\Device\\W25Q80\\user_data.c\000"
 8800      5C446576 
 8800      6963655C 
 8800      57323551 
 8800      38305C75 
 8801              	.LASF45:
 8802 00b3 75736572 		.ascii	"user_get_user_id\000"
 8802      5F676574 
 8802      5F757365 
 8802      725F6964 
 8802      00
 8803              	.LASF11:
 8804 00c4 756E7369 		.ascii	"unsigned int\000"
 8804      676E6564 
 8804      20696E74 
 8804      00
 8805              	.LASF36:
 8806 00d1 75736572 		.ascii	"user_get_reg_qty\000"
 8806      5F676574 
 8806      5F726567 
 8806      5F717479 
 8806      00
 8807              	.LASF120:
 8808 00e2 473A5C50 		.ascii	"G:\\Psoc4_prj\\7.rental_house\\18-04-11\\second_ima"
 8808      736F6334 
 8808      5F70726A 
 8808      5C372E72 
 8808      656E7461 
 8809 0111 6765735B 		.ascii	"ges[4-9]\\EntranceGuard_171019-12.50\\EntranceGuard"
 8809      342D395D 
 8809      5C456E74 
 8809      72616E63 
 8809      65477561 
 8810 0142 2E637964 		.ascii	".cydsn\000"
 8810      736E00
 8811              	.LASF43:
 8812 0149 75736572 		.ascii	"user_get_info\000"
 8812      5F676574 
 8812      5F696E66 
 8812      6F00
 8813              	.LASF113:
 8814 0157 6D656D73 		.ascii	"memset\000"
 8814      657400
 8815              	.LASF28:
 8816 015e 6F70656E 		.ascii	"open_time\000"
 8816      5F74696D 
 8816      6500
 8817              	.LASF112:
 8818 0168 6F70656E 		.ascii	"open_tmp\000"
ARM GAS  C:\Users\Administrator\AppData\Local\Temp\ccShlVUx.s 			page 179


 8818      5F746D70 
 8818      00
 8819              	.LASF51:
 8820 0171 64656C5F 		.ascii	"del_user\000"
 8820      75736572 
 8820      00
 8821              	.LASF69:
 8822 017a 52656164 		.ascii	"Read_Open_Qty\000"
 8822      5F4F7065 
 8822      6E5F5174 
 8822      7900
 8823              	.LASF42:
 8824 0188 75736572 		.ascii	"user_del_info\000"
 8824      5F64656C 
 8824      5F696E66 
 8824      6F00
 8825              	.LASF91:
 8826 0196 46696E64 		.ascii	"FindAndSet_UploadTime_UploadFlag\000"
 8826      416E6453 
 8826      65745F55 
 8826      706C6F61 
 8826      6454696D 
 8827              	.LASF14:
 8828 01b7 75696E74 		.ascii	"uint32_t\000"
 8828      33325F74 
 8828      00
 8829              	.LASF18:
 8830 01c0 666C6F61 		.ascii	"float\000"
 8830      7400
 8831              	.LASF92:
 8832 01c6 7574635F 		.ascii	"utc_time\000"
 8832      74696D65 
 8832      00
 8833              	.LASF62:
 8834 01cf 55706C6F 		.ascii	"UploadFlag\000"
 8834      6164466C 
 8834      616700
 8835              	.LASF10:
 8836 01da 6C6F6E67 		.ascii	"long long unsigned int\000"
 8836      206C6F6E 
 8836      6720756E 
 8836      7369676E 
 8836      65642069 
 8837              	.LASF4:
 8838 01f1 5F5F7569 		.ascii	"__uint16_t\000"
 8838      6E743136 
 8838      5F7400
 8839              	.LASF105:
 8840 01fc 52656164 		.ascii	"Read_UpdateVer\000"
 8840      5F557064 
 8840      61746556 
 8840      657200
 8841              	.LASF29:
 8842 020b 73656E64 		.ascii	"send_time\000"
 8842      5F74696D 
 8842      6500
 8843              	.LASF44:
ARM GAS  C:\Users\Administrator\AppData\Local\Temp\ccShlVUx.s 			page 180


 8844 0215 75736572 		.ascii	"user_get_card_uid\000"
 8844      5F676574 
 8844      5F636172 
 8844      645F7569 
 8844      6400
 8845              	.LASF61:
 8846 0227 6F70656E 		.ascii	"open_num\000"
 8846      5F6E756D 
 8846      00
 8847              	.LASF118:
 8848 0230 474E5520 		.ascii	"GNU C 4.9.3 20150303 (release) [ARM/embedded-4_9-br"
 8848      4320342E 
 8848      392E3320 
 8848      32303135 
 8848      30333033 
 8849 0263 616E6368 		.ascii	"anch revision 221220] -mcpu=cortex-m0 -mthumb -g -O"
 8849      20726576 
 8849      6973696F 
 8849      6E203232 
 8849      31323230 
 8850 0296 73202D66 		.ascii	"s -ffunction-sections -ffat-lto-objects\000"
 8850      66756E63 
 8850      74696F6E 
 8850      2D736563 
 8850      74696F6E 
 8851              	.LASF68:
 8852 02be 6F70656E 		.ascii	"openQty\000"
 8852      51747900 
 8853              	.LASF114:
 8854 02c6 57323551 		.ascii	"W25QXX_Write\000"
 8854      58585F57 
 8854      72697465 
 8854      00
 8855              	.LASF21:
 8856 02d3 73697A65 		.ascii	"size_t\000"
 8856      5F7400
 8857              	.LASF115:
 8858 02da 57323551 		.ascii	"W25QXX_Read\000"
 8858      58585F52 
 8858      65616400 
 8859              	.LASF90:
 8860 02e6 6F666673 		.ascii	"offset\000"
 8860      657400
 8861              	.LASF52:
 8862 02ed 636C725F 		.ascii	"clr_user\000"
 8862      75736572 
 8862      00
 8863              	.LASF46:
 8864 02f6 63617264 		.ascii	"card_id_eeprom\000"
 8864      5F69645F 
 8864      65657072 
 8864      6F6D00
 8865              	.LASF20:
 8866 0305 63686172 		.ascii	"char\000"
 8866      00
 8867              	.LASF73:
 8868 030a 6F70656E 		.ascii	"open_qty\000"
ARM GAS  C:\Users\Administrator\AppData\Local\Temp\ccShlVUx.s 			page 181


 8868      5F717479 
 8868      00
 8869              	.LASF27:
 8870 0313 6F70656E 		.ascii	"open_door\000"
 8870      5F646F6F 
 8870      7200
 8871              	.LASF100:
 8872 031d 52656164 		.ascii	"Read_RebootType\000"
 8872      5F526562 
 8872      6F6F7454 
 8872      79706500 
 8873              	.LASF16:
 8874 032d 75696E74 		.ascii	"uint16\000"
 8874      313600
 8875              	.LASF89:
 8876 0334 64617461 		.ascii	"data\000"
 8876      00
 8877              	.LASF117:
 8878 0339 456E6470 		.ascii	"Endpoint_exchange\000"
 8878      6F696E74 
 8878      5F657863 
 8878      68616E67 
 8878      6500
 8879              	.LASF12:
 8880 034b 75696E74 		.ascii	"uint8_t\000"
 8880      385F7400 
 8881              	.LASF101:
 8882 0353 57726974 		.ascii	"Write_CenterIpType\000"
 8882      655F4365 
 8882      6E746572 
 8882      49705479 
 8882      706500
 8883              	.LASF93:
 8884 0366 4F70656E 		.ascii	"OpenQty\000"
 8884      51747900 
 8885              	.LASF76:
 8886 036e 64617461 		.ascii	"data_temp\000"
 8886      5F74656D 
 8886      7000
 8887              	.LASF102:
 8888 0378 52656164 		.ascii	"Read_CenterIpType\000"
 8888      5F43656E 
 8888      74657249 
 8888      70547970 
 8888      6500
 8889              	.LASF64:
 8890 038a 57726974 		.ascii	"Write_Open_Type\000"
 8890      655F4F70 
 8890      656E5F54 
 8890      79706500 
 8891              	.LASF87:
 8892 039a 616C6C71 		.ascii	"allqty\000"
 8892      747900
 8893              	.LASF9:
 8894 03a1 6C6F6E67 		.ascii	"long long int\000"
 8894      206C6F6E 
 8894      6720696E 
ARM GAS  C:\Users\Administrator\AppData\Local\Temp\ccShlVUx.s 			page 182


 8894      7400
 8895              	.LASF96:
 8896 03af 6F70656E 		.ascii	"open_time_flash\000"
 8896      5F74696D 
 8896      655F666C 
 8896      61736800 
 8897              	.LASF50:
 8898 03bf 6368675F 		.ascii	"chg_user\000"
 8898      75736572 
 8898      00
 8899              	.LASF54:
 8900 03c8 75736572 		.ascii	"userinfo\000"
 8900      696E666F 
 8900      00
 8901              	.LASF70:
 8902 03d1 57726974 		.ascii	"Write_OpenInfo\000"
 8902      655F4F70 
 8902      656E496E 
 8902      666F00
 8903              	.LASF37:
 8904 03e0 75736572 		.ascii	"user_init_valid_flag\000"
 8904      5F696E69 
 8904      745F7661 
 8904      6C69645F 
 8904      666C6167 
 8905              	.LASF30:
 8906 03f5 6F70656E 		.ascii	"open_door_t\000"
 8906      5F646F6F 
 8906      725F7400 
 8907              	.LASF59:
 8908 0401 76616C5F 		.ascii	"val_time\000"
 8908      74696D65 
 8908      00
 8909              	.LASF55:
 8910 040a 55736572 		.ascii	"UserData_Add_User\000"
 8910      44617461 
 8910      5F416464 
 8910      5F557365 
 8910      7200
 8911              	.LASF66:
 8912 041c 52656164 		.ascii	"Read_Open_Type\000"
 8912      5F4F7065 
 8912      6E5F5479 
 8912      706500
 8913              	.LASF79:
 8914 042b 73746172 		.ascii	"start_time\000"
 8914      745F7469 
 8914      6D6500
 8915              	.LASF17:
 8916 0436 75696E74 		.ascii	"uint32\000"
 8916      333200
 8917              	.LASF41:
 8918 043d 696E666F 		.ascii	"info\000"
 8918      00
 8919              	.LASF58:
 8920 0442 55736572 		.ascii	"UserData_Judge_If_Open\000"
 8920      44617461 
ARM GAS  C:\Users\Administrator\AppData\Local\Temp\ccShlVUx.s 			page 183


 8920      5F4A7564 
 8920      67655F49 
 8920      665F4F70 
 8921              	.LASF25:
 8922 0459 75736572 		.ascii	"user_info_t\000"
 8922      5F696E66 
 8922      6F5F7400 
 8923              	.LASF71:
 8924 0465 6F70656E 		.ascii	"openInfo\000"
 8924      496E666F 
 8924      00
 8925              	.LASF35:
 8926 046e 75736572 		.ascii	"user_id\000"
 8926      5F696400 
 8927              	.LASF26:
 8928 0476 75736572 		.ascii	"user_info\000"
 8928      5F696E66 
 8928      6F00
 8929              	.LASF63:
 8930 0480 52656164 		.ascii	"Read_Open_UploadFlag\000"
 8930      5F4F7065 
 8930      6E5F5570 
 8930      6C6F6164 
 8930      466C6167 
 8931              	.LASF13:
 8932 0495 75696E74 		.ascii	"uint16_t\000"
 8932      31365F74 
 8932      00
 8933              	.LASF67:
 8934 049e 57726974 		.ascii	"Write_Open_Qty\000"
 8934      655F4F70 
 8934      656E5F51 
 8934      747900
 8935              	.LASF53:
 8936 04ad 75736572 		.ascii	"userflag\000"
 8936      666C6167 
 8936      00
 8937              	.LASF2:
 8938 04b6 73686F72 		.ascii	"short int\000"
 8938      7420696E 
 8938      7400
 8939              	.LASF106:
 8940 04c0 436C6561 		.ascii	"Clear_AllOPeninfo\000"
 8940      725F416C 
 8940      6C4F5065 
 8940      6E696E66 
 8940      6F00
 8941              	.LASF6:
 8942 04d2 6C6F6E67 		.ascii	"long int\000"
 8942      20696E74 
 8942      00
 8943              	.LASF48:
 8944 04db 6164645F 		.ascii	"add_user\000"
 8944      75736572 
 8944      00
 8945              	.LASF83:
 8946 04e4 656E645F 		.ascii	"end_time\000"
ARM GAS  C:\Users\Administrator\AppData\Local\Temp\ccShlVUx.s 			page 184


 8946      74696D65 
 8946      00
 8947              	.LASF40:
 8948 04ed 75736572 		.ascii	"user_add_info\000"
 8948      5F616464 
 8948      5F696E66 
 8948      6F00
 8949              	.LASF110:
 8950 04fb 74657374 		.ascii	"test_Flash\000"
 8950      5F466C61 
 8950      736800
 8951              	.LASF31:
 8952 0506 666C6167 		.ascii	"flag\000"
 8952      00
 8953              	.LASF95:
 8954 050b 6F70656E 		.ascii	"open_time_utc\000"
 8954      5F74696D 
 8954      655F7574 
 8954      6300
 8955              	.LASF103:
 8956 0519 57726974 		.ascii	"Write_UpdateInfo\000"
 8956      655F5570 
 8956      64617465 
 8956      496E666F 
 8956      00
 8957              	.LASF97:
 8958 052a 6F70656E 		.ascii	"opendate_tmp\000"
 8958      64617465 
 8958      5F746D70 
 8958      00
 8959              	.LASF86:
 8960 0537 656E645F 		.ascii	"end_num\000"
 8960      6E756D00 
 8961              	.LASF3:
 8962 053f 5F5F7569 		.ascii	"__uint8_t\000"
 8962      6E74385F 
 8962      7400
 8963              	.LASF47:
 8964 0549 75736572 		.ascii	"user_get_valid_time\000"
 8964      5F676574 
 8964      5F76616C 
 8964      69645F74 
 8964      696D6500 
 8965              	.LASF111:
 8966 055d 74657374 		.ascii	"test_readopeninfo\000"
 8966      5F726561 
 8966      646F7065 
 8966      6E696E66 
 8966      6F00
 8967              	.LASF22:
 8968 056f 73697A65 		.ascii	"sizetype\000"
 8968      74797065 
 8968      00
 8969              	.LASF8:
 8970 0578 6C6F6E67 		.ascii	"long unsigned int\000"
 8970      20756E73 
 8970      69676E65 
ARM GAS  C:\Users\Administrator\AppData\Local\Temp\ccShlVUx.s 			page 185


 8970      6420696E 
 8970      7400
 8971              	.LASF104:
 8972 058a 52656164 		.ascii	"Read_Updateflag\000"
 8972      5F557064 
 8972      61746566 
 8972      6C616700 
 8973              	.LASF78:
 8974 059a 46696E64 		.ascii	"Find_Open_StartNum\000"
 8974      5F4F7065 
 8974      6E5F5374 
 8974      6172744E 
 8974      756D00
 8975              	.LASF56:
 8976 05ad 55736572 		.ascii	"UserData_DEL_User\000"
 8976      44617461 
 8976      5F44454C 
 8976      5F557365 
 8976      7200
 8977              	.LASF65:
 8978 05bf 74797065 		.ascii	"type\000"
 8978      00
 8979              	.LASF1:
 8980 05c4 756E7369 		.ascii	"unsigned char\000"
 8980      676E6564 
 8980      20636861 
 8980      7200
 8981              	.LASF7:
 8982 05d2 5F5F7569 		.ascii	"__uint32_t\000"
 8982      6E743332 
 8982      5F7400
 8983              	.LASF74:
 8984 05dd 6F70656E 		.ascii	"openinfo_tmp\000"
 8984      696E666F 
 8984      5F746D70 
 8984      00
 8985              	.LASF32:
 8986 05ea 75736572 		.ascii	"user_id_local\000"
 8986      5F69645F 
 8986      6C6F6361 
 8986      6C00
 8987              	.LASF82:
 8988 05f8 46696E64 		.ascii	"Find_Open_EndNum\000"
 8988      5F4F7065 
 8988      6E5F456E 
 8988      644E756D 
 8988      00
 8989              	.LASF108:
 8990 0609 6F70656E 		.ascii	"opendate_flag\000"
 8990      64617465 
 8990      5F666C61 
 8990      6700
 8991              	.LASF23:
 8992 0617 63617264 		.ascii	"card_uid\000"
 8992      5F756964 
 8992      00
 8993              	.LASF77:
ARM GAS  C:\Users\Administrator\AppData\Local\Temp\ccShlVUx.s 			page 186


 8994 0620 72656164 		.ascii	"readoff\000"
 8994      6F666600 
 8995              	.LASF0:
 8996 0628 7369676E 		.ascii	"signed char\000"
 8996      65642063 
 8996      68617200 
 8997              	.LASF5:
 8998 0634 73686F72 		.ascii	"short unsigned int\000"
 8998      7420756E 
 8998      7369676E 
 8998      65642069 
 8998      6E7400
 8999              	.LASF94:
 9000 0647 4F70656E 		.ascii	"OpenInfo\000"
 9000      496E666F 
 9000      00
 9001              	.LASF116:
 9002 0650 6D656D63 		.ascii	"memcpy\000"
 9002      707900
 9003              	.LASF107:
 9004 0657 6F70656E 		.ascii	"opendate\000"
 9004      64617465 
 9004      00
 9005              	.LASF122:
 9006 0660 6D656D63 		.ascii	"memcmp\000"
 9006      6D7000
 9007              	.LASF15:
 9008 0667 75696E74 		.ascii	"uint8\000"
 9008      3800
 9009              	.LASF19:
 9010 066d 646F7562 		.ascii	"double\000"
 9010      6C6500
 9011              	.LASF38:
 9012 0674 75736572 		.ascii	"user_set_valid_flag\000"
 9012      5F736574 
 9012      5F76616C 
 9012      69645F66 
 9012      6C616700 
 9013              	.LASF33:
 9014 0688 75736572 		.ascii	"user_find_free_id\000"
 9014      5F66696E 
 9014      645F6672 
 9014      65655F69 
 9014      6400
 9015              	.LASF84:
 9016 069a 46696E64 		.ascii	"Find_Open_ValidQty\000"
 9016      5F4F7065 
 9016      6E5F5661 
 9016      6C696451 
 9016      747900
 9017              	.LASF39:
 9018 06ad 75736572 		.ascii	"user_clr_valid_flag\000"
 9018      5F636C72 
 9018      5F76616C 
 9018      69645F66 
 9018      6C616700 
 9019              	.LASF72:
ARM GAS  C:\Users\Administrator\AppData\Local\Temp\ccShlVUx.s 			page 187


 9020 06c1 6F70656E 		.ascii	"openType\000"
 9020      54797065 
 9020      00
 9021              	.LASF98:
 9022 06ca 57726974 		.ascii	"Write_RebootType\000"
 9022      655F5265 
 9022      626F6F74 
 9022      54797065 
 9022      00
 9023              	.LASF57:
 9024 06db 55736572 		.ascii	"UserData_CLR_User\000"
 9024      44617461 
 9024      5F434C52 
 9024      5F557365 
 9024      7200
 9025              		.ident	"GCC: (GNU Tools for ARM Embedded Processors) 4.9.3 20150303 (release) [ARM/embedded-4_9-br
