ARM GAS  C:\Users\Administrator\AppData\Local\Temp\ccShlVUx.s 			page 1


   1              		.cpu cortex-m0
   2              		.fpu softvfp
   3              		.eabi_attribute 20, 1
   4              		.eabi_attribute 21, 1
   5              		.eabi_attribute 23, 3
   6              		.eabi_attribute 24, 1
   7              		.eabi_attribute 25, 1
   8              		.eabi_attribute 26, 1
   9              		.eabi_attribute 30, 4
  10              		.eabi_attribute 34, 0
  11              		.eabi_attribute 18, 4
  12              		.code	16
  13              		.file	"user_data.c"
  14              		.text
  15              	.Ltext0:
  16              		.cfi_sections	.debug_frame
  17              		.section	.text.user_init_valid_flag,"ax",%progbits
  18              		.align	1
  19              		.global	user_init_valid_flag
  20              		.code	16
  21              		.thumb_func
  22              		.type	user_init_valid_flag, %function
  23              	user_init_valid_flag:
  24              	.LFB63:
  25              		.file 1 "Code\\Device\\W25Q80\\user_data.c"
   1:Code\Device\W25Q80/user_data.c **** //*************************************************************************************************
   2:Code\Device\W25Q80/user_data.c **** // File name		: user_data.c
   3:Code\Device\W25Q80/user_data.c **** // Description		: 用户数据相关的函数
   4:Code\Device\W25Q80/user_data.c **** // Author			: Keno
   5:Code\Device\W25Q80/user_data.c **** // Date				: 2016.8.8
   6:Code\Device\W25Q80/user_data.c **** // Version			: V02
   7:Code\Device\W25Q80/user_data.c **** //-------------------------------------------------------------------------------------------------
   8:Code\Device\W25Q80/user_data.c **** // Info				: 用户编号从0开始，0-499；开门记录也从0开始，0-4999，5000为一周期
   9:Code\Device\W25Q80/user_data.c **** //*************************************************************************************************
  10:Code\Device\W25Q80/user_data.c **** #include "user_data.h"
  11:Code\Device\W25Q80/user_data.c **** 
  12:Code\Device\W25Q80/user_data.c **** 
  13:Code\Device\W25Q80/user_data.c **** int Endpoint_exchange(uint8 card_data[]);
  14:Code\Device\W25Q80/user_data.c **** extern uint8  uploadpolling_stop;										// 轮训上报开门信息 停止位		//
  15:Code\Device\W25Q80/user_data.c **** 
  16:Code\Device\W25Q80/user_data.c **** //===================================== 用户信息存储 ========================================
  17:Code\Device\W25Q80/user_data.c **** 
  18:Code\Device\W25Q80/user_data.c **** //*************************************************************************************************
  19:Code\Device\W25Q80/user_data.c **** // Function name	: user_init_valid_flag
  20:Code\Device\W25Q80/user_data.c **** // Description		: 初始化用户有效位标志，清零所有用户标志位
  21:Code\Device\W25Q80/user_data.c **** // Parameter		: none
  22:Code\Device\W25Q80/user_data.c **** // Return			: none
  23:Code\Device\W25Q80/user_data.c **** //-------------------------------------------------------------------------------------------------
  24:Code\Device\W25Q80/user_data.c **** // Info				: 
  25:Code\Device\W25Q80/user_data.c **** //*************************************************************************************************
  26:Code\Device\W25Q80/user_data.c **** void user_init_valid_flag(void)
  27:Code\Device\W25Q80/user_data.c **** {
  26              		.loc 1 27 0
  27              		.cfi_startproc
  28 0000 10B5     		push	{r4, lr}
  29              		.cfi_def_cfa_offset 8
  30              		.cfi_offset 4, -8
ARM GAS  C:\Users\Administrator\AppData\Local\Temp\ccShlVUx.s 			page 2


  31              		.cfi_offset 14, -4
  28:Code\Device\W25Q80/user_data.c **** 	uint8 flag[USER_FLAG_SIZE];
  29:Code\Device\W25Q80/user_data.c **** 	
  30:Code\Device\W25Q80/user_data.c **** 	memset(flag, 0, sizeof(flag));
  32              		.loc 1 30 0
  33 0002 FA24     		mov	r4, #250
  27:Code\Device\W25Q80/user_data.c **** 	uint8 flag[USER_FLAG_SIZE];
  34              		.loc 1 27 0
  35 0004 FEB0     		sub	sp, sp, #504
  36              		.cfi_def_cfa_offset 512
  37              		.loc 1 30 0
  38 0006 6400     		lsl	r4, r4, #1
  39 0008 221C     		mov	r2, r4
  40 000a 01A8     		add	r0, sp, #4
  41 000c 0021     		mov	r1, #0
  42 000e FFF7FEFF 		bl	memset
  43              	.LVL0:
  31:Code\Device\W25Q80/user_data.c **** 	W25QXX_Write(flag, USER_FLAG_BASE, (uint16)sizeof(flag));
  44              		.loc 1 31 0
  45 0012 01A8     		add	r0, sp, #4
  46 0014 0021     		mov	r1, #0
  47 0016 221C     		mov	r2, r4
  48 0018 FFF7FEFF 		bl	W25QXX_Write
  49              	.LVL1:
  32:Code\Device\W25Q80/user_data.c **** }
  50              		.loc 1 32 0
  51 001c 7EB0     		add	sp, sp, #504
  52              		@ sp needed
  53 001e 10BD     		pop	{r4, pc}
  54              		.cfi_endproc
  55              	.LFE63:
  56              		.size	user_init_valid_flag, .-user_init_valid_flag
  57              		.section	.text.user_find_free_id,"ax",%progbits
  58              		.align	1
  59              		.global	user_find_free_id
  60              		.code	16
  61              		.thumb_func
  62              		.type	user_find_free_id, %function
  63              	user_find_free_id:
  64              	.LFB64:
  33:Code\Device\W25Q80/user_data.c **** 
  34:Code\Device\W25Q80/user_data.c **** //*************************************************************************************************
  35:Code\Device\W25Q80/user_data.c **** // Function name	: user_find_free_id
  36:Code\Device\W25Q80/user_data.c **** // Description		: 查找空闲的用户有效位标志 
  37:Code\Device\W25Q80/user_data.c **** // Parameter		: user_id
  38:Code\Device\W25Q80/user_data.c **** // Return			: RET_OK : 找到 / RET_ERR : 未找到
  39:Code\Device\W25Q80/user_data.c **** //-------------------------------------------------------------------------------------------------
  40:Code\Device\W25Q80/user_data.c **** // Info				: 
  41:Code\Device\W25Q80/user_data.c **** //*************************************************************************************************
  42:Code\Device\W25Q80/user_data.c **** uint8 user_find_free_id(uint16 *user_id)
  43:Code\Device\W25Q80/user_data.c **** {
  65              		.loc 1 43 0
  66              		.cfi_startproc
  67              	.LVL2:
  44:Code\Device\W25Q80/user_data.c **** 	uint16 user_id_local;
  45:Code\Device\W25Q80/user_data.c **** 	uint8 flag[USER_FLAG_SIZE];
  46:Code\Device\W25Q80/user_data.c **** 	
ARM GAS  C:\Users\Administrator\AppData\Local\Temp\ccShlVUx.s 			page 3


  47:Code\Device\W25Q80/user_data.c **** 	W25QXX_Read(flag, USER_FLAG_BASE, (uint16)sizeof(flag));
  68              		.loc 1 47 0
  69 0000 FA22     		mov	r2, #250
  43:Code\Device\W25Q80/user_data.c **** 	uint16 user_id_local;
  70              		.loc 1 43 0
  71 0002 30B5     		push	{r4, r5, lr}
  72              		.cfi_def_cfa_offset 12
  73              		.cfi_offset 4, -12
  74              		.cfi_offset 5, -8
  75              		.cfi_offset 14, -4
  76 0004 FFB0     		sub	sp, sp, #508
  77              		.cfi_def_cfa_offset 520
  78              		.loc 1 47 0
  79 0006 01AC     		add	r4, sp, #4
  43:Code\Device\W25Q80/user_data.c **** 	uint16 user_id_local;
  80              		.loc 1 43 0
  81 0008 051C     		mov	r5, r0
  82              		.loc 1 47 0
  83 000a 0021     		mov	r1, #0
  84 000c 201C     		mov	r0, r4
  85              	.LVL3:
  86 000e 5200     		lsl	r2, r2, #1
  87 0010 FFF7FEFF 		bl	W25QXX_Read
  88              	.LVL4:
  89 0014 0023     		mov	r3, #0
  90              	.LVL5:
  91              	.L5:
  48:Code\Device\W25Q80/user_data.c **** 	for (user_id_local = 0; user_id_local < MAX_USR_NUM; user_id_local++)
  49:Code\Device\W25Q80/user_data.c **** 	{
  50:Code\Device\W25Q80/user_data.c **** 		if ((flag[user_id_local] == 0) || (flag[user_id_local] == 0xFF))
  92              		.loc 1 50 0
  93 0016 E25C     		ldrb	r2, [r4, r3]
  94 0018 99B2     		uxth	r1, r3
  95              	.LVL6:
  96 001a 013A     		sub	r2, r2, #1
  97 001c D2B2     		uxtb	r2, r2
  98 001e FD2A     		cmp	r2, #253
  99 0020 02D9     		bls	.L3
  51:Code\Device\W25Q80/user_data.c **** 		{
  52:Code\Device\W25Q80/user_data.c **** 			*user_id = user_id_local;
 100              		.loc 1 52 0
 101 0022 2980     		strh	r1, [r5]
  53:Code\Device\W25Q80/user_data.c **** 			return RET_OK;
 102              		.loc 1 53 0
 103 0024 0120     		mov	r0, #1
 104 0026 05E0     		b	.L4
 105              	.L3:
 106              	.LVL7:
  48:Code\Device\W25Q80/user_data.c **** 	for (user_id_local = 0; user_id_local < MAX_USR_NUM; user_id_local++)
 107              		.loc 1 48 0 discriminator 2
 108 0028 FA22     		mov	r2, #250
 109 002a 0133     		add	r3, r3, #1
 110              	.LVL8:
 111 002c 5200     		lsl	r2, r2, #1
 112 002e 9342     		cmp	r3, r2
 113 0030 F1D1     		bne	.L5
  54:Code\Device\W25Q80/user_data.c **** 		}
ARM GAS  C:\Users\Administrator\AppData\Local\Temp\ccShlVUx.s 			page 4


  55:Code\Device\W25Q80/user_data.c **** 	}
  56:Code\Device\W25Q80/user_data.c **** 	return RET_ERR;
 114              		.loc 1 56 0
 115 0032 0020     		mov	r0, #0
 116              	.LVL9:
 117              	.L4:
  57:Code\Device\W25Q80/user_data.c **** }
 118              		.loc 1 57 0
 119 0034 7FB0     		add	sp, sp, #508
 120              		@ sp needed
 121              	.LVL10:
 122 0036 30BD     		pop	{r4, r5, pc}
 123              		.cfi_endproc
 124              	.LFE64:
 125              		.size	user_find_free_id, .-user_find_free_id
 126              		.section	.text.user_id_if_valid,"ax",%progbits
 127              		.align	1
 128              		.global	user_id_if_valid
 129              		.code	16
 130              		.thumb_func
 131              		.type	user_id_if_valid, %function
 132              	user_id_if_valid:
 133              	.LFB65:
  58:Code\Device\W25Q80/user_data.c **** 
  59:Code\Device\W25Q80/user_data.c **** //*************************************************************************************************
  60:Code\Device\W25Q80/user_data.c **** // Function name	: user_id_if_valid
  61:Code\Device\W25Q80/user_data.c **** // Description		: 判断对应编号的用户是否存在
  62:Code\Device\W25Q80/user_data.c **** // Parameter		: user_id
  63:Code\Device\W25Q80/user_data.c **** // Return			: none
  64:Code\Device\W25Q80/user_data.c **** //-------------------------------------------------------------------------------------------------
  65:Code\Device\W25Q80/user_data.c **** // Info				: 用户编号从0开始，0-499.
  66:Code\Device\W25Q80/user_data.c **** //*************************************************************************************************
  67:Code\Device\W25Q80/user_data.c **** uint8 user_id_if_valid(uint16 user_id)
  68:Code\Device\W25Q80/user_data.c **** {
 134              		.loc 1 68 0
 135              		.cfi_startproc
 136              	.LVL11:
  69:Code\Device\W25Q80/user_data.c **** 	uint8 flag[USER_FLAG_SIZE];
  70:Code\Device\W25Q80/user_data.c **** 	
  71:Code\Device\W25Q80/user_data.c **** 	W25QXX_Read(flag, USER_FLAG_BASE, USER_FLAG_SIZE);
 137              		.loc 1 71 0
 138 0000 FA22     		mov	r2, #250
  68:Code\Device\W25Q80/user_data.c **** 	uint8 flag[USER_FLAG_SIZE];
 139              		.loc 1 68 0
 140 0002 30B5     		push	{r4, r5, lr}
 141              		.cfi_def_cfa_offset 12
 142              		.cfi_offset 4, -12
 143              		.cfi_offset 5, -8
 144              		.cfi_offset 14, -4
 145 0004 051C     		mov	r5, r0
 146 0006 FFB0     		sub	sp, sp, #508
 147              		.cfi_def_cfa_offset 520
 148              		.loc 1 71 0
 149 0008 01AC     		add	r4, sp, #4
 150 000a 201C     		mov	r0, r4
 151              	.LVL12:
 152 000c 0021     		mov	r1, #0
ARM GAS  C:\Users\Administrator\AppData\Local\Temp\ccShlVUx.s 			page 5


 153 000e 5200     		lsl	r2, r2, #1
 154 0010 FFF7FEFF 		bl	W25QXX_Read
 155              	.LVL13:
  72:Code\Device\W25Q80/user_data.c **** 	if (flag[user_id] == TRUE)
 156              		.loc 1 72 0
 157 0014 605D     		ldrb	r0, [r4, r5]
 158 0016 0138     		sub	r0, r0, #1
 159 0018 4342     		neg	r3, r0
 160 001a 5841     		adc	r0, r0, r3
  73:Code\Device\W25Q80/user_data.c **** 	{
  74:Code\Device\W25Q80/user_data.c **** 		return TRUE;
 161              		.loc 1 74 0
 162 001c C0B2     		uxtb	r0, r0
  75:Code\Device\W25Q80/user_data.c **** 	}
  76:Code\Device\W25Q80/user_data.c **** 	else
  77:Code\Device\W25Q80/user_data.c **** 	{
  78:Code\Device\W25Q80/user_data.c **** 		return FALSE;
  79:Code\Device\W25Q80/user_data.c **** 	}
  80:Code\Device\W25Q80/user_data.c **** }
 163              		.loc 1 80 0
 164 001e 7FB0     		add	sp, sp, #508
 165              		@ sp needed
 166 0020 30BD     		pop	{r4, r5, pc}
 167              		.cfi_endproc
 168              	.LFE65:
 169              		.size	user_id_if_valid, .-user_id_if_valid
 170              		.section	.text.user_get_reg_qty,"ax",%progbits
 171              		.align	1
 172              		.global	user_get_reg_qty
 173              		.code	16
 174              		.thumb_func
 175              		.type	user_get_reg_qty, %function
 176              	user_get_reg_qty:
 177              	.LFB66:
  81:Code\Device\W25Q80/user_data.c **** 
  82:Code\Device\W25Q80/user_data.c **** //*************************************************************************************************
  83:Code\Device\W25Q80/user_data.c **** // Function name	: user_get_reg_qty
  84:Code\Device\W25Q80/user_data.c **** // Description		: 获取已注册用户数量
  85:Code\Device\W25Q80/user_data.c **** // Parameter		: none
  86:Code\Device\W25Q80/user_data.c **** // Return			: qty	: 已注册用户数量
  87:Code\Device\W25Q80/user_data.c **** //-------------------------------------------------------------------------------------------------
  88:Code\Device\W25Q80/user_data.c **** // Info				: 
  89:Code\Device\W25Q80/user_data.c **** //*************************************************************************************************
  90:Code\Device\W25Q80/user_data.c **** uint16 user_get_reg_qty(void)
  91:Code\Device\W25Q80/user_data.c **** {
 178              		.loc 1 91 0
 179              		.cfi_startproc
 180              	.LVL14:
  92:Code\Device\W25Q80/user_data.c **** 	uint8 flag[USER_FLAG_SIZE];
  93:Code\Device\W25Q80/user_data.c **** 	uint16 user_id_local;
  94:Code\Device\W25Q80/user_data.c **** 	uint16 qty = 0;
  95:Code\Device\W25Q80/user_data.c **** 	
  96:Code\Device\W25Q80/user_data.c **** 	W25QXX_Read(flag, USER_FLAG_BASE, USER_FLAG_SIZE);
 181              		.loc 1 96 0
 182 0000 FA22     		mov	r2, #250
  91:Code\Device\W25Q80/user_data.c **** 	uint8 flag[USER_FLAG_SIZE];
 183              		.loc 1 91 0
ARM GAS  C:\Users\Administrator\AppData\Local\Temp\ccShlVUx.s 			page 6


 184 0002 10B5     		push	{r4, lr}
 185              		.cfi_def_cfa_offset 8
 186              		.cfi_offset 4, -8
 187              		.cfi_offset 14, -4
 188 0004 FEB0     		sub	sp, sp, #504
 189              		.cfi_def_cfa_offset 512
 190              		.loc 1 96 0
 191 0006 01AC     		add	r4, sp, #4
 192 0008 201C     		mov	r0, r4
 193 000a 0021     		mov	r1, #0
 194 000c 5200     		lsl	r2, r2, #1
 195 000e FFF7FEFF 		bl	W25QXX_Read
 196              	.LVL15:
 197 0012 0023     		mov	r3, #0
  94:Code\Device\W25Q80/user_data.c **** 	
 198              		.loc 1 94 0
 199 0014 181C     		mov	r0, r3
 200              	.LVL16:
 201              	.L10:
  97:Code\Device\W25Q80/user_data.c **** 	for (user_id_local = 0; user_id_local < MAX_USR_NUM; user_id_local++)
  98:Code\Device\W25Q80/user_data.c **** 	{
  99:Code\Device\W25Q80/user_data.c **** 		if (flag[user_id_local] == TRUE)
 202              		.loc 1 99 0
 203 0016 E25C     		ldrb	r2, [r4, r3]
 204 0018 012A     		cmp	r2, #1
 205 001a 01D1     		bne	.L9
 100:Code\Device\W25Q80/user_data.c **** 		{
 101:Code\Device\W25Q80/user_data.c **** 			qty += 1;
 206              		.loc 1 101 0
 207 001c 0130     		add	r0, r0, #1
 208              	.LVL17:
 209 001e 80B2     		uxth	r0, r0
 210              	.LVL18:
 211              	.L9:
  97:Code\Device\W25Q80/user_data.c **** 	for (user_id_local = 0; user_id_local < MAX_USR_NUM; user_id_local++)
 212              		.loc 1 97 0 discriminator 2
 213 0020 FA22     		mov	r2, #250
 214 0022 0133     		add	r3, r3, #1
 215              	.LVL19:
 216 0024 5200     		lsl	r2, r2, #1
 217 0026 9342     		cmp	r3, r2
 218 0028 F5D1     		bne	.L10
 102:Code\Device\W25Q80/user_data.c **** 		}
 103:Code\Device\W25Q80/user_data.c **** 	}
 104:Code\Device\W25Q80/user_data.c **** 	return qty;
 105:Code\Device\W25Q80/user_data.c **** }
 219              		.loc 1 105 0
 220 002a 7EB0     		add	sp, sp, #504
 221              		@ sp needed
 222 002c 10BD     		pop	{r4, pc}
 223              		.cfi_endproc
 224              	.LFE66:
 225              		.size	user_get_reg_qty, .-user_get_reg_qty
 226              		.section	.text.user_set_valid_flag,"ax",%progbits
 227              		.align	1
 228              		.global	user_set_valid_flag
 229              		.code	16
ARM GAS  C:\Users\Administrator\AppData\Local\Temp\ccShlVUx.s 			page 7


 230              		.thumb_func
 231              		.type	user_set_valid_flag, %function
 232              	user_set_valid_flag:
 233              	.LFB67:
 106:Code\Device\W25Q80/user_data.c **** 
 107:Code\Device\W25Q80/user_data.c **** //*************************************************************************************************
 108:Code\Device\W25Q80/user_data.c **** // Function name	: user_set_valid_flag
 109:Code\Device\W25Q80/user_data.c **** // Description		: 置位用户有效位标志
 110:Code\Device\W25Q80/user_data.c **** // Parameter		: user_id
 111:Code\Device\W25Q80/user_data.c **** // Return			: none
 112:Code\Device\W25Q80/user_data.c **** //-------------------------------------------------------------------------------------------------
 113:Code\Device\W25Q80/user_data.c **** // Info				: 
 114:Code\Device\W25Q80/user_data.c **** //*************************************************************************************************
 115:Code\Device\W25Q80/user_data.c **** void user_set_valid_flag(uint16 user_id)
 116:Code\Device\W25Q80/user_data.c **** {
 234              		.loc 1 116 0
 235              		.cfi_startproc
 236              	.LVL20:
 237 0000 07B5     		push	{r0, r1, r2, lr}
 238              		.cfi_def_cfa_offset 16
 239              		.cfi_offset 0, -16
 240              		.cfi_offset 1, -12
 241              		.cfi_offset 2, -8
 242              		.cfi_offset 14, -4
 117:Code\Device\W25Q80/user_data.c **** 	uint8 flag = TRUE;
 243              		.loc 1 117 0
 244 0002 6B46     		mov	r3, sp
 245 0004 0122     		mov	r2, #1
 116:Code\Device\W25Q80/user_data.c **** 	uint8 flag = TRUE;
 246              		.loc 1 116 0
 247 0006 011C     		mov	r1, r0
 248              		.loc 1 117 0
 249 0008 D81D     		add	r0, r3, #7
 250              	.LVL21:
 251 000a 0270     		strb	r2, [r0]
 118:Code\Device\W25Q80/user_data.c **** 	
 119:Code\Device\W25Q80/user_data.c **** 	W25QXX_Write(&flag, USER_FLAG_BASE + user_id, 1);
 120:Code\Device\W25Q80/user_data.c **** }
 252              		.loc 1 120 0
 253              		@ sp needed
 119:Code\Device\W25Q80/user_data.c **** }
 254              		.loc 1 119 0
 255 000c FFF7FEFF 		bl	W25QXX_Write
 256              	.LVL22:
 257              		.loc 1 120 0
 258 0010 07BD     		pop	{r0, r1, r2, pc}
 259              		.cfi_endproc
 260              	.LFE67:
 261              		.size	user_set_valid_flag, .-user_set_valid_flag
 262              		.section	.text.user_clr_valid_flag,"ax",%progbits
 263              		.align	1
 264              		.global	user_clr_valid_flag
 265              		.code	16
 266              		.thumb_func
 267              		.type	user_clr_valid_flag, %function
 268              	user_clr_valid_flag:
 269              	.LFB68:
ARM GAS  C:\Users\Administrator\AppData\Local\Temp\ccShlVUx.s 			page 8


 121:Code\Device\W25Q80/user_data.c **** 
 122:Code\Device\W25Q80/user_data.c **** //*************************************************************************************************
 123:Code\Device\W25Q80/user_data.c **** // Function name	: user_clr_valid_flag
 124:Code\Device\W25Q80/user_data.c **** // Description		: 清除用户有效位标志
 125:Code\Device\W25Q80/user_data.c **** // Parameter		: user_id
 126:Code\Device\W25Q80/user_data.c **** // Return			: none
 127:Code\Device\W25Q80/user_data.c **** //-------------------------------------------------------------------------------------------------
 128:Code\Device\W25Q80/user_data.c **** // Info				: 
 129:Code\Device\W25Q80/user_data.c **** //*************************************************************************************************
 130:Code\Device\W25Q80/user_data.c **** void user_clr_valid_flag(uint16 user_id)
 131:Code\Device\W25Q80/user_data.c **** {
 270              		.loc 1 131 0
 271              		.cfi_startproc
 272              	.LVL23:
 273 0000 07B5     		push	{r0, r1, r2, lr}
 274              		.cfi_def_cfa_offset 16
 275              		.cfi_offset 0, -16
 276              		.cfi_offset 1, -12
 277              		.cfi_offset 2, -8
 278              		.cfi_offset 14, -4
 132:Code\Device\W25Q80/user_data.c **** 	uint8 flag = FALSE;
 279              		.loc 1 132 0
 280 0002 6B46     		mov	r3, sp
 131:Code\Device\W25Q80/user_data.c **** 	uint8 flag = FALSE;
 281              		.loc 1 131 0
 282 0004 011C     		mov	r1, r0
 283              		.loc 1 132 0
 284 0006 D81D     		add	r0, r3, #7
 285              	.LVL24:
 286 0008 0023     		mov	r3, #0
 133:Code\Device\W25Q80/user_data.c **** 	
 134:Code\Device\W25Q80/user_data.c **** 	W25QXX_Write(&flag, USER_FLAG_BASE + user_id, 1);
 287              		.loc 1 134 0
 288 000a 0122     		mov	r2, #1
 132:Code\Device\W25Q80/user_data.c **** 	
 289              		.loc 1 132 0
 290 000c 0370     		strb	r3, [r0]
 135:Code\Device\W25Q80/user_data.c **** }
 291              		.loc 1 135 0
 292              		@ sp needed
 134:Code\Device\W25Q80/user_data.c **** }
 293              		.loc 1 134 0
 294 000e FFF7FEFF 		bl	W25QXX_Write
 295              	.LVL25:
 296              		.loc 1 135 0
 297 0012 07BD     		pop	{r0, r1, r2, pc}
 298              		.cfi_endproc
 299              	.LFE68:
 300              		.size	user_clr_valid_flag, .-user_clr_valid_flag
 301              		.section	.text.user_add_info,"ax",%progbits
 302              		.align	1
 303              		.global	user_add_info
 304              		.code	16
 305              		.thumb_func
 306              		.type	user_add_info, %function
 307              	user_add_info:
 308              	.LFB69:
ARM GAS  C:\Users\Administrator\AppData\Local\Temp\ccShlVUx.s 			page 9


 136:Code\Device\W25Q80/user_data.c **** 
 137:Code\Device\W25Q80/user_data.c **** //*************************************************************************************************
 138:Code\Device\W25Q80/user_data.c **** // Function name	: user_add_info
 139:Code\Device\W25Q80/user_data.c **** // Description		: 添加新的用户信息
 140:Code\Device\W25Q80/user_data.c **** // Parameter		: user_id，user_info_t
 141:Code\Device\W25Q80/user_data.c **** // Return			: none
 142:Code\Device\W25Q80/user_data.c **** //-------------------------------------------------------------------------------------------------
 143:Code\Device\W25Q80/user_data.c **** // Info				: 
 144:Code\Device\W25Q80/user_data.c **** //*************************************************************************************************
 145:Code\Device\W25Q80/user_data.c **** void user_add_info(uint16 user_id, user_info_t *info)
 146:Code\Device\W25Q80/user_data.c **** {
 309              		.loc 1 146 0
 310              		.cfi_startproc
 311              	.LVL26:
 147:Code\Device\W25Q80/user_data.c **** 	W25QXX_Write((uint8 *)info, USER_INFO_BASE + (sizeof(user_info_t) * user_id), (uint16)sizeof(user_
 312              		.loc 1 147 0
 313 0000 0C22     		mov	r2, #12
 314 0002 031C     		mov	r3, r0
 146:Code\Device\W25Q80/user_data.c **** 	W25QXX_Write((uint8 *)info, USER_INFO_BASE + (sizeof(user_info_t) * user_id), (uint16)sizeof(user_
 315              		.loc 1 146 0
 316 0004 10B5     		push	{r4, lr}
 317              		.cfi_def_cfa_offset 8
 318              		.cfi_offset 4, -8
 319              		.cfi_offset 14, -4
 146:Code\Device\W25Q80/user_data.c **** 	W25QXX_Write((uint8 *)info, USER_INFO_BASE + (sizeof(user_info_t) * user_id), (uint16)sizeof(user_
 320              		.loc 1 146 0
 321 0006 0C1C     		mov	r4, r1
 322              		.loc 1 147 0
 323 0008 8021     		mov	r1, #128
 324              	.LVL27:
 325 000a 5343     		mul	r3, r2
 326 000c 8900     		lsl	r1, r1, #2
 327 000e 5918     		add	r1, r3, r1
 328 0010 201C     		mov	r0, r4
 329              	.LVL28:
 330 0012 FFF7FEFF 		bl	W25QXX_Write
 331              	.LVL29:
 148:Code\Device\W25Q80/user_data.c **** }
 332              		.loc 1 148 0
 333              		@ sp needed
 334              	.LVL30:
 335 0016 10BD     		pop	{r4, pc}
 336              		.cfi_endproc
 337              	.LFE69:
 338              		.size	user_add_info, .-user_add_info
 339              		.section	.text.user_del_info,"ax",%progbits
 340              		.align	1
 341              		.global	user_del_info
 342              		.code	16
 343              		.thumb_func
 344              		.type	user_del_info, %function
 345              	user_del_info:
 346              	.LFB70:
 149:Code\Device\W25Q80/user_data.c **** 
 150:Code\Device\W25Q80/user_data.c **** //*************************************************************************************************
 151:Code\Device\W25Q80/user_data.c **** // Function name	: user_del_info
 152:Code\Device\W25Q80/user_data.c **** // Description		: 删除新的用户信息
ARM GAS  C:\Users\Administrator\AppData\Local\Temp\ccShlVUx.s 			page 10


 153:Code\Device\W25Q80/user_data.c **** // Parameter		: user_id
 154:Code\Device\W25Q80/user_data.c **** // Return			: none
 155:Code\Device\W25Q80/user_data.c **** //-------------------------------------------------------------------------------------------------
 156:Code\Device\W25Q80/user_data.c **** // Info				: 
 157:Code\Device\W25Q80/user_data.c **** //*************************************************************************************************
 158:Code\Device\W25Q80/user_data.c **** void user_del_info(uint16 user_id)
 159:Code\Device\W25Q80/user_data.c **** {
 347              		.loc 1 159 0
 348              		.cfi_startproc
 349              	.LVL31:
 350 0000 30B5     		push	{r4, r5, lr}
 351              		.cfi_def_cfa_offset 12
 352              		.cfi_offset 4, -12
 353              		.cfi_offset 5, -8
 354              		.cfi_offset 14, -4
 160:Code\Device\W25Q80/user_data.c **** 	uint8_t flag[sizeof(user_info_t)] = {0};
 355              		.loc 1 160 0
 356 0002 0C25     		mov	r5, #12
 159:Code\Device\W25Q80/user_data.c **** 	uint8_t flag[sizeof(user_info_t)] = {0};
 357              		.loc 1 159 0
 358 0004 041C     		mov	r4, r0
 359 0006 85B0     		sub	sp, sp, #20
 360              		.cfi_def_cfa_offset 32
 361              		.loc 1 160 0
 362 0008 2A1C     		mov	r2, r5
 363 000a 01A8     		add	r0, sp, #4
 364              	.LVL32:
 365 000c 0021     		mov	r1, #0
 366 000e FFF7FEFF 		bl	memset
 367              	.LVL33:
 161:Code\Device\W25Q80/user_data.c **** 	
 162:Code\Device\W25Q80/user_data.c **** 	W25QXX_Write(flag, USER_INFO_BASE + sizeof(user_info_t) * user_id, (uint16)sizeof(user_info_t));
 368              		.loc 1 162 0
 369 0012 8023     		mov	r3, #128
 370 0014 6C43     		mul	r4, r5
 371 0016 9B00     		lsl	r3, r3, #2
 372 0018 E118     		add	r1, r4, r3
 373 001a 01A8     		add	r0, sp, #4
 374 001c 2A1C     		mov	r2, r5
 375 001e FFF7FEFF 		bl	W25QXX_Write
 376              	.LVL34:
 163:Code\Device\W25Q80/user_data.c **** }
 377              		.loc 1 163 0
 378 0022 05B0     		add	sp, sp, #20
 379              		@ sp needed
 380 0024 30BD     		pop	{r4, r5, pc}
 381              		.cfi_endproc
 382              	.LFE70:
 383              		.size	user_del_info, .-user_del_info
 384              		.section	.text.user_get_info,"ax",%progbits
 385              		.align	1
 386              		.global	user_get_info
 387              		.code	16
 388              		.thumb_func
 389              		.type	user_get_info, %function
 390              	user_get_info:
 391              	.LFB71:
ARM GAS  C:\Users\Administrator\AppData\Local\Temp\ccShlVUx.s 			page 11


 164:Code\Device\W25Q80/user_data.c **** 
 165:Code\Device\W25Q80/user_data.c **** //*************************************************************************************************
 166:Code\Device\W25Q80/user_data.c **** // Function name	: user_get_info
 167:Code\Device\W25Q80/user_data.c **** // Description		: 根据user_id来获取Info用户信息
 168:Code\Device\W25Q80/user_data.c **** // Parameter		: user_id，user_info_t
 169:Code\Device\W25Q80/user_data.c **** // Return			: none
 170:Code\Device\W25Q80/user_data.c **** //-------------------------------------------------------------------------------------------------
 171:Code\Device\W25Q80/user_data.c **** // Info				: 
 172:Code\Device\W25Q80/user_data.c **** //*************************************************************************************************
 173:Code\Device\W25Q80/user_data.c **** void user_get_info(uint16 user_id, user_info_t *info)
 174:Code\Device\W25Q80/user_data.c **** {
 392              		.loc 1 174 0
 393              		.cfi_startproc
 394              	.LVL35:
 175:Code\Device\W25Q80/user_data.c **** 	W25QXX_Read((uint8 *)info, USER_INFO_BASE + sizeof(user_info_t) * user_id, (uint16)sizeof(user_inf
 395              		.loc 1 175 0
 396 0000 0C22     		mov	r2, #12
 397 0002 031C     		mov	r3, r0
 174:Code\Device\W25Q80/user_data.c **** 	W25QXX_Read((uint8 *)info, USER_INFO_BASE + sizeof(user_info_t) * user_id, (uint16)sizeof(user_inf
 398              		.loc 1 174 0
 399 0004 10B5     		push	{r4, lr}
 400              		.cfi_def_cfa_offset 8
 401              		.cfi_offset 4, -8
 402              		.cfi_offset 14, -4
 174:Code\Device\W25Q80/user_data.c **** 	W25QXX_Read((uint8 *)info, USER_INFO_BASE + sizeof(user_info_t) * user_id, (uint16)sizeof(user_inf
 403              		.loc 1 174 0
 404 0006 0C1C     		mov	r4, r1
 405              		.loc 1 175 0
 406 0008 8021     		mov	r1, #128
 407              	.LVL36:
 408 000a 5343     		mul	r3, r2
 409 000c 8900     		lsl	r1, r1, #2
 410 000e 5918     		add	r1, r3, r1
 411 0010 201C     		mov	r0, r4
 412              	.LVL37:
 413 0012 FFF7FEFF 		bl	W25QXX_Read
 414              	.LVL38:
 176:Code\Device\W25Q80/user_data.c **** }
 415              		.loc 1 176 0
 416              		@ sp needed
 417              	.LVL39:
 418 0016 10BD     		pop	{r4, pc}
 419              		.cfi_endproc
 420              	.LFE71:
 421              		.size	user_get_info, .-user_get_info
 422              		.section	.text.user_get_card_uid,"ax",%progbits
 423              		.align	1
 424              		.global	user_get_card_uid
 425              		.code	16
 426              		.thumb_func
 427              		.type	user_get_card_uid, %function
 428              	user_get_card_uid:
 429              	.LFB72:
 177:Code\Device\W25Q80/user_data.c **** 
 178:Code\Device\W25Q80/user_data.c **** //*************************************************************************************************
 179:Code\Device\W25Q80/user_data.c **** // Function name	: user_get_card_uid
 180:Code\Device\W25Q80/user_data.c **** // Description		: 根据user_id来获取卡uid
ARM GAS  C:\Users\Administrator\AppData\Local\Temp\ccShlVUx.s 			page 12


 181:Code\Device\W25Q80/user_data.c **** // Parameter		: user_id，*card_uid
 182:Code\Device\W25Q80/user_data.c **** // Return			: none
 183:Code\Device\W25Q80/user_data.c **** //-------------------------------------------------------------------------------------------------
 184:Code\Device\W25Q80/user_data.c **** // Info				: 
 185:Code\Device\W25Q80/user_data.c **** //*************************************************************************************************
 186:Code\Device\W25Q80/user_data.c **** void user_get_card_uid(uint16 user_id, uint8 *card_uid)
 187:Code\Device\W25Q80/user_data.c **** {
 430              		.loc 1 187 0
 431              		.cfi_startproc
 432              	.LVL40:
 433 0000 08B5     		push	{r3, lr}
 434              		.cfi_def_cfa_offset 8
 435              		.cfi_offset 3, -8
 436              		.cfi_offset 14, -4
 188:Code\Device\W25Q80/user_data.c **** 	W25QXX_Read(card_uid, USER_INFO_BASE + sizeof(user_info_t) * user_id + offsetof(user_info_t, card_
 437              		.loc 1 188 0
 438 0002 0C23     		mov	r3, #12
 187:Code\Device\W25Q80/user_data.c **** 	W25QXX_Read(card_uid, USER_INFO_BASE + sizeof(user_info_t) * user_id + offsetof(user_info_t, card_
 439              		.loc 1 187 0
 440 0004 0A1C     		mov	r2, r1
 441              		.loc 1 188 0
 442 0006 8021     		mov	r1, #128
 443              	.LVL41:
 444 0008 4343     		mul	r3, r0
 445 000a 8900     		lsl	r1, r1, #2
 446 000c 101C     		mov	r0, r2
 447              	.LVL42:
 448 000e 5918     		add	r1, r3, r1
 449 0010 0822     		mov	r2, #8
 450              	.LVL43:
 451 0012 FFF7FEFF 		bl	W25QXX_Read
 452              	.LVL44:
 189:Code\Device\W25Q80/user_data.c **** }
 453              		.loc 1 189 0
 454              		@ sp needed
 455 0016 08BD     		pop	{r3, pc}
 456              		.cfi_endproc
 457              	.LFE72:
 458              		.size	user_get_card_uid, .-user_get_card_uid
 459              		.section	.text.user_get_user_id,"ax",%progbits
 460              		.align	1
 461              		.global	user_get_user_id
 462              		.code	16
 463              		.thumb_func
 464              		.type	user_get_user_id, %function
 465              	user_get_user_id:
 466              	.LFB73:
 190:Code\Device\W25Q80/user_data.c **** 
 191:Code\Device\W25Q80/user_data.c **** //*************************************************************************************************
 192:Code\Device\W25Q80/user_data.c **** // Function name	: user_get_user_id
 193:Code\Device\W25Q80/user_data.c **** // Description		: 根据uid信息来获取user_id
 194:Code\Device\W25Q80/user_data.c **** // Parameter		: *user_id ，*card_uid
 195:Code\Device\W25Q80/user_data.c **** // Return			: none
 196:Code\Device\W25Q80/user_data.c **** //-------------------------------------------------------------------------------------------------
 197:Code\Device\W25Q80/user_data.c **** // Info				: 读到卡了，返回卡用户编号
 198:Code\Device\W25Q80/user_data.c **** //					: 没读到卡，返回MAX_USR_NUM
 199:Code\Device\W25Q80/user_data.c **** //*************************************************************************************************
ARM GAS  C:\Users\Administrator\AppData\Local\Temp\ccShlVUx.s 			page 13


 200:Code\Device\W25Q80/user_data.c **** void user_get_user_id(uint16 *user_id, uint8 *card_uid)
 201:Code\Device\W25Q80/user_data.c **** {
 467              		.loc 1 201 0
 468              		.cfi_startproc
 469              	.LVL45:
 470 0000 FFB5     		push	{r0, r1, r2, r3, r4, r5, r6, r7, lr}
 471              		.cfi_def_cfa_offset 36
 472              		.cfi_offset 0, -36
 473              		.cfi_offset 1, -32
 474              		.cfi_offset 2, -28
 475              		.cfi_offset 3, -24
 476              		.cfi_offset 4, -20
 477              		.cfi_offset 5, -16
 478              		.cfi_offset 6, -12
 479              		.cfi_offset 7, -8
 480              		.cfi_offset 14, -4
 202:Code\Device\W25Q80/user_data.c **** 	uint16 i;
 203:Code\Device\W25Q80/user_data.c **** 	uint8 ret;
 204:Code\Device\W25Q80/user_data.c **** 	uint8 flag[USER_FLAG_SIZE];
 205:Code\Device\W25Q80/user_data.c **** 	uint8 card_id_eeprom[CARD_UID_LEN];
 206:Code\Device\W25Q80/user_data.c **** 	
 207:Code\Device\W25Q80/user_data.c **** 	W25QXX_Read(flag, USER_FLAG_BASE, USER_FLAG_SIZE);
 481              		.loc 1 207 0
 482 0002 FA22     		mov	r2, #250
 201:Code\Device\W25Q80/user_data.c **** 	uint16 i;
 483              		.loc 1 201 0
 484 0004 FFB0     		sub	sp, sp, #508
 485              		.cfi_def_cfa_offset 544
 486              		.loc 1 207 0
 487 0006 05AE     		add	r6, sp, #20
 201:Code\Device\W25Q80/user_data.c **** 	uint16 i;
 488              		.loc 1 201 0
 489 0008 0191     		str	r1, [sp, #4]
 490 000a 051C     		mov	r5, r0
 491              		.loc 1 207 0
 492 000c 0021     		mov	r1, #0
 493              	.LVL46:
 494 000e 301C     		mov	r0, r6
 495              	.LVL47:
 496 0010 5200     		lsl	r2, r2, #1
 497 0012 FFF7FEFF 		bl	W25QXX_Read
 498              	.LVL48:
 499 0016 0024     		mov	r4, #0
 500              	.LVL49:
 501              	.L20:
 208:Code\Device\W25Q80/user_data.c **** 	for (i = 0; i < USER_FLAG_SIZE; i++)
 209:Code\Device\W25Q80/user_data.c **** 	{
 210:Code\Device\W25Q80/user_data.c **** 		if (flag[i] == TRUE)
 502              		.loc 1 210 0
 503 0018 335D     		ldrb	r3, [r6, r4]
 504 001a A7B2     		uxth	r7, r4
 505              	.LVL50:
 506 001c 012B     		cmp	r3, #1
 507 001e 0DD1     		bne	.L18
 211:Code\Device\W25Q80/user_data.c **** 		{
 212:Code\Device\W25Q80/user_data.c **** 			user_get_card_uid(i, card_id_eeprom);
 508              		.loc 1 212 0
ARM GAS  C:\Users\Administrator\AppData\Local\Temp\ccShlVUx.s 			page 14


 509 0020 381C     		mov	r0, r7
 510 0022 03A9     		add	r1, sp, #12
 511 0024 FFF7FEFF 		bl	user_get_card_uid
 512              	.LVL51:
 213:Code\Device\W25Q80/user_data.c **** 			ret = memcmp(card_uid, card_id_eeprom, CARD_UID_LEN);
 513              		.loc 1 213 0
 514 0028 0198     		ldr	r0, [sp, #4]
 515 002a 03A9     		add	r1, sp, #12
 516 002c 0822     		mov	r2, #8
 517 002e FFF7FEFF 		bl	memcmp
 518              	.LVL52:
 214:Code\Device\W25Q80/user_data.c **** 			if (ret == 0)											
 519              		.loc 1 214 0
 520 0032 C0B2     		uxtb	r0, r0
 521 0034 0028     		cmp	r0, #0
 522 0036 01D1     		bne	.L18
 215:Code\Device\W25Q80/user_data.c **** 			{
 216:Code\Device\W25Q80/user_data.c **** 				*user_id = i;
 523              		.loc 1 216 0
 524 0038 2F80     		strh	r7, [r5]
 525 003a 05E0     		b	.L17
 526              	.LVL53:
 527              	.L18:
 208:Code\Device\W25Q80/user_data.c **** 	{
 528              		.loc 1 208 0
 529 003c FA23     		mov	r3, #250
 530 003e 0134     		add	r4, r4, #1
 531              	.LVL54:
 532 0040 5B00     		lsl	r3, r3, #1
 533 0042 9C42     		cmp	r4, r3
 534 0044 E8D1     		bne	.L20
 217:Code\Device\W25Q80/user_data.c **** 				return;
 218:Code\Device\W25Q80/user_data.c **** 			}
 219:Code\Device\W25Q80/user_data.c **** 		}
 220:Code\Device\W25Q80/user_data.c **** 	}
 221:Code\Device\W25Q80/user_data.c **** 	*user_id = MAX_USR_NUM;
 535              		.loc 1 221 0
 536 0046 2C80     		strh	r4, [r5]
 537              	.LVL55:
 538              	.L17:
 222:Code\Device\W25Q80/user_data.c **** }
 539              		.loc 1 222 0
 540 0048 7FB0     		add	sp, sp, #508
 541              		@ sp needed
 542              	.LVL56:
 543 004a FFBD     		pop	{r0, r1, r2, r3, r4, r5, r6, r7, pc}
 544              		.cfi_endproc
 545              	.LFE73:
 546              		.size	user_get_user_id, .-user_get_user_id
 547              		.section	.text.user_get_valid_time,"ax",%progbits
 548              		.align	1
 549              		.global	user_get_valid_time
 550              		.code	16
 551              		.thumb_func
 552              		.type	user_get_valid_time, %function
 553              	user_get_valid_time:
 554              	.LFB74:
ARM GAS  C:\Users\Administrator\AppData\Local\Temp\ccShlVUx.s 			page 15


 223:Code\Device\W25Q80/user_data.c **** 
 224:Code\Device\W25Q80/user_data.c **** //*************************************************************************************************
 225:Code\Device\W25Q80/user_data.c **** // Function name	: user_get_valid_time
 226:Code\Device\W25Q80/user_data.c **** // Description		: 获取已存用户的有效时间
 227:Code\Device\W25Q80/user_data.c **** // Parameter		: user_id，*valid_time
 228:Code\Device\W25Q80/user_data.c **** // Return			: none
 229:Code\Device\W25Q80/user_data.c **** //-------------------------------------------------------------------------------------------------
 230:Code\Device\W25Q80/user_data.c **** // Info				: 
 231:Code\Device\W25Q80/user_data.c **** //*************************************************************************************************
 232:Code\Device\W25Q80/user_data.c **** void user_get_valid_time(uint16 user_id, uint8 *valid_time)
 233:Code\Device\W25Q80/user_data.c **** {
 555              		.loc 1 233 0
 556              		.cfi_startproc
 557              	.LVL57:
 558 0000 08B5     		push	{r3, lr}
 559              		.cfi_def_cfa_offset 8
 560              		.cfi_offset 3, -8
 561              		.cfi_offset 14, -4
 234:Code\Device\W25Q80/user_data.c **** 	W25QXX_Read(valid_time, USER_INFO_BASE + sizeof(user_info_t) * user_id + offsetof(user_info_t, val
 562              		.loc 1 234 0
 563 0002 0C23     		mov	r3, #12
 233:Code\Device\W25Q80/user_data.c **** 	W25QXX_Read(valid_time, USER_INFO_BASE + sizeof(user_info_t) * user_id + offsetof(user_info_t, val
 564              		.loc 1 233 0
 565 0004 0A1C     		mov	r2, r1
 566              		.loc 1 234 0
 567 0006 8221     		mov	r1, #130
 568              	.LVL58:
 569 0008 4343     		mul	r3, r0
 570 000a 8900     		lsl	r1, r1, #2
 571 000c 101C     		mov	r0, r2
 572              	.LVL59:
 573 000e 5918     		add	r1, r3, r1
 574 0010 0422     		mov	r2, #4
 575              	.LVL60:
 576 0012 FFF7FEFF 		bl	W25QXX_Read
 577              	.LVL61:
 235:Code\Device\W25Q80/user_data.c **** }
 578              		.loc 1 235 0
 579              		@ sp needed
 580 0016 08BD     		pop	{r3, pc}
 581              		.cfi_endproc
 582              	.LFE74:
 583              		.size	user_get_valid_time, .-user_get_valid_time
 584              		.section	.text.add_user,"ax",%progbits
 585              		.align	1
 586              		.global	add_user
 587              		.code	16
 588              		.thumb_func
 589              		.type	add_user, %function
 590              	add_user:
 591              	.LFB75:
 236:Code\Device\W25Q80/user_data.c **** 
 237:Code\Device\W25Q80/user_data.c **** //*************************************************************************************************
 238:Code\Device\W25Q80/user_data.c **** // Function name	: add_user
 239:Code\Device\W25Q80/user_data.c **** // Description		: 添加用户信息
 240:Code\Device\W25Q80/user_data.c **** // Parameter		: user_id，*user_info_t
 241:Code\Device\W25Q80/user_data.c **** // Return			: TRUE / FALSE
ARM GAS  C:\Users\Administrator\AppData\Local\Temp\ccShlVUx.s 			page 16


 242:Code\Device\W25Q80/user_data.c **** //-------------------------------------------------------------------------------------------------
 243:Code\Device\W25Q80/user_data.c **** // Info				: 
 244:Code\Device\W25Q80/user_data.c **** //*************************************************************************************************
 245:Code\Device\W25Q80/user_data.c **** uint8 add_user(uint16 user_id,  user_info_t *info)
 246:Code\Device\W25Q80/user_data.c **** {
 592              		.loc 1 246 0
 593              		.cfi_startproc
 594              	.LVL62:
 595 0000 30B5     		push	{r4, r5, lr}
 596              		.cfi_def_cfa_offset 12
 597              		.cfi_offset 4, -12
 598              		.cfi_offset 5, -8
 599              		.cfi_offset 14, -4
 600 0002 041C     		mov	r4, r0
 601 0004 0D1C     		mov	r5, r1
 602 0006 85B0     		sub	sp, sp, #20
 603              		.cfi_def_cfa_offset 32
 247:Code\Device\W25Q80/user_data.c **** 	user_info_t info_tmp;
 248:Code\Device\W25Q80/user_data.c **** 	
 249:Code\Device\W25Q80/user_data.c **** 	user_add_info(user_id, info);
 604              		.loc 1 249 0
 605 0008 FFF7FEFF 		bl	user_add_info
 606              	.LVL63:
 250:Code\Device\W25Q80/user_data.c **** 	user_get_info(user_id, &info_tmp);
 607              		.loc 1 250 0
 608 000c 201C     		mov	r0, r4
 609 000e 01A9     		add	r1, sp, #4
 610 0010 FFF7FEFF 		bl	user_get_info
 611              	.LVL64:
 251:Code\Device\W25Q80/user_data.c **** 	if (0 == memcmp(info, &info_tmp, sizeof(user_info_t)))
 612              		.loc 1 251 0
 613 0014 281C     		mov	r0, r5
 614 0016 01A9     		add	r1, sp, #4
 615 0018 0C22     		mov	r2, #12
 616 001a FFF7FEFF 		bl	memcmp
 617              	.LVL65:
 252:Code\Device\W25Q80/user_data.c **** 	{
 253:Code\Device\W25Q80/user_data.c **** 		user_set_valid_flag(user_id);
 254:Code\Device\W25Q80/user_data.c **** 		return TRUE;
 255:Code\Device\W25Q80/user_data.c **** 	}
 256:Code\Device\W25Q80/user_data.c **** 	else
 257:Code\Device\W25Q80/user_data.c **** 	{
 258:Code\Device\W25Q80/user_data.c **** 		return FALSE;
 618              		.loc 1 258 0
 619 001e 0023     		mov	r3, #0
 251:Code\Device\W25Q80/user_data.c **** 	if (0 == memcmp(info, &info_tmp, sizeof(user_info_t)))
 620              		.loc 1 251 0
 621 0020 9842     		cmp	r0, r3
 622 0022 03D1     		bne	.L23
 253:Code\Device\W25Q80/user_data.c **** 		return TRUE;
 623              		.loc 1 253 0
 624 0024 201C     		mov	r0, r4
 625 0026 FFF7FEFF 		bl	user_set_valid_flag
 626              	.LVL66:
 254:Code\Device\W25Q80/user_data.c **** 	}
 627              		.loc 1 254 0
 628 002a 0123     		mov	r3, #1
ARM GAS  C:\Users\Administrator\AppData\Local\Temp\ccShlVUx.s 			page 17


 629              	.L23:
 259:Code\Device\W25Q80/user_data.c **** 	}
 260:Code\Device\W25Q80/user_data.c **** }
 630              		.loc 1 260 0
 631 002c 181C     		mov	r0, r3
 632 002e 05B0     		add	sp, sp, #20
 633              		@ sp needed
 634              	.LVL67:
 635 0030 30BD     		pop	{r4, r5, pc}
 636              		.cfi_endproc
 637              	.LFE75:
 638              		.size	add_user, .-add_user
 639              		.section	.text.chg_user,"ax",%progbits
 640              		.align	1
 641              		.global	chg_user
 642              		.code	16
 643              		.thumb_func
 644              		.type	chg_user, %function
 645              	chg_user:
 646              	.LFB76:
 261:Code\Device\W25Q80/user_data.c **** 
 262:Code\Device\W25Q80/user_data.c **** //*************************************************************************************************
 263:Code\Device\W25Q80/user_data.c **** // Function name	: chg_user
 264:Code\Device\W25Q80/user_data.c **** // Description		: 修改用户信息
 265:Code\Device\W25Q80/user_data.c **** // Parameter		: user_id，*user_info_t
 266:Code\Device\W25Q80/user_data.c **** // Return			: TRUE / FALSE
 267:Code\Device\W25Q80/user_data.c **** //-------------------------------------------------------------------------------------------------
 268:Code\Device\W25Q80/user_data.c **** // Info				: 
 269:Code\Device\W25Q80/user_data.c **** //*************************************************************************************************
 270:Code\Device\W25Q80/user_data.c **** uint8 chg_user(uint16 user_id, user_info_t *info)
 271:Code\Device\W25Q80/user_data.c **** {
 647              		.loc 1 271 0
 648              		.cfi_startproc
 649              	.LVL68:
 650 0000 30B5     		push	{r4, r5, lr}
 651              		.cfi_def_cfa_offset 12
 652              		.cfi_offset 4, -12
 653              		.cfi_offset 5, -8
 654              		.cfi_offset 14, -4
 655 0002 051C     		mov	r5, r0
 656 0004 0C1C     		mov	r4, r1
 657 0006 85B0     		sub	sp, sp, #20
 658              		.cfi_def_cfa_offset 32
 272:Code\Device\W25Q80/user_data.c **** 	user_info_t info_tmp;
 273:Code\Device\W25Q80/user_data.c **** 	
 274:Code\Device\W25Q80/user_data.c **** 	user_add_info(user_id, info);
 659              		.loc 1 274 0
 660 0008 FFF7FEFF 		bl	user_add_info
 661              	.LVL69:
 275:Code\Device\W25Q80/user_data.c **** 	user_get_info(user_id, &info_tmp);
 662              		.loc 1 275 0
 663 000c 281C     		mov	r0, r5
 664 000e 01A9     		add	r1, sp, #4
 665 0010 FFF7FEFF 		bl	user_get_info
 666              	.LVL70:
 276:Code\Device\W25Q80/user_data.c **** 	if (0 == memcmp(info, &info_tmp, sizeof(user_info_t)))
 667              		.loc 1 276 0
ARM GAS  C:\Users\Administrator\AppData\Local\Temp\ccShlVUx.s 			page 18


 668 0014 201C     		mov	r0, r4
 669 0016 01A9     		add	r1, sp, #4
 670 0018 0C22     		mov	r2, #12
 671 001a FFF7FEFF 		bl	memcmp
 672              	.LVL71:
 673 001e 4342     		neg	r3, r0
 674 0020 5841     		adc	r0, r0, r3
 675 0022 C0B2     		uxtb	r0, r0
 277:Code\Device\W25Q80/user_data.c **** 	{
 278:Code\Device\W25Q80/user_data.c **** 		return TRUE;
 279:Code\Device\W25Q80/user_data.c **** 	}
 280:Code\Device\W25Q80/user_data.c **** 	else
 281:Code\Device\W25Q80/user_data.c **** 	{
 282:Code\Device\W25Q80/user_data.c **** 		return FALSE;
 283:Code\Device\W25Q80/user_data.c **** 	}
 284:Code\Device\W25Q80/user_data.c **** }
 676              		.loc 1 284 0
 677 0024 05B0     		add	sp, sp, #20
 678              		@ sp needed
 679              	.LVL72:
 680 0026 30BD     		pop	{r4, r5, pc}
 681              		.cfi_endproc
 682              	.LFE76:
 683              		.size	chg_user, .-chg_user
 684              		.section	.text.del_user,"ax",%progbits
 685              		.align	1
 686              		.global	del_user
 687              		.code	16
 688              		.thumb_func
 689              		.type	del_user, %function
 690              	del_user:
 691              	.LFB77:
 285:Code\Device\W25Q80/user_data.c **** 
 286:Code\Device\W25Q80/user_data.c **** //*************************************************************************************************
 287:Code\Device\W25Q80/user_data.c **** // Function name	: del_user
 288:Code\Device\W25Q80/user_data.c **** // Description		: 删除用户信息
 289:Code\Device\W25Q80/user_data.c **** // Parameter		: user_id
 290:Code\Device\W25Q80/user_data.c **** // Return			: none
 291:Code\Device\W25Q80/user_data.c **** //-------------------------------------------------------------------------------------------------
 292:Code\Device\W25Q80/user_data.c **** // Info				: 删除后取卡UID和有效期的一个数来验证确认是否删除.
 293:Code\Device\W25Q80/user_data.c **** //-------------------------------------------------------------------------------------------------
 294:Code\Device\W25Q80/user_data.c **** //					: 还可以再写一个根据UID来删除的函数
 295:Code\Device\W25Q80/user_data.c **** //*************************************************************************************************
 296:Code\Device\W25Q80/user_data.c **** uint8 del_user(uint16 user_id)
 297:Code\Device\W25Q80/user_data.c **** {
 692              		.loc 1 297 0
 693              		.cfi_startproc
 694              	.LVL73:
 695 0000 30B5     		push	{r4, r5, lr}
 696              		.cfi_def_cfa_offset 12
 697              		.cfi_offset 4, -12
 698              		.cfi_offset 5, -8
 699              		.cfi_offset 14, -4
 700 0002 041C     		mov	r4, r0
 701 0004 85B0     		sub	sp, sp, #20
 702              		.cfi_def_cfa_offset 32
 298:Code\Device\W25Q80/user_data.c **** 	user_info_t info_tmp;
ARM GAS  C:\Users\Administrator\AppData\Local\Temp\ccShlVUx.s 			page 19


 299:Code\Device\W25Q80/user_data.c **** 	
 300:Code\Device\W25Q80/user_data.c **** 	user_del_info(user_id);
 301:Code\Device\W25Q80/user_data.c **** 	user_get_info(user_id, &info_tmp);
 703              		.loc 1 301 0
 704 0006 01AD     		add	r5, sp, #4
 300:Code\Device\W25Q80/user_data.c **** 	user_get_info(user_id, &info_tmp);
 705              		.loc 1 300 0
 706 0008 FFF7FEFF 		bl	user_del_info
 707              	.LVL74:
 708              		.loc 1 301 0
 709 000c 201C     		mov	r0, r4
 710 000e 291C     		mov	r1, r5
 711 0010 FFF7FEFF 		bl	user_get_info
 712              	.LVL75:
 302:Code\Device\W25Q80/user_data.c **** 	if ((info_tmp.card_uid[5] == 0) && (info_tmp.valid_time[3] == 0))
 713              		.loc 1 302 0
 714 0014 6879     		ldrb	r0, [r5, #5]
 715 0016 0028     		cmp	r0, #0
 716 0018 07D1     		bne	.L28
 717              		.loc 1 302 0 is_stmt 0 discriminator 1
 718 001a EB7A     		ldrb	r3, [r5, #11]
 719 001c 002B     		cmp	r3, #0
 720 001e 05D1     		bne	.L27
 303:Code\Device\W25Q80/user_data.c **** 	{
 304:Code\Device\W25Q80/user_data.c **** 		user_clr_valid_flag(user_id);
 721              		.loc 1 304 0 is_stmt 1
 722 0020 201C     		mov	r0, r4
 723 0022 FFF7FEFF 		bl	user_clr_valid_flag
 724              	.LVL76:
 305:Code\Device\W25Q80/user_data.c **** 		return TRUE;
 725              		.loc 1 305 0
 726 0026 0120     		mov	r0, #1
 727 0028 00E0     		b	.L27
 728              	.L28:
 306:Code\Device\W25Q80/user_data.c **** 	}
 307:Code\Device\W25Q80/user_data.c **** 	else
 308:Code\Device\W25Q80/user_data.c **** 	{
 309:Code\Device\W25Q80/user_data.c **** 		return FALSE;
 729              		.loc 1 309 0
 730 002a 0020     		mov	r0, #0
 731              	.L27:
 310:Code\Device\W25Q80/user_data.c **** 	}
 311:Code\Device\W25Q80/user_data.c **** }
 732              		.loc 1 311 0
 733 002c 05B0     		add	sp, sp, #20
 734              		@ sp needed
 735 002e 30BD     		pop	{r4, r5, pc}
 736              		.cfi_endproc
 737              	.LFE77:
 738              		.size	del_user, .-del_user
 739              		.section	.text.clr_user,"ax",%progbits
 740              		.align	1
 741              		.global	clr_user
 742              		.code	16
 743              		.thumb_func
 744              		.type	clr_user, %function
 745              	clr_user:
ARM GAS  C:\Users\Administrator\AppData\Local\Temp\ccShlVUx.s 			page 20


 746              	.LFB78:
 312:Code\Device\W25Q80/user_data.c **** 
 313:Code\Device\W25Q80/user_data.c **** //*************************************************************************************************
 314:Code\Device\W25Q80/user_data.c **** // Function name	: clr_user
 315:Code\Device\W25Q80/user_data.c **** // Description		: 清空所有用户
 316:Code\Device\W25Q80/user_data.c **** // Parameter		: user_id
 317:Code\Device\W25Q80/user_data.c **** // Return			: none
 318:Code\Device\W25Q80/user_data.c **** //-------------------------------------------------------------------------------------------------
 319:Code\Device\W25Q80/user_data.c **** // Info				: 清空所有用户时，是否保留房东？
 320:Code\Device\W25Q80/user_data.c **** //					: 与平涛沟通后，确认全删，锁不管业务层的处理.170829-19:29.
 321:Code\Device\W25Q80/user_data.c **** //*************************************************************************************************
 322:Code\Device\W25Q80/user_data.c **** uint8 clr_user(void)
 323:Code\Device\W25Q80/user_data.c **** {
 747              		.loc 1 323 0
 748              		.cfi_startproc
 749 0000 30B5     		push	{r4, r5, lr}
 750              		.cfi_def_cfa_offset 12
 751              		.cfi_offset 4, -12
 752              		.cfi_offset 5, -8
 753              		.cfi_offset 14, -4
 324:Code\Device\W25Q80/user_data.c **** 	uint8_t userflag[USER_FLAG_SIZE] = {0};
 754              		.loc 1 324 0
 755 0002 FA25     		mov	r5, #250
 323:Code\Device\W25Q80/user_data.c **** 	uint8_t userflag[USER_FLAG_SIZE] = {0};
 756              		.loc 1 323 0
 757 0004 0E4C     		ldr	r4, .L30
 758              		.loc 1 324 0
 759 0006 6D00     		lsl	r5, r5, #1
 323:Code\Device\W25Q80/user_data.c **** 	uint8_t userflag[USER_FLAG_SIZE] = {0};
 760              		.loc 1 323 0
 761 0008 A544     		add	sp, sp, r4
 762              		.cfi_def_cfa_offset 6520
 325:Code\Device\W25Q80/user_data.c **** 	uint8_t userinfo[USER_FLAG_SIZE * sizeof(user_info_t)] = {0};
 763              		.loc 1 325 0
 764 000a 0E4C     		ldr	r4, .L30+4
 324:Code\Device\W25Q80/user_data.c **** 	uint8_t userflag[USER_FLAG_SIZE] = {0};
 765              		.loc 1 324 0
 766 000c 2A1C     		mov	r2, r5
 767 000e 01A8     		add	r0, sp, #4
 768 0010 0021     		mov	r1, #0
 769 0012 FFF7FEFF 		bl	memset
 770              	.LVL77:
 771              		.loc 1 325 0
 772 0016 221C     		mov	r2, r4
 773 0018 7EA8     		add	r0, sp, #504
 774 001a 0021     		mov	r1, #0
 775 001c FFF7FEFF 		bl	memset
 776              	.LVL78:
 326:Code\Device\W25Q80/user_data.c **** 	
 327:Code\Device\W25Q80/user_data.c **** 	W25QXX_Write(userflag, USER_FLAG_BASE, USER_FLAG_SIZE);
 777              		.loc 1 327 0
 778 0020 01A8     		add	r0, sp, #4
 779 0022 2A1C     		mov	r2, r5
 780 0024 0021     		mov	r1, #0
 781 0026 FFF7FEFF 		bl	W25QXX_Write
 782              	.LVL79:
 328:Code\Device\W25Q80/user_data.c **** 	W25QXX_Write(userinfo, USER_INFO_BASE, MAX_USR_NUM * sizeof(user_info_t));
ARM GAS  C:\Users\Administrator\AppData\Local\Temp\ccShlVUx.s 			page 21


 783              		.loc 1 328 0
 784 002a 8021     		mov	r1, #128
 785 002c 7EA8     		add	r0, sp, #504
 786 002e 8900     		lsl	r1, r1, #2
 787 0030 221C     		mov	r2, r4
 788 0032 FFF7FEFF 		bl	W25QXX_Write
 789              	.LVL80:
 329:Code\Device\W25Q80/user_data.c **** 	return TRUE;
 330:Code\Device\W25Q80/user_data.c **** }
 790              		.loc 1 330 0
 791 0036 0120     		mov	r0, #1
 792 0038 034B     		ldr	r3, .L30+8
 793 003a 9D44     		add	sp, sp, r3
 794              		@ sp needed
 795 003c 30BD     		pop	{r4, r5, pc}
 796              	.L31:
 797 003e C046     		.align	2
 798              	.L30:
 799 0040 94E6FFFF 		.word	-6508
 800 0044 70170000 		.word	6000
 801 0048 6C190000 		.word	6508
 802              		.cfi_endproc
 803              	.LFE78:
 804              		.size	clr_user, .-clr_user
 805              		.section	.text.UserData_Add_User,"ax",%progbits
 806              		.align	1
 807              		.global	UserData_Add_User
 808              		.code	16
 809              		.thumb_func
 810              		.type	UserData_Add_User, %function
 811              	UserData_Add_User:
 812              	.LFB79:
 331:Code\Device\W25Q80/user_data.c **** 
 332:Code\Device\W25Q80/user_data.c **** //*************************************************************************************************
 333:Code\Device\W25Q80/user_data.c **** // Function name	: UserData_Add_User
 334:Code\Device\W25Q80/user_data.c **** // Description		: 添加用户
 335:Code\Device\W25Q80/user_data.c **** // Parameter		: info	: 用户信息
 336:Code\Device\W25Q80/user_data.c **** // Return			: 处理结果
 337:Code\Device\W25Q80/user_data.c **** //-------------------------------------------------------------------------------------------------
 338:Code\Device\W25Q80/user_data.c **** // Info				: 
 339:Code\Device\W25Q80/user_data.c **** //*************************************************************************************************
 340:Code\Device\W25Q80/user_data.c **** uint8 UserData_Add_User(user_info_t *info)
 341:Code\Device\W25Q80/user_data.c **** {
 813              		.loc 1 341 0
 814              		.cfi_startproc
 815              	.LVL81:
 816 0000 73B5     		push	{r0, r1, r4, r5, r6, lr}
 817              		.cfi_def_cfa_offset 24
 818              		.cfi_offset 0, -24
 819              		.cfi_offset 1, -20
 820              		.cfi_offset 4, -16
 821              		.cfi_offset 5, -12
 822              		.cfi_offset 6, -8
 823              		.cfi_offset 14, -4
 342:Code\Device\W25Q80/user_data.c **** 	uint16_t user_id = 0;
 824              		.loc 1 342 0
 825 0002 6B46     		mov	r3, sp
ARM GAS  C:\Users\Administrator\AppData\Local\Temp\ccShlVUx.s 			page 22


 341:Code\Device\W25Q80/user_data.c **** 	uint16_t user_id = 0;
 826              		.loc 1 341 0
 827 0004 061C     		mov	r6, r0
 828              		.loc 1 342 0
 829 0006 0024     		mov	r4, #0
 830 0008 9D1D     		add	r5, r3, #6
 343:Code\Device\W25Q80/user_data.c **** 	
 344:Code\Device\W25Q80/user_data.c **** 	user_get_user_id(&user_id, info->card_uid);
 831              		.loc 1 344 0
 832 000a 281C     		mov	r0, r5
 833              	.LVL82:
 834 000c 311C     		mov	r1, r6
 342:Code\Device\W25Q80/user_data.c **** 	
 835              		.loc 1 342 0
 836 000e 2C80     		strh	r4, [r5]
 837              		.loc 1 344 0
 838 0010 FFF7FEFF 		bl	user_get_user_id
 839              	.LVL83:
 345:Code\Device\W25Q80/user_data.c **** 	if (user_id < MAX_USR_NUM)
 840              		.loc 1 345 0
 841 0014 F423     		mov	r3, #244
 842 0016 2888     		ldrh	r0, [r5]
 843 0018 FF33     		add	r3, r3, #255
 844 001a 9842     		cmp	r0, r3
 845 001c 03D8     		bhi	.L33
 346:Code\Device\W25Q80/user_data.c **** 	{
 347:Code\Device\W25Q80/user_data.c **** 		if (TRUE == chg_user(user_id, info))
 846              		.loc 1 347 0
 847 001e 311C     		mov	r1, r6
 848 0020 FFF7FEFF 		bl	chg_user
 849              	.LVL84:
 850 0024 0AE0     		b	.L36
 851              	.L33:
 348:Code\Device\W25Q80/user_data.c **** 		{
 349:Code\Device\W25Q80/user_data.c **** 			return TRUE;
 350:Code\Device\W25Q80/user_data.c **** 		}
 351:Code\Device\W25Q80/user_data.c **** 		else
 352:Code\Device\W25Q80/user_data.c **** 		{
 353:Code\Device\W25Q80/user_data.c **** 			return FALSE;
 354:Code\Device\W25Q80/user_data.c **** 		}
 355:Code\Device\W25Q80/user_data.c **** 	}
 356:Code\Device\W25Q80/user_data.c **** 	else
 357:Code\Device\W25Q80/user_data.c **** 	{
 358:Code\Device\W25Q80/user_data.c **** 		if (RET_OK != (user_find_free_id(&user_id)))
 852              		.loc 1 358 0
 853 0026 281C     		mov	r0, r5
 854 0028 FFF7FEFF 		bl	user_find_free_id
 855              	.LVL85:
 856 002c 031C     		mov	r3, r0
 359:Code\Device\W25Q80/user_data.c **** 		{
 360:Code\Device\W25Q80/user_data.c **** 			return FALSE;
 857              		.loc 1 360 0
 858 002e 201C     		mov	r0, r4
 358:Code\Device\W25Q80/user_data.c **** 		{
 859              		.loc 1 358 0
 860 0030 012B     		cmp	r3, #1
 861 0032 07D1     		bne	.L34
ARM GAS  C:\Users\Administrator\AppData\Local\Temp\ccShlVUx.s 			page 23


 361:Code\Device\W25Q80/user_data.c **** 		}
 362:Code\Device\W25Q80/user_data.c **** 		else
 363:Code\Device\W25Q80/user_data.c **** 		{
 364:Code\Device\W25Q80/user_data.c **** 			if (TRUE == add_user(user_id, info))
 862              		.loc 1 364 0
 863 0034 2888     		ldrh	r0, [r5]
 864 0036 311C     		mov	r1, r6
 865 0038 FFF7FEFF 		bl	add_user
 866              	.LVL86:
 867              	.L36:
 868 003c 0138     		sub	r0, r0, #1
 869 003e 4342     		neg	r3, r0
 870 0040 5841     		adc	r0, r0, r3
 349:Code\Device\W25Q80/user_data.c **** 		}
 871              		.loc 1 349 0
 872 0042 C0B2     		uxtb	r0, r0
 873              	.L34:
 365:Code\Device\W25Q80/user_data.c **** 			{
 366:Code\Device\W25Q80/user_data.c **** 				return TRUE;
 367:Code\Device\W25Q80/user_data.c **** 			}
 368:Code\Device\W25Q80/user_data.c **** 			else
 369:Code\Device\W25Q80/user_data.c **** 			{
 370:Code\Device\W25Q80/user_data.c **** 				return FALSE;
 371:Code\Device\W25Q80/user_data.c **** 			}
 372:Code\Device\W25Q80/user_data.c **** 		}
 373:Code\Device\W25Q80/user_data.c **** 	}
 374:Code\Device\W25Q80/user_data.c **** }
 874              		.loc 1 374 0
 875              		@ sp needed
 876              	.LVL87:
 877 0044 76BD     		pop	{r1, r2, r4, r5, r6, pc}
 878              		.cfi_endproc
 879              	.LFE79:
 880              		.size	UserData_Add_User, .-UserData_Add_User
 881              		.section	.text.UserData_DEL_User,"ax",%progbits
 882              		.align	1
 883              		.global	UserData_DEL_User
 884              		.code	16
 885              		.thumb_func
 886              		.type	UserData_DEL_User, %function
 887              	UserData_DEL_User:
 888              	.LFB80:
 375:Code\Device\W25Q80/user_data.c **** 
 376:Code\Device\W25Q80/user_data.c **** //*************************************************************************************************
 377:Code\Device\W25Q80/user_data.c **** // Function name	: UserData_DEL_User
 378:Code\Device\W25Q80/user_data.c **** // Description		: 删除用户
 379:Code\Device\W25Q80/user_data.c **** // Parameter		: card_uid
 380:Code\Device\W25Q80/user_data.c **** // Return			: 处理结果
 381:Code\Device\W25Q80/user_data.c **** //-------------------------------------------------------------------------------------------------
 382:Code\Device\W25Q80/user_data.c **** // Info				: 
 383:Code\Device\W25Q80/user_data.c **** //*************************************************************************************************
 384:Code\Device\W25Q80/user_data.c **** uint8 UserData_DEL_User(uint8 *card_uid)
 385:Code\Device\W25Q80/user_data.c **** {
 889              		.loc 1 385 0
 890              		.cfi_startproc
 891              	.LVL88:
 892 0000 13B5     		push	{r0, r1, r4, lr}
ARM GAS  C:\Users\Administrator\AppData\Local\Temp\ccShlVUx.s 			page 24


 893              		.cfi_def_cfa_offset 16
 894              		.cfi_offset 0, -16
 895              		.cfi_offset 1, -12
 896              		.cfi_offset 4, -8
 897              		.cfi_offset 14, -4
 386:Code\Device\W25Q80/user_data.c **** 	uint16_t user_id = 0;
 898              		.loc 1 386 0
 899 0002 6B46     		mov	r3, sp
 900 0004 9C1D     		add	r4, r3, #6
 901 0006 0023     		mov	r3, #0
 385:Code\Device\W25Q80/user_data.c **** 	uint16_t user_id = 0;
 902              		.loc 1 385 0
 903 0008 011C     		mov	r1, r0
 387:Code\Device\W25Q80/user_data.c **** 	
 388:Code\Device\W25Q80/user_data.c **** 	user_get_user_id(&user_id, card_uid);
 904              		.loc 1 388 0
 905 000a 201C     		mov	r0, r4
 906              	.LVL89:
 386:Code\Device\W25Q80/user_data.c **** 	
 907              		.loc 1 386 0
 908 000c 2380     		strh	r3, [r4]
 909              		.loc 1 388 0
 910 000e FFF7FEFF 		bl	user_get_user_id
 911              	.LVL90:
 389:Code\Device\W25Q80/user_data.c **** 	if (user_id >= MAX_USR_NUM)
 912              		.loc 1 389 0
 913 0012 F422     		mov	r2, #244
 914 0014 2388     		ldrh	r3, [r4]
 915 0016 FF32     		add	r2, r2, #255
 390:Code\Device\W25Q80/user_data.c **** 	{
 391:Code\Device\W25Q80/user_data.c **** 		return 0x10;
 916              		.loc 1 391 0
 917 0018 1020     		mov	r0, #16
 389:Code\Device\W25Q80/user_data.c **** 	if (user_id >= MAX_USR_NUM)
 918              		.loc 1 389 0
 919 001a 9342     		cmp	r3, r2
 920 001c 06D8     		bhi	.L38
 392:Code\Device\W25Q80/user_data.c **** 	}
 393:Code\Device\W25Q80/user_data.c **** 	else
 394:Code\Device\W25Q80/user_data.c **** 	{
 395:Code\Device\W25Q80/user_data.c **** 		if (TRUE == del_user(user_id))
 921              		.loc 1 395 0
 922 001e 181C     		mov	r0, r3
 923 0020 FFF7FEFF 		bl	del_user
 924              	.LVL91:
 925 0024 0138     		sub	r0, r0, #1
 926 0026 4342     		neg	r3, r0
 927 0028 5841     		adc	r0, r0, r3
 391:Code\Device\W25Q80/user_data.c **** 	}
 928              		.loc 1 391 0
 929 002a C0B2     		uxtb	r0, r0
 930              	.L38:
 396:Code\Device\W25Q80/user_data.c **** 		{
 397:Code\Device\W25Q80/user_data.c **** 			return TRUE;
 398:Code\Device\W25Q80/user_data.c **** 		}
 399:Code\Device\W25Q80/user_data.c **** 		else
 400:Code\Device\W25Q80/user_data.c **** 		{
ARM GAS  C:\Users\Administrator\AppData\Local\Temp\ccShlVUx.s 			page 25


 401:Code\Device\W25Q80/user_data.c **** 			return FALSE;
 402:Code\Device\W25Q80/user_data.c **** 		}
 403:Code\Device\W25Q80/user_data.c **** 	}
 404:Code\Device\W25Q80/user_data.c **** }
 931              		.loc 1 404 0
 932              		@ sp needed
 933 002c 16BD     		pop	{r1, r2, r4, pc}
 934              		.cfi_endproc
 935              	.LFE80:
 936              		.size	UserData_DEL_User, .-UserData_DEL_User
 937              		.section	.text.UserData_CLR_User,"ax",%progbits
 938              		.align	1
 939              		.global	UserData_CLR_User
 940              		.code	16
 941              		.thumb_func
 942              		.type	UserData_CLR_User, %function
 943              	UserData_CLR_User:
 944              	.LFB81:
 405:Code\Device\W25Q80/user_data.c **** 
 406:Code\Device\W25Q80/user_data.c **** //*************************************************************************************************
 407:Code\Device\W25Q80/user_data.c **** // Function name	: UserData_CLR_User
 408:Code\Device\W25Q80/user_data.c **** // Description		: 清空用户
 409:Code\Device\W25Q80/user_data.c **** // Parameter		: none
 410:Code\Device\W25Q80/user_data.c **** // Return			: none
 411:Code\Device\W25Q80/user_data.c **** //-------------------------------------------------------------------------------------------------
 412:Code\Device\W25Q80/user_data.c **** // Info				: 
 413:Code\Device\W25Q80/user_data.c **** //*************************************************************************************************
 414:Code\Device\W25Q80/user_data.c **** uint8 UserData_CLR_User(void)
 415:Code\Device\W25Q80/user_data.c **** {
 945              		.loc 1 415 0
 946              		.cfi_startproc
 947 0000 08B5     		push	{r3, lr}
 948              		.cfi_def_cfa_offset 8
 949              		.cfi_offset 3, -8
 950              		.cfi_offset 14, -4
 416:Code\Device\W25Q80/user_data.c **** 	return (clr_user());
 951              		.loc 1 416 0
 952 0002 FFF7FEFF 		bl	clr_user
 953              	.LVL92:
 417:Code\Device\W25Q80/user_data.c **** }
 954              		.loc 1 417 0
 955              		@ sp needed
 956 0006 08BD     		pop	{r3, pc}
 957              		.cfi_endproc
 958              	.LFE81:
 959              		.size	UserData_CLR_User, .-UserData_CLR_User
 960              		.section	.text.UserData_Judge_If_Open,"ax",%progbits
 961              		.align	1
 962              		.global	UserData_Judge_If_Open
 963              		.code	16
 964              		.thumb_func
 965              		.type	UserData_Judge_If_Open, %function
 966              	UserData_Judge_If_Open:
 967              	.LFB82:
 418:Code\Device\W25Q80/user_data.c **** 
 419:Code\Device\W25Q80/user_data.c **** 
 420:Code\Device\W25Q80/user_data.c **** //*************************************************************************************************
ARM GAS  C:\Users\Administrator\AppData\Local\Temp\ccShlVUx.s 			page 26


 421:Code\Device\W25Q80/user_data.c **** // Function name	: UserData_Judge_If_Open
 422:Code\Device\W25Q80/user_data.c **** // Description		: 根据用户信息来判断是否能开门
 423:Code\Device\W25Q80/user_data.c **** // Parameter		: info	: 用户信息
 424:Code\Device\W25Q80/user_data.c **** // Return			: none
 425:Code\Device\W25Q80/user_data.c **** //-------------------------------------------------------------------------------------------------
 426:Code\Device\W25Q80/user_data.c **** // Info				: 用户信息包括UID和开门时间
 427:Code\Device\W25Q80/user_data.c **** //*************************************************************************************************
 428:Code\Device\W25Q80/user_data.c **** uint8 UserData_Judge_If_Open(user_info_t *info)
 429:Code\Device\W25Q80/user_data.c **** {
 968              		.loc 1 429 0
 969              		.cfi_startproc
 970              	.LVL93:
 971 0000 73B5     		push	{r0, r1, r4, r5, r6, lr}
 972              		.cfi_def_cfa_offset 24
 973              		.cfi_offset 0, -24
 974              		.cfi_offset 1, -20
 975              		.cfi_offset 4, -16
 976              		.cfi_offset 5, -12
 977              		.cfi_offset 6, -8
 978              		.cfi_offset 14, -4
 430:Code\Device\W25Q80/user_data.c **** 	uint16_t user_id = 0;
 979              		.loc 1 430 0
 980 0002 6B46     		mov	r3, sp
 429:Code\Device\W25Q80/user_data.c **** 	uint16_t user_id = 0;
 981              		.loc 1 429 0
 982 0004 041C     		mov	r4, r0
 983              		.loc 1 430 0
 984 0006 9E1C     		add	r6, r3, #2
 985 0008 0023     		mov	r3, #0
 431:Code\Device\W25Q80/user_data.c **** 	uint8_t val_time[4] = {0};
 432:Code\Device\W25Q80/user_data.c **** 	
 433:Code\Device\W25Q80/user_data.c **** 	user_get_user_id(&user_id, info->card_uid);
 986              		.loc 1 433 0
 987 000a 301C     		mov	r0, r6
 988              	.LVL94:
 989 000c 211C     		mov	r1, r4
 430:Code\Device\W25Q80/user_data.c **** 	uint8_t val_time[4] = {0};
 990              		.loc 1 430 0
 991 000e 3380     		strh	r3, [r6]
 431:Code\Device\W25Q80/user_data.c **** 	uint8_t val_time[4] = {0};
 992              		.loc 1 431 0
 993 0010 0193     		str	r3, [sp, #4]
 994              		.loc 1 433 0
 995 0012 FFF7FEFF 		bl	user_get_user_id
 996              	.LVL95:
 434:Code\Device\W25Q80/user_data.c **** 	if (user_id < MAX_USR_NUM)
 997              		.loc 1 434 0
 998 0016 F423     		mov	r3, #244
 999 0018 3088     		ldrh	r0, [r6]
 1000 001a FF33     		add	r3, r3, #255
 431:Code\Device\W25Q80/user_data.c **** 	uint8_t val_time[4] = {0};
 1001              		.loc 1 431 0
 1002 001c 01AD     		add	r5, sp, #4
 435:Code\Device\W25Q80/user_data.c **** 	{
 436:Code\Device\W25Q80/user_data.c **** 		user_get_valid_time(user_id, val_time);
 437:Code\Device\W25Q80/user_data.c **** 		if((BYTE2LONG(val_time[0], val_time[1], val_time[2], val_time[3])) > 
 438:Code\Device\W25Q80/user_data.c **** 		   (BYTE2LONG(info->valid_time[0], info->valid_time[1], info->valid_time[2], info->valid_time[3])
ARM GAS  C:\Users\Administrator\AppData\Local\Temp\ccShlVUx.s 			page 27


 439:Code\Device\W25Q80/user_data.c **** 		{
 440:Code\Device\W25Q80/user_data.c **** 			DBG_SOFT_PutStr("\nUID OK!");	
 441:Code\Device\W25Q80/user_data.c **** 			return TRUE;
 442:Code\Device\W25Q80/user_data.c **** 		}
 443:Code\Device\W25Q80/user_data.c **** 		else
 444:Code\Device\W25Q80/user_data.c **** 		{
 445:Code\Device\W25Q80/user_data.c **** 			DBG_SOFT_PutStr("\nOut of date!");	
 446:Code\Device\W25Q80/user_data.c **** 			return 0x08;								// 超出有效期
 447:Code\Device\W25Q80/user_data.c **** 		}
 448:Code\Device\W25Q80/user_data.c **** 	}
 449:Code\Device\W25Q80/user_data.c **** 	else
 450:Code\Device\W25Q80/user_data.c **** 	{
 451:Code\Device\W25Q80/user_data.c **** 		DBG_SOFT_PutStr("\nNo UID!");	
 452:Code\Device\W25Q80/user_data.c **** 		return 0x06;									// 不存在
 1003              		.loc 1 452 0
 1004 001e 0622     		mov	r2, #6
 434:Code\Device\W25Q80/user_data.c **** 	if (user_id < MAX_USR_NUM)
 1005              		.loc 1 434 0
 1006 0020 9842     		cmp	r0, r3
 1007 0022 1AD8     		bhi	.L42
 436:Code\Device\W25Q80/user_data.c **** 		if((BYTE2LONG(val_time[0], val_time[1], val_time[2], val_time[3])) > 
 1008              		.loc 1 436 0
 1009 0024 291C     		mov	r1, r5
 1010 0026 FFF7FEFF 		bl	user_get_valid_time
 1011              	.LVL96:
 437:Code\Device\W25Q80/user_data.c **** 		   (BYTE2LONG(info->valid_time[0], info->valid_time[1], info->valid_time[2], info->valid_time[3])
 1012              		.loc 1 437 0
 1013 002a 2978     		ldrb	r1, [r5]
 1014 002c 6B78     		ldrb	r3, [r5, #1]
 1015 002e 0906     		lsl	r1, r1, #24
 1016 0030 1B04     		lsl	r3, r3, #16
 1017 0032 1943     		orr	r1, r3
 1018 0034 EB78     		ldrb	r3, [r5, #3]
 1019 0036 1943     		orr	r1, r3
 1020 0038 AB78     		ldrb	r3, [r5, #2]
 1021 003a 1B02     		lsl	r3, r3, #8
 1022 003c 1943     		orr	r1, r3
 438:Code\Device\W25Q80/user_data.c **** 		{
 1023              		.loc 1 438 0
 1024 003e 237A     		ldrb	r3, [r4, #8]
 1025 0040 1A06     		lsl	r2, r3, #24
 1026 0042 637A     		ldrb	r3, [r4, #9]
 1027 0044 1B04     		lsl	r3, r3, #16
 1028 0046 1343     		orr	r3, r2
 1029 0048 E27A     		ldrb	r2, [r4, #11]
 1030 004a 1343     		orr	r3, r2
 1031 004c A27A     		ldrb	r2, [r4, #10]
 1032 004e 1202     		lsl	r2, r2, #8
 1033 0050 1343     		orr	r3, r2
 441:Code\Device\W25Q80/user_data.c **** 		}
 1034              		.loc 1 441 0
 1035 0052 0122     		mov	r2, #1
 437:Code\Device\W25Q80/user_data.c **** 		   (BYTE2LONG(info->valid_time[0], info->valid_time[1], info->valid_time[2], info->valid_time[3])
 1036              		.loc 1 437 0
 1037 0054 9942     		cmp	r1, r3
 1038 0056 00D8     		bhi	.L42
 446:Code\Device\W25Q80/user_data.c **** 		}
ARM GAS  C:\Users\Administrator\AppData\Local\Temp\ccShlVUx.s 			page 28


 1039              		.loc 1 446 0
 1040 0058 0732     		add	r2, r2, #7
 1041              	.L42:
 453:Code\Device\W25Q80/user_data.c **** 	}
 454:Code\Device\W25Q80/user_data.c **** }
 1042              		.loc 1 454 0
 1043 005a 101C     		mov	r0, r2
 1044              		@ sp needed
 1045              	.LVL97:
 1046 005c 76BD     		pop	{r1, r2, r4, r5, r6, pc}
 1047              		.cfi_endproc
 1048              	.LFE82:
 1049              		.size	UserData_Judge_If_Open, .-UserData_Judge_If_Open
 1050              		.global	__aeabi_uidivmod
 1051              		.section	.text.Write_Open_UploadFlag,"ax",%progbits
 1052              		.align	1
 1053              		.global	Write_Open_UploadFlag
 1054              		.code	16
 1055              		.thumb_func
 1056              		.type	Write_Open_UploadFlag, %function
 1057              	Write_Open_UploadFlag:
 1058              	.LFB83:
 455:Code\Device\W25Q80/user_data.c **** 
 456:Code\Device\W25Q80/user_data.c **** 
 457:Code\Device\W25Q80/user_data.c **** 
 458:Code\Device\W25Q80/user_data.c **** //=================================== 开门记录信息存储 ====================================
 459:Code\Device\W25Q80/user_data.c **** 
 460:Code\Device\W25Q80/user_data.c **** //*************************************************************************************************
 461:Code\Device\W25Q80/user_data.c **** // Function name	: Write_Open_UploadFlag
 462:Code\Device\W25Q80/user_data.c **** // Description		: 写开门记录信息上报成功与否标志
 463:Code\Device\W25Q80/user_data.c **** // Parameter		: open_num	: 开门编号
 464:Code\Device\W25Q80/user_data.c **** //					: SendFlag	: 发送标志位
 465:Code\Device\W25Q80/user_data.c **** // Return			: none
 466:Code\Device\W25Q80/user_data.c **** //-------------------------------------------------------------------------------------------------
 467:Code\Device\W25Q80/user_data.c **** // Info				: 
 468:Code\Device\W25Q80/user_data.c **** //*************************************************************************************************
 469:Code\Device\W25Q80/user_data.c **** void Write_Open_UploadFlag(uint16 open_num, uint8 UploadFlag)
 470:Code\Device\W25Q80/user_data.c **** {
 1059              		.loc 1 470 0
 1060              		.cfi_startproc
 1061              	.LVL98:
 1062 0000 73B5     		push	{r0, r1, r4, r5, r6, lr}
 1063              		.cfi_def_cfa_offset 24
 1064              		.cfi_offset 0, -24
 1065              		.cfi_offset 1, -20
 1066              		.cfi_offset 4, -16
 1067              		.cfi_offset 5, -12
 1068              		.cfi_offset 6, -8
 1069              		.cfi_offset 14, -4
 1070              		.loc 1 470 0
 1071 0002 0E1C     		mov	r6, r1
 471:Code\Device\W25Q80/user_data.c **** 	uint8 flag;
 472:Code\Device\W25Q80/user_data.c **** 	uint16 tmp;
 473:Code\Device\W25Q80/user_data.c **** 	
 474:Code\Device\W25Q80/user_data.c **** 	tmp = open_num % MAX_OPEN_NUM;
 1072              		.loc 1 474 0
 1073 0004 0E49     		ldr	r1, .L49
ARM GAS  C:\Users\Administrator\AppData\Local\Temp\ccShlVUx.s 			page 29


 1074              	.LVL99:
 1075 0006 FFF7FEFF 		bl	__aeabi_uidivmod
 1076              	.LVL100:
 475:Code\Device\W25Q80/user_data.c **** 	W25QXX_Read((uint8 *)&flag, OPEN_FLAG_BASE + tmp, 1);
 1077              		.loc 1 475 0
 1078 000a D023     		mov	r3, #208
 1079 000c 8CB2     		uxth	r4, r1
 1080 000e 5B01     		lsl	r3, r3, #5
 1081 0010 E418     		add	r4, r4, r3
 1082 0012 6B46     		mov	r3, sp
 1083 0014 DD1D     		add	r5, r3, #7
 1084 0016 281C     		mov	r0, r5
 1085 0018 211C     		mov	r1, r4
 1086 001a 0122     		mov	r2, #1
 1087 001c FFF7FEFF 		bl	W25QXX_Read
 1088              	.LVL101:
 1089 0020 2B78     		ldrb	r3, [r5]
 476:Code\Device\W25Q80/user_data.c **** 	if (UploadFlag == TRUE)
 1090              		.loc 1 476 0
 1091 0022 012E     		cmp	r6, #1
 1092 0024 03D1     		bne	.L46
 477:Code\Device\W25Q80/user_data.c **** 	{
 478:Code\Device\W25Q80/user_data.c **** 		flag |= 0x80;
 1093              		.loc 1 478 0
 1094 0026 8022     		mov	r2, #128
 1095 0028 5242     		neg	r2, r2
 1096 002a 1343     		orr	r3, r2
 1097 002c 01E0     		b	.L48
 1098              	.L46:
 479:Code\Device\W25Q80/user_data.c **** 	}
 480:Code\Device\W25Q80/user_data.c **** 	else
 481:Code\Device\W25Q80/user_data.c **** 	{
 482:Code\Device\W25Q80/user_data.c **** 		flag &= 0x7F;
 1099              		.loc 1 482 0
 1100 002e 7F22     		mov	r2, #127
 1101 0030 1340     		and	r3, r2
 1102              	.L48:
 483:Code\Device\W25Q80/user_data.c **** 	}
 484:Code\Device\W25Q80/user_data.c **** 	W25QXX_Write((uint8 *)&flag, OPEN_FLAG_BASE + tmp, 1);
 1103              		.loc 1 484 0
 1104 0032 281C     		mov	r0, r5
 1105 0034 211C     		mov	r1, r4
 1106 0036 0122     		mov	r2, #1
 482:Code\Device\W25Q80/user_data.c **** 	}
 1107              		.loc 1 482 0
 1108 0038 2B70     		strb	r3, [r5]
 485:Code\Device\W25Q80/user_data.c **** }
 1109              		.loc 1 485 0
 1110              		@ sp needed
 484:Code\Device\W25Q80/user_data.c **** }
 1111              		.loc 1 484 0
 1112 003a FFF7FEFF 		bl	W25QXX_Write
 1113              	.LVL102:
 1114              		.loc 1 485 0
 1115 003e 73BD     		pop	{r0, r1, r4, r5, r6, pc}
 1116              	.L50:
 1117              		.align	2
ARM GAS  C:\Users\Administrator\AppData\Local\Temp\ccShlVUx.s 			page 30


 1118              	.L49:
 1119 0040 88130000 		.word	5000
 1120              		.cfi_endproc
 1121              	.LFE83:
 1122              		.size	Write_Open_UploadFlag, .-Write_Open_UploadFlag
 1123              		.section	.text.Read_Open_UploadFlag,"ax",%progbits
 1124              		.align	1
 1125              		.global	Read_Open_UploadFlag
 1126              		.code	16
 1127              		.thumb_func
 1128              		.type	Read_Open_UploadFlag, %function
 1129              	Read_Open_UploadFlag:
 1130              	.LFB84:
 486:Code\Device\W25Q80/user_data.c **** 
 487:Code\Device\W25Q80/user_data.c **** //*************************************************************************************************
 488:Code\Device\W25Q80/user_data.c **** // Function name	: Read_Open_UploadFlag
 489:Code\Device\W25Q80/user_data.c **** // Description		: 读开门记录信息上报成功与否标志
 490:Code\Device\W25Q80/user_data.c **** // Parameter		: open_num	: 开门编号
 491:Code\Device\W25Q80/user_data.c **** // Return			: 上报结果
 492:Code\Device\W25Q80/user_data.c **** //-------------------------------------------------------------------------------------------------
 493:Code\Device\W25Q80/user_data.c **** // Info				: 
 494:Code\Device\W25Q80/user_data.c **** //*************************************************************************************************
 495:Code\Device\W25Q80/user_data.c **** uint8 Read_Open_UploadFlag(uint16 open_num)
 496:Code\Device\W25Q80/user_data.c **** {
 1131              		.loc 1 496 0
 1132              		.cfi_startproc
 1133              	.LVL103:
 1134 0000 13B5     		push	{r0, r1, r4, lr}
 1135              		.cfi_def_cfa_offset 16
 1136              		.cfi_offset 0, -16
 1137              		.cfi_offset 1, -12
 1138              		.cfi_offset 4, -8
 1139              		.cfi_offset 14, -4
 497:Code\Device\W25Q80/user_data.c **** 	uint8 flag;
 498:Code\Device\W25Q80/user_data.c **** 	uint16 tmp;
 499:Code\Device\W25Q80/user_data.c **** 	
 500:Code\Device\W25Q80/user_data.c **** 	tmp = open_num % MAX_OPEN_NUM;
 501:Code\Device\W25Q80/user_data.c **** 	W25QXX_Read((uint8 *)&flag, OPEN_FLAG_BASE + tmp, 1);
 1140              		.loc 1 501 0
 1141 0002 6B46     		mov	r3, sp
 500:Code\Device\W25Q80/user_data.c **** 	W25QXX_Read((uint8 *)&flag, OPEN_FLAG_BASE + tmp, 1);
 1142              		.loc 1 500 0
 1143 0004 0749     		ldr	r1, .L52
 1144              		.loc 1 501 0
 1145 0006 DC1D     		add	r4, r3, #7
 500:Code\Device\W25Q80/user_data.c **** 	W25QXX_Read((uint8 *)&flag, OPEN_FLAG_BASE + tmp, 1);
 1146              		.loc 1 500 0
 1147 0008 FFF7FEFF 		bl	__aeabi_uidivmod
 1148              	.LVL104:
 1149              		.loc 1 501 0
 1150 000c D023     		mov	r3, #208
 1151 000e 89B2     		uxth	r1, r1
 1152 0010 5B01     		lsl	r3, r3, #5
 1153 0012 201C     		mov	r0, r4
 1154 0014 C918     		add	r1, r1, r3
 1155 0016 0122     		mov	r2, #1
 1156 0018 FFF7FEFF 		bl	W25QXX_Read
ARM GAS  C:\Users\Administrator\AppData\Local\Temp\ccShlVUx.s 			page 31


 1157              	.LVL105:
 502:Code\Device\W25Q80/user_data.c **** 	if (flag & 0x80)
 1158              		.loc 1 502 0
 1159 001c 2078     		ldrb	r0, [r4]
 503:Code\Device\W25Q80/user_data.c **** 	{
 504:Code\Device\W25Q80/user_data.c **** 		return TRUE;
 505:Code\Device\W25Q80/user_data.c **** 	}
 506:Code\Device\W25Q80/user_data.c **** 	else
 507:Code\Device\W25Q80/user_data.c **** 	{
 508:Code\Device\W25Q80/user_data.c **** 		return FALSE;
 509:Code\Device\W25Q80/user_data.c **** 	}
 510:Code\Device\W25Q80/user_data.c **** }
 1160              		.loc 1 510 0
 1161              		@ sp needed
 504:Code\Device\W25Q80/user_data.c **** 	}
 1162              		.loc 1 504 0
 1163 001e C009     		lsr	r0, r0, #7
 1164              		.loc 1 510 0
 1165 0020 16BD     		pop	{r1, r2, r4, pc}
 1166              	.L53:
 1167 0022 C046     		.align	2
 1168              	.L52:
 1169 0024 88130000 		.word	5000
 1170              		.cfi_endproc
 1171              	.LFE84:
 1172              		.size	Read_Open_UploadFlag, .-Read_Open_UploadFlag
 1173              		.section	.text.Write_Open_Type,"ax",%progbits
 1174              		.align	1
 1175              		.global	Write_Open_Type
 1176              		.code	16
 1177              		.thumb_func
 1178              		.type	Write_Open_Type, %function
 1179              	Write_Open_Type:
 1180              	.LFB85:
 511:Code\Device\W25Q80/user_data.c **** 
 512:Code\Device\W25Q80/user_data.c **** //*************************************************************************************************
 513:Code\Device\W25Q80/user_data.c **** // Function name	: Write_Open_Type
 514:Code\Device\W25Q80/user_data.c **** // Description		: 写开门记录的开门类型
 515:Code\Device\W25Q80/user_data.c **** // Parameter		: open_num	: 开门编号
 516:Code\Device\W25Q80/user_data.c **** //					: type		: 开门类型
 517:Code\Device\W25Q80/user_data.c **** // Return			: none
 518:Code\Device\W25Q80/user_data.c **** //-------------------------------------------------------------------------------------------------
 519:Code\Device\W25Q80/user_data.c **** // Info				: 
 520:Code\Device\W25Q80/user_data.c **** //*************************************************************************************************
 521:Code\Device\W25Q80/user_data.c **** void Write_Open_Type(uint16 open_num, uint8 type)
 522:Code\Device\W25Q80/user_data.c **** {
 1181              		.loc 1 522 0
 1182              		.cfi_startproc
 1183              	.LVL106:
 1184 0000 13B5     		push	{r0, r1, r4, lr}
 1185              		.cfi_def_cfa_offset 16
 1186              		.cfi_offset 0, -16
 1187              		.cfi_offset 1, -12
 1188              		.cfi_offset 4, -8
 1189              		.cfi_offset 14, -4
 523:Code\Device\W25Q80/user_data.c **** 	uint8 flag;
 524:Code\Device\W25Q80/user_data.c **** 	uint16 tmp;
ARM GAS  C:\Users\Administrator\AppData\Local\Temp\ccShlVUx.s 			page 32


 525:Code\Device\W25Q80/user_data.c **** 	
 526:Code\Device\W25Q80/user_data.c **** 	tmp = open_num % MAX_OPEN_NUM;
 527:Code\Device\W25Q80/user_data.c **** 	//W25QXX_Read((uint8 *)&flag, OPEN_FLAG_BASE + tmp, 1);
 528:Code\Device\W25Q80/user_data.c **** 	//flag = ((flag & 0x80) | (type & 0x7F));
 529:Code\Device\W25Q80/user_data.c **** 	flag = type;												// @12.06 modify
 1190              		.loc 1 529 0
 1191 0002 6B46     		mov	r3, sp
 1192 0004 D971     		strb	r1, [r3, #7]
 526:Code\Device\W25Q80/user_data.c **** 	//W25QXX_Read((uint8 *)&flag, OPEN_FLAG_BASE + tmp, 1);
 1193              		.loc 1 526 0
 1194 0006 0649     		ldr	r1, .L55
 1195              	.LVL107:
 1196              		.loc 1 529 0
 1197 0008 DC1D     		add	r4, r3, #7
 1198              	.LVL108:
 526:Code\Device\W25Q80/user_data.c **** 	//W25QXX_Read((uint8 *)&flag, OPEN_FLAG_BASE + tmp, 1);
 1199              		.loc 1 526 0
 1200 000a FFF7FEFF 		bl	__aeabi_uidivmod
 1201              	.LVL109:
 530:Code\Device\W25Q80/user_data.c **** 	W25QXX_Write((uint8 *)&flag, OPEN_FLAG_BASE + tmp, 1);
 1202              		.loc 1 530 0
 1203 000e D023     		mov	r3, #208
 1204 0010 89B2     		uxth	r1, r1
 1205 0012 5B01     		lsl	r3, r3, #5
 1206 0014 C918     		add	r1, r1, r3
 1207 0016 201C     		mov	r0, r4
 1208 0018 0122     		mov	r2, #1
 1209 001a FFF7FEFF 		bl	W25QXX_Write
 1210              	.LVL110:
 531:Code\Device\W25Q80/user_data.c **** }
 1211              		.loc 1 531 0
 1212              		@ sp needed
 1213 001e 13BD     		pop	{r0, r1, r4, pc}
 1214              	.L56:
 1215              		.align	2
 1216              	.L55:
 1217 0020 88130000 		.word	5000
 1218              		.cfi_endproc
 1219              	.LFE85:
 1220              		.size	Write_Open_Type, .-Write_Open_Type
 1221              		.section	.text.Read_Open_Type,"ax",%progbits
 1222              		.align	1
 1223              		.global	Read_Open_Type
 1224              		.code	16
 1225              		.thumb_func
 1226              		.type	Read_Open_Type, %function
 1227              	Read_Open_Type:
 1228              	.LFB86:
 532:Code\Device\W25Q80/user_data.c **** 
 533:Code\Device\W25Q80/user_data.c **** //*************************************************************************************************
 534:Code\Device\W25Q80/user_data.c **** // Function name	: Read_Open_Type
 535:Code\Device\W25Q80/user_data.c **** // Description		: 读开门记录的开门类型
 536:Code\Device\W25Q80/user_data.c **** // Parameter		: open_num	: 开门编号
 537:Code\Device\W25Q80/user_data.c **** // Return			: 开门类型
 538:Code\Device\W25Q80/user_data.c **** //-------------------------------------------------------------------------------------------------
 539:Code\Device\W25Q80/user_data.c **** // Info				: ？？
 540:Code\Device\W25Q80/user_data.c **** //*************************************************************************************************
ARM GAS  C:\Users\Administrator\AppData\Local\Temp\ccShlVUx.s 			page 33


 541:Code\Device\W25Q80/user_data.c **** uint8 Read_Open_Type(uint16 open_num)
 542:Code\Device\W25Q80/user_data.c **** {
 1229              		.loc 1 542 0
 1230              		.cfi_startproc
 1231              	.LVL111:
 1232 0000 13B5     		push	{r0, r1, r4, lr}
 1233              		.cfi_def_cfa_offset 16
 1234              		.cfi_offset 0, -16
 1235              		.cfi_offset 1, -12
 1236              		.cfi_offset 4, -8
 1237              		.cfi_offset 14, -4
 543:Code\Device\W25Q80/user_data.c **** 	uint8 flag;
 544:Code\Device\W25Q80/user_data.c **** 	uint16 tmp;
 545:Code\Device\W25Q80/user_data.c **** 	
 546:Code\Device\W25Q80/user_data.c **** 	tmp = open_num % MAX_OPEN_NUM;
 547:Code\Device\W25Q80/user_data.c **** 	W25QXX_Read((uint8 *)&flag, OPEN_FLAG_BASE + tmp, 1);
 1238              		.loc 1 547 0
 1239 0002 6B46     		mov	r3, sp
 546:Code\Device\W25Q80/user_data.c **** 	W25QXX_Read((uint8 *)&flag, OPEN_FLAG_BASE + tmp, 1);
 1240              		.loc 1 546 0
 1241 0004 0749     		ldr	r1, .L58
 1242              		.loc 1 547 0
 1243 0006 DC1D     		add	r4, r3, #7
 546:Code\Device\W25Q80/user_data.c **** 	W25QXX_Read((uint8 *)&flag, OPEN_FLAG_BASE + tmp, 1);
 1244              		.loc 1 546 0
 1245 0008 FFF7FEFF 		bl	__aeabi_uidivmod
 1246              	.LVL112:
 1247              		.loc 1 547 0
 1248 000c D023     		mov	r3, #208
 1249 000e 89B2     		uxth	r1, r1
 1250 0010 5B01     		lsl	r3, r3, #5
 1251 0012 C918     		add	r1, r1, r3
 1252 0014 201C     		mov	r0, r4
 1253 0016 0122     		mov	r2, #1
 1254 0018 FFF7FEFF 		bl	W25QXX_Read
 1255              	.LVL113:
 548:Code\Device\W25Q80/user_data.c **** 	return (flag & 0x7F);
 1256              		.loc 1 548 0
 1257 001c 7F23     		mov	r3, #127
 1258 001e 2078     		ldrb	r0, [r4]
 549:Code\Device\W25Q80/user_data.c **** }
 1259              		.loc 1 549 0
 1260              		@ sp needed
 548:Code\Device\W25Q80/user_data.c **** 	return (flag & 0x7F);
 1261              		.loc 1 548 0
 1262 0020 1840     		and	r0, r3
 1263              		.loc 1 549 0
 1264 0022 16BD     		pop	{r1, r2, r4, pc}
 1265              	.L59:
 1266              		.align	2
 1267              	.L58:
 1268 0024 88130000 		.word	5000
 1269              		.cfi_endproc
 1270              	.LFE86:
 1271              		.size	Read_Open_Type, .-Read_Open_Type
 1272              		.section	.text.Write_Open_Qty,"ax",%progbits
 1273              		.align	1
ARM GAS  C:\Users\Administrator\AppData\Local\Temp\ccShlVUx.s 			page 34


 1274              		.global	Write_Open_Qty
 1275              		.code	16
 1276              		.thumb_func
 1277              		.type	Write_Open_Qty, %function
 1278              	Write_Open_Qty:
 1279              	.LFB87:
 550:Code\Device\W25Q80/user_data.c **** 
 551:Code\Device\W25Q80/user_data.c **** //*************************************************************************************************
 552:Code\Device\W25Q80/user_data.c **** // Function name	: Write_Open_Qty
 553:Code\Device\W25Q80/user_data.c **** // Description		: 写开门记录总数量
 554:Code\Device\W25Q80/user_data.c **** // Parameter		: openQty
 555:Code\Device\W25Q80/user_data.c **** // Return			: none
 556:Code\Device\W25Q80/user_data.c **** //-------------------------------------------------------------------------------------------------
 557:Code\Device\W25Q80/user_data.c **** // Info				: 
 558:Code\Device\W25Q80/user_data.c **** //*************************************************************************************************
 559:Code\Device\W25Q80/user_data.c **** void Write_Open_Qty(uint16 openQty)
 560:Code\Device\W25Q80/user_data.c **** {
 1280              		.loc 1 560 0
 1281              		.cfi_startproc
 1282              	.LVL114:
 1283 0000 07B5     		push	{r0, r1, r2, lr}
 1284              		.cfi_def_cfa_offset 16
 1285              		.cfi_offset 0, -16
 1286              		.cfi_offset 1, -12
 1287              		.cfi_offset 2, -8
 1288              		.cfi_offset 14, -4
 561:Code\Device\W25Q80/user_data.c ****     uint8 qty[2];
 562:Code\Device\W25Q80/user_data.c **** 	
 563:Code\Device\W25Q80/user_data.c ****     qty[0] = (openQty >> 8) & 0xff;
 564:Code\Device\W25Q80/user_data.c ****     qty[1] = openQty & 0xff;
 565:Code\Device\W25Q80/user_data.c **** 	W25QXX_Write(qty, OPEN_QTY_BASE, (uint16)sizeof(qty));
 1289              		.loc 1 565 0
 1290 0002 C821     		mov	r1, #200
 563:Code\Device\W25Q80/user_data.c ****     qty[1] = openQty & 0xff;
 1291              		.loc 1 563 0
 1292 0004 01AB     		add	r3, sp, #4
 1293 0006 020A     		lsr	r2, r0, #8
 1294 0008 1A70     		strb	r2, [r3]
 564:Code\Device\W25Q80/user_data.c **** 	W25QXX_Write(qty, OPEN_QTY_BASE, (uint16)sizeof(qty));
 1295              		.loc 1 564 0
 1296 000a 5870     		strb	r0, [r3, #1]
 1297              		.loc 1 565 0
 1298 000c 4902     		lsl	r1, r1, #9
 1299 000e 181C     		mov	r0, r3
 1300              	.LVL115:
 1301 0010 0222     		mov	r2, #2
 1302 0012 FFF7FEFF 		bl	W25QXX_Write
 1303              	.LVL116:
 566:Code\Device\W25Q80/user_data.c **** }
 1304              		.loc 1 566 0
 1305              		@ sp needed
 1306 0016 07BD     		pop	{r0, r1, r2, pc}
 1307              		.cfi_endproc
 1308              	.LFE87:
 1309              		.size	Write_Open_Qty, .-Write_Open_Qty
 1310              		.section	.text.Read_Open_Qty,"ax",%progbits
 1311              		.align	1
ARM GAS  C:\Users\Administrator\AppData\Local\Temp\ccShlVUx.s 			page 35


 1312              		.global	Read_Open_Qty
 1313              		.code	16
 1314              		.thumb_func
 1315              		.type	Read_Open_Qty, %function
 1316              	Read_Open_Qty:
 1317              	.LFB88:
 567:Code\Device\W25Q80/user_data.c **** 
 568:Code\Device\W25Q80/user_data.c **** //*************************************************************************************************
 569:Code\Device\W25Q80/user_data.c **** // Function name	: Read_Open_Qty
 570:Code\Device\W25Q80/user_data.c **** // Description		: 读开门记录总数量
 571:Code\Device\W25Q80/user_data.c **** // Parameter		: openQty
 572:Code\Device\W25Q80/user_data.c **** // Return			: openQty
 573:Code\Device\W25Q80/user_data.c **** //-------------------------------------------------------------------------------------------------
 574:Code\Device\W25Q80/user_data.c **** // Info				: 
 575:Code\Device\W25Q80/user_data.c **** //*************************************************************************************************
 576:Code\Device\W25Q80/user_data.c **** uint16 Read_Open_Qty(void)
 577:Code\Device\W25Q80/user_data.c **** {
 1318              		.loc 1 577 0
 1319              		.cfi_startproc
 1320 0000 13B5     		push	{r0, r1, r4, lr}
 1321              		.cfi_def_cfa_offset 16
 1322              		.cfi_offset 0, -16
 1323              		.cfi_offset 1, -12
 1324              		.cfi_offset 4, -8
 1325              		.cfi_offset 14, -4
 578:Code\Device\W25Q80/user_data.c **** 	uint8 qty[2];
 579:Code\Device\W25Q80/user_data.c **** 	
 580:Code\Device\W25Q80/user_data.c **** 	W25QXX_Read(qty, OPEN_QTY_BASE, (uint16)sizeof(qty));
 1326              		.loc 1 580 0
 1327 0002 C821     		mov	r1, #200
 1328 0004 01AC     		add	r4, sp, #4
 1329 0006 201C     		mov	r0, r4
 1330 0008 4902     		lsl	r1, r1, #9
 1331 000a 0222     		mov	r2, #2
 1332 000c FFF7FEFF 		bl	W25QXX_Read
 1333              	.LVL117:
 581:Code\Device\W25Q80/user_data.c **** 	return ((uint16)((qty[0] << 8) | qty[1]));
 1334              		.loc 1 581 0
 1335 0010 2078     		ldrb	r0, [r4]
 1336 0012 6378     		ldrb	r3, [r4, #1]
 1337 0014 0002     		lsl	r0, r0, #8
 1338 0016 1843     		orr	r0, r3
 582:Code\Device\W25Q80/user_data.c **** }
 1339              		.loc 1 582 0
 1340              		@ sp needed
 1341 0018 16BD     		pop	{r1, r2, r4, pc}
 1342              		.cfi_endproc
 1343              	.LFE88:
 1344              		.size	Read_Open_Qty, .-Read_Open_Qty
 1345              		.section	.text.Write_OpenInfo,"ax",%progbits
 1346              		.align	1
 1347              		.global	Write_OpenInfo
 1348              		.code	16
 1349              		.thumb_func
 1350              		.type	Write_OpenInfo, %function
 1351              	Write_OpenInfo:
 1352              	.LFB89:
ARM GAS  C:\Users\Administrator\AppData\Local\Temp\ccShlVUx.s 			page 36


 583:Code\Device\W25Q80/user_data.c **** 
 584:Code\Device\W25Q80/user_data.c **** //*************************************************************************************************
 585:Code\Device\W25Q80/user_data.c **** // Function name	: Write_OpenInfo
 586:Code\Device\W25Q80/user_data.c **** // Description		: 写开门记录信息(自带数量处理)
 587:Code\Device\W25Q80/user_data.c **** // Parameter		: openInfo	: 开门信息
 588:Code\Device\W25Q80/user_data.c **** //					: openType	: 开门类型
 589:Code\Device\W25Q80/user_data.c **** // Return			: none
 590:Code\Device\W25Q80/user_data.c **** //-------------------------------------------------------------------------------------------------
 591:Code\Device\W25Q80/user_data.c **** // Info				: 开门记录也从0开始，0-4999，5000为一周期；
 592:Code\Device\W25Q80/user_data.c **** //*************************************************************************************************
 593:Code\Device\W25Q80/user_data.c **** void Write_OpenInfo(open_door_t *openInfo, uint8_t openType)
 594:Code\Device\W25Q80/user_data.c **** {
 1353              		.loc 1 594 0
 1354              		.cfi_startproc
 1355              	.LVL118:
 1356 0000 F0B5     		push	{r4, r5, r6, r7, lr}
 1357              		.cfi_def_cfa_offset 20
 1358              		.cfi_offset 4, -20
 1359              		.cfi_offset 5, -16
 1360              		.cfi_offset 6, -12
 1361              		.cfi_offset 7, -8
 1362              		.cfi_offset 14, -4
 1363 0002 89B0     		sub	sp, sp, #36
 1364              		.cfi_def_cfa_offset 56
 1365              		.loc 1 594 0
 1366 0004 0F1C     		mov	r7, r1
 595:Code\Device\W25Q80/user_data.c **** 	uint16 open_qty, tmp;
 596:Code\Device\W25Q80/user_data.c **** 	
 597:Code\Device\W25Q80/user_data.c **** 	open_qty = Read_Open_Qty();										// 读出的数量即是下一个要写的偏移量		//
 598:Code\Device\W25Q80/user_data.c **** 	tmp = open_qty % MAX_OPEN_NUM;
 599:Code\Device\W25Q80/user_data.c **** 	uint8 openinfo_tmp[17] = {0x01};
 1367              		.loc 1 599 0
 1368 0006 1125     		mov	r5, #17
 594:Code\Device\W25Q80/user_data.c **** 	uint16 open_qty, tmp;
 1369              		.loc 1 594 0
 1370 0008 0190     		str	r0, [sp, #4]
 597:Code\Device\W25Q80/user_data.c **** 	tmp = open_qty % MAX_OPEN_NUM;
 1371              		.loc 1 597 0
 1372 000a FFF7FEFF 		bl	Read_Open_Qty
 1373              	.LVL119:
 1374              		.loc 1 599 0
 1375 000e 03AE     		add	r6, sp, #12
 597:Code\Device\W25Q80/user_data.c **** 	tmp = open_qty % MAX_OPEN_NUM;
 1376              		.loc 1 597 0
 1377 0010 041C     		mov	r4, r0
 1378              	.LVL120:
 1379              		.loc 1 599 0
 1380 0012 0021     		mov	r1, #0
 1381 0014 2A1C     		mov	r2, r5
 1382 0016 301C     		mov	r0, r6
 1383 0018 FFF7FEFF 		bl	memset
 1384              	.LVL121:
 1385 001c 0123     		mov	r3, #1
 1386 001e 3370     		strb	r3, [r6]
 600:Code\Device\W25Q80/user_data.c **** 	
 601:Code\Device\W25Q80/user_data.c **** 	
 602:Code\Device\W25Q80/user_data.c **** 	memcpy(openinfo_tmp+1,openInfo,16);
ARM GAS  C:\Users\Administrator\AppData\Local\Temp\ccShlVUx.s 			page 37


 1387              		.loc 1 602 0
 1388 0020 02AB     		add	r3, sp, #8
 1389 0022 581D     		add	r0, r3, #5
 1390 0024 1022     		mov	r2, #16
 1391 0026 0199     		ldr	r1, [sp, #4]
 1392 0028 FFF7FEFF 		bl	memcpy
 1393              	.LVL122:
 598:Code\Device\W25Q80/user_data.c **** 	uint8 openinfo_tmp[17] = {0x01};
 1394              		.loc 1 598 0
 1395 002c 201C     		mov	r0, r4
 1396 002e 0D49     		ldr	r1, .L67
 1397 0030 FFF7FEFF 		bl	__aeabi_uidivmod
 1398              	.LVL123:
 603:Code\Device\W25Q80/user_data.c **** 		#if 0
 604:Code\Device\W25Q80/user_data.c **** 		// 读出写入前的flash数据测试
 605:Code\Device\W25Q80/user_data.c **** 		//W25QXX_Read((uint8 *)&tmp_t, OPEN_INFO_BASE + sizeof(open_door_t) * tmp, (uint16)sizeof(open_do
 606:Code\Device\W25Q80/user_data.c **** 		DBG_SOFT_PutStr("\nTest before write in open date :\n");
 607:Code\Device\W25Q80/user_data.c **** 		DBG_SOFT_PrintfHex((uint8 *)openinfo_tmp,(uint16)sizeof(open_door_t)+1,16);
 608:Code\Device\W25Q80/user_data.c **** 		#endif	
 609:Code\Device\W25Q80/user_data.c **** 		
 610:Code\Device\W25Q80/user_data.c **** 	W25QXX_Write((uint8 *)openinfo_tmp, OPEN_INFO_BASE + (1+sizeof(open_door_t)) * tmp, (uint16)sizeof
 1399              		.loc 1 610 0
 1400 0034 B823     		mov	r3, #184
 1401 0036 89B2     		uxth	r1, r1
 1402 0038 6943     		mul	r1, r5
 1403 003a 9B01     		lsl	r3, r3, #6
 1404 003c C918     		add	r1, r1, r3
 1405 003e 301C     		mov	r0, r6
 1406 0040 2A1C     		mov	r2, r5
 1407 0042 FFF7FEFF 		bl	W25QXX_Write
 1408              	.LVL124:
 611:Code\Device\W25Q80/user_data.c **** 	if(openType)
 1409              		.loc 1 611 0
 1410 0046 002F     		cmp	r7, #0
 1411 0048 07D0     		beq	.L63
 612:Code\Device\W25Q80/user_data.c **** 	{
 613:Code\Device\W25Q80/user_data.c **** 		Write_Open_Type(open_qty, openType);						// 写入开门类型信息						//
 1412              		.loc 1 613 0
 1413 004a 201C     		mov	r0, r4
 1414 004c 391C     		mov	r1, r7
 614:Code\Device\W25Q80/user_data.c **** 	
 615:Code\Device\W25Q80/user_data.c **** 		open_qty++;
 1415              		.loc 1 615 0
 1416 004e 0134     		add	r4, r4, #1
 1417              	.LVL125:
 613:Code\Device\W25Q80/user_data.c **** 	
 1418              		.loc 1 613 0
 1419 0050 FFF7FEFF 		bl	Write_Open_Type
 1420              	.LVL126:
 616:Code\Device\W25Q80/user_data.c **** 		Write_Open_Qty(open_qty);									// 更新开门数量							//
 1421              		.loc 1 616 0
 1422 0054 A0B2     		uxth	r0, r4
 1423 0056 FFF7FEFF 		bl	Write_Open_Qty
 1424              	.LVL127:
 1425              	.L63:
 617:Code\Device\W25Q80/user_data.c **** 	}
 618:Code\Device\W25Q80/user_data.c **** 		#if 0
ARM GAS  C:\Users\Administrator\AppData\Local\Temp\ccShlVUx.s 			page 38


 619:Code\Device\W25Q80/user_data.c **** 		// 读出写入的flash数据测试
 620:Code\Device\W25Q80/user_data.c **** 		uint8 temp[17] = {0x00};	
 621:Code\Device\W25Q80/user_data.c **** 		W25QXX_Read((uint8 *)temp, OPEN_INFO_BASE + (1+sizeof(open_door_t)) * tmp, (uint16)sizeof(open_do
 622:Code\Device\W25Q80/user_data.c **** 		DBG_SOFT_PutStr("\nTest after write in open date :\n");
 623:Code\Device\W25Q80/user_data.c **** 		DBG_SOFT_PrintfHex((uint8 *)temp,(uint16)sizeof(open_door_t)+1,16);
 624:Code\Device\W25Q80/user_data.c **** 		#endif	
 625:Code\Device\W25Q80/user_data.c **** 	uploadpolling_stop = 0;											// 清除开门信息轮询上报停止位			// 
 1426              		.loc 1 625 0
 1427 005a 0022     		mov	r2, #0
 1428 005c 024B     		ldr	r3, .L67+4
 1429 005e 1A70     		strb	r2, [r3]
 626:Code\Device\W25Q80/user_data.c **** }
 1430              		.loc 1 626 0
 1431 0060 09B0     		add	sp, sp, #36
 1432              		@ sp needed
 1433 0062 F0BD     		pop	{r4, r5, r6, r7, pc}
 1434              	.L68:
 1435              		.align	2
 1436              	.L67:
 1437 0064 88130000 		.word	5000
 1438 0068 00000000 		.word	uploadpolling_stop
 1439              		.cfi_endproc
 1440              	.LFE89:
 1441              		.size	Write_OpenInfo, .-Write_OpenInfo
 1442              		.section	.text.Read_OpenInfo,"ax",%progbits
 1443              		.align	1
 1444              		.global	Read_OpenInfo
 1445              		.code	16
 1446              		.thumb_func
 1447              		.type	Read_OpenInfo, %function
 1448              	Read_OpenInfo:
 1449              	.LFB90:
 627:Code\Device\W25Q80/user_data.c **** 
 628:Code\Device\W25Q80/user_data.c **** //*************************************************************************************************
 629:Code\Device\W25Q80/user_data.c **** // Function name	: Read_OpenInfo
 630:Code\Device\W25Q80/user_data.c **** // Description		: 读开门记录信息
 631:Code\Device\W25Q80/user_data.c **** // Parameter		: open_num	: 开门记录编号
 632:Code\Device\W25Q80/user_data.c **** //					  openInfo	: 读回来的开门信息
 633:Code\Device\W25Q80/user_data.c **** // Return			: none
 634:Code\Device\W25Q80/user_data.c **** //-------------------------------------------------------------------------------------------------
 635:Code\Device\W25Q80/user_data.c **** // Info				: 开门记录也从0开始，0-4999，5000为一周期；
 636:Code\Device\W25Q80/user_data.c **** //*************************************************************************************************
 637:Code\Device\W25Q80/user_data.c **** void Read_OpenInfo(uint16 open_num, open_door_t *openInfo)
 638:Code\Device\W25Q80/user_data.c **** {
 1450              		.loc 1 638 0
 1451              		.cfi_startproc
 1452              	.LVL128:
 1453 0000 70B5     		push	{r4, r5, r6, lr}
 1454              		.cfi_def_cfa_offset 16
 1455              		.cfi_offset 4, -16
 1456              		.cfi_offset 5, -12
 1457              		.cfi_offset 6, -8
 1458              		.cfi_offset 14, -4
 639:Code\Device\W25Q80/user_data.c ****     uint16 tmp;
 640:Code\Device\W25Q80/user_data.c **** 	uint8 data_temp[17] = {0};		//每条开门记录开头加一个标志数据0x01
 1459              		.loc 1 640 0
 1460 0002 1126     		mov	r6, #17
ARM GAS  C:\Users\Administrator\AppData\Local\Temp\ccShlVUx.s 			page 39


 638:Code\Device\W25Q80/user_data.c ****     uint16 tmp;
 1461              		.loc 1 638 0
 1462 0004 041C     		mov	r4, r0
 1463 0006 86B0     		sub	sp, sp, #24
 1464              		.cfi_def_cfa_offset 40
 1465              		.loc 1 640 0
 1466 0008 321C     		mov	r2, r6
 638:Code\Device\W25Q80/user_data.c ****     uint16 tmp;
 1467              		.loc 1 638 0
 1468 000a 0D1C     		mov	r5, r1
 1469              		.loc 1 640 0
 1470 000c 01A8     		add	r0, sp, #4
 1471              	.LVL129:
 1472 000e 0021     		mov	r1, #0
 1473              	.LVL130:
 1474 0010 FFF7FEFF 		bl	memset
 1475              	.LVL131:
 641:Code\Device\W25Q80/user_data.c **** 	uint32 readoff = 0;
 642:Code\Device\W25Q80/user_data.c **** 	
 643:Code\Device\W25Q80/user_data.c **** 	tmp = open_num % MAX_OPEN_NUM;
 1476              		.loc 1 643 0
 1477 0014 201C     		mov	r0, r4
 1478 0016 1149     		ldr	r1, .L73
 1479 0018 FFF7FEFF 		bl	__aeabi_uidivmod
 1480              	.LVL132:
 644:Code\Device\W25Q80/user_data.c **** 	//W25QXX_Read((uint8 *)data_temp, OPEN_INFO_BASE + (1+sizeof(open_door_t)) * tmp, (uint16)sizeof(o
 645:Code\Device\W25Q80/user_data.c **** 	readoff = (1+sizeof(open_door_t)) * tmp;
 1481              		.loc 1 645 0
 1482 001c 8CB2     		uxth	r4, r1
 1483              	.LVL133:
 1484 001e 7443     		mul	r4, r6
 1485              	.LVL134:
 646:Code\Device\W25Q80/user_data.c **** 	if((readoff % 0xff) == 0)
 1486              		.loc 1 646 0
 1487 0020 FF21     		mov	r1, #255
 1488 0022 201C     		mov	r0, r4
 1489 0024 FFF7FEFF 		bl	__aeabi_uidivmod
 1490              	.LVL135:
 1491 0028 0029     		cmp	r1, #0
 1492 002a 05D1     		bne	.L70
 1493              	.LVL136:
 647:Code\Device\W25Q80/user_data.c **** 	{
 648:Code\Device\W25Q80/user_data.c **** 		readoff += 1;
 649:Code\Device\W25Q80/user_data.c **** 		W25QXX_Read((uint8 *)data_temp+1, OPEN_INFO_BASE + (readoff), (sizeof(open_door_t)));
 1494              		.loc 1 649 0
 1495 002c 0C4B     		ldr	r3, .L73+4
 1496 002e 1022     		mov	r2, #16
 1497 0030 E118     		add	r1, r4, r3
 1498 0032 6B46     		mov	r3, sp
 1499 0034 581D     		add	r0, r3, #5
 1500 0036 04E0     		b	.L72
 1501              	.LVL137:
 1502              	.L70:
 650:Code\Device\W25Q80/user_data.c **** 	}
 651:Code\Device\W25Q80/user_data.c **** 	else
 652:Code\Device\W25Q80/user_data.c **** 	{
 653:Code\Device\W25Q80/user_data.c **** 		W25QXX_Read((uint8 *)data_temp, OPEN_INFO_BASE + (readoff), (sizeof(open_door_t) + 1));
ARM GAS  C:\Users\Administrator\AppData\Local\Temp\ccShlVUx.s 			page 40


 1503              		.loc 1 653 0
 1504 0038 B823     		mov	r3, #184
 1505 003a 321C     		mov	r2, r6
 1506 003c 9B01     		lsl	r3, r3, #6
 1507 003e E118     		add	r1, r4, r3
 1508 0040 01A8     		add	r0, sp, #4
 1509              	.LVL138:
 1510              	.L72:
 1511 0042 FFF7FEFF 		bl	W25QXX_Read
 1512              	.LVL139:
 654:Code\Device\W25Q80/user_data.c **** 	}
 655:Code\Device\W25Q80/user_data.c **** 	
 656:Code\Device\W25Q80/user_data.c **** 	memcpy(openInfo, data_temp+1, sizeof(open_door_t));
 1513              		.loc 1 656 0
 1514 0046 6B46     		mov	r3, sp
 1515 0048 1022     		mov	r2, #16
 1516 004a 591D     		add	r1, r3, #5
 1517 004c 281C     		mov	r0, r5
 1518 004e FFF7FEFF 		bl	memcpy
 1519              	.LVL140:
 657:Code\Device\W25Q80/user_data.c **** 	
 658:Code\Device\W25Q80/user_data.c **** 	Endpoint_exchange(openInfo->card_uid);									// A卡数据位置转换 @ 18-1-17			//
 1520              		.loc 1 658 0
 1521 0052 281C     		mov	r0, r5
 1522 0054 FFF7FEFF 		bl	Endpoint_exchange
 1523              	.LVL141:
 659:Code\Device\W25Q80/user_data.c **** }
 1524              		.loc 1 659 0
 1525 0058 06B0     		add	sp, sp, #24
 1526              		@ sp needed
 1527              	.LVL142:
 1528 005a 70BD     		pop	{r4, r5, r6, pc}
 1529              	.L74:
 1530              		.align	2
 1531              	.L73:
 1532 005c 88130000 		.word	5000
 1533 0060 012E0000 		.word	11777
 1534              		.cfi_endproc
 1535              	.LFE90:
 1536              		.size	Read_OpenInfo, .-Read_OpenInfo
 1537              		.section	.text.Find_Open_StartNum,"ax",%progbits
 1538              		.align	1
 1539              		.global	Find_Open_StartNum
 1540              		.code	16
 1541              		.thumb_func
 1542              		.type	Find_Open_StartNum, %function
 1543              	Find_Open_StartNum:
 1544              	.LFB91:
 660:Code\Device\W25Q80/user_data.c **** 
 661:Code\Device\W25Q80/user_data.c **** //*************************************************************************************************
 662:Code\Device\W25Q80/user_data.c **** // Function name	: Find_Open_StartNum
 663:Code\Device\W25Q80/user_data.c **** // Description		: 根据开始时间查找开始编号
 664:Code\Device\W25Q80/user_data.c **** // Parameter		: start_time
 665:Code\Device\W25Q80/user_data.c **** // Return			: 开门编号，找不到返回0xFFFF
 666:Code\Device\W25Q80/user_data.c **** //-------------------------------------------------------------------------------------------------
 667:Code\Device\W25Q80/user_data.c **** // Info				: 
 668:Code\Device\W25Q80/user_data.c **** //*************************************************************************************************
ARM GAS  C:\Users\Administrator\AppData\Local\Temp\ccShlVUx.s 			page 41


 669:Code\Device\W25Q80/user_data.c **** uint16 Find_Open_StartNum(uint32 start_time)
 670:Code\Device\W25Q80/user_data.c **** {
 1545              		.loc 1 670 0
 1546              		.cfi_startproc
 1547              	.LVL143:
 1548 0000 7FB5     		push	{r0, r1, r2, r3, r4, r5, r6, lr}
 1549              		.cfi_def_cfa_offset 32
 1550              		.cfi_offset 0, -32
 1551              		.cfi_offset 1, -28
 1552              		.cfi_offset 2, -24
 1553              		.cfi_offset 3, -20
 1554              		.cfi_offset 4, -16
 1555              		.cfi_offset 5, -12
 1556              		.cfi_offset 6, -8
 1557              		.cfi_offset 14, -4
 1558              		.loc 1 670 0
 1559 0002 061C     		mov	r6, r0
 671:Code\Device\W25Q80/user_data.c **** 	uint16 i, qty;
 672:Code\Device\W25Q80/user_data.c **** 	uint32 tmp1;
 673:Code\Device\W25Q80/user_data.c **** 	open_door_t openTmp;
 674:Code\Device\W25Q80/user_data.c ****     
 675:Code\Device\W25Q80/user_data.c **** 	qty = Read_Open_Qty();
 1560              		.loc 1 675 0
 1561 0004 FFF7FEFF 		bl	Read_Open_Qty
 1562              	.LVL144:
 1563 0008 051C     		mov	r5, r0
 1564              	.LVL145:
 676:Code\Device\W25Q80/user_data.c **** 	if (qty == 0)
 677:Code\Device\W25Q80/user_data.c **** 	{
 678:Code\Device\W25Q80/user_data.c **** 		return 0;
 1565              		.loc 1 678 0
 1566 000a 0020     		mov	r0, #0
 676:Code\Device\W25Q80/user_data.c **** 	if (qty == 0)
 1567              		.loc 1 676 0
 1568 000c 8542     		cmp	r5, r0
 1569 000e 39D0     		beq	.L76
 679:Code\Device\W25Q80/user_data.c **** 	}
 680:Code\Device\W25Q80/user_data.c **** 	else if (qty <= MAX_OPEN_NUM)
 1570              		.loc 1 680 0
 1571 0010 1D4B     		ldr	r3, .L87
 1572 0012 9D42     		cmp	r5, r3
 1573 0014 1AD8     		bhi	.L77
 1574 0016 041C     		mov	r4, r0
 1575              	.L78:
 1576              	.LVL146:
 681:Code\Device\W25Q80/user_data.c **** 	{
 682:Code\Device\W25Q80/user_data.c **** 		for (i = 0; i < qty; i++)
 683:Code\Device\W25Q80/user_data.c **** 		{
 684:Code\Device\W25Q80/user_data.c **** 			Read_OpenInfo(i, &openTmp);
 1577              		.loc 1 684 0
 1578 0018 201C     		mov	r0, r4
 1579 001a 6946     		mov	r1, sp
 1580 001c FFF7FEFF 		bl	Read_OpenInfo
 1581              	.LVL147:
 685:Code\Device\W25Q80/user_data.c **** 			tmp1 = BYTE2LONG(openTmp.open_time[0], openTmp.open_time[1],
 1582              		.loc 1 685 0
 1583 0020 6B46     		mov	r3, sp
ARM GAS  C:\Users\Administrator\AppData\Local\Temp\ccShlVUx.s 			page 42


 1584 0022 1B7A     		ldrb	r3, [r3, #8]
 1585 0024 1A06     		lsl	r2, r3, #24
 1586 0026 6B46     		mov	r3, sp
 1587 0028 5B7A     		ldrb	r3, [r3, #9]
 1588 002a 1B04     		lsl	r3, r3, #16
 1589 002c 1343     		orr	r3, r2
 1590 002e 6A46     		mov	r2, sp
 1591 0030 D27A     		ldrb	r2, [r2, #11]
 1592 0032 1343     		orr	r3, r2
 1593 0034 6A46     		mov	r2, sp
 1594 0036 927A     		ldrb	r2, [r2, #10]
 1595 0038 1202     		lsl	r2, r2, #8
 1596 003a 1343     		orr	r3, r2
 686:Code\Device\W25Q80/user_data.c **** 			                 openTmp.open_time[2], openTmp.open_time[3]);
 687:Code\Device\W25Q80/user_data.c **** 			if (tmp1 >= start_time)
 1597              		.loc 1 687 0
 1598 003c B342     		cmp	r3, r6
 1599 003e 20D2     		bcs	.L84
 682:Code\Device\W25Q80/user_data.c **** 		{
 1600              		.loc 1 682 0 discriminator 2
 1601 0040 0134     		add	r4, r4, #1
 1602              	.LVL148:
 1603 0042 A4B2     		uxth	r4, r4
 1604              	.LVL149:
 1605 0044 AC42     		cmp	r4, r5
 1606 0046 E7D1     		bne	.L78
 1607              	.LVL150:
 1608              	.L81:
 688:Code\Device\W25Q80/user_data.c **** 			{
 689:Code\Device\W25Q80/user_data.c **** 				return i;
 690:Code\Device\W25Q80/user_data.c **** 			}
 691:Code\Device\W25Q80/user_data.c **** 		}
 692:Code\Device\W25Q80/user_data.c **** 	}
 693:Code\Device\W25Q80/user_data.c **** 	else
 694:Code\Device\W25Q80/user_data.c **** 	{
 695:Code\Device\W25Q80/user_data.c **** 		for (i = qty - MAX_OPEN_NUM; i < qty; i++)
 696:Code\Device\W25Q80/user_data.c **** 		{
 697:Code\Device\W25Q80/user_data.c **** 			Read_OpenInfo(i, &openTmp);
 698:Code\Device\W25Q80/user_data.c **** 			tmp1 = BYTE2LONG(openTmp.open_time[0], openTmp.open_time[1],
 699:Code\Device\W25Q80/user_data.c **** 							 openTmp.open_time[2], openTmp.open_time[3]);
 700:Code\Device\W25Q80/user_data.c **** 			if (tmp1 >= start_time)
 701:Code\Device\W25Q80/user_data.c **** 			{
 702:Code\Device\W25Q80/user_data.c **** 				return i;
 703:Code\Device\W25Q80/user_data.c **** 			}
 704:Code\Device\W25Q80/user_data.c **** 		}
 705:Code\Device\W25Q80/user_data.c **** 	}
 706:Code\Device\W25Q80/user_data.c **** 	return 0xFFFF;
 1609              		.loc 1 706 0
 1610 0048 1048     		ldr	r0, .L87+4
 1611 004a 1BE0     		b	.L76
 1612              	.LVL151:
 1613              	.L77:
 695:Code\Device\W25Q80/user_data.c **** 		{
 1614              		.loc 1 695 0
 1615 004c 104B     		ldr	r3, .L87+8
 1616 004e EC18     		add	r4, r5, r3
 1617              	.L86:
ARM GAS  C:\Users\Administrator\AppData\Local\Temp\ccShlVUx.s 			page 43


 695:Code\Device\W25Q80/user_data.c **** 		{
 1618              		.loc 1 695 0 is_stmt 0 discriminator 2
 1619 0050 A4B2     		uxth	r4, r4
 1620              	.LVL152:
 1621 0052 AC42     		cmp	r4, r5
 1622 0054 F8D2     		bcs	.L81
 697:Code\Device\W25Q80/user_data.c **** 			tmp1 = BYTE2LONG(openTmp.open_time[0], openTmp.open_time[1],
 1623              		.loc 1 697 0 is_stmt 1
 1624 0056 201C     		mov	r0, r4
 1625 0058 6946     		mov	r1, sp
 1626 005a FFF7FEFF 		bl	Read_OpenInfo
 1627              	.LVL153:
 698:Code\Device\W25Q80/user_data.c **** 							 openTmp.open_time[2], openTmp.open_time[3]);
 1628              		.loc 1 698 0
 1629 005e 6B46     		mov	r3, sp
 1630 0060 1B7A     		ldrb	r3, [r3, #8]
 1631 0062 1A06     		lsl	r2, r3, #24
 1632 0064 6B46     		mov	r3, sp
 1633 0066 5B7A     		ldrb	r3, [r3, #9]
 1634 0068 1B04     		lsl	r3, r3, #16
 1635 006a 1343     		orr	r3, r2
 1636 006c 6A46     		mov	r2, sp
 1637 006e D27A     		ldrb	r2, [r2, #11]
 1638 0070 1343     		orr	r3, r2
 1639 0072 6A46     		mov	r2, sp
 1640 0074 927A     		ldrb	r2, [r2, #10]
 1641 0076 1202     		lsl	r2, r2, #8
 1642 0078 1343     		orr	r3, r2
 700:Code\Device\W25Q80/user_data.c **** 			{
 1643              		.loc 1 700 0
 1644 007a B342     		cmp	r3, r6
 1645 007c 01D2     		bcs	.L84
 695:Code\Device\W25Q80/user_data.c **** 		{
 1646              		.loc 1 695 0 discriminator 2
 1647 007e 0134     		add	r4, r4, #1
 1648              	.LVL154:
 1649 0080 E6E7     		b	.L86
 1650              	.LVL155:
 1651              	.L84:
 1652 0082 201C     		mov	r0, r4
 1653              	.LVL156:
 1654              	.L76:
 707:Code\Device\W25Q80/user_data.c **** }
 1655              		.loc 1 707 0
 1656 0084 04B0     		add	sp, sp, #16
 1657              		@ sp needed
 1658              	.LVL157:
 1659              	.LVL158:
 1660 0086 70BD     		pop	{r4, r5, r6, pc}
 1661              	.L88:
 1662              		.align	2
 1663              	.L87:
 1664 0088 88130000 		.word	5000
 1665 008c FFFF0000 		.word	65535
 1666 0090 78ECFFFF 		.word	-5000
 1667              		.cfi_endproc
 1668              	.LFE91:
ARM GAS  C:\Users\Administrator\AppData\Local\Temp\ccShlVUx.s 			page 44


 1669              		.size	Find_Open_StartNum, .-Find_Open_StartNum
 1670              		.section	.text.Find_Open_EndNum,"ax",%progbits
 1671              		.align	1
 1672              		.global	Find_Open_EndNum
 1673              		.code	16
 1674              		.thumb_func
 1675              		.type	Find_Open_EndNum, %function
 1676              	Find_Open_EndNum:
 1677              	.LFB92:
 708:Code\Device\W25Q80/user_data.c **** 
 709:Code\Device\W25Q80/user_data.c **** //*************************************************************************************************
 710:Code\Device\W25Q80/user_data.c **** // Function name	: Find_Open_StartNum
 711:Code\Device\W25Q80/user_data.c **** // Description		: 根据结束时间查找结束编号
 712:Code\Device\W25Q80/user_data.c **** // Parameter		: end_time
 713:Code\Device\W25Q80/user_data.c **** // Return			: 开门编号，找不到返回0xFFFF
 714:Code\Device\W25Q80/user_data.c **** //-------------------------------------------------------------------------------------------------
 715:Code\Device\W25Q80/user_data.c **** // Info				: 
 716:Code\Device\W25Q80/user_data.c **** //*************************************************************************************************
 717:Code\Device\W25Q80/user_data.c **** uint16 Find_Open_EndNum(uint32 end_time)
 718:Code\Device\W25Q80/user_data.c **** {
 1678              		.loc 1 718 0
 1679              		.cfi_startproc
 1680              	.LVL159:
 1681 0000 7FB5     		push	{r0, r1, r2, r3, r4, r5, r6, lr}
 1682              		.cfi_def_cfa_offset 32
 1683              		.cfi_offset 0, -32
 1684              		.cfi_offset 1, -28
 1685              		.cfi_offset 2, -24
 1686              		.cfi_offset 3, -20
 1687              		.cfi_offset 4, -16
 1688              		.cfi_offset 5, -12
 1689              		.cfi_offset 6, -8
 1690              		.cfi_offset 14, -4
 1691              		.loc 1 718 0
 1692 0002 051C     		mov	r5, r0
 719:Code\Device\W25Q80/user_data.c **** 	uint16 i, qty;
 720:Code\Device\W25Q80/user_data.c **** 	uint32 tmp1;
 721:Code\Device\W25Q80/user_data.c **** 	open_door_t openTmp;
 722:Code\Device\W25Q80/user_data.c **** 
 723:Code\Device\W25Q80/user_data.c **** 	qty = Read_Open_Qty();
 1693              		.loc 1 723 0
 1694 0004 FFF7FEFF 		bl	Read_Open_Qty
 1695              	.LVL160:
 1696 0008 061C     		mov	r6, r0
 1697              	.LVL161:
 724:Code\Device\W25Q80/user_data.c **** 	if (qty == 0)
 725:Code\Device\W25Q80/user_data.c **** 	{
 726:Code\Device\W25Q80/user_data.c **** 		return 0;
 1698              		.loc 1 726 0
 1699 000a 0020     		mov	r0, #0
 724:Code\Device\W25Q80/user_data.c **** 	if (qty == 0)
 1700              		.loc 1 724 0
 1701 000c 8642     		cmp	r6, r0
 1702 000e 38D0     		beq	.L90
 727:Code\Device\W25Q80/user_data.c **** 	}
 728:Code\Device\W25Q80/user_data.c **** 	else if (qty <= MAX_OPEN_NUM)
 1703              		.loc 1 728 0
ARM GAS  C:\Users\Administrator\AppData\Local\Temp\ccShlVUx.s 			page 45


 1704 0010 1D4B     		ldr	r3, .L99
 1705 0012 741E     		sub	r4, r6, #1
 729:Code\Device\W25Q80/user_data.c **** 	{
 730:Code\Device\W25Q80/user_data.c **** 		for (i = qty -1; i >= 0; i--)
 1706              		.loc 1 730 0
 1707 0014 A4B2     		uxth	r4, r4
 728:Code\Device\W25Q80/user_data.c **** 	{
 1708              		.loc 1 728 0
 1709 0016 9E42     		cmp	r6, r3
 1710 0018 2CD8     		bhi	.L93
 1711              	.L92:
 1712              	.LVL162:
 731:Code\Device\W25Q80/user_data.c **** 		{
 732:Code\Device\W25Q80/user_data.c **** 			Read_OpenInfo(i, &openTmp);
 1713              		.loc 1 732 0
 1714 001a 201C     		mov	r0, r4
 1715 001c 6946     		mov	r1, sp
 1716 001e FFF7FEFF 		bl	Read_OpenInfo
 1717              	.LVL163:
 733:Code\Device\W25Q80/user_data.c **** 			tmp1 = BYTE2LONG(openTmp.open_time[0], openTmp.open_time[1],
 1718              		.loc 1 733 0
 1719 0022 6B46     		mov	r3, sp
 1720 0024 1B7A     		ldrb	r3, [r3, #8]
 1721 0026 1A06     		lsl	r2, r3, #24
 1722 0028 6B46     		mov	r3, sp
 1723 002a 5B7A     		ldrb	r3, [r3, #9]
 1724 002c 1B04     		lsl	r3, r3, #16
 1725 002e 1343     		orr	r3, r2
 1726 0030 6A46     		mov	r2, sp
 1727 0032 D27A     		ldrb	r2, [r2, #11]
 1728 0034 1343     		orr	r3, r2
 1729 0036 6A46     		mov	r2, sp
 1730 0038 927A     		ldrb	r2, [r2, #10]
 1731 003a 1202     		lsl	r2, r2, #8
 1732 003c 1343     		orr	r3, r2
 734:Code\Device\W25Q80/user_data.c **** 							 openTmp.open_time[2], openTmp.open_time[3]);
 735:Code\Device\W25Q80/user_data.c **** 			if (tmp1 <= end_time)
 1733              		.loc 1 735 0
 1734 003e AB42     		cmp	r3, r5
 1735 0040 1ED9     		bls	.L97
 730:Code\Device\W25Q80/user_data.c **** 		{
 1736              		.loc 1 730 0
 1737 0042 013C     		sub	r4, r4, #1
 1738              	.LVL164:
 1739 0044 A4B2     		uxth	r4, r4
 1740              	.LVL165:
 736:Code\Device\W25Q80/user_data.c **** 			{
 737:Code\Device\W25Q80/user_data.c **** 				return i;
 738:Code\Device\W25Q80/user_data.c **** 			}
 739:Code\Device\W25Q80/user_data.c **** 		}
 1741              		.loc 1 739 0
 1742 0046 E8E7     		b	.L92
 1743              	.LVL166:
 1744              	.L94:
 740:Code\Device\W25Q80/user_data.c **** 	}
 741:Code\Device\W25Q80/user_data.c **** 	else
 742:Code\Device\W25Q80/user_data.c **** 	{
ARM GAS  C:\Users\Administrator\AppData\Local\Temp\ccShlVUx.s 			page 46


 743:Code\Device\W25Q80/user_data.c **** 		for (i = qty - 1; i >= qty - MAX_OPEN_NUM; i--)
 744:Code\Device\W25Q80/user_data.c **** 		{
 745:Code\Device\W25Q80/user_data.c **** 			Read_OpenInfo(i, &openTmp);
 1745              		.loc 1 745 0
 1746 0048 201C     		mov	r0, r4
 1747 004a 6946     		mov	r1, sp
 1748 004c FFF7FEFF 		bl	Read_OpenInfo
 1749              	.LVL167:
 746:Code\Device\W25Q80/user_data.c **** 			tmp1 = BYTE2LONG(openTmp.open_time[0], openTmp.open_time[1],
 1750              		.loc 1 746 0
 1751 0050 6B46     		mov	r3, sp
 1752 0052 1B7A     		ldrb	r3, [r3, #8]
 1753 0054 1A06     		lsl	r2, r3, #24
 1754 0056 6B46     		mov	r3, sp
 1755 0058 5B7A     		ldrb	r3, [r3, #9]
 1756 005a 1B04     		lsl	r3, r3, #16
 1757 005c 1343     		orr	r3, r2
 1758 005e 6A46     		mov	r2, sp
 1759 0060 D27A     		ldrb	r2, [r2, #11]
 1760 0062 1343     		orr	r3, r2
 1761 0064 6A46     		mov	r2, sp
 1762 0066 927A     		ldrb	r2, [r2, #10]
 1763 0068 1202     		lsl	r2, r2, #8
 1764 006a 1343     		orr	r3, r2
 747:Code\Device\W25Q80/user_data.c **** 							 openTmp.open_time[2], openTmp.open_time[3]);
 748:Code\Device\W25Q80/user_data.c **** 			if (tmp1 <= end_time)
 1765              		.loc 1 748 0
 1766 006c AB42     		cmp	r3, r5
 1767 006e 07D9     		bls	.L97
 743:Code\Device\W25Q80/user_data.c **** 		{
 1768              		.loc 1 743 0 discriminator 2
 1769 0070 013C     		sub	r4, r4, #1
 1770              	.LVL168:
 1771 0072 A4B2     		uxth	r4, r4
 1772              	.LVL169:
 1773              	.L93:
 743:Code\Device\W25Q80/user_data.c **** 		{
 1774              		.loc 1 743 0 is_stmt 0 discriminator 1
 1775 0074 054B     		ldr	r3, .L99+4
 1776 0076 F318     		add	r3, r6, r3
 1777 0078 9C42     		cmp	r4, r3
 1778 007a E5DA     		bge	.L94
 749:Code\Device\W25Q80/user_data.c **** 			{
 750:Code\Device\W25Q80/user_data.c **** 				return i;
 751:Code\Device\W25Q80/user_data.c **** 			}
 752:Code\Device\W25Q80/user_data.c **** 		}
 753:Code\Device\W25Q80/user_data.c **** 	}
 754:Code\Device\W25Q80/user_data.c **** 	return 0xFFFF;
 1779              		.loc 1 754 0 is_stmt 1
 1780 007c 0448     		ldr	r0, .L99+8
 1781 007e 00E0     		b	.L90
 1782              	.L97:
 750:Code\Device\W25Q80/user_data.c **** 			}
 1783              		.loc 1 750 0
 1784 0080 201C     		mov	r0, r4
 1785              	.LVL170:
 1786              	.L90:
ARM GAS  C:\Users\Administrator\AppData\Local\Temp\ccShlVUx.s 			page 47


 755:Code\Device\W25Q80/user_data.c **** }
 1787              		.loc 1 755 0
 1788 0082 04B0     		add	sp, sp, #16
 1789              		@ sp needed
 1790              	.LVL171:
 1791              	.LVL172:
 1792 0084 70BD     		pop	{r4, r5, r6, pc}
 1793              	.L100:
 1794 0086 C046     		.align	2
 1795              	.L99:
 1796 0088 88130000 		.word	5000
 1797 008c 78ECFFFF 		.word	-5000
 1798 0090 FFFF0000 		.word	65535
 1799              		.cfi_endproc
 1800              	.LFE92:
 1801              		.size	Find_Open_EndNum, .-Find_Open_EndNum
 1802              		.section	.text.Find_Open_ValidQty,"ax",%progbits
 1803              		.align	1
 1804              		.global	Find_Open_ValidQty
 1805              		.code	16
 1806              		.thumb_func
 1807              		.type	Find_Open_ValidQty, %function
 1808              	Find_Open_ValidQty:
 1809              	.LFB93:
 756:Code\Device\W25Q80/user_data.c **** 
 757:Code\Device\W25Q80/user_data.c **** //*************************************************************************************************
 758:Code\Device\W25Q80/user_data.c **** // Function name	: Find_Open_ValidQty
 759:Code\Device\W25Q80/user_data.c **** // Description		: 根据开始时间、结束时间计算需回传的开门总数
 760:Code\Device\W25Q80/user_data.c **** // Parameter		: start_time, end_time
 761:Code\Device\W25Q80/user_data.c **** // Return			: none
 762:Code\Device\W25Q80/user_data.c **** //-------------------------------------------------------------------------------------------------
 763:Code\Device\W25Q80/user_data.c **** // Info				: 
 764:Code\Device\W25Q80/user_data.c **** //*************************************************************************************************
 765:Code\Device\W25Q80/user_data.c **** uint16 Find_Open_ValidQty(uint32 start_time, uint32 end_time)
 766:Code\Device\W25Q80/user_data.c **** {
 1810              		.loc 1 766 0
 1811              		.cfi_startproc
 1812              	.LVL173:
 1813 0000 70B5     		push	{r4, r5, r6, lr}
 1814              		.cfi_def_cfa_offset 16
 1815              		.cfi_offset 4, -16
 1816              		.cfi_offset 5, -12
 1817              		.cfi_offset 6, -8
 1818              		.cfi_offset 14, -4
 1819              		.loc 1 766 0
 1820 0002 051C     		mov	r5, r0
 1821 0004 0E1C     		mov	r6, r1
 767:Code\Device\W25Q80/user_data.c **** 	uint16 start_num, end_num, allqty;
 768:Code\Device\W25Q80/user_data.c **** 
 769:Code\Device\W25Q80/user_data.c **** 	allqty = Read_Open_Qty();
 1822              		.loc 1 769 0
 1823 0006 FFF7FEFF 		bl	Read_Open_Qty
 1824              	.LVL174:
 1825 000a 041E     		sub	r4, r0, #0
 1826              	.LVL175:
 770:Code\Device\W25Q80/user_data.c **** 	if (allqty == 0)
 1827              		.loc 1 770 0
ARM GAS  C:\Users\Administrator\AppData\Local\Temp\ccShlVUx.s 			page 48


 1828 000c 01D1     		bne	.L102
 1829              	.LVL176:
 1830              	.L104:
 771:Code\Device\W25Q80/user_data.c **** 	{
 772:Code\Device\W25Q80/user_data.c **** 		return 0;
 1831              		.loc 1 772 0
 1832 000e 0020     		mov	r0, #0
 1833 0010 10E0     		b	.L103
 1834              	.LVL177:
 1835              	.L102:
 773:Code\Device\W25Q80/user_data.c **** 	}
 774:Code\Device\W25Q80/user_data.c **** 	start_num = Find_Open_StartNum(start_time);
 1836              		.loc 1 774 0
 1837 0012 281C     		mov	r0, r5
 1838              	.LVL178:
 1839 0014 FFF7FEFF 		bl	Find_Open_StartNum
 1840              	.LVL179:
 1841 0018 051C     		mov	r5, r0
 1842              	.LVL180:
 775:Code\Device\W25Q80/user_data.c **** 	end_num = Find_Open_EndNum(end_time);
 1843              		.loc 1 775 0
 1844 001a 301C     		mov	r0, r6
 1845 001c FFF7FEFF 		bl	Find_Open_EndNum
 1846              	.LVL181:
 776:Code\Device\W25Q80/user_data.c **** 	if (start_num == 0xFFFF)
 1847              		.loc 1 776 0
 1848 0020 054B     		ldr	r3, .L107
 1849 0022 9D42     		cmp	r5, r3
 1850 0024 F3D0     		beq	.L104
 777:Code\Device\W25Q80/user_data.c **** 	{
 778:Code\Device\W25Q80/user_data.c **** 		return 0;
 779:Code\Device\W25Q80/user_data.c **** 	}
 780:Code\Device\W25Q80/user_data.c **** 	else
 781:Code\Device\W25Q80/user_data.c **** 	{
 782:Code\Device\W25Q80/user_data.c **** 		if (end_num == 0xFFFF)
 1851              		.loc 1 782 0
 1852 0026 9842     		cmp	r0, r3
 1853 0028 01D1     		bne	.L105
 783:Code\Device\W25Q80/user_data.c **** 		{
 784:Code\Device\W25Q80/user_data.c **** 			return (allqty - start_num);
 1854              		.loc 1 784 0
 1855 002a 601B     		sub	r0, r4, r5
 1856              	.LVL182:
 1857 002c 01E0     		b	.L106
 1858              	.LVL183:
 1859              	.L105:
 1860 002e 0130     		add	r0, r0, #1
 1861              	.LVL184:
 785:Code\Device\W25Q80/user_data.c **** 		}
 786:Code\Device\W25Q80/user_data.c **** 		else
 787:Code\Device\W25Q80/user_data.c **** 		{
 788:Code\Device\W25Q80/user_data.c **** 			return (end_num - start_num + 1);
 1862              		.loc 1 788 0
 1863 0030 401B     		sub	r0, r0, r5
 1864              	.L106:
 1865 0032 80B2     		uxth	r0, r0
 1866              	.LVL185:
ARM GAS  C:\Users\Administrator\AppData\Local\Temp\ccShlVUx.s 			page 49


 1867              	.L103:
 789:Code\Device\W25Q80/user_data.c **** 		}
 790:Code\Device\W25Q80/user_data.c **** 	}
 791:Code\Device\W25Q80/user_data.c **** }
 1868              		.loc 1 791 0
 1869              		@ sp needed
 1870              	.LVL186:
 1871 0034 70BD     		pop	{r4, r5, r6, pc}
 1872              	.L108:
 1873 0036 C046     		.align	2
 1874              	.L107:
 1875 0038 FFFF0000 		.word	65535
 1876              		.cfi_endproc
 1877              	.LFE93:
 1878              		.size	Find_Open_ValidQty, .-Find_Open_ValidQty
 1879              		.section	.text.Get_Open_Info,"ax",%progbits
 1880              		.align	1
 1881              		.global	Get_Open_Info
 1882              		.code	16
 1883              		.thumb_func
 1884              		.type	Get_Open_Info, %function
 1885              	Get_Open_Info:
 1886              	.LFB94:
 792:Code\Device\W25Q80/user_data.c **** 
 793:Code\Device\W25Q80/user_data.c **** //*************************************************************************************************
 794:Code\Device\W25Q80/user_data.c **** // Function name	: Get_Open_Info
 795:Code\Device\W25Q80/user_data.c **** // Description		: 根据开始编号、数量来提取开门记录信息
 796:Code\Device\W25Q80/user_data.c **** // Parameter		: start_num, qty , *data
 797:Code\Device\W25Q80/user_data.c **** // Return			: none
 798:Code\Device\W25Q80/user_data.c **** //-------------------------------------------------------------------------------------------------
 799:Code\Device\W25Q80/user_data.c **** // Info				: 
 800:Code\Device\W25Q80/user_data.c **** //*************************************************************************************************
 801:Code\Device\W25Q80/user_data.c **** void Get_Open_Info(uint16 start_num, uint16 qty, uint8 *data)
 802:Code\Device\W25Q80/user_data.c **** {
 1887              		.loc 1 802 0
 1888              		.cfi_startproc
 1889              	.LVL187:
 1890 0000 F8B5     		push	{r3, r4, r5, r6, r7, lr}
 1891              		.cfi_def_cfa_offset 24
 1892              		.cfi_offset 3, -24
 1893              		.cfi_offset 4, -20
 1894              		.cfi_offset 5, -16
 1895              		.cfi_offset 6, -12
 1896              		.cfi_offset 7, -8
 1897              		.cfi_offset 14, -4
 1898              		.loc 1 802 0
 1899 0002 051C     		mov	r5, r0
 1900              	.LVL188:
 1901 0004 0E1C     		mov	r6, r1
 1902 0006 171C     		mov	r7, r2
 803:Code\Device\W25Q80/user_data.c **** 	uint16 i, offset = 0;
 804:Code\Device\W25Q80/user_data.c **** 	
 805:Code\Device\W25Q80/user_data.c **** 	for (i = start_num; i < start_num + qty; i++)
 1903              		.loc 1 805 0
 1904 0008 0024     		mov	r4, #0
 1905              	.LVL189:
 1906              	.L110:
ARM GAS  C:\Users\Administrator\AppData\Local\Temp\ccShlVUx.s 			page 50


 1907 000a A0B2     		uxth	r0, r4
 1908 000c 0101     		lsl	r1, r0, #4
 1909 000e 4019     		add	r0, r0, r5
 1910 0010 80B2     		uxth	r0, r0
 1911              		.loc 1 805 0 is_stmt 0 discriminator 1
 1912 0012 AB19     		add	r3, r5, r6
 1913 0014 89B2     		uxth	r1, r1
 1914              	.LVL190:
 1915 0016 0134     		add	r4, r4, #1
 1916 0018 9842     		cmp	r0, r3
 1917 001a 03DA     		bge	.L112
 806:Code\Device\W25Q80/user_data.c **** 	{
 807:Code\Device\W25Q80/user_data.c **** 		Read_OpenInfo(i, (open_door_t *)(data + offset));
 1918              		.loc 1 807 0 is_stmt 1 discriminator 3
 1919 001c 7918     		add	r1, r7, r1
 1920              	.LVL191:
 1921 001e FFF7FEFF 		bl	Read_OpenInfo
 1922              	.LVL192:
 1923 0022 F2E7     		b	.L110
 1924              	.LVL193:
 1925              	.L112:
 808:Code\Device\W25Q80/user_data.c **** 		offset += sizeof(open_door_t);
 809:Code\Device\W25Q80/user_data.c **** 	}
 810:Code\Device\W25Q80/user_data.c **** }
 1926              		.loc 1 810 0
 1927              		@ sp needed
 1928              	.LVL194:
 1929 0024 F8BD     		pop	{r3, r4, r5, r6, r7, pc}
 1930              		.cfi_endproc
 1931              	.LFE94:
 1932              		.size	Get_Open_Info, .-Get_Open_Info
 1933              		.section	.text.FindAndSet_UploadTime_UploadFlag,"ax",%progbits
 1934              		.align	1
 1935              		.global	FindAndSet_UploadTime_UploadFlag
 1936              		.code	16
 1937              		.thumb_func
 1938              		.type	FindAndSet_UploadTime_UploadFlag, %function
 1939              	FindAndSet_UploadTime_UploadFlag:
 1940              	.LFB95:
 811:Code\Device\W25Q80/user_data.c **** 
 812:Code\Device\W25Q80/user_data.c **** //*************************************************************************************************
 813:Code\Device\W25Q80/user_data.c **** // Function name	: FindAndSet_UploadTime_UploadFlag
 814:Code\Device\W25Q80/user_data.c **** // Description		: 根据时间查找开门记录，并更新上报时间及上报成功标志
 815:Code\Device\W25Q80/user_data.c **** // Parameter		: open_time	: 开门时间
 816:Code\Device\W25Q80/user_data.c **** //					: utc_time	: 时间戳
 817:Code\Device\W25Q80/user_data.c **** // Return			: none
 818:Code\Device\W25Q80/user_data.c **** //-------------------------------------------------------------------------------------------------
 819:Code\Device\W25Q80/user_data.c **** // Info				: 
 820:Code\Device\W25Q80/user_data.c **** //*************************************************************************************************
 821:Code\Device\W25Q80/user_data.c **** void FindAndSet_UploadTime_UploadFlag(uint8 *open_time, uint8 *utc_time)
 822:Code\Device\W25Q80/user_data.c **** {
 1941              		.loc 1 822 0
 1942              		.cfi_startproc
 1943              	.LVL195:
 1944 0000 F0B5     		push	{r4, r5, r6, r7, lr}
 1945              		.cfi_def_cfa_offset 20
 1946              		.cfi_offset 4, -20
ARM GAS  C:\Users\Administrator\AppData\Local\Temp\ccShlVUx.s 			page 51


 1947              		.cfi_offset 5, -16
 1948              		.cfi_offset 6, -12
 1949              		.cfi_offset 7, -8
 1950              		.cfi_offset 14, -4
 1951 0002 041C     		mov	r4, r0
 1952 0004 93B0     		sub	sp, sp, #76
 1953              		.cfi_def_cfa_offset 96
 1954              		.loc 1 822 0
 1955 0006 0791     		str	r1, [sp, #28]
 823:Code\Device\W25Q80/user_data.c **** 	uint16_t i, OpenQty;
 824:Code\Device\W25Q80/user_data.c **** 	open_door_t OpenInfo;
 825:Code\Device\W25Q80/user_data.c **** 	uint32 open_time_utc;
 826:Code\Device\W25Q80/user_data.c **** 	uint32 open_time_flash;
 827:Code\Device\W25Q80/user_data.c **** 	uint8 opendate_tmp[17] = {0};
 1956              		.loc 1 827 0
 1957 0008 1122     		mov	r2, #17
 1958 000a 0021     		mov	r1, #0
 1959              	.LVL196:
 1960 000c 0DA8     		add	r0, sp, #52
 1961              	.LVL197:
 1962 000e FFF7FEFF 		bl	memset
 1963              	.LVL198:
 828:Code\Device\W25Q80/user_data.c **** 	uint32 readoff = 0;
 829:Code\Device\W25Q80/user_data.c **** 	
 830:Code\Device\W25Q80/user_data.c **** 	open_time_utc = BYTE2LONG(open_time[0], open_time[1], open_time[2], open_time[3]);
 1964              		.loc 1 830 0
 1965 0012 2378     		ldrb	r3, [r4]
 1966 0014 1A06     		lsl	r2, r3, #24
 1967 0016 6378     		ldrb	r3, [r4, #1]
 1968 0018 1B04     		lsl	r3, r3, #16
 1969 001a 1343     		orr	r3, r2
 1970 001c E278     		ldrb	r2, [r4, #3]
 1971 001e 1343     		orr	r3, r2
 1972 0020 A278     		ldrb	r2, [r4, #2]
 1973 0022 1202     		lsl	r2, r2, #8
 1974 0024 1343     		orr	r3, r2
 1975 0026 0193     		str	r3, [sp, #4]
 1976              	.LVL199:
 831:Code\Device\W25Q80/user_data.c **** 	OpenQty = Read_Open_Qty();
 1977              		.loc 1 831 0
 1978 0028 FFF7FEFF 		bl	Read_Open_Qty
 1979              	.LVL200:
 832:Code\Device\W25Q80/user_data.c **** 	//OpenQty %= MAX_OPEN_NUM;
 833:Code\Device\W25Q80/user_data.c **** 	if (OpenQty <= MAX_OPEN_NUM)
 1980              		.loc 1 833 0
 1981 002c 6F4B     		ldr	r3, .L130
 831:Code\Device\W25Q80/user_data.c **** 	OpenQty = Read_Open_Qty();
 1982              		.loc 1 831 0
 1983 002e 071C     		mov	r7, r0
 1984              	.LVL201:
 1985 0030 0138     		sub	r0, r0, #1
 1986              	.LVL202:
 834:Code\Device\W25Q80/user_data.c **** 	{
 835:Code\Device\W25Q80/user_data.c **** 		for (i = OpenQty - 1; i >= 0; i--)
 1987              		.loc 1 835 0
 1988 0032 80B2     		uxth	r0, r0
 833:Code\Device\W25Q80/user_data.c **** 	{
ARM GAS  C:\Users\Administrator\AppData\Local\Temp\ccShlVUx.s 			page 52


 1989              		.loc 1 833 0
 1990 0034 9F42     		cmp	r7, r3
 1991 0036 00D9     		bls	.LCB1751
 1992 0038 C6E0     		b	.L121	@long jump
 1993              	.LCB1751:
 1994              	.LVL203:
 1995              	.L120:
 836:Code\Device\W25Q80/user_data.c **** 		{
 837:Code\Device\W25Q80/user_data.c **** 			i %= MAX_OPEN_NUM;
 838:Code\Device\W25Q80/user_data.c **** 			readoff = i * (1 + sizeof(open_door_t));
 1996              		.loc 1 838 0
 1997 003a 1126     		mov	r6, #17
 837:Code\Device\W25Q80/user_data.c **** 			readoff = i * (1 + sizeof(open_door_t));
 1998              		.loc 1 837 0
 1999 003c 6B49     		ldr	r1, .L130
 2000 003e FFF7FEFF 		bl	__aeabi_uidivmod
 2001              	.LVL204:
 2002              		.loc 1 838 0
 2003 0042 351C     		mov	r5, r6
 837:Code\Device\W25Q80/user_data.c **** 			readoff = i * (1 + sizeof(open_door_t));
 2004              		.loc 1 837 0
 2005 0044 8FB2     		uxth	r7, r1
 2006              	.LVL205:
 2007              		.loc 1 838 0
 2008 0046 7D43     		mul	r5, r7
 2009              	.LVL206:
 839:Code\Device\W25Q80/user_data.c **** 			if((readoff % 0xff) == 0)
 2010              		.loc 1 839 0
 2011 0048 FF21     		mov	r1, #255
 2012 004a 281C     		mov	r0, r5
 2013 004c FFF7FEFF 		bl	__aeabi_uidivmod
 2014              	.LVL207:
 2015 0050 0DAC     		add	r4, sp, #52
 2016 0052 0029     		cmp	r1, #0
 2017 0054 07D1     		bne	.L115
 2018              	.LVL208:
 840:Code\Device\W25Q80/user_data.c **** 			{
 841:Code\Device\W25Q80/user_data.c **** 				readoff += 1;
 842:Code\Device\W25Q80/user_data.c **** 				W25QXX_Read((uint8 *)opendate_tmp+1, OPEN_INFO_BASE + (readoff), (sizeof(open_door_t)));
 2019              		.loc 1 842 0
 2020 0056 1523     		mov	r3, #21
 2021 0058 08AA     		add	r2, sp, #32
 2022 005a 9B18     		add	r3, r3, r2
 2023 005c 181C     		mov	r0, r3
 2024 005e 644B     		ldr	r3, .L130+4
 2025 0060 1022     		mov	r2, #16
 2026 0062 E918     		add	r1, r5, r3
 2027 0064 04E0     		b	.L128
 2028              	.LVL209:
 2029              	.L115:
 843:Code\Device\W25Q80/user_data.c **** 			}
 844:Code\Device\W25Q80/user_data.c **** 			else
 845:Code\Device\W25Q80/user_data.c **** 			{
 846:Code\Device\W25Q80/user_data.c **** 				W25QXX_Read((uint8 *)opendate_tmp, OPEN_INFO_BASE + (readoff), (sizeof(open_door_t) + 1));
 2030              		.loc 1 846 0
 2031 0066 B823     		mov	r3, #184
 2032 0068 201C     		mov	r0, r4
ARM GAS  C:\Users\Administrator\AppData\Local\Temp\ccShlVUx.s 			page 53


 2033 006a 321C     		mov	r2, r6
 2034 006c 9B01     		lsl	r3, r3, #6
 2035 006e E918     		add	r1, r5, r3
 2036              	.LVL210:
 2037              	.L128:
 2038 0070 FFF7FEFF 		bl	W25QXX_Read
 2039              	.LVL211:
 847:Code\Device\W25Q80/user_data.c **** 			}
 848:Code\Device\W25Q80/user_data.c **** 			memcpy((uint8 *)&OpenInfo, opendate_tmp+1, 16);
 2040              		.loc 1 848 0
 2041 0074 1523     		mov	r3, #21
 2042 0076 08AA     		add	r2, sp, #32
 2043 0078 9B18     		add	r3, r3, r2
 2044 007a 09AE     		add	r6, sp, #36
 2045 007c 191C     		mov	r1, r3
 2046 007e 1022     		mov	r2, #16
 2047 0080 301C     		mov	r0, r6
 2048 0082 FFF7FEFF 		bl	memcpy
 2049              	.LVL212:
 2050 0086 637A     		ldrb	r3, [r4, #9]
 2051 0088 0393     		str	r3, [sp, #12]
 2052              	.LVL213:
 2053 008a A37A     		ldrb	r3, [r4, #10]
 2054 008c 0493     		str	r3, [sp, #16]
 2055              	.LVL214:
 2056 008e E37A     		ldrb	r3, [r4, #11]
 2057 0090 0293     		str	r3, [sp, #8]
 2058              	.LVL215:
 2059 0092 237B     		ldrb	r3, [r4, #12]
 2060 0094 0593     		str	r3, [sp, #20]
 2061              	.LVL216:
 849:Code\Device\W25Q80/user_data.c **** 			//DBG_SOFT_PutStr("\n ret_code = 1, find sendtime @ i:");
 850:Code\Device\W25Q80/user_data.c **** 			//DBG_SOFT_PrintfHex(&i,1,1);	
 851:Code\Device\W25Q80/user_data.c **** 			//DBG_SOFT_PrintfHex(opendate_tmp,16,16);		
 852:Code\Device\W25Q80/user_data.c **** 			
 853:Code\Device\W25Q80/user_data.c **** 			//Read_OpenInfo(i,&OpenInfo);
 854:Code\Device\W25Q80/user_data.c **** 			open_time_flash = BYTE2LONG(OpenInfo.open_time[0], OpenInfo.open_time[1],
 2062              		.loc 1 854 0
 2063 0096 039B     		ldr	r3, [sp, #12]
 2064 0098 1A06     		lsl	r2, r3, #24
 2065 009a 049B     		ldr	r3, [sp, #16]
 2066 009c 1B04     		lsl	r3, r3, #16
 2067 009e 1343     		orr	r3, r2
 2068 00a0 059A     		ldr	r2, [sp, #20]
 2069 00a2 1343     		orr	r3, r2
 2070 00a4 029A     		ldr	r2, [sp, #8]
 2071 00a6 1202     		lsl	r2, r2, #8
 2072 00a8 1343     		orr	r3, r2
 2073              	.LVL217:
 855:Code\Device\W25Q80/user_data.c **** 							 			OpenInfo.open_time[2], OpenInfo.open_time[3]);
 856:Code\Device\W25Q80/user_data.c **** 			//DBG_SOFT_PutStr("\nopen_time_flash :");
 857:Code\Device\W25Q80/user_data.c **** 			//DBG_SOFT_PutHexInt(open_time_flash);
 858:Code\Device\W25Q80/user_data.c **** 			if (open_time_flash == open_time_utc)
 2074              		.loc 1 858 0
 2075 00aa 019A     		ldr	r2, [sp, #4]
 2076 00ac 9342     		cmp	r3, r2
 2077 00ae 26D1     		bne	.L117
ARM GAS  C:\Users\Administrator\AppData\Local\Temp\ccShlVUx.s 			page 54


 859:Code\Device\W25Q80/user_data.c **** 			{
 860:Code\Device\W25Q80/user_data.c **** 				DBG_SOFT_PutStr("\n===>back upload open date :<===\n");
 861:Code\Device\W25Q80/user_data.c **** 				memcpy(OpenInfo.send_time, utc_time, TIME_LEN);
 2078              		.loc 1 861 0
 2079 00b0 0799     		ldr	r1, [sp, #28]
 2080 00b2 0CA8     		add	r0, sp, #48
 2081 00b4 0422     		mov	r2, #4
 2082 00b6 FFF7FEFF 		bl	memcpy
 2083              	.LVL218:
 862:Code\Device\W25Q80/user_data.c **** 				opendate_tmp[0] = 0x01;
 2084              		.loc 1 862 0
 2085 00ba 0123     		mov	r3, #1
 2086 00bc 2370     		strb	r3, [r4]
 863:Code\Device\W25Q80/user_data.c **** 				memcpy(opendate_tmp+1,(uint8 *)&OpenInfo,16);
 2087              		.loc 1 863 0
 2088 00be 6B46     		mov	r3, sp
 2089 00c0 1B7B     		ldrb	r3, [r3, #12]
 2090 00c2 08AA     		add	r2, sp, #32
 2091 00c4 3372     		strb	r3, [r6, #8]
 2092 00c6 6B46     		mov	r3, sp
 2093 00c8 1B7C     		ldrb	r3, [r3, #16]
 2094 00ca 311C     		mov	r1, r6
 2095 00cc 7372     		strb	r3, [r6, #9]
 2096 00ce 6B46     		mov	r3, sp
 2097 00d0 1B7A     		ldrb	r3, [r3, #8]
 2098 00d2 B372     		strb	r3, [r6, #10]
 2099 00d4 6B46     		mov	r3, sp
 2100 00d6 1B7D     		ldrb	r3, [r3, #20]
 2101 00d8 F372     		strb	r3, [r6, #11]
 2102 00da 1523     		mov	r3, #21
 2103 00dc 9B18     		add	r3, r3, r2
 2104 00de 181C     		mov	r0, r3
 2105 00e0 1022     		mov	r2, #16
 2106 00e2 FFF7FEFF 		bl	memcpy
 2107              	.LVL219:
 864:Code\Device\W25Q80/user_data.c **** 				W25QXX_Write((uint8 *)opendate_tmp, OPEN_INFO_BASE + i * (1 + sizeof(open_door_t)), (sizeof(ope
 2108              		.loc 1 864 0
 2109 00e6 B823     		mov	r3, #184
 2110 00e8 9B01     		lsl	r3, r3, #6
 2111 00ea E918     		add	r1, r5, r3
 2112 00ec 201C     		mov	r0, r4
 2113 00ee 1122     		mov	r2, #17
 2114 00f0 FFF7FEFF 		bl	W25QXX_Write
 2115              	.LVL220:
 865:Code\Device\W25Q80/user_data.c **** 				  //==Write_OpenInfo((open_door_t *)&OpenInfo, 0);				
 866:Code\Device\W25Q80/user_data.c **** 				Write_Open_UploadFlag(i, TRUE);
 2116              		.loc 1 866 0
 2117 00f4 381C     		mov	r0, r7
 2118 00f6 0121     		mov	r1, #1
 2119 00f8 FFF7FEFF 		bl	Write_Open_UploadFlag
 2120              	.LVL221:
 2121 00fc 03E0     		b	.L118
 2122              	.LVL222:
 2123              	.L117:
 867:Code\Device\W25Q80/user_data.c **** 			}
 868:Code\Device\W25Q80/user_data.c **** 			else if ((open_time_flash + Delta) < open_time_utc)
 2124              		.loc 1 868 0
ARM GAS  C:\Users\Administrator\AppData\Local\Temp\ccShlVUx.s 			page 55


 2125 00fe 019A     		ldr	r2, [sp, #4]
 2126 0100 1E33     		add	r3, r3, #30
 2127              	.LVL223:
 2128 0102 9342     		cmp	r3, r2
 2129 0104 6FD3     		bcc	.L113
 2130              	.LVL224:
 2131              	.L118:
 835:Code\Device\W25Q80/user_data.c **** 		{
 2132              		.loc 1 835 0
 2133 0106 781E     		sub	r0, r7, #1
 2134 0108 80B2     		uxth	r0, r0
 2135              	.LVL225:
 869:Code\Device\W25Q80/user_data.c **** 			{
 870:Code\Device\W25Q80/user_data.c **** 				return;
 871:Code\Device\W25Q80/user_data.c **** 			}
 872:Code\Device\W25Q80/user_data.c **** 		}
 2136              		.loc 1 872 0
 2137 010a 96E7     		b	.L120
 2138              	.LVL226:
 2139              	.L126:
 873:Code\Device\W25Q80/user_data.c **** 	}
 874:Code\Device\W25Q80/user_data.c **** 	else
 875:Code\Device\W25Q80/user_data.c **** 	{
 876:Code\Device\W25Q80/user_data.c **** 		for (i = OpenQty - 1; i >= OpenQty - MAX_OPEN_NUM; i--)
 877:Code\Device\W25Q80/user_data.c **** 		{
 878:Code\Device\W25Q80/user_data.c **** 			i %= MAX_OPEN_NUM;
 2140              		.loc 1 878 0
 2141 010c 3749     		ldr	r1, .L130
 2142 010e FFF7FEFF 		bl	__aeabi_uidivmod
 2143              	.LVL227:
 2144 0112 8BB2     		uxth	r3, r1
 879:Code\Device\W25Q80/user_data.c **** 			readoff = i * (1 + sizeof(open_door_t));
 2145              		.loc 1 879 0
 2146 0114 1D1C     		mov	r5, r3
 2147 0116 1126     		mov	r6, #17
 2148 0118 7543     		mul	r5, r6
 880:Code\Device\W25Q80/user_data.c **** 			if((readoff % 0xff) == 0)
 2149              		.loc 1 880 0
 2150 011a FF21     		mov	r1, #255
 2151 011c 281C     		mov	r0, r5
 878:Code\Device\W25Q80/user_data.c **** 			readoff = i * (1 + sizeof(open_door_t));
 2152              		.loc 1 878 0
 2153 011e 0293     		str	r3, [sp, #8]
 2154              	.LVL228:
 2155              		.loc 1 880 0
 2156 0120 FFF7FEFF 		bl	__aeabi_uidivmod
 2157              	.LVL229:
 2158 0124 0DAC     		add	r4, sp, #52
 2159 0126 0029     		cmp	r1, #0
 2160 0128 53D1     		bne	.L122
 2161              	.LVL230:
 881:Code\Device\W25Q80/user_data.c **** 			{
 882:Code\Device\W25Q80/user_data.c **** 				readoff += 1;
 883:Code\Device\W25Q80/user_data.c **** 				W25QXX_Read((uint8 *)opendate_tmp+1, OPEN_INFO_BASE + (readoff), (sizeof(open_door_t)));
 2162              		.loc 1 883 0
 2163 012a 1520     		mov	r0, #21
 2164 012c 1022     		mov	r2, #16
ARM GAS  C:\Users\Administrator\AppData\Local\Temp\ccShlVUx.s 			page 56


 2165 012e 08AB     		add	r3, sp, #32
 2166 0130 C018     		add	r0, r0, r3
 2167 0132 2F4B     		ldr	r3, .L130+4
 2168 0134 E918     		add	r1, r5, r3
 2169              	.LVL231:
 2170              	.L129:
 884:Code\Device\W25Q80/user_data.c **** 			}
 885:Code\Device\W25Q80/user_data.c **** 			else
 886:Code\Device\W25Q80/user_data.c **** 			{
 887:Code\Device\W25Q80/user_data.c **** 				W25QXX_Read((uint8 *)opendate_tmp, OPEN_INFO_BASE + (readoff), (sizeof(open_door_t) + 1));
 2171              		.loc 1 887 0
 2172 0136 FFF7FEFF 		bl	W25QXX_Read
 2173              	.LVL232:
 888:Code\Device\W25Q80/user_data.c **** 			}
 889:Code\Device\W25Q80/user_data.c **** 			//W25QXX_Read((uint8 *)opendate_tmp, OPEN_INFO_BASE + i * (1+sizeof(open_door_t)), (sizeof(open_
 890:Code\Device\W25Q80/user_data.c **** 			memcpy((uint8 *)&OpenInfo, opendate_tmp+1, 16);
 2174              		.loc 1 890 0
 2175 013a 1523     		mov	r3, #21
 2176 013c 08AA     		add	r2, sp, #32
 2177 013e 9B18     		add	r3, r3, r2
 2178 0140 09AE     		add	r6, sp, #36
 2179 0142 191C     		mov	r1, r3
 2180 0144 1022     		mov	r2, #16
 2181 0146 301C     		mov	r0, r6
 2182 0148 FFF7FEFF 		bl	memcpy
 2183              	.LVL233:
 2184 014c 637A     		ldrb	r3, [r4, #9]
 2185 014e 0393     		str	r3, [sp, #12]
 2186              	.LVL234:
 2187 0150 A37A     		ldrb	r3, [r4, #10]
 2188 0152 0593     		str	r3, [sp, #20]
 2189              	.LVL235:
 2190 0154 E37A     		ldrb	r3, [r4, #11]
 2191 0156 0693     		str	r3, [sp, #24]
 2192              	.LVL236:
 2193 0158 237B     		ldrb	r3, [r4, #12]
 2194 015a 0493     		str	r3, [sp, #16]
 2195              	.LVL237:
 891:Code\Device\W25Q80/user_data.c **** 			
 892:Code\Device\W25Q80/user_data.c **** 			//==Read_OpenInfo(i,&OpenInfo);
 893:Code\Device\W25Q80/user_data.c **** 			open_time_flash = BYTE2LONG(OpenInfo.open_time[0], OpenInfo.open_time[1],
 2196              		.loc 1 893 0
 2197 015c 039B     		ldr	r3, [sp, #12]
 2198 015e 1A06     		lsl	r2, r3, #24
 2199 0160 059B     		ldr	r3, [sp, #20]
 2200 0162 1B04     		lsl	r3, r3, #16
 2201 0164 1343     		orr	r3, r2
 2202 0166 049A     		ldr	r2, [sp, #16]
 2203 0168 1343     		orr	r3, r2
 2204 016a 069A     		ldr	r2, [sp, #24]
 2205 016c 1202     		lsl	r2, r2, #8
 2206 016e 1343     		orr	r3, r2
 2207              	.LVL238:
 894:Code\Device\W25Q80/user_data.c **** 							 			OpenInfo.open_time[2], OpenInfo.open_time[3]);
 895:Code\Device\W25Q80/user_data.c **** 			if (open_time_flash == open_time_utc)
 2208              		.loc 1 895 0
 2209 0170 019A     		ldr	r2, [sp, #4]
ARM GAS  C:\Users\Administrator\AppData\Local\Temp\ccShlVUx.s 			page 57


 2210 0172 9342     		cmp	r3, r2
 2211 0174 33D1     		bne	.L124
 896:Code\Device\W25Q80/user_data.c **** 			{
 897:Code\Device\W25Q80/user_data.c **** 				memcpy(OpenInfo.send_time, utc_time, TIME_LEN);
 2212              		.loc 1 897 0
 2213 0176 0799     		ldr	r1, [sp, #28]
 2214 0178 0422     		mov	r2, #4
 2215 017a 0CA8     		add	r0, sp, #48
 2216 017c FFF7FEFF 		bl	memcpy
 2217              	.LVL239:
 898:Code\Device\W25Q80/user_data.c **** 				opendate_tmp[0] = 0x01;
 2218              		.loc 1 898 0
 2219 0180 0123     		mov	r3, #1
 2220 0182 2370     		strb	r3, [r4]
 899:Code\Device\W25Q80/user_data.c **** 				memcpy(opendate_tmp+1,(uint8 *)&OpenInfo,16);
 2221              		.loc 1 899 0
 2222 0184 6B46     		mov	r3, sp
 2223 0186 1B7B     		ldrb	r3, [r3, #12]
 2224 0188 08AA     		add	r2, sp, #32
 2225 018a 3372     		strb	r3, [r6, #8]
 2226 018c 6B46     		mov	r3, sp
 2227 018e 1B7D     		ldrb	r3, [r3, #20]
 2228 0190 311C     		mov	r1, r6
 2229 0192 7372     		strb	r3, [r6, #9]
 2230 0194 6B46     		mov	r3, sp
 2231 0196 1B7E     		ldrb	r3, [r3, #24]
 2232 0198 B372     		strb	r3, [r6, #10]
 2233 019a 6B46     		mov	r3, sp
 2234 019c 1B7C     		ldrb	r3, [r3, #16]
 2235 019e F372     		strb	r3, [r6, #11]
 2236 01a0 1523     		mov	r3, #21
 2237 01a2 9B18     		add	r3, r3, r2
 2238 01a4 181C     		mov	r0, r3
 2239 01a6 1022     		mov	r2, #16
 2240 01a8 FFF7FEFF 		bl	memcpy
 2241              	.LVL240:
 900:Code\Device\W25Q80/user_data.c **** 				W25QXX_Write((uint8 *)opendate_tmp, OPEN_INFO_BASE + i * (1 + sizeof(open_door_t)), (sizeof(ope
 2242              		.loc 1 900 0
 2243 01ac B823     		mov	r3, #184
 2244 01ae 9B01     		lsl	r3, r3, #6
 2245 01b0 E918     		add	r1, r5, r3
 2246 01b2 201C     		mov	r0, r4
 2247 01b4 1122     		mov	r2, #17
 2248 01b6 FFF7FEFF 		bl	W25QXX_Write
 2249              	.LVL241:
 901:Code\Device\W25Q80/user_data.c **** 				
 902:Code\Device\W25Q80/user_data.c **** 				//==Write_OpenInfo((open_door_t *)&OpenInfo, 0);	
 903:Code\Device\W25Q80/user_data.c **** 				Write_Open_UploadFlag(i, TRUE);				
 2250              		.loc 1 903 0
 2251 01ba 0298     		ldr	r0, [sp, #8]
 2252 01bc 0121     		mov	r1, #1
 2253 01be FFF7FEFF 		bl	Write_Open_UploadFlag
 2254              	.LVL242:
 2255              	.L125:
 876:Code\Device\W25Q80/user_data.c **** 		{
 2256              		.loc 1 876 0 discriminator 2
 2257 01c2 0298     		ldr	r0, [sp, #8]
ARM GAS  C:\Users\Administrator\AppData\Local\Temp\ccShlVUx.s 			page 58


 2258 01c4 0138     		sub	r0, r0, #1
 2259 01c6 80B2     		uxth	r0, r0
 2260              	.LVL243:
 2261              	.L121:
 876:Code\Device\W25Q80/user_data.c **** 		{
 2262              		.loc 1 876 0 is_stmt 0 discriminator 1
 2263 01c8 0A4B     		ldr	r3, .L130+8
 2264 01ca FB18     		add	r3, r7, r3
 2265 01cc 9842     		cmp	r0, r3
 2266 01ce 9DDA     		bge	.L126
 2267 01d0 09E0     		b	.L113
 2268              	.LVL244:
 2269              	.L122:
 887:Code\Device\W25Q80/user_data.c **** 			}
 2270              		.loc 1 887 0 is_stmt 1
 2271 01d2 B823     		mov	r3, #184
 2272 01d4 9B01     		lsl	r3, r3, #6
 2273 01d6 201C     		mov	r0, r4
 2274 01d8 E918     		add	r1, r5, r3
 2275 01da 321C     		mov	r2, r6
 2276 01dc ABE7     		b	.L129
 2277              	.LVL245:
 2278              	.L124:
 904:Code\Device\W25Q80/user_data.c **** 			}
 905:Code\Device\W25Q80/user_data.c **** 			else if (open_time_flash  + Delta < open_time_utc)
 2279              		.loc 1 905 0
 2280 01de 019A     		ldr	r2, [sp, #4]
 2281 01e0 1E33     		add	r3, r3, #30
 2282              	.LVL246:
 2283 01e2 9342     		cmp	r3, r2
 2284 01e4 EDD2     		bcs	.L125
 2285              	.LVL247:
 2286              	.L113:
 906:Code\Device\W25Q80/user_data.c **** 			{
 907:Code\Device\W25Q80/user_data.c **** 				return;
 908:Code\Device\W25Q80/user_data.c **** 			}
 909:Code\Device\W25Q80/user_data.c **** 		}
 910:Code\Device\W25Q80/user_data.c **** 	}
 911:Code\Device\W25Q80/user_data.c **** }
 2287              		.loc 1 911 0
 2288 01e6 13B0     		add	sp, sp, #76
 2289              		@ sp needed
 2290 01e8 F0BD     		pop	{r4, r5, r6, r7, pc}
 2291              	.L131:
 2292 01ea C046     		.align	2
 2293              	.L130:
 2294 01ec 88130000 		.word	5000
 2295 01f0 012E0000 		.word	11777
 2296 01f4 78ECFFFF 		.word	-5000
 2297              		.cfi_endproc
 2298              	.LFE95:
 2299              		.size	FindAndSet_UploadTime_UploadFlag, .-FindAndSet_UploadTime_UploadFlag
 2300              		.section	.text.Write_RebootType,"ax",%progbits
 2301              		.align	1
 2302              		.global	Write_RebootType
 2303              		.code	16
 2304              		.thumb_func
ARM GAS  C:\Users\Administrator\AppData\Local\Temp\ccShlVUx.s 			page 59


 2305              		.type	Write_RebootType, %function
 2306              	Write_RebootType:
 2307              	.LFB96:
 912:Code\Device\W25Q80/user_data.c **** 
 913:Code\Device\W25Q80/user_data.c **** #if 0
 914:Code\Device\W25Q80/user_data.c **** uint16 FindfailOpeninfo_offset(uint8 open_time[])
 915:Code\Device\W25Q80/user_data.c **** {
 916:Code\Device\W25Q80/user_data.c **** 	uint16 i, OpenQty;
 917:Code\Device\W25Q80/user_data.c **** 	open_door_t OpenInfo;
 918:Code\Device\W25Q80/user_data.c **** 	uint32 open_time_utc;
 919:Code\Device\W25Q80/user_data.c **** 	uint32 open_time_flash;
 920:Code\Device\W25Q80/user_data.c **** 	
 921:Code\Device\W25Q80/user_data.c **** 	open_time_utc = BYTE2LONG(open_time[0], open_time[1], open_time[2], open_time[3]);
 922:Code\Device\W25Q80/user_data.c **** 	OpenQty = Read_Open_Qty();
 923:Code\Device\W25Q80/user_data.c **** 	if (OpenQty <= MAX_OPEN_NUM)							// 总数少于5000的情况 没有覆盖
 924:Code\Device\W25Q80/user_data.c **** 	{
 925:Code\Device\W25Q80/user_data.c **** 		for (i = OpenQty - 1; i >= 0; i--)
 926:Code\Device\W25Q80/user_data.c **** 		{
 927:Code\Device\W25Q80/user_data.c **** 			i %= MAX_OPEN_NUM;
 928:Code\Device\W25Q80/user_data.c **** 			W25QXX_Read((uint8 *)&OpenInfo, OPEN_INFO_BASE + i * sizeof(open_door_t), sizeof(open_door_t));
 929:Code\Device\W25Q80/user_data.c **** 			open_time_flash = BYTE2LONG(OpenInfo.open_time[0], OpenInfo.open_time[1],
 930:Code\Device\W25Q80/user_data.c **** 							 			OpenInfo.open_time[2], OpenInfo.open_time[3]);
 931:Code\Device\W25Q80/user_data.c **** 			if (open_time_flash == open_time_utc)
 932:Code\Device\W25Q80/user_data.c **** 			{
 933:Code\Device\W25Q80/user_data.c **** 				return i;
 934:Code\Device\W25Q80/user_data.c **** 			}
 935:Code\Device\W25Q80/user_data.c **** 		}
 936:Code\Device\W25Q80/user_data.c **** 	}
 937:Code\Device\W25Q80/user_data.c **** 	else												// 总数超过5000 有覆盖
 938:Code\Device\W25Q80/user_data.c **** 	{
 939:Code\Device\W25Q80/user_data.c **** 		for (i = OpenQty - 1; i >= OpenQty - MAX_OPEN_NUM; i--)
 940:Code\Device\W25Q80/user_data.c **** 		{
 941:Code\Device\W25Q80/user_data.c **** 			i %= MAX_OPEN_NUM;
 942:Code\Device\W25Q80/user_data.c **** 			W25QXX_Read((uint8 *)&OpenInfo, OPEN_INFO_BASE + i * sizeof(open_door_t), sizeof(open_door_t));
 943:Code\Device\W25Q80/user_data.c **** 			open_time_flash = BYTE2LONG(OpenInfo.open_time[0], OpenInfo.open_time[1],
 944:Code\Device\W25Q80/user_data.c **** 							 			OpenInfo.open_time[2], OpenInfo.open_time[3]);
 945:Code\Device\W25Q80/user_data.c **** 			if (open_time_flash == open_time_utc)
 946:Code\Device\W25Q80/user_data.c **** 			{
 947:Code\Device\W25Q80/user_data.c **** 				return i;
 948:Code\Device\W25Q80/user_data.c **** 			}
 949:Code\Device\W25Q80/user_data.c **** 		}
 950:Code\Device\W25Q80/user_data.c **** 	}
 951:Code\Device\W25Q80/user_data.c **** 
 952:Code\Device\W25Q80/user_data.c **** }
 953:Code\Device\W25Q80/user_data.c **** #endif
 954:Code\Device\W25Q80/user_data.c **** 
 955:Code\Device\W25Q80/user_data.c **** 
 956:Code\Device\W25Q80/user_data.c **** //*************************************************************************************************
 957:Code\Device\W25Q80/user_data.c **** // Function name	: Write_RebootType
 958:Code\Device\W25Q80/user_data.c **** // Description		: 写重启类型
 959:Code\Device\W25Q80/user_data.c **** // Parameter		: rType	    : 重启类型
 960:Code\Device\W25Q80/user_data.c **** // Return			: none
 961:Code\Device\W25Q80/user_data.c **** //-------------------------------------------------------------------------------------------------
 962:Code\Device\W25Q80/user_data.c **** // Info				: 
 963:Code\Device\W25Q80/user_data.c **** //*************************************************************************************************
 964:Code\Device\W25Q80/user_data.c **** void Write_RebootType(uint8 rType)
 965:Code\Device\W25Q80/user_data.c **** {
ARM GAS  C:\Users\Administrator\AppData\Local\Temp\ccShlVUx.s 			page 60


 2308              		.loc 1 965 0
 2309              		.cfi_startproc
 2310              	.LVL248:
 2311 0000 07B5     		push	{r0, r1, r2, lr}
 2312              		.cfi_def_cfa_offset 16
 2313              		.cfi_offset 0, -16
 2314              		.cfi_offset 1, -12
 2315              		.cfi_offset 2, -8
 2316              		.cfi_offset 14, -4
 2317              		.loc 1 965 0
 2318 0002 6B46     		mov	r3, sp
 2319 0004 D871     		strb	r0, [r3, #7]
 2320 0006 0733     		add	r3, r3, #7
 966:Code\Device\W25Q80/user_data.c **** 	W25QXX_Write((uint8 *)&rType, REBOOT_TYPE, 1);
 2321              		.loc 1 966 0
 2322 0008 181C     		mov	r0, r3
 2323              	.LVL249:
 2324 000a 0249     		ldr	r1, .L133
 2325 000c 0122     		mov	r2, #1
 2326 000e FFF7FEFF 		bl	W25QXX_Write
 2327              	.LVL250:
 967:Code\Device\W25Q80/user_data.c **** }
 2328              		.loc 1 967 0
 2329              		@ sp needed
 2330 0012 07BD     		pop	{r0, r1, r2, pc}
 2331              	.L134:
 2332              		.align	2
 2333              	.L133:
 2334 0014 00910100 		.word	102656
 2335              		.cfi_endproc
 2336              	.LFE96:
 2337              		.size	Write_RebootType, .-Write_RebootType
 2338              		.section	.text.Read_RebootType,"ax",%progbits
 2339              		.align	1
 2340              		.global	Read_RebootType
 2341              		.code	16
 2342              		.thumb_func
 2343              		.type	Read_RebootType, %function
 2344              	Read_RebootType:
 2345              	.LFB97:
 968:Code\Device\W25Q80/user_data.c **** 
 969:Code\Device\W25Q80/user_data.c **** //*************************************************************************************************
 970:Code\Device\W25Q80/user_data.c **** // Function name	: Read_RebootType
 971:Code\Device\W25Q80/user_data.c **** // Description		: 读重启类型
 972:Code\Device\W25Q80/user_data.c **** // Parameter		: none
 973:Code\Device\W25Q80/user_data.c **** // Return			: rType	    : 重启类型
 974:Code\Device\W25Q80/user_data.c **** //-------------------------------------------------------------------------------------------------
 975:Code\Device\W25Q80/user_data.c **** // Info				: 
 976:Code\Device\W25Q80/user_data.c **** //*************************************************************************************************
 977:Code\Device\W25Q80/user_data.c **** uint8 Read_RebootType(void)
 978:Code\Device\W25Q80/user_data.c **** {
 2346              		.loc 1 978 0
 2347              		.cfi_startproc
 2348 0000 13B5     		push	{r0, r1, r4, lr}
 2349              		.cfi_def_cfa_offset 16
 2350              		.cfi_offset 0, -16
 2351              		.cfi_offset 1, -12
ARM GAS  C:\Users\Administrator\AppData\Local\Temp\ccShlVUx.s 			page 61


 2352              		.cfi_offset 4, -8
 2353              		.cfi_offset 14, -4
 979:Code\Device\W25Q80/user_data.c ****     uint8 rType;
 980:Code\Device\W25Q80/user_data.c ****     
 981:Code\Device\W25Q80/user_data.c **** 	W25QXX_Read((uint8 *)&rType, REBOOT_TYPE, 1);
 2354              		.loc 1 981 0
 2355 0002 6B46     		mov	r3, sp
 2356 0004 DC1D     		add	r4, r3, #7
 2357 0006 201C     		mov	r0, r4
 2358 0008 0249     		ldr	r1, .L136
 2359 000a 0122     		mov	r2, #1
 2360 000c FFF7FEFF 		bl	W25QXX_Read
 2361              	.LVL251:
 982:Code\Device\W25Q80/user_data.c ****     return rType;
 983:Code\Device\W25Q80/user_data.c **** }
 2362              		.loc 1 983 0
 2363              		@ sp needed
 982:Code\Device\W25Q80/user_data.c ****     return rType;
 2364              		.loc 1 982 0
 2365 0010 2078     		ldrb	r0, [r4]
 2366              		.loc 1 983 0
 2367 0012 16BD     		pop	{r1, r2, r4, pc}
 2368              	.L137:
 2369              		.align	2
 2370              	.L136:
 2371 0014 00910100 		.word	102656
 2372              		.cfi_endproc
 2373              	.LFE97:
 2374              		.size	Read_RebootType, .-Read_RebootType
 2375              		.section	.text.Write_CenterIpType,"ax",%progbits
 2376              		.align	1
 2377              		.global	Write_CenterIpType
 2378              		.code	16
 2379              		.thumb_func
 2380              		.type	Write_CenterIpType, %function
 2381              	Write_CenterIpType:
 2382              	.LFB98:
 984:Code\Device\W25Q80/user_data.c **** 
 985:Code\Device\W25Q80/user_data.c **** //*************************************************************************************************
 986:Code\Device\W25Q80/user_data.c **** // Function name	: Write_CenterIpType
 987:Code\Device\W25Q80/user_data.c **** // Description		: 写中心服务器类型
 988:Code\Device\W25Q80/user_data.c **** // Parameter		: rType	    : 中心服务器类型
 989:Code\Device\W25Q80/user_data.c **** // Return			: none
 990:Code\Device\W25Q80/user_data.c **** //-------------------------------------------------------------------------------------------------
 991:Code\Device\W25Q80/user_data.c **** // Info				: 
 992:Code\Device\W25Q80/user_data.c **** //*************************************************************************************************
 993:Code\Device\W25Q80/user_data.c **** void Write_CenterIpType(uint8 rType)
 994:Code\Device\W25Q80/user_data.c **** {
 2383              		.loc 1 994 0
 2384              		.cfi_startproc
 2385              	.LVL252:
 2386 0000 07B5     		push	{r0, r1, r2, lr}
 2387              		.cfi_def_cfa_offset 16
 2388              		.cfi_offset 0, -16
 2389              		.cfi_offset 1, -12
 2390              		.cfi_offset 2, -8
 2391              		.cfi_offset 14, -4
ARM GAS  C:\Users\Administrator\AppData\Local\Temp\ccShlVUx.s 			page 62


 2392              		.loc 1 994 0
 2393 0002 6B46     		mov	r3, sp
 2394 0004 D871     		strb	r0, [r3, #7]
 2395 0006 0733     		add	r3, r3, #7
 995:Code\Device\W25Q80/user_data.c **** 	W25QXX_Write((uint8 *)&rType, CenterIP_TYPE, 1);
 2396              		.loc 1 995 0
 2397 0008 181C     		mov	r0, r3
 2398              	.LVL253:
 2399 000a 0249     		ldr	r1, .L139
 2400 000c 0122     		mov	r2, #1
 2401 000e FFF7FEFF 		bl	W25QXX_Write
 2402              	.LVL254:
 996:Code\Device\W25Q80/user_data.c **** }
 2403              		.loc 1 996 0
 2404              		@ sp needed
 2405 0012 07BD     		pop	{r0, r1, r2, pc}
 2406              	.L140:
 2407              		.align	2
 2408              	.L139:
 2409 0014 01910100 		.word	102657
 2410              		.cfi_endproc
 2411              	.LFE98:
 2412              		.size	Write_CenterIpType, .-Write_CenterIpType
 2413              		.section	.text.Read_CenterIpType,"ax",%progbits
 2414              		.align	1
 2415              		.global	Read_CenterIpType
 2416              		.code	16
 2417              		.thumb_func
 2418              		.type	Read_CenterIpType, %function
 2419              	Read_CenterIpType:
 2420              	.LFB99:
 997:Code\Device\W25Q80/user_data.c **** 
 998:Code\Device\W25Q80/user_data.c **** //*************************************************************************************************
 999:Code\Device\W25Q80/user_data.c **** // Function name	: Read_RebootType
1000:Code\Device\W25Q80/user_data.c **** // Description		: 读中心服务器类型
1001:Code\Device\W25Q80/user_data.c **** // Parameter		: none
1002:Code\Device\W25Q80/user_data.c **** // Return			: rType	    : 中心服务器类型
1003:Code\Device\W25Q80/user_data.c **** //-------------------------------------------------------------------------------------------------
1004:Code\Device\W25Q80/user_data.c **** // Info				: 
1005:Code\Device\W25Q80/user_data.c **** //*************************************************************************************************
1006:Code\Device\W25Q80/user_data.c **** uint8 Read_CenterIpType(void)
1007:Code\Device\W25Q80/user_data.c **** {
 2421              		.loc 1 1007 0
 2422              		.cfi_startproc
 2423 0000 13B5     		push	{r0, r1, r4, lr}
 2424              		.cfi_def_cfa_offset 16
 2425              		.cfi_offset 0, -16
 2426              		.cfi_offset 1, -12
 2427              		.cfi_offset 4, -8
 2428              		.cfi_offset 14, -4
1008:Code\Device\W25Q80/user_data.c ****     uint8 rType;
1009:Code\Device\W25Q80/user_data.c ****     
1010:Code\Device\W25Q80/user_data.c **** 	W25QXX_Read((uint8 *)&rType, CenterIP_TYPE, 1);
 2429              		.loc 1 1010 0
 2430 0002 6B46     		mov	r3, sp
 2431 0004 DC1D     		add	r4, r3, #7
 2432 0006 201C     		mov	r0, r4
ARM GAS  C:\Users\Administrator\AppData\Local\Temp\ccShlVUx.s 			page 63


 2433 0008 0249     		ldr	r1, .L142
 2434 000a 0122     		mov	r2, #1
 2435 000c FFF7FEFF 		bl	W25QXX_Read
 2436              	.LVL255:
1011:Code\Device\W25Q80/user_data.c ****     return rType;
1012:Code\Device\W25Q80/user_data.c **** }
 2437              		.loc 1 1012 0
 2438              		@ sp needed
1011:Code\Device\W25Q80/user_data.c ****     return rType;
 2439              		.loc 1 1011 0
 2440 0010 2078     		ldrb	r0, [r4]
 2441              		.loc 1 1012 0
 2442 0012 16BD     		pop	{r1, r2, r4, pc}
 2443              	.L143:
 2444              		.align	2
 2445              	.L142:
 2446 0014 01910100 		.word	102657
 2447              		.cfi_endproc
 2448              	.LFE99:
 2449              		.size	Read_CenterIpType, .-Read_CenterIpType
 2450              		.section	.text.Write_UpdateInfo,"ax",%progbits
 2451              		.align	1
 2452              		.global	Write_UpdateInfo
 2453              		.code	16
 2454              		.thumb_func
 2455              		.type	Write_UpdateInfo, %function
 2456              	Write_UpdateInfo:
 2457              	.LFB100:
1013:Code\Device\W25Q80/user_data.c **** 
1014:Code\Device\W25Q80/user_data.c **** //*************************************************************************************************
1015:Code\Device\W25Q80/user_data.c **** // Function name	: Write_UpdateInfo
1016:Code\Device\W25Q80/user_data.c **** // Description		: 存升级版本和标志
1017:Code\Device\W25Q80/user_data.c **** // Parameter		: flag/ver
1018:Code\Device\W25Q80/user_data.c **** // Return			: none
1019:Code\Device\W25Q80/user_data.c **** //-------------------------------------------------------------------------------------------------
1020:Code\Device\W25Q80/user_data.c **** // Info				: 
1021:Code\Device\W25Q80/user_data.c **** //*************************************************************************************************
1022:Code\Device\W25Q80/user_data.c **** void Write_UpdateInfo(uint8 flag, uint16 ver)
1023:Code\Device\W25Q80/user_data.c **** {
 2458              		.loc 1 1023 0
 2459              		.cfi_startproc
 2460              	.LVL256:
 2461 0000 07B5     		push	{r0, r1, r2, lr}
 2462              		.cfi_def_cfa_offset 16
 2463              		.cfi_offset 0, -16
 2464              		.cfi_offset 1, -12
 2465              		.cfi_offset 2, -8
 2466              		.cfi_offset 14, -4
1024:Code\Device\W25Q80/user_data.c **** 	uint8 tmp[3] = {0};
1025:Code\Device\W25Q80/user_data.c **** 	
1026:Code\Device\W25Q80/user_data.c **** 	tmp[0] = (uint8)(ver>>8);
 2467              		.loc 1 1026 0
 2468 0002 0A0A     		lsr	r2, r1, #8
1024:Code\Device\W25Q80/user_data.c **** 	uint8 tmp[3] = {0};
 2469              		.loc 1 1024 0
 2470 0004 01AB     		add	r3, sp, #4
 2471              		.loc 1 1026 0
ARM GAS  C:\Users\Administrator\AppData\Local\Temp\ccShlVUx.s 			page 64


 2472 0006 1A70     		strb	r2, [r3]
1027:Code\Device\W25Q80/user_data.c **** 	tmp[1] = (uint8)ver;
 2473              		.loc 1 1027 0
 2474 0008 5970     		strb	r1, [r3, #1]
1028:Code\Device\W25Q80/user_data.c **** 	tmp[2] = flag;
 2475              		.loc 1 1028 0
 2476 000a 9870     		strb	r0, [r3, #2]
1029:Code\Device\W25Q80/user_data.c **** 	
1030:Code\Device\W25Q80/user_data.c **** 	W25QXX_Write(tmp, UPDATE_SYSTEMVER, 3);
 2477              		.loc 1 1030 0
 2478 000c 0249     		ldr	r1, .L145
 2479              	.LVL257:
 2480 000e 181C     		mov	r0, r3
 2481              	.LVL258:
 2482 0010 0322     		mov	r2, #3
 2483 0012 FFF7FEFF 		bl	W25QXX_Write
 2484              	.LVL259:
1031:Code\Device\W25Q80/user_data.c **** 	
1032:Code\Device\W25Q80/user_data.c **** }
 2485              		.loc 1 1032 0
 2486              		@ sp needed
 2487 0016 07BD     		pop	{r0, r1, r2, pc}
 2488              	.L146:
 2489              		.align	2
 2490              	.L145:
 2491 0018 03910100 		.word	102659
 2492              		.cfi_endproc
 2493              	.LFE100:
 2494              		.size	Write_UpdateInfo, .-Write_UpdateInfo
 2495              		.section	.text.Read_Updateflag,"ax",%progbits
 2496              		.align	1
 2497              		.global	Read_Updateflag
 2498              		.code	16
 2499              		.thumb_func
 2500              		.type	Read_Updateflag, %function
 2501              	Read_Updateflag:
 2502              	.LFB101:
1033:Code\Device\W25Q80/user_data.c **** 
1034:Code\Device\W25Q80/user_data.c **** 
1035:Code\Device\W25Q80/user_data.c **** //*************************************************************************************************
1036:Code\Device\W25Q80/user_data.c **** // Function name	: Read_Updateflag
1037:Code\Device\W25Q80/user_data.c **** // Description		: 读升级标志
1038:Code\Device\W25Q80/user_data.c **** // Parameter		: none
1039:Code\Device\W25Q80/user_data.c **** // Return			: flag
1040:Code\Device\W25Q80/user_data.c **** //-------------------------------------------------------------------------------------------------
1041:Code\Device\W25Q80/user_data.c **** // Info				: 
1042:Code\Device\W25Q80/user_data.c **** //*************************************************************************************************
1043:Code\Device\W25Q80/user_data.c **** uint8 Read_Updateflag(void)
1044:Code\Device\W25Q80/user_data.c **** {	
 2503              		.loc 1 1044 0
 2504              		.cfi_startproc
 2505 0000 13B5     		push	{r0, r1, r4, lr}
 2506              		.cfi_def_cfa_offset 16
 2507              		.cfi_offset 0, -16
 2508              		.cfi_offset 1, -12
 2509              		.cfi_offset 4, -8
 2510              		.cfi_offset 14, -4
ARM GAS  C:\Users\Administrator\AppData\Local\Temp\ccShlVUx.s 			page 65


1045:Code\Device\W25Q80/user_data.c **** 	uint8 flag;
1046:Code\Device\W25Q80/user_data.c **** 	W25QXX_Read((uint8 *)&flag, UPDATE_FLAG, 1);
 2511              		.loc 1 1046 0
 2512 0002 6B46     		mov	r3, sp
 2513 0004 DC1D     		add	r4, r3, #7
 2514 0006 201C     		mov	r0, r4
 2515 0008 0249     		ldr	r1, .L148
 2516 000a 0122     		mov	r2, #1
 2517 000c FFF7FEFF 		bl	W25QXX_Read
 2518              	.LVL260:
1047:Code\Device\W25Q80/user_data.c **** 	return flag;
1048:Code\Device\W25Q80/user_data.c **** }
 2519              		.loc 1 1048 0
 2520              		@ sp needed
1047:Code\Device\W25Q80/user_data.c **** 	return flag;
 2521              		.loc 1 1047 0
 2522 0010 2078     		ldrb	r0, [r4]
 2523              		.loc 1 1048 0
 2524 0012 16BD     		pop	{r1, r2, r4, pc}
 2525              	.L149:
 2526              		.align	2
 2527              	.L148:
 2528 0014 05910100 		.word	102661
 2529              		.cfi_endproc
 2530              	.LFE101:
 2531              		.size	Read_Updateflag, .-Read_Updateflag
 2532              		.section	.text.Read_UpdateVer,"ax",%progbits
 2533              		.align	1
 2534              		.global	Read_UpdateVer
 2535              		.code	16
 2536              		.thumb_func
 2537              		.type	Read_UpdateVer, %function
 2538              	Read_UpdateVer:
 2539              	.LFB102:
1049:Code\Device\W25Q80/user_data.c **** 
1050:Code\Device\W25Q80/user_data.c **** //*************************************************************************************************
1051:Code\Device\W25Q80/user_data.c **** // Function name	: Read_UpdateVer
1052:Code\Device\W25Q80/user_data.c **** // Description		: 读升级版本
1053:Code\Device\W25Q80/user_data.c **** // Parameter		: none
1054:Code\Device\W25Q80/user_data.c **** // Return			: flag
1055:Code\Device\W25Q80/user_data.c **** //-------------------------------------------------------------------------------------------------
1056:Code\Device\W25Q80/user_data.c **** // Info				: 
1057:Code\Device\W25Q80/user_data.c **** //*************************************************************************************************
1058:Code\Device\W25Q80/user_data.c **** uint8 Read_UpdateVer(void)
1059:Code\Device\W25Q80/user_data.c **** {	
 2540              		.loc 1 1059 0
 2541              		.cfi_startproc
 2542 0000 13B5     		push	{r0, r1, r4, lr}
 2543              		.cfi_def_cfa_offset 16
 2544              		.cfi_offset 0, -16
 2545              		.cfi_offset 1, -12
 2546              		.cfi_offset 4, -8
 2547              		.cfi_offset 14, -4
1060:Code\Device\W25Q80/user_data.c **** 	uint8 ver;
1061:Code\Device\W25Q80/user_data.c **** 	W25QXX_Read((uint8 *)&ver, UPDATE_SYSTEMVER, 1);
 2548              		.loc 1 1061 0
 2549 0002 6B46     		mov	r3, sp
ARM GAS  C:\Users\Administrator\AppData\Local\Temp\ccShlVUx.s 			page 66


 2550 0004 DC1D     		add	r4, r3, #7
 2551 0006 201C     		mov	r0, r4
 2552 0008 0249     		ldr	r1, .L151
 2553 000a 0122     		mov	r2, #1
 2554 000c FFF7FEFF 		bl	W25QXX_Read
 2555              	.LVL261:
1062:Code\Device\W25Q80/user_data.c **** 	return ver;
1063:Code\Device\W25Q80/user_data.c **** }
 2556              		.loc 1 1063 0
 2557              		@ sp needed
1062:Code\Device\W25Q80/user_data.c **** 	return ver;
 2558              		.loc 1 1062 0
 2559 0010 2078     		ldrb	r0, [r4]
 2560              		.loc 1 1063 0
 2561 0012 16BD     		pop	{r1, r2, r4, pc}
 2562              	.L152:
 2563              		.align	2
 2564              	.L151:
 2565 0014 03910100 		.word	102659
 2566              		.cfi_endproc
 2567              	.LFE102:
 2568              		.size	Read_UpdateVer, .-Read_UpdateVer
 2569              		.section	.text.Clear_AllOPeninfo,"ax",%progbits
 2570              		.align	1
 2571              		.global	Clear_AllOPeninfo
 2572              		.code	16
 2573              		.thumb_func
 2574              		.type	Clear_AllOPeninfo, %function
 2575              	Clear_AllOPeninfo:
 2576              	.LFB103:
1064:Code\Device\W25Q80/user_data.c **** 
1065:Code\Device\W25Q80/user_data.c **** 
1066:Code\Device\W25Q80/user_data.c **** 
1067:Code\Device\W25Q80/user_data.c **** //*************************************************************************************************
1068:Code\Device\W25Q80/user_data.c **** // Function name	: Clear_AllOPeninfo
1069:Code\Device\W25Q80/user_data.c **** // Description		: 清除所有openinfo相关的信息区域
1070:Code\Device\W25Q80/user_data.c **** // Parameter		: none
1071:Code\Device\W25Q80/user_data.c **** // Return			: none
1072:Code\Device\W25Q80/user_data.c **** //-------------------------------------------------------------------------------------------------
1073:Code\Device\W25Q80/user_data.c **** // Info				: 测试用用 
1074:Code\Device\W25Q80/user_data.c **** //*************************************************************************************************
1075:Code\Device\W25Q80/user_data.c **** #if 1
1076:Code\Device\W25Q80/user_data.c **** void Clear_AllOPeninfo(void)
1077:Code\Device\W25Q80/user_data.c **** {
 2577              		.loc 1 1077 0
 2578              		.cfi_startproc
 2579 0000 F0B5     		push	{r4, r5, r6, r7, lr}
 2580              		.cfi_def_cfa_offset 20
 2581              		.cfi_offset 4, -20
 2582              		.cfi_offset 5, -16
 2583              		.cfi_offset 6, -12
 2584              		.cfi_offset 7, -8
 2585              		.cfi_offset 14, -4
 2586 0002 224C     		ldr	r4, .L154
1078:Code\Device\W25Q80/user_data.c **** 	uint8_t opendate[256] = {0};
 2587              		.loc 1 1078 0
 2588 0004 8026     		mov	r6, #128
ARM GAS  C:\Users\Administrator\AppData\Local\Temp\ccShlVUx.s 			page 67


1077:Code\Device\W25Q80/user_data.c **** 	uint8_t opendate[256] = {0};
 2589              		.loc 1 1077 0
 2590 0006 A544     		add	sp, sp, r4
 2591              		.cfi_def_cfa_offset 5416
1079:Code\Device\W25Q80/user_data.c **** 	uint8_t opendate_flag[64] = {0};
 2592              		.loc 1 1079 0
 2593 0008 4024     		mov	r4, #64
1078:Code\Device\W25Q80/user_data.c **** 	uint8_t opendate[256] = {0};
 2594              		.loc 1 1078 0
 2595 000a 7600     		lsl	r6, r6, #1
 2596 000c 321C     		mov	r2, r6
 2597 000e 22A8     		add	r0, sp, #136
 2598 0010 0021     		mov	r1, #0
 2599 0012 FFF7FEFF 		bl	memset
 2600              	.LVL262:
 2601              		.loc 1 1079 0
 2602 0016 221C     		mov	r2, r4
 2603 0018 02A8     		add	r0, sp, #8
 2604 001a 0021     		mov	r1, #0
 2605 001c FFF7FEFF 		bl	memset
 2606              	.LVL263:
1080:Code\Device\W25Q80/user_data.c **** 	uint8_t opendate_qty[64] = {0};
 2607              		.loc 1 1080 0
 2608 0020 221C     		mov	r2, r4
 2609 0022 12A8     		add	r0, sp, #72
 2610 0024 0021     		mov	r1, #0
 2611 0026 FFF7FEFF 		bl	memset
 2612              	.LVL264:
1081:Code\Device\W25Q80/user_data.c **** 	uint16_t data = 0;
 2613              		.loc 1 1081 0
 2614 002a 6B46     		mov	r3, sp
 2615 002c 0021     		mov	r1, #0
1082:Code\Device\W25Q80/user_data.c **** 	uint8_t flag[MAX_OPEN_NUM] = {0};
 2616              		.loc 1 1082 0
 2617 002e 184D     		ldr	r5, .L154+4
 2618 0030 62A8     		add	r0, sp, #392
 2619 0032 2A1C     		mov	r2, r5
1081:Code\Device\W25Q80/user_data.c **** 	uint16_t data = 0;
 2620              		.loc 1 1081 0
 2621 0034 D980     		strh	r1, [r3, #6]
1083:Code\Device\W25Q80/user_data.c **** 	//memset(opendate,0xff,256);
1084:Code\Device\W25Q80/user_data.c **** 	//memset(opendate_flag,0xff,64);
1085:Code\Device\W25Q80/user_data.c **** 	//memset(flag,0xff,MAX_OPEN_NUM);
1086:Code\Device\W25Q80/user_data.c **** 	//清除flag区域
1087:Code\Device\W25Q80/user_data.c **** 	W25QXX_Write(flag,  OPEN_FLAG_BASE, MAX_OPEN_NUM);   
1088:Code\Device\W25Q80/user_data.c **** 	//清除数据区域
1089:Code\Device\W25Q80/user_data.c **** 	W25QXX_Write(flag,  OPEN_INFO_BASE, MAX_OPEN_NUM);  
 2622              		.loc 1 1089 0
 2623 0036 B827     		mov	r7, #184
1082:Code\Device\W25Q80/user_data.c **** 	uint8_t flag[MAX_OPEN_NUM] = {0};
 2624              		.loc 1 1082 0
 2625 0038 FFF7FEFF 		bl	memset
 2626              	.LVL265:
1087:Code\Device\W25Q80/user_data.c **** 	//清除数据区域
 2627              		.loc 1 1087 0
 2628 003c D021     		mov	r1, #208
 2629 003e 62A8     		add	r0, sp, #392
ARM GAS  C:\Users\Administrator\AppData\Local\Temp\ccShlVUx.s 			page 68


 2630 0040 2A1C     		mov	r2, r5
 2631              		.loc 1 1089 0
 2632 0042 BF01     		lsl	r7, r7, #6
1087:Code\Device\W25Q80/user_data.c **** 	//清除数据区域
 2633              		.loc 1 1087 0
 2634 0044 4901     		lsl	r1, r1, #5
 2635 0046 FFF7FEFF 		bl	W25QXX_Write
 2636              	.LVL266:
 2637              		.loc 1 1089 0
 2638 004a 62A8     		add	r0, sp, #392
 2639 004c 391C     		mov	r1, r7
 2640 004e 2A1C     		mov	r2, r5
1090:Code\Device\W25Q80/user_data.c **** 	//W25QXX_Write((uint8_t *)&data,  OPEN_INFO_BASE+ (MAX_OPEN_NUM/2 *sizeof(open_door_t)), MAX_OPEN_
1091:Code\Device\W25Q80/user_data.c **** 	
1092:Code\Device\W25Q80/user_data.c **** 	//清除计数qty区域 2B
1093:Code\Device\W25Q80/user_data.c **** 	W25QXX_Write((uint8_t *)&data,  OPEN_QTY_BASE, 2);  
 2641              		.loc 1 1093 0
 2642 0050 C825     		mov	r5, #200
1089:Code\Device\W25Q80/user_data.c **** 	//W25QXX_Write((uint8_t *)&data,  OPEN_INFO_BASE+ (MAX_OPEN_NUM/2 *sizeof(open_door_t)), MAX_OPEN_
 2643              		.loc 1 1089 0
 2644 0052 FFF7FEFF 		bl	W25QXX_Write
 2645              	.LVL267:
 2646              		.loc 1 1093 0
 2647 0056 6B46     		mov	r3, sp
 2648 0058 6D02     		lsl	r5, r5, #9
 2649 005a 981D     		add	r0, r3, #6
 2650 005c 291C     		mov	r1, r5
 2651 005e 0222     		mov	r2, #2
 2652 0060 FFF7FEFF 		bl	W25QXX_Write
 2653              	.LVL268:
1094:Code\Device\W25Q80/user_data.c **** 	
1095:Code\Device\W25Q80/user_data.c **** 		//==测试开门信息日志表
1096:Code\Device\W25Q80/user_data.c **** 	W25QXX_Read(opendate, OPEN_INFO_BASE,256);
 2654              		.loc 1 1096 0
 2655 0064 22A8     		add	r0, sp, #136
 2656 0066 391C     		mov	r1, r7
 2657 0068 321C     		mov	r2, r6
 2658 006a FFF7FEFF 		bl	W25QXX_Read
 2659              	.LVL269:
1097:Code\Device\W25Q80/user_data.c **** 	W25QXX_Read(opendate_flag, OPEN_FLAG_BASE,64);
 2660              		.loc 1 1097 0
 2661 006e D021     		mov	r1, #208
 2662 0070 02A8     		add	r0, sp, #8
 2663 0072 221C     		mov	r2, r4
 2664 0074 4901     		lsl	r1, r1, #5
 2665 0076 FFF7FEFF 		bl	W25QXX_Read
 2666              	.LVL270:
1098:Code\Device\W25Q80/user_data.c **** 	W25QXX_Read(opendate_qty, OPEN_QTY_BASE,64);
 2667              		.loc 1 1098 0
 2668 007a 12A8     		add	r0, sp, #72
 2669 007c 291C     		mov	r1, r5
 2670 007e 221C     		mov	r2, r4
 2671 0080 FFF7FEFF 		bl	W25QXX_Read
 2672              	.LVL271:
1099:Code\Device\W25Q80/user_data.c **** 	
1100:Code\Device\W25Q80/user_data.c **** 	DBG_SOFT_PutStr("\r\n Read open date:\r\n");
1101:Code\Device\W25Q80/user_data.c **** 	DBG_SOFT_PrintfHex(opendate,256,17);
ARM GAS  C:\Users\Administrator\AppData\Local\Temp\ccShlVUx.s 			page 69


1102:Code\Device\W25Q80/user_data.c **** 	
1103:Code\Device\W25Q80/user_data.c **** 	DBG_SOFT_PutStr("\r\n Read open flag:\r\n");
1104:Code\Device\W25Q80/user_data.c **** 	DBG_SOFT_PrintfHex(opendate_flag,64,16);
1105:Code\Device\W25Q80/user_data.c **** 	
1106:Code\Device\W25Q80/user_data.c **** 	DBG_SOFT_PutStr("\r\n Read open qty:\r\n");
1107:Code\Device\W25Q80/user_data.c **** 	DBG_SOFT_PrintfHex(opendate_qty,8,16);
1108:Code\Device\W25Q80/user_data.c **** }
 2673              		.loc 1 1108 0
 2674 0084 034B     		ldr	r3, .L154+8
 2675 0086 9D44     		add	sp, sp, r3
 2676              		@ sp needed
 2677 0088 F0BD     		pop	{r4, r5, r6, r7, pc}
 2678              	.L155:
 2679 008a C046     		.align	2
 2680              	.L154:
 2681 008c ECEAFFFF 		.word	-5396
 2682 0090 88130000 		.word	5000
 2683 0094 14150000 		.word	5396
 2684              		.cfi_endproc
 2685              	.LFE103:
 2686              		.size	Clear_AllOPeninfo, .-Clear_AllOPeninfo
 2687              		.section	.text.test_Flash,"ax",%progbits
 2688              		.align	1
 2689              		.global	test_Flash
 2690              		.code	16
 2691              		.thumb_func
 2692              		.type	test_Flash, %function
 2693              	test_Flash:
 2694              	.LFB104:
1109:Code\Device\W25Q80/user_data.c **** #endif
1110:Code\Device\W25Q80/user_data.c **** 
1111:Code\Device\W25Q80/user_data.c **** void test_Flash(void)
1112:Code\Device\W25Q80/user_data.c **** {
 2695              		.loc 1 1112 0
 2696              		.cfi_startproc
 2697 0000 70B5     		push	{r4, r5, r6, lr}
 2698              		.cfi_def_cfa_offset 16
 2699              		.cfi_offset 4, -16
 2700              		.cfi_offset 5, -12
 2701              		.cfi_offset 6, -8
 2702              		.cfi_offset 14, -4
 2703 0002 1F4C     		ldr	r4, .L157
1113:Code\Device\W25Q80/user_data.c **** 	uint8_t userflag[64] = {0};
1114:Code\Device\W25Q80/user_data.c **** 	uint8_t userinfo[256] = {0};
 2704              		.loc 1 1114 0
 2705 0004 8026     		mov	r6, #128
1112:Code\Device\W25Q80/user_data.c **** 	uint8_t userflag[64] = {0};
 2706              		.loc 1 1112 0
 2707 0006 A544     		add	sp, sp, r4
 2708              		.cfi_def_cfa_offset 920
1113:Code\Device\W25Q80/user_data.c **** 	uint8_t userflag[64] = {0};
 2709              		.loc 1 1113 0
 2710 0008 4024     		mov	r4, #64
1115:Code\Device\W25Q80/user_data.c **** 	
1116:Code\Device\W25Q80/user_data.c **** 	//==测试用户信息日志表
1117:Code\Device\W25Q80/user_data.c **** 	W25QXX_Read(userflag, USER_FLAG_BASE,64);
1118:Code\Device\W25Q80/user_data.c **** 	W25QXX_Read(userinfo, USER_INFO_BASE,256);
ARM GAS  C:\Users\Administrator\AppData\Local\Temp\ccShlVUx.s 			page 70


 2711              		.loc 1 1118 0
 2712 000a 8025     		mov	r5, #128
1113:Code\Device\W25Q80/user_data.c **** 	uint8_t userinfo[256] = {0};
 2713              		.loc 1 1113 0
 2714 000c 221C     		mov	r2, r4
1114:Code\Device\W25Q80/user_data.c **** 	
 2715              		.loc 1 1114 0
 2716 000e 7600     		lsl	r6, r6, #1
1113:Code\Device\W25Q80/user_data.c **** 	uint8_t userinfo[256] = {0};
 2717              		.loc 1 1113 0
 2718 0010 02A8     		add	r0, sp, #8
 2719 0012 0021     		mov	r1, #0
 2720 0014 FFF7FEFF 		bl	memset
 2721              	.LVL272:
1114:Code\Device\W25Q80/user_data.c **** 	
 2722              		.loc 1 1114 0
 2723 0018 321C     		mov	r2, r6
 2724 001a 22A8     		add	r0, sp, #136
 2725 001c 0021     		mov	r1, #0
 2726 001e FFF7FEFF 		bl	memset
 2727              	.LVL273:
 2728              		.loc 1 1118 0
 2729 0022 AD00     		lsl	r5, r5, #2
1117:Code\Device\W25Q80/user_data.c **** 	W25QXX_Read(userinfo, USER_INFO_BASE,256);
 2730              		.loc 1 1117 0
 2731 0024 02A8     		add	r0, sp, #8
 2732 0026 221C     		mov	r2, r4
 2733 0028 0021     		mov	r1, #0
 2734 002a FFF7FEFF 		bl	W25QXX_Read
 2735              	.LVL274:
 2736              		.loc 1 1118 0
 2737 002e 22A8     		add	r0, sp, #136
 2738 0030 291C     		mov	r1, r5
 2739 0032 321C     		mov	r2, r6
 2740 0034 FFF7FEFF 		bl	W25QXX_Read
 2741              	.LVL275:
1119:Code\Device\W25Q80/user_data.c **** 	
1120:Code\Device\W25Q80/user_data.c **** 	
1121:Code\Device\W25Q80/user_data.c **** 	DBG_SOFT_PutStr("\r\n userflag:\r\n");
1122:Code\Device\W25Q80/user_data.c **** 	DBG_SOFT_PrintfHex(userflag,16,16);
1123:Code\Device\W25Q80/user_data.c **** 	
1124:Code\Device\W25Q80/user_data.c **** 	DBG_SOFT_PutStr("\r\n userinfo:\r\n");
1125:Code\Device\W25Q80/user_data.c **** 	DBG_SOFT_PrintfHex(userinfo,96,16);
1126:Code\Device\W25Q80/user_data.c **** 	
1127:Code\Device\W25Q80/user_data.c **** 	uint8_t opendate[512] = {0};
 2742              		.loc 1 1127 0
 2743 0038 2A1C     		mov	r2, r5
 2744 003a 62A8     		add	r0, sp, #392
 2745 003c 0021     		mov	r1, #0
 2746 003e FFF7FEFF 		bl	memset
 2747              	.LVL276:
1128:Code\Device\W25Q80/user_data.c **** 	uint8_t opendate_flag[64] = {0};
 2748              		.loc 1 1128 0
 2749 0042 221C     		mov	r2, r4
 2750 0044 12A8     		add	r0, sp, #72
 2751 0046 0021     		mov	r1, #0
 2752 0048 FFF7FEFF 		bl	memset
ARM GAS  C:\Users\Administrator\AppData\Local\Temp\ccShlVUx.s 			page 71


 2753              	.LVL277:
1129:Code\Device\W25Q80/user_data.c **** 	uint8_t opendate_qty[8] = {0};
1130:Code\Device\W25Q80/user_data.c **** 	
1131:Code\Device\W25Q80/user_data.c **** 	//==测试开门信息日志表
1132:Code\Device\W25Q80/user_data.c **** 	W25QXX_Read(opendate, OPEN_INFO_BASE,512);
 2754              		.loc 1 1132 0
 2755 004c B821     		mov	r1, #184
1129:Code\Device\W25Q80/user_data.c **** 	uint8_t opendate_qty[8] = {0};
 2756              		.loc 1 1129 0
 2757 004e 0023     		mov	r3, #0
 2758              		.loc 1 1132 0
 2759 0050 62A8     		add	r0, sp, #392
 2760 0052 2A1C     		mov	r2, r5
 2761 0054 8901     		lsl	r1, r1, #6
1129:Code\Device\W25Q80/user_data.c **** 	uint8_t opendate_qty[8] = {0};
 2762              		.loc 1 1129 0
 2763 0056 0093     		str	r3, [sp]
 2764 0058 0193     		str	r3, [sp, #4]
 2765              		.loc 1 1132 0
 2766 005a FFF7FEFF 		bl	W25QXX_Read
 2767              	.LVL278:
1133:Code\Device\W25Q80/user_data.c **** 	W25QXX_Read(opendate_flag, OPEN_FLAG_BASE,64);
 2768              		.loc 1 1133 0
 2769 005e D021     		mov	r1, #208
 2770 0060 12A8     		add	r0, sp, #72
 2771 0062 221C     		mov	r2, r4
 2772 0064 4901     		lsl	r1, r1, #5
 2773 0066 FFF7FEFF 		bl	W25QXX_Read
 2774              	.LVL279:
1134:Code\Device\W25Q80/user_data.c **** 	W25QXX_Read(opendate_qty, OPEN_QTY_BASE,64);
 2775              		.loc 1 1134 0
 2776 006a C821     		mov	r1, #200
 2777 006c 6846     		mov	r0, sp
 2778 006e 4902     		lsl	r1, r1, #9
 2779 0070 221C     		mov	r2, r4
 2780 0072 FFF7FEFF 		bl	W25QXX_Read
 2781              	.LVL280:
1135:Code\Device\W25Q80/user_data.c **** 	
1136:Code\Device\W25Q80/user_data.c **** 	DBG_SOFT_PutStr("\r\n Read open date:\r\n");
1137:Code\Device\W25Q80/user_data.c **** 	DBG_SOFT_PrintfHex(opendate,512,17);
1138:Code\Device\W25Q80/user_data.c **** 	
1139:Code\Device\W25Q80/user_data.c **** 	DBG_SOFT_PutStr("\r\n Read open flag:\r\n");
1140:Code\Device\W25Q80/user_data.c **** 	DBG_SOFT_PrintfHex(opendate_flag,64,16);
1141:Code\Device\W25Q80/user_data.c **** 	
1142:Code\Device\W25Q80/user_data.c **** 	DBG_SOFT_PutStr("\r\n Read open qty:\r\n");
1143:Code\Device\W25Q80/user_data.c **** 	DBG_SOFT_PrintfHex(opendate_qty,8,16);
1144:Code\Device\W25Q80/user_data.c **** }
 2782              		.loc 1 1144 0
 2783 0076 E223     		mov	r3, #226
 2784 0078 9B00     		lsl	r3, r3, #2
 2785 007a 9D44     		add	sp, sp, r3
 2786              		@ sp needed
 2787 007c 70BD     		pop	{r4, r5, r6, pc}
 2788              	.L158:
 2789 007e C046     		.align	2
 2790              	.L157:
 2791 0080 78FCFFFF 		.word	-904
ARM GAS  C:\Users\Administrator\AppData\Local\Temp\ccShlVUx.s 			page 72


 2792              		.cfi_endproc
 2793              	.LFE104:
 2794              		.size	test_Flash, .-test_Flash
 2795              		.section	.text.test_readopeninfo,"ax",%progbits
 2796              		.align	1
 2797              		.global	test_readopeninfo
 2798              		.code	16
 2799              		.thumb_func
 2800              		.type	test_readopeninfo, %function
 2801              	test_readopeninfo:
 2802              	.LFB105:
1145:Code\Device\W25Q80/user_data.c **** 
1146:Code\Device\W25Q80/user_data.c **** void test_readopeninfo(void)
1147:Code\Device\W25Q80/user_data.c **** {
 2803              		.loc 1 1147 0
 2804              		.cfi_startproc
 2805 0000 1FB5     		push	{r0, r1, r2, r3, r4, lr}
 2806              		.cfi_def_cfa_offset 24
 2807              		.cfi_offset 0, -24
 2808              		.cfi_offset 1, -20
 2809              		.cfi_offset 2, -16
 2810              		.cfi_offset 3, -12
 2811              		.cfi_offset 4, -8
 2812              		.cfi_offset 14, -4
1148:Code\Device\W25Q80/user_data.c **** 	open_door_t open_tmp;	
1149:Code\Device\W25Q80/user_data.c **** 	Read_OpenInfo(5,&open_tmp);
 2813              		.loc 1 1149 0
 2814 0002 0520     		mov	r0, #5
 2815 0004 6946     		mov	r1, sp
 2816 0006 FFF7FEFF 		bl	Read_OpenInfo
 2817              	.LVL281:
1150:Code\Device\W25Q80/user_data.c **** 	DBG_SOFT_PutStr("\r\n Read openinfor test:\r\n");
1151:Code\Device\W25Q80/user_data.c **** 	DBG_SOFT_PrintfHex(&open_tmp,16,16);
1152:Code\Device\W25Q80/user_data.c **** }
 2818              		.loc 1 1152 0
 2819 000a 05B0     		add	sp, sp, #20
 2820              		@ sp needed
 2821 000c 00BD     		pop	{pc}
 2822              		.cfi_endproc
 2823              	.LFE105:
 2824              		.size	test_readopeninfo, .-test_readopeninfo
 2825              		.text
 2826              	.Letext0:
 2827              		.file 2 "c:\\program files (x86)\\cypress\\psoc creator\\4.0\\psoc creator\\import\\gnu\\arm\\4.9.
 2828              		.file 3 "c:\\program files (x86)\\cypress\\psoc creator\\4.0\\psoc creator\\import\\gnu\\arm\\4.9.
 2829              		.file 4 "Generated_Source\\PSoC4/cytypes.h"
 2830              		.file 5 "c:\\program files (x86)\\cypress\\psoc creator\\4.0\\psoc creator\\import\\gnu\\arm\\4.9.
 2831              		.file 6 "Code\\Device\\W25Q80\\user_data.h"
 2832              		.file 7 "Code\\Device\\W25Q80\\w25qxx.h"
 2833              		.file 8 "c:\\program files (x86)\\cypress\\psoc creator\\4.0\\psoc creator\\import\\gnu\\arm\\4.9.