ARM GAS  C:\Users\Administrator\AppData\Local\Temp\cct0CKSV.s 			page 1


   1              		.cpu cortex-m0
   2              		.fpu softvfp
   3              		.eabi_attribute 20, 1
   4              		.eabi_attribute 21, 1
   5              		.eabi_attribute 23, 3
   6              		.eabi_attribute 24, 1
   7              		.eabi_attribute 25, 1
   8              		.eabi_attribute 26, 1
   9              		.eabi_attribute 30, 4
  10              		.eabi_attribute 34, 0
  11              		.eabi_attribute 18, 4
  12              		.code	16
  13              		.file	"utc.c"
  14              		.text
  15              	.Ltext0:
  16              		.cfi_sections	.debug_frame
  17              		.global	__aeabi_uidivmod
  18              		.global	__aeabi_uidiv
  19              		.section	.text.UtcTime_ConvertTo_Time,"ax",%progbits
  20              		.align	1
  21              		.global	UtcTime_ConvertTo_Time
  22              		.code	16
  23              		.thumb_func
  24              		.type	UtcTime_ConvertTo_Time, %function
  25              	UtcTime_ConvertTo_Time:
  26              	.LFB3:
  27              		.file 1 "Code\\Common\\utc.c"
   1:Code\Common/utc.c **** //*************************************************************************************************
   2:Code\Common/utc.c **** // File name		: utc.c
   3:Code\Common/utc.c **** // Description 		: 格林威治时间和时间的相互转化
   4:Code\Common/utc.c **** // Author			: Keno
   5:Code\Common/utc.c **** // Date				: 2016.8.8
   6:Code\Common/utc.c **** // Version			: V02
   7:Code\Common/utc.c **** //*************************************************************************************************
   8:Code\Common/utc.c **** #include "utc.h"
   9:Code\Common/utc.c **** 
  10:Code\Common/utc.c **** 
  11:Code\Common/utc.c **** 
  12:Code\Common/utc.c **** //*************************************************************************************************
  13:Code\Common/utc.c **** // Function name	: MonthLength
  14:Code\Common/utc.c **** // Description		: 计算月长度
  15:Code\Common/utc.c **** // Parameter		: LeapYearFlag	: 1(闰年)/0(非闰年)
  16:Code\Common/utc.c **** //					: Month			: 月份(1~12)
  17:Code\Common/utc.c **** // Return			: 当前月的天数
  18:Code\Common/utc.c **** //-------------------------------------------------------------------------------------------------
  19:Code\Common/utc.c **** // Info				: 
  20:Code\Common/utc.c **** //*************************************************************************************************
  21:Code\Common/utc.c **** static uint8 MonthLength(uint8 LeapYearFlag, uint8 Month)
  22:Code\Common/utc.c **** {
  23:Code\Common/utc.c **** 	uint8 days = 31;
  24:Code\Common/utc.c **** 
  25:Code\Common/utc.c **** 	if (Month == 1)
  26:Code\Common/utc.c **** 	{
  27:Code\Common/utc.c **** 		days = (28 + LeapYearFlag);
  28:Code\Common/utc.c **** 	}
  29:Code\Common/utc.c **** 	else
  30:Code\Common/utc.c **** 	{
ARM GAS  C:\Users\Administrator\AppData\Local\Temp\cct0CKSV.s 			page 2


  31:Code\Common/utc.c **** 		if (Month > 6)
  32:Code\Common/utc.c **** 		{
  33:Code\Common/utc.c **** 			Month--;
  34:Code\Common/utc.c **** 		}
  35:Code\Common/utc.c **** 
  36:Code\Common/utc.c **** 		if (Month & 1)
  37:Code\Common/utc.c **** 		{
  38:Code\Common/utc.c **** 			days = 30;
  39:Code\Common/utc.c **** 		}
  40:Code\Common/utc.c **** 	}
  41:Code\Common/utc.c **** 
  42:Code\Common/utc.c **** 	return (days);
  43:Code\Common/utc.c **** }
  44:Code\Common/utc.c **** 
  45:Code\Common/utc.c **** 
  46:Code\Common/utc.c **** //*************************************************************************************************
  47:Code\Common/utc.c **** // Function name	: UtcTime_ConvertTo_Time
  48:Code\Common/utc.c **** // Description		: 将世界时间(格林威治时间)转化为日历时间
  49:Code\Common/utc.c **** // Parameter		: secTime	: 世界时间
  50:Code\Common/utc.c **** // Return			: tm		: 日历时间
  51:Code\Common/utc.c **** //-------------------------------------------------------------------------------------------------
  52:Code\Common/utc.c **** // Info				: 算法输出月份范围为[0-11]，天数范围为[0-30]，函数末尾分别强制转化为[1-12]和[1-31].
  53:Code\Common/utc.c **** //*************************************************************************************************
  54:Code\Common/utc.c **** TimeInfo UtcTime_ConvertTo_Time(UTCTime secTime)
  55:Code\Common/utc.c **** {
  28              		.loc 1 55 0
  29              		.cfi_startproc
  30              	.LVL0:
  31 0000 F0B5     		push	{r4, r5, r6, r7, lr}
  32              		.cfi_def_cfa_offset 20
  33              		.cfi_offset 4, -20
  34              		.cfi_offset 5, -16
  35              		.cfi_offset 6, -12
  36              		.cfi_offset 7, -8
  37              		.cfi_offset 14, -4
  38 0002 0C1C     		mov	r4, r1
  39 0004 85B0     		sub	sp, sp, #20
  40              		.cfi_def_cfa_offset 40
  41              		.loc 1 55 0
  42 0006 061C     		mov	r6, r0
  43              	.LBB8:
  56:Code\Common/utc.c **** 	TimeInfo tm;
  57:Code\Common/utc.c **** 	
  58:Code\Common/utc.c **** 	//secTime += TimeZone * 3600;
  59:Code\Common/utc.c **** 	{
  60:Code\Common/utc.c **** 		uint32 day = secTime % OneDaySeconds;
  44              		.loc 1 60 0
  45 0008 081C     		mov	r0, r1
  46              	.LVL1:
  47 000a 4349     		ldr	r1, .L28
  48              	.LVL2:
  49 000c FFF7FEFF 		bl	__aeabi_uidivmod
  50              	.LVL3:
  51 0010 0D1C     		mov	r5, r1
  52              	.LVL4:
  61:Code\Common/utc.c **** 
  62:Code\Common/utc.c **** 		tm.Sec  =  day % 60UL;
ARM GAS  C:\Users\Administrator\AppData\Local\Temp\cct0CKSV.s 			page 3


  53              		.loc 1 62 0
  54 0012 081C     		mov	r0, r1
  55 0014 3C21     		mov	r1, #60
  56              	.LVL5:
  57 0016 FFF7FEFF 		bl	__aeabi_uidivmod
  58              	.LVL6:
  59 001a CBB2     		uxtb	r3, r1
  63:Code\Common/utc.c **** 		tm.Min  = (day % 3600UL) / 60UL;
  60              		.loc 1 63 0
  61 001c E121     		mov	r1, #225
  62 001e 281C     		mov	r0, r5
  63 0020 0901     		lsl	r1, r1, #4
  62:Code\Common/utc.c **** 		tm.Min  = (day % 3600UL) / 60UL;
  64              		.loc 1 62 0
  65 0022 0093     		str	r3, [sp]
  66              	.LVL7:
  67              		.loc 1 63 0
  68 0024 FFF7FEFF 		bl	__aeabi_uidivmod
  69              	.LVL8:
  70 0028 081C     		mov	r0, r1
  71 002a 3C21     		mov	r1, #60
  72 002c FFF7FEFF 		bl	__aeabi_uidiv
  73              	.LVL9:
  64:Code\Common/utc.c **** 		tm.Hour =  day / 3600UL;
  74              		.loc 1 64 0
  75 0030 E121     		mov	r1, #225
  63:Code\Common/utc.c **** 		tm.Min  = (day % 3600UL) / 60UL;
  76              		.loc 1 63 0
  77 0032 C3B2     		uxtb	r3, r0
  78              		.loc 1 64 0
  79 0034 0901     		lsl	r1, r1, #4
  80 0036 281C     		mov	r0, r5
  63:Code\Common/utc.c **** 		tm.Min  = (day % 3600UL) / 60UL;
  81              		.loc 1 63 0
  82 0038 0193     		str	r3, [sp, #4]
  83              	.LVL10:
  84              		.loc 1 64 0
  85 003a FFF7FEFF 		bl	__aeabi_uidiv
  86              	.LVL11:
  87              	.LBE8:
  88              	.LBB9:
  65:Code\Common/utc.c **** 	}
  66:Code\Common/utc.c **** 
  67:Code\Common/utc.c **** 	{
  68:Code\Common/utc.c **** 		uint16 numDays = secTime / OneDaySeconds;
  89              		.loc 1 68 0
  90 003e 3649     		ldr	r1, .L28
  91              	.LBE9:
  92              	.LBB12:
  64:Code\Common/utc.c **** 		tm.Hour =  day / 3600UL;
  93              		.loc 1 64 0
  94 0040 C3B2     		uxtb	r3, r0
  95              	.LBE12:
  96              	.LBB13:
  97              		.loc 1 68 0
  98 0042 201C     		mov	r0, r4
  99              	.LBE13:
ARM GAS  C:\Users\Administrator\AppData\Local\Temp\cct0CKSV.s 			page 4


 100              	.LBB14:
  64:Code\Common/utc.c **** 		tm.Hour =  day / 3600UL;
 101              		.loc 1 64 0
 102 0044 0293     		str	r3, [sp, #8]
 103              	.LVL12:
 104              	.LBE14:
 105              	.LBB15:
 106              		.loc 1 68 0
 107 0046 FFF7FEFF 		bl	__aeabi_uidiv
 108              	.LVL13:
  69:Code\Common/utc.c **** 		uint8 monthLen;
  70:Code\Common/utc.c **** 		tm.Year = BeginYear;
  71:Code\Common/utc.c **** 
  72:Code\Common/utc.c **** 		while (numDays >= YearLength(tm.Year))
 109              		.loc 1 72 0
 110 004a 344D     		ldr	r5, .L28+4
 111              	.LVL14:
  68:Code\Common/utc.c **** 		uint8 monthLen;
 112              		.loc 1 68 0
 113 004c 84B2     		uxth	r4, r0
 114              	.LVL15:
 115              	.L2:
 116              		.loc 1 72 0
 117 004e C821     		mov	r1, #200
 118 0050 281C     		mov	r0, r5
 119 0052 4900     		lsl	r1, r1, #1
 120 0054 FFF7FEFF 		bl	__aeabi_uidivmod
 121              	.LVL16:
 122 0058 8FB2     		uxth	r7, r1
 123 005a 002F     		cmp	r7, #0
 124 005c 3DD0     		beq	.L4
 125              		.loc 1 72 0 is_stmt 0 discriminator 2
 126 005e 281C     		mov	r0, r5
 127 0060 6421     		mov	r1, #100
 128 0062 FFF7FEFF 		bl	__aeabi_uidivmod
 129              	.LVL17:
 130 0066 89B2     		uxth	r1, r1
 131 0068 0029     		cmp	r1, #0
 132 006a 3DD0     		beq	.L5
 133              		.loc 1 72 0 discriminator 3
 134 006c 0320     		mov	r0, #3
 135 006e 2840     		and	r0, r5
 136 0070 431E     		sub	r3, r0, #1
 137 0072 9841     		sbc	r0, r0, r3
 138 0074 B723     		mov	r3, #183
 139 0076 5B00     		lsl	r3, r3, #1
 140 0078 181A     		sub	r0, r3, r0
 141 007a 8442     		cmp	r4, r0
 142 007c 04DB     		blt	.L13
 143              	.L3:
  73:Code\Common/utc.c **** 		{
  74:Code\Common/utc.c **** 			numDays -= YearLength(tm.Year);
 144              		.loc 1 74 0 is_stmt 1 discriminator 8
 145 007e 241A     		sub	r4, r4, r0
 146              	.LVL18:
 147 0080 0135     		add	r5, r5, #1
 148              	.LVL19:
ARM GAS  C:\Users\Administrator\AppData\Local\Temp\cct0CKSV.s 			page 5


 149 0082 A4B2     		uxth	r4, r4
 150              	.LVL20:
 151 0084 ADB2     		uxth	r5, r5
 152 0086 E2E7     		b	.L2
 153              	.LVL21:
 154              	.L13:
  75:Code\Common/utc.c **** 			tm.Year++;
  76:Code\Common/utc.c **** 		}
  77:Code\Common/utc.c **** 
  78:Code\Common/utc.c **** 		tm.Mon = 0;
  79:Code\Common/utc.c **** 
  80:Code\Common/utc.c **** 		monthLen = MonthLength(IsLeapYear(tm.Year), tm.Mon);
  81:Code\Common/utc.c **** 
  82:Code\Common/utc.c **** 		while (numDays >= monthLen)
  83:Code\Common/utc.c **** 		{
  84:Code\Common/utc.c **** 			numDays -= monthLen;
  85:Code\Common/utc.c **** 			tm.Mon++;
  86:Code\Common/utc.c **** 
  87:Code\Common/utc.c **** 			monthLen = MonthLength(IsLeapYear(tm.Year), tm.Mon);
 155              		.loc 1 87 0
 156 0088 281C     		mov	r0, r5
 157 008a 6421     		mov	r1, #100
 158 008c FFF7FEFF 		bl	__aeabi_uidivmod
 159              	.LVL22:
 160 0090 8BB2     		uxth	r3, r1
 161 0092 0393     		str	r3, [sp, #12]
 162 0094 1F20     		mov	r0, #31
 163 0096 0023     		mov	r3, #0
 164              	.LVL23:
 165              	.L7:
  82:Code\Common/utc.c **** 		{
 166              		.loc 1 82 0
 167 0098 80B2     		uxth	r0, r0
 168              	.LVL24:
 169 009a 5A1C     		add	r2, r3, #1
 170 009c 8442     		cmp	r4, r0
 171 009e 2AD3     		bcc	.L27
  84:Code\Common/utc.c **** 			tm.Mon++;
 172              		.loc 1 84 0
 173 00a0 201A     		sub	r0, r4, r0
 174 00a2 84B2     		uxth	r4, r0
 175              	.LVL25:
  85:Code\Common/utc.c **** 
 176              		.loc 1 85 0
 177 00a4 D2B2     		uxtb	r2, r2
 178              	.LVL26:
 179              		.loc 1 87 0
 180 00a6 0120     		mov	r0, #1
 181 00a8 002F     		cmp	r7, #0
 182 00aa 08D0     		beq	.L8
 183              		.loc 1 87 0 is_stmt 0 discriminator 2
 184 00ac 0020     		mov	r0, #0
 185 00ae 0399     		ldr	r1, [sp, #12]
 186 00b0 8142     		cmp	r1, r0
 187 00b2 04D0     		beq	.L8
 188              		.loc 1 87 0 discriminator 3
 189 00b4 0330     		add	r0, r0, #3
ARM GAS  C:\Users\Administrator\AppData\Local\Temp\cct0CKSV.s 			page 6


 190 00b6 2840     		and	r0, r5
 191 00b8 4142     		neg	r1, r0
 192 00ba 4141     		adc	r1, r1, r0
 193 00bc 081C     		mov	r0, r1
 194              	.L8:
 195              	.LVL27:
 196              	.LBB10:
 197              	.LBB11:
  27:Code\Common/utc.c **** 	}
 198              		.loc 1 27 0 is_stmt 1 discriminator 8
 199 00be 1C30     		add	r0, r0, #28
 200              	.LVL28:
 201 00c0 C0B2     		uxtb	r0, r0
  25:Code\Common/utc.c **** 	{
 202              		.loc 1 25 0 discriminator 8
 203 00c2 012A     		cmp	r2, #1
 204 00c4 07D0     		beq	.L10
  31:Code\Common/utc.c **** 		{
 205              		.loc 1 31 0
 206 00c6 062A     		cmp	r2, #6
 207 00c8 00D8     		bhi	.L11
 208 00ca 131C     		mov	r3, r2
 209              	.L11:
 210              	.LVL29:
  36:Code\Common/utc.c **** 		{
 211              		.loc 1 36 0
 212 00cc 0120     		mov	r0, #1
 213 00ce 0340     		and	r3, r0
  38:Code\Common/utc.c **** 		}
 214              		.loc 1 38 0
 215 00d0 5842     		neg	r0, r3
 216 00d2 5841     		adc	r0, r0, r3
 217 00d4 1E30     		add	r0, r0, #30
 218              	.L10:
 219              	.LBE11:
 220              	.LBE10:
 221 00d6 131C     		mov	r3, r2
 222 00d8 DEE7     		b	.L7
 223              	.LVL30:
 224              	.L4:
  72:Code\Common/utc.c **** 		{
 225              		.loc 1 72 0
 226 00da 6E23     		mov	r3, #110
 227 00dc FF33     		add	r3, r3, #255
 228 00de 9C42     		cmp	r4, r3
 229 00e0 D2DD     		ble	.L13
  74:Code\Common/utc.c **** 			tm.Year++;
 230              		.loc 1 74 0
 231 00e2 B720     		mov	r0, #183
 232 00e4 4000     		lsl	r0, r0, #1
 233 00e6 CAE7     		b	.L3
 234              	.L5:
  72:Code\Common/utc.c **** 		{
 235              		.loc 1 72 0
 236 00e8 B623     		mov	r3, #182
 237 00ea 5B00     		lsl	r3, r3, #1
 238 00ec 9C42     		cmp	r4, r3
ARM GAS  C:\Users\Administrator\AppData\Local\Temp\cct0CKSV.s 			page 7


 239 00ee CBDD     		ble	.L13
  74:Code\Common/utc.c **** 			tm.Year++;
 240              		.loc 1 74 0
 241 00f0 6E20     		mov	r0, #110
 242 00f2 FF30     		add	r0, r0, #255
 243 00f4 C3E7     		b	.L3
 244              	.L27:
 245              	.LVL31:
 246              	.LBE15:
  88:Code\Common/utc.c **** 		}
  89:Code\Common/utc.c **** 
  90:Code\Common/utc.c **** 		tm.Day = numDays;
  91:Code\Common/utc.c **** 	}
  92:Code\Common/utc.c **** 	
  93:Code\Common/utc.c **** 	tm.Mon++;
  94:Code\Common/utc.c **** 	tm.Day++;
  95:Code\Common/utc.c **** 	
  96:Code\Common/utc.c **** 	return tm;
 247              		.loc 1 96 0
 248 00f6 6B46     		mov	r3, sp
 249 00f8 1B7A     		ldrb	r3, [r3, #8]
  97:Code\Common/utc.c **** }
 250              		.loc 1 97 0
 251 00fa 301C     		mov	r0, r6
  96:Code\Common/utc.c **** }
 252              		.loc 1 96 0
 253 00fc 3371     		strb	r3, [r6, #4]
 254 00fe 6B46     		mov	r3, sp
 255 0100 1B79     		ldrb	r3, [r3, #4]
  94:Code\Common/utc.c **** 	
 256              		.loc 1 94 0
 257 0102 0134     		add	r4, r4, #1
 258              	.LVL32:
  96:Code\Common/utc.c **** }
 259              		.loc 1 96 0
 260 0104 7371     		strb	r3, [r6, #5]
 261 0106 6B46     		mov	r3, sp
 262 0108 1B78     		ldrb	r3, [r3]
 263 010a 3580     		strh	r5, [r6]
 264 010c B270     		strb	r2, [r6, #2]
 265 010e F470     		strb	r4, [r6, #3]
 266 0110 B371     		strb	r3, [r6, #6]
 267              		.loc 1 97 0
 268 0112 05B0     		add	sp, sp, #20
 269              	.LVL33:
 270              		@ sp needed
 271              	.LVL34:
 272              	.LVL35:
 273 0114 F0BD     		pop	{r4, r5, r6, r7, pc}
 274              	.L29:
 275 0116 C046     		.align	2
 276              	.L28:
 277 0118 80510100 		.word	86400
 278 011c B2070000 		.word	1970
 279              		.cfi_endproc
 280              	.LFE3:
 281              		.size	UtcTime_ConvertTo_Time, .-UtcTime_ConvertTo_Time
ARM GAS  C:\Users\Administrator\AppData\Local\Temp\cct0CKSV.s 			page 8


 282              		.section	.text.Time_ConvertTo_UtcTime,"ax",%progbits
 283              		.align	1
 284              		.global	Time_ConvertTo_UtcTime
 285              		.code	16
 286              		.thumb_func
 287              		.type	Time_ConvertTo_UtcTime, %function
 288              	Time_ConvertTo_UtcTime:
 289              	.LFB4:
  98:Code\Common/utc.c **** 
  99:Code\Common/utc.c **** //*************************************************************************************************
 100:Code\Common/utc.c **** // Function name	: Time_ConvertTo_UtcTime
 101:Code\Common/utc.c **** // Description		: 将日历时间转化为世界时间
 102:Code\Common/utc.c **** // Parameter		: tm		: 日历时间
 103:Code\Common/utc.c **** //					: secTime	: 世界时间
 104:Code\Common/utc.c **** // Return			: 当前月的天数
 105:Code\Common/utc.c **** //-------------------------------------------------------------------------------------------------
 106:Code\Common/utc.c **** // Info				: 算法输入月份范围为[0-11]，天数范围为[0-30]，函数头部将[1-12]和[1-31]分别强制转化.
 107:Code\Common/utc.c **** //*************************************************************************************************
 108:Code\Common/utc.c **** UTCTime Time_ConvertTo_UtcTime(TimeInfo tm)
 109:Code\Common/utc.c **** {
 290              		.loc 1 109 0
 291              		.cfi_startproc
 292 0000 F0B5     		push	{r4, r5, r6, r7, lr}
 293              		.cfi_def_cfa_offset 20
 294              		.cfi_offset 4, -20
 295              		.cfi_offset 5, -16
 296              		.cfi_offset 6, -12
 297              		.cfi_offset 7, -8
 298              		.cfi_offset 14, -4
 299 0002 84B2     		uxth	r4, r0
 300              	.LVL36:
 301 0004 061C     		mov	r6, r0
 302 0006 050C     		lsr	r5, r0, #16
 110:Code\Common/utc.c **** 	UTCTime seconds;
 111:Code\Common/utc.c **** 	
 112:Code\Common/utc.c **** 	tm.Mon--;
 113:Code\Common/utc.c **** 	tm.Day--;
 114:Code\Common/utc.c **** 	
 115:Code\Common/utc.c **** 	seconds = (((tm.Hour * 60UL) + tm.Min) * 60UL) + tm.Sec;
 303              		.loc 1 115 0
 304 0008 3C20     		mov	r0, #60
 109:Code\Common/utc.c **** 	UTCTime seconds;
 305              		.loc 1 109 0
 306 000a 0B1C     		mov	r3, r1
 307 000c 0A1C     		add	r2, r1, #0
 308              		.loc 1 115 0
 309 000e D7B2     		uxtb	r7, r2
 310 0010 4743     		mul	r7, r0
 109:Code\Common/utc.c **** 	UTCTime seconds;
 311              		.loc 1 109 0
 312 0012 1B0A     		lsr	r3, r3, #8
 313              		.loc 1 115 0
 314 0014 DAB2     		uxtb	r2, r3
 315 0016 BB18     		add	r3, r7, r2
 316 0018 4343     		mul	r3, r0
 109:Code\Common/utc.c **** 	UTCTime seconds;
 317              		.loc 1 109 0
ARM GAS  C:\Users\Administrator\AppData\Local\Temp\cct0CKSV.s 			page 9


 318 001a 090C     		lsr	r1, r1, #16
 319              		.loc 1 115 0
 320 001c C9B2     		uxtb	r1, r1
 321 001e 5B18     		add	r3, r3, r1
 322              	.LBB21:
 323              	.LBB22:
 116:Code\Common/utc.c **** 
 117:Code\Common/utc.c **** 	{
 118:Code\Common/utc.c **** 		uint16 days = tm.Day;
 119:Code\Common/utc.c **** 		{
 120:Code\Common/utc.c **** 			int8 month = tm.Mon;
 121:Code\Common/utc.c **** 			while (--month >= 0)
 122:Code\Common/utc.c **** 			{
 123:Code\Common/utc.c **** 				days += MonthLength(IsLeapYear(tm.Year), month);
 324              		.loc 1 123 0
 325 0020 C821     		mov	r1, #200
 326              	.LBE22:
 327              	.LBE21:
 109:Code\Common/utc.c **** 	UTCTime seconds;
 328              		.loc 1 109 0
 329 0022 85B0     		sub	sp, sp, #20
 330              		.cfi_def_cfa_offset 40
 331              	.LVL37:
 332              	.LBB29:
 333              	.LBB25:
 334              		.loc 1 123 0
 335 0024 201C     		mov	r0, r4
 336 0026 4900     		lsl	r1, r1, #1
 337              	.LBE25:
 338              	.LBE29:
 115:Code\Common/utc.c **** 
 339              		.loc 1 115 0
 340 0028 0193     		str	r3, [sp, #4]
 341              	.LVL38:
 342              	.LBB30:
 343              	.LBB26:
 344              		.loc 1 123 0
 345 002a FFF7FEFF 		bl	__aeabi_uidivmod
 346              	.LVL39:
 347 002e 201C     		mov	r0, r4
 348 0030 8FB2     		uxth	r7, r1
 349 0032 6421     		mov	r1, #100
 350 0034 FFF7FEFF 		bl	__aeabi_uidivmod
 351              	.LVL40:
 352              	.LBE26:
 353              	.LBE30:
 113:Code\Common/utc.c **** 	
 354              		.loc 1 113 0
 355 0038 360E     		lsr	r6, r6, #24
 356 003a 013E     		sub	r6, r6, #1
 357 003c 023D     		sub	r5, r5, #2
 358              	.LBB31:
 118:Code\Common/utc.c **** 		{
 359              		.loc 1 118 0
 360 003e F6B2     		uxtb	r6, r6
 361              	.LVL41:
 362              	.LBB27:
ARM GAS  C:\Users\Administrator\AppData\Local\Temp\cct0CKSV.s 			page 10


 363              		.loc 1 123 0
 364 0040 89B2     		uxth	r1, r1
 365 0042 EDB2     		uxtb	r5, r5
 366              	.LVL42:
 367              	.L31:
 121:Code\Common/utc.c **** 			{
 368              		.loc 1 121 0
 369 0044 6BB2     		sxtb	r3, r5
 370 0046 281C     		mov	r0, r5
 371              	.LVL43:
 372 0048 002B     		cmp	r3, #0
 373 004a 32DB     		blt	.L37
 374              		.loc 1 123 0
 375 004c 0123     		mov	r3, #1
 376 004e 002F     		cmp	r7, #0
 377 0050 06D0     		beq	.L32
 378              		.loc 1 123 0 is_stmt 0 discriminator 2
 379 0052 0023     		mov	r3, #0
 380 0054 9942     		cmp	r1, r3
 381 0056 03D0     		beq	.L32
 382              		.loc 1 123 0 discriminator 3
 383 0058 0333     		add	r3, r3, #3
 384 005a 2340     		and	r3, r4
 385 005c 5A42     		neg	r2, r3
 386 005e 5341     		adc	r3, r3, r2
 387              	.L32:
 388              	.LVL44:
 389              	.LBB23:
 390              	.LBB24:
  27:Code\Common/utc.c **** 	}
 391              		.loc 1 27 0 is_stmt 1 discriminator 8
 392 0060 1C33     		add	r3, r3, #28
 393              	.LVL45:
 394 0062 6A1E     		sub	r2, r5, #1
 395 0064 DBB2     		uxtb	r3, r3
  25:Code\Common/utc.c **** 	{
 396              		.loc 1 25 0 discriminator 8
 397 0066 012D     		cmp	r5, #1
 398 0068 07D0     		beq	.L46
  31:Code\Common/utc.c **** 		{
 399              		.loc 1 31 0
 400 006a 062D     		cmp	r5, #6
 401 006c 00D9     		bls	.L35
 402 006e D0B2     		uxtb	r0, r2
 403              	.LVL46:
 404              	.L35:
  36:Code\Common/utc.c **** 		{
 405              		.loc 1 36 0
 406 0070 0123     		mov	r3, #1
 407 0072 0340     		and	r3, r0
  38:Code\Common/utc.c **** 		}
 408              		.loc 1 38 0
 409 0074 5842     		neg	r0, r3
 410 0076 4341     		adc	r3, r3, r0
 411              	.LVL47:
 412 0078 1E33     		add	r3, r3, #30
 413              	.L46:
ARM GAS  C:\Users\Administrator\AppData\Local\Temp\cct0CKSV.s 			page 11


 414              	.LBE24:
 415              	.LBE23:
 416              		.loc 1 123 0 discriminator 8
 417 007a F618     		add	r6, r6, r3
 418              	.LVL48:
 419 007c B6B2     		uxth	r6, r6
 420              	.LVL49:
 421 007e D5B2     		uxtb	r5, r2
 422              	.LVL50:
 423 0080 E0E7     		b	.L31
 424              	.LVL51:
 425              	.L39:
 426              	.LBE27:
 427              	.LBB28:
 124:Code\Common/utc.c **** 			}
 125:Code\Common/utc.c **** 		}
 126:Code\Common/utc.c **** 
 127:Code\Common/utc.c **** 		{
 128:Code\Common/utc.c **** 			uint16 year = tm.Year;
 129:Code\Common/utc.c **** 			while (--year >= BeginYear)
 130:Code\Common/utc.c **** 			{
 131:Code\Common/utc.c **** 				days += YearLength(year);
 428              		.loc 1 131 0
 429 0082 C821     		mov	r1, #200
 430 0084 201C     		mov	r0, r4
 431 0086 4900     		lsl	r1, r1, #1
 432 0088 FFF7FEFF 		bl	__aeabi_uidivmod
 433              	.LVL52:
 434 008c 89B2     		uxth	r1, r1
 435 008e 0029     		cmp	r1, #0
 436 0090 15D0     		beq	.L43
 437              		.loc 1 131 0 is_stmt 0 discriminator 2
 438 0092 201C     		mov	r0, r4
 439 0094 6421     		mov	r1, #100
 440 0096 FFF7FEFF 		bl	__aeabi_uidivmod
 441              	.LVL53:
 442 009a 89B2     		uxth	r1, r1
 443 009c 0029     		cmp	r1, #0
 444 009e 11D0     		beq	.L44
 445              		.loc 1 131 0 discriminator 3
 446 00a0 0320     		mov	r0, #3
 447 00a2 2040     		and	r0, r4
 448 00a4 431E     		sub	r3, r0, #1
 449 00a6 9841     		sbc	r0, r0, r3
 450 00a8 B723     		mov	r3, #183
 451 00aa 5B00     		lsl	r3, r3, #1
 452 00ac 181A     		sub	r0, r3, r0
 453              	.L38:
 454              		.loc 1 131 0 discriminator 8
 455 00ae 8619     		add	r6, r0, r6
 456              	.LVL54:
 457 00b0 B6B2     		uxth	r6, r6
 458              	.LVL55:
 459              	.L37:
 129:Code\Common/utc.c **** 			{
 460              		.loc 1 129 0 is_stmt 1
 461 00b2 013C     		sub	r4, r4, #1
ARM GAS  C:\Users\Administrator\AppData\Local\Temp\cct0CKSV.s 			page 12


 462              	.LVL56:
 463 00b4 084B     		ldr	r3, .L50
 464 00b6 A4B2     		uxth	r4, r4
 465              	.LVL57:
 466 00b8 9C42     		cmp	r4, r3
 467 00ba E2D8     		bhi	.L39
 468 00bc 05E0     		b	.L49
 469              	.L43:
 470              		.loc 1 131 0
 471 00be B720     		mov	r0, #183
 472 00c0 4000     		lsl	r0, r0, #1
 473 00c2 F4E7     		b	.L38
 474              	.L44:
 475 00c4 6E20     		mov	r0, #110
 476 00c6 FF30     		add	r0, r0, #255
 477 00c8 F1E7     		b	.L38
 478              	.L49:
 479              	.LVL58:
 480              	.LBE28:
 132:Code\Common/utc.c **** 			}
 133:Code\Common/utc.c **** 		}
 134:Code\Common/utc.c **** 
 135:Code\Common/utc.c **** 		seconds += (days * OneDaySeconds);
 481              		.loc 1 135 0
 482 00ca 0448     		ldr	r0, .L50+4
 483 00cc 019B     		ldr	r3, [sp, #4]
 484 00ce 4643     		mul	r6, r0
 485              	.LVL59:
 486 00d0 9819     		add	r0, r3, r6
 487              	.LBE31:
 136:Code\Common/utc.c **** 	}
 137:Code\Common/utc.c **** 	
 138:Code\Common/utc.c **** 	//seconds -= TimeZone * 3600;
 139:Code\Common/utc.c **** 	
 140:Code\Common/utc.c **** 	return (seconds);
 141:Code\Common/utc.c **** }
 488              		.loc 1 141 0
 489 00d2 05B0     		add	sp, sp, #20
 490              		@ sp needed
 491              	.LVL60:
 492              	.LVL61:
 493 00d4 F0BD     		pop	{r4, r5, r6, r7, pc}
 494              	.L51:
 495 00d6 C046     		.align	2
 496              	.L50:
 497 00d8 B1070000 		.word	1969
 498 00dc 80510100 		.word	86400
 499              		.cfi_endproc
 500              	.LFE4:
 501              		.size	Time_ConvertTo_UtcTime, .-Time_ConvertTo_UtcTime
 502              		.text
 503              	.Letext0:
 504              		.file 2 "Generated_Source\\PSoC4/cytypes.h"
 505              		.file 3 "Code\\Common\\config.h"