ARM GAS  C:\Users\Administrator\AppData\Local\Temp\cc04BT5m.s 			page 1


   1              		.cpu cortex-m0
   2              		.fpu softvfp
   3              		.eabi_attribute 20, 1
   4              		.eabi_attribute 21, 1
   5              		.eabi_attribute 23, 3
   6              		.eabi_attribute 24, 1
   7              		.eabi_attribute 25, 1
   8              		.eabi_attribute 26, 1
   9              		.eabi_attribute 30, 4
  10              		.eabi_attribute 34, 0
  11              		.eabi_attribute 18, 4
  12              		.code	16
  13              		.file	"voice.c"
  14              		.text
  15              	.Ltext0:
  16              		.cfi_sections	.debug_frame
  17              		.section	.text.BeepPlay_WaitTime,"ax",%progbits
  18              		.align	1
  19              		.global	BeepPlay_WaitTime
  20              		.code	16
  21              		.thumb_func
  22              		.type	BeepPlay_WaitTime, %function
  23              	BeepPlay_WaitTime:
  24              	.LFB63:
  25              		.file 1 "Code\\UserApp\\Voice\\voice.c"
   1:Code\UserApp\Voice/voice.c **** //*************************************************************************************************
   2:Code\UserApp\Voice/voice.c **** // File name		: voice.c
   3:Code\UserApp\Voice/voice.c **** // Description		: 语音的相关函数
   4:Code\UserApp\Voice/voice.c **** // Author			: Keno
   5:Code\UserApp\Voice/voice.c **** // Date				: 2016.8.8
   6:Code\UserApp\Voice/voice.c **** // Version			: V02
   7:Code\UserApp\Voice/voice.c **** //-------------------------------------------------------------------------------------------------
   8:Code\UserApp\Voice/voice.c **** // Info				: 
   9:Code\UserApp\Voice/voice.c **** //*************************************************************************************************
  10:Code\UserApp\Voice/voice.c **** #include "voice.h"
  11:Code\UserApp\Voice/voice.c **** #include "common.h"
  12:Code\UserApp\Voice/voice.c **** 
  13:Code\UserApp\Voice/voice.c **** 
  14:Code\UserApp\Voice/voice.c **** //********************************************** 变量声明 *************************************
  15:Code\UserApp\Voice/voice.c **** vINT32U  BeepDelay_TimeOut;
  16:Code\UserApp\Voice/voice.c **** 
  17:Code\UserApp\Voice/voice.c **** 
  18:Code\UserApp\Voice/voice.c **** //*********************************************** 宏定义 ***************************************
  19:Code\UserApp\Voice/voice.c **** #define Sound_DO		956				//频率2092
  20:Code\UserApp\Voice/voice.c **** #define Sound_RE		850				//频率2350
  21:Code\UserApp\Voice/voice.c **** #define Sound_MI		758				//频率2636
  22:Code\UserApp\Voice/voice.c **** #define Sound_FA		716				//频率2794
  23:Code\UserApp\Voice/voice.c **** #define Sound_SO		668				//频率3136
  24:Code\UserApp\Voice/voice.c **** #define Sound_LA		284				//频率3520
  25:Code\UserApp\Voice/voice.c **** #define Sound_SI		253				//频率3952
  26:Code\UserApp\Voice/voice.c ****     
  27:Code\UserApp\Voice/voice.c **** #define Sound_DI		333				//频率3000
  28:Code\UserApp\Voice/voice.c **** #define Sound_DING		999			    //频率1500   
  29:Code\UserApp\Voice/voice.c **** 
  30:Code\UserApp\Voice/voice.c **** 
  31:Code\UserApp\Voice/voice.c **** 
  32:Code\UserApp\Voice/voice.c **** //*************************************************************************************************
ARM GAS  C:\Users\Administrator\AppData\Local\Temp\cc04BT5m.s 			page 2


  33:Code\UserApp\Voice/voice.c **** // Function name	: Beep_Delay_50ms
  34:Code\UserApp\Voice/voice.c **** // Description		: 蜂鸣器播放的计时函数
  35:Code\UserApp\Voice/voice.c **** // Parameter		: none
  36:Code\UserApp\Voice/voice.c **** // Return			: none
  37:Code\UserApp\Voice/voice.c **** //-------------------------------------------------------------------------------------------------
  38:Code\UserApp\Voice/voice.c **** // Info				:
  39:Code\UserApp\Voice/voice.c **** //*************************************************************************************************
  40:Code\UserApp\Voice/voice.c **** void BeepPlay_WaitTime(void)
  41:Code\UserApp\Voice/voice.c **** {
  26              		.loc 1 41 0
  27              		.cfi_startproc
  42:Code\UserApp\Voice/voice.c ****     if (BeepDelay_TimeOut > 0)
  28              		.loc 1 42 0
  29 0000 034B     		ldr	r3, .L7
  30 0002 1A68     		ldr	r2, [r3]
  31 0004 002A     		cmp	r2, #0
  32 0006 02D0     		beq	.L1
  43:Code\UserApp\Voice/voice.c **** 	{
  44:Code\UserApp\Voice/voice.c **** 		BeepDelay_TimeOut--;
  33              		.loc 1 44 0
  34 0008 1A68     		ldr	r2, [r3]
  35 000a 013A     		sub	r2, r2, #1
  36 000c 1A60     		str	r2, [r3]
  37              	.L1:
  45:Code\UserApp\Voice/voice.c **** 	}
  46:Code\UserApp\Voice/voice.c **** }
  38              		.loc 1 46 0
  39              		@ sp needed
  40 000e 7047     		bx	lr
  41              	.L8:
  42              		.align	2
  43              	.L7:
  44 0010 00000000 		.word	BeepDelay_TimeOut
  45              		.cfi_endproc
  46              	.LFE63:
  47              		.size	BeepPlay_WaitTime, .-BeepPlay_WaitTime
  48              		.section	.text.BeepPlay_Delay,"ax",%progbits
  49              		.align	1
  50              		.global	BeepPlay_Delay
  51              		.code	16
  52              		.thumb_func
  53              		.type	BeepPlay_Delay, %function
  54              	BeepPlay_Delay:
  55              	.LFB64:
  47:Code\UserApp\Voice/voice.c **** 
  48:Code\UserApp\Voice/voice.c **** //*************************************************************************************************
  49:Code\UserApp\Voice/voice.c **** // Function name	: BeepPlay_Delay
  50:Code\UserApp\Voice/voice.c **** // Description		: Beep的播报延时函数
  51:Code\UserApp\Voice/voice.c **** // Parameter		: cnt : 延时时间
  52:Code\UserApp\Voice/voice.c **** // Return			: none
  53:Code\UserApp\Voice/voice.c **** //-------------------------------------------------------------------------------------------------
  54:Code\UserApp\Voice/voice.c **** // 说明				: 1ms
  55:Code\UserApp\Voice/voice.c **** //*************************************************************************************************
  56:Code\UserApp\Voice/voice.c **** void BeepPlay_Delay(uint16_t cnt)
  57:Code\UserApp\Voice/voice.c **** {
  56              		.loc 1 57 0
  57              		.cfi_startproc
ARM GAS  C:\Users\Administrator\AppData\Local\Temp\cc04BT5m.s 			page 3


  58              	.LVL0:
  58:Code\UserApp\Voice/voice.c ****     BeepDelay_TimeOut = cnt;
  59              		.loc 1 58 0
  60 0000 054B     		ldr	r3, .L13
  57:Code\UserApp\Voice/voice.c ****     BeepDelay_TimeOut = cnt;
  61              		.loc 1 57 0
  62 0002 10B5     		push	{r4, lr}
  63              		.cfi_def_cfa_offset 8
  64              		.cfi_offset 4, -8
  65              		.cfi_offset 14, -4
  66 0004 1C1C     		mov	r4, r3
  67              		.loc 1 58 0
  68 0006 1860     		str	r0, [r3]
  69              	.LVL1:
  70              	.L10:
  59:Code\UserApp\Voice/voice.c ****     while (BeepDelay_TimeOut > 0)
  71              		.loc 1 59 0
  72 0008 2368     		ldr	r3, [r4]
  73 000a 002B     		cmp	r3, #0
  74 000c 02D0     		beq	.L12
  75              	.LBB6:
  60:Code\UserApp\Voice/voice.c ****     {
  61:Code\UserApp\Voice/voice.c ****         CyBle_ProcessEvents();
  76              		.loc 1 61 0
  77 000e FFF7FEFF 		bl	CyBle_ProcessEvents
  78              	.LVL2:
  79 0012 F9E7     		b	.L10
  80              	.L12:
  81              	.LBE6:
  62:Code\UserApp\Voice/voice.c ****     }
  63:Code\UserApp\Voice/voice.c **** }
  82              		.loc 1 63 0
  83              		@ sp needed
  84 0014 10BD     		pop	{r4, pc}
  85              	.L14:
  86 0016 C046     		.align	2
  87              	.L13:
  88 0018 00000000 		.word	BeepDelay_TimeOut
  89              		.cfi_endproc
  90              	.LFE64:
  91              		.size	BeepPlay_Delay, .-BeepPlay_Delay
  92              		.section	.text.play_single,"ax",%progbits
  93              		.align	1
  94              		.global	play_single
  95              		.code	16
  96              		.thumb_func
  97              		.type	play_single, %function
  98              	play_single:
  99              	.LFB65:
  64:Code\UserApp\Voice/voice.c **** 
  65:Code\UserApp\Voice/voice.c **** //*************************************************************************************************
  66:Code\UserApp\Voice/voice.c **** // Function name	: PowerOn_Play
  67:Code\UserApp\Voice/voice.c **** // Description		: play_single
  68:Code\UserApp\Voice/voice.c **** // Parameter		: Sound:播放单音频率; delay_50ms:延时时间50ms基数
  69:Code\UserApp\Voice/voice.c **** // Return			: none
  70:Code\UserApp\Voice/voice.c **** //-------------------------------------------------------------------------------------------------
  71:Code\UserApp\Voice/voice.c **** // 说明				: 
ARM GAS  C:\Users\Administrator\AppData\Local\Temp\cc04BT5m.s 			page 4


  72:Code\UserApp\Voice/voice.c **** //*************************************************************************************************
  73:Code\UserApp\Voice/voice.c **** void play_single(uint16_t Sound,uint16_t delay_1ms)
  74:Code\UserApp\Voice/voice.c **** {
 100              		.loc 1 74 0
 101              		.cfi_startproc
 102              	.LVL3:
 103 0000 38B5     		push	{r3, r4, r5, lr}
 104              		.cfi_def_cfa_offset 16
 105              		.cfi_offset 3, -16
 106              		.cfi_offset 4, -12
 107              		.cfi_offset 5, -8
 108              		.cfi_offset 14, -4
 109              		.loc 1 74 0
 110 0002 041C     		mov	r4, r0
 111 0004 0D1C     		mov	r5, r1
  75:Code\UserApp\Voice/voice.c **** 	TIMER_WriteCounter(0);
 112              		.loc 1 75 0
 113 0006 0020     		mov	r0, #0
 114              	.LVL4:
 115 0008 FFF7FEFF 		bl	TIMER_WriteCounter
 116              	.LVL5:
  76:Code\UserApp\Voice/voice.c ****     TIMER_WritePeriod(0);
 117              		.loc 1 76 0
 118 000c 0020     		mov	r0, #0
 119 000e FFF7FEFF 		bl	TIMER_WritePeriod
 120              	.LVL6:
  77:Code\UserApp\Voice/voice.c ****     TIMER_WriteCompare(0);
 121              		.loc 1 77 0
 122 0012 0020     		mov	r0, #0
 123 0014 FFF7FEFF 		bl	TIMER_WriteCompare
 124              	.LVL7:
  78:Code\UserApp\Voice/voice.c **** 	TIMER_Start();
 125              		.loc 1 78 0
 126 0018 FFF7FEFF 		bl	TIMER_Start
 127              	.LVL8:
  79:Code\UserApp\Voice/voice.c **** 	BeepPlay_Delay(3);
 128              		.loc 1 79 0
 129 001c 0320     		mov	r0, #3
 130 001e FFF7FEFF 		bl	BeepPlay_Delay
 131              	.LVL9:
  80:Code\UserApp\Voice/voice.c **** 	TIMER_Stop();
 132              		.loc 1 80 0
 133 0022 FFF7FEFF 		bl	TIMER_Stop
 134              	.LVL10:
  81:Code\UserApp\Voice/voice.c **** 	
  82:Code\UserApp\Voice/voice.c ****     TIMER_WriteCounter(0);
 135              		.loc 1 82 0
 136 0026 0020     		mov	r0, #0
 137 0028 FFF7FEFF 		bl	TIMER_WriteCounter
 138              	.LVL11:
  83:Code\UserApp\Voice/voice.c ****     TIMER_WritePeriod(Sound - 1);
 139              		.loc 1 83 0
 140 002c 601E     		sub	r0, r4, #1
  84:Code\UserApp\Voice/voice.c ****     TIMER_WriteCompare(Sound/2 -1);
 141              		.loc 1 84 0
 142 002e 6408     		lsr	r4, r4, #1
  83:Code\UserApp\Voice/voice.c ****     TIMER_WritePeriod(Sound - 1);
ARM GAS  C:\Users\Administrator\AppData\Local\Temp\cc04BT5m.s 			page 5


 143              		.loc 1 83 0
 144 0030 FFF7FEFF 		bl	TIMER_WritePeriod
 145              	.LVL12:
 146              		.loc 1 84 0
 147 0034 601E     		sub	r0, r4, #1
 148 0036 FFF7FEFF 		bl	TIMER_WriteCompare
 149              	.LVL13:
  85:Code\UserApp\Voice/voice.c ****     TIMER_Start();
 150              		.loc 1 85 0
 151 003a FFF7FEFF 		bl	TIMER_Start
 152              	.LVL14:
  86:Code\UserApp\Voice/voice.c ****     BeepPlay_Delay(delay_1ms);
 153              		.loc 1 86 0
 154 003e 281C     		mov	r0, r5
 155 0040 FFF7FEFF 		bl	BeepPlay_Delay
 156              	.LVL15:
  87:Code\UserApp\Voice/voice.c ****     TIMER_Stop();
  88:Code\UserApp\Voice/voice.c **** }
 157              		.loc 1 88 0
 158              		@ sp needed
  87:Code\UserApp\Voice/voice.c ****     TIMER_Stop();
 159              		.loc 1 87 0
 160 0044 FFF7FEFF 		bl	TIMER_Stop
 161              	.LVL16:
 162              		.loc 1 88 0
 163 0048 38BD     		pop	{r3, r4, r5, pc}
 164              		.cfi_endproc
 165              	.LFE65:
 166              		.size	play_single, .-play_single
 167              		.section	.text.System_ShortDI_Play,"ax",%progbits
 168              		.align	1
 169              		.global	System_ShortDI_Play
 170              		.code	16
 171              		.thumb_func
 172              		.type	System_ShortDI_Play, %function
 173              	System_ShortDI_Play:
 174              	.LFB66:
  89:Code\UserApp\Voice/voice.c **** 
  90:Code\UserApp\Voice/voice.c **** //*************************************************************************************************
  91:Code\UserApp\Voice/voice.c **** // Function name	: System_ShortDI_Play
  92:Code\UserApp\Voice/voice.c **** // Description		: 短音
  93:Code\UserApp\Voice/voice.c **** // Parameter		: none
  94:Code\UserApp\Voice/voice.c **** // Return			: none
  95:Code\UserApp\Voice/voice.c **** //-------------------------------------------------------------------------------------------------
  96:Code\UserApp\Voice/voice.c **** // 说明				: 
  97:Code\UserApp\Voice/voice.c **** //*************************************************************************************************
  98:Code\UserApp\Voice/voice.c **** void System_ShortDI_Play(void)
  99:Code\UserApp\Voice/voice.c **** {
 175              		.loc 1 99 0
 176              		.cfi_startproc
 100:Code\UserApp\Voice/voice.c **** 	play_single(Sound_DI,200);
 177              		.loc 1 100 0
 178 0000 4E20     		mov	r0, #78
  99:Code\UserApp\Voice/voice.c **** 	play_single(Sound_DI,200);
 179              		.loc 1 99 0
 180 0002 08B5     		push	{r3, lr}
 181              		.cfi_def_cfa_offset 8
ARM GAS  C:\Users\Administrator\AppData\Local\Temp\cc04BT5m.s 			page 6


 182              		.cfi_offset 3, -8
 183              		.cfi_offset 14, -4
 184              		.loc 1 100 0
 185 0004 FF30     		add	r0, r0, #255
 186 0006 C821     		mov	r1, #200
 187 0008 FFF7FEFF 		bl	play_single
 188              	.LVL17:
 101:Code\UserApp\Voice/voice.c **** }
 189              		.loc 1 101 0
 190              		@ sp needed
 191 000c 08BD     		pop	{r3, pc}
 192              		.cfi_endproc
 193              	.LFE66:
 194              		.size	System_ShortDI_Play, .-System_ShortDI_Play
 195              		.section	.text.System_LongDI_Play,"ax",%progbits
 196              		.align	1
 197              		.global	System_LongDI_Play
 198              		.code	16
 199              		.thumb_func
 200              		.type	System_LongDI_Play, %function
 201              	System_LongDI_Play:
 202              	.LFB67:
 102:Code\UserApp\Voice/voice.c **** 
 103:Code\UserApp\Voice/voice.c **** //*************************************************************************************************
 104:Code\UserApp\Voice/voice.c **** // Function name	: System_LongDI_Play
 105:Code\UserApp\Voice/voice.c **** // Description		: 长音
 106:Code\UserApp\Voice/voice.c **** // Parameter		: none
 107:Code\UserApp\Voice/voice.c **** // Return			: none
 108:Code\UserApp\Voice/voice.c **** //-------------------------------------------------------------------------------------------------
 109:Code\UserApp\Voice/voice.c **** // 说明				: 
 110:Code\UserApp\Voice/voice.c **** //*************************************************************************************************
 111:Code\UserApp\Voice/voice.c **** void System_LongDI_Play(void)
 112:Code\UserApp\Voice/voice.c **** {
 203              		.loc 1 112 0
 204              		.cfi_startproc
 113:Code\UserApp\Voice/voice.c **** 	play_single(Sound_DI,500);
 205              		.loc 1 113 0
 206 0000 4E20     		mov	r0, #78
 207 0002 FA21     		mov	r1, #250
 112:Code\UserApp\Voice/voice.c **** 	play_single(Sound_DI,500);
 208              		.loc 1 112 0
 209 0004 08B5     		push	{r3, lr}
 210              		.cfi_def_cfa_offset 8
 211              		.cfi_offset 3, -8
 212              		.cfi_offset 14, -4
 213              		.loc 1 113 0
 214 0006 FF30     		add	r0, r0, #255
 215 0008 4900     		lsl	r1, r1, #1
 216 000a FFF7FEFF 		bl	play_single
 217              	.LVL18:
 114:Code\UserApp\Voice/voice.c **** }
 218              		.loc 1 114 0
 219              		@ sp needed
 220 000e 08BD     		pop	{r3, pc}
 221              		.cfi_endproc
 222              	.LFE67:
 223              		.size	System_LongDI_Play, .-System_LongDI_Play
ARM GAS  C:\Users\Administrator\AppData\Local\Temp\cc04BT5m.s 			page 7


 224              		.section	.text.System_PowerOn_Play,"ax",%progbits
 225              		.align	1
 226              		.global	System_PowerOn_Play
 227              		.code	16
 228              		.thumb_func
 229              		.type	System_PowerOn_Play, %function
 230              	System_PowerOn_Play:
 231              	.LFB68:
 115:Code\UserApp\Voice/voice.c **** 
 116:Code\UserApp\Voice/voice.c **** //*************************************************************************************************
 117:Code\UserApp\Voice/voice.c **** // Function name	: System_PowerOn_Play
 118:Code\UserApp\Voice/voice.c **** // Description		: 上电播报音3-1
 119:Code\UserApp\Voice/voice.c **** // Parameter		: none
 120:Code\UserApp\Voice/voice.c **** // Return			: none
 121:Code\UserApp\Voice/voice.c **** //-------------------------------------------------------------------------------------------------
 122:Code\UserApp\Voice/voice.c **** // 说明				: 
 123:Code\UserApp\Voice/voice.c **** //*************************************************************************************************
 124:Code\UserApp\Voice/voice.c **** void System_PowerOn_Play(void)
 125:Code\UserApp\Voice/voice.c **** {
 232              		.loc 1 125 0
 233              		.cfi_startproc
 234 0000 70B5     		push	{r4, r5, r6, lr}
 235              		.cfi_def_cfa_offset 16
 236              		.cfi_offset 4, -16
 237              		.cfi_offset 5, -12
 238              		.cfi_offset 6, -8
 239              		.cfi_offset 14, -4
 126:Code\UserApp\Voice/voice.c ****     play_single(Sound_DO,200);
 240              		.loc 1 126 0
 241 0002 EF24     		mov	r4, #239
 242 0004 A400     		lsl	r4, r4, #2
 127:Code\UserApp\Voice/voice.c **** 	BeepPlay_Delay(50);
 128:Code\UserApp\Voice/voice.c **** 	play_single(Sound_RE,200);
 243              		.loc 1 128 0
 244 0006 154D     		ldr	r5, .L19
 126:Code\UserApp\Voice/voice.c ****     play_single(Sound_DO,200);
 245              		.loc 1 126 0
 246 0008 201C     		mov	r0, r4
 247 000a C821     		mov	r1, #200
 248 000c FFF7FEFF 		bl	play_single
 249              	.LVL19:
 127:Code\UserApp\Voice/voice.c **** 	BeepPlay_Delay(50);
 250              		.loc 1 127 0
 251 0010 3220     		mov	r0, #50
 252 0012 FFF7FEFF 		bl	BeepPlay_Delay
 253              	.LVL20:
 129:Code\UserApp\Voice/voice.c **** 	BeepPlay_Delay(50);
 130:Code\UserApp\Voice/voice.c ****     play_single(Sound_MI,200);
 254              		.loc 1 130 0
 255 0016 124E     		ldr	r6, .L19+4
 128:Code\UserApp\Voice/voice.c **** 	BeepPlay_Delay(50);
 256              		.loc 1 128 0
 257 0018 281C     		mov	r0, r5
 258 001a C821     		mov	r1, #200
 259 001c FFF7FEFF 		bl	play_single
 260              	.LVL21:
 129:Code\UserApp\Voice/voice.c **** 	BeepPlay_Delay(50);
ARM GAS  C:\Users\Administrator\AppData\Local\Temp\cc04BT5m.s 			page 8


 261              		.loc 1 129 0
 262 0020 3220     		mov	r0, #50
 263 0022 FFF7FEFF 		bl	BeepPlay_Delay
 264              	.LVL22:
 265              		.loc 1 130 0
 266 0026 301C     		mov	r0, r6
 267 0028 C821     		mov	r1, #200
 268 002a FFF7FEFF 		bl	play_single
 269              	.LVL23:
 131:Code\UserApp\Voice/voice.c **** 	BeepPlay_Delay(50);
 270              		.loc 1 131 0
 271 002e 3220     		mov	r0, #50
 272 0030 FFF7FEFF 		bl	BeepPlay_Delay
 273              	.LVL24:
 132:Code\UserApp\Voice/voice.c **** 	play_single(Sound_MI,200);
 274              		.loc 1 132 0
 275 0034 301C     		mov	r0, r6
 276 0036 C821     		mov	r1, #200
 277 0038 FFF7FEFF 		bl	play_single
 278              	.LVL25:
 133:Code\UserApp\Voice/voice.c **** 	BeepPlay_Delay(50);
 279              		.loc 1 133 0
 280 003c 3220     		mov	r0, #50
 281 003e FFF7FEFF 		bl	BeepPlay_Delay
 282              	.LVL26:
 134:Code\UserApp\Voice/voice.c **** 	play_single(Sound_RE,200);
 283              		.loc 1 134 0
 284 0042 281C     		mov	r0, r5
 285 0044 C821     		mov	r1, #200
 286 0046 FFF7FEFF 		bl	play_single
 287              	.LVL27:
 135:Code\UserApp\Voice/voice.c **** 	BeepPlay_Delay(50);
 288              		.loc 1 135 0
 289 004a 3220     		mov	r0, #50
 290 004c FFF7FEFF 		bl	BeepPlay_Delay
 291              	.LVL28:
 136:Code\UserApp\Voice/voice.c ****     play_single(Sound_DO,200);
 292              		.loc 1 136 0
 293 0050 201C     		mov	r0, r4
 294 0052 C821     		mov	r1, #200
 295 0054 FFF7FEFF 		bl	play_single
 296              	.LVL29:
 137:Code\UserApp\Voice/voice.c **** }
 297              		.loc 1 137 0
 298              		@ sp needed
 299 0058 70BD     		pop	{r4, r5, r6, pc}
 300              	.L20:
 301 005a C046     		.align	2
 302              	.L19:
 303 005c 52030000 		.word	850
 304 0060 F6020000 		.word	758
 305              		.cfi_endproc
 306              	.LFE68:
 307              		.size	System_PowerOn_Play, .-System_PowerOn_Play
 308              		.section	.text.System_PowerOn_Play_TestSer,"ax",%progbits
 309              		.align	1
 310              		.global	System_PowerOn_Play_TestSer
ARM GAS  C:\Users\Administrator\AppData\Local\Temp\cc04BT5m.s 			page 9


 311              		.code	16
 312              		.thumb_func
 313              		.type	System_PowerOn_Play_TestSer, %function
 314              	System_PowerOn_Play_TestSer:
 315              	.LFB69:
 138:Code\UserApp\Voice/voice.c **** 
 139:Code\UserApp\Voice/voice.c **** //*************************************************************************************************
 140:Code\UserApp\Voice/voice.c **** // Function name	: System_PowerOn_Play
 141:Code\UserApp\Voice/voice.c **** // Description		: 上电播报音3-1
 142:Code\UserApp\Voice/voice.c **** // Parameter		: none
 143:Code\UserApp\Voice/voice.c **** // Return			: none
 144:Code\UserApp\Voice/voice.c **** //-------------------------------------------------------------------------------------------------
 145:Code\UserApp\Voice/voice.c **** // 说明				: 
 146:Code\UserApp\Voice/voice.c **** //*************************************************************************************************
 147:Code\UserApp\Voice/voice.c **** void System_PowerOn_Play_TestSer(void)
 148:Code\UserApp\Voice/voice.c **** {
 316              		.loc 1 148 0
 317              		.cfi_startproc
 318 0000 10B5     		push	{r4, lr}
 319              		.cfi_def_cfa_offset 8
 320              		.cfi_offset 4, -8
 321              		.cfi_offset 14, -4
 149:Code\UserApp\Voice/voice.c ****     play_single(Sound_MI,200);
 322              		.loc 1 149 0
 323 0002 0B4C     		ldr	r4, .L22
 324 0004 C821     		mov	r1, #200
 325 0006 201C     		mov	r0, r4
 326 0008 FFF7FEFF 		bl	play_single
 327              	.LVL30:
 150:Code\UserApp\Voice/voice.c **** 	BeepPlay_Delay(50);
 328              		.loc 1 150 0
 329 000c 3220     		mov	r0, #50
 330 000e FFF7FEFF 		bl	BeepPlay_Delay
 331              	.LVL31:
 151:Code\UserApp\Voice/voice.c **** 	#if 1
 152:Code\UserApp\Voice/voice.c **** 	play_single(Sound_MI,200);
 332              		.loc 1 152 0
 333 0012 201C     		mov	r0, r4
 334 0014 C821     		mov	r1, #200
 335 0016 FFF7FEFF 		bl	play_single
 336              	.LVL32:
 153:Code\UserApp\Voice/voice.c **** 	BeepPlay_Delay(50);
 337              		.loc 1 153 0
 338 001a 3220     		mov	r0, #50
 339 001c FFF7FEFF 		bl	BeepPlay_Delay
 340              	.LVL33:
 154:Code\UserApp\Voice/voice.c ****     play_single(Sound_MI,200);
 341              		.loc 1 154 0
 342 0020 201C     		mov	r0, r4
 343 0022 C821     		mov	r1, #200
 344 0024 FFF7FEFF 		bl	play_single
 345              	.LVL34:
 155:Code\UserApp\Voice/voice.c **** 	BeepPlay_Delay(50);
 346              		.loc 1 155 0
 347 0028 3220     		mov	r0, #50
 348 002a FFF7FEFF 		bl	BeepPlay_Delay
 349              	.LVL35:
ARM GAS  C:\Users\Administrator\AppData\Local\Temp\cc04BT5m.s 			page 10


 156:Code\UserApp\Voice/voice.c **** 	#endif
 157:Code\UserApp\Voice/voice.c **** }
 350              		.loc 1 157 0
 351              		@ sp needed
 352 002e 10BD     		pop	{r4, pc}
 353              	.L23:
 354              		.align	2
 355              	.L22:
 356 0030 F6020000 		.word	758
 357              		.cfi_endproc
 358              	.LFE69:
 359              		.size	System_PowerOn_Play_TestSer, .-System_PowerOn_Play_TestSer
 360              		.section	.text.Comm_Succes_play,"ax",%progbits
 361              		.align	1
 362              		.global	Comm_Succes_play
 363              		.code	16
 364              		.thumb_func
 365              		.type	Comm_Succes_play, %function
 366              	Comm_Succes_play:
 367              	.LFB70:
 158:Code\UserApp\Voice/voice.c **** 
 159:Code\UserApp\Voice/voice.c **** 
 160:Code\UserApp\Voice/voice.c **** //*************************************************************************************************
 161:Code\UserApp\Voice/voice.c **** // Function name	: Comm_Succes_play
 162:Code\UserApp\Voice/voice.c **** // Description		: 常用成功音
 163:Code\UserApp\Voice/voice.c **** // Parameter		: none
 164:Code\UserApp\Voice/voice.c **** // Return			: none
 165:Code\UserApp\Voice/voice.c **** //-------------------------------------------------------------------------------------------------
 166:Code\UserApp\Voice/voice.c **** // 说明				: 用于录取指纹成功
 167:Code\UserApp\Voice/voice.c **** //*************************************************************************************************
 168:Code\UserApp\Voice/voice.c **** void Comm_Succes_play(void)
 169:Code\UserApp\Voice/voice.c **** {
 368              		.loc 1 169 0
 369              		.cfi_startproc
 170:Code\UserApp\Voice/voice.c **** 	play_single(Sound_DI,600);
 370              		.loc 1 170 0
 371 0000 4E20     		mov	r0, #78
 372 0002 9621     		mov	r1, #150
 169:Code\UserApp\Voice/voice.c **** 	play_single(Sound_DI,600);
 373              		.loc 1 169 0
 374 0004 08B5     		push	{r3, lr}
 375              		.cfi_def_cfa_offset 8
 376              		.cfi_offset 3, -8
 377              		.cfi_offset 14, -4
 378              		.loc 1 170 0
 379 0006 FF30     		add	r0, r0, #255
 380 0008 8900     		lsl	r1, r1, #2
 381 000a FFF7FEFF 		bl	play_single
 382              	.LVL36:
 171:Code\UserApp\Voice/voice.c **** }
 383              		.loc 1 171 0
 384              		@ sp needed
 385 000e 08BD     		pop	{r3, pc}
 386              		.cfi_endproc
 387              	.LFE70:
 388              		.size	Comm_Succes_play, .-Comm_Succes_play
 389              		.section	.text.Timeout_play,"ax",%progbits
ARM GAS  C:\Users\Administrator\AppData\Local\Temp\cc04BT5m.s 			page 11


 390              		.align	1
 391              		.global	Timeout_play
 392              		.code	16
 393              		.thumb_func
 394              		.type	Timeout_play, %function
 395              	Timeout_play:
 396              	.LFB71:
 172:Code\UserApp\Voice/voice.c **** 
 173:Code\UserApp\Voice/voice.c **** 
 174:Code\UserApp\Voice/voice.c **** //*************************************************************************************************
 175:Code\UserApp\Voice/voice.c **** // Function name	: Timeout_play
 176:Code\UserApp\Voice/voice.c **** // Description		: 常用超时音
 177:Code\UserApp\Voice/voice.c **** // Parameter		: none
 178:Code\UserApp\Voice/voice.c **** // Return			: none
 179:Code\UserApp\Voice/voice.c **** //-------------------------------------------------------------------------------------------------
 180:Code\UserApp\Voice/voice.c **** // 说明				: 用于录入卡超时
 181:Code\UserApp\Voice/voice.c **** //*************************************************************************************************
 182:Code\UserApp\Voice/voice.c **** void Timeout_play(void)
 183:Code\UserApp\Voice/voice.c **** {
 397              		.loc 1 183 0
 398              		.cfi_startproc
 399 0000 10B5     		push	{r4, lr}
 400              		.cfi_def_cfa_offset 8
 401              		.cfi_offset 4, -8
 402              		.cfi_offset 14, -4
 184:Code\UserApp\Voice/voice.c **** 	play_single(Sound_DI,50);
 403              		.loc 1 184 0
 404 0002 4E24     		mov	r4, #78
 405 0004 FF34     		add	r4, r4, #255
 406 0006 201C     		mov	r0, r4
 407 0008 3221     		mov	r1, #50
 408 000a FFF7FEFF 		bl	play_single
 409              	.LVL37:
 185:Code\UserApp\Voice/voice.c **** 	BeepPlay_Delay(50);
 410              		.loc 1 185 0
 411 000e 3220     		mov	r0, #50
 412 0010 FFF7FEFF 		bl	BeepPlay_Delay
 413              	.LVL38:
 186:Code\UserApp\Voice/voice.c ****     play_single(Sound_DI,50);						// 按要求 50-50-50ms
 414              		.loc 1 186 0
 415 0014 201C     		mov	r0, r4
 416 0016 3221     		mov	r1, #50
 417 0018 FFF7FEFF 		bl	play_single
 418              	.LVL39:
 187:Code\UserApp\Voice/voice.c **** 	BeepPlay_Delay(50);
 419              		.loc 1 187 0
 420 001c 3220     		mov	r0, #50
 421 001e FFF7FEFF 		bl	BeepPlay_Delay
 422              	.LVL40:
 188:Code\UserApp\Voice/voice.c ****     play_single(Sound_DI,50);
 423              		.loc 1 188 0
 424 0022 201C     		mov	r0, r4
 425 0024 3221     		mov	r1, #50
 426 0026 FFF7FEFF 		bl	play_single
 427              	.LVL41:
 189:Code\UserApp\Voice/voice.c **** 	BeepPlay_Delay(50);
 428              		.loc 1 189 0
ARM GAS  C:\Users\Administrator\AppData\Local\Temp\cc04BT5m.s 			page 12


 429 002a 3220     		mov	r0, #50
 430 002c FFF7FEFF 		bl	BeepPlay_Delay
 431              	.LVL42:
 190:Code\UserApp\Voice/voice.c ****     play_single(Sound_DI,50);
 432              		.loc 1 190 0
 433 0030 201C     		mov	r0, r4
 434 0032 3221     		mov	r1, #50
 435 0034 FFF7FEFF 		bl	play_single
 436              	.LVL43:
 191:Code\UserApp\Voice/voice.c **** }
 437              		.loc 1 191 0
 438              		@ sp needed
 439 0038 10BD     		pop	{r4, pc}
 440              		.cfi_endproc
 441              	.LFE71:
 442              		.size	Timeout_play, .-Timeout_play
 443              		.section	.text.Comm_Failure_play,"ax",%progbits
 444              		.align	1
 445              		.global	Comm_Failure_play
 446              		.code	16
 447              		.thumb_func
 448              		.type	Comm_Failure_play, %function
 449              	Comm_Failure_play:
 450              	.LFB72:
 192:Code\UserApp\Voice/voice.c **** 
 193:Code\UserApp\Voice/voice.c **** //*************************************************************************************************
 194:Code\UserApp\Voice/voice.c **** // Function name	: Comm_Failure_play
 195:Code\UserApp\Voice/voice.c **** // Description		: 常用失败音
 196:Code\UserApp\Voice/voice.c **** // Parameter		: none
 197:Code\UserApp\Voice/voice.c **** // Return			: none
 198:Code\UserApp\Voice/voice.c **** //-------------------------------------------------------------------------------------------------
 199:Code\UserApp\Voice/voice.c **** // 说明				: 用于录取指纹成功
 200:Code\UserApp\Voice/voice.c **** //*************************************************************************************************
 201:Code\UserApp\Voice/voice.c **** void Comm_Failure_play(void)
 202:Code\UserApp\Voice/voice.c **** {
 451              		.loc 1 202 0
 452              		.cfi_startproc
 203:Code\UserApp\Voice/voice.c **** 	#if 0
 204:Code\UserApp\Voice/voice.c ****     play_single(Sound_DI,300);
 205:Code\UserApp\Voice/voice.c **** 	BeepPlay_Delay(200);
 206:Code\UserApp\Voice/voice.c ****     play_single(Sound_DI,300);
 207:Code\UserApp\Voice/voice.c **** 	BeepPlay_Delay(200);
 208:Code\UserApp\Voice/voice.c ****     play_single(Sound_DI,300);						// 非法ID 不出声
 209:Code\UserApp\Voice/voice.c **** 	#endif
 210:Code\UserApp\Voice/voice.c **** }
 453              		.loc 1 210 0
 454              		@ sp needed
 455 0000 7047     		bx	lr
 456              		.cfi_endproc
 457              	.LFE72:
 458              		.size	Comm_Failure_play, .-Comm_Failure_play
 459              		.section	.text.OpenDoor,"ax",%progbits
 460              		.align	1
 461              		.global	OpenDoor
 462              		.code	16
 463              		.thumb_func
 464              		.type	OpenDoor, %function
ARM GAS  C:\Users\Administrator\AppData\Local\Temp\cc04BT5m.s 			page 13


 465              	OpenDoor:
 466              	.LFB73:
 211:Code\UserApp\Voice/voice.c **** 
 212:Code\UserApp\Voice/voice.c **** //*************************************************************************************************
 213:Code\UserApp\Voice/voice.c **** // Function name	: OpenDoor
 214:Code\UserApp\Voice/voice.c **** // Description		: 开门音
 215:Code\UserApp\Voice/voice.c **** // Parameter		: none
 216:Code\UserApp\Voice/voice.c **** // Return			: none
 217:Code\UserApp\Voice/voice.c **** //-------------------------------------------------------------------------------------------------
 218:Code\UserApp\Voice/voice.c **** // 说明				: 
 219:Code\UserApp\Voice/voice.c **** //*************************************************************************************************
 220:Code\UserApp\Voice/voice.c **** void OpenDoor(void)
 221:Code\UserApp\Voice/voice.c **** {
 467              		.loc 1 221 0
 468              		.cfi_startproc
 469 0000 10B5     		push	{r4, lr}
 470              		.cfi_def_cfa_offset 8
 471              		.cfi_offset 4, -8
 472              		.cfi_offset 14, -4
 222:Code\UserApp\Voice/voice.c **** 	play_single(Sound_DI,50);
 473              		.loc 1 222 0
 474 0002 4E24     		mov	r4, #78
 475 0004 FF34     		add	r4, r4, #255
 476 0006 201C     		mov	r0, r4
 477 0008 3221     		mov	r1, #50
 478 000a FFF7FEFF 		bl	play_single
 479              	.LVL44:
 223:Code\UserApp\Voice/voice.c **** 	BeepPlay_Delay(50);
 480              		.loc 1 223 0
 481 000e 3220     		mov	r0, #50
 482 0010 FFF7FEFF 		bl	BeepPlay_Delay
 483              	.LVL45:
 224:Code\UserApp\Voice/voice.c ****     play_single(Sound_DI,50);						// 按要求 50-50-50ms
 484              		.loc 1 224 0
 485 0014 201C     		mov	r0, r4
 486 0016 3221     		mov	r1, #50
 487 0018 FFF7FEFF 		bl	play_single
 488              	.LVL46:
 225:Code\UserApp\Voice/voice.c **** 	
 226:Code\UserApp\Voice/voice.c **** 	#if 0
 227:Code\UserApp\Voice/voice.c **** 	play_single(Sound_DO,250);
 228:Code\UserApp\Voice/voice.c **** 	play_single(Sound_RE,250);
 229:Code\UserApp\Voice/voice.c ****     play_single(Sound_MI,250);
 230:Code\UserApp\Voice/voice.c **** 	#endif
 231:Code\UserApp\Voice/voice.c **** }
 489              		.loc 1 231 0
 490              		@ sp needed
 491 001c 10BD     		pop	{r4, pc}
 492              		.cfi_endproc
 493              	.LFE73:
 494              		.size	OpenDoor, .-OpenDoor
 495              		.section	.text.System_PutCard_play,"ax",%progbits
 496              		.align	1
 497              		.global	System_PutCard_play
 498              		.code	16
 499              		.thumb_func
 500              		.type	System_PutCard_play, %function
ARM GAS  C:\Users\Administrator\AppData\Local\Temp\cc04BT5m.s 			page 14


 501              	System_PutCard_play:
 502              	.LFB74:
 232:Code\UserApp\Voice/voice.c **** 
 233:Code\UserApp\Voice/voice.c **** //*************************************************************************************************
 234:Code\UserApp\Voice/voice.c **** // Function name	: System_PutCard_play
 235:Code\UserApp\Voice/voice.c **** // Description		: 请刷身份证
 236:Code\UserApp\Voice/voice.c **** // Parameter		: none
 237:Code\UserApp\Voice/voice.c **** // Return			: none
 238:Code\UserApp\Voice/voice.c **** //-------------------------------------------------------------------------------------------------
 239:Code\UserApp\Voice/voice.c **** // 说明				: 
 240:Code\UserApp\Voice/voice.c **** //*************************************************************************************************
 241:Code\UserApp\Voice/voice.c **** void System_PutCard_play(void)
 242:Code\UserApp\Voice/voice.c **** {
 503              		.loc 1 242 0
 504              		.cfi_startproc
 243:Code\UserApp\Voice/voice.c **** 	play_single(Sound_DI,150);					// 按要求单音 150ms
 505              		.loc 1 243 0
 506 0000 4E20     		mov	r0, #78
 242:Code\UserApp\Voice/voice.c **** 	play_single(Sound_DI,150);					// 按要求单音 150ms
 507              		.loc 1 242 0
 508 0002 08B5     		push	{r3, lr}
 509              		.cfi_def_cfa_offset 8
 510              		.cfi_offset 3, -8
 511              		.cfi_offset 14, -4
 512              		.loc 1 243 0
 513 0004 FF30     		add	r0, r0, #255
 514 0006 9621     		mov	r1, #150
 515 0008 FFF7FEFF 		bl	play_single
 516              	.LVL47:
 244:Code\UserApp\Voice/voice.c **** }
 517              		.loc 1 244 0
 518              		@ sp needed
 519 000c 08BD     		pop	{r3, pc}
 520              		.cfi_endproc
 521              	.LFE74:
 522              		.size	System_PutCard_play, .-System_PutCard_play
 523              		.section	.text.System_ReadCard_play,"ax",%progbits
 524              		.align	1
 525              		.global	System_ReadCard_play
 526              		.code	16
 527              		.thumb_func
 528              		.type	System_ReadCard_play, %function
 529              	System_ReadCard_play:
 530              	.LFB75:
 245:Code\UserApp\Voice/voice.c **** 
 246:Code\UserApp\Voice/voice.c **** //*************************************************************************************************
 247:Code\UserApp\Voice/voice.c **** // Function name	: System_ReadCard_play
 248:Code\UserApp\Voice/voice.c **** // Description		: 成功读取身份证
 249:Code\UserApp\Voice/voice.c **** // Parameter		: none
 250:Code\UserApp\Voice/voice.c **** // Return			: none
 251:Code\UserApp\Voice/voice.c **** //-------------------------------------------------------------------------------------------------
 252:Code\UserApp\Voice/voice.c **** // 说明				: 
 253:Code\UserApp\Voice/voice.c **** //*************************************************************************************************
 254:Code\UserApp\Voice/voice.c **** void System_ReadCard_play(void)
 255:Code\UserApp\Voice/voice.c **** {
 531              		.loc 1 255 0
 532              		.cfi_startproc
ARM GAS  C:\Users\Administrator\AppData\Local\Temp\cc04BT5m.s 			page 15


 533 0000 10B5     		push	{r4, lr}
 534              		.cfi_def_cfa_offset 8
 535              		.cfi_offset 4, -8
 536              		.cfi_offset 14, -4
 256:Code\UserApp\Voice/voice.c **** 	play_single(Sound_DI,50);
 537              		.loc 1 256 0
 538 0002 4E24     		mov	r4, #78
 539 0004 FF34     		add	r4, r4, #255
 540 0006 201C     		mov	r0, r4
 541 0008 3221     		mov	r1, #50
 542 000a FFF7FEFF 		bl	play_single
 543              	.LVL48:
 257:Code\UserApp\Voice/voice.c **** 	BeepPlay_Delay(50);
 544              		.loc 1 257 0
 545 000e 3220     		mov	r0, #50
 546 0010 FFF7FEFF 		bl	BeepPlay_Delay
 547              	.LVL49:
 258:Code\UserApp\Voice/voice.c ****     play_single(Sound_DI,50);						// 按要求 50-50-50ms
 548              		.loc 1 258 0
 549 0014 201C     		mov	r0, r4
 550 0016 3221     		mov	r1, #50
 551 0018 FFF7FEFF 		bl	play_single
 552              	.LVL50:
 259:Code\UserApp\Voice/voice.c **** }
 553              		.loc 1 259 0
 554              		@ sp needed
 555 001c 10BD     		pop	{r4, pc}
 556              		.cfi_endproc
 557              	.LFE75:
 558              		.size	System_ReadCard_play, .-System_ReadCard_play
 559              		.section	.text.Beep_Play,"ax",%progbits
 560              		.align	1
 561              		.global	Beep_Play
 562              		.code	16
 563              		.thumb_func
 564              		.type	Beep_Play, %function
 565              	Beep_Play:
 566              	.LFB76:
 260:Code\UserApp\Voice/voice.c **** 
 261:Code\UserApp\Voice/voice.c **** //*************************************************************************************************
 262:Code\UserApp\Voice/voice.c **** // Function name	: Beep_Play
 263:Code\UserApp\Voice/voice.c **** // Description		: 所有蜂鸣器播放函数
 264:Code\UserApp\Voice/voice.c **** // Parameter		: none
 265:Code\UserApp\Voice/voice.c **** // Return			: none
 266:Code\UserApp\Voice/voice.c **** //-------------------------------------------------------------------------------------------------
 267:Code\UserApp\Voice/voice.c **** // 说明				: --用于替换语音播报函数 VoicePlay_WithJudge和VoicePlay
 268:Code\UserApp\Voice/voice.c **** //*************************************************************************************************
 269:Code\UserApp\Voice/voice.c **** void Beep_Play(uint8_t sound_define)
 270:Code\UserApp\Voice/voice.c **** {
 567              		.loc 1 270 0
 568              		.cfi_startproc
 569              	.LVL51:
 570 0000 08B5     		push	{r3, lr}
 571              		.cfi_def_cfa_offset 8
 572              		.cfi_offset 3, -8
 573              		.cfi_offset 14, -4
 271:Code\UserApp\Voice/voice.c ****     if (sound_define == Sound_SYSTEM_POWER_ON)
ARM GAS  C:\Users\Administrator\AppData\Local\Temp\cc04BT5m.s 			page 16


 574              		.loc 1 271 0
 575 0002 0C28     		cmp	r0, #12
 576 0004 02D1     		bne	.L31
 272:Code\UserApp\Voice/voice.c ****     {
 273:Code\UserApp\Voice/voice.c ****         System_PowerOn_Play();
 577              		.loc 1 273 0
 578 0006 FFF7FEFF 		bl	System_PowerOn_Play
 579              	.LVL52:
 580 000a 31E0     		b	.L30
 581              	.LVL53:
 582              	.L31:
 274:Code\UserApp\Voice/voice.c ****     }
 275:Code\UserApp\Voice/voice.c **** 	else if(Sound_SYSTEM_POWER_ON_TEST == sound_define)
 583              		.loc 1 275 0
 584 000c 1128     		cmp	r0, #17
 585 000e 02D1     		bne	.L33
 276:Code\UserApp\Voice/voice.c **** 	{
 277:Code\UserApp\Voice/voice.c **** 		System_PowerOn_Play_TestSer();
 586              		.loc 1 277 0
 587 0010 FFF7FEFF 		bl	System_PowerOn_Play_TestSer
 588              	.LVL54:
 589 0014 2CE0     		b	.L30
 590              	.LVL55:
 591              	.L33:
 278:Code\UserApp\Voice/voice.c **** 	}
 279:Code\UserApp\Voice/voice.c **** 	else if (sound_define == Sound_VERIFY_SUCCESS)
 592              		.loc 1 279 0
 593 0016 0A28     		cmp	r0, #10
 594 0018 02D1     		bne	.L34
 280:Code\UserApp\Voice/voice.c ****     {
 281:Code\UserApp\Voice/voice.c ****         OpenDoor();
 595              		.loc 1 281 0
 596 001a FFF7FEFF 		bl	OpenDoor
 597              	.LVL56:
 598 001e 27E0     		b	.L30
 599              	.LVL57:
 600              	.L34:
 282:Code\UserApp\Voice/voice.c ****     }
 283:Code\UserApp\Voice/voice.c ****     else if (sound_define == Sound_VERIFY_FAILURE)
 601              		.loc 1 283 0
 602 0020 0B28     		cmp	r0, #11
 603 0022 25D0     		beq	.L30
 284:Code\UserApp\Voice/voice.c ****     {
 285:Code\UserApp\Voice/voice.c ****         Comm_Failure_play();
 286:Code\UserApp\Voice/voice.c ****     }
 287:Code\UserApp\Voice/voice.c **** 	else if (sound_define == Sound_TIMEOUT)
 604              		.loc 1 287 0
 605 0024 1228     		cmp	r0, #18
 606 0026 02D1     		bne	.L35
 288:Code\UserApp\Voice/voice.c ****     {
 289:Code\UserApp\Voice/voice.c ****         Timeout_play();
 607              		.loc 1 289 0
 608 0028 FFF7FEFF 		bl	Timeout_play
 609              	.LVL58:
 610 002c 20E0     		b	.L30
 611              	.LVL59:
 612              	.L35:
ARM GAS  C:\Users\Administrator\AppData\Local\Temp\cc04BT5m.s 			page 17


 290:Code\UserApp\Voice/voice.c ****     }
 291:Code\UserApp\Voice/voice.c **** 	
 292:Code\UserApp\Voice/voice.c ****     else if ((sound_define == Sound_REG_FAILURE) 	||
 613              		.loc 1 292 0
 614 002e 0223     		mov	r3, #2
 615 0030 021C     		mov	r2, r0
 616 0032 9A43     		bic	r2, r3
 617 0034 052A     		cmp	r2, #5
 618 0036 1BD0     		beq	.L30
 293:Code\UserApp\Voice/voice.c **** 			 (sound_define == Sound_DELETE_FAILURE) ||
 619              		.loc 1 293 0
 620 0038 0928     		cmp	r0, #9
 621 003a 19D0     		beq	.L30
 294:Code\UserApp\Voice/voice.c **** 			 (sound_define == Sound_EMPTY_FAILURE))
 295:Code\UserApp\Voice/voice.c ****     {
 296:Code\UserApp\Voice/voice.c ****         Comm_Failure_play();
 297:Code\UserApp\Voice/voice.c ****     }
 298:Code\UserApp\Voice/voice.c ****     else if ((sound_define == Sound_REG_SUCCESS) 	||
 622              		.loc 1 298 0
 623 003c 042A     		cmp	r2, #4
 624 003e 01D0     		beq	.L36
 299:Code\UserApp\Voice/voice.c **** 			 (sound_define == Sound_DELETE_SUCCESS) || 
 625              		.loc 1 299 0
 626 0040 0828     		cmp	r0, #8
 627 0042 02D1     		bne	.L37
 628              	.L36:
 300:Code\UserApp\Voice/voice.c **** 			 (sound_define == Sound_EMPTY_SUCCESS))
 301:Code\UserApp\Voice/voice.c ****     {
 302:Code\UserApp\Voice/voice.c ****         Comm_Succes_play();
 629              		.loc 1 302 0
 630 0044 FFF7FEFF 		bl	Comm_Succes_play
 631              	.LVL60:
 632 0048 12E0     		b	.L30
 633              	.LVL61:
 634              	.L37:
 303:Code\UserApp\Voice/voice.c ****     }
 304:Code\UserApp\Voice/voice.c **** 	else if (sound_define == Sound_PleasePutCard)
 635              		.loc 1 304 0
 636 004a 0D28     		cmp	r0, #13
 637 004c 02D1     		bne	.L38
 305:Code\UserApp\Voice/voice.c ****     {
 306:Code\UserApp\Voice/voice.c ****     	System_PutCard_play();
 638              		.loc 1 306 0
 639 004e FFF7FEFF 		bl	System_PutCard_play
 640              	.LVL62:
 641 0052 0DE0     		b	.L30
 642              	.LVL63:
 643              	.L38:
 307:Code\UserApp\Voice/voice.c ****     }
 308:Code\UserApp\Voice/voice.c **** 	else if (sound_define == Sound_ReadCardSuccess)
 644              		.loc 1 308 0
 645 0054 0E28     		cmp	r0, #14
 646 0056 02D1     		bne	.L39
 309:Code\UserApp\Voice/voice.c ****     {
 310:Code\UserApp\Voice/voice.c ****     	System_ReadCard_play();
 647              		.loc 1 310 0
 648 0058 FFF7FEFF 		bl	System_ReadCard_play
ARM GAS  C:\Users\Administrator\AppData\Local\Temp\cc04BT5m.s 			page 18


 649              	.LVL64:
 650 005c 08E0     		b	.L30
 651              	.LVL65:
 652              	.L39:
 653              	.LBB9:
 654              	.LBB10:
 311:Code\UserApp\Voice/voice.c ****     }
 312:Code\UserApp\Voice/voice.c **** 	else if (sound_define == Sound_ShortDI)
 655              		.loc 1 312 0
 656 005e 0F28     		cmp	r0, #15
 657 0060 02D1     		bne	.L40
 313:Code\UserApp\Voice/voice.c ****     {
 314:Code\UserApp\Voice/voice.c ****     	System_ShortDI_Play();
 658              		.loc 1 314 0
 659 0062 FFF7FEFF 		bl	System_ShortDI_Play
 660              	.LVL66:
 661 0066 03E0     		b	.L30
 662              	.LVL67:
 663              	.L40:
 315:Code\UserApp\Voice/voice.c ****     }
 316:Code\UserApp\Voice/voice.c **** 	else if (sound_define == Sound_LongDI)
 664              		.loc 1 316 0
 665 0068 1028     		cmp	r0, #16
 666 006a 01D1     		bne	.L30
 317:Code\UserApp\Voice/voice.c ****     {
 318:Code\UserApp\Voice/voice.c ****     	System_LongDI_Play();
 667              		.loc 1 318 0
 668 006c FFF7FEFF 		bl	System_LongDI_Play
 669              	.LVL68:
 670              	.L30:
 671              	.LBE10:
 672              	.LBE9:
 319:Code\UserApp\Voice/voice.c ****     }
 320:Code\UserApp\Voice/voice.c **** }
 673              		.loc 1 320 0
 674              		@ sp needed
 675 0070 08BD     		pop	{r3, pc}
 676              		.cfi_endproc
 677              	.LFE76:
 678              		.size	Beep_Play, .-Beep_Play
 679              		.section	.text.VoicePlay,"ax",%progbits
 680              		.align	1
 681              		.global	VoicePlay
 682              		.code	16
 683              		.thumb_func
 684              		.type	VoicePlay, %function
 685              	VoicePlay:
 686              	.LFB77:
 321:Code\UserApp\Voice/voice.c **** 
 322:Code\UserApp\Voice/voice.c **** //*************************************************************************************************
 323:Code\UserApp\Voice/voice.c **** // Function name	: VoicePlay
 324:Code\UserApp\Voice/voice.c **** // Description		: 语音播报
 325:Code\UserApp\Voice/voice.c **** // Parameter		: addr
 326:Code\UserApp\Voice/voice.c **** // Return			: none
 327:Code\UserApp\Voice/voice.c **** //-------------------------------------------------------------------------------------------------
 328:Code\UserApp\Voice/voice.c **** // Info				: 
 329:Code\UserApp\Voice/voice.c **** //*************************************************************************************************
ARM GAS  C:\Users\Administrator\AppData\Local\Temp\cc04BT5m.s 			page 19


 330:Code\UserApp\Voice/voice.c **** void VoicePlay(INT8U addr)
 331:Code\UserApp\Voice/voice.c **** {
 687              		.loc 1 331 0
 688              		.cfi_startproc
 689              	.LVL69:
 690 0000 08B5     		push	{r3, lr}
 691              		.cfi_def_cfa_offset 8
 692              		.cfi_offset 3, -8
 693              		.cfi_offset 14, -4
 332:Code\UserApp\Voice/voice.c ****     Beep_Play(addr);  
 694              		.loc 1 332 0
 695 0002 FFF7FEFF 		bl	Beep_Play
 696              	.LVL70:
 333:Code\UserApp\Voice/voice.c **** }
 697              		.loc 1 333 0
 698              		@ sp needed
 699 0006 08BD     		pop	{r3, pc}
 700              		.cfi_endproc
 701              	.LFE77:
 702              		.size	VoicePlay, .-VoicePlay
 703              		.comm	BeepDelay_TimeOut,4,4
 704              		.text
 705              	.Letext0:
 706              		.file 2 "c:\\program files (x86)\\cypress\\psoc creator\\4.0\\psoc creator\\import\\gnu\\arm\\4.9.
 707              		.file 3 "c:\\program files (x86)\\cypress\\psoc creator\\4.0\\psoc creator\\import\\gnu\\arm\\4.9.
 708              		.file 4 "Generated_Source\\PSoC4/cytypes.h"
 709              		.file 5 ".\\Code\\Common/config.h"
 710              		.file 6 "Generated_Source\\PSoC4/TIMER.h"