ARM GAS  C:\Users\Administrator\AppData\Local\Temp\cc8QjbCg.s 			page 1


   1              		.syntax unified
   2              		.cpu cortex-m0
   3              		.fpu softvfp
   4              		.eabi_attribute 20, 1
   5              		.eabi_attribute 21, 1
   6              		.eabi_attribute 23, 3
   7              		.eabi_attribute 24, 1
   8              		.eabi_attribute 25, 1
   9              		.eabi_attribute 26, 1
  10              		.eabi_attribute 30, 4
  11              		.eabi_attribute 34, 0
  12              		.eabi_attribute 18, 4
  13              		.thumb
  14              		.syntax unified
  15              		.file	"BLE_HAL_PVT.c"
  16              		.text
  17              	.Ltext0:
  18              		.cfi_sections	.debug_frame
  19              		.section	.text.CyBLE_Nvram_Write,"ax",%progbits
  20              		.align	1
  21              		.global	CyBLE_Nvram_Write
  22              		.code	16
  23              		.thumb_func
  24              		.type	CyBLE_Nvram_Write, %function
  25              	CyBLE_Nvram_Write:
  26              	.LFB2:
  27              		.file 1 "Generated_Source\\PSoC4\\BLE_HAL_PVT.c"
   1:Generated_Source\PSoC4/BLE_HAL_PVT.c **** /***************************************************************************//**
   2:Generated_Source\PSoC4/BLE_HAL_PVT.c **** * \file CYBLE_HAL_PVT.c
   3:Generated_Source\PSoC4/BLE_HAL_PVT.c **** * \version 3.40
   4:Generated_Source\PSoC4/BLE_HAL_PVT.c **** *
   5:Generated_Source\PSoC4/BLE_HAL_PVT.c **** * \brief
   6:Generated_Source\PSoC4/BLE_HAL_PVT.c **** *  This file contains the source code for the HAL section of the BLE component
   7:Generated_Source\PSoC4/BLE_HAL_PVT.c **** *
   8:Generated_Source\PSoC4/BLE_HAL_PVT.c **** ********************************************************************************
   9:Generated_Source\PSoC4/BLE_HAL_PVT.c **** * \copyright
  10:Generated_Source\PSoC4/BLE_HAL_PVT.c **** * Copyright 2014-2016, Cypress Semiconductor Corporation.  All rights reserved.
  11:Generated_Source\PSoC4/BLE_HAL_PVT.c **** * You may use this file only in accordance with the license, terms, conditions,
  12:Generated_Source\PSoC4/BLE_HAL_PVT.c **** * disclaimers, and limitations in the end user license agreement accompanying
  13:Generated_Source\PSoC4/BLE_HAL_PVT.c **** * the software package with which this file was provided.
  14:Generated_Source\PSoC4/BLE_HAL_PVT.c **** *******************************************************************************/
  15:Generated_Source\PSoC4/BLE_HAL_PVT.c **** 
  16:Generated_Source\PSoC4/BLE_HAL_PVT.c **** #include "BLE_HAL_PVT.h"
  17:Generated_Source\PSoC4/BLE_HAL_PVT.c **** 
  18:Generated_Source\PSoC4/BLE_HAL_PVT.c **** 
  19:Generated_Source\PSoC4/BLE_HAL_PVT.c **** #if(CYBLE_MODE == CYBLE_HCI)
  20:Generated_Source\PSoC4/BLE_HAL_PVT.c **** 
  21:Generated_Source\PSoC4/BLE_HAL_PVT.c **** 
  22:Generated_Source\PSoC4/BLE_HAL_PVT.c **** /*******************************************************************************
  23:Generated_Source\PSoC4/BLE_HAL_PVT.c **** * Function Name: CyBLE_Uart_Start
  24:Generated_Source\PSoC4/BLE_HAL_PVT.c **** ****************************************************************************//**
  25:Generated_Source\PSoC4/BLE_HAL_PVT.c **** *
  26:Generated_Source\PSoC4/BLE_HAL_PVT.c **** *  Enables the platform UART Tx and RX interrupts and then enables the UART
  27:Generated_Source\PSoC4/BLE_HAL_PVT.c **** *  component.
  28:Generated_Source\PSoC4/BLE_HAL_PVT.c **** *
  29:Generated_Source\PSoC4/BLE_HAL_PVT.c **** * \return
  30:Generated_Source\PSoC4/BLE_HAL_PVT.c **** *  None
ARM GAS  C:\Users\Administrator\AppData\Local\Temp\cc8QjbCg.s 			page 2


  31:Generated_Source\PSoC4/BLE_HAL_PVT.c **** *
  32:Generated_Source\PSoC4/BLE_HAL_PVT.c **** *******************************************************************************/
  33:Generated_Source\PSoC4/BLE_HAL_PVT.c **** void CyBLE_Uart_Start (void)
  34:Generated_Source\PSoC4/BLE_HAL_PVT.c **** {
  35:Generated_Source\PSoC4/BLE_HAL_PVT.c ****     #if (CYBLE_HCI_TYPE == CYBLE_HCI_OVER_UART)
  36:Generated_Source\PSoC4/BLE_HAL_PVT.c ****         /* Setup ISR */
  37:Generated_Source\PSoC4/BLE_HAL_PVT.c ****         BLE_uart_isr_StartEx(&CyBLE_Uart_Interrupt);
  38:Generated_Source\PSoC4/BLE_HAL_PVT.c **** 
  39:Generated_Source\PSoC4/BLE_HAL_PVT.c ****         BLE_HAL_Uart_Start();
  40:Generated_Source\PSoC4/BLE_HAL_PVT.c ****     #endif /* (CYBLE_HCI_TYPE == CYBLE_HCI_OVER_UART) */
  41:Generated_Source\PSoC4/BLE_HAL_PVT.c **** }
  42:Generated_Source\PSoC4/BLE_HAL_PVT.c **** 
  43:Generated_Source\PSoC4/BLE_HAL_PVT.c **** 
  44:Generated_Source\PSoC4/BLE_HAL_PVT.c **** /*******************************************************************************
  45:Generated_Source\PSoC4/BLE_HAL_PVT.c **** * Function Name: CyBLE_Uart_Stop
  46:Generated_Source\PSoC4/BLE_HAL_PVT.c **** ****************************************************************************//**
  47:Generated_Source\PSoC4/BLE_HAL_PVT.c **** *
  48:Generated_Source\PSoC4/BLE_HAL_PVT.c **** *  Disables the UART, clears all pending interrupts and disables the UART Tx
  49:Generated_Source\PSoC4/BLE_HAL_PVT.c **** *  and RX interrupts. This will also empty out the FIFOs.
  50:Generated_Source\PSoC4/BLE_HAL_PVT.c **** *
  51:Generated_Source\PSoC4/BLE_HAL_PVT.c **** * \return
  52:Generated_Source\PSoC4/BLE_HAL_PVT.c **** *  None
  53:Generated_Source\PSoC4/BLE_HAL_PVT.c **** *
  54:Generated_Source\PSoC4/BLE_HAL_PVT.c **** *******************************************************************************/
  55:Generated_Source\PSoC4/BLE_HAL_PVT.c **** void CyBLE_Uart_Stop (void)
  56:Generated_Source\PSoC4/BLE_HAL_PVT.c **** {
  57:Generated_Source\PSoC4/BLE_HAL_PVT.c ****     #if (CYBLE_HCI_TYPE == CYBLE_HCI_OVER_UART)
  58:Generated_Source\PSoC4/BLE_HAL_PVT.c ****         /* Stop interrupt and UART */
  59:Generated_Source\PSoC4/BLE_HAL_PVT.c ****         BLE_uart_isr_Stop();
  60:Generated_Source\PSoC4/BLE_HAL_PVT.c **** 
  61:Generated_Source\PSoC4/BLE_HAL_PVT.c ****         BLE_HAL_Uart_Stop();
  62:Generated_Source\PSoC4/BLE_HAL_PVT.c ****     #endif /* (CYBLE_HCI_TYPE == CYBLE_HCI_OVER_UART) */
  63:Generated_Source\PSoC4/BLE_HAL_PVT.c **** }
  64:Generated_Source\PSoC4/BLE_HAL_PVT.c **** 
  65:Generated_Source\PSoC4/BLE_HAL_PVT.c **** 
  66:Generated_Source\PSoC4/BLE_HAL_PVT.c **** /*******************************************************************************
  67:Generated_Source\PSoC4/BLE_HAL_PVT.c **** * Function Name: CyBLE_Uart_Transmit
  68:Generated_Source\PSoC4/BLE_HAL_PVT.c **** ****************************************************************************//**
  69:Generated_Source\PSoC4/BLE_HAL_PVT.c **** *
  70:Generated_Source\PSoC4/BLE_HAL_PVT.c **** *  Sends the data to Uart Tx FIFO. The function handles data length up to the 
  71:Generated_Source\PSoC4/BLE_HAL_PVT.c **** *  supported Tx FIFO length of the uart hardware module.
  72:Generated_Source\PSoC4/BLE_HAL_PVT.c **** *
  73:Generated_Source\PSoC4/BLE_HAL_PVT.c **** *  \param data: Pointer to the data to send through the UART
  74:Generated_Source\PSoC4/BLE_HAL_PVT.c **** *  \param length: the length of data to transmit in bytes
  75:Generated_Source\PSoC4/BLE_HAL_PVT.c **** *
  76:Generated_Source\PSoC4/BLE_HAL_PVT.c **** * \return
  77:Generated_Source\PSoC4/BLE_HAL_PVT.c **** *  None
  78:Generated_Source\PSoC4/BLE_HAL_PVT.c **** *
  79:Generated_Source\PSoC4/BLE_HAL_PVT.c **** *******************************************************************************/
  80:Generated_Source\PSoC4/BLE_HAL_PVT.c **** void CyBLE_Uart_Transmit (const uint8 *dataBuf, uint8 length)
  81:Generated_Source\PSoC4/BLE_HAL_PVT.c **** {
  82:Generated_Source\PSoC4/BLE_HAL_PVT.c ****     #if (CYBLE_HCI_TYPE == CYBLE_HCI_OVER_UART)
  83:Generated_Source\PSoC4/BLE_HAL_PVT.c ****         BLE_HAL_Uart_SpiUartPutArray(dataBuf, (uint32)length);
  84:Generated_Source\PSoC4/BLE_HAL_PVT.c ****     #endif /* (CYBLE_HCI_TYPE == CYBLE_HCI_OVER_UART) */
  85:Generated_Source\PSoC4/BLE_HAL_PVT.c **** }
  86:Generated_Source\PSoC4/BLE_HAL_PVT.c **** 
  87:Generated_Source\PSoC4/BLE_HAL_PVT.c **** /*******************************************************************************
ARM GAS  C:\Users\Administrator\AppData\Local\Temp\cc8QjbCg.s 			page 3


  88:Generated_Source\PSoC4/BLE_HAL_PVT.c **** * Function Name: CyBLE_Uart_Isr_Enable
  89:Generated_Source\PSoC4/BLE_HAL_PVT.c **** ****************************************************************************//**
  90:Generated_Source\PSoC4/BLE_HAL_PVT.c **** *
  91:Generated_Source\PSoC4/BLE_HAL_PVT.c **** *   Enables the UART interrupt to the interrupt controller. 
  92:Generated_Source\PSoC4/BLE_HAL_PVT.c **** *   Do not call this function unless CyBLE_Uart_Start() has been called or the
  93:Generated_Source\PSoC4/BLE_HAL_PVT.c **** *   functionality of the SysInt_Init() function, which sets the vector and the
  94:Generated_Source\PSoC4/BLE_HAL_PVT.c **** *   priority, has been called.
  95:Generated_Source\PSoC4/BLE_HAL_PVT.c **** *
  96:Generated_Source\PSoC4/BLE_HAL_PVT.c **** *******************************************************************************/
  97:Generated_Source\PSoC4/BLE_HAL_PVT.c **** void CyBLE_Uart_Isr_Enable(void)
  98:Generated_Source\PSoC4/BLE_HAL_PVT.c **** {
  99:Generated_Source\PSoC4/BLE_HAL_PVT.c ****     #if (CYBLE_HCI_TYPE == CYBLE_HCI_OVER_UART)
 100:Generated_Source\PSoC4/BLE_HAL_PVT.c ****         BLE_uart_isr_Enable();
 101:Generated_Source\PSoC4/BLE_HAL_PVT.c ****     #endif /* (CYBLE_HCI_TYPE == CYBLE_HCI_OVER_UART) */
 102:Generated_Source\PSoC4/BLE_HAL_PVT.c **** }
 103:Generated_Source\PSoC4/BLE_HAL_PVT.c **** 
 104:Generated_Source\PSoC4/BLE_HAL_PVT.c **** 
 105:Generated_Source\PSoC4/BLE_HAL_PVT.c **** /*******************************************************************************
 106:Generated_Source\PSoC4/BLE_HAL_PVT.c **** * Function Name: CyBLE_Uart_Isr_Disable
 107:Generated_Source\PSoC4/BLE_HAL_PVT.c **** ****************************************************************************//**
 108:Generated_Source\PSoC4/BLE_HAL_PVT.c **** *
 109:Generated_Source\PSoC4/BLE_HAL_PVT.c **** *   Disables the UART Interrupt in the interrupt controller.
 110:Generated_Source\PSoC4/BLE_HAL_PVT.c **** *
 111:Generated_Source\PSoC4/BLE_HAL_PVT.c **** *******************************************************************************/
 112:Generated_Source\PSoC4/BLE_HAL_PVT.c **** void CyBLE_Uart_Isr_Disable(void)
 113:Generated_Source\PSoC4/BLE_HAL_PVT.c **** {
 114:Generated_Source\PSoC4/BLE_HAL_PVT.c ****     #if (CYBLE_HCI_TYPE == CYBLE_HCI_OVER_UART)
 115:Generated_Source\PSoC4/BLE_HAL_PVT.c ****         BLE_uart_isr_Disable();
 116:Generated_Source\PSoC4/BLE_HAL_PVT.c ****     #endif /* (CYBLE_HCI_TYPE == CYBLE_HCI_OVER_UART) */
 117:Generated_Source\PSoC4/BLE_HAL_PVT.c **** }
 118:Generated_Source\PSoC4/BLE_HAL_PVT.c **** 
 119:Generated_Source\PSoC4/BLE_HAL_PVT.c **** #endif /* (CYBLE_MODE == CYBLE_HCI) */
 120:Generated_Source\PSoC4/BLE_HAL_PVT.c **** 
 121:Generated_Source\PSoC4/BLE_HAL_PVT.c **** 
 122:Generated_Source\PSoC4/BLE_HAL_PVT.c **** /*******************************************************************************
 123:Generated_Source\PSoC4/BLE_HAL_PVT.c **** * Function Name: CyBLE_Nvram_Write
 124:Generated_Source\PSoC4/BLE_HAL_PVT.c **** ****************************************************************************//**
 125:Generated_Source\PSoC4/BLE_HAL_PVT.c **** *
 126:Generated_Source\PSoC4/BLE_HAL_PVT.c **** *  This function writes the data to the NVRAM store. It will check the 
 127:Generated_Source\PSoC4/BLE_HAL_PVT.c **** *  appropriate alignment of a start address and also perform an address range 
 128:Generated_Source\PSoC4/BLE_HAL_PVT.c **** *  check based on the length before performing the write operation.
 129:Generated_Source\PSoC4/BLE_HAL_PVT.c **** *  This function performs memory compare and writes only row where there are new
 130:Generated_Source\PSoC4/BLE_HAL_PVT.c **** *  data to write.
 131:Generated_Source\PSoC4/BLE_HAL_PVT.c **** *
 132:Generated_Source\PSoC4/BLE_HAL_PVT.c **** *  \param buffer:   Pointer to the buffer containing the data to be stored.
 133:Generated_Source\PSoC4/BLE_HAL_PVT.c **** *  \param varFlash: Pointer to the array or variable in the flash.
 134:Generated_Source\PSoC4/BLE_HAL_PVT.c **** *  \param length:    The length of the data in bytes.
 135:Generated_Source\PSoC4/BLE_HAL_PVT.c **** *
 136:Generated_Source\PSoC4/BLE_HAL_PVT.c **** * \return
 137:Generated_Source\PSoC4/BLE_HAL_PVT.c **** *  CYRET_SUCCESS    a successful write
 138:Generated_Source\PSoC4/BLE_HAL_PVT.c **** *  CYRET_BAD_PARAM  A request to write outside the flash boundary.
 139:Generated_Source\PSoC4/BLE_HAL_PVT.c **** *  CYRET_UNKNOWN    Other errors in writing the flash
 140:Generated_Source\PSoC4/BLE_HAL_PVT.c **** *
 141:Generated_Source\PSoC4/BLE_HAL_PVT.c **** * \sideeffect
 142:Generated_Source\PSoC4/BLE_HAL_PVT.c **** *  For BLE devices with 128K of Flash memory this function will automatically 
 143:Generated_Source\PSoC4/BLE_HAL_PVT.c **** *  modify the clock settings for the device.
 144:Generated_Source\PSoC4/BLE_HAL_PVT.c **** *  Writing to flash requires changes to be done to the IMO (set to 48 MHz)
ARM GAS  C:\Users\Administrator\AppData\Local\Temp\cc8QjbCg.s 			page 4


 145:Generated_Source\PSoC4/BLE_HAL_PVT.c **** *  and HFCLK (source set to IMO) settings. The configuration is restored before
 146:Generated_Source\PSoC4/BLE_HAL_PVT.c **** *  returning. This will impact the operation of most of the hardware in the
 147:Generated_Source\PSoC4/BLE_HAL_PVT.c **** *  device.
 148:Generated_Source\PSoC4/BLE_HAL_PVT.c **** *
 149:Generated_Source\PSoC4/BLE_HAL_PVT.c **** *******************************************************************************/
 150:Generated_Source\PSoC4/BLE_HAL_PVT.c **** cystatus CyBLE_Nvram_Write (const uint8 buffer[], const uint8 varFlash[], uint16 length)
 151:Generated_Source\PSoC4/BLE_HAL_PVT.c **** {
  28              		.loc 1 151 0
  29              		.cfi_startproc
  30              		@ args = 0, pretend = 0, frame = 272
  31              		@ frame_needed = 0, uses_anonymous_args = 0
  32              	.LVL0:
  33 0000 F0B5     		push	{r4, r5, r6, r7, lr}
  34              		.cfi_def_cfa_offset 20
  35              		.cfi_offset 4, -20
  36              		.cfi_offset 5, -16
  37              		.cfi_offset 6, -12
  38              		.cfi_offset 7, -8
  39              		.cfi_offset 14, -4
 152:Generated_Source\PSoC4/BLE_HAL_PVT.c ****     uint8 writeBuffer[CY_FLASH_SIZEOF_ROW];
 153:Generated_Source\PSoC4/BLE_HAL_PVT.c ****     uint32 rowId;
 154:Generated_Source\PSoC4/BLE_HAL_PVT.c ****     uint32 dstIndex;
 155:Generated_Source\PSoC4/BLE_HAL_PVT.c ****     uint32 srcIndex = 0u;
 156:Generated_Source\PSoC4/BLE_HAL_PVT.c ****     cystatus rc = CYRET_SUCCESS;
 157:Generated_Source\PSoC4/BLE_HAL_PVT.c ****     uint32 eeOffset;
 158:Generated_Source\PSoC4/BLE_HAL_PVT.c ****     uint32 byteOffset;
 159:Generated_Source\PSoC4/BLE_HAL_PVT.c ****     uint32 rowsNotEqual;
 160:Generated_Source\PSoC4/BLE_HAL_PVT.c **** 
 161:Generated_Source\PSoC4/BLE_HAL_PVT.c ****     eeOffset = (uint32)varFlash;
 162:Generated_Source\PSoC4/BLE_HAL_PVT.c **** 
 163:Generated_Source\PSoC4/BLE_HAL_PVT.c ****     /* Make sure, that varFlash[] points to Flash */
 164:Generated_Source\PSoC4/BLE_HAL_PVT.c ****     if ((eeOffset + length) < CYBLE_HAL_FLASH_END_ADDR)
  40              		.loc 1 164 0
  41 0002 204B     		ldr	r3, .L19
 151:Generated_Source\PSoC4/BLE_HAL_PVT.c ****     uint8 writeBuffer[CY_FLASH_SIZEOF_ROW];
  42              		.loc 1 151 0
  43 0004 C5B0     		sub	sp, sp, #276
  44              		.cfi_def_cfa_offset 296
 151:Generated_Source\PSoC4/BLE_HAL_PVT.c ****     uint8 writeBuffer[CY_FLASH_SIZEOF_ROW];
  45              		.loc 1 151 0
  46 0006 0092     		str	r2, [sp]
  47              		.loc 1 164 0
  48 0008 8A18     		adds	r2, r1, r2
  49              	.LVL1:
 151:Generated_Source\PSoC4/BLE_HAL_PVT.c ****     uint8 writeBuffer[CY_FLASH_SIZEOF_ROW];
  50              		.loc 1 151 0
  51 000a 0390     		str	r0, [sp, #12]
  52 000c 0F00     		movs	r7, r1
 165:Generated_Source\PSoC4/BLE_HAL_PVT.c ****     {
 166:Generated_Source\PSoC4/BLE_HAL_PVT.c ****         rowId = eeOffset / CY_FLASH_SIZEOF_ROW;
 167:Generated_Source\PSoC4/BLE_HAL_PVT.c ****         byteOffset = CY_FLASH_SIZEOF_ROW * rowId;
 168:Generated_Source\PSoC4/BLE_HAL_PVT.c **** 
 169:Generated_Source\PSoC4/BLE_HAL_PVT.c ****         while ((srcIndex < length) && (rc == CYRET_SUCCESS))
 170:Generated_Source\PSoC4/BLE_HAL_PVT.c ****         {
 171:Generated_Source\PSoC4/BLE_HAL_PVT.c ****             rowsNotEqual = 0u;
 172:Generated_Source\PSoC4/BLE_HAL_PVT.c ****             /* Copy data to the write buffer either from the source buffer or from the flash */
 173:Generated_Source\PSoC4/BLE_HAL_PVT.c ****             for (dstIndex = 0u; dstIndex < CY_FLASH_SIZEOF_ROW; dstIndex++)
ARM GAS  C:\Users\Administrator\AppData\Local\Temp\cc8QjbCg.s 			page 5


 174:Generated_Source\PSoC4/BLE_HAL_PVT.c ****             {
 175:Generated_Source\PSoC4/BLE_HAL_PVT.c ****                 if ((byteOffset >= eeOffset) && (srcIndex < length))
 176:Generated_Source\PSoC4/BLE_HAL_PVT.c ****                 {
 177:Generated_Source\PSoC4/BLE_HAL_PVT.c ****                     writeBuffer[dstIndex] = buffer[srcIndex];
 178:Generated_Source\PSoC4/BLE_HAL_PVT.c ****                     /* Detect that row programming is required */
 179:Generated_Source\PSoC4/BLE_HAL_PVT.c ****                     if(CY_GET_XTND_REG8(CYDEV_FLASH_BASE + byteOffset) != buffer[srcIndex])
 180:Generated_Source\PSoC4/BLE_HAL_PVT.c ****                     {
 181:Generated_Source\PSoC4/BLE_HAL_PVT.c ****                         rowsNotEqual = 1u;  
 182:Generated_Source\PSoC4/BLE_HAL_PVT.c ****                     }
 183:Generated_Source\PSoC4/BLE_HAL_PVT.c ****                     srcIndex++;
 184:Generated_Source\PSoC4/BLE_HAL_PVT.c ****                 }
 185:Generated_Source\PSoC4/BLE_HAL_PVT.c ****                 else
 186:Generated_Source\PSoC4/BLE_HAL_PVT.c ****                 {
 187:Generated_Source\PSoC4/BLE_HAL_PVT.c ****                     writeBuffer[dstIndex] = CY_GET_XTND_REG8(CYDEV_FLASH_BASE + byteOffset);
 188:Generated_Source\PSoC4/BLE_HAL_PVT.c ****                 }
 189:Generated_Source\PSoC4/BLE_HAL_PVT.c ****                 byteOffset++;
 190:Generated_Source\PSoC4/BLE_HAL_PVT.c ****             }
 191:Generated_Source\PSoC4/BLE_HAL_PVT.c **** 
 192:Generated_Source\PSoC4/BLE_HAL_PVT.c ****             if(rowsNotEqual != 0u)
 193:Generated_Source\PSoC4/BLE_HAL_PVT.c ****             {
 194:Generated_Source\PSoC4/BLE_HAL_PVT.c ****                 /* Write flash row */
 195:Generated_Source\PSoC4/BLE_HAL_PVT.c ****                 rc = CySysFlashWriteRow(rowId, writeBuffer);
 196:Generated_Source\PSoC4/BLE_HAL_PVT.c ****             }
 197:Generated_Source\PSoC4/BLE_HAL_PVT.c **** 
 198:Generated_Source\PSoC4/BLE_HAL_PVT.c ****             /* Go to the next row */
 199:Generated_Source\PSoC4/BLE_HAL_PVT.c ****             rowId++;
 200:Generated_Source\PSoC4/BLE_HAL_PVT.c ****         }
 201:Generated_Source\PSoC4/BLE_HAL_PVT.c ****     }
 202:Generated_Source\PSoC4/BLE_HAL_PVT.c ****     else
 203:Generated_Source\PSoC4/BLE_HAL_PVT.c ****     {
 204:Generated_Source\PSoC4/BLE_HAL_PVT.c ****         rc = CYRET_BAD_PARAM;
  53              		.loc 1 204 0
  54 000e 0120     		movs	r0, #1
  55              	.LVL2:
 164:Generated_Source\PSoC4/BLE_HAL_PVT.c ****     {
  56              		.loc 1 164 0
  57 0010 9A42     		cmp	r2, r3
  58 0012 34D8     		bhi	.L10
 156:Generated_Source\PSoC4/BLE_HAL_PVT.c ****     uint32 eeOffset;
  59              		.loc 1 156 0
  60 0014 0020     		movs	r0, #0
 155:Generated_Source\PSoC4/BLE_HAL_PVT.c ****     cystatus rc = CYRET_SUCCESS;
  61              		.loc 1 155 0
  62 0016 0500     		movs	r5, r0
 166:Generated_Source\PSoC4/BLE_HAL_PVT.c ****         byteOffset = CY_FLASH_SIZEOF_ROW * rowId;
  63              		.loc 1 166 0
  64 0018 0E0A     		lsrs	r6, r1, #8
  65              	.LVL3:
 167:Generated_Source\PSoC4/BLE_HAL_PVT.c **** 
  66              		.loc 1 167 0
  67 001a 3302     		lsls	r3, r6, #8
  68              	.LVL4:
  69 001c 04AC     		add	r4, sp, #16
  70 001e E41A     		subs	r4, r4, r3
  71              	.LVL5:
  72              	.L3:
 169:Generated_Source\PSoC4/BLE_HAL_PVT.c ****         {
ARM GAS  C:\Users\Administrator\AppData\Local\Temp\cc8QjbCg.s 			page 6


  73              		.loc 1 169 0
  74 0020 009A     		ldr	r2, [sp]
  75 0022 9542     		cmp	r5, r2
  76 0024 04D3     		bcc	.L9
  77              	.L11:
 205:Generated_Source\PSoC4/BLE_HAL_PVT.c ****     }
 206:Generated_Source\PSoC4/BLE_HAL_PVT.c **** 
 207:Generated_Source\PSoC4/BLE_HAL_PVT.c ****     /* Mask return codes from flash, if they are not supported */
 208:Generated_Source\PSoC4/BLE_HAL_PVT.c ****     if ((CYRET_SUCCESS != rc) && (CYRET_BAD_PARAM != rc))
  78              		.loc 1 208 0
  79 0026 0128     		cmp	r0, #1
  80 0028 29D9     		bls	.L10
 209:Generated_Source\PSoC4/BLE_HAL_PVT.c ****     {
 210:Generated_Source\PSoC4/BLE_HAL_PVT.c ****         rc = CYRET_UNKNOWN;
  81              		.loc 1 210 0
  82 002a 0120     		movs	r0, #1
  83              	.LVL6:
  84 002c 4042     		rsbs	r0, r0, #0
  85 002e 26E0     		b	.L10
  86              	.LVL7:
  87              	.L9:
 169:Generated_Source\PSoC4/BLE_HAL_PVT.c ****         {
  88              		.loc 1 169 0 discriminator 1
  89 0030 0028     		cmp	r0, #0
  90 0032 F8D1     		bne	.L11
  91 0034 5A1C     		adds	r2, r3, #1
  92 0036 FF32     		adds	r2, r2, #255
  93 0038 0192     		str	r2, [sp, #4]
 169:Generated_Source\PSoC4/BLE_HAL_PVT.c ****         {
  94              		.loc 1 169 0 is_stmt 0
  95 003a 0290     		str	r0, [sp, #8]
  96              	.L7:
  97              	.LVL8:
 175:Generated_Source\PSoC4/BLE_HAL_PVT.c ****                 {
  98              		.loc 1 175 0 is_stmt 1
  99 003c 9F42     		cmp	r7, r3
 100 003e 0CD8     		bhi	.L4
 175:Generated_Source\PSoC4/BLE_HAL_PVT.c ****                 {
 101              		.loc 1 175 0 is_stmt 0 discriminator 1
 102 0040 0099     		ldr	r1, [sp]
 103 0042 A942     		cmp	r1, r5
 104 0044 09D9     		bls	.L4
 177:Generated_Source\PSoC4/BLE_HAL_PVT.c ****                     /* Detect that row programming is required */
 105              		.loc 1 177 0 is_stmt 1
 106 0046 0399     		ldr	r1, [sp, #12]
 179:Generated_Source\PSoC4/BLE_HAL_PVT.c ****                     {
 107              		.loc 1 179 0
 108 0048 1A78     		ldrb	r2, [r3]
 177:Generated_Source\PSoC4/BLE_HAL_PVT.c ****                     /* Detect that row programming is required */
 109              		.loc 1 177 0
 110 004a 495D     		ldrb	r1, [r1, r5]
 111 004c E154     		strb	r1, [r4, r3]
 179:Generated_Source\PSoC4/BLE_HAL_PVT.c ****                     {
 112              		.loc 1 179 0
 113 004e 9142     		cmp	r1, r2
 114 0050 01D0     		beq	.L5
 181:Generated_Source\PSoC4/BLE_HAL_PVT.c ****                     }
ARM GAS  C:\Users\Administrator\AppData\Local\Temp\cc8QjbCg.s 			page 7


 115              		.loc 1 181 0
 116 0052 0122     		movs	r2, #1
 117 0054 0292     		str	r2, [sp, #8]
 118              	.LVL9:
 119              	.L5:
 183:Generated_Source\PSoC4/BLE_HAL_PVT.c ****                 }
 120              		.loc 1 183 0
 121 0056 0135     		adds	r5, r5, #1
 122              	.LVL10:
 123 0058 01E0     		b	.L6
 124              	.L4:
 187:Generated_Source\PSoC4/BLE_HAL_PVT.c ****                 }
 125              		.loc 1 187 0
 126 005a 1978     		ldrb	r1, [r3]
 127 005c E154     		strb	r1, [r4, r3]
 128              	.L6:
 173:Generated_Source\PSoC4/BLE_HAL_PVT.c ****             {
 129              		.loc 1 173 0 discriminator 2
 130 005e 019A     		ldr	r2, [sp, #4]
 189:Generated_Source\PSoC4/BLE_HAL_PVT.c ****             }
 131              		.loc 1 189 0 discriminator 2
 132 0060 0133     		adds	r3, r3, #1
 133              	.LVL11:
 173:Generated_Source\PSoC4/BLE_HAL_PVT.c ****             {
 134              		.loc 1 173 0 discriminator 2
 135 0062 9A42     		cmp	r2, r3
 136 0064 EAD1     		bne	.L7
 192:Generated_Source\PSoC4/BLE_HAL_PVT.c ****             {
 137              		.loc 1 192 0
 138 0066 029B     		ldr	r3, [sp, #8]
 139              	.LVL12:
 140 0068 002B     		cmp	r3, #0
 141 006a 03D0     		beq	.L8
 195:Generated_Source\PSoC4/BLE_HAL_PVT.c ****             }
 142              		.loc 1 195 0
 143 006c 04A9     		add	r1, sp, #16
 144 006e 3000     		movs	r0, r6
 145              	.LVL13:
 146 0070 FFF7FEFF 		bl	CySysFlashWriteRow
 147              	.LVL14:
 148              	.L8:
 149 0074 013C     		subs	r4, r4, #1
 199:Generated_Source\PSoC4/BLE_HAL_PVT.c ****         }
 150              		.loc 1 199 0
 151 0076 0136     		adds	r6, r6, #1
 152              	.LVL15:
 153 0078 FF3C     		subs	r4, r4, #255
 154 007a 019B     		ldr	r3, [sp, #4]
 155 007c D0E7     		b	.L3
 156              	.LVL16:
 157              	.L10:
 211:Generated_Source\PSoC4/BLE_HAL_PVT.c ****     }
 212:Generated_Source\PSoC4/BLE_HAL_PVT.c ****     
 213:Generated_Source\PSoC4/BLE_HAL_PVT.c ****     return (rc);
 214:Generated_Source\PSoC4/BLE_HAL_PVT.c **** }
 158              		.loc 1 214 0
 159 007e 45B0     		add	sp, sp, #276
ARM GAS  C:\Users\Administrator\AppData\Local\Temp\cc8QjbCg.s 			page 8


 160              		@ sp needed
 161              	.LVL17:
 162 0080 F0BD     		pop	{r4, r5, r6, r7, pc}
 163              	.L20:
 164 0082 C046     		.align	2
 165              	.L19:
 166 0084 FFFF0300 		.word	262143
 167              		.cfi_endproc
 168              	.LFE2:
 169              		.size	CyBLE_Nvram_Write, .-CyBLE_Nvram_Write
 170              		.section	.text.CyBLE_Nvram_Erase,"ax",%progbits
 171              		.align	1
 172              		.global	CyBLE_Nvram_Erase
 173              		.code	16
 174              		.thumb_func
 175              		.type	CyBLE_Nvram_Erase, %function
 176              	CyBLE_Nvram_Erase:
 177              	.LFB3:
 215:Generated_Source\PSoC4/BLE_HAL_PVT.c **** 
 216:Generated_Source\PSoC4/BLE_HAL_PVT.c **** /*******************************************************************************
 217:Generated_Source\PSoC4/BLE_HAL_PVT.c **** * Function Name: CyBLE_Nvram_Erase
 218:Generated_Source\PSoC4/BLE_HAL_PVT.c **** ****************************************************************************//**
 219:Generated_Source\PSoC4/BLE_HAL_PVT.c **** *
 220:Generated_Source\PSoC4/BLE_HAL_PVT.c **** *  This function erases the data from the NVRAM store. It will perform an 
 221:Generated_Source\PSoC4/BLE_HAL_PVT.c **** *  address range check based on the length before performing erase operation.
 222:Generated_Source\PSoC4/BLE_HAL_PVT.c **** *
 223:Generated_Source\PSoC4/BLE_HAL_PVT.c **** *  \param varFlash: the pointer to the array or variable in the flash.
 224:Generated_Source\PSoC4/BLE_HAL_PVT.c **** *  \param length:    the length of the data in bytes.
 225:Generated_Source\PSoC4/BLE_HAL_PVT.c **** *
 226:Generated_Source\PSoC4/BLE_HAL_PVT.c **** * \return
 227:Generated_Source\PSoC4/BLE_HAL_PVT.c **** *  CYRET_SUCCESS    a successful write
 228:Generated_Source\PSoC4/BLE_HAL_PVT.c **** *  CYRET_BAD_PARAM  A request to write outside the flash boundary.
 229:Generated_Source\PSoC4/BLE_HAL_PVT.c **** *  CYRET_UNKNOWN    Other errors in writing the flash
 230:Generated_Source\PSoC4/BLE_HAL_PVT.c **** *
 231:Generated_Source\PSoC4/BLE_HAL_PVT.c **** *******************************************************************************/
 232:Generated_Source\PSoC4/BLE_HAL_PVT.c **** cystatus CyBLE_Nvram_Erase (const uint8 *varFlash, uint16 length)
 233:Generated_Source\PSoC4/BLE_HAL_PVT.c **** {
 178              		.loc 1 233 0
 179              		.cfi_startproc
 180              		@ args = 0, pretend = 0, frame = 256
 181              		@ frame_needed = 0, uses_anonymous_args = 0
 182              	.LVL18:
 234:Generated_Source\PSoC4/BLE_HAL_PVT.c ****     const uint8 *tempFlash;
 235:Generated_Source\PSoC4/BLE_HAL_PVT.c ****     uint8 flashBuffer[CY_FLASH_SIZEOF_ROW] = {0u};
 183              		.loc 1 235 0
 184 0000 8022     		movs	r2, #128
 233:Generated_Source\PSoC4/BLE_HAL_PVT.c ****     const uint8 *tempFlash;
 185              		.loc 1 233 0
 186 0002 70B5     		push	{r4, r5, r6, lr}
 187              		.cfi_def_cfa_offset 16
 188              		.cfi_offset 4, -16
 189              		.cfi_offset 5, -12
 190              		.cfi_offset 6, -8
 191              		.cfi_offset 14, -4
 192 0004 C0B0     		sub	sp, sp, #256
 193              		.cfi_def_cfa_offset 272
 233:Generated_Source\PSoC4/BLE_HAL_PVT.c ****     const uint8 *tempFlash;
ARM GAS  C:\Users\Administrator\AppData\Local\Temp\cc8QjbCg.s 			page 9


 194              		.loc 1 233 0
 195 0006 0500     		movs	r5, r0
 196 0008 0C00     		movs	r4, r1
 197              		.loc 1 235 0
 198 000a 5200     		lsls	r2, r2, #1
 199 000c 0021     		movs	r1, #0
 200              	.LVL19:
 201 000e 6846     		mov	r0, sp
 202              	.LVL20:
 203 0010 FFF7FEFF 		bl	memset
 204              	.LVL21:
 236:Generated_Source\PSoC4/BLE_HAL_PVT.c ****     uint16 lengthFlash;
 237:Generated_Source\PSoC4/BLE_HAL_PVT.c ****     uint16 lengthRemaining;
 238:Generated_Source\PSoC4/BLE_HAL_PVT.c ****     cystatus rc = CYRET_UNKNOWN;
 205              		.loc 1 238 0
 206 0014 0120     		movs	r0, #1
 207 0016 4042     		rsbs	r0, r0, #0
 208              	.LVL22:
 209              	.L22:
 239:Generated_Source\PSoC4/BLE_HAL_PVT.c **** 
 240:Generated_Source\PSoC4/BLE_HAL_PVT.c ****     tempFlash = varFlash;
 241:Generated_Source\PSoC4/BLE_HAL_PVT.c ****     lengthRemaining = length;
 242:Generated_Source\PSoC4/BLE_HAL_PVT.c **** 
 243:Generated_Source\PSoC4/BLE_HAL_PVT.c ****     while(lengthRemaining > 0u)
 210              		.loc 1 243 0
 211 0018 002C     		cmp	r4, #0
 212 001a 10D0     		beq	.L24
 244:Generated_Source\PSoC4/BLE_HAL_PVT.c ****     {
 245:Generated_Source\PSoC4/BLE_HAL_PVT.c ****         if(lengthRemaining < CY_FLASH_SIZEOF_ROW)
 213              		.loc 1 245 0
 214 001c 2600     		movs	r6, r4
 215 001e FF2C     		cmp	r4, #255
 216 0020 01D9     		bls	.L23
 246:Generated_Source\PSoC4/BLE_HAL_PVT.c ****         {
 247:Generated_Source\PSoC4/BLE_HAL_PVT.c ****             lengthFlash = lengthRemaining;
 248:Generated_Source\PSoC4/BLE_HAL_PVT.c ****         }
 249:Generated_Source\PSoC4/BLE_HAL_PVT.c ****         else
 250:Generated_Source\PSoC4/BLE_HAL_PVT.c ****         {
 251:Generated_Source\PSoC4/BLE_HAL_PVT.c ****             lengthFlash = CY_FLASH_SIZEOF_ROW;
 217              		.loc 1 251 0
 218 0022 8026     		movs	r6, #128
 219 0024 7600     		lsls	r6, r6, #1
 220              	.L23:
 221              	.LVL23:
 252:Generated_Source\PSoC4/BLE_HAL_PVT.c ****         }
 253:Generated_Source\PSoC4/BLE_HAL_PVT.c ****         rc = CyBLE_Nvram_Write(flashBuffer, tempFlash, lengthFlash);
 222              		.loc 1 253 0
 223 0026 3200     		movs	r2, r6
 224 0028 2900     		movs	r1, r5
 225 002a 6846     		mov	r0, sp
 226              	.LVL24:
 227 002c FFF7FEFF 		bl	CyBLE_Nvram_Write
 228              	.LVL25:
 254:Generated_Source\PSoC4/BLE_HAL_PVT.c ****         if(rc != CYRET_SUCCESS)
 229              		.loc 1 254 0
 230 0030 0028     		cmp	r0, #0
 231 0032 04D1     		bne	.L24
ARM GAS  C:\Users\Administrator\AppData\Local\Temp\cc8QjbCg.s 			page 10


 255:Generated_Source\PSoC4/BLE_HAL_PVT.c ****         {
 256:Generated_Source\PSoC4/BLE_HAL_PVT.c ****             break;
 257:Generated_Source\PSoC4/BLE_HAL_PVT.c ****         }
 258:Generated_Source\PSoC4/BLE_HAL_PVT.c ****         tempFlash += CY_FLASH_SIZEOF_ROW;
 232              		.loc 1 258 0
 233 0034 0135     		adds	r5, r5, #1
 234              	.LVL26:
 259:Generated_Source\PSoC4/BLE_HAL_PVT.c ****         lengthRemaining -= lengthFlash;
 235              		.loc 1 259 0
 236 0036 A41B     		subs	r4, r4, r6
 237              	.LVL27:
 258:Generated_Source\PSoC4/BLE_HAL_PVT.c ****         lengthRemaining -= lengthFlash;
 238              		.loc 1 258 0
 239 0038 FF35     		adds	r5, r5, #255
 240              	.LVL28:
 241              		.loc 1 259 0
 242 003a A4B2     		uxth	r4, r4
 243              	.LVL29:
 244 003c ECE7     		b	.L22
 245              	.LVL30:
 246              	.L24:
 260:Generated_Source\PSoC4/BLE_HAL_PVT.c ****     }
 261:Generated_Source\PSoC4/BLE_HAL_PVT.c **** 
 262:Generated_Source\PSoC4/BLE_HAL_PVT.c ****     return rc;
 263:Generated_Source\PSoC4/BLE_HAL_PVT.c **** }
 247              		.loc 1 263 0
 248 003e 40B0     		add	sp, sp, #256
 249              		@ sp needed
 250              	.LVL31:
 251              	.LVL32:
 252 0040 70BD     		pop	{r4, r5, r6, pc}
 253              		.cfi_endproc
 254              	.LFE3:
 255              		.size	CyBLE_Nvram_Erase, .-CyBLE_Nvram_Erase
 256              		.section	.text.CyBLE_Bless_LlRegRead,"ax",%progbits
 257              		.align	1
 258              		.global	CyBLE_Bless_LlRegRead
 259              		.code	16
 260              		.thumb_func
 261              		.type	CyBLE_Bless_LlRegRead, %function
 262              	CyBLE_Bless_LlRegRead:
 263              	.LFB58:
 264              		.cfi_startproc
 265              		@ args = 0, pretend = 0, frame = 0
 266              		@ frame_needed = 0, uses_anonymous_args = 0
 267              		@ link register save eliminated.
 268 0000 0368     		ldr	r3, [r0]
 269              		@ sp needed
 270 0002 0B80     		strh	r3, [r1]
 271 0004 7047     		bx	lr
 272              		.cfi_endproc
 273              	.LFE58:
 274              		.size	CyBLE_Bless_LlRegRead, .-CyBLE_Bless_LlRegRead
 275              		.section	.text.CyBLE_Bless_LlRegWrite,"ax",%progbits
 276              		.align	1
 277              		.global	CyBLE_Bless_LlRegWrite
 278              		.code	16
ARM GAS  C:\Users\Administrator\AppData\Local\Temp\cc8QjbCg.s 			page 11


 279              		.thumb_func
 280              		.type	CyBLE_Bless_LlRegWrite, %function
 281              	CyBLE_Bless_LlRegWrite:
 282              	.LFB56:
 283              		.cfi_startproc
 284              		@ args = 0, pretend = 0, frame = 0
 285              		@ frame_needed = 0, uses_anonymous_args = 0
 286              		@ link register save eliminated.
 287 0000 0160     		str	r1, [r0]
 288              		@ sp needed
 289 0002 7047     		bx	lr
 290              		.cfi_endproc
 291              	.LFE56:
 292              		.size	CyBLE_Bless_LlRegWrite, .-CyBLE_Bless_LlRegWrite
 293              		.section	.text.CyBLE_Bless_RfRegRead,"ax",%progbits
 294              		.align	1
 295              		.global	CyBLE_Bless_RfRegRead
 296              		.code	16
 297              		.thumb_func
 298              		.type	CyBLE_Bless_RfRegRead, %function
 299              	CyBLE_Bless_RfRegRead:
 300              	.LFB6:
 264:Generated_Source\PSoC4/BLE_HAL_PVT.c **** 
 265:Generated_Source\PSoC4/BLE_HAL_PVT.c **** 
 266:Generated_Source\PSoC4/BLE_HAL_PVT.c **** /*******************************************************************************
 267:Generated_Source\PSoC4/BLE_HAL_PVT.c **** * Function Name: CyBLE_Bless_LlRegRead
 268:Generated_Source\PSoC4/BLE_HAL_PVT.c **** ****************************************************************************//**
 269:Generated_Source\PSoC4/BLE_HAL_PVT.c **** *
 270:Generated_Source\PSoC4/BLE_HAL_PVT.c **** *  This function reads the content of the BLESS Link Layer register from the 
 271:Generated_Source\PSoC4/BLE_HAL_PVT.c **** *  stack.
 272:Generated_Source\PSoC4/BLE_HAL_PVT.c **** *
 273:Generated_Source\PSoC4/BLE_HAL_PVT.c **** *  \param blessAddr: the pointer to the BLESS link layer address.
 274:Generated_Source\PSoC4/BLE_HAL_PVT.c **** *  \param regValue: the pointer to the buffer space to copy the read value.
 275:Generated_Source\PSoC4/BLE_HAL_PVT.c **** *
 276:Generated_Source\PSoC4/BLE_HAL_PVT.c **** * \return
 277:Generated_Source\PSoC4/BLE_HAL_PVT.c **** *  None
 278:Generated_Source\PSoC4/BLE_HAL_PVT.c **** *
 279:Generated_Source\PSoC4/BLE_HAL_PVT.c **** *******************************************************************************/
 280:Generated_Source\PSoC4/BLE_HAL_PVT.c **** void CyBLE_Bless_LlRegRead (const reg32 *blessAddr, uint16 *regValue)
 281:Generated_Source\PSoC4/BLE_HAL_PVT.c **** {
 282:Generated_Source\PSoC4/BLE_HAL_PVT.c ****     *regValue = (uint16)CY_GET_REG32(blessAddr);
 283:Generated_Source\PSoC4/BLE_HAL_PVT.c **** }
 284:Generated_Source\PSoC4/BLE_HAL_PVT.c **** 
 285:Generated_Source\PSoC4/BLE_HAL_PVT.c **** 
 286:Generated_Source\PSoC4/BLE_HAL_PVT.c **** /*******************************************************************************
 287:Generated_Source\PSoC4/BLE_HAL_PVT.c **** * Function Name: CyBLE_Bless_LlRegWrite
 288:Generated_Source\PSoC4/BLE_HAL_PVT.c **** ****************************************************************************//**
 289:Generated_Source\PSoC4/BLE_HAL_PVT.c **** *
 290:Generated_Source\PSoC4/BLE_HAL_PVT.c **** *  This function writes to the BLESS Link Layer register from the stack.
 291:Generated_Source\PSoC4/BLE_HAL_PVT.c **** *
 292:Generated_Source\PSoC4/BLE_HAL_PVT.c **** *  \param blessAddr: the pointer to the BLESS link layer address.
 293:Generated_Source\PSoC4/BLE_HAL_PVT.c **** *  \param regValue: the pointer to the value to be written to the BLESS LL reg.
 294:Generated_Source\PSoC4/BLE_HAL_PVT.c **** *
 295:Generated_Source\PSoC4/BLE_HAL_PVT.c **** * \return
 296:Generated_Source\PSoC4/BLE_HAL_PVT.c **** *  None
 297:Generated_Source\PSoC4/BLE_HAL_PVT.c **** *
 298:Generated_Source\PSoC4/BLE_HAL_PVT.c **** *******************************************************************************/
ARM GAS  C:\Users\Administrator\AppData\Local\Temp\cc8QjbCg.s 			page 12


 299:Generated_Source\PSoC4/BLE_HAL_PVT.c **** void CyBLE_Bless_LlRegWrite (reg32 *blessAddr, const uint16 regValue)
 300:Generated_Source\PSoC4/BLE_HAL_PVT.c **** {
 301:Generated_Source\PSoC4/BLE_HAL_PVT.c ****     CY_SET_REG32(blessAddr, regValue);
 302:Generated_Source\PSoC4/BLE_HAL_PVT.c **** }
 303:Generated_Source\PSoC4/BLE_HAL_PVT.c **** 
 304:Generated_Source\PSoC4/BLE_HAL_PVT.c **** 
 305:Generated_Source\PSoC4/BLE_HAL_PVT.c **** /*******************************************************************************
 306:Generated_Source\PSoC4/BLE_HAL_PVT.c **** * Function Name: CyBLE_Bless_RfRegRead
 307:Generated_Source\PSoC4/BLE_HAL_PVT.c **** ****************************************************************************//**
 308:Generated_Source\PSoC4/BLE_HAL_PVT.c **** *
 309:Generated_Source\PSoC4/BLE_HAL_PVT.c **** *  This function reads the content of the BLESS RF register from the stack.
 310:Generated_Source\PSoC4/BLE_HAL_PVT.c **** *
 311:Generated_Source\PSoC4/BLE_HAL_PVT.c **** *  \param blessAddr: the pointer to BLESS RF register address.
 312:Generated_Source\PSoC4/BLE_HAL_PVT.c **** *  \param regValue: the pointer to the buffer space to copy the read value.
 313:Generated_Source\PSoC4/BLE_HAL_PVT.c **** *
 314:Generated_Source\PSoC4/BLE_HAL_PVT.c **** * \return
 315:Generated_Source\PSoC4/BLE_HAL_PVT.c **** *  None
 316:Generated_Source\PSoC4/BLE_HAL_PVT.c **** *
 317:Generated_Source\PSoC4/BLE_HAL_PVT.c **** *******************************************************************************/
 318:Generated_Source\PSoC4/BLE_HAL_PVT.c **** void CyBLE_Bless_RfRegRead (const reg32 *blessAddr, uint16 *regValue)
 319:Generated_Source\PSoC4/BLE_HAL_PVT.c **** {
 301              		.loc 1 319 0
 302              		.cfi_startproc
 303              		@ args = 0, pretend = 0, frame = 0
 304              		@ frame_needed = 0, uses_anonymous_args = 0
 305              		@ link register save eliminated.
 306              	.LVL33:
 320:Generated_Source\PSoC4/BLE_HAL_PVT.c ****     *regValue = (uint16)CY_GET_REG32(blessAddr);
 307              		.loc 1 320 0
 308 0000 0368     		ldr	r3, [r0]
 321:Generated_Source\PSoC4/BLE_HAL_PVT.c **** }
 309              		.loc 1 321 0
 310              		@ sp needed
 320:Generated_Source\PSoC4/BLE_HAL_PVT.c ****     *regValue = (uint16)CY_GET_REG32(blessAddr);
 311              		.loc 1 320 0
 312 0002 0B80     		strh	r3, [r1]
 313              		.loc 1 321 0
 314 0004 7047     		bx	lr
 315              		.cfi_endproc
 316              	.LFE6:
 317              		.size	CyBLE_Bless_RfRegRead, .-CyBLE_Bless_RfRegRead
 318              		.section	.text.CyBLE_Bless_RfRegWrite,"ax",%progbits
 319              		.align	1
 320              		.global	CyBLE_Bless_RfRegWrite
 321              		.code	16
 322              		.thumb_func
 323              		.type	CyBLE_Bless_RfRegWrite, %function
 324              	CyBLE_Bless_RfRegWrite:
 325              	.LFB7:
 322:Generated_Source\PSoC4/BLE_HAL_PVT.c **** 
 323:Generated_Source\PSoC4/BLE_HAL_PVT.c **** 
 324:Generated_Source\PSoC4/BLE_HAL_PVT.c **** /*******************************************************************************
 325:Generated_Source\PSoC4/BLE_HAL_PVT.c **** * Function Name: CyBLE_Bless_RfRegWrite
 326:Generated_Source\PSoC4/BLE_HAL_PVT.c **** ****************************************************************************//**
 327:Generated_Source\PSoC4/BLE_HAL_PVT.c **** *
 328:Generated_Source\PSoC4/BLE_HAL_PVT.c **** *  This function writes to the BLESS RF register from the stack.
 329:Generated_Source\PSoC4/BLE_HAL_PVT.c **** *
ARM GAS  C:\Users\Administrator\AppData\Local\Temp\cc8QjbCg.s 			page 13


 330:Generated_Source\PSoC4/BLE_HAL_PVT.c **** *  \param blessAddr: the pointer to the BLESS RF address.
 331:Generated_Source\PSoC4/BLE_HAL_PVT.c **** *  \param regValue: the pointer to the value to be written to the BLESS RF reg.
 332:Generated_Source\PSoC4/BLE_HAL_PVT.c **** *
 333:Generated_Source\PSoC4/BLE_HAL_PVT.c **** * \return
 334:Generated_Source\PSoC4/BLE_HAL_PVT.c **** *  None
 335:Generated_Source\PSoC4/BLE_HAL_PVT.c **** *
 336:Generated_Source\PSoC4/BLE_HAL_PVT.c **** *******************************************************************************/
 337:Generated_Source\PSoC4/BLE_HAL_PVT.c **** void CyBLE_Bless_RfRegWrite (reg32 *blessAddr, const uint16 regValue)
 338:Generated_Source\PSoC4/BLE_HAL_PVT.c **** {
 326              		.loc 1 338 0
 327              		.cfi_startproc
 328              		@ args = 0, pretend = 0, frame = 0
 329              		@ frame_needed = 0, uses_anonymous_args = 0
 330              		@ link register save eliminated.
 331              	.LVL34:
 339:Generated_Source\PSoC4/BLE_HAL_PVT.c ****      CY_SET_REG32(blessAddr, regValue);
 332              		.loc 1 339 0
 333 0000 0160     		str	r1, [r0]
 340:Generated_Source\PSoC4/BLE_HAL_PVT.c **** }
 334              		.loc 1 340 0
 335              		@ sp needed
 336 0002 7047     		bx	lr
 337              		.cfi_endproc
 338              	.LFE7:
 339              		.size	CyBLE_Bless_RfRegWrite, .-CyBLE_Bless_RfRegWrite
 340              		.section	.text.CyBLE_BlessDeviceConfig,"ax",%progbits
 341              		.align	1
 342              		.global	CyBLE_BlessDeviceConfig
 343              		.code	16
 344              		.thumb_func
 345              		.type	CyBLE_BlessDeviceConfig, %function
 346              	CyBLE_BlessDeviceConfig:
 347              	.LFB8:
 341:Generated_Source\PSoC4/BLE_HAL_PVT.c **** 
 342:Generated_Source\PSoC4/BLE_HAL_PVT.c **** /*******************************************************************************
 343:Generated_Source\PSoC4/BLE_HAL_PVT.c **** * Function Name: CyBLE_BlessDeviceConfig
 344:Generated_Source\PSoC4/BLE_HAL_PVT.c **** ****************************************************************************//**
 345:Generated_Source\PSoC4/BLE_HAL_PVT.c **** *
 346:Generated_Source\PSoC4/BLE_HAL_PVT.c **** *  This function configures BLESS registers by trimmed values stored in SFLASH.
 347:Generated_Source\PSoC4/BLE_HAL_PVT.c **** *
 348:Generated_Source\PSoC4/BLE_HAL_PVT.c **** * \return
 349:Generated_Source\PSoC4/BLE_HAL_PVT.c **** *  None
 350:Generated_Source\PSoC4/BLE_HAL_PVT.c **** *
 351:Generated_Source\PSoC4/BLE_HAL_PVT.c **** *******************************************************************************/
 352:Generated_Source\PSoC4/BLE_HAL_PVT.c **** void CyBLE_BlessDeviceConfig(void)
 353:Generated_Source\PSoC4/BLE_HAL_PVT.c **** {
 348              		.loc 1 353 0
 349              		.cfi_startproc
 350              		@ args = 0, pretend = 0, frame = 0
 351              		@ frame_needed = 0, uses_anonymous_args = 0
 352              		@ link register save eliminated.
 354:Generated_Source\PSoC4/BLE_HAL_PVT.c **** #if (CYIPBLOCK_m0s8bless_VERSION < 3)
 355:Generated_Source\PSoC4/BLE_HAL_PVT.c ****     
 356:Generated_Source\PSoC4/BLE_HAL_PVT.c ****     uint32 trimRegValue;
 357:Generated_Source\PSoC4/BLE_HAL_PVT.c ****     uint32 ldo;
 358:Generated_Source\PSoC4/BLE_HAL_PVT.c ****     uint16 trimRef34Val;
 359:Generated_Source\PSoC4/BLE_HAL_PVT.c ****     uint16 trimRef38Val;    
ARM GAS  C:\Users\Administrator\AppData\Local\Temp\cc8QjbCg.s 			page 14


 360:Generated_Source\PSoC4/BLE_HAL_PVT.c ****     uint32 siliconRev;
 361:Generated_Source\PSoC4/BLE_HAL_PVT.c **** 
 362:Generated_Source\PSoC4/BLE_HAL_PVT.c ****     trimRegValue = ((uint32)CYBLE_SFLASH_BLESS_BB_BUMP2_HIGH_REG << 8u) | CYBLE_SFLASH_BLESS_BB_BUM
 353              		.loc 1 362 0
 354 0000 2B4B     		ldr	r3, .L39
 363:Generated_Source\PSoC4/BLE_HAL_PVT.c ****     ldo = ((uint32)CYBLE_SFLASH_BLESS_LDO_HIGH_REG << 8u) | CYBLE_SFLASH_BLESS_LDO_LOW_REG;
 355              		.loc 1 363 0
 356 0002 2C4A     		ldr	r2, .L39+4
 362:Generated_Source\PSoC4/BLE_HAL_PVT.c ****     ldo = ((uint32)CYBLE_SFLASH_BLESS_LDO_HIGH_REG << 8u) | CYBLE_SFLASH_BLESS_LDO_LOW_REG;
 357              		.loc 1 362 0
 358 0004 1978     		ldrb	r1, [r3]
 359 0006 2C4B     		ldr	r3, .L39+8
 360 0008 0902     		lsls	r1, r1, #8
 361 000a 1B78     		ldrb	r3, [r3]
 362 000c 1943     		orrs	r1, r3
 363              	.LVL35:
 364              		.loc 1 363 0
 365 000e 2B4B     		ldr	r3, .L39+12
 366 0010 1B78     		ldrb	r3, [r3]
 367 0012 1278     		ldrb	r2, [r2]
 368 0014 1B02     		lsls	r3, r3, #8
 369 0016 1343     		orrs	r3, r2
 370              	.LVL36:
 364:Generated_Source\PSoC4/BLE_HAL_PVT.c **** 
 365:Generated_Source\PSoC4/BLE_HAL_PVT.c ****     if ((ldo == CYBLE_SFLASH_BLERD_LDO_REG_VAL1) && (trimRegValue == CYBLE_SFLASH_BLERD_BB_BUMP2_RE
 371              		.loc 1 365 0
 372 0018 294A     		ldr	r2, .L39+16
 373 001a 9342     		cmp	r3, r2
 374 001c 04D1     		bne	.L32
 375              		.loc 1 365 0 is_stmt 0 discriminator 1
 376 001e 0729     		cmp	r1, #7
 377 0020 09D1     		bne	.L33
 366:Generated_Source\PSoC4/BLE_HAL_PVT.c ****     {
 367:Generated_Source\PSoC4/BLE_HAL_PVT.c ****         ldo = CYBLE_BLERD_LDO_REG_VAL_FINAL;
 378              		.loc 1 367 0 is_stmt 1
 379 0022 284B     		ldr	r3, .L39+20
 380              	.LVL37:
 368:Generated_Source\PSoC4/BLE_HAL_PVT.c ****         trimRegValue = CYBLE_BLERD_BB_BUMP2_REG_VAL_FINAL;
 381              		.loc 1 368 0
 382 0024 0339     		subs	r1, r1, #3
 383              	.LVL38:
 384 0026 06E0     		b	.L33
 385              	.LVL39:
 386              	.L32:
 369:Generated_Source\PSoC4/BLE_HAL_PVT.c ****     }
 370:Generated_Source\PSoC4/BLE_HAL_PVT.c ****     else if ((ldo == CYBLE_SFLASH_BLERD_LDO_REG_VAL2) && (trimRegValue == CYBLE_BLERD_BB_BUMP2_REG_
 387              		.loc 1 370 0
 388 0028 D422     		movs	r2, #212
 389 002a 1201     		lsls	r2, r2, #4
 390 002c 9342     		cmp	r3, r2
 391 002e 02D1     		bne	.L33
 392              		.loc 1 370 0 is_stmt 0 discriminator 1
 393 0030 0429     		cmp	r1, #4
 394 0032 00D1     		bne	.L33
 371:Generated_Source\PSoC4/BLE_HAL_PVT.c ****     {
 372:Generated_Source\PSoC4/BLE_HAL_PVT.c ****         ldo = CYBLE_BLERD_LDO_REG_VAL_FINAL;
 395              		.loc 1 372 0 is_stmt 1
ARM GAS  C:\Users\Administrator\AppData\Local\Temp\cc8QjbCg.s 			page 15


 396 0034 234B     		ldr	r3, .L39+20
 397              	.LVL40:
 398              	.L33:
 373:Generated_Source\PSoC4/BLE_HAL_PVT.c ****     }
 374:Generated_Source\PSoC4/BLE_HAL_PVT.c ****     else
 375:Generated_Source\PSoC4/BLE_HAL_PVT.c ****     {
 376:Generated_Source\PSoC4/BLE_HAL_PVT.c ****     }
 377:Generated_Source\PSoC4/BLE_HAL_PVT.c **** 
 378:Generated_Source\PSoC4/BLE_HAL_PVT.c ****     CYBLE_BLE_BLERD_LDO_REG = ldo;
 399              		.loc 1 378 0
 400 0036 244A     		ldr	r2, .L39+24
 401 0038 1360     		str	r3, [r2]
 379:Generated_Source\PSoC4/BLE_HAL_PVT.c ****     CYBLE_BLE_BLERD_BB_BUMP2_REG = trimRegValue;
 402              		.loc 1 379 0
 403 003a 244B     		ldr	r3, .L39+28
 404              	.LVL41:
 380:Generated_Source\PSoC4/BLE_HAL_PVT.c **** 
 381:Generated_Source\PSoC4/BLE_HAL_PVT.c ****     /* Edit only XTAL fast charge bit */
 382:Generated_Source\PSoC4/BLE_HAL_PVT.c ****     trimRegValue = ((uint32)CYBLE_SFLASH_BLESS_BB_XO_HIGH_REG << 8u) | CYBLE_SFLASH_BLESS_BB_XO_LOW
 405              		.loc 1 382 0
 406 003c 244A     		ldr	r2, .L39+32
 407              	.LVL42:
 379:Generated_Source\PSoC4/BLE_HAL_PVT.c ****     CYBLE_BLE_BLERD_BB_BUMP2_REG = trimRegValue;
 408              		.loc 1 379 0
 409 003e 1960     		str	r1, [r3]
 410              	.LVL43:
 411              		.loc 1 382 0
 412 0040 244B     		ldr	r3, .L39+36
 413 0042 1B78     		ldrb	r3, [r3]
 414 0044 1278     		ldrb	r2, [r2]
 415 0046 1B02     		lsls	r3, r3, #8
 416 0048 1343     		orrs	r3, r2
 417              	.LVL44:
 383:Generated_Source\PSoC4/BLE_HAL_PVT.c **** 
 384:Generated_Source\PSoC4/BLE_HAL_PVT.c ****     if ((trimRegValue == CYBLE_SFLASH_BLERD_BB_XO_REG_VAL1) || (trimRegValue == CYBLE_SFLASH_BLERD_
 418              		.loc 1 384 0
 419 004a 234A     		ldr	r2, .L39+40
 420 004c 1342     		tst	r3, r2
 421 004e 00D1     		bne	.L34
 385:Generated_Source\PSoC4/BLE_HAL_PVT.c ****     {
 386:Generated_Source\PSoC4/BLE_HAL_PVT.c ****         trimRegValue = CYBLE_BLERD_BB_XO_REG_VAL_FINAL;
 422              		.loc 1 386 0
 423 0050 224B     		ldr	r3, .L39+44
 424              	.LVL45:
 425              	.L34:
 387:Generated_Source\PSoC4/BLE_HAL_PVT.c ****     }
 388:Generated_Source\PSoC4/BLE_HAL_PVT.c ****     
 389:Generated_Source\PSoC4/BLE_HAL_PVT.c ****     CYBLE_BLE_BLERD_BB_XO_REG = trimRegValue;
 426              		.loc 1 389 0
 427 0052 234A     		ldr	r2, .L39+48
 390:Generated_Source\PSoC4/BLE_HAL_PVT.c ****     
 391:Generated_Source\PSoC4/BLE_HAL_PVT.c ****     trimRegValue = ((uint32)CYBLE_SFLASH_BLESS_SY_BUMP1_HIGH_REG << 8u) | CYBLE_SFLASH_BLESS_SY_BUM
 428              		.loc 1 391 0
 429 0054 2349     		ldr	r1, .L39+52
 389:Generated_Source\PSoC4/BLE_HAL_PVT.c ****     
 430              		.loc 1 389 0
 431 0056 1360     		str	r3, [r2]
ARM GAS  C:\Users\Administrator\AppData\Local\Temp\cc8QjbCg.s 			page 16


 432              		.loc 1 391 0
 433 0058 234A     		ldr	r2, .L39+56
 434 005a 0B78     		ldrb	r3, [r1]
 435              	.LVL46:
 436 005c 1278     		ldrb	r2, [r2]
 437 005e 1B02     		lsls	r3, r3, #8
 438 0060 1343     		orrs	r3, r2
 439              	.LVL47:
 392:Generated_Source\PSoC4/BLE_HAL_PVT.c **** 
 393:Generated_Source\PSoC4/BLE_HAL_PVT.c ****     if ((trimRegValue == CYBLE_SFLASH_BLERD_SY_BUMP1_REG_VAL1) || 
 440              		.loc 1 393 0
 441 0062 224A     		ldr	r2, .L39+60
 442 0064 9342     		cmp	r3, r2
 443 0066 04D0     		beq	.L38
 444              		.loc 1 393 0 is_stmt 0 discriminator 1
 445 0068 214A     		ldr	r2, .L39+64
 446 006a 9342     		cmp	r3, r2
 447 006c 01D0     		beq	.L38
 394:Generated_Source\PSoC4/BLE_HAL_PVT.c ****         (trimRegValue == CYBLE_SFLASH_BLERD_SY_BUMP1_REG_VAL2) ||  
 448              		.loc 1 394 0 is_stmt 1
 449 006e 052B     		cmp	r3, #5
 450 0070 00D1     		bne	.L35
 451              	.L38:
 395:Generated_Source\PSoC4/BLE_HAL_PVT.c ****         (trimRegValue == CYBLE_SFLASH_BLERD_SY_BUMP1_REG_VAL3))
 396:Generated_Source\PSoC4/BLE_HAL_PVT.c ****     {
 397:Generated_Source\PSoC4/BLE_HAL_PVT.c ****         trimRegValue = CYBLE_BLERD_SY_BUMP1_REG_VAL_FINAL;
 452              		.loc 1 397 0
 453 0072 204B     		ldr	r3, .L39+68
 454              	.LVL48:
 455              	.L35:
 398:Generated_Source\PSoC4/BLE_HAL_PVT.c ****     }
 399:Generated_Source\PSoC4/BLE_HAL_PVT.c ****     CYBLE_BLE_BLERD_SY_BUMP1_REG = trimRegValue;
 456              		.loc 1 399 0
 457 0074 204A     		ldr	r2, .L39+72
 458 0076 1360     		str	r3, [r2]
 400:Generated_Source\PSoC4/BLE_HAL_PVT.c **** 
 401:Generated_Source\PSoC4/BLE_HAL_PVT.c ****     /* Following code is for F02FN trimming */
 402:Generated_Source\PSoC4/BLE_HAL_PVT.c ****     siliconRev = (CYBLE_BLE_SILICON_REV_REG >> 4u);
 459              		.loc 1 402 0
 460 0078 204B     		ldr	r3, .L39+76
 461              	.LVL49:
 403:Generated_Source\PSoC4/BLE_HAL_PVT.c ****     
 404:Generated_Source\PSoC4/BLE_HAL_PVT.c ****     if((CYBLE_BLE_FAMILY_ID_REG == CYBLE_PSOC4A_BLE256DMA_FID) && (siliconRev >= 0x02u) &&
 462              		.loc 1 404 0
 463 007a 214A     		ldr	r2, .L39+80
 464              	.LVL50:
 402:Generated_Source\PSoC4/BLE_HAL_PVT.c ****     
 465              		.loc 1 402 0
 466 007c 1B68     		ldr	r3, [r3]
 467              	.LVL51:
 468              		.loc 1 404 0
 469 007e 1268     		ldr	r2, [r2]
 470 0080 AA2A     		cmp	r2, #170
 471 0082 14D1     		bne	.L31
 472              		.loc 1 404 0 is_stmt 0 discriminator 1
 473 0084 1F2B     		cmp	r3, #31
 474 0086 12D9     		bls	.L31
ARM GAS  C:\Users\Administrator\AppData\Local\Temp\cc8QjbCg.s 			page 17


 405:Generated_Source\PSoC4/BLE_HAL_PVT.c ****         (CYBLE_SFLASH_BLESS_SY_BUMP1_HIGH_REG == 0x0Eu))
 475              		.loc 1 405 0 is_stmt 1 discriminator 2
 476 0088 0B78     		ldrb	r3, [r1]
 477              	.LVL52:
 404:Generated_Source\PSoC4/BLE_HAL_PVT.c ****         (CYBLE_SFLASH_BLESS_SY_BUMP1_HIGH_REG == 0x0Eu))
 478              		.loc 1 404 0 discriminator 2
 479 008a 0E2B     		cmp	r3, #14
 480 008c 0FD1     		bne	.L31
 406:Generated_Source\PSoC4/BLE_HAL_PVT.c **** 	{
 407:Generated_Source\PSoC4/BLE_HAL_PVT.c **** 		trimRef34Val = ((uint16)(((uint16) CYBLE_BLE_BLESS_REG34_TRIM_HIGH_REG) << 8u)) |
 481              		.loc 1 407 0
 482 008e 1D4B     		ldr	r3, .L39+84
 408:Generated_Source\PSoC4/BLE_HAL_PVT.c ****                         ((uint16)CYBLE_BLE_BLESS_REG34_TRIM_LOW_REG);
 483              		.loc 1 408 0
 484 0090 1D4A     		ldr	r2, .L39+88
 407:Generated_Source\PSoC4/BLE_HAL_PVT.c ****                         ((uint16)CYBLE_BLE_BLESS_REG34_TRIM_LOW_REG);
 485              		.loc 1 407 0
 486 0092 1B78     		ldrb	r3, [r3]
 487              		.loc 1 408 0
 488 0094 1278     		ldrb	r2, [r2]
 489              	.LVL53:
 409:Generated_Source\PSoC4/BLE_HAL_PVT.c **** 		CYBLE_BLERD_SY_BUMP2_REG = trimRef34Val;
 490              		.loc 1 409 0
 491 0096 1B02     		lsls	r3, r3, #8
 492              	.LVL54:
 493 0098 1343     		orrs	r3, r2
 494 009a 1C4A     		ldr	r2, .L39+92
 495 009c 1360     		str	r3, [r2]
 496              	.LVL55:
 410:Generated_Source\PSoC4/BLE_HAL_PVT.c **** 	
 411:Generated_Source\PSoC4/BLE_HAL_PVT.c **** 		trimRef38Val = ((uint16)(((uint16)CYBLE_BLE_BLESS_REG38_TRIM_HIGH_REG) << 8u)) |
 497              		.loc 1 411 0
 498 009e 1C4B     		ldr	r3, .L39+96
 412:Generated_Source\PSoC4/BLE_HAL_PVT.c ****             ((uint16) CYBLE_BLE_BLESS_REG38_TRIM_LOW_REG);
 499              		.loc 1 412 0
 500 00a0 1C4A     		ldr	r2, .L39+100
 411:Generated_Source\PSoC4/BLE_HAL_PVT.c ****             ((uint16) CYBLE_BLE_BLESS_REG38_TRIM_LOW_REG);
 501              		.loc 1 411 0
 502 00a2 1B78     		ldrb	r3, [r3]
 503              		.loc 1 412 0
 504 00a4 1278     		ldrb	r2, [r2]
 505              	.LVL56:
 413:Generated_Source\PSoC4/BLE_HAL_PVT.c **** 		CYBLE_BLERD_RX_BUMP2_REG = trimRef38Val;
 506              		.loc 1 413 0
 507 00a6 1B02     		lsls	r3, r3, #8
 508              	.LVL57:
 509 00a8 1343     		orrs	r3, r2
 510 00aa 1B4A     		ldr	r2, .L39+104
 511 00ac 1360     		str	r3, [r2]
 512              	.L31:
 414:Generated_Source\PSoC4/BLE_HAL_PVT.c **** 	}
 415:Generated_Source\PSoC4/BLE_HAL_PVT.c **** #endif /* (CYIPBLOCK_m0s8bless_VERSION < 3) */
 416:Generated_Source\PSoC4/BLE_HAL_PVT.c **** }
 513              		.loc 1 416 0
 514              		@ sp needed
 515 00ae 7047     		bx	lr
 516              	.L40:
ARM GAS  C:\Users\Administrator\AppData\Local\Temp\cc8QjbCg.s 			page 18


 517              		.align	2
 518              	.L39:
 519 00b0 59F1FF0F 		.word	268431705
 520 00b4 5EF1FF0F 		.word	268431710
 521 00b8 58F1FF0F 		.word	268431704
 522 00bc 5FF1FF0F 		.word	268431711
 523 00c0 580B0000 		.word	2904
 524 00c4 580D0000 		.word	3416
 525 00c8 6C002E40 		.word	1076756588
 526 00cc 74002E40 		.word	1076756596
 527 00d0 5AF1FF0F 		.word	268431706
 528 00d4 5BF1FF0F 		.word	268431707
 529 00d8 FFDFFFFF 		.word	-8193
 530 00dc 02200000 		.word	8194
 531 00e0 78002E40 		.word	1076756600
 532 00e4 5DF1FF0F 		.word	268431709
 533 00e8 5CF1FF0F 		.word	268431708
 534 00ec 0F0F0000 		.word	3855
 535 00f0 05050000 		.word	1285
 536 00f4 050F0000 		.word	3845
 537 00f8 80002E40 		.word	1076756608
 538 00fc EC0F00F0 		.word	-268431380
 539 0100 E00F00F0 		.word	-268431392
 540 0104 6DF2FF0F 		.word	268431981
 541 0108 6CF2FF0F 		.word	268431980
 542 010c 84002E40 		.word	1076756612
 543 0110 6FF2FF0F 		.word	268431983
 544 0114 6EF2FF0F 		.word	268431982
 545 0118 94002E40 		.word	1076756628
 546              		.cfi_endproc
 547              	.LFE8:
 548              		.size	CyBLE_BlessDeviceConfig, .-CyBLE_BlessDeviceConfig
 549              		.section	.text.CyBleHal_DelayUs,"ax",%progbits
 550              		.align	1
 551              		.global	CyBleHal_DelayUs
 552              		.code	16
 553              		.thumb_func
 554              		.type	CyBleHal_DelayUs, %function
 555              	CyBleHal_DelayUs:
 556              	.LFB9:
 417:Generated_Source\PSoC4/BLE_HAL_PVT.c **** 
 418:Generated_Source\PSoC4/BLE_HAL_PVT.c **** 
 419:Generated_Source\PSoC4/BLE_HAL_PVT.c **** /* Interface to CyDelayUs function */
 420:Generated_Source\PSoC4/BLE_HAL_PVT.c **** void CyBleHal_DelayUs(uint16 delayVal)
 421:Generated_Source\PSoC4/BLE_HAL_PVT.c **** {
 557              		.loc 1 421 0
 558              		.cfi_startproc
 559              		@ args = 0, pretend = 0, frame = 0
 560              		@ frame_needed = 0, uses_anonymous_args = 0
 561              	.LVL58:
 562 0000 10B5     		push	{r4, lr}
 563              		.cfi_def_cfa_offset 8
 564              		.cfi_offset 4, -8
 565              		.cfi_offset 14, -4
 422:Generated_Source\PSoC4/BLE_HAL_PVT.c ****     CyDelayUs(delayVal);
 566              		.loc 1 422 0
 567 0002 FFF7FEFF 		bl	CyDelayUs
ARM GAS  C:\Users\Administrator\AppData\Local\Temp\cc8QjbCg.s 			page 19


 568              	.LVL59:
 423:Generated_Source\PSoC4/BLE_HAL_PVT.c **** }
 569              		.loc 1 423 0
 570              		@ sp needed
 571 0006 10BD     		pop	{r4, pc}
 572              		.cfi_endproc
 573              	.LFE9:
 574              		.size	CyBleHal_DelayUs, .-CyBleHal_DelayUs
 575              		.section	.text.CyBleHal_DelayMs,"ax",%progbits
 576              		.align	1
 577              		.global	CyBleHal_DelayMs
 578              		.code	16
 579              		.thumb_func
 580              		.type	CyBleHal_DelayMs, %function
 581              	CyBleHal_DelayMs:
 582              	.LFB10:
 424:Generated_Source\PSoC4/BLE_HAL_PVT.c **** 
 425:Generated_Source\PSoC4/BLE_HAL_PVT.c **** /* Interface to CyDelay function */
 426:Generated_Source\PSoC4/BLE_HAL_PVT.c **** void CyBleHal_DelayMs(uint32 delayVal)
 427:Generated_Source\PSoC4/BLE_HAL_PVT.c **** {
 583              		.loc 1 427 0
 584              		.cfi_startproc
 585              		@ args = 0, pretend = 0, frame = 0
 586              		@ frame_needed = 0, uses_anonymous_args = 0
 587              	.LVL60:
 588 0000 10B5     		push	{r4, lr}
 589              		.cfi_def_cfa_offset 8
 590              		.cfi_offset 4, -8
 591              		.cfi_offset 14, -4
 428:Generated_Source\PSoC4/BLE_HAL_PVT.c ****     CyDelay(delayVal);
 592              		.loc 1 428 0
 593 0002 FFF7FEFF 		bl	CyDelay
 594              	.LVL61:
 429:Generated_Source\PSoC4/BLE_HAL_PVT.c **** }
 595              		.loc 1 429 0
 596              		@ sp needed
 597 0006 10BD     		pop	{r4, pc}
 598              		.cfi_endproc
 599              	.LFE10:
 600              		.size	CyBleHal_DelayMs, .-CyBleHal_DelayMs
 601              		.section	.text.CyBleHal_EnableGlobalInterrupts,"ax",%progbits
 602              		.align	1
 603              		.global	CyBleHal_EnableGlobalInterrupts
 604              		.code	16
 605              		.thumb_func
 606              		.type	CyBleHal_EnableGlobalInterrupts, %function
 607              	CyBleHal_EnableGlobalInterrupts:
 608              	.LFB11:
 430:Generated_Source\PSoC4/BLE_HAL_PVT.c **** 
 431:Generated_Source\PSoC4/BLE_HAL_PVT.c **** /* Interface to BLE_bless_isr_Enable function */
 432:Generated_Source\PSoC4/BLE_HAL_PVT.c **** void CyBleHal_EnableGlobalInterrupts(void)
 433:Generated_Source\PSoC4/BLE_HAL_PVT.c **** {
 609              		.loc 1 433 0
 610              		.cfi_startproc
 611              		@ args = 0, pretend = 0, frame = 0
 612              		@ frame_needed = 0, uses_anonymous_args = 0
 613 0000 10B5     		push	{r4, lr}
ARM GAS  C:\Users\Administrator\AppData\Local\Temp\cc8QjbCg.s 			page 20


 614              		.cfi_def_cfa_offset 8
 615              		.cfi_offset 4, -8
 616              		.cfi_offset 14, -4
 434:Generated_Source\PSoC4/BLE_HAL_PVT.c ****     BLE_bless_isr_Enable();
 617              		.loc 1 434 0
 618 0002 FFF7FEFF 		bl	BLE_bless_isr_Enable
 619              	.LVL62:
 435:Generated_Source\PSoC4/BLE_HAL_PVT.c **** }
 620              		.loc 1 435 0
 621              		@ sp needed
 622 0006 10BD     		pop	{r4, pc}
 623              		.cfi_endproc
 624              	.LFE11:
 625              		.size	CyBleHal_EnableGlobalInterrupts, .-CyBleHal_EnableGlobalInterrupts
 626              		.section	.text.CyBleHal_DisableGlobalInterrupts,"ax",%progbits
 627              		.align	1
 628              		.global	CyBleHal_DisableGlobalInterrupts
 629              		.code	16
 630              		.thumb_func
 631              		.type	CyBleHal_DisableGlobalInterrupts, %function
 632              	CyBleHal_DisableGlobalInterrupts:
 633              	.LFB12:
 436:Generated_Source\PSoC4/BLE_HAL_PVT.c **** 
 437:Generated_Source\PSoC4/BLE_HAL_PVT.c **** /* Interface to BLE_bless_isr_Disable function */
 438:Generated_Source\PSoC4/BLE_HAL_PVT.c **** void CyBleHal_DisableGlobalInterrupts(void)
 439:Generated_Source\PSoC4/BLE_HAL_PVT.c **** {
 634              		.loc 1 439 0
 635              		.cfi_startproc
 636              		@ args = 0, pretend = 0, frame = 0
 637              		@ frame_needed = 0, uses_anonymous_args = 0
 638 0000 10B5     		push	{r4, lr}
 639              		.cfi_def_cfa_offset 8
 640              		.cfi_offset 4, -8
 641              		.cfi_offset 14, -4
 440:Generated_Source\PSoC4/BLE_HAL_PVT.c ****     BLE_bless_isr_Disable();
 642              		.loc 1 440 0
 643 0002 FFF7FEFF 		bl	BLE_bless_isr_Disable
 644              	.LVL63:
 441:Generated_Source\PSoC4/BLE_HAL_PVT.c **** }
 645              		.loc 1 441 0
 646              		@ sp needed
 647 0006 10BD     		pop	{r4, pc}
 648              		.cfi_endproc
 649              	.LFE12:
 650              		.size	CyBleHal_DisableGlobalInterrupts, .-CyBleHal_DisableGlobalInterrupts
 651              		.section	.text.CyBle_HalInit,"ax",%progbits
 652              		.align	1
 653              		.global	CyBle_HalInit
 654              		.code	16
 655              		.thumb_func
 656              		.type	CyBle_HalInit, %function
 657              	CyBle_HalInit:
 658              	.LFB13:
 442:Generated_Source\PSoC4/BLE_HAL_PVT.c **** 
 443:Generated_Source\PSoC4/BLE_HAL_PVT.c **** /*******************************************************************************
 444:Generated_Source\PSoC4/BLE_HAL_PVT.c **** * Function Name: CyBle_HalInit
 445:Generated_Source\PSoC4/BLE_HAL_PVT.c **** ****************************************************************************//**
ARM GAS  C:\Users\Administrator\AppData\Local\Temp\cc8QjbCg.s 			page 21


 446:Generated_Source\PSoC4/BLE_HAL_PVT.c **** *
 447:Generated_Source\PSoC4/BLE_HAL_PVT.c **** *  Initializes the BLESS interrupt.
 448:Generated_Source\PSoC4/BLE_HAL_PVT.c **** *
 449:Generated_Source\PSoC4/BLE_HAL_PVT.c **** * \return
 450:Generated_Source\PSoC4/BLE_HAL_PVT.c **** *  None
 451:Generated_Source\PSoC4/BLE_HAL_PVT.c **** *
 452:Generated_Source\PSoC4/BLE_HAL_PVT.c **** *******************************************************************************/
 453:Generated_Source\PSoC4/BLE_HAL_PVT.c **** void CyBle_HalInit(void)
 454:Generated_Source\PSoC4/BLE_HAL_PVT.c **** {
 659              		.loc 1 454 0
 660              		.cfi_startproc
 661              		@ args = 0, pretend = 0, frame = 0
 662              		@ frame_needed = 0, uses_anonymous_args = 0
 663 0000 10B5     		push	{r4, lr}
 664              		.cfi_def_cfa_offset 8
 665              		.cfi_offset 4, -8
 666              		.cfi_offset 14, -4
 455:Generated_Source\PSoC4/BLE_HAL_PVT.c ****     /* For all we know the interrupt is active. */
 456:Generated_Source\PSoC4/BLE_HAL_PVT.c ****     BLE_bless_isr_Disable();
 667              		.loc 1 456 0
 668 0002 FFF7FEFF 		bl	BLE_bless_isr_Disable
 669              	.LVL64:
 457:Generated_Source\PSoC4/BLE_HAL_PVT.c **** 
 458:Generated_Source\PSoC4/BLE_HAL_PVT.c ****     /* Set the ISR to point to the BLE_bless_isr Interrupt. */
 459:Generated_Source\PSoC4/BLE_HAL_PVT.c ****     BLE_bless_isr_SetVector(&CyBLE_Bless_Interrupt);
 670              		.loc 1 459 0
 671 0006 0348     		ldr	r0, .L46
 672 0008 FFF7FEFF 		bl	BLE_bless_isr_SetVector
 673              	.LVL65:
 460:Generated_Source\PSoC4/BLE_HAL_PVT.c **** 
 461:Generated_Source\PSoC4/BLE_HAL_PVT.c ****     /* Set the priority. */
 462:Generated_Source\PSoC4/BLE_HAL_PVT.c ****     BLE_bless_isr_SetPriority((uint8)BLE_bless_isr_INTC_PRIOR_NUMBER);
 674              		.loc 1 462 0
 675 000c 0320     		movs	r0, #3
 676 000e FFF7FEFF 		bl	BLE_bless_isr_SetPriority
 677              	.LVL66:
 463:Generated_Source\PSoC4/BLE_HAL_PVT.c **** }
 678              		.loc 1 463 0
 679              		@ sp needed
 680 0012 10BD     		pop	{r4, pc}
 681              	.L47:
 682              		.align	2
 683              	.L46:
 684 0014 00000000 		.word	CyBLE_Bless_Interrupt
 685              		.cfi_endproc
 686              	.LFE13:
 687              		.size	CyBle_HalInit, .-CyBle_HalInit
 688              		.section	.text.CYBLE_BlessStart,"ax",%progbits
 689              		.align	1
 690              		.global	CYBLE_BlessStart
 691              		.code	16
 692              		.thumb_func
 693              		.type	CYBLE_BlessStart, %function
 694              	CYBLE_BlessStart:
 695              	.LFB14:
 464:Generated_Source\PSoC4/BLE_HAL_PVT.c **** 
 465:Generated_Source\PSoC4/BLE_HAL_PVT.c **** 
ARM GAS  C:\Users\Administrator\AppData\Local\Temp\cc8QjbCg.s 			page 22


 466:Generated_Source\PSoC4/BLE_HAL_PVT.c **** /*******************************************************************************
 467:Generated_Source\PSoC4/BLE_HAL_PVT.c **** * Function Name: CYBLE_BlessStart
 468:Generated_Source\PSoC4/BLE_HAL_PVT.c **** ****************************************************************************//**
 469:Generated_Source\PSoC4/BLE_HAL_PVT.c **** *
 470:Generated_Source\PSoC4/BLE_HAL_PVT.c **** *  Starts Interrupt Controller.
 471:Generated_Source\PSoC4/BLE_HAL_PVT.c **** *
 472:Generated_Source\PSoC4/BLE_HAL_PVT.c **** * \return
 473:Generated_Source\PSoC4/BLE_HAL_PVT.c **** *  None
 474:Generated_Source\PSoC4/BLE_HAL_PVT.c **** *
 475:Generated_Source\PSoC4/BLE_HAL_PVT.c **** *******************************************************************************/
 476:Generated_Source\PSoC4/BLE_HAL_PVT.c **** void CYBLE_BlessStart(void)
 477:Generated_Source\PSoC4/BLE_HAL_PVT.c **** {
 696              		.loc 1 477 0
 697              		.cfi_startproc
 698              		@ args = 0, pretend = 0, frame = 0
 699              		@ frame_needed = 0, uses_anonymous_args = 0
 700 0000 10B5     		push	{r4, lr}
 701              		.cfi_def_cfa_offset 8
 702              		.cfi_offset 4, -8
 703              		.cfi_offset 14, -4
 478:Generated_Source\PSoC4/BLE_HAL_PVT.c **** #if((CYBLE_M0S8BLESS_VERSION_3) && (CYBLE_EXT_PA_ENABLED))
 479:Generated_Source\PSoC4/BLE_HAL_PVT.c ****     CYBLE_EXT_PA_LNA_CTRL_REG |= CYBLE_EXT_PA_LNA_ENABLE | CYBLE_EXT_OUT_EN_DRIVE_VAL; 
 480:Generated_Source\PSoC4/BLE_HAL_PVT.c **** #endif  /* (CYBLE_M0S8BLESS_VERSION_3) */
 481:Generated_Source\PSoC4/BLE_HAL_PVT.c **** 
 482:Generated_Source\PSoC4/BLE_HAL_PVT.c ****     BLE_bless_isr_StartEx(&CyBLE_Bless_Interrupt);
 704              		.loc 1 482 0
 705 0002 0248     		ldr	r0, .L49
 706 0004 FFF7FEFF 		bl	BLE_bless_isr_StartEx
 707              	.LVL67:
 483:Generated_Source\PSoC4/BLE_HAL_PVT.c **** }
 708              		.loc 1 483 0
 709              		@ sp needed
 710 0008 10BD     		pop	{r4, pc}
 711              	.L50:
 712 000a C046     		.align	2
 713              	.L49:
 714 000c 00000000 		.word	CyBLE_Bless_Interrupt
 715              		.cfi_endproc
 716              	.LFE14:
 717              		.size	CYBLE_BlessStart, .-CYBLE_BlessStart
 718              		.section	.text.CyBLE_GetIpBlockVersion,"ax",%progbits
 719              		.align	1
 720              		.global	CyBLE_GetIpBlockVersion
 721              		.code	16
 722              		.thumb_func
 723              		.type	CyBLE_GetIpBlockVersion, %function
 724              	CyBLE_GetIpBlockVersion:
 725              	.LFB15:
 484:Generated_Source\PSoC4/BLE_HAL_PVT.c **** 
 485:Generated_Source\PSoC4/BLE_HAL_PVT.c **** 
 486:Generated_Source\PSoC4/BLE_HAL_PVT.c **** /*******************************************************************************
 487:Generated_Source\PSoC4/BLE_HAL_PVT.c **** * Function Name: CyBLE_GetIpBlockVersion
 488:Generated_Source\PSoC4/BLE_HAL_PVT.c **** ****************************************************************************//**
 489:Generated_Source\PSoC4/BLE_HAL_PVT.c **** *
 490:Generated_Source\PSoC4/BLE_HAL_PVT.c **** * This function returns the version of m0s8bless ip block.
 491:Generated_Source\PSoC4/BLE_HAL_PVT.c **** *
 492:Generated_Source\PSoC4/BLE_HAL_PVT.c **** * \return
ARM GAS  C:\Users\Administrator\AppData\Local\Temp\cc8QjbCg.s 			page 23


 493:Generated_Source\PSoC4/BLE_HAL_PVT.c **** * uint32 bits:
 494:Generated_Source\PSoC4/BLE_HAL_PVT.c **** * 7:0 - ip version ( 1 - BLE_ver1, 2 - BLE_ver2, 3 - BLE_ver3 )
 495:Generated_Source\PSoC4/BLE_HAL_PVT.c **** * 15:8 - flash size ( 0 - 128k, 1 - 256k )
 496:Generated_Source\PSoC4/BLE_HAL_PVT.c **** * 16 - PSVP device
 497:Generated_Source\PSoC4/BLE_HAL_PVT.c **** * 31:17 - reserved for future usage
 498:Generated_Source\PSoC4/BLE_HAL_PVT.c **** *
 499:Generated_Source\PSoC4/BLE_HAL_PVT.c **** *******************************************************************************/
 500:Generated_Source\PSoC4/BLE_HAL_PVT.c **** uint32 CyBLE_GetIpBlockVersion(void)
 501:Generated_Source\PSoC4/BLE_HAL_PVT.c **** {
 726              		.loc 1 501 0
 727              		.cfi_startproc
 728              		@ args = 0, pretend = 0, frame = 0
 729              		@ frame_needed = 0, uses_anonymous_args = 0
 730              		@ link register save eliminated.
 502:Generated_Source\PSoC4/BLE_HAL_PVT.c ****     return(((uint32)CYBLE_M0S8BLESS_VERSION) | ((uint32)((uint32)CYBLE_FLASH_SIZE) << 8u) |
 503:Generated_Source\PSoC4/BLE_HAL_PVT.c ****         ((uint32)(((uint32)CYBLE_PSVP_DEVICE)) << 16u));
 504:Generated_Source\PSoC4/BLE_HAL_PVT.c **** }
 731              		.loc 1 504 0
 732 0000 0048     		ldr	r0, .L52
 733              		@ sp needed
 734 0002 7047     		bx	lr
 735              	.L53:
 736              		.align	2
 737              	.L52:
 738 0004 01020000 		.word	513
 739              		.cfi_endproc
 740              	.LFE15:
 741              		.size	CyBLE_GetIpBlockVersion, .-CyBLE_GetIpBlockVersion
 742              		.section	.text.CyBle_Hal_pairing_local_public_key_handler,"ax",%progbits
 743              		.align	1
 744              		.global	CyBle_Hal_pairing_local_public_key_handler
 745              		.code	16
 746              		.thumb_func
 747              		.type	CyBle_Hal_pairing_local_public_key_handler, %function
 748              	CyBle_Hal_pairing_local_public_key_handler:
 749              	.LFB54:
 750              		.cfi_startproc
 751              		@ args = 0, pretend = 0, frame = 0
 752              		@ frame_needed = 0, uses_anonymous_args = 0
 753              		@ link register save eliminated.
 754 0000 2B20     		movs	r0, #43
 755              		@ sp needed
 756 0002 7047     		bx	lr
 757              		.cfi_endproc
 758              	.LFE54:
 759              		.size	CyBle_Hal_pairing_local_public_key_handler, .-CyBle_Hal_pairing_local_public_key_handler
 760              		.section	.text.CyBle_Hal_pairing_remote_key_handler,"ax",%progbits
 761              		.align	1
 762              		.global	CyBle_Hal_pairing_remote_key_handler
 763              		.code	16
 764              		.thumb_func
 765              		.type	CyBle_Hal_pairing_remote_key_handler, %function
 766              	CyBle_Hal_pairing_remote_key_handler:
 767              	.LFB52:
 768              		.cfi_startproc
 769              		@ args = 0, pretend = 0, frame = 0
 770              		@ frame_needed = 0, uses_anonymous_args = 0
ARM GAS  C:\Users\Administrator\AppData\Local\Temp\cc8QjbCg.s 			page 24


 771              		@ link register save eliminated.
 772 0000 2B20     		movs	r0, #43
 773              		@ sp needed
 774 0002 7047     		bx	lr
 775              		.cfi_endproc
 776              	.LFE52:
 777              		.size	CyBle_Hal_pairing_remote_key_handler, .-CyBle_Hal_pairing_remote_key_handler
 778              		.section	.text.CyBle_Hal_pairing_dhkey_handler,"ax",%progbits
 779              		.align	1
 780              		.global	CyBle_Hal_pairing_dhkey_handler
 781              		.code	16
 782              		.thumb_func
 783              		.type	CyBle_Hal_pairing_dhkey_handler, %function
 784              	CyBle_Hal_pairing_dhkey_handler:
 785              	.LFB50:
 786              		.cfi_startproc
 787              		@ args = 0, pretend = 0, frame = 0
 788              		@ frame_needed = 0, uses_anonymous_args = 0
 789              		@ link register save eliminated.
 790 0000 2B20     		movs	r0, #43
 791              		@ sp needed
 792 0002 7047     		bx	lr
 793              		.cfi_endproc
 794              	.LFE50:
 795              		.size	CyBle_Hal_pairing_dhkey_handler, .-CyBle_Hal_pairing_dhkey_handler
 796              		.section	.text.CyBle_Hal_pairing_dhkey_check_handler,"ax",%progbits
 797              		.align	1
 798              		.global	CyBle_Hal_pairing_dhkey_check_handler
 799              		.code	16
 800              		.thumb_func
 801              		.type	CyBle_Hal_pairing_dhkey_check_handler, %function
 802              	CyBle_Hal_pairing_dhkey_check_handler:
 803              	.LFB48:
 804              		.cfi_startproc
 805              		@ args = 0, pretend = 0, frame = 0
 806              		@ frame_needed = 0, uses_anonymous_args = 0
 807              		@ link register save eliminated.
 808 0000 2B20     		movs	r0, #43
 809              		@ sp needed
 810 0002 7047     		bx	lr
 811              		.cfi_endproc
 812              	.LFE48:
 813              		.size	CyBle_Hal_pairing_dhkey_check_handler, .-CyBle_Hal_pairing_dhkey_check_handler
 814              		.section	.text.CyBle_Hal_pairing_keypress_notification_handler,"ax",%progbits
 815              		.align	1
 816              		.global	CyBle_Hal_pairing_keypress_notification_handler
 817              		.code	16
 818              		.thumb_func
 819              		.type	CyBle_Hal_pairing_keypress_notification_handler, %function
 820              	CyBle_Hal_pairing_keypress_notification_handler:
 821              	.LFB46:
 822              		.cfi_startproc
 823              		@ args = 0, pretend = 0, frame = 0
 824              		@ frame_needed = 0, uses_anonymous_args = 0
 825              		@ link register save eliminated.
 826 0000 2B20     		movs	r0, #43
 827              		@ sp needed
ARM GAS  C:\Users\Administrator\AppData\Local\Temp\cc8QjbCg.s 			page 25


 828 0002 7047     		bx	lr
 829              		.cfi_endproc
 830              	.LFE46:
 831              		.size	CyBle_Hal_pairing_keypress_notification_handler, .-CyBle_Hal_pairing_keypress_notification_h
 832              		.section	.text.CyBle_Hal_pairing_rand_handler,"ax",%progbits
 833              		.align	1
 834              		.global	CyBle_Hal_pairing_rand_handler
 835              		.code	16
 836              		.thumb_func
 837              		.type	CyBle_Hal_pairing_rand_handler, %function
 838              	CyBle_Hal_pairing_rand_handler:
 839              	.LFB44:
 840              		.cfi_startproc
 841              		@ args = 0, pretend = 0, frame = 0
 842              		@ frame_needed = 0, uses_anonymous_args = 0
 843              		@ link register save eliminated.
 844 0000 2B20     		movs	r0, #43
 845              		@ sp needed
 846 0002 7047     		bx	lr
 847              		.cfi_endproc
 848              	.LFE44:
 849              		.size	CyBle_Hal_pairing_rand_handler, .-CyBle_Hal_pairing_rand_handler
 850              		.section	.text.CyBle_Hal_pairing_confirm_handler,"ax",%progbits
 851              		.align	1
 852              		.global	CyBle_Hal_pairing_confirm_handler
 853              		.code	16
 854              		.thumb_func
 855              		.type	CyBle_Hal_pairing_confirm_handler, %function
 856              	CyBle_Hal_pairing_confirm_handler:
 857              	.LFB42:
 858              		.cfi_startproc
 859              		@ args = 0, pretend = 0, frame = 0
 860              		@ frame_needed = 0, uses_anonymous_args = 0
 861              		@ link register save eliminated.
 862 0000 2B20     		movs	r0, #43
 863              		@ sp needed
 864 0002 7047     		bx	lr
 865              		.cfi_endproc
 866              	.LFE42:
 867              		.size	CyBle_Hal_pairing_confirm_handler, .-CyBle_Hal_pairing_confirm_handler
 868              		.section	.text.CyBle_Hal_pairing_lr_confirming_handler,"ax",%progbits
 869              		.align	1
 870              		.global	CyBle_Hal_pairing_lr_confirming_handler
 871              		.code	16
 872              		.thumb_func
 873              		.type	CyBle_Hal_pairing_lr_confirming_handler, %function
 874              	CyBle_Hal_pairing_lr_confirming_handler:
 875              	.LFB40:
 876              		.cfi_startproc
 877              		@ args = 0, pretend = 0, frame = 0
 878              		@ frame_needed = 0, uses_anonymous_args = 0
 879              		@ link register save eliminated.
 880 0000 2B20     		movs	r0, #43
 881              		@ sp needed
 882 0002 7047     		bx	lr
 883              		.cfi_endproc
 884              	.LFE40:
ARM GAS  C:\Users\Administrator\AppData\Local\Temp\cc8QjbCg.s 			page 26


 885              		.size	CyBle_Hal_pairing_lr_confirming_handler, .-CyBle_Hal_pairing_lr_confirming_handler
 886              		.section	.text.CyBle_Hal_pairing_sc_tbx_dhkey_generate_complete,"ax",%progbits
 887              		.align	1
 888              		.global	CyBle_Hal_pairing_sc_tbx_dhkey_generate_complete
 889              		.code	16
 890              		.thumb_func
 891              		.type	CyBle_Hal_pairing_sc_tbx_dhkey_generate_complete, %function
 892              	CyBle_Hal_pairing_sc_tbx_dhkey_generate_complete:
 893              	.LFB24:
 505:Generated_Source\PSoC4/BLE_HAL_PVT.c **** 
 506:Generated_Source\PSoC4/BLE_HAL_PVT.c **** /* Mapping functions for stack size optimization */
 507:Generated_Source\PSoC4/BLE_HAL_PVT.c **** #if(CYBLE_MODE_PROFILE)
 508:Generated_Source\PSoC4/BLE_HAL_PVT.c ****     
 509:Generated_Source\PSoC4/BLE_HAL_PVT.c **** #if(CYBLE_SECURE_CONN_FEATURE_ENABLED)
 510:Generated_Source\PSoC4/BLE_HAL_PVT.c ****     
 511:Generated_Source\PSoC4/BLE_HAL_PVT.c ****     CYBLE_API_RESULT_T CyBle_Hal_pairing_local_public_key_handler(void *param)
 512:Generated_Source\PSoC4/BLE_HAL_PVT.c ****     {
 513:Generated_Source\PSoC4/BLE_HAL_PVT.c ****         return (CyBle_Hal_mapping_pairing_local_public_key_handler(param));
 514:Generated_Source\PSoC4/BLE_HAL_PVT.c ****     }
 515:Generated_Source\PSoC4/BLE_HAL_PVT.c ****      
 516:Generated_Source\PSoC4/BLE_HAL_PVT.c ****     CYBLE_API_RESULT_T CyBle_Hal_pairing_remote_key_handler(void *param)
 517:Generated_Source\PSoC4/BLE_HAL_PVT.c ****     {
 518:Generated_Source\PSoC4/BLE_HAL_PVT.c ****         return (CyBle_Hal_mapping_pairing_remote_key_handler(param));
 519:Generated_Source\PSoC4/BLE_HAL_PVT.c ****     }
 520:Generated_Source\PSoC4/BLE_HAL_PVT.c ****      
 521:Generated_Source\PSoC4/BLE_HAL_PVT.c ****     CYBLE_API_RESULT_T CyBle_Hal_pairing_dhkey_handler(void *param)
 522:Generated_Source\PSoC4/BLE_HAL_PVT.c ****     {
 523:Generated_Source\PSoC4/BLE_HAL_PVT.c ****         return (CyBle_Hal_mapping_pairing_dhkey_handler(param));
 524:Generated_Source\PSoC4/BLE_HAL_PVT.c ****     }
 525:Generated_Source\PSoC4/BLE_HAL_PVT.c **** 
 526:Generated_Source\PSoC4/BLE_HAL_PVT.c ****     CYBLE_API_RESULT_T CyBle_Hal_pairing_dhkey_check_handler(void *param)
 527:Generated_Source\PSoC4/BLE_HAL_PVT.c ****     {
 528:Generated_Source\PSoC4/BLE_HAL_PVT.c ****         return (CyBle_Hal_mapping_pairing_dhkey_check_handler(param));
 529:Generated_Source\PSoC4/BLE_HAL_PVT.c ****     }
 530:Generated_Source\PSoC4/BLE_HAL_PVT.c **** 
 531:Generated_Source\PSoC4/BLE_HAL_PVT.c ****     CYBLE_API_RESULT_T CyBle_Hal_pairing_keypress_notification_handler(void *param)
 532:Generated_Source\PSoC4/BLE_HAL_PVT.c ****     {
 533:Generated_Source\PSoC4/BLE_HAL_PVT.c ****         return (CyBle_Hal_mapping_pairing_keypress_notification_handler(param));
 534:Generated_Source\PSoC4/BLE_HAL_PVT.c ****     }
 535:Generated_Source\PSoC4/BLE_HAL_PVT.c **** 
 536:Generated_Source\PSoC4/BLE_HAL_PVT.c ****     CYBLE_API_RESULT_T CyBle_Hal_pairing_rand_handler(void *param)
 537:Generated_Source\PSoC4/BLE_HAL_PVT.c ****     {
 538:Generated_Source\PSoC4/BLE_HAL_PVT.c ****         return (CyBle_Hal_mapping_pairing_rand_handler(param));
 539:Generated_Source\PSoC4/BLE_HAL_PVT.c ****     }
 540:Generated_Source\PSoC4/BLE_HAL_PVT.c **** 
 541:Generated_Source\PSoC4/BLE_HAL_PVT.c ****     CYBLE_API_RESULT_T CyBle_Hal_pairing_confirm_handler(void *param)
 542:Generated_Source\PSoC4/BLE_HAL_PVT.c ****     {
 543:Generated_Source\PSoC4/BLE_HAL_PVT.c ****         return (CyBle_Hal_mapping_pairing_confirm_handler(param));
 544:Generated_Source\PSoC4/BLE_HAL_PVT.c ****     }
 545:Generated_Source\PSoC4/BLE_HAL_PVT.c **** 
 546:Generated_Source\PSoC4/BLE_HAL_PVT.c ****     CYBLE_API_RESULT_T CyBle_Hal_pairing_lr_confirming_handler(void *param)
 547:Generated_Source\PSoC4/BLE_HAL_PVT.c ****     {
 548:Generated_Source\PSoC4/BLE_HAL_PVT.c ****         return (CyBle_Hal_mapping_pairing_lr_confirming_handler(param));
 549:Generated_Source\PSoC4/BLE_HAL_PVT.c ****     }
 550:Generated_Source\PSoC4/BLE_HAL_PVT.c ****     
 551:Generated_Source\PSoC4/BLE_HAL_PVT.c ****     CYBLE_API_RESULT_T CyBle_Hal_pairing_sc_tbx_dhkey_generate_complete(void* param)
 552:Generated_Source\PSoC4/BLE_HAL_PVT.c ****     {
ARM GAS  C:\Users\Administrator\AppData\Local\Temp\cc8QjbCg.s 			page 27


 553:Generated_Source\PSoC4/BLE_HAL_PVT.c ****         CyBle_Hal_mapping_tbx_dhkey_generate_complete(param);
 554:Generated_Source\PSoC4/BLE_HAL_PVT.c ****         return (CYBLE_ERROR_OK);
 555:Generated_Source\PSoC4/BLE_HAL_PVT.c ****     }
 556:Generated_Source\PSoC4/BLE_HAL_PVT.c **** 
 557:Generated_Source\PSoC4/BLE_HAL_PVT.c ****     CYBLE_API_RESULT_T CyBle_Hal_pairing_sc_tbx_local_pubkey_generate_complete(void)
 558:Generated_Source\PSoC4/BLE_HAL_PVT.c ****     {
 559:Generated_Source\PSoC4/BLE_HAL_PVT.c ****         CyBle_Hal_mapping_tbx_local_pubkey_generate_complete();
 560:Generated_Source\PSoC4/BLE_HAL_PVT.c ****         return (CYBLE_ERROR_OK);
 561:Generated_Source\PSoC4/BLE_HAL_PVT.c ****     }
 562:Generated_Source\PSoC4/BLE_HAL_PVT.c **** 
 563:Generated_Source\PSoC4/BLE_HAL_PVT.c ****     CYBLE_API_RESULT_T CyBle_Hal_pairing_sc_tbx_generate_local_P256_public_key(uint8 param)
 564:Generated_Source\PSoC4/BLE_HAL_PVT.c ****     {
 565:Generated_Source\PSoC4/BLE_HAL_PVT.c ****         return (CyBle_Hal_mapping_tbx_generate_local_P256_public_key(param));
 566:Generated_Source\PSoC4/BLE_HAL_PVT.c ****     }
 567:Generated_Source\PSoC4/BLE_HAL_PVT.c **** 
 568:Generated_Source\PSoC4/BLE_HAL_PVT.c ****     CYBLE_API_RESULT_T CyBle_Hal_pairing_sc_tbx_generate_DHkey(void  * param1, void  * param2)
 569:Generated_Source\PSoC4/BLE_HAL_PVT.c ****     {
 570:Generated_Source\PSoC4/BLE_HAL_PVT.c ****         return (CyBle_Hal_mapping_tbx_generate_DHkey(param1, param2));
 571:Generated_Source\PSoC4/BLE_HAL_PVT.c ****     }
 572:Generated_Source\PSoC4/BLE_HAL_PVT.c **** 
 573:Generated_Source\PSoC4/BLE_HAL_PVT.c ****     void CyBle_Hal_smp_sc_cmac_complete(void)
 574:Generated_Source\PSoC4/BLE_HAL_PVT.c ****     {
 575:Generated_Source\PSoC4/BLE_HAL_PVT.c ****        CyBle_Hal_Mapping_smp_sc_cmac_complete();
 576:Generated_Source\PSoC4/BLE_HAL_PVT.c ****     }
 577:Generated_Source\PSoC4/BLE_HAL_PVT.c **** 
 578:Generated_Source\PSoC4/BLE_HAL_PVT.c ****     CYBLE_API_RESULT_T CyBle_Hal_se_smp_sc_user_passkey_handler(void *param1, void *param2)
 579:Generated_Source\PSoC4/BLE_HAL_PVT.c ****     {
 580:Generated_Source\PSoC4/BLE_HAL_PVT.c ****         return (CyBle_Hal_mapping_se_smp_sc_user_passkey_handler(param1, param2));
 581:Generated_Source\PSoC4/BLE_HAL_PVT.c ****     }
 582:Generated_Source\PSoC4/BLE_HAL_PVT.c **** 
 583:Generated_Source\PSoC4/BLE_HAL_PVT.c ****     void CyBle_Hal_EccPointMult(void)
 584:Generated_Source\PSoC4/BLE_HAL_PVT.c ****     {
 585:Generated_Source\PSoC4/BLE_HAL_PVT.c ****         CyBle_Hal_Mapping_EccPointMult();
 586:Generated_Source\PSoC4/BLE_HAL_PVT.c ****     }
 587:Generated_Source\PSoC4/BLE_HAL_PVT.c ****     
 588:Generated_Source\PSoC4/BLE_HAL_PVT.c **** #else     /* If feature is not required, return error. */
 589:Generated_Source\PSoC4/BLE_HAL_PVT.c ****     
 590:Generated_Source\PSoC4/BLE_HAL_PVT.c ****     CYBLE_API_RESULT_T CyBle_Hal_pairing_local_public_key_handler(void *param CYBLE_UNUSED_ATTR)
 591:Generated_Source\PSoC4/BLE_HAL_PVT.c ****     {
 592:Generated_Source\PSoC4/BLE_HAL_PVT.c ****         return (CYBLE_ERROR_UNSUPPORTED_FEATURE_OR_PARAMETER_VALUE);
 593:Generated_Source\PSoC4/BLE_HAL_PVT.c ****     }
 594:Generated_Source\PSoC4/BLE_HAL_PVT.c ****      
 595:Generated_Source\PSoC4/BLE_HAL_PVT.c ****     CYBLE_API_RESULT_T CyBle_Hal_pairing_remote_key_handler(void *param CYBLE_UNUSED_ATTR)
 596:Generated_Source\PSoC4/BLE_HAL_PVT.c ****     {
 597:Generated_Source\PSoC4/BLE_HAL_PVT.c ****         return (CYBLE_ERROR_UNSUPPORTED_FEATURE_OR_PARAMETER_VALUE);
 598:Generated_Source\PSoC4/BLE_HAL_PVT.c ****     }
 599:Generated_Source\PSoC4/BLE_HAL_PVT.c ****      
 600:Generated_Source\PSoC4/BLE_HAL_PVT.c ****     CYBLE_API_RESULT_T CyBle_Hal_pairing_dhkey_handler(void *param CYBLE_UNUSED_ATTR)
 601:Generated_Source\PSoC4/BLE_HAL_PVT.c ****     {
 602:Generated_Source\PSoC4/BLE_HAL_PVT.c ****         return (CYBLE_ERROR_UNSUPPORTED_FEATURE_OR_PARAMETER_VALUE);
 603:Generated_Source\PSoC4/BLE_HAL_PVT.c ****     }
 604:Generated_Source\PSoC4/BLE_HAL_PVT.c **** 
 605:Generated_Source\PSoC4/BLE_HAL_PVT.c ****     CYBLE_API_RESULT_T CyBle_Hal_pairing_dhkey_check_handler(void *param CYBLE_UNUSED_ATTR)
 606:Generated_Source\PSoC4/BLE_HAL_PVT.c ****     {
 607:Generated_Source\PSoC4/BLE_HAL_PVT.c ****         return (CYBLE_ERROR_UNSUPPORTED_FEATURE_OR_PARAMETER_VALUE);
 608:Generated_Source\PSoC4/BLE_HAL_PVT.c ****     }
 609:Generated_Source\PSoC4/BLE_HAL_PVT.c **** 
ARM GAS  C:\Users\Administrator\AppData\Local\Temp\cc8QjbCg.s 			page 28


 610:Generated_Source\PSoC4/BLE_HAL_PVT.c ****     CYBLE_API_RESULT_T CyBle_Hal_pairing_keypress_notification_handler(void *param CYBLE_UNUSED_ATT
 611:Generated_Source\PSoC4/BLE_HAL_PVT.c ****     {
 612:Generated_Source\PSoC4/BLE_HAL_PVT.c ****         return (CYBLE_ERROR_UNSUPPORTED_FEATURE_OR_PARAMETER_VALUE);
 613:Generated_Source\PSoC4/BLE_HAL_PVT.c ****     }
 614:Generated_Source\PSoC4/BLE_HAL_PVT.c **** 
 615:Generated_Source\PSoC4/BLE_HAL_PVT.c ****     CYBLE_API_RESULT_T CyBle_Hal_pairing_rand_handler(void *param CYBLE_UNUSED_ATTR)
 616:Generated_Source\PSoC4/BLE_HAL_PVT.c ****     {
 617:Generated_Source\PSoC4/BLE_HAL_PVT.c ****         return (CYBLE_ERROR_UNSUPPORTED_FEATURE_OR_PARAMETER_VALUE);
 618:Generated_Source\PSoC4/BLE_HAL_PVT.c ****     }
 619:Generated_Source\PSoC4/BLE_HAL_PVT.c ****     
 620:Generated_Source\PSoC4/BLE_HAL_PVT.c ****     CYBLE_API_RESULT_T CyBle_Hal_pairing_confirm_handler(void *param CYBLE_UNUSED_ATTR)
 621:Generated_Source\PSoC4/BLE_HAL_PVT.c ****     {
 622:Generated_Source\PSoC4/BLE_HAL_PVT.c ****         return (CYBLE_ERROR_UNSUPPORTED_FEATURE_OR_PARAMETER_VALUE);
 623:Generated_Source\PSoC4/BLE_HAL_PVT.c ****     }
 624:Generated_Source\PSoC4/BLE_HAL_PVT.c **** 
 625:Generated_Source\PSoC4/BLE_HAL_PVT.c ****     CYBLE_API_RESULT_T CyBle_Hal_pairing_lr_confirming_handler(void *param CYBLE_UNUSED_ATTR)
 626:Generated_Source\PSoC4/BLE_HAL_PVT.c ****     {
 627:Generated_Source\PSoC4/BLE_HAL_PVT.c ****         return (CYBLE_ERROR_UNSUPPORTED_FEATURE_OR_PARAMETER_VALUE);
 628:Generated_Source\PSoC4/BLE_HAL_PVT.c ****     }
 629:Generated_Source\PSoC4/BLE_HAL_PVT.c ****     
 630:Generated_Source\PSoC4/BLE_HAL_PVT.c ****     CYBLE_API_RESULT_T CyBle_Hal_pairing_sc_tbx_dhkey_generate_complete(void* param CYBLE_UNUSED_AT
 631:Generated_Source\PSoC4/BLE_HAL_PVT.c ****     {
 894              		.loc 1 631 0
 895              		.cfi_startproc
 896              		@ args = 0, pretend = 0, frame = 0
 897              		@ frame_needed = 0, uses_anonymous_args = 0
 898              		@ link register save eliminated.
 899              	.LVL68:
 632:Generated_Source\PSoC4/BLE_HAL_PVT.c ****         return (CYBLE_ERROR_UNSUPPORTED_FEATURE_OR_PARAMETER_VALUE);
 633:Generated_Source\PSoC4/BLE_HAL_PVT.c ****     }
 900              		.loc 1 633 0
 901 0000 2B20     		movs	r0, #43
 902              	.LVL69:
 903              		@ sp needed
 904 0002 7047     		bx	lr
 905              		.cfi_endproc
 906              	.LFE24:
 907              		.size	CyBle_Hal_pairing_sc_tbx_dhkey_generate_complete, .-CyBle_Hal_pairing_sc_tbx_dhkey_generate_
 908              		.section	.text.CyBle_Hal_pairing_sc_tbx_local_pubkey_generate_complete,"ax",%progbits
 909              		.align	1
 910              		.global	CyBle_Hal_pairing_sc_tbx_local_pubkey_generate_complete
 911              		.code	16
 912              		.thumb_func
 913              		.type	CyBle_Hal_pairing_sc_tbx_local_pubkey_generate_complete, %function
 914              	CyBle_Hal_pairing_sc_tbx_local_pubkey_generate_complete:
 915              	.LFB25:
 634:Generated_Source\PSoC4/BLE_HAL_PVT.c **** 
 635:Generated_Source\PSoC4/BLE_HAL_PVT.c ****     CYBLE_API_RESULT_T CyBle_Hal_pairing_sc_tbx_local_pubkey_generate_complete(void)
 636:Generated_Source\PSoC4/BLE_HAL_PVT.c ****     {
 916              		.loc 1 636 0
 917              		.cfi_startproc
 918              		@ args = 0, pretend = 0, frame = 0
 919              		@ frame_needed = 0, uses_anonymous_args = 0
 920              		@ link register save eliminated.
 637:Generated_Source\PSoC4/BLE_HAL_PVT.c ****         return (CYBLE_ERROR_UNSUPPORTED_FEATURE_OR_PARAMETER_VALUE);
 638:Generated_Source\PSoC4/BLE_HAL_PVT.c ****     }
 921              		.loc 1 638 0
ARM GAS  C:\Users\Administrator\AppData\Local\Temp\cc8QjbCg.s 			page 29


 922 0000 2B20     		movs	r0, #43
 923              		@ sp needed
 924 0002 7047     		bx	lr
 925              		.cfi_endproc
 926              	.LFE25:
 927              		.size	CyBle_Hal_pairing_sc_tbx_local_pubkey_generate_complete, .-CyBle_Hal_pairing_sc_tbx_local_pu
 928              		.section	.text.CyBle_Hal_pairing_sc_tbx_generate_local_P256_public_key,"ax",%progbits
 929              		.align	1
 930              		.global	CyBle_Hal_pairing_sc_tbx_generate_local_P256_public_key
 931              		.code	16
 932              		.thumb_func
 933              		.type	CyBle_Hal_pairing_sc_tbx_generate_local_P256_public_key, %function
 934              	CyBle_Hal_pairing_sc_tbx_generate_local_P256_public_key:
 935              	.LFB26:
 639:Generated_Source\PSoC4/BLE_HAL_PVT.c **** 
 640:Generated_Source\PSoC4/BLE_HAL_PVT.c ****     CYBLE_API_RESULT_T CyBle_Hal_pairing_sc_tbx_generate_local_P256_public_key(uint8 param CYBLE_UN
 641:Generated_Source\PSoC4/BLE_HAL_PVT.c ****     {
 936              		.loc 1 641 0
 937              		.cfi_startproc
 938              		@ args = 0, pretend = 0, frame = 0
 939              		@ frame_needed = 0, uses_anonymous_args = 0
 940              		@ link register save eliminated.
 941              	.LVL70:
 642:Generated_Source\PSoC4/BLE_HAL_PVT.c ****         return (CYBLE_ERROR_UNSUPPORTED_FEATURE_OR_PARAMETER_VALUE);
 643:Generated_Source\PSoC4/BLE_HAL_PVT.c ****     }
 942              		.loc 1 643 0
 943 0000 2B20     		movs	r0, #43
 944              	.LVL71:
 945              		@ sp needed
 946 0002 7047     		bx	lr
 947              		.cfi_endproc
 948              	.LFE26:
 949              		.size	CyBle_Hal_pairing_sc_tbx_generate_local_P256_public_key, .-CyBle_Hal_pairing_sc_tbx_generate
 950              		.section	.text.CyBle_Hal_pairing_sc_tbx_generate_DHkey,"ax",%progbits
 951              		.align	1
 952              		.global	CyBle_Hal_pairing_sc_tbx_generate_DHkey
 953              		.code	16
 954              		.thumb_func
 955              		.type	CyBle_Hal_pairing_sc_tbx_generate_DHkey, %function
 956              	CyBle_Hal_pairing_sc_tbx_generate_DHkey:
 957              	.LFB38:
 958              		.cfi_startproc
 959              		@ args = 0, pretend = 0, frame = 0
 960              		@ frame_needed = 0, uses_anonymous_args = 0
 961              		@ link register save eliminated.
 962 0000 2B20     		movs	r0, #43
 963              		@ sp needed
 964 0002 7047     		bx	lr
 965              		.cfi_endproc
 966              	.LFE38:
 967              		.size	CyBle_Hal_pairing_sc_tbx_generate_DHkey, .-CyBle_Hal_pairing_sc_tbx_generate_DHkey
 968              		.section	.text.CyBle_Hal_smp_sc_cmac_complete,"ax",%progbits
 969              		.align	1
 970              		.global	CyBle_Hal_smp_sc_cmac_complete
 971              		.code	16
 972              		.thumb_func
 973              		.type	CyBle_Hal_smp_sc_cmac_complete, %function
ARM GAS  C:\Users\Administrator\AppData\Local\Temp\cc8QjbCg.s 			page 30


 974              	CyBle_Hal_smp_sc_cmac_complete:
 975              	.LFB36:
 976              		.cfi_startproc
 977              		@ args = 0, pretend = 0, frame = 0
 978              		@ frame_needed = 0, uses_anonymous_args = 0
 979              		@ link register save eliminated.
 980              		@ sp needed
 981 0000 7047     		bx	lr
 982              		.cfi_endproc
 983              	.LFE36:
 984              		.size	CyBle_Hal_smp_sc_cmac_complete, .-CyBle_Hal_smp_sc_cmac_complete
 985              		.section	.text.CyBle_Hal_se_smp_sc_user_passkey_handler,"ax",%progbits
 986              		.align	1
 987              		.global	CyBle_Hal_se_smp_sc_user_passkey_handler
 988              		.code	16
 989              		.thumb_func
 990              		.type	CyBle_Hal_se_smp_sc_user_passkey_handler, %function
 991              	CyBle_Hal_se_smp_sc_user_passkey_handler:
 992              	.LFB29:
 644:Generated_Source\PSoC4/BLE_HAL_PVT.c **** 
 645:Generated_Source\PSoC4/BLE_HAL_PVT.c ****     CYBLE_API_RESULT_T CyBle_Hal_pairing_sc_tbx_generate_DHkey(void  * param1 CYBLE_UNUSED_ATTR,
 646:Generated_Source\PSoC4/BLE_HAL_PVT.c ****                                                                void  * param2 CYBLE_UNUSED_ATTR)
 647:Generated_Source\PSoC4/BLE_HAL_PVT.c ****     {
 648:Generated_Source\PSoC4/BLE_HAL_PVT.c ****         return (CYBLE_ERROR_UNSUPPORTED_FEATURE_OR_PARAMETER_VALUE);
 649:Generated_Source\PSoC4/BLE_HAL_PVT.c ****     }
 650:Generated_Source\PSoC4/BLE_HAL_PVT.c **** 
 651:Generated_Source\PSoC4/BLE_HAL_PVT.c ****     void CyBle_Hal_smp_sc_cmac_complete(void)
 652:Generated_Source\PSoC4/BLE_HAL_PVT.c ****     {
 653:Generated_Source\PSoC4/BLE_HAL_PVT.c ****     }
 654:Generated_Source\PSoC4/BLE_HAL_PVT.c **** 
 655:Generated_Source\PSoC4/BLE_HAL_PVT.c ****     CYBLE_API_RESULT_T CyBle_Hal_se_smp_sc_user_passkey_handler(void  * param1 CYBLE_UNUSED_ATTR,
 656:Generated_Source\PSoC4/BLE_HAL_PVT.c ****                                                                 void  * param2 CYBLE_UNUSED_ATTR)
 657:Generated_Source\PSoC4/BLE_HAL_PVT.c ****     {
 993              		.loc 1 657 0
 994              		.cfi_startproc
 995              		@ args = 0, pretend = 0, frame = 0
 996              		@ frame_needed = 0, uses_anonymous_args = 0
 997              		@ link register save eliminated.
 998              	.LVL72:
 658:Generated_Source\PSoC4/BLE_HAL_PVT.c ****         return (CYBLE_ERROR_UNSUPPORTED_FEATURE_OR_PARAMETER_VALUE);
 659:Generated_Source\PSoC4/BLE_HAL_PVT.c ****     }
 999              		.loc 1 659 0
 1000 0000 2B20     		movs	r0, #43
 1001              	.LVL73:
 1002              		@ sp needed
 1003 0002 7047     		bx	lr
 1004              		.cfi_endproc
 1005              	.LFE29:
 1006              		.size	CyBle_Hal_se_smp_sc_user_passkey_handler, .-CyBle_Hal_se_smp_sc_user_passkey_handler
 1007              		.section	.text.CyBle_Hal_EccPointMult,"ax",%progbits
 1008              		.align	1
 1009              		.global	CyBle_Hal_EccPointMult
 1010              		.code	16
 1011              		.thumb_func
 1012              		.type	CyBle_Hal_EccPointMult, %function
 1013              	CyBle_Hal_EccPointMult:
 1014              	.LFB30:
ARM GAS  C:\Users\Administrator\AppData\Local\Temp\cc8QjbCg.s 			page 31


 660:Generated_Source\PSoC4/BLE_HAL_PVT.c **** 
 661:Generated_Source\PSoC4/BLE_HAL_PVT.c ****     void CyBle_Hal_EccPointMult(void)
 662:Generated_Source\PSoC4/BLE_HAL_PVT.c ****     {
 1015              		.loc 1 662 0
 1016              		.cfi_startproc
 1017              		@ args = 0, pretend = 0, frame = 0
 1018              		@ frame_needed = 0, uses_anonymous_args = 0
 1019              		@ link register save eliminated.
 663:Generated_Source\PSoC4/BLE_HAL_PVT.c ****     }
 1020              		.loc 1 663 0
 1021              		@ sp needed
 1022 0000 7047     		bx	lr
 1023              		.cfi_endproc
 1024              	.LFE30:
 1025              		.size	CyBle_Hal_EccPointMult, .-CyBle_Hal_EccPointMult
 1026              		.section	.text.BLE_CMP_FTR_API_lec_hci_handle_read_local_P256_public_key_command,"ax",%progbits
 1027              		.align	1
 1028              		.global	BLE_CMP_FTR_API_lec_hci_handle_read_local_P256_public_key_command
 1029              		.code	16
 1030              		.thumb_func
 1031              		.type	BLE_CMP_FTR_API_lec_hci_handle_read_local_P256_public_key_command, %function
 1032              	BLE_CMP_FTR_API_lec_hci_handle_read_local_P256_public_key_command:
 1033              	.LFB34:
 1034              		.cfi_startproc
 1035              		@ args = 0, pretend = 0, frame = 0
 1036              		@ frame_needed = 0, uses_anonymous_args = 0
 1037              		@ link register save eliminated.
 1038 0000 0120     		movs	r0, #1
 1039              		@ sp needed
 1040 0002 7047     		bx	lr
 1041              		.cfi_endproc
 1042              	.LFE34:
 1043              		.size	BLE_CMP_FTR_API_lec_hci_handle_read_local_P256_public_key_command, .-BLE_CMP_FTR_API_lec_hci
 1044              		.section	.text.BLE_CMP_FTR_API_lec_hci_handle_generate_DHkey_command,"ax",%progbits
 1045              		.align	1
 1046              		.global	BLE_CMP_FTR_API_lec_hci_handle_generate_DHkey_command
 1047              		.code	16
 1048              		.thumb_func
 1049              		.type	BLE_CMP_FTR_API_lec_hci_handle_generate_DHkey_command, %function
 1050              	BLE_CMP_FTR_API_lec_hci_handle_generate_DHkey_command:
 1051              	.LFB32:
 664:Generated_Source\PSoC4/BLE_HAL_PVT.c ****     
 665:Generated_Source\PSoC4/BLE_HAL_PVT.c **** #endif /* (CYBLE_SECURE_CONN_FEATURE_ENABLED) */
 666:Generated_Source\PSoC4/BLE_HAL_PVT.c **** 
 667:Generated_Source\PSoC4/BLE_HAL_PVT.c **** #endif /* CYBLE_MODE_PROFILE */
 668:Generated_Source\PSoC4/BLE_HAL_PVT.c **** 
 669:Generated_Source\PSoC4/BLE_HAL_PVT.c **** #if(CYBLE_SECURE_CONN_FEATURE_ENABLED)
 670:Generated_Source\PSoC4/BLE_HAL_PVT.c ****     
 671:Generated_Source\PSoC4/BLE_HAL_PVT.c ****     uint16 BLE_CMP_FTR_API_lec_hci_handle_read_local_P256_public_key_command(void *param)
 672:Generated_Source\PSoC4/BLE_HAL_PVT.c ****     {
 673:Generated_Source\PSoC4/BLE_HAL_PVT.c ****         return (BLE_STK_FTR_API_lec_hci_handle_read_local_P256_public_key_command(param));
 674:Generated_Source\PSoC4/BLE_HAL_PVT.c ****     }
 675:Generated_Source\PSoC4/BLE_HAL_PVT.c ****     
 676:Generated_Source\PSoC4/BLE_HAL_PVT.c ****     uint16 BLE_CMP_FTR_API_lec_hci_handle_generate_DHkey_command(void *param)
 677:Generated_Source\PSoC4/BLE_HAL_PVT.c ****     {
 678:Generated_Source\PSoC4/BLE_HAL_PVT.c ****         return (BLE_STK_FTR_API_lec_hci_handle_generate_DHkey_command(param));
 679:Generated_Source\PSoC4/BLE_HAL_PVT.c ****     }
ARM GAS  C:\Users\Administrator\AppData\Local\Temp\cc8QjbCg.s 			page 32


 680:Generated_Source\PSoC4/BLE_HAL_PVT.c **** 
 681:Generated_Source\PSoC4/BLE_HAL_PVT.c **** #else     /* If feature is not required, return error. */
 682:Generated_Source\PSoC4/BLE_HAL_PVT.c ****     
 683:Generated_Source\PSoC4/BLE_HAL_PVT.c ****     uint16 BLE_CMP_FTR_API_lec_hci_handle_read_local_P256_public_key_command(void *param CYBLE_UNUS
 684:Generated_Source\PSoC4/BLE_HAL_PVT.c ****     {
 685:Generated_Source\PSoC4/BLE_HAL_PVT.c ****         return (CYBLE_UNKNOWN_HCI_COMMAND_ERROR);
 686:Generated_Source\PSoC4/BLE_HAL_PVT.c ****     }
 687:Generated_Source\PSoC4/BLE_HAL_PVT.c ****     
 688:Generated_Source\PSoC4/BLE_HAL_PVT.c ****     uint16 BLE_CMP_FTR_API_lec_hci_handle_generate_DHkey_command(void *param CYBLE_UNUSED_ATTR)
 689:Generated_Source\PSoC4/BLE_HAL_PVT.c ****     {
 1052              		.loc 1 689 0
 1053              		.cfi_startproc
 1054              		@ args = 0, pretend = 0, frame = 0
 1055              		@ frame_needed = 0, uses_anonymous_args = 0
 1056              		@ link register save eliminated.
 1057              	.LVL74:
 690:Generated_Source\PSoC4/BLE_HAL_PVT.c ****         return (CYBLE_UNKNOWN_HCI_COMMAND_ERROR);
 691:Generated_Source\PSoC4/BLE_HAL_PVT.c ****     }
 1058              		.loc 1 691 0
 1059 0000 0120     		movs	r0, #1
 1060              	.LVL75:
 1061              		@ sp needed
 1062 0002 7047     		bx	lr
 1063              		.cfi_endproc
 1064              	.LFE32:
 1065              		.size	BLE_CMP_FTR_API_lec_hci_handle_generate_DHkey_command, .-BLE_CMP_FTR_API_lec_hci_handle_gene
 1066              		.text
 1067              	.Letext0:
 1068              		.file 2 "Generated_Source\\PSoC4\\cytypes.h"
 1069              		.file 3 "Generated_Source\\PSoC4\\BLE_Stack.h"
 1070              		.file 4 "Generated_Source\\PSoC4\\CyFlash.h"
 1071              		.file 5 "Generated_Source\\PSoC4\\CyLib.h"
 1072              		.file 6 "Generated_Source\\PSoC4\\BLE_bless_isr.h"