ARM GAS  C:\Users\Administrator\AppData\Local\Temp\ccAR733f.s 			page 1


   1              		.syntax unified
   2              		.cpu cortex-m0
   3              		.fpu softvfp
   4              		.eabi_attribute 20, 1
   5              		.eabi_attribute 21, 1
   6              		.eabi_attribute 23, 3
   7              		.eabi_attribute 24, 1
   8              		.eabi_attribute 25, 1
   9              		.eabi_attribute 26, 1
  10              		.eabi_attribute 30, 4
  11              		.eabi_attribute 34, 0
  12              		.eabi_attribute 18, 4
  13              		.thumb
  14              		.syntax unified
  15              		.file	"boot.c"
  16              		.text
  17              	.Ltext0:
  18              		.cfi_sections	.debug_frame
  19              		.section	.text.LRC_CheckSum,"ax",%progbits
  20              		.align	1
  21              		.global	LRC_CheckSum
  22              		.code	16
  23              		.thumb_func
  24              		.type	LRC_CheckSum, %function
  25              	LRC_CheckSum:
  26              	.LFB36:
  27              		.file 1 "Code\\BOOT\\boot.c"
   1:Code\BOOT/boot.c **** //*************************************************************************************************
   2:Code\BOOT/boot.c **** // File name		: boot.c
   3:Code\BOOT/boot.c **** // Description		: 启动引导相关函数
   4:Code\BOOT/boot.c **** // Author			: Keno
   5:Code\BOOT/boot.c **** // Date				: 2016.8.8
   6:Code\BOOT/boot.c **** // Version			: V02
   7:Code\BOOT/boot.c **** //-------------------------------------------------------------------------------------------------
   8:Code\BOOT/boot.c **** // Info				: 
   9:Code\BOOT/boot.c **** //*************************************************************************************************
  10:Code\BOOT/boot.c **** #include "boot.h "
  11:Code\BOOT/boot.c **** 
  12:Code\BOOT/boot.c **** 
  13:Code\BOOT/boot.c **** 
  14:Code\BOOT/boot.c **** const uint8 SILICONID[4] = {0x13, 0x27, 0x11, 0xA3};
  15:Code\BOOT/boot.c **** //*************************************************************************************************
  16:Code\BOOT/boot.c **** // Function name	: LRC_CheckSum
  17:Code\BOOT/boot.c **** // Description		: LRC校验算法
  18:Code\BOOT/boot.c **** // Parameter		: data	: 数据
  19:Code\BOOT/boot.c **** //					: len	: 长度
  20:Code\BOOT/boot.c **** // Return			: none
  21:Code\BOOT/boot.c **** //-------------------------------------------------------------------------------------------------
  22:Code\BOOT/boot.c **** // Info				: 传入的data数据为未经过拼接的字符串数据.
  23:Code\BOOT/boot.c **** //*************************************************************************************************
  24:Code\BOOT/boot.c **** uint8 LRC_CheckSum(uint8 * data, uint16 len)
  25:Code\BOOT/boot.c **** {
  28              		.loc 1 25 0
  29              		.cfi_startproc
  30              		@ args = 0, pretend = 0, frame = 536
  31              		@ frame_needed = 0, uses_anonymous_args = 0
  32              	.LVL0:
ARM GAS  C:\Users\Administrator\AppData\Local\Temp\ccAR733f.s 			page 2


  26:Code\BOOT/boot.c **** 	uint16 i, sum = 0;
  27:Code\BOOT/boot.c **** 	uint8 LrcData[530];
  28:Code\BOOT/boot.c **** 	uint8 ret;
  29:Code\BOOT/boot.c **** 	
  30:Code\BOOT/boot.c **** 	for (i = 0; i < len; i++)
  33              		.loc 1 30 0
  34 0000 0022     		movs	r2, #0
  25:Code\BOOT/boot.c **** 	uint16 i, sum = 0;
  35              		.loc 1 25 0
  36 0002 10B5     		push	{r4, lr}
  37              		.cfi_def_cfa_offset 8
  38              		.cfi_offset 4, -8
  39              		.cfi_offset 14, -4
  40 0004 144C     		ldr	r4, .L12
  41 0006 A544     		add	sp, sp, r4
  42              		.cfi_def_cfa_offset 544
  43              	.LVL1:
  44              	.L2:
  45              		.loc 1 30 0 discriminator 1
  46 0008 93B2     		uxth	r3, r2
  47 000a 9942     		cmp	r1, r3
  48 000c 0AD9     		bls	.L10
  31:Code\BOOT/boot.c **** 	{
  32:Code\BOOT/boot.c **** 		if (data[i] > 0x40)
  49              		.loc 1 32 0
  50 000e 835C     		ldrb	r3, [r0, r2]
  51 0010 402B     		cmp	r3, #64
  52 0012 01D9     		bls	.L3
  33:Code\BOOT/boot.c **** 		{
  34:Code\BOOT/boot.c **** 			LrcData[i] = data[i] - 0x41 + 10;
  53              		.loc 1 34 0
  54 0014 373B     		subs	r3, r3, #55
  55 0016 00E0     		b	.L8
  56              	.L3:
  35:Code\BOOT/boot.c **** 		}
  36:Code\BOOT/boot.c **** 		else
  37:Code\BOOT/boot.c **** 		{
  38:Code\BOOT/boot.c **** 			LrcData[i] = data[i] - 0x30;
  57              		.loc 1 38 0
  58 0018 303B     		subs	r3, r3, #48
  59              	.L8:
  60 001a 6C46     		mov	r4, sp
  61 001c 0434     		adds	r4, r4, #4
  62 001e A354     		strb	r3, [r4, r2]
  63              	.LVL2:
  64 0020 0132     		adds	r2, r2, #1
  65              	.LVL3:
  66 0022 F1E7     		b	.L2
  67              	.LVL4:
  68              	.L10:
  69 0024 6B46     		mov	r3, sp
  39:Code\BOOT/boot.c **** 		}
  40:Code\BOOT/boot.c **** 	}
  41:Code\BOOT/boot.c **** 	
  42:Code\BOOT/boot.c **** 	for (i = 0; i < len / 2; i++)
  70              		.loc 1 42 0
  71 0026 0020     		movs	r0, #0
ARM GAS  C:\Users\Administrator\AppData\Local\Temp\ccAR733f.s 			page 3


  72              	.LVL5:
  73 0028 4908     		lsrs	r1, r1, #1
  74              	.LVL6:
  75 002a 4900     		lsls	r1, r1, #1
  76 002c 0131     		adds	r1, r1, #1
  77 002e 01AA     		add	r2, sp, #4
  78              	.LVL7:
  79 0030 0533     		adds	r3, r3, #5
  80 0032 5118     		adds	r1, r2, r1
  81              	.LVL8:
  82              	.L6:
  83              		.loc 1 42 0 is_stmt 0 discriminator 1
  84 0034 8B42     		cmp	r3, r1
  85 0036 08D0     		beq	.L11
  43:Code\BOOT/boot.c **** 	{
  44:Code\BOOT/boot.c **** 		sum += (uint16)((LrcData[2 * i] << 4) + LrcData[2 * i + 1]);
  86              		.loc 1 44 0 is_stmt 1 discriminator 3
  87 0038 5A1E     		subs	r2, r3, #1
  88 003a 1278     		ldrb	r2, [r2]
  89 003c 1C78     		ldrb	r4, [r3]
  90 003e 1201     		lsls	r2, r2, #4
  91 0040 A218     		adds	r2, r4, r2
  92 0042 8018     		adds	r0, r0, r2
  93              	.LVL9:
  94 0044 80B2     		uxth	r0, r0
  95              	.LVL10:
  96 0046 0233     		adds	r3, r3, #2
  97 0048 F4E7     		b	.L6
  98              	.L11:
  99              	.LVL11:
  45:Code\BOOT/boot.c **** 	}
  46:Code\BOOT/boot.c **** 	ret = sum & 0xFF;
  47:Code\BOOT/boot.c **** 	ret = 256 - ret;
  48:Code\BOOT/boot.c **** 	return ret;
 100              		.loc 1 48 0
 101 004a 4042     		rsbs	r0, r0, #0
 102              	.LVL12:
 103 004c C0B2     		uxtb	r0, r0
  49:Code\BOOT/boot.c **** }
 104              		.loc 1 49 0
 105 004e 8623     		movs	r3, #134
 106 0050 9B00     		lsls	r3, r3, #2
 107 0052 9D44     		add	sp, sp, r3
 108              		@ sp needed
 109 0054 10BD     		pop	{r4, pc}
 110              	.L13:
 111 0056 C046     		.align	2
 112              	.L12:
 113 0058 E8FDFFFF 		.word	-536
 114              		.cfi_endproc
 115              	.LFE36:
 116              		.size	LRC_CheckSum, .-LRC_CheckSum
 117              		.section	.text.CyBtldr_CharToHex,"ax",%progbits
 118              		.align	1
 119              		.global	CyBtldr_CharToHex
 120              		.code	16
 121              		.thumb_func
ARM GAS  C:\Users\Administrator\AppData\Local\Temp\ccAR733f.s 			page 4


 122              		.type	CyBtldr_CharToHex, %function
 123              	CyBtldr_CharToHex:
 124              	.LFB37:
  50:Code\BOOT/boot.c **** 
  51:Code\BOOT/boot.c **** //*************************************************************************************************
  52:Code\BOOT/boot.c **** // Function name	: CyBtldr_FromAscii
  53:Code\BOOT/boot.c **** // Description		: 字符串转回16进制
  54:Code\BOOT/boot.c **** // Parameter		: value
  55:Code\BOOT/boot.c **** // Return			: CYRET_SUCCESS
  56:Code\BOOT/boot.c **** //-------------------------------------------------------------------------------------------------
  57:Code\BOOT/boot.c **** // Info				: 
  58:Code\BOOT/boot.c **** //*************************************************************************************************
  59:Code\BOOT/boot.c **** int CyBtldr_CharToHex(char value)
  60:Code\BOOT/boot.c **** {
 125              		.loc 1 60 0
 126              		.cfi_startproc
 127              		@ args = 0, pretend = 0, frame = 0
 128              		@ frame_needed = 0, uses_anonymous_args = 0
 129              		@ link register save eliminated.
 130              	.LVL13:
  61:Code\BOOT/boot.c ****     if (('0' <= value) && (value <= '9'))
 131              		.loc 1 61 0
 132 0000 0200     		movs	r2, r0
 133 0002 303A     		subs	r2, r2, #48
 134 0004 D3B2     		uxtb	r3, r2
 135 0006 092B     		cmp	r3, #9
 136 0008 0CD9     		bls	.L16
  62:Code\BOOT/boot.c ****         return (uint8)(value - '0');
  63:Code\BOOT/boot.c ****     if (('a' <= value) && (value <= 'f'))
 137              		.loc 1 63 0
 138 000a 0300     		movs	r3, r0
 139 000c 613B     		subs	r3, r3, #97
 140 000e 052B     		cmp	r3, #5
 141 0010 01D8     		bhi	.L17
  64:Code\BOOT/boot.c ****         return (uint8)(10 + value - 'a');
 142              		.loc 1 64 0
 143 0012 5738     		subs	r0, r0, #87
 144              	.LVL14:
 145 0014 05E0     		b	.L19
 146              	.LVL15:
 147              	.L17:
 148              	.LBB4:
 149              	.LBB5:
  65:Code\BOOT/boot.c ****     if (('A' <= value) && (value <= 'F'))
 150              		.loc 1 65 0
 151 0016 0200     		movs	r2, r0
 152 0018 413A     		subs	r2, r2, #65
  66:Code\BOOT/boot.c ****         return (uint8)(10 + value - 'A');
  67:Code\BOOT/boot.c **** 	
  68:Code\BOOT/boot.c ****     return CYRET_SUCCESS;
 153              		.loc 1 68 0
 154 001a 0023     		movs	r3, #0
  65:Code\BOOT/boot.c ****     if (('A' <= value) && (value <= 'F'))
 155              		.loc 1 65 0
 156 001c 052A     		cmp	r2, #5
 157 001e 01D8     		bhi	.L16
  66:Code\BOOT/boot.c ****         return (uint8)(10 + value - 'A');
ARM GAS  C:\Users\Administrator\AppData\Local\Temp\ccAR733f.s 			page 5


 158              		.loc 1 66 0
 159 0020 3738     		subs	r0, r0, #55
 160              	.LVL16:
 161              	.L19:
 162 0022 C3B2     		uxtb	r3, r0
 163              	.L16:
 164              	.LBE5:
 165              	.LBE4:
  69:Code\BOOT/boot.c **** }
 166              		.loc 1 69 0
 167 0024 1800     		movs	r0, r3
 168              		@ sp needed
 169 0026 7047     		bx	lr
 170              		.cfi_endproc
 171              	.LFE37:
 172              		.size	CyBtldr_CharToHex, .-CyBtldr_CharToHex
 173              		.section	.text.CyBtldr_AsciiToHex,"ax",%progbits
 174              		.align	1
 175              		.global	CyBtldr_AsciiToHex
 176              		.code	16
 177              		.thumb_func
 178              		.type	CyBtldr_AsciiToHex, %function
 179              	CyBtldr_AsciiToHex:
 180              	.LFB38:
  70:Code\BOOT/boot.c **** 
  71:Code\BOOT/boot.c **** //*************************************************************************************************
  72:Code\BOOT/boot.c **** // Function name	: CyBtldr_AsciiToHex
  73:Code\BOOT/boot.c **** // Description		: 把2个字符合并成一个hex数据输出
  74:Code\BOOT/boot.c **** // Parameter		: input_len		: 输入的字符串长度
  75:Code\BOOT/boot.c **** //					: input_buf		: 输入的字符内容
  76:Code\BOOT/boot.c **** //					: output_len	: 输出的数据长度
  77:Code\BOOT/boot.c **** //					: output_buf	: 输出的数据内容
  78:Code\BOOT/boot.c **** // Return			: void
  79:Code\BOOT/boot.c **** //-------------------------------------------------------------------------------------------------
  80:Code\BOOT/boot.c **** // Info				: 
  81:Code\BOOT/boot.c **** //*************************************************************************************************
  82:Code\BOOT/boot.c **** int CyBtldr_AsciiToHex(uint32 input_len, uint8* input_buf, uint32* output_len, uint8* output_buf)
  83:Code\BOOT/boot.c **** {
 181              		.loc 1 83 0
 182              		.cfi_startproc
 183              		@ args = 0, pretend = 0, frame = 16
 184              		@ frame_needed = 0, uses_anonymous_args = 0
 185              	.LVL17:
 186 0000 F0B5     		push	{r4, r5, r6, r7, lr}
 187              		.cfi_def_cfa_offset 20
 188              		.cfi_offset 4, -20
 189              		.cfi_offset 5, -16
 190              		.cfi_offset 6, -12
 191              		.cfi_offset 7, -8
 192              		.cfi_offset 14, -4
  84:Code\BOOT/boot.c ****     uint16 i;
  85:Code\BOOT/boot.c ****     int err = CYRET_SUCCESS;
  86:Code\BOOT/boot.c **** 
  87:Code\BOOT/boot.c ****     if (input_len & 1)												// 确保输入的数据个数为偶数			//
 193              		.loc 1 87 0
 194 0002 0124     		movs	r4, #1
  83:Code\BOOT/boot.c ****     uint16 i;
ARM GAS  C:\Users\Administrator\AppData\Local\Temp\ccAR733f.s 			page 6


 195              		.loc 1 83 0
 196 0004 85B0     		sub	sp, sp, #20
 197              		.cfi_def_cfa_offset 40
  83:Code\BOOT/boot.c ****     uint16 i;
 198              		.loc 1 83 0
 199 0006 0393     		str	r3, [sp, #12]
 200 0008 0F00     		movs	r7, r1
 201 000a 0292     		str	r2, [sp, #8]
 202              		.loc 1 87 0
 203 000c 0440     		ands	r4, r0
  88:Code\BOOT/boot.c **** 	{
  89:Code\BOOT/boot.c ****         err = CYRET_ERR_LENGTH;
  90:Code\BOOT/boot.c **** 		return err;
 204              		.loc 1 90 0
 205 000e 0323     		movs	r3, #3
 206              	.LVL18:
  87:Code\BOOT/boot.c **** 	{
 207              		.loc 1 87 0
 208 0010 002C     		cmp	r4, #0
 209 0012 1AD1     		bne	.L21
 210              	.LBB8:
 211              	.LBB9:
  91:Code\BOOT/boot.c ****     }
  92:Code\BOOT/boot.c **** 	
  93:Code\BOOT/boot.c ****     for (i = 0; i < input_len / 2; i++)
 212              		.loc 1 93 0
 213 0014 4308     		lsrs	r3, r0, #1
 214 0016 0193     		str	r3, [sp, #4]
 215              	.LVL19:
 216              	.L22:
 217 0018 019B     		ldr	r3, [sp, #4]
 218 001a 9C42     		cmp	r4, r3
 219 001c 12D2     		bcs	.L25
  94:Code\BOOT/boot.c ****     {
  95:Code\BOOT/boot.c **** 		output_buf[i] = (CyBtldr_CharToHex(input_buf[i * 2]) << 4) | CyBtldr_CharToHex(input_buf[i * 2 + 
 220              		.loc 1 95 0
 221 001e 039B     		ldr	r3, [sp, #12]
 222 0020 6500     		lsls	r5, r4, #1
 223 0022 1B19     		adds	r3, r3, r4
 224 0024 785D     		ldrb	r0, [r7, r5]
 225 0026 0093     		str	r3, [sp]
 226 0028 FFF7FEFF 		bl	CyBtldr_CharToHex
 227              	.LVL20:
 228 002c 7D19     		adds	r5, r7, r5
 229 002e 0600     		movs	r6, r0
 230 0030 6878     		ldrb	r0, [r5, #1]
 231 0032 FFF7FEFF 		bl	CyBtldr_CharToHex
 232              	.LVL21:
 233 0036 3601     		lsls	r6, r6, #4
 234 0038 009B     		ldr	r3, [sp]
 235 003a 3043     		orrs	r0, r6
  93:Code\BOOT/boot.c ****     {
 236              		.loc 1 93 0
 237 003c 0134     		adds	r4, r4, #1
 238              	.LVL22:
 239              		.loc 1 95 0
 240 003e 1870     		strb	r0, [r3]
ARM GAS  C:\Users\Administrator\AppData\Local\Temp\ccAR733f.s 			page 7


  93:Code\BOOT/boot.c ****     {
 241              		.loc 1 93 0
 242 0040 A4B2     		uxth	r4, r4
 243              	.LVL23:
 244 0042 E9E7     		b	.L22
 245              	.L25:
  96:Code\BOOT/boot.c ****     }
  97:Code\BOOT/boot.c ****     *output_len = i;
 246              		.loc 1 97 0
 247 0044 029B     		ldr	r3, [sp, #8]
 248 0046 1C60     		str	r4, [r3]
 249              	.LVL24:
 250 0048 0023     		movs	r3, #0
 251              	.L21:
 252              	.LBE9:
 253              	.LBE8:
  98:Code\BOOT/boot.c **** 	
  99:Code\BOOT/boot.c ****     return err;
 100:Code\BOOT/boot.c **** }
 254              		.loc 1 100 0
 255 004a 1800     		movs	r0, r3
 256 004c 05B0     		add	sp, sp, #20
 257              		@ sp needed
 258              	.LVL25:
 259 004e F0BD     		pop	{r4, r5, r6, r7, pc}
 260              		.cfi_endproc
 261              	.LFE38:
 262              		.size	CyBtldr_AsciiToHex, .-CyBtldr_AsciiToHex
 263              		.section	.text.CyBtldr_ParseRowData.part.2,"ax",%progbits
 264              		.align	1
 265              		.code	16
 266              		.thumb_func
 267              		.type	CyBtldr_ParseRowData.part.2, %function
 268              	CyBtldr_ParseRowData.part.2:
 269              	.LFB45:
 101:Code\BOOT/boot.c **** 
 102:Code\BOOT/boot.c **** //*************************************************************************************************
 103:Code\BOOT/boot.c **** // Function name	: CyBtldr_ParseHeader
 104:Code\BOOT/boot.c **** // Description		: 解析cyacd文件中的头信息
 105:Code\BOOT/boot.c **** // Parameter		: bufSize	: 输入的字符串大小
 106:Code\BOOT/boot.c **** //					  buf		: 传入字符串数据
 107:Code\BOOT/boot.c **** //					  siliconId	: 器件号
 108:Code\BOOT/boot.c **** //					  siliconRev: 器件版本
 109:Code\BOOT/boot.c **** //					  chksum	: 器件检验方式
 110:Code\BOOT/boot.c **** // Return			: 结果
 111:Code\BOOT/boot.c **** //-------------------------------------------------------------------------------------------------
 112:Code\BOOT/boot.c **** // Info				: 
 113:Code\BOOT/boot.c **** //*************************************************************************************************
 114:Code\BOOT/boot.c **** int CyBtldr_ParseHeader(uint32 bufSize, uint8* buf, uint32* siliconId, uint8* siliconRev, uint8* ch
 115:Code\BOOT/boot.c **** {
 116:Code\BOOT/boot.c **** 	uint32 out_len;
 117:Code\BOOT/boot.c **** 	uint8  out_data[MAX_BUFFER_SIZE];
 118:Code\BOOT/boot.c **** 	
 119:Code\BOOT/boot.c **** 	int err = CyBtldr_AsciiToHex(bufSize, buf, &out_len, out_data);
 120:Code\BOOT/boot.c **** 
 121:Code\BOOT/boot.c **** 	if (CYRET_SUCCESS == err)
 122:Code\BOOT/boot.c **** 	{
ARM GAS  C:\Users\Administrator\AppData\Local\Temp\ccAR733f.s 			page 8


 123:Code\BOOT/boot.c **** 		*chksum = out_data[5];
 124:Code\BOOT/boot.c **** 		*siliconId = (out_data[0] << 24) | (out_data[1] << 16) | (out_data[2] << 8) | (out_data[3]);
 125:Code\BOOT/boot.c **** 	    *siliconRev = out_data[4];
 126:Code\BOOT/boot.c **** 	}
 127:Code\BOOT/boot.c **** 	
 128:Code\BOOT/boot.c **** 	return err;
 129:Code\BOOT/boot.c **** }
 130:Code\BOOT/boot.c **** 
 131:Code\BOOT/boot.c **** //*************************************************************************************************
 132:Code\BOOT/boot.c **** // Function name	: CyBtldr_ParseRowData
 133:Code\BOOT/boot.c **** // Description		: 解析cyacd文件中的一行ROW数据
 134:Code\BOOT/boot.c **** // Parameter		: bufSize	: 输入的字符串大小
 135:Code\BOOT/boot.c **** //					  buf		: 传入字符串数据
 136:Code\BOOT/boot.c **** //					  ArrayId	: 输出的组号 
 137:Code\BOOT/boot.c **** //					  RowNum	: 输出的行编号
 138:Code\BOOT/boot.c **** //					  DataLen	: 输出的hex数据长度
 139:Code\BOOT/boot.c **** //					  Data		: 输出的hex数据
 140:Code\BOOT/boot.c **** //					  chksum	: 输出的校验和
 141:Code\BOOT/boot.c **** // Return			: 结果
 142:Code\BOOT/boot.c **** //-------------------------------------------------------------------------------------------------
 143:Code\BOOT/boot.c **** // Info				: 1-array, 2-rowNum, 2-size, N-data, 1-checksum
 144:Code\BOOT/boot.c **** //-------------------------------------------------------------------------------------------------
 145:Code\BOOT/boot.c **** // 一个Array（阵列）总计有200行，故算RowNum时，需将Array值*0x200.
 146:Code\BOOT/boot.c **** //*************************************************************************************************
 147:Code\BOOT/boot.c **** int CyBtldr_ParseRowData(uint32 bufSize, uint8* buf, uint8* ArrayId, uint16* RowNum, uint16* DataLe
 270              		.loc 1 147 0
 271              		.cfi_startproc
 272              		@ args = 12, pretend = 0, frame = 776
 273              		@ frame_needed = 0, uses_anonymous_args = 0
 274              	.LVL26:
 275 0000 F0B5     		push	{r4, r5, r6, r7, lr}
 276              		.cfi_def_cfa_offset 20
 277              		.cfi_offset 4, -20
 278              		.cfi_offset 5, -16
 279              		.cfi_offset 6, -12
 280              		.cfi_offset 7, -8
 281              		.cfi_offset 14, -4
 282 0002 1700     		movs	r7, r2
 283 0004 1E00     		movs	r6, r3
 284 0006 184C     		ldr	r4, .L29
 148:Code\BOOT/boot.c **** {
 149:Code\BOOT/boot.c **** 	int err = CYRET_SUCCESS;
 150:Code\BOOT/boot.c ****     uint32 hexSize;
 151:Code\BOOT/boot.c ****     uint8  hexData[MAX_BUFFER_SIZE];
 152:Code\BOOT/boot.c ****     
 153:Code\BOOT/boot.c ****     if (bufSize <= 6)
 154:Code\BOOT/boot.c **** 	{
 155:Code\BOOT/boot.c ****         err = CYRET_ERR_LENGTH;
 156:Code\BOOT/boot.c ****     }
 157:Code\BOOT/boot.c **** 	else if (buf[0] == ':')
 158:Code\BOOT/boot.c ****     {
 159:Code\BOOT/boot.c **** 		err = CyBtldr_AsciiToHex(bufSize - 1, &buf[1], &hexSize, hexData);
 285              		.loc 1 159 0
 286 0008 0131     		adds	r1, r1, #1
 287              	.LVL27:
 147:Code\BOOT/boot.c **** {
 288              		.loc 1 147 0
ARM GAS  C:\Users\Administrator\AppData\Local\Temp\ccAR733f.s 			page 9


 289 000a A544     		add	sp, sp, r4
 290              		.cfi_def_cfa_offset 800
 291              		.loc 1 159 0
 292 000c 02AC     		add	r4, sp, #8
 293 000e 2300     		movs	r3, r4
 294              	.LVL28:
 295 0010 01AA     		add	r2, sp, #4
 296              	.LVL29:
 297 0012 0138     		subs	r0, r0, #1
 298              	.LVL30:
 299 0014 FFF7FEFF 		bl	CyBtldr_AsciiToHex
 300              	.LVL31:
 160:Code\BOOT/boot.c **** 		*ArrayId =   hexData[0];
 301              		.loc 1 160 0
 302 0018 2378     		ldrb	r3, [r4]
 159:Code\BOOT/boot.c **** 		*ArrayId =   hexData[0];
 303              		.loc 1 159 0
 304 001a 0500     		movs	r5, r0
 305              	.LVL32:
 306              		.loc 1 160 0
 307 001c 3B70     		strb	r3, [r7]
 161:Code\BOOT/boot.c **** 		*RowNum  = ((hexData[1] << 8) | (hexData[2])) + 0x200 * hexData[0];
 308              		.loc 1 161 0
 309 001e 6278     		ldrb	r2, [r4, #1]
 310 0020 A178     		ldrb	r1, [r4, #2]
 311 0022 1202     		lsls	r2, r2, #8
 312 0024 0A43     		orrs	r2, r1
 313 0026 5B02     		lsls	r3, r3, #9
 314 0028 D318     		adds	r3, r2, r3
 315 002a 3380     		strh	r3, [r6]
 162:Code\BOOT/boot.c **** 		*DataLen =  (hexData[3] << 8) | (hexData[4]);
 316              		.loc 1 162 0
 317 002c E378     		ldrb	r3, [r4, #3]
 318 002e 2279     		ldrb	r2, [r4, #4]
 319 0030 1B02     		lsls	r3, r3, #8
 320 0032 1343     		orrs	r3, r2
 321 0034 C89A     		ldr	r2, [sp, #800]
 163:Code\BOOT/boot.c **** 		*chksum  =  (hexData[hexSize - 1]);
 322              		.loc 1 163 0
 323 0036 CA99     		ldr	r1, [sp, #808]
 162:Code\BOOT/boot.c **** 		*DataLen =  (hexData[3] << 8) | (hexData[4]);
 324              		.loc 1 162 0
 325 0038 1380     		strh	r3, [r2]
 326              		.loc 1 163 0
 327 003a 019B     		ldr	r3, [sp, #4]
 328 003c E418     		adds	r4, r4, r3
 329 003e 013C     		subs	r4, r4, #1
 330 0040 2278     		ldrb	r2, [r4]
 331 0042 0A70     		strb	r2, [r1]
 164:Code\BOOT/boot.c **** 		
 165:Code\BOOT/boot.c **** 		if ((*DataLen + 6) == hexSize)
 332              		.loc 1 165 0
 333 0044 C89A     		ldr	r2, [sp, #800]
 334 0046 1288     		ldrh	r2, [r2]
 335 0048 911D     		adds	r1, r2, #6
 336 004a 8B42     		cmp	r3, r1
 337 004c 05D1     		bne	.L28
ARM GAS  C:\Users\Administrator\AppData\Local\Temp\ccAR733f.s 			page 10


 166:Code\BOOT/boot.c **** 		{
 167:Code\BOOT/boot.c **** 			memcpy(Data, hexData + 5, *DataLen);
 338              		.loc 1 167 0
 339 004e 0D21     		movs	r1, #13
 340 0050 C998     		ldr	r0, [sp, #804]
 341              	.LVL33:
 342 0052 6944     		add	r1, r1, sp
 343 0054 FFF7FEFF 		bl	memcpy
 344              	.LVL34:
 345 0058 00E0     		b	.L27
 346              	.LVL35:
 347              	.L28:
 168:Code\BOOT/boot.c **** 		}
 169:Code\BOOT/boot.c **** 		else
 170:Code\BOOT/boot.c **** 		{
 171:Code\BOOT/boot.c **** 			err = CYRET_ERR_DATA;
 348              		.loc 1 171 0
 349 005a 0425     		movs	r5, #4
 350              	.LVL36:
 351              	.L27:
 172:Code\BOOT/boot.c **** 		}
 173:Code\BOOT/boot.c **** 	}
 174:Code\BOOT/boot.c ****     else
 175:Code\BOOT/boot.c **** 	{
 176:Code\BOOT/boot.c ****         err = CYRET_ERR_CMD;
 177:Code\BOOT/boot.c **** 	}
 178:Code\BOOT/boot.c **** 	
 179:Code\BOOT/boot.c ****     return err;
 180:Code\BOOT/boot.c **** }
 352              		.loc 1 180 0
 353 005c 2800     		movs	r0, r5
 354 005e C323     		movs	r3, #195
 355 0060 9B00     		lsls	r3, r3, #2
 356 0062 9D44     		add	sp, sp, r3
 357              		@ sp needed
 358              	.LVL37:
 359              	.LVL38:
 360              	.LVL39:
 361 0064 F0BD     		pop	{r4, r5, r6, r7, pc}
 362              	.L30:
 363 0066 C046     		.align	2
 364              	.L29:
 365 0068 F4FCFFFF 		.word	-780
 366              		.cfi_endproc
 367              	.LFE45:
 368              		.size	CyBtldr_ParseRowData.part.2, .-CyBtldr_ParseRowData.part.2
 369              		.section	.text.CyBtldr_ParseHeader,"ax",%progbits
 370              		.align	1
 371              		.global	CyBtldr_ParseHeader
 372              		.code	16
 373              		.thumb_func
 374              		.type	CyBtldr_ParseHeader, %function
 375              	CyBtldr_ParseHeader:
 376              	.LFB39:
 115:Code\BOOT/boot.c **** 	uint32 out_len;
 377              		.loc 1 115 0
 378              		.cfi_startproc
ARM GAS  C:\Users\Administrator\AppData\Local\Temp\ccAR733f.s 			page 11


 379              		@ args = 4, pretend = 0, frame = 776
 380              		@ frame_needed = 0, uses_anonymous_args = 0
 381              	.LVL40:
 382 0000 30B5     		push	{r4, r5, lr}
 383              		.cfi_def_cfa_offset 12
 384              		.cfi_offset 4, -12
 385              		.cfi_offset 5, -8
 386              		.cfi_offset 14, -4
 387 0002 0C4C     		ldr	r4, .L33
 388 0004 1500     		movs	r5, r2
 389 0006 A544     		add	sp, sp, r4
 390              		.cfi_def_cfa_offset 792
 119:Code\BOOT/boot.c **** 
 391              		.loc 1 119 0
 392 0008 01AA     		add	r2, sp, #4
 393              	.LVL41:
 115:Code\BOOT/boot.c **** 	uint32 out_len;
 394              		.loc 1 115 0
 395 000a 1C00     		movs	r4, r3
 119:Code\BOOT/boot.c **** 
 396              		.loc 1 119 0
 397 000c 02AB     		add	r3, sp, #8
 398              	.LVL42:
 399 000e FFF7FEFF 		bl	CyBtldr_AsciiToHex
 400              	.LVL43:
 121:Code\BOOT/boot.c **** 	{
 401              		.loc 1 121 0
 402 0012 0028     		cmp	r0, #0
 403 0014 09D1     		bne	.L32
 123:Code\BOOT/boot.c **** 		*siliconId = (out_data[0] << 24) | (out_data[1] << 16) | (out_data[2] << 8) | (out_data[3]);
 404              		.loc 1 123 0
 405 0016 6B46     		mov	r3, sp
 406 0018 C69A     		ldr	r2, [sp, #792]
 407 001a 5B7B     		ldrb	r3, [r3, #13]
 408 001c 1370     		strb	r3, [r2]
 409 001e 029B     		ldr	r3, [sp, #8]
 410 0020 1BBA     		rev	r3, r3
 124:Code\BOOT/boot.c **** 	    *siliconRev = out_data[4];
 411              		.loc 1 124 0
 412 0022 2B60     		str	r3, [r5]
 125:Code\BOOT/boot.c **** 	}
 413              		.loc 1 125 0
 414 0024 6B46     		mov	r3, sp
 415 0026 1B7B     		ldrb	r3, [r3, #12]
 416 0028 2370     		strb	r3, [r4]
 417              	.L32:
 129:Code\BOOT/boot.c **** 
 418              		.loc 1 129 0
 419 002a C323     		movs	r3, #195
 420 002c 9B00     		lsls	r3, r3, #2
 421 002e 9D44     		add	sp, sp, r3
 422              		@ sp needed
 423              	.LVL44:
 424              	.LVL45:
 425 0030 30BD     		pop	{r4, r5, pc}
 426              	.L34:
 427 0032 C046     		.align	2
ARM GAS  C:\Users\Administrator\AppData\Local\Temp\ccAR733f.s 			page 12


 428              	.L33:
 429 0034 F4FCFFFF 		.word	-780
 430              		.cfi_endproc
 431              	.LFE39:
 432              		.size	CyBtldr_ParseHeader, .-CyBtldr_ParseHeader
 433              		.section	.text.CyBtldr_ParseRowData,"ax",%progbits
 434              		.align	1
 435              		.global	CyBtldr_ParseRowData
 436              		.code	16
 437              		.thumb_func
 438              		.type	CyBtldr_ParseRowData, %function
 439              	CyBtldr_ParseRowData:
 440              	.LFB40:
 148:Code\BOOT/boot.c **** 	int err = CYRET_SUCCESS;
 441              		.loc 1 148 0
 442              		.cfi_startproc
 443              		@ args = 12, pretend = 0, frame = 0
 444              		@ frame_needed = 0, uses_anonymous_args = 0
 445              	.LVL46:
 446 0000 30B5     		push	{r4, r5, lr}
 447              		.cfi_def_cfa_offset 12
 448              		.cfi_offset 4, -12
 449              		.cfi_offset 5, -8
 450              		.cfi_offset 14, -4
 451 0002 0400     		movs	r4, r0
 452 0004 85B0     		sub	sp, sp, #20
 453              		.cfi_def_cfa_offset 32
 155:Code\BOOT/boot.c ****     }
 454              		.loc 1 155 0
 455 0006 0320     		movs	r0, #3
 456              	.LVL47:
 153:Code\BOOT/boot.c **** 	{
 457              		.loc 1 153 0
 458 0008 062C     		cmp	r4, #6
 459 000a 0CD9     		bls	.L36
 157:Code\BOOT/boot.c ****     {
 460              		.loc 1 157 0
 461 000c 0D78     		ldrb	r5, [r1]
 176:Code\BOOT/boot.c **** 	}
 462              		.loc 1 176 0
 463 000e 0230     		adds	r0, r0, #2
 157:Code\BOOT/boot.c ****     {
 464              		.loc 1 157 0
 465 0010 3A2D     		cmp	r5, #58
 466 0012 08D1     		bne	.L36
 467 0014 0A98     		ldr	r0, [sp, #40]
 468 0016 0290     		str	r0, [sp, #8]
 469 0018 0998     		ldr	r0, [sp, #36]
 470 001a 0190     		str	r0, [sp, #4]
 471 001c 0898     		ldr	r0, [sp, #32]
 472 001e 0090     		str	r0, [sp]
 473 0020 2000     		movs	r0, r4
 474 0022 FFF7FEFF 		bl	CyBtldr_ParseRowData.part.2
 475              	.LVL48:
 476              	.L36:
 477              		.loc 1 180 0
 478 0026 05B0     		add	sp, sp, #20
ARM GAS  C:\Users\Administrator\AppData\Local\Temp\ccAR733f.s 			page 13


 479              		@ sp needed
 480              	.LVL49:
 481 0028 30BD     		pop	{r4, r5, pc}
 482              		.cfi_endproc
 483              	.LFE40:
 484              		.size	CyBtldr_ParseRowData, .-CyBtldr_ParseRowData
 485              		.global	__aeabi_uidiv
 486              		.section	.text.UpdateImage,"ax",%progbits
 487              		.align	1
 488              		.global	UpdateImage
 489              		.code	16
 490              		.thumb_func
 491              		.type	UpdateImage, %function
 492              	UpdateImage:
 493              	.LFB41:
 181:Code\BOOT/boot.c **** 
 182:Code\BOOT/boot.c **** //*************************************************************************************************
 183:Code\BOOT/boot.c **** // Function name	: UpdateImage
 184:Code\BOOT/boot.c **** // Description		: 拷贝启动镜像到BLE芯片FLASH中，并启动
 185:Code\BOOT/boot.c **** // Parameter		: none
 186:Code\BOOT/boot.c **** // Return			: 结果
 187:Code\BOOT/boot.c **** //-------------------------------------------------------------------------------------------------
 188:Code\BOOT/boot.c **** // Info				: 
 189:Code\BOOT/boot.c **** //*************************************************************************************************
 190:Code\BOOT/boot.c **** int UpdateImage(void)
 191:Code\BOOT/boot.c **** {
 494              		.loc 1 191 0
 495              		.cfi_startproc
 496              		@ args = 0, pretend = 0, frame = 816
 497              		@ frame_needed = 0, uses_anonymous_args = 0
 498              	.LVL50:
 499 0000 F0B5     		push	{r4, r5, r6, r7, lr}
 500              		.cfi_def_cfa_offset 20
 501              		.cfi_offset 4, -20
 502              		.cfi_offset 5, -16
 503              		.cfi_offset 6, -12
 504              		.cfi_offset 7, -8
 505              		.cfi_offset 14, -4
 506 0002 764C     		ldr	r4, .L61
 192:Code\BOOT/boot.c **** 	uint8  err = CYRET_SUCCESS;
 193:Code\BOOT/boot.c **** 	uint32 siliconID;
 194:Code\BOOT/boot.c **** 	uint8  siliconID_Buf[4];
 195:Code\BOOT/boot.c **** 	uint8  siliconRev;
 196:Code\BOOT/boot.c **** 	uint8  ChkSumType;
 197:Code\BOOT/boot.c **** 	
 198:Code\BOOT/boot.c **** 	uint8  RowData[530] = {0};
 507              		.loc 1 198 0
 508 0004 764A     		ldr	r2, .L61+4
 191:Code\BOOT/boot.c **** 	uint8  err = CYRET_SUCCESS;
 509              		.loc 1 191 0
 510 0006 A544     		add	sp, sp, r4
 511              		.cfi_def_cfa_offset 856
 512              		.loc 1 198 0
 513 0008 0021     		movs	r1, #0
 514 000a 4BA8     		add	r0, sp, #300
 515 000c FFF7FEFF 		bl	memset
 516              	.LVL51:
ARM GAS  C:\Users\Administrator\AppData\Local\Temp\ccAR733f.s 			page 14


 199:Code\BOOT/boot.c **** 	uint8  arrayId; 
 200:Code\BOOT/boot.c **** 	uint16 rowNum;
 201:Code\BOOT/boot.c **** 	uint16 dataLen;
 202:Code\BOOT/boot.c **** 	uint8  data[256] = {0};
 517              		.loc 1 202 0
 518 0010 8022     		movs	r2, #128
 519 0012 0021     		movs	r1, #0
 520 0014 5200     		lsls	r2, r2, #1
 521 0016 0BA8     		add	r0, sp, #44
 522 0018 FFF7FEFF 		bl	memset
 523              	.LVL52:
 203:Code\BOOT/boot.c **** 	uint8  checksum;
 204:Code\BOOT/boot.c **** 	
 205:Code\BOOT/boot.c **** 	uint32 imageSize;
 206:Code\BOOT/boot.c **** 	uint8  imageTmp[4];
 207:Code\BOOT/boot.c **** 	uint32 imageRowQty;
 208:Code\BOOT/boot.c **** 	uint16 i;
 209:Code\BOOT/boot.c **** 	uint8  CountChkSum;
 210:Code\BOOT/boot.c **** 	
 211:Code\BOOT/boot.c **** 	//==== 验证Image的头是否正确 =============================================================
 212:Code\BOOT/boot.c **** 	W25QXX_Read(RowData, W25X_IMAGESTART_ADDR, ImageHeadLen);		// 读取Image的头					//
 524              		.loc 1 212 0
 525 001c 0C22     		movs	r2, #12
 526 001e 7149     		ldr	r1, .L61+8
 527 0020 4BA8     		add	r0, sp, #300
 528 0022 FFF7FEFF 		bl	W25QXX_Read
 529              	.LVL53:
 213:Code\BOOT/boot.c **** 	err = CyBtldr_ParseHeader(ImageHeadLen, RowData, &siliconID, &siliconRev, &ChkSumType);
 530              		.loc 1 213 0
 531 0026 1123     		movs	r3, #17
 532 0028 02AA     		add	r2, sp, #8
 533 002a 9B18     		adds	r3, r3, r2
 534 002c 0093     		str	r3, [sp]
 535 002e 08AA     		add	r2, sp, #32
 536 0030 06AB     		add	r3, sp, #24
 537 0032 4BA9     		add	r1, sp, #300
 538 0034 0C20     		movs	r0, #12
 539 0036 FFF7FEFF 		bl	CyBtldr_ParseHeader
 540              	.LVL54:
 214:Code\BOOT/boot.c **** 	if (err != CYRET_SUCCESS)
 541              		.loc 1 214 0
 542 003a C4B2     		uxtb	r4, r0
 543 003c 002C     		cmp	r4, #0
 544 003e 05D0     		beq	.L40
 215:Code\BOOT/boot.c **** 	{
 216:Code\BOOT/boot.c **** 		DBG_PRINTF("\nUpdateImage-->CyBtldr_ParseHeader Error = 0x%02x\n", err);
 545              		.loc 1 216 0
 546 0040 C1B2     		uxtb	r1, r0
 547 0042 6948     		ldr	r0, .L61+12
 548              	.LVL55:
 549 0044 FFF7FEFF 		bl	printf
 550              	.LVL56:
 551              	.L56:
 217:Code\BOOT/boot.c **** 		return FALSE;
 552              		.loc 1 217 0
 553 0048 0027     		movs	r7, #0
 554 004a C2E0     		b	.L53
ARM GAS  C:\Users\Administrator\AppData\Local\Temp\ccAR733f.s 			page 15


 555              	.LVL57:
 556              	.L40:
 218:Code\BOOT/boot.c **** 	}
 219:Code\BOOT/boot.c **** 	else
 220:Code\BOOT/boot.c **** 	{
 221:Code\BOOT/boot.c **** 		siliconID_Buf[0] = (uint8)(siliconID >> 24);
 557              		.loc 1 221 0
 558 004c 089B     		ldr	r3, [sp, #32]
 559 004e 09A8     		add	r0, sp, #36
 560              	.LVL58:
 561 0050 1A0E     		lsrs	r2, r3, #24
 562 0052 0270     		strb	r2, [r0]
 222:Code\BOOT/boot.c **** 		siliconID_Buf[1] = (uint8)(siliconID >> 16);
 563              		.loc 1 222 0
 564 0054 1A0C     		lsrs	r2, r3, #16
 565 0056 4270     		strb	r2, [r0, #1]
 223:Code\BOOT/boot.c **** 		siliconID_Buf[2] = (uint8)(siliconID >> 8);
 566              		.loc 1 223 0
 567 0058 1A0A     		lsrs	r2, r3, #8
 568 005a 8270     		strb	r2, [r0, #2]
 224:Code\BOOT/boot.c **** 		siliconID_Buf[3] = (uint8)(siliconID >> 0);
 225:Code\BOOT/boot.c **** 		if (memcmp(siliconID_Buf, SILICONID, 4) != 0)
 569              		.loc 1 225 0
 570 005c 6349     		ldr	r1, .L61+16
 571 005e 0422     		movs	r2, #4
 224:Code\BOOT/boot.c **** 		siliconID_Buf[3] = (uint8)(siliconID >> 0);
 572              		.loc 1 224 0
 573 0060 C370     		strb	r3, [r0, #3]
 574              		.loc 1 225 0
 575 0062 FFF7FEFF 		bl	memcmp
 576              	.LVL59:
 577 0066 071E     		subs	r7, r0, #0
 578 0068 03D0     		beq	.L42
 226:Code\BOOT/boot.c **** 		{
 227:Code\BOOT/boot.c **** 			DBG_PRINTF("\nUpdateImage-->SiliconID Error.\n");
 579              		.loc 1 227 0
 580 006a 6148     		ldr	r0, .L61+20
 581 006c FFF7FEFF 		bl	puts
 582              	.LVL60:
 583 0070 EAE7     		b	.L56
 584              	.L42:
 228:Code\BOOT/boot.c **** 			return FALSE;
 229:Code\BOOT/boot.c **** 		}
 230:Code\BOOT/boot.c **** 		if (ChkSumType != 0)
 585              		.loc 1 230 0
 586 0072 02AB     		add	r3, sp, #8
 587 0074 5B7C     		ldrb	r3, [r3, #17]
 231:Code\BOOT/boot.c **** 		{
 232:Code\BOOT/boot.c **** 			DBG_PRINTF("\nUpdateImage-->CheckSum Type Error.\n");
 588              		.loc 1 232 0
 589 0076 5F48     		ldr	r0, .L61+24
 230:Code\BOOT/boot.c **** 		{
 590              		.loc 1 230 0
 591 0078 002B     		cmp	r3, #0
 592 007a 1CD1     		bne	.L57
 233:Code\BOOT/boot.c **** 			return FALSE;
 234:Code\BOOT/boot.c **** 		}
ARM GAS  C:\Users\Administrator\AppData\Local\Temp\ccAR733f.s 			page 16


 235:Code\BOOT/boot.c **** 	}
 236:Code\BOOT/boot.c **** 
 237:Code\BOOT/boot.c **** 	//==== 验证Image的数据区内容是否正确 =================================================
 238:Code\BOOT/boot.c **** 	W25QXX_Read(imageTmp, W25X_IMAGE_METDATA_ADDR, 4);				// 读取Image的总大小				//
 593              		.loc 1 238 0
 594 007c C821     		movs	r1, #200
 595 007e 0AAC     		add	r4, sp, #40
 596              	.LVL61:
 597 0080 2000     		movs	r0, r4
 598 0082 0422     		movs	r2, #4
 599 0084 8902     		lsls	r1, r1, #10
 600 0086 FFF7FEFF 		bl	W25QXX_Read
 601              	.LVL62:
 239:Code\BOOT/boot.c **** 	//imageSize = (imageTmp[0] << 8) + imageTmp[1];
 240:Code\BOOT/boot.c **** 	imageSize = (imageTmp[0] << 8) + imageTmp[1] + (imageTmp[2] << 24) + (imageTmp[3] << 16);
 241:Code\BOOT/boot.c **** 	imageRowQty = (imageSize - ImageHeadLen) / RowdataLen;
 602              		.loc 1 241 0
 603 008a 2078     		ldrb	r0, [r4]
 604              	.LVL63:
 605 008c 6378     		ldrb	r3, [r4, #1]
 606 008e 0002     		lsls	r0, r0, #8
 607              	.LVL64:
 608 0090 C018     		adds	r0, r0, r3
 609 0092 A378     		ldrb	r3, [r4, #2]
 610 0094 5849     		ldr	r1, .L61+28
 611 0096 1B06     		lsls	r3, r3, #24
 612 0098 C018     		adds	r0, r0, r3
 613 009a E378     		ldrb	r3, [r4, #3]
 242:Code\BOOT/boot.c **** 	for (i = 0; i < imageRowQty; i++)
 614              		.loc 1 242 0
 615 009c 3C00     		movs	r4, r7
 616              	.LVL65:
 241:Code\BOOT/boot.c **** 	for (i = 0; i < imageRowQty; i++)
 617              		.loc 1 241 0
 618 009e 1B04     		lsls	r3, r3, #16
 619 00a0 C018     		adds	r0, r0, r3
 620 00a2 0C38     		subs	r0, r0, #12
 621 00a4 FFF7FEFF 		bl	__aeabi_uidiv
 622              	.LVL66:
 623 00a8 0490     		str	r0, [sp, #16]
 624              	.LVL67:
 625              		.loc 1 242 0
 626 00aa 09E0     		b	.L44
 627              	.LVL68:
 628              	.L45:
 243:Code\BOOT/boot.c **** 	{
 244:Code\BOOT/boot.c **** 		DBG_PRINTF("UpdateImage-->i=0x%x\n", i);
 245:Code\BOOT/boot.c **** 		
 246:Code\BOOT/boot.c **** 		W25QXX_Read(RowData, (W25X_IMAGESTART_ADDR + RowDataOffsetAddr + i * RowdataLen), RowdataLen);
 247:Code\BOOT/boot.c **** 		
 248:Code\BOOT/boot.c **** 		CountChkSum = LRC_CheckSum(RowData + 1, RowdataLen - 3);	// 计算校验和						//
 249:Code\BOOT/boot.c **** 		DBG_PRINTF("UpdateImage-->ChkSum  = 0x%02x\n", CountChkSum);
 250:Code\BOOT/boot.c **** 		
 251:Code\BOOT/boot.c **** 		err = CyBtldr_ParseRowData(RowdataLen, RowData, &arrayId, &rowNum, &dataLen, data, &checksum);
 252:Code\BOOT/boot.c **** 		//DBG_PRINT_TEXT("UpdateImage-->RowData:\n");
 253:Code\BOOT/boot.c **** 		//DBG_SOFT_PrintfHex(RowData, RowdataLen);
 254:Code\BOOT/boot.c **** 		DBG_PRINTF("UpdateImage-->ArrayId = 0x%02x\n", arrayId);
ARM GAS  C:\Users\Administrator\AppData\Local\Temp\ccAR733f.s 			page 17


 255:Code\BOOT/boot.c **** 		DBG_PRINTF("UpdateImage-->RowNum  = 0x%04x\n", rowNum);
 256:Code\BOOT/boot.c **** 		DBG_PRINTF("UpdateImage-->DataLen = 0x%04x\n", dataLen);
 257:Code\BOOT/boot.c **** 		DBG_PRINTF("UpdateImage-->CheckSum= 0x%02x\n", checksum);
 258:Code\BOOT/boot.c **** 		//DBG_PRINTF("UpdateImage-->Data:\n");
 259:Code\BOOT/boot.c **** 		//DBG_SOFT_PrintfHex(data, 256);
 260:Code\BOOT/boot.c **** 		
 261:Code\BOOT/boot.c **** 		if (err != CYRET_SUCCESS)
 262:Code\BOOT/boot.c **** 		{
 263:Code\BOOT/boot.c **** 			DBG_PRINTF("\nUpdateImage-->CyBtldr_ParseRowData Error1 = 0x%02x\n", err);
 264:Code\BOOT/boot.c **** 			return FALSE;
 265:Code\BOOT/boot.c **** 		}
 266:Code\BOOT/boot.c **** 		else
 267:Code\BOOT/boot.c **** 		{
 268:Code\BOOT/boot.c **** 			if (CountChkSum != checksum)
 629              		.loc 1 268 0
 630 00ac 3378     		ldrb	r3, [r6]
 631 00ae 059A     		ldr	r2, [sp, #20]
 632 00b0 9342     		cmp	r3, r2
 633 00b2 03D0     		beq	.L46
 269:Code\BOOT/boot.c **** 			{
 270:Code\BOOT/boot.c **** 				DBG_PRINTF("\nUpdateImage-->Check Sum Error.\n");
 634              		.loc 1 270 0
 635 00b4 5148     		ldr	r0, .L61+32
 636              	.LVL69:
 637              	.L57:
 638 00b6 FFF7FEFF 		bl	puts
 639              	.LVL70:
 271:Code\BOOT/boot.c **** 				return FALSE;
 640              		.loc 1 271 0
 641 00ba 8AE0     		b	.L53
 642              	.LVL71:
 643              	.L46:
 242:Code\BOOT/boot.c **** 	{
 644              		.loc 1 242 0 discriminator 2
 645 00bc 0134     		adds	r4, r4, #1
 646              	.LVL72:
 647 00be A4B2     		uxth	r4, r4
 648              	.LVL73:
 649              	.L44:
 242:Code\BOOT/boot.c **** 	{
 650              		.loc 1 242 0 is_stmt 0 discriminator 1
 651 00c0 049B     		ldr	r3, [sp, #16]
 652 00c2 A342     		cmp	r3, r4
 653 00c4 44D9     		bls	.L58
 246:Code\BOOT/boot.c **** 		
 654              		.loc 1 246 0 is_stmt 1
 655 00c6 4C4D     		ldr	r5, .L61+28
 244:Code\BOOT/boot.c **** 		
 656              		.loc 1 244 0
 657 00c8 2100     		movs	r1, r4
 658 00ca 4D48     		ldr	r0, .L61+36
 659 00cc FFF7FEFF 		bl	printf
 660              	.LVL74:
 246:Code\BOOT/boot.c **** 		
 661              		.loc 1 246 0
 662 00d0 2900     		movs	r1, r5
 663 00d2 6143     		muls	r1, r4
ARM GAS  C:\Users\Administrator\AppData\Local\Temp\ccAR733f.s 			page 18


 664 00d4 4B4B     		ldr	r3, .L61+40
 665 00d6 2A00     		movs	r2, r5
 666 00d8 C918     		adds	r1, r1, r3
 667 00da 4BA8     		add	r0, sp, #300
 668 00dc FFF7FEFF 		bl	W25QXX_Read
 669              	.LVL75:
 248:Code\BOOT/boot.c **** 		DBG_PRINTF("UpdateImage-->ChkSum  = 0x%02x\n", CountChkSum);
 670              		.loc 1 248 0
 671 00e0 2620     		movs	r0, #38
 672 00e2 02AB     		add	r3, sp, #8
 673 00e4 FF30     		adds	r0, r0, #255
 674 00e6 C018     		adds	r0, r0, r3
 675 00e8 4749     		ldr	r1, .L61+44
 676 00ea FFF7FEFF 		bl	LRC_CheckSum
 677              	.LVL76:
 251:Code\BOOT/boot.c **** 		//DBG_PRINT_TEXT("UpdateImage-->RowData:\n");
 678              		.loc 1 251 0
 679 00ee 1326     		movs	r6, #19
 249:Code\BOOT/boot.c **** 		
 680              		.loc 1 249 0
 681 00f0 0100     		movs	r1, r0
 248:Code\BOOT/boot.c **** 		DBG_PRINTF("UpdateImage-->ChkSum  = 0x%02x\n", CountChkSum);
 682              		.loc 1 248 0
 683 00f2 0590     		str	r0, [sp, #20]
 684              	.LVL77:
 249:Code\BOOT/boot.c **** 		
 685              		.loc 1 249 0
 686 00f4 4548     		ldr	r0, .L61+48
 687 00f6 FFF7FEFF 		bl	printf
 688              	.LVL78:
 251:Code\BOOT/boot.c **** 		//DBG_PRINT_TEXT("UpdateImage-->RowData:\n");
 689              		.loc 1 251 0
 690 00fa 02AB     		add	r3, sp, #8
 691 00fc F618     		adds	r6, r6, r3
 692 00fe 0BAB     		add	r3, sp, #44
 693 0100 0193     		str	r3, [sp, #4]
 694 0102 1623     		movs	r3, #22
 695 0104 02AA     		add	r2, sp, #8
 696 0106 9B18     		adds	r3, r3, r2
 697 0108 1222     		movs	r2, #18
 698 010a 02A9     		add	r1, sp, #8
 699 010c 5218     		adds	r2, r2, r1
 700 010e 0093     		str	r3, [sp]
 701 0110 4BA9     		add	r1, sp, #300
 702 0112 07AB     		add	r3, sp, #28
 703 0114 2800     		movs	r0, r5
 704 0116 0296     		str	r6, [sp, #8]
 705 0118 FFF7FEFF 		bl	CyBtldr_ParseRowData
 706              	.LVL79:
 707 011c 0500     		movs	r5, r0
 708              	.LVL80:
 254:Code\BOOT/boot.c **** 		DBG_PRINTF("UpdateImage-->RowNum  = 0x%04x\n", rowNum);
 709              		.loc 1 254 0
 710 011e 02AB     		add	r3, sp, #8
 711 0120 997C     		ldrb	r1, [r3, #18]
 712 0122 3B48     		ldr	r0, .L61+52
 713 0124 FFF7FEFF 		bl	printf
ARM GAS  C:\Users\Administrator\AppData\Local\Temp\ccAR733f.s 			page 19


 714              	.LVL81:
 255:Code\BOOT/boot.c **** 		DBG_PRINTF("UpdateImage-->DataLen = 0x%04x\n", dataLen);
 715              		.loc 1 255 0
 716 0128 02AB     		add	r3, sp, #8
 717 012a 998A     		ldrh	r1, [r3, #20]
 718 012c 3948     		ldr	r0, .L61+56
 719 012e FFF7FEFF 		bl	printf
 720              	.LVL82:
 256:Code\BOOT/boot.c **** 		DBG_PRINTF("UpdateImage-->CheckSum= 0x%02x\n", checksum);
 721              		.loc 1 256 0
 722 0132 02AB     		add	r3, sp, #8
 723 0134 D98A     		ldrh	r1, [r3, #22]
 724 0136 3848     		ldr	r0, .L61+60
 725 0138 FFF7FEFF 		bl	printf
 726              	.LVL83:
 257:Code\BOOT/boot.c **** 		//DBG_PRINTF("UpdateImage-->Data:\n");
 727              		.loc 1 257 0
 728 013c 3178     		ldrb	r1, [r6]
 729 013e 3748     		ldr	r0, .L61+64
 730 0140 FFF7FEFF 		bl	printf
 731              	.LVL84:
 261:Code\BOOT/boot.c **** 		{
 732              		.loc 1 261 0
 733 0144 EBB2     		uxtb	r3, r5
 734 0146 002B     		cmp	r3, #0
 735 0148 B0D0     		beq	.L45
 263:Code\BOOT/boot.c **** 			return FALSE;
 736              		.loc 1 263 0
 737 014a E9B2     		uxtb	r1, r5
 738 014c 3448     		ldr	r0, .L61+68
 739 014e 3AE0     		b	.L55
 740              	.LVL85:
 741              	.L58:
 272:Code\BOOT/boot.c **** 			}
 273:Code\BOOT/boot.c **** 		}
 274:Code\BOOT/boot.c **** 	}
 275:Code\BOOT/boot.c **** 	
 276:Code\BOOT/boot.c **** 	//==== 将Image的数据写入片内Flash中 =====================================================
 277:Code\BOOT/boot.c **** 	DBG_PRINTF("\nUpdateImage-->Update Flash Data Start!\n");
 742              		.loc 1 277 0
 743 0150 3448     		ldr	r0, .L61+72
 744 0152 FFF7FEFF 		bl	puts
 745              	.LVL86:
 278:Code\BOOT/boot.c **** 	for (i = 0; i < imageRowQty; i++)
 746              		.loc 1 278 0
 747 0156 0024     		movs	r4, #0
 748              	.LVL87:
 749              	.L48:
 750              		.loc 1 278 0 is_stmt 0 discriminator 1
 751 0158 049B     		ldr	r3, [sp, #16]
 752 015a A342     		cmp	r3, r4
 753 015c 29D9     		bls	.L59
 279:Code\BOOT/boot.c **** 	{
 280:Code\BOOT/boot.c **** 		W25QXX_Read(RowData, (W25X_IMAGESTART_ADDR + RowDataOffsetAddr + i * RowdataLen), RowdataLen);
 754              		.loc 1 280 0 is_stmt 1
 755 015e 264D     		ldr	r5, .L61+28
 756 0160 284B     		ldr	r3, .L61+40
ARM GAS  C:\Users\Administrator\AppData\Local\Temp\ccAR733f.s 			page 20


 757 0162 2900     		movs	r1, r5
 758 0164 6143     		muls	r1, r4
 759 0166 2A00     		movs	r2, r5
 760 0168 C918     		adds	r1, r1, r3
 761 016a 4BA8     		add	r0, sp, #300
 762 016c FFF7FEFF 		bl	W25QXX_Read
 763              	.LVL88:
 281:Code\BOOT/boot.c **** 		err = CyBtldr_ParseRowData(RowdataLen, RowData, &arrayId, &rowNum, &dataLen, data, &checksum);
 764              		.loc 1 281 0
 765 0170 1323     		movs	r3, #19
 766 0172 02AA     		add	r2, sp, #8
 767 0174 9B18     		adds	r3, r3, r2
 768 0176 0293     		str	r3, [sp, #8]
 769 0178 1623     		movs	r3, #22
 770 017a 9B18     		adds	r3, r3, r2
 771 017c 1222     		movs	r2, #18
 772 017e 02A9     		add	r1, sp, #8
 773 0180 0BAE     		add	r6, sp, #44
 774 0182 0093     		str	r3, [sp]
 775 0184 5218     		adds	r2, r2, r1
 776 0186 07AB     		add	r3, sp, #28
 777 0188 0196     		str	r6, [sp, #4]
 778 018a 4BA9     		add	r1, sp, #300
 779 018c 2800     		movs	r0, r5
 780 018e FFF7FEFF 		bl	CyBtldr_ParseRowData
 781              	.LVL89:
 282:Code\BOOT/boot.c **** 		if (err != CYRET_SUCCESS)
 782              		.loc 1 282 0
 783 0192 C3B2     		uxtb	r3, r0
 784 0194 002B     		cmp	r3, #0
 785 0196 02D0     		beq	.L49
 283:Code\BOOT/boot.c **** 		{
 284:Code\BOOT/boot.c **** 			DBG_PRINTF("\nUpdateImage-->CyBtldr_ParseRowData Error2 = 0x%02x\n", err);
 786              		.loc 1 284 0
 787 0198 C1B2     		uxtb	r1, r0
 788 019a 2348     		ldr	r0, .L61+76
 789              	.LVL90:
 790 019c 13E0     		b	.L55
 791              	.LVL91:
 792              	.L49:
 285:Code\BOOT/boot.c **** 			return FALSE;
 286:Code\BOOT/boot.c **** 		}
 287:Code\BOOT/boot.c **** 		else
 288:Code\BOOT/boot.c **** 		{
 289:Code\BOOT/boot.c **** 			err = (CYRET_SUCCESS != CySysFlashWriteRow((uint32)rowNum, data)) ? Bootloader_ERR_ROW : CYRET_S
 793              		.loc 1 289 0
 794 019e 02AB     		add	r3, sp, #8
 795 01a0 988A     		ldrh	r0, [r3, #20]
 796              	.LVL92:
 797 01a2 3100     		movs	r1, r6
 798 01a4 FFF7FEFF 		bl	CySysFlashWriteRow
 799              	.LVL93:
 800 01a8 0028     		cmp	r0, #0
 801 01aa 0FD0     		beq	.L60
 802              	.LVL94:
 290:Code\BOOT/boot.c **** 			if (err != CYRET_SUCCESS)
 291:Code\BOOT/boot.c **** 			{
ARM GAS  C:\Users\Administrator\AppData\Local\Temp\ccAR733f.s 			page 21


 292:Code\BOOT/boot.c **** 				DBG_PRINTF("\nCySysFlashWriteRow Err = 0x%02x\n", err);
 803              		.loc 1 292 0
 804 01ac 0A21     		movs	r1, #10
 805 01ae 1F48     		ldr	r0, .L61+80
 806 01b0 09E0     		b	.L55
 807              	.LVL95:
 808              	.L59:
 293:Code\BOOT/boot.c **** 				return FALSE;
 294:Code\BOOT/boot.c **** 			}
 295:Code\BOOT/boot.c **** 		}
 296:Code\BOOT/boot.c **** 	}
 297:Code\BOOT/boot.c ****  	DBG_PRINTF("\nUpdateImage-->Update Flash Data Finish!\n");
 809              		.loc 1 297 0
 810 01b2 1F48     		ldr	r0, .L61+84
 811 01b4 FFF7FEFF 		bl	puts
 812              	.LVL96:
 298:Code\BOOT/boot.c **** 	
 299:Code\BOOT/boot.c **** 	//==== Image升级成功，置位开始重启 ====================================================
 300:Code\BOOT/boot.c **** 	Bootloader_SET_RUN_TYPE(Bootloader_SCHEDULE_BTLDB);
 813              		.loc 1 300 0
 814 01b8 8022     		movs	r2, #128
 815 01ba 1E4B     		ldr	r3, .L61+88
 301:Code\BOOT/boot.c ****     CySoftwareReset();
 302:Code\BOOT/boot.c **** 	
 303:Code\BOOT/boot.c **** 	return TRUE;
 816              		.loc 1 303 0
 817 01bc 0127     		movs	r7, #1
 300:Code\BOOT/boot.c ****     CySoftwareReset();
 818              		.loc 1 300 0
 819 01be 1A60     		str	r2, [r3]
 301:Code\BOOT/boot.c ****     CySoftwareReset();
 820              		.loc 1 301 0
 821 01c0 FFF7FEFF 		bl	CySoftwareReset
 822              	.LVL97:
 823              		.loc 1 303 0
 824 01c4 05E0     		b	.L53
 825              	.L55:
 292:Code\BOOT/boot.c **** 				return FALSE;
 826              		.loc 1 292 0
 827 01c6 FFF7FEFF 		bl	printf
 828              	.LVL98:
 293:Code\BOOT/boot.c **** 			}
 829              		.loc 1 293 0
 830 01ca 02E0     		b	.L53
 831              	.L60:
 832              	.LVL99:
 278:Code\BOOT/boot.c **** 	{
 833              		.loc 1 278 0
 834 01cc 0134     		adds	r4, r4, #1
 835              	.LVL100:
 836 01ce A4B2     		uxth	r4, r4
 837              	.LVL101:
 838 01d0 C2E7     		b	.L48
 839              	.LVL102:
 840              	.L53:
 304:Code\BOOT/boot.c **** }
 841              		.loc 1 304 0
ARM GAS  C:\Users\Administrator\AppData\Local\Temp\ccAR733f.s 			page 22


 842 01d2 3800     		movs	r0, r7
 843 01d4 D123     		movs	r3, #209
 844 01d6 9B00     		lsls	r3, r3, #2
 845 01d8 9D44     		add	sp, sp, r3
 846              		@ sp needed
 847 01da F0BD     		pop	{r4, r5, r6, r7, pc}
 848              	.L62:
 849              		.align	2
 850              	.L61:
 851 01dc BCFCFFFF 		.word	-836
 852 01e0 12020000 		.word	530
 853 01e4 00210300 		.word	205056
 854 01e8 00000000 		.word	.LC2
 855 01ec 00000000 		.word	.LANCHOR0
 856 01f0 33000000 		.word	.LC5
 857 01f4 53000000 		.word	.LC7
 858 01f8 0D020000 		.word	525
 859 01fc 62010000 		.word	.LC23
 860 0200 77000000 		.word	.LC9
 861 0204 0C210300 		.word	205068
 862 0208 0A020000 		.word	522
 863 020c 8D000000 		.word	.LC11
 864 0210 AD000000 		.word	.LC13
 865 0214 CD000000 		.word	.LC15
 866 0218 ED000000 		.word	.LC17
 867 021c 0D010000 		.word	.LC19
 868 0220 2D010000 		.word	.LC21
 869 0224 82010000 		.word	.LC25
 870 0228 AA010000 		.word	.LC27
 871 022c 08020000 		.word	.LC32
 872 0230 DF010000 		.word	.LC29
 873 0234 00000000 		.word	cyBtldrRunType
 874              		.cfi_endproc
 875              	.LFE41:
 876              		.size	UpdateImage, .-UpdateImage
 877              		.section	.text.LaunchApp,"ax",%progbits
 878              		.align	1
 879              		.global	LaunchApp
 880              		.code	16
 881              		.thumb_func
 882              		.type	LaunchApp, %function
 883              	LaunchApp:
 884              	.LFB42:
 305:Code\BOOT/boot.c **** 
 306:Code\BOOT/boot.c **** //*************************************************************************************************
 307:Code\BOOT/boot.c **** // Function name	: LaunchApp
 308:Code\BOOT/boot.c **** // Description		: 启动Bootloadable程序，即APP
 309:Code\BOOT/boot.c **** // Parameter		: none
 310:Code\BOOT/boot.c **** // Return			: none
 311:Code\BOOT/boot.c **** //-------------------------------------------------------------------------------------------------
 312:Code\BOOT/boot.c **** // Info				: 
 313:Code\BOOT/boot.c **** //*************************************************************************************************
 314:Code\BOOT/boot.c **** void LaunchApp(void)
 315:Code\BOOT/boot.c **** {
 885              		.loc 1 315 0
 886              		.cfi_startproc
 887              		@ args = 0, pretend = 0, frame = 0
ARM GAS  C:\Users\Administrator\AppData\Local\Temp\ccAR733f.s 			page 23


 888              		@ frame_needed = 0, uses_anonymous_args = 0
 889 0000 10B5     		push	{r4, lr}
 890              		.cfi_def_cfa_offset 8
 891              		.cfi_offset 4, -8
 892              		.cfi_offset 14, -4
 316:Code\BOOT/boot.c **** 	Bootloader_GetMetadata(Bootloader_GET_BTLDB_ADDR, 0);
 893              		.loc 1 316 0
 894 0002 0021     		movs	r1, #0
 895 0004 0220     		movs	r0, #2
 896 0006 FFF7FEFF 		bl	Bootloader_GetMetadata
 897              	.LVL103:
 317:Code\BOOT/boot.c ****     __asm volatile("    BX  R0\n");
 898              		.loc 1 317 0
 899              		.syntax divided
 900              	@ 317 "Code\BOOT\boot.c" 1
 901 000a 0047     		    BX  R0
 902              	
 903              	@ 0 "" 2
 318:Code\BOOT/boot.c **** }
 904              		.loc 1 318 0
 905              		.thumb
 906              		.syntax unified
 907              		@ sp needed
 908 000c 10BD     		pop	{r4, pc}
 909              		.cfi_endproc
 910              	.LFE42:
 911              		.size	LaunchApp, .-LaunchApp
 912              		.global	SILICONID
 913              		.section	.rodata
 914              		.set	.LANCHOR0,. + 0
 915              		.type	SILICONID, %object
 916              		.size	SILICONID, 4
 917              	SILICONID:
 918 0000 13       		.byte	19
 919 0001 27       		.byte	39
 920 0002 11       		.byte	17
 921 0003 A3       		.byte	-93
 922              		.section	.rodata.str1.1,"aMS",%progbits,1
 923              	.LC2:
 924 0000 0A557064 		.ascii	"\012UpdateImage-->CyBtldr_ParseHeader Error = 0x%02"
 924      61746549 
 924      6D616765 
 924      2D2D3E43 
 924      7942746C 
 925 0030 780A00   		.ascii	"x\012\000"
 926              	.LC5:
 927 0033 0A557064 		.ascii	"\012UpdateImage-->SiliconID Error.\000"
 927      61746549 
 927      6D616765 
 927      2D2D3E53 
 927      696C6963 
 928              	.LC7:
 929 0053 0A557064 		.ascii	"\012UpdateImage-->CheckSum Type Error.\000"
 929      61746549 
 929      6D616765 
 929      2D2D3E43 
 929      6865636B 
ARM GAS  C:\Users\Administrator\AppData\Local\Temp\ccAR733f.s 			page 24


 930              	.LC9:
 931 0077 55706461 		.ascii	"UpdateImage-->i=0x%x\012\000"
 931      7465496D 
 931      6167652D 
 931      2D3E693D 
 931      30782578 
 932              	.LC11:
 933 008d 55706461 		.ascii	"UpdateImage-->ChkSum  = 0x%02x\012\000"
 933      7465496D 
 933      6167652D 
 933      2D3E4368 
 933      6B53756D 
 934              	.LC13:
 935 00ad 55706461 		.ascii	"UpdateImage-->ArrayId = 0x%02x\012\000"
 935      7465496D 
 935      6167652D 
 935      2D3E4172 
 935      72617949 
 936              	.LC15:
 937 00cd 55706461 		.ascii	"UpdateImage-->RowNum  = 0x%04x\012\000"
 937      7465496D 
 937      6167652D 
 937      2D3E526F 
 937      774E756D 
 938              	.LC17:
 939 00ed 55706461 		.ascii	"UpdateImage-->DataLen = 0x%04x\012\000"
 939      7465496D 
 939      6167652D 
 939      2D3E4461 
 939      74614C65 
 940              	.LC19:
 941 010d 55706461 		.ascii	"UpdateImage-->CheckSum= 0x%02x\012\000"
 941      7465496D 
 941      6167652D 
 941      2D3E4368 
 941      65636B53 
 942              	.LC21:
 943 012d 0A557064 		.ascii	"\012UpdateImage-->CyBtldr_ParseRowData Error1 = 0x%"
 943      61746549 
 943      6D616765 
 943      2D2D3E43 
 943      7942746C 
 944 015d 3032780A 		.ascii	"02x\012\000"
 944      00
 945              	.LC23:
 946 0162 0A557064 		.ascii	"\012UpdateImage-->Check Sum Error.\000"
 946      61746549 
 946      6D616765 
 946      2D2D3E43 
 946      6865636B 
 947              	.LC25:
 948 0182 0A557064 		.ascii	"\012UpdateImage-->Update Flash Data Start!\000"
 948      61746549 
 948      6D616765 
 948      2D2D3E55 
 948      70646174 
 949              	.LC27:
ARM GAS  C:\Users\Administrator\AppData\Local\Temp\ccAR733f.s 			page 25


 950 01aa 0A557064 		.ascii	"\012UpdateImage-->CyBtldr_ParseRowData Error2 = 0x%"
 950      61746549 
 950      6D616765 
 950      2D2D3E43 
 950      7942746C 
 951 01da 3032780A 		.ascii	"02x\012\000"
 951      00
 952              	.LC29:
 953 01df 0A557064 		.ascii	"\012UpdateImage-->Update Flash Data Finish!\000"
 953      61746549 
 953      6D616765 
 953      2D2D3E55 
 953      70646174 
 954              	.LC32:
 955 0208 0A437953 		.ascii	"\012CySysFlashWriteRow Err = 0x%02x\012\000"
 955      7973466C 
 955      61736857 
 955      72697465 
 955      526F7720 
 956              		.text
 957              	.Letext0:
 958              		.file 2 "Generated_Source\\PSoC4/cytypes.h"
 959              		.file 3 "Generated_Source\\PSoC4/Bootloader.h"
 960              		.file 4 ".\\Code\\W25Qxx/w25qxx.h"
 961              		.file 5 "c:\\program files (x86)\\cypress\\psoc creator\\4.1\\psoc creator\\import\\gnu\\arm\\5.4.
 962              		.file 6 "c:\\program files (x86)\\cypress\\psoc creator\\4.1\\psoc creator\\import\\gnu\\arm\\5.4.
 963              		.file 7 "Generated_Source\\PSoC4/CyFlash.h"
 964              		.file 8 "Generated_Source\\PSoC4/CyLib.h"
 965              		.file 9 "Generated_Source\\PSoC4/BLE_Stack.h"
 966              		.file 10 "<built-in>"