ARM GAS  C:\Users\Administrator\AppData\Local\Temp\cc72lGlE.s 			page 1


   1              		.syntax unified
   2              		.cpu cortex-m0
   3              		.fpu softvfp
   4              		.eabi_attribute 20, 1
   5              		.eabi_attribute 21, 1
   6              		.eabi_attribute 23, 3
   7              		.eabi_attribute 24, 1
   8              		.eabi_attribute 25, 1
   9              		.eabi_attribute 26, 1
  10              		.eabi_attribute 30, 4
  11              		.eabi_attribute 34, 0
  12              		.eabi_attribute 18, 4
  13              		.thumb
  14              		.syntax unified
  15              		.file	"debug.c"
  16              		.text
  17              	.Ltext0:
  18              		.cfi_sections	.debug_frame
  19              		.section	.text._write,"ax",%progbits
  20              		.align	1
  21              		.global	_write
  22              		.code	16
  23              		.thumb_func
  24              		.type	_write, %function
  25              	_write:
  26              	.LFB36:
  27              		.file 1 "debug.c"
   1:debug.c       **** /*******************************************************************************
   2:debug.c       **** * File Name: Debug.c
   3:debug.c       **** *
   4:debug.c       **** * Version: 1.40
   5:debug.c       **** *
   6:debug.c       **** * Description:
   7:debug.c       **** *
   8:debug.c       **** * Hardware Dependency:
   9:debug.c       **** *  CY8CKIT-042 BLE
  10:debug.c       **** *
  11:debug.c       **** ********************************************************************************
  12:debug.c       **** * Copyright 2014-2015, Cypress Semiconductor Corporation. All rights reserved.
  13:debug.c       **** * This software is owned by Cypress Semiconductor Corporation and is protected
  14:debug.c       **** * by and subject to worldwide patent and copyright laws and treaties.
  15:debug.c       **** * Therefore, you may use this software only as provided in the license agreement
  16:debug.c       **** * accompanying the software package from which you obtained this software.
  17:debug.c       **** * CYPRESS AND ITS SUPPLIERS MAKE NO WARRANTY OF ANY KIND, EXPRESS OR IMPLIED,
  18:debug.c       **** * WITH REGARD TO THIS SOFTWARE, INCLUDING, BUT NOT LIMITED TO, NONINFRINGEMENT,
  19:debug.c       **** * IMPLIED WARRANTIES OF MERCHANTABILITY AND FITNESS FOR A PARTICULAR PURPOSE.
  20:debug.c       **** *******************************************************************************/
  21:debug.c       **** 
  22:debug.c       **** #include "cytypes.h"
  23:debug.c       **** #include "debug.h"
  24:debug.c       **** #include "project.h"
  25:debug.c       **** 
  26:debug.c       **** #if (DEBUG_UART_ENABLED == YES)
  27:debug.c       **** 
  28:debug.c       ****     #if defined(__ARMCC_VERSION)
  29:debug.c       **** 
  30:debug.c       ****         /* For MDK/RVDS compiler revise fputc() for the printf() */
ARM GAS  C:\Users\Administrator\AppData\Local\Temp\cc72lGlE.s 			page 2


  31:debug.c       ****         struct __FILE
  32:debug.c       ****         {
  33:debug.c       ****             int handle;
  34:debug.c       ****         };
  35:debug.c       **** 
  36:debug.c       ****         enum
  37:debug.c       ****         {
  38:debug.c       ****             STDIN_HANDLE,
  39:debug.c       ****             STDOUT_HANDLE,
  40:debug.c       ****             STDERR_HANDLE
  41:debug.c       ****         } ;
  42:debug.c       **** 
  43:debug.c       ****         FILE __stdin = {STDIN_HANDLE};
  44:debug.c       ****         FILE __stdout = {STDOUT_HANDLE};
  45:debug.c       ****         FILE __stderr = {STDERR_HANDLE};
  46:debug.c       **** 
  47:debug.c       ****         int fputc(int ch, FILE *file)
  48:debug.c       ****         {
  49:debug.c       ****             int ret = EOF;
  50:debug.c       **** 
  51:debug.c       ****             switch( file->handle )
  52:debug.c       ****             {
  53:debug.c       ****                 case STDOUT_HANDLE:
  54:debug.c       ****                     UART_PutChar(ch);
  55:debug.c       ****                     ret = ch ;
  56:debug.c       ****                     break ;
  57:debug.c       **** 
  58:debug.c       ****                 case STDERR_HANDLE:
  59:debug.c       ****                     ret = ch ;
  60:debug.c       ****                     break ;
  61:debug.c       **** 
  62:debug.c       ****                 default:
  63:debug.c       ****                     file = file;
  64:debug.c       ****                     break ;
  65:debug.c       ****             }
  66:debug.c       ****             return ret ;
  67:debug.c       ****         }
  68:debug.c       **** 
  69:debug.c       **** #elif defined (__ICCARM__)      /* IAR */
  70:debug.c       **** 
  71:debug.c       **** /* For IAR compiler revise __write() function for printf functionality */
  72:debug.c       **** size_t __write(int handle, const unsigned char * buffer, size_t size)
  73:debug.c       **** {
  74:debug.c       ****     size_t nChars = 0;
  75:debug.c       **** 
  76:debug.c       ****     if (buffer == 0)
  77:debug.c       ****     {
  78:debug.c       ****         /*
  79:debug.c       ****          * This means that we should flush internal buffers.  Since we
  80:debug.c       ****          * don't we just return.  (Remember, "handle" == -1 means that all
  81:debug.c       ****          * handles should be flushed.)
  82:debug.c       ****          */
  83:debug.c       ****         return (0);
  84:debug.c       ****     }
  85:debug.c       **** 
  86:debug.c       ****     for (/* Empty */; size != 0; --size)
  87:debug.c       ****     {
ARM GAS  C:\Users\Administrator\AppData\Local\Temp\cc72lGlE.s 			page 3


  88:debug.c       ****         UART_PutChar(*buffer++);
  89:debug.c       ****         ++nChars;
  90:debug.c       ****     }
  91:debug.c       **** 
  92:debug.c       ****     return (nChars);
  93:debug.c       **** }
  94:debug.c       **** 
  95:debug.c       **** #else  /* (__GNUC__)  GCC */
  96:debug.c       **** 
  97:debug.c       **** /* For GCC compiler revise _write() function for printf functionality */
  98:debug.c       ****         int _write(int file, char *ptr, int len)
  99:debug.c       ****         {
  28              		.loc 1 99 0
  29              		.cfi_startproc
  30              		@ args = 0, pretend = 0, frame = 0
  31              		@ frame_needed = 0, uses_anonymous_args = 0
  32              	.LVL0:
  33 0000 70B5     		push	{r4, r5, r6, lr}
  34              		.cfi_def_cfa_offset 16
  35              		.cfi_offset 4, -16
  36              		.cfi_offset 5, -12
  37              		.cfi_offset 6, -8
  38              		.cfi_offset 14, -4
  39              		.loc 1 99 0
  40 0002 0E00     		movs	r6, r1
  41 0004 1500     		movs	r5, r2
 100:debug.c       ****             int i;
 101:debug.c       ****             file = file;
 102:debug.c       ****             for (i = 0; i < len; i++)
  42              		.loc 1 102 0
  43 0006 0C00     		movs	r4, r1
  44              	.LVL1:
  45              	.L2:
  46              		.loc 1 102 0 is_stmt 0 discriminator 1
  47 0008 A31B     		subs	r3, r4, r6
  48 000a 9D42     		cmp	r5, r3
  49 000c 04DD     		ble	.L5
  50              	.LVL2:
 103:debug.c       ****             {
 104:debug.c       ****                 UART_PutChar(*ptr++);
  51              		.loc 1 104 0 is_stmt 1 discriminator 3
  52 000e 2078     		ldrb	r0, [r4]
  53 0010 FFF7FEFF 		bl	UART_PutChar
  54              	.LVL3:
  55 0014 0134     		adds	r4, r4, #1
  56              	.LVL4:
  57 0016 F7E7     		b	.L2
  58              	.L5:
 105:debug.c       ****             }
 106:debug.c       ****             return len;
 107:debug.c       ****         }
  59              		.loc 1 107 0
  60 0018 2800     		movs	r0, r5
  61              		@ sp needed
  62              	.LVL5:
  63              	.LVL6:
  64 001a 70BD     		pop	{r4, r5, r6, pc}
ARM GAS  C:\Users\Administrator\AppData\Local\Temp\cc72lGlE.s 			page 4


  65              		.cfi_endproc
  66              	.LFE36:
  67              		.size	_write, .-_write
  68              		.section	.text.Set32ByPtr,"ax",%progbits
  69              		.align	1
  70              		.global	Set32ByPtr
  71              		.code	16
  72              		.thumb_func
  73              		.type	Set32ByPtr, %function
  74              	Set32ByPtr:
  75              	.LFB37:
 108:debug.c       **** 
 109:debug.c       ****     #endif  /* (__ARMCC_VERSION) */
 110:debug.c       **** 
 111:debug.c       **** #endif /* (DEBUG_UART_ENABLED == YES) */
 112:debug.c       **** 
 113:debug.c       **** 
 114:debug.c       **** //*************************************************************************************************
 115:debug.c       **** // Function name	: Set32ByPtr
 116:debug.c       **** // Description		: 将32bit的数据转化为4个8bit的数据输出
 117:debug.c       **** // Parameter		: ptr
 118:debug.c       **** //					: value
 119:debug.c       **** // Return			: none
 120:debug.c       **** //-------------------------------------------------------------------------------------------------
 121:debug.c       **** // Info				: 
 122:debug.c       **** //*************************************************************************************************
 123:debug.c       **** void Set32ByPtr(uint8 ptr[], uint32 value)
 124:debug.c       **** {
  76              		.loc 1 124 0
  77              		.cfi_startproc
  78              		@ args = 0, pretend = 0, frame = 0
  79              		@ frame_needed = 0, uses_anonymous_args = 0
  80              		@ link register save eliminated.
  81              	.LVL7:
 125:debug.c       ****     ptr[0u] = (uint8) value;
 126:debug.c       ****     ptr[1u] = (uint8) (value >> 8u);
  82              		.loc 1 126 0
  83 0000 0B0A     		lsrs	r3, r1, #8
 125:debug.c       ****     ptr[0u] = (uint8) value;
  84              		.loc 1 125 0
  85 0002 0170     		strb	r1, [r0]
  86              		.loc 1 126 0
  87 0004 4370     		strb	r3, [r0, #1]
 127:debug.c       ****     ptr[2u] = (uint8) (value >> 16u);
  88              		.loc 1 127 0
  89 0006 0B0C     		lsrs	r3, r1, #16
 128:debug.c       ****     ptr[3u] = (uint8) (value >> 24u);
  90              		.loc 1 128 0
  91 0008 090E     		lsrs	r1, r1, #24
  92              	.LVL8:
 127:debug.c       ****     ptr[2u] = (uint8) (value >> 16u);
  93              		.loc 1 127 0
  94 000a 8370     		strb	r3, [r0, #2]
  95              		.loc 1 128 0
  96 000c C170     		strb	r1, [r0, #3]
 129:debug.c       **** }
  97              		.loc 1 129 0
ARM GAS  C:\Users\Administrator\AppData\Local\Temp\cc72lGlE.s 			page 5


  98              		@ sp needed
  99 000e 7047     		bx	lr
 100              		.cfi_endproc
 101              	.LFE37:
 102              		.size	Set32ByPtr, .-Set32ByPtr
 103              		.section	.text.DBG_SOFT_PrintfHex,"ax",%progbits
 104              		.align	1
 105              		.global	DBG_SOFT_PrintfHex
 106              		.code	16
 107              		.thumb_func
 108              		.type	DBG_SOFT_PrintfHex, %function
 109              	DBG_SOFT_PrintfHex:
 110              	.LFB38:
 130:debug.c       **** 
 131:debug.c       **** //*************************************************************************************************
 132:debug.c       **** // Function name	: DBG_SOFT_PrintfHex
 133:debug.c       **** // Description		: 打印指定长度的16进制数据
 134:debug.c       **** // Parameter		: mem
 135:debug.c       **** //					: size
 136:debug.c       **** // Return			: none
 137:debug.c       **** //-------------------------------------------------------------------------------------------------
 138:debug.c       **** // Info				: 
 139:debug.c       **** //*************************************************************************************************
 140:debug.c       **** void DBG_SOFT_PrintfHex(uint8 *mem, uint16 size)
 141:debug.c       **** {
 111              		.loc 1 141 0
 112              		.cfi_startproc
 113              		@ args = 0, pretend = 0, frame = 0
 114              		@ frame_needed = 0, uses_anonymous_args = 0
 115              	.LVL9:
 116 0000 F8B5     		push	{r3, r4, r5, r6, r7, lr}
 117              		.cfi_def_cfa_offset 24
 118              		.cfi_offset 3, -24
 119              		.cfi_offset 4, -20
 120              		.cfi_offset 5, -16
 121              		.cfi_offset 6, -12
 122              		.cfi_offset 7, -8
 123              		.cfi_offset 14, -4
 124              		.loc 1 141 0
 125 0002 0E00     		movs	r6, r1
 126 0004 0500     		movs	r5, r0
 142:debug.c       **** 	uint16 i = 0;
 127              		.loc 1 142 0
 128 0006 0024     		movs	r4, #0
 143:debug.c       **** 	mem = mem;
 144:debug.c       **** 	while(i < size) {
 145:debug.c       **** 		DBG_PRINTF("%.2x ", mem[i]);
 146:debug.c       **** 		i++;
 147:debug.c       **** 		if(i % 16 == 0)
 129              		.loc 1 147 0
 130 0008 0F27     		movs	r7, #15
 131              	.LVL10:
 132              	.L8:
 144:debug.c       **** 		DBG_PRINTF("%.2x ", mem[i]);
 133              		.loc 1 144 0
 134 000a B442     		cmp	r4, r6
 135 000c 0CD0     		beq	.L11
ARM GAS  C:\Users\Administrator\AppData\Local\Temp\cc72lGlE.s 			page 6


 146:debug.c       **** 		if(i % 16 == 0)
 136              		.loc 1 146 0
 137 000e 0134     		adds	r4, r4, #1
 138              	.LVL11:
 145:debug.c       **** 		i++;
 139              		.loc 1 145 0
 140 0010 2978     		ldrb	r1, [r5]
 141 0012 0748     		ldr	r0, .L12
 146:debug.c       **** 		if(i % 16 == 0)
 142              		.loc 1 146 0
 143 0014 A4B2     		uxth	r4, r4
 145:debug.c       **** 		i++;
 144              		.loc 1 145 0
 145 0016 FFF7FEFF 		bl	printf
 146              	.LVL12:
 147              		.loc 1 147 0
 148 001a 3C42     		tst	r4, r7
 149 001c 02D1     		bne	.L9
 148:debug.c       **** 			DBG_PRINTF("\n");
 150              		.loc 1 148 0
 151 001e 0A20     		movs	r0, #10
 152 0020 FFF7FEFF 		bl	putchar
 153              	.LVL13:
 154              	.L9:
 155 0024 0135     		adds	r5, r5, #1
 156 0026 F0E7     		b	.L8
 157              	.L11:
 149:debug.c       **** 	}
 150:debug.c       **** 	DBG_PRINTF("\n");
 158              		.loc 1 150 0
 159 0028 0A20     		movs	r0, #10
 160 002a FFF7FEFF 		bl	putchar
 161              	.LVL14:
 151:debug.c       **** }
 162              		.loc 1 151 0
 163              		@ sp needed
 164              	.LVL15:
 165 002e F8BD     		pop	{r3, r4, r5, r6, r7, pc}
 166              	.L13:
 167              		.align	2
 168              	.L12:
 169 0030 00000000 		.word	.LC2
 170              		.cfi_endproc
 171              	.LFE38:
 172              		.size	DBG_SOFT_PrintfHex, .-DBG_SOFT_PrintfHex
 173              		.section	.rodata.str1.1,"aMS",%progbits,1
 174              	.LC2:
 175 0000 252E3278 		.ascii	"%.2x \000"
 175      2000
 176              		.text
 177              	.Letext0:
 178              		.file 2 "Generated_Source\\PSoC4/cytypes.h"
 179              		.file 3 "Generated_Source\\PSoC4/UART.h"
 180              		.file 4 "c:\\program files (x86)\\cypress\\psoc creator\\4.1\\psoc creator\\import\\gnu\\arm\\5.4.
 181              		.file 5 "<built-in>"