ARM GAS  C:\Users\Administrator\AppData\Local\Temp\ccAZMG3P.s 			page 1


   1              		.syntax unified
   2              		.cpu cortex-m0
   3              		.fpu softvfp
   4              		.eabi_attribute 20, 1
   5              		.eabi_attribute 21, 1
   6              		.eabi_attribute 23, 3
   7              		.eabi_attribute 24, 1
   8              		.eabi_attribute 25, 1
   9              		.eabi_attribute 26, 1
  10              		.eabi_attribute 30, 4
  11              		.eabi_attribute 34, 0
  12              		.eabi_attribute 18, 4
  13              		.thumb
  14              		.syntax unified
  15              		.file	"aes.c"
  16              		.text
  17              	.Ltext0:
  18              		.cfi_sections	.debug_frame
  19              		.section	.text.KeyExpansion,"ax",%progbits
  20              		.align	1
  21              		.code	16
  22              		.thumb_func
  23              		.type	KeyExpansion, %function
  24              	KeyExpansion:
  25              	.LFB65:
  26              		.file 1 "Code\\Common\\crypt\\aes.c"
   1:Code\Common\crypt/aes.c **** /*
   2:Code\Common\crypt/aes.c **** 
   3:Code\Common\crypt/aes.c **** This is an implementation of the AES128 algorithm, specifically ECB.
   4:Code\Common\crypt/aes.c **** 
   5:Code\Common\crypt/aes.c **** The implementation is verified against the test vectors in:
   6:Code\Common\crypt/aes.c ****   National Institute of Standards and Technology Special Publication 800-38A 2001 ED
   7:Code\Common\crypt/aes.c **** 
   8:Code\Common\crypt/aes.c **** ECB-AES128
   9:Code\Common\crypt/aes.c **** ----------
  10:Code\Common\crypt/aes.c **** 
  11:Code\Common\crypt/aes.c ****   plain-text:
  12:Code\Common\crypt/aes.c ****     6bc1bee22e409f96e93d7e117393172a
  13:Code\Common\crypt/aes.c ****     ae2d8a571e03ac9c9eb76fac45af8e51
  14:Code\Common\crypt/aes.c ****     30c81c46a35ce411e5fbc1191a0a52ef
  15:Code\Common\crypt/aes.c ****     f69f2445df4f9b17ad2b417be66c3710
  16:Code\Common\crypt/aes.c **** 
  17:Code\Common\crypt/aes.c ****   key:
  18:Code\Common\crypt/aes.c ****     2b7e151628aed2a6abf7158809cf4f3c
  19:Code\Common\crypt/aes.c **** 
  20:Code\Common\crypt/aes.c ****   resulting cipher
  21:Code\Common\crypt/aes.c ****     3ad77bb40d7a3660a89ecaf32466ef97 
  22:Code\Common\crypt/aes.c ****     f5d3d58503b9699de785895a96fdbaaf 
  23:Code\Common\crypt/aes.c ****     43b1cd7f598ece23881b00e3ed030688 
  24:Code\Common\crypt/aes.c ****     7b0c785e27e8ad3f8223207104725dd4 
  25:Code\Common\crypt/aes.c **** 
  26:Code\Common\crypt/aes.c **** 
  27:Code\Common\crypt/aes.c **** NOTE:   String length must be evenly divisible by 16byte (str_len % 16 == 0)
  28:Code\Common\crypt/aes.c ****         You should pad the end of the string with zeros if this is not the case.
  29:Code\Common\crypt/aes.c **** 
  30:Code\Common\crypt/aes.c **** */
  31:Code\Common\crypt/aes.c **** 
ARM GAS  C:\Users\Administrator\AppData\Local\Temp\ccAZMG3P.s 			page 2


  32:Code\Common\crypt/aes.c **** 
  33:Code\Common\crypt/aes.c **** /*****************************************************************************/
  34:Code\Common\crypt/aes.c **** /* Includes:                                                                 */
  35:Code\Common\crypt/aes.c **** /*****************************************************************************/
  36:Code\Common\crypt/aes.c **** //#include "aes.h"
  37:Code\Common\crypt/aes.c **** #include <string.h>
  38:Code\Common\crypt/aes.c **** #include <project.h>
  39:Code\Common\crypt/aes.c **** #include "common.h"
  40:Code\Common\crypt/aes.c **** 
  41:Code\Common\crypt/aes.c **** 
  42:Code\Common\crypt/aes.c **** /*****************************************************************************/
  43:Code\Common\crypt/aes.c **** /* Defines:                                                                  */
  44:Code\Common\crypt/aes.c **** /*****************************************************************************/
  45:Code\Common\crypt/aes.c **** // The number of columns comprising a state in AES. This is a constant in AES. Value=4
  46:Code\Common\crypt/aes.c **** #define Nb 		4
  47:Code\Common\crypt/aes.c **** // The number of 32 bit words in a key.
  48:Code\Common\crypt/aes.c **** #define Nk 		4
  49:Code\Common\crypt/aes.c **** // Key length in bytes [128 bit]
  50:Code\Common\crypt/aes.c **** #define KEYLEN 	16
  51:Code\Common\crypt/aes.c **** // The number of rounds in AES Cipher.
  52:Code\Common\crypt/aes.c **** #define Nr 		10
  53:Code\Common\crypt/aes.c **** 
  54:Code\Common\crypt/aes.c **** // jcallan@github points out that declaring Multiply as a function 
  55:Code\Common\crypt/aes.c **** // reduces code size considerably with the Keil ARM compiler.
  56:Code\Common\crypt/aes.c **** // See this link for more information: https://github.com/kokke/tiny-AES128-C/pull/3
  57:Code\Common\crypt/aes.c **** #ifndef MULTIPLY_AS_A_FUNCTION
  58:Code\Common\crypt/aes.c ****   #define MULTIPLY_AS_A_FUNCTION 0
  59:Code\Common\crypt/aes.c **** #endif
  60:Code\Common\crypt/aes.c **** 
  61:Code\Common\crypt/aes.c **** 
  62:Code\Common\crypt/aes.c **** /*****************************************************************************/
  63:Code\Common\crypt/aes.c **** /* Private variables:                                                        */
  64:Code\Common\crypt/aes.c **** /*****************************************************************************/
  65:Code\Common\crypt/aes.c **** // state - array holding the intermediate results during decryption.
  66:Code\Common\crypt/aes.c **** typedef uint8_t state_t[4][4];
  67:Code\Common\crypt/aes.c **** static state_t* state;
  68:Code\Common\crypt/aes.c **** 
  69:Code\Common\crypt/aes.c **** // The array that stores the round keys.
  70:Code\Common\crypt/aes.c **** static uint8_t RoundKey[176];
  71:Code\Common\crypt/aes.c **** 
  72:Code\Common\crypt/aes.c **** // The Key input to the AES Program
  73:Code\Common\crypt/aes.c **** static const uint8_t* Key;
  74:Code\Common\crypt/aes.c **** 
  75:Code\Common\crypt/aes.c **** // The lookup-tables are marked const so they can be placed in read-only storage instead of RAM
  76:Code\Common\crypt/aes.c **** // The numbers below can be computed dynamically trading ROM for RAM - 
  77:Code\Common\crypt/aes.c **** // This can be useful in (embedded) bootloader applications, where ROM is often limited.
  78:Code\Common\crypt/aes.c **** static const uint8_t sbox[256] =   {
  79:Code\Common\crypt/aes.c ****   //0     1    2      3     4    5     6     7      8    9     A      B    C     D     E     F
  80:Code\Common\crypt/aes.c ****   0x63, 0x7c, 0x77, 0x7b, 0xf2, 0x6b, 0x6f, 0xc5, 0x30, 0x01, 0x67, 0x2b, 0xfe, 0xd7, 0xab, 0x76,
  81:Code\Common\crypt/aes.c ****   0xca, 0x82, 0xc9, 0x7d, 0xfa, 0x59, 0x47, 0xf0, 0xad, 0xd4, 0xa2, 0xaf, 0x9c, 0xa4, 0x72, 0xc0,
  82:Code\Common\crypt/aes.c ****   0xb7, 0xfd, 0x93, 0x26, 0x36, 0x3f, 0xf7, 0xcc, 0x34, 0xa5, 0xe5, 0xf1, 0x71, 0xd8, 0x31, 0x15,
  83:Code\Common\crypt/aes.c ****   0x04, 0xc7, 0x23, 0xc3, 0x18, 0x96, 0x05, 0x9a, 0x07, 0x12, 0x80, 0xe2, 0xeb, 0x27, 0xb2, 0x75,
  84:Code\Common\crypt/aes.c ****   0x09, 0x83, 0x2c, 0x1a, 0x1b, 0x6e, 0x5a, 0xa0, 0x52, 0x3b, 0xd6, 0xb3, 0x29, 0xe3, 0x2f, 0x84,
  85:Code\Common\crypt/aes.c ****   0x53, 0xd1, 0x00, 0xed, 0x20, 0xfc, 0xb1, 0x5b, 0x6a, 0xcb, 0xbe, 0x39, 0x4a, 0x4c, 0x58, 0xcf,
  86:Code\Common\crypt/aes.c ****   0xd0, 0xef, 0xaa, 0xfb, 0x43, 0x4d, 0x33, 0x85, 0x45, 0xf9, 0x02, 0x7f, 0x50, 0x3c, 0x9f, 0xa8,
  87:Code\Common\crypt/aes.c ****   0x51, 0xa3, 0x40, 0x8f, 0x92, 0x9d, 0x38, 0xf5, 0xbc, 0xb6, 0xda, 0x21, 0x10, 0xff, 0xf3, 0xd2,
  88:Code\Common\crypt/aes.c ****   0xcd, 0x0c, 0x13, 0xec, 0x5f, 0x97, 0x44, 0x17, 0xc4, 0xa7, 0x7e, 0x3d, 0x64, 0x5d, 0x19, 0x73,
ARM GAS  C:\Users\Administrator\AppData\Local\Temp\ccAZMG3P.s 			page 3


  89:Code\Common\crypt/aes.c ****   0x60, 0x81, 0x4f, 0xdc, 0x22, 0x2a, 0x90, 0x88, 0x46, 0xee, 0xb8, 0x14, 0xde, 0x5e, 0x0b, 0xdb,
  90:Code\Common\crypt/aes.c ****   0xe0, 0x32, 0x3a, 0x0a, 0x49, 0x06, 0x24, 0x5c, 0xc2, 0xd3, 0xac, 0x62, 0x91, 0x95, 0xe4, 0x79,
  91:Code\Common\crypt/aes.c ****   0xe7, 0xc8, 0x37, 0x6d, 0x8d, 0xd5, 0x4e, 0xa9, 0x6c, 0x56, 0xf4, 0xea, 0x65, 0x7a, 0xae, 0x08,
  92:Code\Common\crypt/aes.c ****   0xba, 0x78, 0x25, 0x2e, 0x1c, 0xa6, 0xb4, 0xc6, 0xe8, 0xdd, 0x74, 0x1f, 0x4b, 0xbd, 0x8b, 0x8a,
  93:Code\Common\crypt/aes.c ****   0x70, 0x3e, 0xb5, 0x66, 0x48, 0x03, 0xf6, 0x0e, 0x61, 0x35, 0x57, 0xb9, 0x86, 0xc1, 0x1d, 0x9e,
  94:Code\Common\crypt/aes.c ****   0xe1, 0xf8, 0x98, 0x11, 0x69, 0xd9, 0x8e, 0x94, 0x9b, 0x1e, 0x87, 0xe9, 0xce, 0x55, 0x28, 0xdf,
  95:Code\Common\crypt/aes.c ****   0x8c, 0xa1, 0x89, 0x0d, 0xbf, 0xe6, 0x42, 0x68, 0x41, 0x99, 0x2d, 0x0f, 0xb0, 0x54, 0xbb, 0x16 };
  96:Code\Common\crypt/aes.c **** 
  97:Code\Common\crypt/aes.c **** static const uint8_t rsbox[256] =
  98:Code\Common\crypt/aes.c **** { 0x52, 0x09, 0x6a, 0xd5, 0x30, 0x36, 0xa5, 0x38, 0xbf, 0x40, 0xa3, 0x9e, 0x81, 0xf3, 0xd7, 0xfb,
  99:Code\Common\crypt/aes.c ****   0x7c, 0xe3, 0x39, 0x82, 0x9b, 0x2f, 0xff, 0x87, 0x34, 0x8e, 0x43, 0x44, 0xc4, 0xde, 0xe9, 0xcb,
 100:Code\Common\crypt/aes.c ****   0x54, 0x7b, 0x94, 0x32, 0xa6, 0xc2, 0x23, 0x3d, 0xee, 0x4c, 0x95, 0x0b, 0x42, 0xfa, 0xc3, 0x4e,
 101:Code\Common\crypt/aes.c ****   0x08, 0x2e, 0xa1, 0x66, 0x28, 0xd9, 0x24, 0xb2, 0x76, 0x5b, 0xa2, 0x49, 0x6d, 0x8b, 0xd1, 0x25,
 102:Code\Common\crypt/aes.c ****   0x72, 0xf8, 0xf6, 0x64, 0x86, 0x68, 0x98, 0x16, 0xd4, 0xa4, 0x5c, 0xcc, 0x5d, 0x65, 0xb6, 0x92,
 103:Code\Common\crypt/aes.c ****   0x6c, 0x70, 0x48, 0x50, 0xfd, 0xed, 0xb9, 0xda, 0x5e, 0x15, 0x46, 0x57, 0xa7, 0x8d, 0x9d, 0x84,
 104:Code\Common\crypt/aes.c ****   0x90, 0xd8, 0xab, 0x00, 0x8c, 0xbc, 0xd3, 0x0a, 0xf7, 0xe4, 0x58, 0x05, 0xb8, 0xb3, 0x45, 0x06,
 105:Code\Common\crypt/aes.c ****   0xd0, 0x2c, 0x1e, 0x8f, 0xca, 0x3f, 0x0f, 0x02, 0xc1, 0xaf, 0xbd, 0x03, 0x01, 0x13, 0x8a, 0x6b,
 106:Code\Common\crypt/aes.c ****   0x3a, 0x91, 0x11, 0x41, 0x4f, 0x67, 0xdc, 0xea, 0x97, 0xf2, 0xcf, 0xce, 0xf0, 0xb4, 0xe6, 0x73,
 107:Code\Common\crypt/aes.c ****   0x96, 0xac, 0x74, 0x22, 0xe7, 0xad, 0x35, 0x85, 0xe2, 0xf9, 0x37, 0xe8, 0x1c, 0x75, 0xdf, 0x6e,
 108:Code\Common\crypt/aes.c ****   0x47, 0xf1, 0x1a, 0x71, 0x1d, 0x29, 0xc5, 0x89, 0x6f, 0xb7, 0x62, 0x0e, 0xaa, 0x18, 0xbe, 0x1b,
 109:Code\Common\crypt/aes.c ****   0xfc, 0x56, 0x3e, 0x4b, 0xc6, 0xd2, 0x79, 0x20, 0x9a, 0xdb, 0xc0, 0xfe, 0x78, 0xcd, 0x5a, 0xf4,
 110:Code\Common\crypt/aes.c ****   0x1f, 0xdd, 0xa8, 0x33, 0x88, 0x07, 0xc7, 0x31, 0xb1, 0x12, 0x10, 0x59, 0x27, 0x80, 0xec, 0x5f,
 111:Code\Common\crypt/aes.c ****   0x60, 0x51, 0x7f, 0xa9, 0x19, 0xb5, 0x4a, 0x0d, 0x2d, 0xe5, 0x7a, 0x9f, 0x93, 0xc9, 0x9c, 0xef,
 112:Code\Common\crypt/aes.c ****   0xa0, 0xe0, 0x3b, 0x4d, 0xae, 0x2a, 0xf5, 0xb0, 0xc8, 0xeb, 0xbb, 0x3c, 0x83, 0x53, 0x99, 0x61,
 113:Code\Common\crypt/aes.c ****   0x17, 0x2b, 0x04, 0x7e, 0xba, 0x77, 0xd6, 0x26, 0xe1, 0x69, 0x14, 0x63, 0x55, 0x21, 0x0c, 0x7d };
 114:Code\Common\crypt/aes.c **** 
 115:Code\Common\crypt/aes.c **** 
 116:Code\Common\crypt/aes.c **** // The round constant word array, Rcon[i], contains the values given by 
 117:Code\Common\crypt/aes.c **** // x to th e power (i-1) being powers of x (x is denoted as {02}) in the field GF(2^8)
 118:Code\Common\crypt/aes.c **** // Note that i starts at 1, not 0).
 119:Code\Common\crypt/aes.c **** #if 0
 120:Code\Common\crypt/aes.c **** static const uint8_t Rcon[255] = {
 121:Code\Common\crypt/aes.c ****   0x8d, 0x01, 0x02, 0x04, 0x08, 0x10, 0x20, 0x40, 0x80, 0x1b, 0x36, 0x6c, 0xd8, 0xab, 0x4d, 0x9a, 
 122:Code\Common\crypt/aes.c ****   0x2f, 0x5e, 0xbc, 0x63, 0xc6, 0x97, 0x35, 0x6a, 0xd4, 0xb3, 0x7d, 0xfa, 0xef, 0xc5, 0x91, 0x39, 
 123:Code\Common\crypt/aes.c ****   0x72, 0xe4, 0xd3, 0xbd, 0x61, 0xc2, 0x9f, 0x25, 0x4a, 0x94, 0x33, 0x66, 0xcc, 0x83, 0x1d, 0x3a, 
 124:Code\Common\crypt/aes.c ****   0x74, 0xe8, 0xcb, 0x8d, 0x01, 0x02, 0x04, 0x08, 0x10, 0x20, 0x40, 0x80, 0x1b, 0x36, 0x6c, 0xd8, 
 125:Code\Common\crypt/aes.c ****   0xab, 0x4d, 0x9a, 0x2f, 0x5e, 0xbc, 0x63, 0xc6, 0x97, 0x35, 0x6a, 0xd4, 0xb3, 0x7d, 0xfa, 0xef, 
 126:Code\Common\crypt/aes.c ****   0xc5, 0x91, 0x39, 0x72, 0xe4, 0xd3, 0xbd, 0x61, 0xc2, 0x9f, 0x25, 0x4a, 0x94, 0x33, 0x66, 0xcc, 
 127:Code\Common\crypt/aes.c ****   0x83, 0x1d, 0x3a, 0x74, 0xe8, 0xcb, 0x8d, 0x01, 0x02, 0x04, 0x08, 0x10, 0x20, 0x40, 0x80, 0x1b, 
 128:Code\Common\crypt/aes.c ****   0x36, 0x6c, 0xd8, 0xab, 0x4d, 0x9a, 0x2f, 0x5e, 0xbc, 0x63, 0xc6, 0x97, 0x35, 0x6a, 0xd4, 0xb3, 
 129:Code\Common\crypt/aes.c ****   0x7d, 0xfa, 0xef, 0xc5, 0x91, 0x39, 0x72, 0xe4, 0xd3, 0xbd, 0x61, 0xc2, 0x9f, 0x25, 0x4a, 0x94, 
 130:Code\Common\crypt/aes.c ****   0x33, 0x66, 0xcc, 0x83, 0x1d, 0x3a, 0x74, 0xe8, 0xcb, 0x8d, 0x01, 0x02, 0x04, 0x08, 0x10, 0x20, 
 131:Code\Common\crypt/aes.c ****   0x40, 0x80, 0x1b, 0x36, 0x6c, 0xd8, 0xab, 0x4d, 0x9a, 0x2f, 0x5e, 0xbc, 0x63, 0xc6, 0x97, 0x35, 
 132:Code\Common\crypt/aes.c ****   0x6a, 0xd4, 0xb3, 0x7d, 0xfa, 0xef, 0xc5, 0x91, 0x39, 0x72, 0xe4, 0xd3, 0xbd, 0x61, 0xc2, 0x9f, 
 133:Code\Common\crypt/aes.c ****   0x25, 0x4a, 0x94, 0x33, 0x66, 0xcc, 0x83, 0x1d, 0x3a, 0x74, 0xe8, 0xcb, 0x8d, 0x01, 0x02, 0x04, 
 134:Code\Common\crypt/aes.c ****   0x08, 0x10, 0x20, 0x40, 0x80, 0x1b, 0x36, 0x6c, 0xd8, 0xab, 0x4d, 0x9a, 0x2f, 0x5e, 0xbc, 0x63, 
 135:Code\Common\crypt/aes.c ****   0xc6, 0x97, 0x35, 0x6a, 0xd4, 0xb3, 0x7d, 0xfa, 0xef, 0xc5, 0x91, 0x39, 0x72, 0xe4, 0xd3, 0xbd, 
 136:Code\Common\crypt/aes.c ****   0x61, 0xc2, 0x9f, 0x25, 0x4a, 0x94, 0x33, 0x66, 0xcc, 0x83, 0x1d, 0x3a, 0x74, 0xe8, 0xcb  
 137:Code\Common\crypt/aes.c **** };
 138:Code\Common\crypt/aes.c **** #endif
 139:Code\Common\crypt/aes.c **** 
 140:Code\Common\crypt/aes.c **** #if 1
 141:Code\Common\crypt/aes.c **** static const uint8 Rcon[16] =     
 142:Code\Common\crypt/aes.c **** { 0xef, 0x3a, 0x19,  0x3d, 0xca, 0x0b, 0x36, 0x89, 0xa8, 0x61, 0xf6, 0x6c, 0xd8, 0xab, 0x4d, 0x9a};
 143:Code\Common\crypt/aes.c **** #endif
 144:Code\Common\crypt/aes.c **** 
 145:Code\Common\crypt/aes.c **** 
ARM GAS  C:\Users\Administrator\AppData\Local\Temp\ccAZMG3P.s 			page 4


 146:Code\Common\crypt/aes.c **** /*****************************************************************************/
 147:Code\Common\crypt/aes.c **** /* Private functions:                                                        */
 148:Code\Common\crypt/aes.c **** /*****************************************************************************/
 149:Code\Common\crypt/aes.c **** static uint8_t getSBoxValue(uint8_t num)
 150:Code\Common\crypt/aes.c **** {
 151:Code\Common\crypt/aes.c ****   return sbox[num];
 152:Code\Common\crypt/aes.c **** }
 153:Code\Common\crypt/aes.c **** 
 154:Code\Common\crypt/aes.c **** static uint8_t getSBoxInvert(uint8_t num)
 155:Code\Common\crypt/aes.c **** {
 156:Code\Common\crypt/aes.c ****   return rsbox[num];
 157:Code\Common\crypt/aes.c **** }
 158:Code\Common\crypt/aes.c **** 
 159:Code\Common\crypt/aes.c **** // This function produces Nb(Nr+1) round keys. The round keys are used in each round to decrypt the
 160:Code\Common\crypt/aes.c **** static void KeyExpansion(void)
 161:Code\Common\crypt/aes.c **** {
  27              		.loc 1 161 0
  28              		.cfi_startproc
  29              		@ args = 0, pretend = 0, frame = 8
  30              		@ frame_needed = 0, uses_anonymous_args = 0
  31              	.LVL0:
 162:Code\Common\crypt/aes.c ****   uint32_t i, j, k;
 163:Code\Common\crypt/aes.c ****   uint8_t tempa[4]; // Used for the column/row operations
 164:Code\Common\crypt/aes.c ****   
 165:Code\Common\crypt/aes.c ****   // The first round key is the key itself.
 166:Code\Common\crypt/aes.c ****   for (i = 0; i < Nk; ++i)
 167:Code\Common\crypt/aes.c ****   {
 168:Code\Common\crypt/aes.c ****     RoundKey[(i * 4) + 0] = Key[(i * 4) + 0];
  32              		.loc 1 168 0
  33 0000 234B     		ldr	r3, .L10
 161:Code\Common\crypt/aes.c ****   uint32_t i, j, k;
  34              		.loc 1 161 0
  35 0002 F7B5     		push	{r0, r1, r2, r4, r5, r6, r7, lr}
  36              		.cfi_def_cfa_offset 32
  37              		.cfi_offset 0, -32
  38              		.cfi_offset 1, -28
  39              		.cfi_offset 2, -24
  40              		.cfi_offset 4, -20
  41              		.cfi_offset 5, -16
  42              		.cfi_offset 6, -12
  43              		.cfi_offset 7, -8
  44              		.cfi_offset 14, -4
  45              		.loc 1 168 0
  46 0004 1A68     		ldr	r2, [r3]
  47 0006 0533     		adds	r3, r3, #5
  48 0008 1000     		movs	r0, r2
  49 000a 1900     		movs	r1, r3
  50 000c 1030     		adds	r0, r0, #16
  51              	.LVL1:
  52              	.L2:
  53              		.loc 1 168 0 is_stmt 0 discriminator 3
  54 000e 1578     		ldrb	r5, [r2]
  55 0010 4C1E     		subs	r4, r1, #1
  56 0012 2570     		strb	r5, [r4]
 169:Code\Common\crypt/aes.c ****     RoundKey[(i * 4) + 1] = Key[(i * 4) + 1];
  57              		.loc 1 169 0 is_stmt 1 discriminator 3
  58 0014 5478     		ldrb	r4, [r2, #1]
ARM GAS  C:\Users\Administrator\AppData\Local\Temp\ccAZMG3P.s 			page 5


  59 0016 0C70     		strb	r4, [r1]
 170:Code\Common\crypt/aes.c ****     RoundKey[(i * 4) + 2] = Key[(i * 4) + 2];
  60              		.loc 1 170 0 discriminator 3
  61 0018 9478     		ldrb	r4, [r2, #2]
  62 001a 4C70     		strb	r4, [r1, #1]
 171:Code\Common\crypt/aes.c ****     RoundKey[(i * 4) + 3] = Key[(i * 4) + 3];
  63              		.loc 1 171 0 discriminator 3
  64 001c D478     		ldrb	r4, [r2, #3]
  65 001e 0432     		adds	r2, r2, #4
  66 0020 8C70     		strb	r4, [r1, #2]
  67 0022 0431     		adds	r1, r1, #4
 166:Code\Common\crypt/aes.c ****   {
  68              		.loc 1 166 0 discriminator 3
  69 0024 8242     		cmp	r2, r0
  70 0026 F2D1     		bne	.L2
  71 0028 0421     		movs	r1, #4
  72              	.LBB14:
  73              	.LBB15:
 151:Code\Common\crypt/aes.c **** }
  74              		.loc 1 151 0
  75 002a 1A48     		ldr	r0, .L10+4
  76              	.LBE15:
  77              	.LBE14:
 172:Code\Common\crypt/aes.c ****   }
 173:Code\Common\crypt/aes.c **** 
 174:Code\Common\crypt/aes.c ****   // All other round keys are found from the previous round keys.
 175:Code\Common\crypt/aes.c ****   for (; (i < (Nb * (Nr + 1))); ++i)
 176:Code\Common\crypt/aes.c ****   {
 177:Code\Common\crypt/aes.c ****     for (j = 0; j < 4; ++j)
 178:Code\Common\crypt/aes.c ****     {
 179:Code\Common\crypt/aes.c ****       tempa[j] = RoundKey[(i-1) * 4 + j];
  78              		.loc 1 179 0
  79 002c 01AA     		add	r2, sp, #4
  80              	.L3:
  81              	.LVL2:
  82 002e 1E00     		movs	r6, r3
 168:Code\Common\crypt/aes.c ****     RoundKey[(i * 4) + 1] = Key[(i * 4) + 1];
  83              		.loc 1 168 0
  84 0030 0025     		movs	r5, #0
  85              		.loc 1 179 0
  86 0032 0B36     		adds	r6, r6, #11
  87              	.LVL3:
  88              	.L4:
  89              		.loc 1 179 0 is_stmt 0 discriminator 3
  90 0034 775D     		ldrb	r7, [r6, r5]
  91 0036 AF54     		strb	r7, [r5, r2]
 177:Code\Common\crypt/aes.c ****     {
  92              		.loc 1 177 0 is_stmt 1 discriminator 3
  93 0038 0135     		adds	r5, r5, #1
  94              	.LVL4:
  95 003a 042D     		cmp	r5, #4
  96 003c FAD1     		bne	.L4
 180:Code\Common\crypt/aes.c ****     }
 181:Code\Common\crypt/aes.c ****     if (i % Nk == 0)
  97              		.loc 1 181 0
  98 003e 013D     		subs	r5, r5, #1
  99              	.LVL5:
ARM GAS  C:\Users\Administrator\AppData\Local\Temp\ccAZMG3P.s 			page 6


 100 0040 2942     		tst	r1, r5
 101 0042 0FD1     		bne	.L5
 102              	.LBB18:
 103              	.LBB19:
 151:Code\Common\crypt/aes.c **** }
 104              		.loc 1 151 0
 105 0044 9478     		ldrb	r4, [r2, #2]
 106              	.LBE19:
 107              	.LBE18:
 182:Code\Common\crypt/aes.c ****     {
 183:Code\Common\crypt/aes.c ****       // This function rotates the 4 bytes in a word to the left once.
 184:Code\Common\crypt/aes.c ****       // [a0,a1,a2,a3] becomes [a1,a2,a3,a0]
 185:Code\Common\crypt/aes.c **** 
 186:Code\Common\crypt/aes.c ****       // Function RotWord()
 187:Code\Common\crypt/aes.c ****       {
 188:Code\Common\crypt/aes.c ****         k = tempa[0];
 108              		.loc 1 188 0
 109 0046 1678     		ldrb	r6, [r2]
 110              	.LVL6:
 189:Code\Common\crypt/aes.c ****         tempa[0] = tempa[1];
 190:Code\Common\crypt/aes.c ****         tempa[1] = tempa[2];
 191:Code\Common\crypt/aes.c ****         tempa[2] = tempa[3];
 192:Code\Common\crypt/aes.c ****         tempa[3] = k;
 193:Code\Common\crypt/aes.c ****       }
 194:Code\Common\crypt/aes.c **** 
 195:Code\Common\crypt/aes.c ****       // SubWord() is a function that takes a four-byte input word and 
 196:Code\Common\crypt/aes.c ****       // applies the S-box to each of the four bytes to produce an output word.
 197:Code\Common\crypt/aes.c **** 
 198:Code\Common\crypt/aes.c ****       // Function Subword()
 199:Code\Common\crypt/aes.c ****       {
 200:Code\Common\crypt/aes.c ****         tempa[0] = getSBoxValue(tempa[0]);
 201:Code\Common\crypt/aes.c ****         tempa[1] = getSBoxValue(tempa[1]);
 111              		.loc 1 201 0
 112 0048 045D     		ldrb	r4, [r0, r4]
 202:Code\Common\crypt/aes.c ****         tempa[2] = getSBoxValue(tempa[2]);
 203:Code\Common\crypt/aes.c ****         tempa[3] = getSBoxValue(tempa[3]);
 113              		.loc 1 203 0
 114 004a 865D     		ldrb	r6, [r0, r6]
 115              	.LVL7:
 116              	.LBB20:
 117              	.LBB16:
 151:Code\Common\crypt/aes.c **** }
 118              		.loc 1 151 0
 119 004c 5578     		ldrb	r5, [r2, #1]
 120              	.LVL8:
 121              	.LBE16:
 122              	.LBE20:
 201:Code\Common\crypt/aes.c ****         tempa[2] = getSBoxValue(tempa[2]);
 123              		.loc 1 201 0
 124 004e 5470     		strb	r4, [r2, #1]
 204:Code\Common\crypt/aes.c ****       }
 205:Code\Common\crypt/aes.c **** 
 206:Code\Common\crypt/aes.c ****       tempa[0] =  tempa[0] ^ Rcon[i/Nk];
 125              		.loc 1 206 0
 126 0050 114C     		ldr	r4, .L10+8
 191:Code\Common\crypt/aes.c ****         tempa[3] = k;
 127              		.loc 1 191 0
ARM GAS  C:\Users\Administrator\AppData\Local\Temp\ccAZMG3P.s 			page 7


 128 0052 D778     		ldrb	r7, [r2, #3]
 203:Code\Common\crypt/aes.c ****       }
 129              		.loc 1 203 0
 130 0054 D670     		strb	r6, [r2, #3]
 131              		.loc 1 206 0
 132 0056 8E08     		lsrs	r6, r1, #2
 133              	.LBB21:
 134              	.LBB17:
 151:Code\Common\crypt/aes.c **** }
 135              		.loc 1 151 0
 136 0058 455D     		ldrb	r5, [r0, r5]
 137              	.LBE17:
 138              	.LBE21:
 139              		.loc 1 206 0
 140 005a A65D     		ldrb	r6, [r4, r6]
 202:Code\Common\crypt/aes.c ****         tempa[3] = getSBoxValue(tempa[3]);
 141              		.loc 1 202 0
 142 005c C75D     		ldrb	r7, [r0, r7]
 143              		.loc 1 206 0
 144 005e 7540     		eors	r5, r6
 202:Code\Common\crypt/aes.c ****         tempa[3] = getSBoxValue(tempa[3]);
 145              		.loc 1 202 0
 146 0060 9770     		strb	r7, [r2, #2]
 147              		.loc 1 206 0
 148 0062 1570     		strb	r5, [r2]
 149              	.LVL9:
 150              	.L5:
 207:Code\Common\crypt/aes.c ****     }
 208:Code\Common\crypt/aes.c ****     else if (Nk > 6 && i % Nk == 4)
 209:Code\Common\crypt/aes.c ****     {
 210:Code\Common\crypt/aes.c ****       // Function Subword()
 211:Code\Common\crypt/aes.c ****       {
 212:Code\Common\crypt/aes.c ****         tempa[0] = getSBoxValue(tempa[0]);
 213:Code\Common\crypt/aes.c ****         tempa[1] = getSBoxValue(tempa[1]);
 214:Code\Common\crypt/aes.c ****         tempa[2] = getSBoxValue(tempa[2]);
 215:Code\Common\crypt/aes.c ****         tempa[3] = getSBoxValue(tempa[3]);
 216:Code\Common\crypt/aes.c ****       }
 217:Code\Common\crypt/aes.c ****     }
 218:Code\Common\crypt/aes.c ****     RoundKey[i * 4 + 0] = RoundKey[(i - Nk) * 4 + 0] ^ tempa[0];
 151              		.loc 1 218 0
 152 0064 5D1E     		subs	r5, r3, #1
 153 0066 2E78     		ldrb	r6, [r5]
 154 0068 1578     		ldrb	r5, [r2]
 175:Code\Common\crypt/aes.c ****   {
 155              		.loc 1 175 0
 156 006a 0131     		adds	r1, r1, #1
 157              	.LVL10:
 158              		.loc 1 218 0
 159 006c 7540     		eors	r5, r6
 160 006e DD73     		strb	r5, [r3, #15]
 219:Code\Common\crypt/aes.c ****     RoundKey[i * 4 + 1] = RoundKey[(i - Nk) * 4 + 1] ^ tempa[1];
 161              		.loc 1 219 0
 162 0070 5578     		ldrb	r5, [r2, #1]
 163 0072 1E78     		ldrb	r6, [r3]
 164 0074 7540     		eors	r5, r6
 165 0076 1D74     		strb	r5, [r3, #16]
 220:Code\Common\crypt/aes.c ****     RoundKey[i * 4 + 2] = RoundKey[(i - Nk) * 4 + 2] ^ tempa[2];
ARM GAS  C:\Users\Administrator\AppData\Local\Temp\ccAZMG3P.s 			page 8


 166              		.loc 1 220 0
 167 0078 5E78     		ldrb	r6, [r3, #1]
 168 007a 9578     		ldrb	r5, [r2, #2]
 169 007c 7540     		eors	r5, r6
 170 007e 5D74     		strb	r5, [r3, #17]
 221:Code\Common\crypt/aes.c ****     RoundKey[i * 4 + 3] = RoundKey[(i - Nk) * 4 + 3] ^ tempa[3];
 171              		.loc 1 221 0
 172 0080 9E78     		ldrb	r6, [r3, #2]
 173 0082 D578     		ldrb	r5, [r2, #3]
 174 0084 0433     		adds	r3, r3, #4
 175 0086 7540     		eors	r5, r6
 176 0088 9D73     		strb	r5, [r3, #14]
 175:Code\Common\crypt/aes.c ****   {
 177              		.loc 1 175 0
 178 008a 2C29     		cmp	r1, #44
 179 008c CFD1     		bne	.L3
 222:Code\Common\crypt/aes.c ****   }
 223:Code\Common\crypt/aes.c **** }
 180              		.loc 1 223 0
 181              		@ sp needed
 182 008e F7BD     		pop	{r0, r1, r2, r4, r5, r6, r7, pc}
 183              	.L11:
 184              		.align	2
 185              	.L10:
 186 0090 00000000 		.word	.LANCHOR0
 187 0094 00000000 		.word	.LANCHOR1
 188 0098 00010000 		.word	.LANCHOR2
 189              		.cfi_endproc
 190              	.LFE65:
 191              		.size	KeyExpansion, .-KeyExpansion
 192              		.section	.text.AddRoundKey,"ax",%progbits
 193              		.align	1
 194              		.code	16
 195              		.thumb_func
 196              		.type	AddRoundKey, %function
 197              	AddRoundKey:
 198              	.LFB66:
 224:Code\Common\crypt/aes.c **** 
 225:Code\Common\crypt/aes.c **** // This function adds the round key to state.
 226:Code\Common\crypt/aes.c **** // The round key is added to the state by an XOR function.
 227:Code\Common\crypt/aes.c **** static void AddRoundKey(uint8_t round)
 228:Code\Common\crypt/aes.c **** {
 199              		.loc 1 228 0
 200              		.cfi_startproc
 201              		@ args = 0, pretend = 0, frame = 8
 202              		@ frame_needed = 0, uses_anonymous_args = 0
 203              	.LVL11:
 204 0000 F7B5     		push	{r0, r1, r2, r4, r5, r6, r7, lr}
 205              		.cfi_def_cfa_offset 32
 206              		.cfi_offset 0, -32
 207              		.cfi_offset 1, -28
 208              		.cfi_offset 2, -24
 209              		.cfi_offset 4, -20
 210              		.cfi_offset 5, -16
 211              		.cfi_offset 6, -12
 212              		.cfi_offset 7, -8
 213              		.cfi_offset 14, -4
ARM GAS  C:\Users\Administrator\AppData\Local\Temp\ccAZMG3P.s 			page 9


 229:Code\Common\crypt/aes.c ****   uint8_t i,j;
 230:Code\Common\crypt/aes.c ****   for(i=0;i<4;++i)
 231:Code\Common\crypt/aes.c ****   {
 232:Code\Common\crypt/aes.c ****     for(j = 0; j < 4; ++j)
 233:Code\Common\crypt/aes.c ****     {
 234:Code\Common\crypt/aes.c ****       (*state)[i][j] ^= RoundKey[round * Nb * 4 + i * Nb + j];
 214              		.loc 1 234 0
 215 0002 0022     		movs	r2, #0
 216 0004 0B4B     		ldr	r3, .L17
 217 0006 0C4D     		ldr	r5, .L17+4
 218 0008 5E6B     		ldr	r6, [r3, #52]
 219 000a 2B1D     		adds	r3, r5, #4
 220 000c 0001     		lsls	r0, r0, #4
 221              	.LVL12:
 222 000e 0193     		str	r3, [sp, #4]
 223              	.LVL13:
 224              	.L13:
 225 0010 019B     		ldr	r3, [sp, #4]
 226 0012 1118     		adds	r1, r2, r0
 227 0014 5918     		adds	r1, r3, r1
 228:Code\Common\crypt/aes.c ****   uint8_t i,j;
 228              		.loc 1 228 0
 229 0016 0023     		movs	r3, #0
 230              	.LVL14:
 231              	.L14:
 232 0018 B718     		adds	r7, r6, r2
 233              		.loc 1 234 0 discriminator 3
 234 001a FC5C     		ldrb	r4, [r7, r3]
 235 001c A446     		mov	ip, r4
 236 001e 6546     		mov	r5, ip
 237 0020 CC5C     		ldrb	r4, [r1, r3]
 238 0022 6C40     		eors	r4, r5
 239 0024 FC54     		strb	r4, [r7, r3]
 240              	.LVL15:
 241 0026 0133     		adds	r3, r3, #1
 242              	.LVL16:
 232:Code\Common\crypt/aes.c ****     {
 243              		.loc 1 232 0 discriminator 3
 244 0028 042B     		cmp	r3, #4
 245 002a F5D1     		bne	.L14
 246 002c 0432     		adds	r2, r2, #4
 230:Code\Common\crypt/aes.c ****   {
 247              		.loc 1 230 0 discriminator 2
 248 002e 102A     		cmp	r2, #16
 249 0030 EED1     		bne	.L13
 235:Code\Common\crypt/aes.c ****     }
 236:Code\Common\crypt/aes.c ****   }
 237:Code\Common\crypt/aes.c **** }
 250              		.loc 1 237 0
 251              		@ sp needed
 252 0032 F7BD     		pop	{r0, r1, r2, r4, r5, r6, r7, pc}
 253              	.L18:
 254              		.align	2
 255              	.L17:
 256 0034 80000000 		.word	.LANCHOR3
 257 0038 00000000 		.word	.LANCHOR0
 258              		.cfi_endproc
ARM GAS  C:\Users\Administrator\AppData\Local\Temp\ccAZMG3P.s 			page 10


 259              	.LFE66:
 260              		.size	AddRoundKey, .-AddRoundKey
 261              		.section	.text.SubBytes,"ax",%progbits
 262              		.align	1
 263              		.code	16
 264              		.thumb_func
 265              		.type	SubBytes, %function
 266              	SubBytes:
 267              	.LFB67:
 238:Code\Common\crypt/aes.c **** 
 239:Code\Common\crypt/aes.c **** // The SubBytes Function Substitutes the values in the
 240:Code\Common\crypt/aes.c **** // state matrix with values in an S-box.
 241:Code\Common\crypt/aes.c **** static void SubBytes(void)
 242:Code\Common\crypt/aes.c **** {
 268              		.loc 1 242 0
 269              		.cfi_startproc
 270              		@ args = 0, pretend = 0, frame = 0
 271              		@ frame_needed = 0, uses_anonymous_args = 0
 272              	.LVL17:
 243:Code\Common\crypt/aes.c ****   uint8_t i, j;
 244:Code\Common\crypt/aes.c ****   for(i = 0; i < 4; ++i)
 245:Code\Common\crypt/aes.c ****   {
 246:Code\Common\crypt/aes.c ****     for(j = 0; j < 4; ++j)
 247:Code\Common\crypt/aes.c ****     {
 248:Code\Common\crypt/aes.c ****       (*state)[j][i] = getSBoxValue((*state)[j][i]);
 273              		.loc 1 248 0
 274 0000 074B     		ldr	r3, .L24
 242:Code\Common\crypt/aes.c ****   uint8_t i, j;
 275              		.loc 1 242 0
 276 0002 10B5     		push	{r4, lr}
 277              		.cfi_def_cfa_offset 8
 278              		.cfi_offset 4, -8
 279              		.cfi_offset 14, -4
 280              		.loc 1 248 0
 281 0004 5B6B     		ldr	r3, [r3, #52]
 282              	.LBB22:
 283              	.LBB23:
 151:Code\Common\crypt/aes.c **** }
 284              		.loc 1 151 0
 285 0006 0748     		ldr	r0, .L24+4
 286 0008 191D     		adds	r1, r3, #4
 287              	.LVL18:
 288              	.L20:
 289              	.LBE23:
 290              	.LBE22:
 242:Code\Common\crypt/aes.c ****   uint8_t i, j;
 291              		.loc 1 242 0
 292 000a 0022     		movs	r2, #0
 293              	.LVL19:
 294              	.L21:
 295              	.LBB25:
 296              	.LBB24:
 151:Code\Common\crypt/aes.c **** }
 297              		.loc 1 151 0 discriminator 3
 298 000c 9C5C     		ldrb	r4, [r3, r2]
 299              	.LBE24:
 300              	.LBE25:
ARM GAS  C:\Users\Administrator\AppData\Local\Temp\ccAZMG3P.s 			page 11


 301              		.loc 1 248 0 discriminator 3
 302 000e 045D     		ldrb	r4, [r0, r4]
 303 0010 9C54     		strb	r4, [r3, r2]
 304 0012 0432     		adds	r2, r2, #4
 246:Code\Common\crypt/aes.c ****     {
 305              		.loc 1 246 0 discriminator 3
 306 0014 102A     		cmp	r2, #16
 307 0016 F9D1     		bne	.L21
 308              	.LVL20:
 309 0018 0133     		adds	r3, r3, #1
 310              	.LVL21:
 244:Code\Common\crypt/aes.c ****   {
 311              		.loc 1 244 0 discriminator 2
 312 001a 9942     		cmp	r1, r3
 313 001c F5D1     		bne	.L20
 249:Code\Common\crypt/aes.c ****     }
 250:Code\Common\crypt/aes.c ****   }
 251:Code\Common\crypt/aes.c **** }
 314              		.loc 1 251 0
 315              		@ sp needed
 316 001e 10BD     		pop	{r4, pc}
 317              	.L25:
 318              		.align	2
 319              	.L24:
 320 0020 80000000 		.word	.LANCHOR3
 321 0024 00000000 		.word	.LANCHOR1
 322              		.cfi_endproc
 323              	.LFE67:
 324              		.size	SubBytes, .-SubBytes
 325              		.section	.text.ShiftRows,"ax",%progbits
 326              		.align	1
 327              		.code	16
 328              		.thumb_func
 329              		.type	ShiftRows, %function
 330              	ShiftRows:
 331              	.LFB68:
 252:Code\Common\crypt/aes.c **** 
 253:Code\Common\crypt/aes.c **** // The ShiftRows() function shifts the rows in the state to the left.
 254:Code\Common\crypt/aes.c **** // Each row is shifted with different offset.
 255:Code\Common\crypt/aes.c **** // Offset = Row number. So the first row is not shifted.
 256:Code\Common\crypt/aes.c **** static void ShiftRows(void)
 257:Code\Common\crypt/aes.c **** {
 332              		.loc 1 257 0
 333              		.cfi_startproc
 334              		@ args = 0, pretend = 0, frame = 0
 335              		@ frame_needed = 0, uses_anonymous_args = 0
 336              		@ link register save eliminated.
 258:Code\Common\crypt/aes.c ****   uint8_t temp;
 259:Code\Common\crypt/aes.c **** 
 260:Code\Common\crypt/aes.c ****   // Rotate first row 1 columns to left  
 261:Code\Common\crypt/aes.c ****   temp           = (*state)[0][1];
 337              		.loc 1 261 0
 338 0000 0D4B     		ldr	r3, .L27
 262:Code\Common\crypt/aes.c ****   (*state)[0][1] = (*state)[1][1];
 263:Code\Common\crypt/aes.c ****   (*state)[1][1] = (*state)[2][1];
 264:Code\Common\crypt/aes.c ****   (*state)[2][1] = (*state)[3][1];
 265:Code\Common\crypt/aes.c ****   (*state)[3][1] = temp;
ARM GAS  C:\Users\Administrator\AppData\Local\Temp\ccAZMG3P.s 			page 12


 266:Code\Common\crypt/aes.c **** 
 267:Code\Common\crypt/aes.c ****   // Rotate second row 2 columns to left  
 268:Code\Common\crypt/aes.c ****   temp           = (*state)[0][2];
 269:Code\Common\crypt/aes.c ****   (*state)[0][2] = (*state)[2][2];
 270:Code\Common\crypt/aes.c ****   (*state)[2][2] = temp;
 271:Code\Common\crypt/aes.c **** 
 272:Code\Common\crypt/aes.c ****   temp       = (*state)[1][2];
 273:Code\Common\crypt/aes.c ****   (*state)[1][2] = (*state)[3][2];
 274:Code\Common\crypt/aes.c ****   (*state)[3][2] = temp;
 275:Code\Common\crypt/aes.c **** 
 276:Code\Common\crypt/aes.c ****   // Rotate third row 3 columns to left
 277:Code\Common\crypt/aes.c ****   temp       = (*state)[0][3];
 278:Code\Common\crypt/aes.c ****   (*state)[0][3] = (*state)[3][3];
 279:Code\Common\crypt/aes.c ****   (*state)[3][3] = (*state)[2][3];
 280:Code\Common\crypt/aes.c ****   (*state)[2][3] = (*state)[1][3];
 281:Code\Common\crypt/aes.c ****   (*state)[1][3] = temp;
 282:Code\Common\crypt/aes.c **** }
 339              		.loc 1 282 0
 340              		@ sp needed
 261:Code\Common\crypt/aes.c ****   (*state)[0][1] = (*state)[1][1];
 341              		.loc 1 261 0
 342 0002 5B6B     		ldr	r3, [r3, #52]
 262:Code\Common\crypt/aes.c ****   (*state)[0][1] = (*state)[1][1];
 343              		.loc 1 262 0
 344 0004 5979     		ldrb	r1, [r3, #5]
 261:Code\Common\crypt/aes.c ****   (*state)[0][1] = (*state)[1][1];
 345              		.loc 1 261 0
 346 0006 5A78     		ldrb	r2, [r3, #1]
 347              	.LVL22:
 262:Code\Common\crypt/aes.c ****   (*state)[0][1] = (*state)[1][1];
 348              		.loc 1 262 0
 349 0008 5970     		strb	r1, [r3, #1]
 263:Code\Common\crypt/aes.c ****   (*state)[2][1] = (*state)[3][1];
 350              		.loc 1 263 0
 351 000a 597A     		ldrb	r1, [r3, #9]
 352 000c 5971     		strb	r1, [r3, #5]
 264:Code\Common\crypt/aes.c ****   (*state)[3][1] = temp;
 353              		.loc 1 264 0
 354 000e 597B     		ldrb	r1, [r3, #13]
 265:Code\Common\crypt/aes.c **** 
 355              		.loc 1 265 0
 356 0010 5A73     		strb	r2, [r3, #13]
 264:Code\Common\crypt/aes.c ****   (*state)[3][1] = temp;
 357              		.loc 1 264 0
 358 0012 5972     		strb	r1, [r3, #9]
 269:Code\Common\crypt/aes.c ****   (*state)[2][2] = temp;
 359              		.loc 1 269 0
 360 0014 997A     		ldrb	r1, [r3, #10]
 268:Code\Common\crypt/aes.c ****   (*state)[0][2] = (*state)[2][2];
 361              		.loc 1 268 0
 362 0016 9A78     		ldrb	r2, [r3, #2]
 363              	.LVL23:
 269:Code\Common\crypt/aes.c ****   (*state)[2][2] = temp;
 364              		.loc 1 269 0
 365 0018 9970     		strb	r1, [r3, #2]
 273:Code\Common\crypt/aes.c ****   (*state)[3][2] = temp;
 366              		.loc 1 273 0
ARM GAS  C:\Users\Administrator\AppData\Local\Temp\ccAZMG3P.s 			page 13


 367 001a 997B     		ldrb	r1, [r3, #14]
 270:Code\Common\crypt/aes.c **** 
 368              		.loc 1 270 0
 369 001c 9A72     		strb	r2, [r3, #10]
 272:Code\Common\crypt/aes.c ****   (*state)[1][2] = (*state)[3][2];
 370              		.loc 1 272 0
 371 001e 9A79     		ldrb	r2, [r3, #6]
 372              	.LVL24:
 273:Code\Common\crypt/aes.c ****   (*state)[3][2] = temp;
 373              		.loc 1 273 0
 374 0020 9971     		strb	r1, [r3, #6]
 278:Code\Common\crypt/aes.c ****   (*state)[3][3] = (*state)[2][3];
 375              		.loc 1 278 0
 376 0022 D97B     		ldrb	r1, [r3, #15]
 274:Code\Common\crypt/aes.c **** 
 377              		.loc 1 274 0
 378 0024 9A73     		strb	r2, [r3, #14]
 277:Code\Common\crypt/aes.c ****   (*state)[0][3] = (*state)[3][3];
 379              		.loc 1 277 0
 380 0026 DA78     		ldrb	r2, [r3, #3]
 381              	.LVL25:
 278:Code\Common\crypt/aes.c ****   (*state)[3][3] = (*state)[2][3];
 382              		.loc 1 278 0
 383 0028 D970     		strb	r1, [r3, #3]
 279:Code\Common\crypt/aes.c ****   (*state)[2][3] = (*state)[1][3];
 384              		.loc 1 279 0
 385 002a D97A     		ldrb	r1, [r3, #11]
 386 002c D973     		strb	r1, [r3, #15]
 280:Code\Common\crypt/aes.c ****   (*state)[1][3] = temp;
 387              		.loc 1 280 0
 388 002e D979     		ldrb	r1, [r3, #7]
 281:Code\Common\crypt/aes.c **** }
 389              		.loc 1 281 0
 390 0030 DA71     		strb	r2, [r3, #7]
 280:Code\Common\crypt/aes.c ****   (*state)[1][3] = temp;
 391              		.loc 1 280 0
 392 0032 D972     		strb	r1, [r3, #11]
 393              		.loc 1 282 0
 394 0034 7047     		bx	lr
 395              	.L28:
 396 0036 C046     		.align	2
 397              	.L27:
 398 0038 80000000 		.word	.LANCHOR3
 399              		.cfi_endproc
 400              	.LFE68:
 401              		.size	ShiftRows, .-ShiftRows
 402              		.section	.text.xtime,"ax",%progbits
 403              		.align	1
 404              		.code	16
 405              		.thumb_func
 406              		.type	xtime, %function
 407              	xtime:
 408              	.LFB69:
 283:Code\Common\crypt/aes.c **** 
 284:Code\Common\crypt/aes.c **** static uint8_t xtime(uint8_t x)
 285:Code\Common\crypt/aes.c **** {
 409              		.loc 1 285 0
ARM GAS  C:\Users\Administrator\AppData\Local\Temp\ccAZMG3P.s 			page 14


 410              		.cfi_startproc
 411              		@ args = 0, pretend = 0, frame = 0
 412              		@ frame_needed = 0, uses_anonymous_args = 0
 413              		@ link register save eliminated.
 414              	.LVL26:
 286:Code\Common\crypt/aes.c ****   return ((x<<1) ^ (((x>>7) & 1) * 0x1b));
 415              		.loc 1 286 0
 416 0000 1B23     		movs	r3, #27
 417 0002 C209     		lsrs	r2, r0, #7
 418 0004 5343     		muls	r3, r2
 419 0006 4000     		lsls	r0, r0, #1
 420              	.LVL27:
 421 0008 5840     		eors	r0, r3
 422 000a C0B2     		uxtb	r0, r0
 287:Code\Common\crypt/aes.c **** }
 423              		.loc 1 287 0
 424              		@ sp needed
 425 000c 7047     		bx	lr
 426              		.cfi_endproc
 427              	.LFE69:
 428              		.size	xtime, .-xtime
 429              		.section	.text.InvSubBytes,"ax",%progbits
 430              		.align	1
 431              		.code	16
 432              		.thumb_func
 433              		.type	InvSubBytes, %function
 434              	InvSubBytes:
 435              	.LFB72:
 288:Code\Common\crypt/aes.c **** 
 289:Code\Common\crypt/aes.c **** // MixColumns function mixes the columns of the state matrix
 290:Code\Common\crypt/aes.c **** static void MixColumns(void)
 291:Code\Common\crypt/aes.c **** {
 292:Code\Common\crypt/aes.c ****   uint8_t i;
 293:Code\Common\crypt/aes.c ****   uint8_t Tmp,Tm,t;
 294:Code\Common\crypt/aes.c ****   for(i = 0; i < 4; ++i)
 295:Code\Common\crypt/aes.c ****   {  
 296:Code\Common\crypt/aes.c ****     t   = (*state)[i][0];
 297:Code\Common\crypt/aes.c ****     Tmp = (*state)[i][0] ^ (*state)[i][1] ^ (*state)[i][2] ^ (*state)[i][3] ;
 298:Code\Common\crypt/aes.c ****     Tm  = (*state)[i][0] ^ (*state)[i][1] ; Tm = xtime(Tm);  (*state)[i][0] ^= Tm ^ Tmp ;
 299:Code\Common\crypt/aes.c ****     Tm  = (*state)[i][1] ^ (*state)[i][2] ; Tm = xtime(Tm);  (*state)[i][1] ^= Tm ^ Tmp ;
 300:Code\Common\crypt/aes.c ****     Tm  = (*state)[i][2] ^ (*state)[i][3] ; Tm = xtime(Tm);  (*state)[i][2] ^= Tm ^ Tmp ;
 301:Code\Common\crypt/aes.c ****     Tm  = (*state)[i][3] ^ t ;        Tm = xtime(Tm);  (*state)[i][3] ^= Tm ^ Tmp ;
 302:Code\Common\crypt/aes.c ****   }
 303:Code\Common\crypt/aes.c **** }
 304:Code\Common\crypt/aes.c **** 
 305:Code\Common\crypt/aes.c **** // Multiply is used to multiply numbers in the field GF(2^8)
 306:Code\Common\crypt/aes.c **** #if MULTIPLY_AS_A_FUNCTION
 307:Code\Common\crypt/aes.c **** static uint8_t Multiply(uint8_t x, uint8_t y)
 308:Code\Common\crypt/aes.c **** {
 309:Code\Common\crypt/aes.c ****   return (((y & 1) * x) ^
 310:Code\Common\crypt/aes.c ****        ((y>>1 & 1) * xtime(x)) ^
 311:Code\Common\crypt/aes.c ****        ((y>>2 & 1) * xtime(xtime(x))) ^
 312:Code\Common\crypt/aes.c ****        ((y>>3 & 1) * xtime(xtime(xtime(x)))) ^
 313:Code\Common\crypt/aes.c ****        ((y>>4 & 1) * xtime(xtime(xtime(xtime(x))))));
 314:Code\Common\crypt/aes.c ****   }
 315:Code\Common\crypt/aes.c **** #else
 316:Code\Common\crypt/aes.c **** #define Multiply(x, y)                                \
ARM GAS  C:\Users\Administrator\AppData\Local\Temp\ccAZMG3P.s 			page 15


 317:Code\Common\crypt/aes.c ****       (  ((y & 1) * x) ^                              \
 318:Code\Common\crypt/aes.c ****       ((y>>1 & 1) * xtime(x)) ^                       \
 319:Code\Common\crypt/aes.c ****       ((y>>2 & 1) * xtime(xtime(x))) ^                \
 320:Code\Common\crypt/aes.c ****       ((y>>3 & 1) * xtime(xtime(xtime(x)))) ^         \
 321:Code\Common\crypt/aes.c ****       ((y>>4 & 1) * xtime(xtime(xtime(xtime(x))))))   \
 322:Code\Common\crypt/aes.c **** 
 323:Code\Common\crypt/aes.c **** #endif
 324:Code\Common\crypt/aes.c **** 
 325:Code\Common\crypt/aes.c **** // MixColumns function mixes the columns of the state matrix.
 326:Code\Common\crypt/aes.c **** // The method used to multiply may be difficult to understand for the inexperienced.
 327:Code\Common\crypt/aes.c **** // Please use the references to gain more information.
 328:Code\Common\crypt/aes.c **** static void InvMixColumns(void)
 329:Code\Common\crypt/aes.c **** {
 330:Code\Common\crypt/aes.c ****   int i;
 331:Code\Common\crypt/aes.c ****   uint8_t a,b,c,d;
 332:Code\Common\crypt/aes.c ****   for(i=0;i<4;++i)
 333:Code\Common\crypt/aes.c ****   { 
 334:Code\Common\crypt/aes.c ****     a = (*state)[i][0];
 335:Code\Common\crypt/aes.c ****     b = (*state)[i][1];
 336:Code\Common\crypt/aes.c ****     c = (*state)[i][2];
 337:Code\Common\crypt/aes.c ****     d = (*state)[i][3];
 338:Code\Common\crypt/aes.c **** 
 339:Code\Common\crypt/aes.c ****     (*state)[i][0] = Multiply(a, 0x0e) ^ Multiply(b, 0x0b) ^ Multiply(c, 0x0d) ^ Multiply(d, 0x09);
 340:Code\Common\crypt/aes.c ****     (*state)[i][1] = Multiply(a, 0x09) ^ Multiply(b, 0x0e) ^ Multiply(c, 0x0b) ^ Multiply(d, 0x0d);
 341:Code\Common\crypt/aes.c ****     (*state)[i][2] = Multiply(a, 0x0d) ^ Multiply(b, 0x09) ^ Multiply(c, 0x0e) ^ Multiply(d, 0x0b);
 342:Code\Common\crypt/aes.c ****     (*state)[i][3] = Multiply(a, 0x0b) ^ Multiply(b, 0x0d) ^ Multiply(c, 0x09) ^ Multiply(d, 0x0e);
 343:Code\Common\crypt/aes.c ****   }
 344:Code\Common\crypt/aes.c **** }
 345:Code\Common\crypt/aes.c **** 
 346:Code\Common\crypt/aes.c **** 
 347:Code\Common\crypt/aes.c **** // The SubBytes Function Substitutes the values in the
 348:Code\Common\crypt/aes.c **** // state matrix with values in an S-box.
 349:Code\Common\crypt/aes.c **** static void InvSubBytes(void)
 350:Code\Common\crypt/aes.c **** {
 436              		.loc 1 350 0
 437              		.cfi_startproc
 438              		@ args = 0, pretend = 0, frame = 0
 439              		@ frame_needed = 0, uses_anonymous_args = 0
 440              	.LVL28:
 351:Code\Common\crypt/aes.c ****   uint8_t i,j;
 352:Code\Common\crypt/aes.c ****   for(i=0;i<4;++i)
 353:Code\Common\crypt/aes.c ****   {
 354:Code\Common\crypt/aes.c ****     for(j=0;j<4;++j)
 355:Code\Common\crypt/aes.c ****     {
 356:Code\Common\crypt/aes.c ****       (*state)[j][i] = getSBoxInvert((*state)[j][i]);
 441              		.loc 1 356 0
 442 0000 084B     		ldr	r3, .L35
 350:Code\Common\crypt/aes.c ****   uint8_t i,j;
 443              		.loc 1 350 0
 444 0002 10B5     		push	{r4, lr}
 445              		.cfi_def_cfa_offset 8
 446              		.cfi_offset 4, -8
 447              		.cfi_offset 14, -4
 448              		.loc 1 356 0
 449 0004 5B6B     		ldr	r3, [r3, #52]
 450              	.LBB26:
 451              	.LBB27:
ARM GAS  C:\Users\Administrator\AppData\Local\Temp\ccAZMG3P.s 			page 16


 156:Code\Common\crypt/aes.c **** }
 452              		.loc 1 156 0
 453 0006 084C     		ldr	r4, .L35+4
 454 0008 181D     		adds	r0, r3, #4
 455              	.LVL29:
 456              	.L31:
 457              	.LBE27:
 458              	.LBE26:
 350:Code\Common\crypt/aes.c ****   uint8_t i,j;
 459              		.loc 1 350 0
 460 000a 0022     		movs	r2, #0
 461              	.LVL30:
 462              	.L32:
 463              	.LBB29:
 464              	.LBB28:
 156:Code\Common\crypt/aes.c **** }
 465              		.loc 1 156 0 discriminator 3
 466 000c 995C     		ldrb	r1, [r3, r2]
 467 000e 6118     		adds	r1, r4, r1
 468              	.LBE28:
 469              	.LBE29:
 470              		.loc 1 356 0 discriminator 3
 471 0010 097C     		ldrb	r1, [r1, #16]
 472 0012 9954     		strb	r1, [r3, r2]
 473 0014 0432     		adds	r2, r2, #4
 354:Code\Common\crypt/aes.c ****     {
 474              		.loc 1 354 0 discriminator 3
 475 0016 102A     		cmp	r2, #16
 476 0018 F8D1     		bne	.L32
 477              	.LVL31:
 478 001a 0133     		adds	r3, r3, #1
 479              	.LVL32:
 352:Code\Common\crypt/aes.c ****   {
 480              		.loc 1 352 0 discriminator 2
 481 001c 9842     		cmp	r0, r3
 482 001e F4D1     		bne	.L31
 357:Code\Common\crypt/aes.c ****     }
 358:Code\Common\crypt/aes.c ****   }
 359:Code\Common\crypt/aes.c **** }
 483              		.loc 1 359 0
 484              		@ sp needed
 485 0020 10BD     		pop	{r4, pc}
 486              	.L36:
 487 0022 C046     		.align	2
 488              	.L35:
 489 0024 80000000 		.word	.LANCHOR3
 490 0028 00010000 		.word	.LANCHOR2
 491              		.cfi_endproc
 492              	.LFE72:
 493              		.size	InvSubBytes, .-InvSubBytes
 494              		.section	.text.InvShiftRows,"ax",%progbits
 495              		.align	1
 496              		.code	16
 497              		.thumb_func
 498              		.type	InvShiftRows, %function
 499              	InvShiftRows:
 500              	.LFB73:
ARM GAS  C:\Users\Administrator\AppData\Local\Temp\ccAZMG3P.s 			page 17


 360:Code\Common\crypt/aes.c **** 
 361:Code\Common\crypt/aes.c **** static void InvShiftRows(void)
 362:Code\Common\crypt/aes.c **** {
 501              		.loc 1 362 0
 502              		.cfi_startproc
 503              		@ args = 0, pretend = 0, frame = 0
 504              		@ frame_needed = 0, uses_anonymous_args = 0
 505              		@ link register save eliminated.
 363:Code\Common\crypt/aes.c ****   uint8_t temp;
 364:Code\Common\crypt/aes.c **** 
 365:Code\Common\crypt/aes.c ****   // Rotate first row 1 columns to right  
 366:Code\Common\crypt/aes.c ****   temp=(*state)[3][1];
 506              		.loc 1 366 0
 507 0000 0D4B     		ldr	r3, .L38
 367:Code\Common\crypt/aes.c ****   (*state)[3][1]=(*state)[2][1];
 368:Code\Common\crypt/aes.c ****   (*state)[2][1]=(*state)[1][1];
 369:Code\Common\crypt/aes.c ****   (*state)[1][1]=(*state)[0][1];
 370:Code\Common\crypt/aes.c ****   (*state)[0][1]=temp;
 371:Code\Common\crypt/aes.c **** 
 372:Code\Common\crypt/aes.c ****   // Rotate second row 2 columns to right 
 373:Code\Common\crypt/aes.c ****   temp=(*state)[0][2];
 374:Code\Common\crypt/aes.c ****   (*state)[0][2]=(*state)[2][2];
 375:Code\Common\crypt/aes.c ****   (*state)[2][2]=temp;
 376:Code\Common\crypt/aes.c **** 
 377:Code\Common\crypt/aes.c ****   temp=(*state)[1][2];
 378:Code\Common\crypt/aes.c ****   (*state)[1][2]=(*state)[3][2];
 379:Code\Common\crypt/aes.c ****   (*state)[3][2]=temp;
 380:Code\Common\crypt/aes.c **** 
 381:Code\Common\crypt/aes.c ****   // Rotate third row 3 columns to right
 382:Code\Common\crypt/aes.c ****   temp=(*state)[0][3];
 383:Code\Common\crypt/aes.c ****   (*state)[0][3]=(*state)[1][3];
 384:Code\Common\crypt/aes.c ****   (*state)[1][3]=(*state)[2][3];
 385:Code\Common\crypt/aes.c ****   (*state)[2][3]=(*state)[3][3];
 386:Code\Common\crypt/aes.c ****   (*state)[3][3]=temp;
 387:Code\Common\crypt/aes.c **** }
 508              		.loc 1 387 0
 509              		@ sp needed
 366:Code\Common\crypt/aes.c ****   (*state)[3][1]=(*state)[2][1];
 510              		.loc 1 366 0
 511 0002 5B6B     		ldr	r3, [r3, #52]
 367:Code\Common\crypt/aes.c ****   (*state)[3][1]=(*state)[2][1];
 512              		.loc 1 367 0
 513 0004 597A     		ldrb	r1, [r3, #9]
 366:Code\Common\crypt/aes.c ****   (*state)[3][1]=(*state)[2][1];
 514              		.loc 1 366 0
 515 0006 5A7B     		ldrb	r2, [r3, #13]
 516              	.LVL33:
 367:Code\Common\crypt/aes.c ****   (*state)[3][1]=(*state)[2][1];
 517              		.loc 1 367 0
 518 0008 5973     		strb	r1, [r3, #13]
 368:Code\Common\crypt/aes.c ****   (*state)[1][1]=(*state)[0][1];
 519              		.loc 1 368 0
 520 000a 5979     		ldrb	r1, [r3, #5]
 521 000c 5972     		strb	r1, [r3, #9]
 369:Code\Common\crypt/aes.c ****   (*state)[0][1]=temp;
 522              		.loc 1 369 0
 523 000e 5978     		ldrb	r1, [r3, #1]
ARM GAS  C:\Users\Administrator\AppData\Local\Temp\ccAZMG3P.s 			page 18


 370:Code\Common\crypt/aes.c **** 
 524              		.loc 1 370 0
 525 0010 5A70     		strb	r2, [r3, #1]
 369:Code\Common\crypt/aes.c ****   (*state)[0][1]=temp;
 526              		.loc 1 369 0
 527 0012 5971     		strb	r1, [r3, #5]
 374:Code\Common\crypt/aes.c ****   (*state)[2][2]=temp;
 528              		.loc 1 374 0
 529 0014 997A     		ldrb	r1, [r3, #10]
 373:Code\Common\crypt/aes.c ****   (*state)[0][2]=(*state)[2][2];
 530              		.loc 1 373 0
 531 0016 9A78     		ldrb	r2, [r3, #2]
 532              	.LVL34:
 374:Code\Common\crypt/aes.c ****   (*state)[2][2]=temp;
 533              		.loc 1 374 0
 534 0018 9970     		strb	r1, [r3, #2]
 378:Code\Common\crypt/aes.c ****   (*state)[3][2]=temp;
 535              		.loc 1 378 0
 536 001a 997B     		ldrb	r1, [r3, #14]
 375:Code\Common\crypt/aes.c **** 
 537              		.loc 1 375 0
 538 001c 9A72     		strb	r2, [r3, #10]
 377:Code\Common\crypt/aes.c ****   (*state)[1][2]=(*state)[3][2];
 539              		.loc 1 377 0
 540 001e 9A79     		ldrb	r2, [r3, #6]
 541              	.LVL35:
 378:Code\Common\crypt/aes.c ****   (*state)[3][2]=temp;
 542              		.loc 1 378 0
 543 0020 9971     		strb	r1, [r3, #6]
 383:Code\Common\crypt/aes.c ****   (*state)[1][3]=(*state)[2][3];
 544              		.loc 1 383 0
 545 0022 D979     		ldrb	r1, [r3, #7]
 379:Code\Common\crypt/aes.c **** 
 546              		.loc 1 379 0
 547 0024 9A73     		strb	r2, [r3, #14]
 382:Code\Common\crypt/aes.c ****   (*state)[0][3]=(*state)[1][3];
 548              		.loc 1 382 0
 549 0026 DA78     		ldrb	r2, [r3, #3]
 550              	.LVL36:
 383:Code\Common\crypt/aes.c ****   (*state)[1][3]=(*state)[2][3];
 551              		.loc 1 383 0
 552 0028 D970     		strb	r1, [r3, #3]
 384:Code\Common\crypt/aes.c ****   (*state)[2][3]=(*state)[3][3];
 553              		.loc 1 384 0
 554 002a D97A     		ldrb	r1, [r3, #11]
 555 002c D971     		strb	r1, [r3, #7]
 385:Code\Common\crypt/aes.c ****   (*state)[3][3]=temp;
 556              		.loc 1 385 0
 557 002e D97B     		ldrb	r1, [r3, #15]
 386:Code\Common\crypt/aes.c **** }
 558              		.loc 1 386 0
 559 0030 DA73     		strb	r2, [r3, #15]
 385:Code\Common\crypt/aes.c ****   (*state)[3][3]=temp;
 560              		.loc 1 385 0
 561 0032 D972     		strb	r1, [r3, #11]
 562              		.loc 1 387 0
 563 0034 7047     		bx	lr
ARM GAS  C:\Users\Administrator\AppData\Local\Temp\ccAZMG3P.s 			page 19


 564              	.L39:
 565 0036 C046     		.align	2
 566              	.L38:
 567 0038 80000000 		.word	.LANCHOR3
 568              		.cfi_endproc
 569              	.LFE73:
 570              		.size	InvShiftRows, .-InvShiftRows
 571              		.section	.text.AES128_ECB_encrypt,"ax",%progbits
 572              		.align	1
 573              		.global	AES128_ECB_encrypt
 574              		.code	16
 575              		.thumb_func
 576              		.type	AES128_ECB_encrypt, %function
 577              	AES128_ECB_encrypt:
 578              	.LFB77:
 388:Code\Common\crypt/aes.c **** 
 389:Code\Common\crypt/aes.c **** 
 390:Code\Common\crypt/aes.c **** // Cipher is the main function that encrypts the PlainText.
 391:Code\Common\crypt/aes.c **** static void Cipher(void)
 392:Code\Common\crypt/aes.c **** {
 393:Code\Common\crypt/aes.c ****   uint8_t round = 0;
 394:Code\Common\crypt/aes.c **** 
 395:Code\Common\crypt/aes.c ****   // Add the First round key to the state before starting the rounds.
 396:Code\Common\crypt/aes.c ****   AddRoundKey(0); 
 397:Code\Common\crypt/aes.c ****   
 398:Code\Common\crypt/aes.c ****   // There will be Nr rounds.
 399:Code\Common\crypt/aes.c ****   // The first Nr-1 rounds are identical.
 400:Code\Common\crypt/aes.c ****   // These Nr-1 rounds are executed in the loop below.
 401:Code\Common\crypt/aes.c ****   for(round = 1; round < Nr; ++round)
 402:Code\Common\crypt/aes.c ****   {
 403:Code\Common\crypt/aes.c ****     SubBytes();
 404:Code\Common\crypt/aes.c ****     ShiftRows();
 405:Code\Common\crypt/aes.c ****     MixColumns();
 406:Code\Common\crypt/aes.c ****     AddRoundKey(round);
 407:Code\Common\crypt/aes.c ****   }
 408:Code\Common\crypt/aes.c ****   
 409:Code\Common\crypt/aes.c ****   // The last round is given below.
 410:Code\Common\crypt/aes.c ****   // The MixColumns function is not here in the last round.
 411:Code\Common\crypt/aes.c ****   SubBytes();
 412:Code\Common\crypt/aes.c ****   ShiftRows();
 413:Code\Common\crypt/aes.c ****   AddRoundKey(Nr);
 414:Code\Common\crypt/aes.c **** }
 415:Code\Common\crypt/aes.c **** 
 416:Code\Common\crypt/aes.c **** static void InvCipher(void)
 417:Code\Common\crypt/aes.c **** {
 418:Code\Common\crypt/aes.c ****   uint8_t round=0;
 419:Code\Common\crypt/aes.c **** 
 420:Code\Common\crypt/aes.c ****   // Add the First round key to the state before starting the rounds.
 421:Code\Common\crypt/aes.c ****   AddRoundKey(Nr); 
 422:Code\Common\crypt/aes.c **** 
 423:Code\Common\crypt/aes.c ****   // There will be Nr rounds.
 424:Code\Common\crypt/aes.c ****   // The first Nr-1 rounds are identical.
 425:Code\Common\crypt/aes.c ****   // These Nr-1 rounds are executed in the loop below.
 426:Code\Common\crypt/aes.c ****   for(round=Nr-1;round>0;round--)
 427:Code\Common\crypt/aes.c ****   {
 428:Code\Common\crypt/aes.c ****     InvShiftRows();
 429:Code\Common\crypt/aes.c ****     InvSubBytes();
ARM GAS  C:\Users\Administrator\AppData\Local\Temp\ccAZMG3P.s 			page 20


 430:Code\Common\crypt/aes.c ****     AddRoundKey(round);
 431:Code\Common\crypt/aes.c ****     InvMixColumns();
 432:Code\Common\crypt/aes.c ****   }
 433:Code\Common\crypt/aes.c ****   
 434:Code\Common\crypt/aes.c ****   // The last round is given below.
 435:Code\Common\crypt/aes.c ****   // The MixColumns function is not here in the last round.
 436:Code\Common\crypt/aes.c ****   InvShiftRows();
 437:Code\Common\crypt/aes.c ****   InvSubBytes();
 438:Code\Common\crypt/aes.c ****   AddRoundKey(0);
 439:Code\Common\crypt/aes.c **** }
 440:Code\Common\crypt/aes.c **** 
 441:Code\Common\crypt/aes.c **** static void BlockCopy(uint8_t* output, uint8_t* input)
 442:Code\Common\crypt/aes.c **** {
 443:Code\Common\crypt/aes.c ****   uint8_t i;
 444:Code\Common\crypt/aes.c ****   for (i = 0; i < KEYLEN; ++i)
 445:Code\Common\crypt/aes.c ****   {
 446:Code\Common\crypt/aes.c ****     output[i] = input[i];
 447:Code\Common\crypt/aes.c ****   }
 448:Code\Common\crypt/aes.c **** }
 449:Code\Common\crypt/aes.c **** 
 450:Code\Common\crypt/aes.c **** /*****************************************************************************/
 451:Code\Common\crypt/aes.c **** /* Public functions:                                                         */
 452:Code\Common\crypt/aes.c **** /*****************************************************************************/
 453:Code\Common\crypt/aes.c **** void AES128_ECB_encrypt(uint8_t* input, const uint8_t* key)
 454:Code\Common\crypt/aes.c **** {
 579              		.loc 1 454 0
 580              		.cfi_startproc
 581              		@ args = 0, pretend = 0, frame = 24
 582              		@ frame_needed = 0, uses_anonymous_args = 0
 583              	.LVL37:
 584 0000 F0B5     		push	{r4, r5, r6, r7, lr}
 585              		.cfi_def_cfa_offset 20
 586              		.cfi_offset 4, -20
 587              		.cfi_offset 5, -16
 588              		.cfi_offset 6, -12
 589              		.cfi_offset 7, -8
 590              		.cfi_offset 14, -4
 455:Code\Common\crypt/aes.c ****   // Copy input to output, and work in-memory on output
 456:Code\Common\crypt/aes.c **** //BlockCopy(output, input);
 457:Code\Common\crypt/aes.c ****   state = (state_t*)input;
 591              		.loc 1 457 0
 592 0002 2B4B     		ldr	r3, .L45
 454:Code\Common\crypt/aes.c ****   // Copy input to output, and work in-memory on output
 593              		.loc 1 454 0
 594 0004 87B0     		sub	sp, sp, #28
 595              		.cfi_def_cfa_offset 48
 596              		.loc 1 457 0
 597 0006 5863     		str	r0, [r3, #52]
 458:Code\Common\crypt/aes.c **** 
 459:Code\Common\crypt/aes.c ****   Key = key;
 598              		.loc 1 459 0
 599 0008 2A4B     		ldr	r3, .L45+4
 454:Code\Common\crypt/aes.c ****   // Copy input to output, and work in-memory on output
 600              		.loc 1 454 0
 601 000a 0700     		movs	r7, r0
 602              		.loc 1 459 0
 603 000c 1960     		str	r1, [r3]
ARM GAS  C:\Users\Administrator\AppData\Local\Temp\ccAZMG3P.s 			page 21


 460:Code\Common\crypt/aes.c ****   KeyExpansion();
 604              		.loc 1 460 0
 605 000e FFF7FEFF 		bl	KeyExpansion
 606              	.LVL38:
 607              	.LBB34:
 608              	.LBB35:
 396:Code\Common\crypt/aes.c ****   
 609              		.loc 1 396 0
 610 0012 0020     		movs	r0, #0
 611 0014 FFF7FEFF 		bl	AddRoundKey
 612              	.LVL39:
 401:Code\Common\crypt/aes.c ****   {
 613              		.loc 1 401 0
 614 0018 0125     		movs	r5, #1
 615              	.LVL40:
 616              	.L42:
 403:Code\Common\crypt/aes.c ****     ShiftRows();
 617              		.loc 1 403 0
 618 001a FFF7FEFF 		bl	SubBytes
 619              	.LVL41:
 404:Code\Common\crypt/aes.c ****     MixColumns();
 620              		.loc 1 404 0
 621 001e FFF7FEFF 		bl	ShiftRows
 622              	.LVL42:
 623 0022 3B00     		movs	r3, r7
 624 0024 3C00     		movs	r4, r7
 625 0026 1033     		adds	r3, r3, #16
 626 0028 0593     		str	r3, [sp, #20]
 627              	.LVL43:
 628              	.L41:
 629              	.LBB36:
 630              	.LBB37:
 296:Code\Common\crypt/aes.c ****     Tmp = (*state)[i][0] ^ (*state)[i][1] ^ (*state)[i][2] ^ (*state)[i][3] ;
 631              		.loc 1 296 0
 632 002a 2378     		ldrb	r3, [r4]
 633 002c 0093     		str	r3, [sp]
 634              	.LVL44:
 297:Code\Common\crypt/aes.c ****     Tm  = (*state)[i][0] ^ (*state)[i][1] ; Tm = xtime(Tm);  (*state)[i][0] ^= Tm ^ Tmp ;
 635              		.loc 1 297 0
 636 002e 0098     		ldr	r0, [sp]
 637 0030 6378     		ldrb	r3, [r4, #1]
 638 0032 5840     		eors	r0, r3
 639 0034 0193     		str	r3, [sp, #4]
 640 0036 A378     		ldrb	r3, [r4, #2]
 641 0038 0293     		str	r3, [sp, #8]
 642 003a E378     		ldrb	r3, [r4, #3]
 643 003c 0393     		str	r3, [sp, #12]
 644 003e 039A     		ldr	r2, [sp, #12]
 645 0040 029B     		ldr	r3, [sp, #8]
 646 0042 5340     		eors	r3, r2
 647 0044 1E00     		movs	r6, r3
 648 0046 0493     		str	r3, [sp, #16]
 649 0048 4640     		eors	r6, r0
 650              	.LVL45:
 298:Code\Common\crypt/aes.c ****     Tm  = (*state)[i][1] ^ (*state)[i][2] ; Tm = xtime(Tm);  (*state)[i][1] ^= Tm ^ Tmp ;
 651              		.loc 1 298 0
 652 004a FFF7FEFF 		bl	xtime
ARM GAS  C:\Users\Administrator\AppData\Local\Temp\ccAZMG3P.s 			page 22


 653              	.LVL46:
 654 004e 009B     		ldr	r3, [sp]
 655 0050 5840     		eors	r0, r3
 656              	.LVL47:
 657 0052 7040     		eors	r0, r6
 658 0054 2070     		strb	r0, [r4]
 299:Code\Common\crypt/aes.c ****     Tm  = (*state)[i][2] ^ (*state)[i][3] ; Tm = xtime(Tm);  (*state)[i][2] ^= Tm ^ Tmp ;
 659              		.loc 1 299 0
 660 0056 029B     		ldr	r3, [sp, #8]
 661 0058 0198     		ldr	r0, [sp, #4]
 662 005a 5840     		eors	r0, r3
 663              	.LVL48:
 664 005c FFF7FEFF 		bl	xtime
 665              	.LVL49:
 666 0060 019B     		ldr	r3, [sp, #4]
 667 0062 5840     		eors	r0, r3
 668              	.LVL50:
 669 0064 7040     		eors	r0, r6
 670 0066 6070     		strb	r0, [r4, #1]
 671              	.LVL51:
 300:Code\Common\crypt/aes.c ****     Tm  = (*state)[i][3] ^ t ;        Tm = xtime(Tm);  (*state)[i][3] ^= Tm ^ Tmp ;
 672              		.loc 1 300 0
 673 0068 0498     		ldr	r0, [sp, #16]
 674 006a FFF7FEFF 		bl	xtime
 675              	.LVL52:
 676 006e 029B     		ldr	r3, [sp, #8]
 677 0070 5840     		eors	r0, r3
 678              	.LVL53:
 679 0072 7040     		eors	r0, r6
 680 0074 A070     		strb	r0, [r4, #2]
 301:Code\Common\crypt/aes.c ****   }
 681              		.loc 1 301 0
 682 0076 039B     		ldr	r3, [sp, #12]
 683 0078 0098     		ldr	r0, [sp]
 684 007a 5840     		eors	r0, r3
 685              	.LVL54:
 686 007c FFF7FEFF 		bl	xtime
 687              	.LVL55:
 688 0080 039B     		ldr	r3, [sp, #12]
 689 0082 5840     		eors	r0, r3
 690              	.LVL56:
 691 0084 4640     		eors	r6, r0
 692              	.LVL57:
 294:Code\Common\crypt/aes.c ****   {  
 693              		.loc 1 294 0
 694 0086 059B     		ldr	r3, [sp, #20]
 301:Code\Common\crypt/aes.c ****   }
 695              		.loc 1 301 0
 696 0088 E670     		strb	r6, [r4, #3]
 697 008a 0434     		adds	r4, r4, #4
 294:Code\Common\crypt/aes.c ****   {  
 698              		.loc 1 294 0
 699 008c 9C42     		cmp	r4, r3
 700 008e CCD1     		bne	.L41
 701              	.LVL58:
 702              	.LBE37:
 703              	.LBE36:
ARM GAS  C:\Users\Administrator\AppData\Local\Temp\ccAZMG3P.s 			page 23


 406:Code\Common\crypt/aes.c ****   }
 704              		.loc 1 406 0
 705 0090 2800     		movs	r0, r5
 401:Code\Common\crypt/aes.c ****   {
 706              		.loc 1 401 0
 707 0092 0135     		adds	r5, r5, #1
 708              	.LVL59:
 709 0094 EDB2     		uxtb	r5, r5
 406:Code\Common\crypt/aes.c ****   }
 710              		.loc 1 406 0
 711 0096 FFF7FEFF 		bl	AddRoundKey
 712              	.LVL60:
 401:Code\Common\crypt/aes.c ****   {
 713              		.loc 1 401 0
 714 009a 0A2D     		cmp	r5, #10
 715 009c BDD1     		bne	.L42
 411:Code\Common\crypt/aes.c ****   ShiftRows();
 716              		.loc 1 411 0
 717 009e FFF7FEFF 		bl	SubBytes
 718              	.LVL61:
 412:Code\Common\crypt/aes.c ****   AddRoundKey(Nr);
 719              		.loc 1 412 0
 720 00a2 FFF7FEFF 		bl	ShiftRows
 721              	.LVL62:
 413:Code\Common\crypt/aes.c **** }
 722              		.loc 1 413 0
 723 00a6 2800     		movs	r0, r5
 724 00a8 FFF7FEFF 		bl	AddRoundKey
 725              	.LVL63:
 726              	.LBE35:
 727              	.LBE34:
 461:Code\Common\crypt/aes.c **** 
 462:Code\Common\crypt/aes.c ****   // The next function call encrypts the PlainText with the Key using AES algorithm.
 463:Code\Common\crypt/aes.c ****   Cipher();
 464:Code\Common\crypt/aes.c **** }
 728              		.loc 1 464 0
 729 00ac 07B0     		add	sp, sp, #28
 730              		@ sp needed
 731              	.LVL64:
 732 00ae F0BD     		pop	{r4, r5, r6, r7, pc}
 733              	.L46:
 734              		.align	2
 735              	.L45:
 736 00b0 80000000 		.word	.LANCHOR3
 737 00b4 00000000 		.word	.LANCHOR0
 738              		.cfi_endproc
 739              	.LFE77:
 740              		.size	AES128_ECB_encrypt, .-AES128_ECB_encrypt
 741              		.section	.text.AES128_ECB_decrypt,"ax",%progbits
 742              		.align	1
 743              		.global	AES128_ECB_decrypt
 744              		.code	16
 745              		.thumb_func
 746              		.type	AES128_ECB_decrypt, %function
 747              	AES128_ECB_decrypt:
 748              	.LFB78:
 465:Code\Common\crypt/aes.c **** 
ARM GAS  C:\Users\Administrator\AppData\Local\Temp\ccAZMG3P.s 			page 24


 466:Code\Common\crypt/aes.c **** void AES128_ECB_decrypt(uint8_t* input, const uint8_t* key, uint8_t *output)
 467:Code\Common\crypt/aes.c **** {
 749              		.loc 1 467 0
 750              		.cfi_startproc
 751              		@ args = 0, pretend = 0, frame = 64
 752              		@ frame_needed = 0, uses_anonymous_args = 0
 753              	.LVL65:
 754 0000 0023     		movs	r3, #0
 755 0002 F0B5     		push	{r4, r5, r6, r7, lr}
 756              		.cfi_def_cfa_offset 20
 757              		.cfi_offset 4, -20
 758              		.cfi_offset 5, -16
 759              		.cfi_offset 6, -12
 760              		.cfi_offset 7, -8
 761              		.cfi_offset 14, -4
 762 0004 91B0     		sub	sp, sp, #68
 763              		.cfi_def_cfa_offset 88
 764              	.LVL66:
 765              		.loc 1 467 0
 766 0006 0392     		str	r2, [sp, #12]
 767              	.LVL67:
 768              	.L48:
 769              	.LBB44:
 770              	.LBB45:
 446:Code\Common\crypt/aes.c ****   }
 771              		.loc 1 446 0
 772 0008 C25C     		ldrb	r2, [r0, r3]
 773 000a 039C     		ldr	r4, [sp, #12]
 774 000c E254     		strb	r2, [r4, r3]
 775              	.LVL68:
 776 000e 0133     		adds	r3, r3, #1
 777              	.LVL69:
 444:Code\Common\crypt/aes.c ****   {
 778              		.loc 1 444 0
 779 0010 102B     		cmp	r3, #16
 780 0012 F9D1     		bne	.L48
 781              	.LVL70:
 782              	.LBE45:
 783              	.LBE44:
 468:Code\Common\crypt/aes.c ****   // Copy input to output, and work in-memory on output
 469:Code\Common\crypt/aes.c ****   BlockCopy(output, input);
 470:Code\Common\crypt/aes.c ****   state = (state_t*)output;
 784              		.loc 1 470 0
 785 0014 514B     		ldr	r3, .L54
 786 0016 5C63     		str	r4, [r3, #52]
 471:Code\Common\crypt/aes.c **** 
 472:Code\Common\crypt/aes.c ****   // The KeyExpansion routine must be called before encryption.
 473:Code\Common\crypt/aes.c ****   Key = key;
 787              		.loc 1 473 0
 788 0018 514B     		ldr	r3, .L54+4
 789              	.LBB46:
 790              	.LBB47:
 426:Code\Common\crypt/aes.c ****   {
 791              		.loc 1 426 0
 792 001a 0924     		movs	r4, #9
 793              	.LBE47:
 794              	.LBE46:
ARM GAS  C:\Users\Administrator\AppData\Local\Temp\ccAZMG3P.s 			page 25


 795              		.loc 1 473 0
 796 001c 1960     		str	r1, [r3]
 474:Code\Common\crypt/aes.c ****   KeyExpansion();
 797              		.loc 1 474 0
 798 001e FFF7FEFF 		bl	KeyExpansion
 799              	.LVL71:
 800              	.LBB51:
 801              	.LBB50:
 421:Code\Common\crypt/aes.c **** 
 802              		.loc 1 421 0
 803 0022 0A20     		movs	r0, #10
 804 0024 FFF7FEFF 		bl	AddRoundKey
 805              	.LVL72:
 806              	.L50:
 428:Code\Common\crypt/aes.c ****     InvSubBytes();
 807              		.loc 1 428 0
 808 0028 FFF7FEFF 		bl	InvShiftRows
 809              	.LVL73:
 429:Code\Common\crypt/aes.c ****     AddRoundKey(round);
 810              		.loc 1 429 0
 811 002c FFF7FEFF 		bl	InvSubBytes
 812              	.LVL74:
 430:Code\Common\crypt/aes.c ****     InvMixColumns();
 813              		.loc 1 430 0
 814 0030 2000     		movs	r0, r4
 815 0032 FFF7FEFF 		bl	AddRoundKey
 816              	.LVL75:
 817 0036 039D     		ldr	r5, [sp, #12]
 818 0038 2B00     		movs	r3, r5
 819 003a 1033     		adds	r3, r3, #16
 820 003c 0F93     		str	r3, [sp, #60]
 821              	.LVL76:
 822              	.L49:
 823              	.LBB48:
 824              	.LBB49:
 334:Code\Common\crypt/aes.c ****     b = (*state)[i][1];
 825              		.loc 1 334 0
 826 003e 2B78     		ldrb	r3, [r5]
 827 0040 0793     		str	r3, [sp, #28]
 828              	.LVL77:
 335:Code\Common\crypt/aes.c ****     c = (*state)[i][2];
 829              		.loc 1 335 0
 830 0042 6B78     		ldrb	r3, [r5, #1]
 339:Code\Common\crypt/aes.c ****     (*state)[i][1] = Multiply(a, 0x09) ^ Multiply(b, 0x0e) ^ Multiply(c, 0x0b) ^ Multiply(d, 0x0d);
 831              		.loc 1 339 0
 832 0044 0798     		ldr	r0, [sp, #28]
 335:Code\Common\crypt/aes.c ****     c = (*state)[i][2];
 833              		.loc 1 335 0
 834 0046 0893     		str	r3, [sp, #32]
 835              	.LVL78:
 336:Code\Common\crypt/aes.c ****     d = (*state)[i][3];
 836              		.loc 1 336 0
 837 0048 AB78     		ldrb	r3, [r5, #2]
 838 004a 0193     		str	r3, [sp, #4]
 839              	.LVL79:
 337:Code\Common\crypt/aes.c **** 
 840              		.loc 1 337 0
ARM GAS  C:\Users\Administrator\AppData\Local\Temp\ccAZMG3P.s 			page 26


 841 004c EB78     		ldrb	r3, [r5, #3]
 842 004e 0293     		str	r3, [sp, #8]
 843              	.LVL80:
 339:Code\Common\crypt/aes.c ****     (*state)[i][1] = Multiply(a, 0x09) ^ Multiply(b, 0x0e) ^ Multiply(c, 0x0b) ^ Multiply(d, 0x0d);
 844              		.loc 1 339 0
 845 0050 FFF7FEFF 		bl	xtime
 846              	.LVL81:
 847 0054 0990     		str	r0, [sp, #36]
 848 0056 FFF7FEFF 		bl	xtime
 849              	.LVL82:
 850 005a 0A90     		str	r0, [sp, #40]
 851 005c FFF7FEFF 		bl	xtime
 852              	.LVL83:
 853 0060 0490     		str	r0, [sp, #16]
 854 0062 0898     		ldr	r0, [sp, #32]
 855 0064 FFF7FEFF 		bl	xtime
 856              	.LVL84:
 857 0068 0B90     		str	r0, [sp, #44]
 858 006a FFF7FEFF 		bl	xtime
 859              	.LVL85:
 860 006e 0C90     		str	r0, [sp, #48]
 861 0070 FFF7FEFF 		bl	xtime
 862              	.LVL86:
 863 0074 0590     		str	r0, [sp, #20]
 864 0076 0198     		ldr	r0, [sp, #4]
 865 0078 FFF7FEFF 		bl	xtime
 866              	.LVL87:
 867 007c 0700     		movs	r7, r0
 868 007e FFF7FEFF 		bl	xtime
 869              	.LVL88:
 870 0082 0600     		movs	r6, r0
 871 0084 FFF7FEFF 		bl	xtime
 872              	.LVL89:
 873 0088 0690     		str	r0, [sp, #24]
 874 008a 0298     		ldr	r0, [sp, #8]
 875 008c FFF7FEFF 		bl	xtime
 876              	.LVL90:
 877 0090 0D90     		str	r0, [sp, #52]
 878 0092 FFF7FEFF 		bl	xtime
 879              	.LVL91:
 880 0096 0E90     		str	r0, [sp, #56]
 881 0098 FFF7FEFF 		bl	xtime
 882              	.LVL92:
 883 009c 0A9A     		ldr	r2, [sp, #40]
 884 009e 099B     		ldr	r3, [sp, #36]
 885 00a0 5340     		eors	r3, r2
 886 00a2 049A     		ldr	r2, [sp, #16]
 887 00a4 5340     		eors	r3, r2
 888 00a6 0B9A     		ldr	r2, [sp, #44]
 889 00a8 5340     		eors	r3, r2
 890 00aa 059A     		ldr	r2, [sp, #20]
 891 00ac 5340     		eors	r3, r2
 892 00ae 069A     		ldr	r2, [sp, #24]
 893 00b0 7340     		eors	r3, r6
 894 00b2 5340     		eors	r3, r2
 895 00b4 089A     		ldr	r2, [sp, #32]
 896 00b6 4340     		eors	r3, r0
ARM GAS  C:\Users\Administrator\AppData\Local\Temp\ccAZMG3P.s 			page 27


 897 00b8 5340     		eors	r3, r2
 898 00ba 019A     		ldr	r2, [sp, #4]
 899 00bc 5340     		eors	r3, r2
 900 00be 029A     		ldr	r2, [sp, #8]
 901 00c0 5340     		eors	r3, r2
 902 00c2 2B70     		strb	r3, [r5]
 340:Code\Common\crypt/aes.c ****     (*state)[i][2] = Multiply(a, 0x0d) ^ Multiply(b, 0x09) ^ Multiply(c, 0x0e) ^ Multiply(d, 0x0b);
 903              		.loc 1 340 0
 904 00c4 049A     		ldr	r2, [sp, #16]
 905 00c6 0B9B     		ldr	r3, [sp, #44]
 906 00c8 5340     		eors	r3, r2
 907 00ca 0C9A     		ldr	r2, [sp, #48]
 341:Code\Common\crypt/aes.c ****     (*state)[i][3] = Multiply(a, 0x0b) ^ Multiply(b, 0x0d) ^ Multiply(c, 0x09) ^ Multiply(d, 0x0e);
 908              		.loc 1 341 0
 909 00cc 0499     		ldr	r1, [sp, #16]
 340:Code\Common\crypt/aes.c ****     (*state)[i][2] = Multiply(a, 0x0d) ^ Multiply(b, 0x09) ^ Multiply(c, 0x0e) ^ Multiply(d, 0x0b);
 910              		.loc 1 340 0
 911 00ce 5340     		eors	r3, r2
 912 00d0 059A     		ldr	r2, [sp, #20]
 913 00d2 5340     		eors	r3, r2
 914 00d4 069A     		ldr	r2, [sp, #24]
 915 00d6 7B40     		eors	r3, r7
 916 00d8 5340     		eors	r3, r2
 917 00da 0E9A     		ldr	r2, [sp, #56]
 918 00dc 5340     		eors	r3, r2
 919 00de 079A     		ldr	r2, [sp, #28]
 920 00e0 4340     		eors	r3, r0
 921 00e2 5340     		eors	r3, r2
 922 00e4 019A     		ldr	r2, [sp, #4]
 923 00e6 5340     		eors	r3, r2
 924 00e8 029A     		ldr	r2, [sp, #8]
 925 00ea 5340     		eors	r3, r2
 926 00ec 6B70     		strb	r3, [r5, #1]
 927 00ee 089A     		ldr	r2, [sp, #32]
 928 00f0 079B     		ldr	r3, [sp, #28]
 929 00f2 5A40     		eors	r2, r3
 341:Code\Common\crypt/aes.c ****     (*state)[i][3] = Multiply(a, 0x0b) ^ Multiply(b, 0x0d) ^ Multiply(c, 0x09) ^ Multiply(d, 0x0e);
 930              		.loc 1 341 0
 931 00f4 0A9B     		ldr	r3, [sp, #40]
 932 00f6 4B40     		eors	r3, r1
 933 00f8 0599     		ldr	r1, [sp, #20]
 934 00fa 4B40     		eors	r3, r1
 935 00fc 5F40     		eors	r7, r3
 936 00fe 069B     		ldr	r3, [sp, #24]
 937 0100 7E40     		eors	r6, r7
 938 0102 5E40     		eors	r6, r3
 939 0104 0D9B     		ldr	r3, [sp, #52]
 342:Code\Common\crypt/aes.c ****   }
 940              		.loc 1 342 0
 941 0106 0499     		ldr	r1, [sp, #16]
 341:Code\Common\crypt/aes.c ****     (*state)[i][3] = Multiply(a, 0x0b) ^ Multiply(b, 0x0d) ^ Multiply(c, 0x09) ^ Multiply(d, 0x0e);
 942              		.loc 1 341 0
 943 0108 5E40     		eors	r6, r3
 944 010a 029B     		ldr	r3, [sp, #8]
 945 010c 4640     		eors	r6, r0
 946 010e 5E40     		eors	r6, r3
 342:Code\Common\crypt/aes.c ****   }
ARM GAS  C:\Users\Administrator\AppData\Local\Temp\ccAZMG3P.s 			page 28


 947              		.loc 1 342 0
 948 0110 099B     		ldr	r3, [sp, #36]
 341:Code\Common\crypt/aes.c ****     (*state)[i][3] = Multiply(a, 0x0b) ^ Multiply(b, 0x0d) ^ Multiply(c, 0x09) ^ Multiply(d, 0x0e);
 949              		.loc 1 341 0
 950 0112 5640     		eors	r6, r2
 342:Code\Common\crypt/aes.c ****   }
 951              		.loc 1 342 0
 952 0114 4B40     		eors	r3, r1
 953 0116 0C99     		ldr	r1, [sp, #48]
 341:Code\Common\crypt/aes.c ****     (*state)[i][3] = Multiply(a, 0x0b) ^ Multiply(b, 0x0d) ^ Multiply(c, 0x09) ^ Multiply(d, 0x0e);
 954              		.loc 1 341 0
 955 0118 AE70     		strb	r6, [r5, #2]
 342:Code\Common\crypt/aes.c ****   }
 956              		.loc 1 342 0
 957 011a 4B40     		eors	r3, r1
 958 011c 0599     		ldr	r1, [sp, #20]
 959 011e 4B40     		eors	r3, r1
 960 0120 0699     		ldr	r1, [sp, #24]
 961 0122 4B40     		eors	r3, r1
 962 0124 0D99     		ldr	r1, [sp, #52]
 963 0126 4B40     		eors	r3, r1
 964 0128 0E99     		ldr	r1, [sp, #56]
 965 012a 4B40     		eors	r3, r1
 966 012c 5840     		eors	r0, r3
 967 012e 019B     		ldr	r3, [sp, #4]
 968 0130 5840     		eors	r0, r3
 969 0132 5040     		eors	r0, r2
 332:Code\Common\crypt/aes.c ****   { 
 970              		.loc 1 332 0
 971 0134 0F9B     		ldr	r3, [sp, #60]
 342:Code\Common\crypt/aes.c ****   }
 972              		.loc 1 342 0
 973 0136 E870     		strb	r0, [r5, #3]
 974 0138 0435     		adds	r5, r5, #4
 332:Code\Common\crypt/aes.c ****   { 
 975              		.loc 1 332 0
 976 013a AB42     		cmp	r3, r5
 977 013c 00D0     		beq	.LCB832
 978 013e 7EE7     		b	.L49	@long jump
 979              	.LCB832:
 980              	.LVL93:
 981              	.LBE49:
 982              	.LBE48:
 426:Code\Common\crypt/aes.c ****   {
 983              		.loc 1 426 0
 984 0140 631E     		subs	r3, r4, #1
 985 0142 DCB2     		uxtb	r4, r3
 986              	.LVL94:
 987 0144 002C     		cmp	r4, #0
 988 0146 00D0     		beq	.LCB845
 989 0148 6EE7     		b	.L50	@long jump
 990              	.LCB845:
 436:Code\Common\crypt/aes.c ****   InvSubBytes();
 991              		.loc 1 436 0
 992 014a FFF7FEFF 		bl	InvShiftRows
 993              	.LVL95:
 437:Code\Common\crypt/aes.c ****   AddRoundKey(0);
ARM GAS  C:\Users\Administrator\AppData\Local\Temp\ccAZMG3P.s 			page 29


 994              		.loc 1 437 0
 995 014e FFF7FEFF 		bl	InvSubBytes
 996              	.LVL96:
 438:Code\Common\crypt/aes.c **** }
 997              		.loc 1 438 0
 998 0152 2000     		movs	r0, r4
 999 0154 FFF7FEFF 		bl	AddRoundKey
 1000              	.LVL97:
 1001              	.LBE50:
 1002              	.LBE51:
 475:Code\Common\crypt/aes.c **** 
 476:Code\Common\crypt/aes.c ****   InvCipher();
 477:Code\Common\crypt/aes.c **** }
 1003              		.loc 1 477 0
 1004 0158 11B0     		add	sp, sp, #68
 1005              		@ sp needed
 1006 015a F0BD     		pop	{r4, r5, r6, r7, pc}
 1007              	.L55:
 1008              		.align	2
 1009              	.L54:
 1010 015c 80000000 		.word	.LANCHOR3
 1011 0160 00000000 		.word	.LANCHOR0
 1012              		.cfi_endproc
 1013              	.LFE78:
 1014              		.size	AES128_ECB_decrypt, .-AES128_ECB_decrypt
 1015              		.section	.rodata
 1016              		.set	.LANCHOR1,. + 0
 1017              		.set	.LANCHOR2,. + 256
 1018              		.type	sbox, %object
 1019              		.size	sbox, 256
 1020              	sbox:
 1021 0000 63       		.byte	99
 1022 0001 7C       		.byte	124
 1023 0002 77       		.byte	119
 1024 0003 7B       		.byte	123
 1025 0004 F2       		.byte	-14
 1026 0005 6B       		.byte	107
 1027 0006 6F       		.byte	111
 1028 0007 C5       		.byte	-59
 1029 0008 30       		.byte	48
 1030 0009 01       		.byte	1
 1031 000a 67       		.byte	103
 1032 000b 2B       		.byte	43
 1033 000c FE       		.byte	-2
 1034 000d D7       		.byte	-41
 1035 000e AB       		.byte	-85
 1036 000f 76       		.byte	118
 1037 0010 CA       		.byte	-54
 1038 0011 82       		.byte	-126
 1039 0012 C9       		.byte	-55
 1040 0013 7D       		.byte	125
 1041 0014 FA       		.byte	-6
 1042 0015 59       		.byte	89
 1043 0016 47       		.byte	71
 1044 0017 F0       		.byte	-16
 1045 0018 AD       		.byte	-83
 1046 0019 D4       		.byte	-44
ARM GAS  C:\Users\Administrator\AppData\Local\Temp\ccAZMG3P.s 			page 30


 1047 001a A2       		.byte	-94
 1048 001b AF       		.byte	-81
 1049 001c 9C       		.byte	-100
 1050 001d A4       		.byte	-92
 1051 001e 72       		.byte	114
 1052 001f C0       		.byte	-64
 1053 0020 B7       		.byte	-73
 1054 0021 FD       		.byte	-3
 1055 0022 93       		.byte	-109
 1056 0023 26       		.byte	38
 1057 0024 36       		.byte	54
 1058 0025 3F       		.byte	63
 1059 0026 F7       		.byte	-9
 1060 0027 CC       		.byte	-52
 1061 0028 34       		.byte	52
 1062 0029 A5       		.byte	-91
 1063 002a E5       		.byte	-27
 1064 002b F1       		.byte	-15
 1065 002c 71       		.byte	113
 1066 002d D8       		.byte	-40
 1067 002e 31       		.byte	49
 1068 002f 15       		.byte	21
 1069 0030 04       		.byte	4
 1070 0031 C7       		.byte	-57
 1071 0032 23       		.byte	35
 1072 0033 C3       		.byte	-61
 1073 0034 18       		.byte	24
 1074 0035 96       		.byte	-106
 1075 0036 05       		.byte	5
 1076 0037 9A       		.byte	-102
 1077 0038 07       		.byte	7
 1078 0039 12       		.byte	18
 1079 003a 80       		.byte	-128
 1080 003b E2       		.byte	-30
 1081 003c EB       		.byte	-21
 1082 003d 27       		.byte	39
 1083 003e B2       		.byte	-78
 1084 003f 75       		.byte	117
 1085 0040 09       		.byte	9
 1086 0041 83       		.byte	-125
 1087 0042 2C       		.byte	44
 1088 0043 1A       		.byte	26
 1089 0044 1B       		.byte	27
 1090 0045 6E       		.byte	110
 1091 0046 5A       		.byte	90
 1092 0047 A0       		.byte	-96
 1093 0048 52       		.byte	82
 1094 0049 3B       		.byte	59
 1095 004a D6       		.byte	-42
 1096 004b B3       		.byte	-77
 1097 004c 29       		.byte	41
 1098 004d E3       		.byte	-29
 1099 004e 2F       		.byte	47
 1100 004f 84       		.byte	-124
 1101 0050 53       		.byte	83
 1102 0051 D1       		.byte	-47
 1103 0052 00       		.byte	0
ARM GAS  C:\Users\Administrator\AppData\Local\Temp\ccAZMG3P.s 			page 31


 1104 0053 ED       		.byte	-19
 1105 0054 20       		.byte	32
 1106 0055 FC       		.byte	-4
 1107 0056 B1       		.byte	-79
 1108 0057 5B       		.byte	91
 1109 0058 6A       		.byte	106
 1110 0059 CB       		.byte	-53
 1111 005a BE       		.byte	-66
 1112 005b 39       		.byte	57
 1113 005c 4A       		.byte	74
 1114 005d 4C       		.byte	76
 1115 005e 58       		.byte	88
 1116 005f CF       		.byte	-49
 1117 0060 D0       		.byte	-48
 1118 0061 EF       		.byte	-17
 1119 0062 AA       		.byte	-86
 1120 0063 FB       		.byte	-5
 1121 0064 43       		.byte	67
 1122 0065 4D       		.byte	77
 1123 0066 33       		.byte	51
 1124 0067 85       		.byte	-123
 1125 0068 45       		.byte	69
 1126 0069 F9       		.byte	-7
 1127 006a 02       		.byte	2
 1128 006b 7F       		.byte	127
 1129 006c 50       		.byte	80
 1130 006d 3C       		.byte	60
 1131 006e 9F       		.byte	-97
 1132 006f A8       		.byte	-88
 1133 0070 51       		.byte	81
 1134 0071 A3       		.byte	-93
 1135 0072 40       		.byte	64
 1136 0073 8F       		.byte	-113
 1137 0074 92       		.byte	-110
 1138 0075 9D       		.byte	-99
 1139 0076 38       		.byte	56
 1140 0077 F5       		.byte	-11
 1141 0078 BC       		.byte	-68
 1142 0079 B6       		.byte	-74
 1143 007a DA       		.byte	-38
 1144 007b 21       		.byte	33
 1145 007c 10       		.byte	16
 1146 007d FF       		.byte	-1
 1147 007e F3       		.byte	-13
 1148 007f D2       		.byte	-46
 1149 0080 CD       		.byte	-51
 1150 0081 0C       		.byte	12
 1151 0082 13       		.byte	19
 1152 0083 EC       		.byte	-20
 1153 0084 5F       		.byte	95
 1154 0085 97       		.byte	-105
 1155 0086 44       		.byte	68
 1156 0087 17       		.byte	23
 1157 0088 C4       		.byte	-60
 1158 0089 A7       		.byte	-89
 1159 008a 7E       		.byte	126
 1160 008b 3D       		.byte	61
ARM GAS  C:\Users\Administrator\AppData\Local\Temp\ccAZMG3P.s 			page 32


 1161 008c 64       		.byte	100
 1162 008d 5D       		.byte	93
 1163 008e 19       		.byte	25
 1164 008f 73       		.byte	115
 1165 0090 60       		.byte	96
 1166 0091 81       		.byte	-127
 1167 0092 4F       		.byte	79
 1168 0093 DC       		.byte	-36
 1169 0094 22       		.byte	34
 1170 0095 2A       		.byte	42
 1171 0096 90       		.byte	-112
 1172 0097 88       		.byte	-120
 1173 0098 46       		.byte	70
 1174 0099 EE       		.byte	-18
 1175 009a B8       		.byte	-72
 1176 009b 14       		.byte	20
 1177 009c DE       		.byte	-34
 1178 009d 5E       		.byte	94
 1179 009e 0B       		.byte	11
 1180 009f DB       		.byte	-37
 1181 00a0 E0       		.byte	-32
 1182 00a1 32       		.byte	50
 1183 00a2 3A       		.byte	58
 1184 00a3 0A       		.byte	10
 1185 00a4 49       		.byte	73
 1186 00a5 06       		.byte	6
 1187 00a6 24       		.byte	36
 1188 00a7 5C       		.byte	92
 1189 00a8 C2       		.byte	-62
 1190 00a9 D3       		.byte	-45
 1191 00aa AC       		.byte	-84
 1192 00ab 62       		.byte	98
 1193 00ac 91       		.byte	-111
 1194 00ad 95       		.byte	-107
 1195 00ae E4       		.byte	-28
 1196 00af 79       		.byte	121
 1197 00b0 E7       		.byte	-25
 1198 00b1 C8       		.byte	-56
 1199 00b2 37       		.byte	55
 1200 00b3 6D       		.byte	109
 1201 00b4 8D       		.byte	-115
 1202 00b5 D5       		.byte	-43
 1203 00b6 4E       		.byte	78
 1204 00b7 A9       		.byte	-87
 1205 00b8 6C       		.byte	108
 1206 00b9 56       		.byte	86
 1207 00ba F4       		.byte	-12
 1208 00bb EA       		.byte	-22
 1209 00bc 65       		.byte	101
 1210 00bd 7A       		.byte	122
 1211 00be AE       		.byte	-82
 1212 00bf 08       		.byte	8
 1213 00c0 BA       		.byte	-70
 1214 00c1 78       		.byte	120
 1215 00c2 25       		.byte	37
 1216 00c3 2E       		.byte	46
 1217 00c4 1C       		.byte	28
ARM GAS  C:\Users\Administrator\AppData\Local\Temp\ccAZMG3P.s 			page 33


 1218 00c5 A6       		.byte	-90
 1219 00c6 B4       		.byte	-76
 1220 00c7 C6       		.byte	-58
 1221 00c8 E8       		.byte	-24
 1222 00c9 DD       		.byte	-35
 1223 00ca 74       		.byte	116
 1224 00cb 1F       		.byte	31
 1225 00cc 4B       		.byte	75
 1226 00cd BD       		.byte	-67
 1227 00ce 8B       		.byte	-117
 1228 00cf 8A       		.byte	-118
 1229 00d0 70       		.byte	112
 1230 00d1 3E       		.byte	62
 1231 00d2 B5       		.byte	-75
 1232 00d3 66       		.byte	102
 1233 00d4 48       		.byte	72
 1234 00d5 03       		.byte	3
 1235 00d6 F6       		.byte	-10
 1236 00d7 0E       		.byte	14
 1237 00d8 61       		.byte	97
 1238 00d9 35       		.byte	53
 1239 00da 57       		.byte	87
 1240 00db B9       		.byte	-71
 1241 00dc 86       		.byte	-122
 1242 00dd C1       		.byte	-63
 1243 00de 1D       		.byte	29
 1244 00df 9E       		.byte	-98
 1245 00e0 E1       		.byte	-31
 1246 00e1 F8       		.byte	-8
 1247 00e2 98       		.byte	-104
 1248 00e3 11       		.byte	17
 1249 00e4 69       		.byte	105
 1250 00e5 D9       		.byte	-39
 1251 00e6 8E       		.byte	-114
 1252 00e7 94       		.byte	-108
 1253 00e8 9B       		.byte	-101
 1254 00e9 1E       		.byte	30
 1255 00ea 87       		.byte	-121
 1256 00eb E9       		.byte	-23
 1257 00ec CE       		.byte	-50
 1258 00ed 55       		.byte	85
 1259 00ee 28       		.byte	40
 1260 00ef DF       		.byte	-33
 1261 00f0 8C       		.byte	-116
 1262 00f1 A1       		.byte	-95
 1263 00f2 89       		.byte	-119
 1264 00f3 0D       		.byte	13
 1265 00f4 BF       		.byte	-65
 1266 00f5 E6       		.byte	-26
 1267 00f6 42       		.byte	66
 1268 00f7 68       		.byte	104
 1269 00f8 41       		.byte	65
 1270 00f9 99       		.byte	-103
 1271 00fa 2D       		.byte	45
 1272 00fb 0F       		.byte	15
 1273 00fc B0       		.byte	-80
 1274 00fd 54       		.byte	84
ARM GAS  C:\Users\Administrator\AppData\Local\Temp\ccAZMG3P.s 			page 34


 1275 00fe BB       		.byte	-69
 1276 00ff 16       		.byte	22
 1277              		.type	Rcon, %object
 1278              		.size	Rcon, 16
 1279              	Rcon:
 1280 0100 EF       		.byte	-17
 1281 0101 3A       		.byte	58
 1282 0102 19       		.byte	25
 1283 0103 3D       		.byte	61
 1284 0104 CA       		.byte	-54
 1285 0105 0B       		.byte	11
 1286 0106 36       		.byte	54
 1287 0107 89       		.byte	-119
 1288 0108 A8       		.byte	-88
 1289 0109 61       		.byte	97
 1290 010a F6       		.byte	-10
 1291 010b 6C       		.byte	108
 1292 010c D8       		.byte	-40
 1293 010d AB       		.byte	-85
 1294 010e 4D       		.byte	77
 1295 010f 9A       		.byte	-102
 1296              		.type	rsbox, %object
 1297              		.size	rsbox, 256
 1298              	rsbox:
 1299 0110 52       		.byte	82
 1300 0111 09       		.byte	9
 1301 0112 6A       		.byte	106
 1302 0113 D5       		.byte	-43
 1303 0114 30       		.byte	48
 1304 0115 36       		.byte	54
 1305 0116 A5       		.byte	-91
 1306 0117 38       		.byte	56
 1307 0118 BF       		.byte	-65
 1308 0119 40       		.byte	64
 1309 011a A3       		.byte	-93
 1310 011b 9E       		.byte	-98
 1311 011c 81       		.byte	-127
 1312 011d F3       		.byte	-13
 1313 011e D7       		.byte	-41
 1314 011f FB       		.byte	-5
 1315 0120 7C       		.byte	124
 1316 0121 E3       		.byte	-29
 1317 0122 39       		.byte	57
 1318 0123 82       		.byte	-126
 1319 0124 9B       		.byte	-101
 1320 0125 2F       		.byte	47
 1321 0126 FF       		.byte	-1
 1322 0127 87       		.byte	-121
 1323 0128 34       		.byte	52
 1324 0129 8E       		.byte	-114
 1325 012a 43       		.byte	67
 1326 012b 44       		.byte	68
 1327 012c C4       		.byte	-60
 1328 012d DE       		.byte	-34
 1329 012e E9       		.byte	-23
 1330 012f CB       		.byte	-53
 1331 0130 54       		.byte	84
ARM GAS  C:\Users\Administrator\AppData\Local\Temp\ccAZMG3P.s 			page 35


 1332 0131 7B       		.byte	123
 1333 0132 94       		.byte	-108
 1334 0133 32       		.byte	50
 1335 0134 A6       		.byte	-90
 1336 0135 C2       		.byte	-62
 1337 0136 23       		.byte	35
 1338 0137 3D       		.byte	61
 1339 0138 EE       		.byte	-18
 1340 0139 4C       		.byte	76
 1341 013a 95       		.byte	-107
 1342 013b 0B       		.byte	11
 1343 013c 42       		.byte	66
 1344 013d FA       		.byte	-6
 1345 013e C3       		.byte	-61
 1346 013f 4E       		.byte	78
 1347 0140 08       		.byte	8
 1348 0141 2E       		.byte	46
 1349 0142 A1       		.byte	-95
 1350 0143 66       		.byte	102
 1351 0144 28       		.byte	40
 1352 0145 D9       		.byte	-39
 1353 0146 24       		.byte	36
 1354 0147 B2       		.byte	-78
 1355 0148 76       		.byte	118
 1356 0149 5B       		.byte	91
 1357 014a A2       		.byte	-94
 1358 014b 49       		.byte	73
 1359 014c 6D       		.byte	109
 1360 014d 8B       		.byte	-117
 1361 014e D1       		.byte	-47
 1362 014f 25       		.byte	37
 1363 0150 72       		.byte	114
 1364 0151 F8       		.byte	-8
 1365 0152 F6       		.byte	-10
 1366 0153 64       		.byte	100
 1367 0154 86       		.byte	-122
 1368 0155 68       		.byte	104
 1369 0156 98       		.byte	-104
 1370 0157 16       		.byte	22
 1371 0158 D4       		.byte	-44
 1372 0159 A4       		.byte	-92
 1373 015a 5C       		.byte	92
 1374 015b CC       		.byte	-52
 1375 015c 5D       		.byte	93
 1376 015d 65       		.byte	101
 1377 015e B6       		.byte	-74
 1378 015f 92       		.byte	-110
 1379 0160 6C       		.byte	108
 1380 0161 70       		.byte	112
 1381 0162 48       		.byte	72
 1382 0163 50       		.byte	80
 1383 0164 FD       		.byte	-3
 1384 0165 ED       		.byte	-19
 1385 0166 B9       		.byte	-71
 1386 0167 DA       		.byte	-38
 1387 0168 5E       		.byte	94
 1388 0169 15       		.byte	21
ARM GAS  C:\Users\Administrator\AppData\Local\Temp\ccAZMG3P.s 			page 36


 1389 016a 46       		.byte	70
 1390 016b 57       		.byte	87
 1391 016c A7       		.byte	-89
 1392 016d 8D       		.byte	-115
 1393 016e 9D       		.byte	-99
 1394 016f 84       		.byte	-124
 1395 0170 90       		.byte	-112
 1396 0171 D8       		.byte	-40
 1397 0172 AB       		.byte	-85
 1398 0173 00       		.byte	0
 1399 0174 8C       		.byte	-116
 1400 0175 BC       		.byte	-68
 1401 0176 D3       		.byte	-45
 1402 0177 0A       		.byte	10
 1403 0178 F7       		.byte	-9
 1404 0179 E4       		.byte	-28
 1405 017a 58       		.byte	88
 1406 017b 05       		.byte	5
 1407 017c B8       		.byte	-72
 1408 017d B3       		.byte	-77
 1409 017e 45       		.byte	69
 1410 017f 06       		.byte	6
 1411 0180 D0       		.byte	-48
 1412 0181 2C       		.byte	44
 1413 0182 1E       		.byte	30
 1414 0183 8F       		.byte	-113
 1415 0184 CA       		.byte	-54
 1416 0185 3F       		.byte	63
 1417 0186 0F       		.byte	15
 1418 0187 02       		.byte	2
 1419 0188 C1       		.byte	-63
 1420 0189 AF       		.byte	-81
 1421 018a BD       		.byte	-67
 1422 018b 03       		.byte	3
 1423 018c 01       		.byte	1
 1424 018d 13       		.byte	19
 1425 018e 8A       		.byte	-118
 1426 018f 6B       		.byte	107
 1427 0190 3A       		.byte	58
 1428 0191 91       		.byte	-111
 1429 0192 11       		.byte	17
 1430 0193 41       		.byte	65
 1431 0194 4F       		.byte	79
 1432 0195 67       		.byte	103
 1433 0196 DC       		.byte	-36
 1434 0197 EA       		.byte	-22
 1435 0198 97       		.byte	-105
 1436 0199 F2       		.byte	-14
 1437 019a CF       		.byte	-49
 1438 019b CE       		.byte	-50
 1439 019c F0       		.byte	-16
 1440 019d B4       		.byte	-76
 1441 019e E6       		.byte	-26
 1442 019f 73       		.byte	115
 1443 01a0 96       		.byte	-106
 1444 01a1 AC       		.byte	-84
 1445 01a2 74       		.byte	116
ARM GAS  C:\Users\Administrator\AppData\Local\Temp\ccAZMG3P.s 			page 37


 1446 01a3 22       		.byte	34
 1447 01a4 E7       		.byte	-25
 1448 01a5 AD       		.byte	-83
 1449 01a6 35       		.byte	53
 1450 01a7 85       		.byte	-123
 1451 01a8 E2       		.byte	-30
 1452 01a9 F9       		.byte	-7
 1453 01aa 37       		.byte	55
 1454 01ab E8       		.byte	-24
 1455 01ac 1C       		.byte	28
 1456 01ad 75       		.byte	117
 1457 01ae DF       		.byte	-33
 1458 01af 6E       		.byte	110
 1459 01b0 47       		.byte	71
 1460 01b1 F1       		.byte	-15
 1461 01b2 1A       		.byte	26
 1462 01b3 71       		.byte	113
 1463 01b4 1D       		.byte	29
 1464 01b5 29       		.byte	41
 1465 01b6 C5       		.byte	-59
 1466 01b7 89       		.byte	-119
 1467 01b8 6F       		.byte	111
 1468 01b9 B7       		.byte	-73
 1469 01ba 62       		.byte	98
 1470 01bb 0E       		.byte	14
 1471 01bc AA       		.byte	-86
 1472 01bd 18       		.byte	24
 1473 01be BE       		.byte	-66
 1474 01bf 1B       		.byte	27
 1475 01c0 FC       		.byte	-4
 1476 01c1 56       		.byte	86
 1477 01c2 3E       		.byte	62
 1478 01c3 4B       		.byte	75
 1479 01c4 C6       		.byte	-58
 1480 01c5 D2       		.byte	-46
 1481 01c6 79       		.byte	121
 1482 01c7 20       		.byte	32
 1483 01c8 9A       		.byte	-102
 1484 01c9 DB       		.byte	-37
 1485 01ca C0       		.byte	-64
 1486 01cb FE       		.byte	-2
 1487 01cc 78       		.byte	120
 1488 01cd CD       		.byte	-51
 1489 01ce 5A       		.byte	90
 1490 01cf F4       		.byte	-12
 1491 01d0 1F       		.byte	31
 1492 01d1 DD       		.byte	-35
 1493 01d2 A8       		.byte	-88
 1494 01d3 33       		.byte	51
 1495 01d4 88       		.byte	-120
 1496 01d5 07       		.byte	7
 1497 01d6 C7       		.byte	-57
 1498 01d7 31       		.byte	49
 1499 01d8 B1       		.byte	-79
 1500 01d9 12       		.byte	18
 1501 01da 10       		.byte	16
 1502 01db 59       		.byte	89
ARM GAS  C:\Users\Administrator\AppData\Local\Temp\ccAZMG3P.s 			page 38


 1503 01dc 27       		.byte	39
 1504 01dd 80       		.byte	-128
 1505 01de EC       		.byte	-20
 1506 01df 5F       		.byte	95
 1507 01e0 60       		.byte	96
 1508 01e1 51       		.byte	81
 1509 01e2 7F       		.byte	127
 1510 01e3 A9       		.byte	-87
 1511 01e4 19       		.byte	25
 1512 01e5 B5       		.byte	-75
 1513 01e6 4A       		.byte	74
 1514 01e7 0D       		.byte	13
 1515 01e8 2D       		.byte	45
 1516 01e9 E5       		.byte	-27
 1517 01ea 7A       		.byte	122
 1518 01eb 9F       		.byte	-97
 1519 01ec 93       		.byte	-109
 1520 01ed C9       		.byte	-55
 1521 01ee 9C       		.byte	-100
 1522 01ef EF       		.byte	-17
 1523 01f0 A0       		.byte	-96
 1524 01f1 E0       		.byte	-32
 1525 01f2 3B       		.byte	59
 1526 01f3 4D       		.byte	77
 1527 01f4 AE       		.byte	-82
 1528 01f5 2A       		.byte	42
 1529 01f6 F5       		.byte	-11
 1530 01f7 B0       		.byte	-80
 1531 01f8 C8       		.byte	-56
 1532 01f9 EB       		.byte	-21
 1533 01fa BB       		.byte	-69
 1534 01fb 3C       		.byte	60
 1535 01fc 83       		.byte	-125
 1536 01fd 53       		.byte	83
 1537 01fe 99       		.byte	-103
 1538 01ff 61       		.byte	97
 1539 0200 17       		.byte	23
 1540 0201 2B       		.byte	43
 1541 0202 04       		.byte	4
 1542 0203 7E       		.byte	126
 1543 0204 BA       		.byte	-70
 1544 0205 77       		.byte	119
 1545 0206 D6       		.byte	-42
 1546 0207 26       		.byte	38
 1547 0208 E1       		.byte	-31
 1548 0209 69       		.byte	105
 1549 020a 14       		.byte	20
 1550 020b 63       		.byte	99
 1551 020c 55       		.byte	85
 1552 020d 21       		.byte	33
 1553 020e 0C       		.byte	12
 1554 020f 7D       		.byte	125
 1555              		.bss
 1556              		.align	2
 1557              		.set	.LANCHOR0,. + 0
 1558              		.set	.LANCHOR3,. + 128
 1559              		.type	Key, %object
ARM GAS  C:\Users\Administrator\AppData\Local\Temp\ccAZMG3P.s 			page 39


 1560              		.size	Key, 4
 1561              	Key:
 1562 0000 00000000 		.space	4
 1563              		.type	RoundKey, %object
 1564              		.size	RoundKey, 176
 1565              	RoundKey:
 1566 0004 00000000 		.space	176
 1566      00000000 
 1566      00000000 
 1566      00000000 
 1566      00000000 
 1567              		.type	state, %object
 1568              		.size	state, 4
 1569              	state:
 1570 00b4 00000000 		.space	4
 1571              		.text
 1572              	.Letext0:
 1573              		.file 2 "c:\\program files (x86)\\cypress\\psoc creator\\4.1\\psoc creator\\import\\gnu\\arm\\5.4.
 1574              		.file 3 "c:\\program files (x86)\\cypress\\psoc creator\\4.1\\psoc creator\\import\\gnu\\arm\\5.4.
 1575              		.file 4 "Generated_Source\\PSoC4/cytypes.h"
 1576              		.file 5 "Generated_Source\\PSoC4/RTC.h"