ARM GAS  C:\Users\Administrator\AppData\Local\Temp\ccaHd6qa.s 			page 1


   1              		.syntax unified
   2              		.cpu cortex-m0
   3              		.fpu softvfp
   4              		.eabi_attribute 20, 1
   5              		.eabi_attribute 21, 1
   6              		.eabi_attribute 23, 3
   7              		.eabi_attribute 24, 1
   8              		.eabi_attribute 25, 1
   9              		.eabi_attribute 26, 1
  10              		.eabi_attribute 30, 4
  11              		.eabi_attribute 34, 0
  12              		.eabi_attribute 18, 4
  13              		.thumb
  14              		.syntax unified
  15              		.file	"Aesecb.c"
  16              		.text
  17              	.Ltext0:
  18              		.cfi_sections	.debug_frame
  19              		.section	.text.bt_lock_open_crypto,"ax",%progbits
  20              		.align	1
  21              		.global	bt_lock_open_crypto
  22              		.code	16
  23              		.thumb_func
  24              		.type	bt_lock_open_crypto, %function
  25              	bt_lock_open_crypto:
  26              	.LFB63:
  27              		.file 1 "Code\\Common\\crypt\\Aesecb.c"
   1:Code\Common\crypt/Aesecb.c **** #include <string.h>
   2:Code\Common\crypt/Aesecb.c **** #include <project.h>
   3:Code\Common\crypt/Aesecb.c **** #include "crypt.h"
   4:Code\Common\crypt/Aesecb.c **** #include "common.h"
   5:Code\Common\crypt/Aesecb.c **** #include "align.h"
   6:Code\Common\crypt/Aesecb.c **** 
   7:Code\Common\crypt/Aesecb.c **** #ifdef CONFIG_AES_ECB
   8:Code\Common\crypt/Aesecb.c **** 
   9:Code\Common\crypt/Aesecb.c **** #ifdef ARCH_CC2640
  10:Code\Common\crypt/Aesecb.c **** CryptoCC26XX_Handle crypto_hdl;
  11:Code\Common\crypt/Aesecb.c **** CryptoCC26XX_Params crypto_param;
  12:Code\Common\crypt/Aesecb.c **** #endif
  13:Code\Common\crypt/Aesecb.c **** 
  14:Code\Common\crypt/Aesecb.c **** const uint8 nonce[13] = {0xef, 0xef, 0xca, 0xb3, 0x92, 0x9e, 0xc3, 0xc7, 0x12, 0x38, 0x1d, 0xcd, 0x
  15:Code\Common\crypt/Aesecb.c **** 
  16:Code\Common\crypt/Aesecb.c **** int bt_lock_open_crypto(void) 
  17:Code\Common\crypt/Aesecb.c **** {
  28              		.loc 1 17 0
  29              		.cfi_startproc
  30              		@ args = 0, pretend = 0, frame = 0
  31              		@ frame_needed = 0, uses_anonymous_args = 0
  32              		@ link register save eliminated.
  18:Code\Common\crypt/Aesecb.c **** #ifdef ARCH_CC2640
  19:Code\Common\crypt/Aesecb.c **** 	CryptoCC26XX_init();
  20:Code\Common\crypt/Aesecb.c **** 	CryptoCC26XX_Params_init(&crypto_param);
  21:Code\Common\crypt/Aesecb.c **** 	crypto_hdl = CryptoCC26XX_open(0, 1, &crypto_param);
  22:Code\Common\crypt/Aesecb.c **** 	if (crypto_hdl == NULL)
  23:Code\Common\crypt/Aesecb.c **** 		return -1;
  24:Code\Common\crypt/Aesecb.c **** #endif
  25:Code\Common\crypt/Aesecb.c **** 	return 0;
ARM GAS  C:\Users\Administrator\AppData\Local\Temp\ccaHd6qa.s 			page 2


  26:Code\Common\crypt/Aesecb.c **** }
  33              		.loc 1 26 0
  34 0000 0020     		movs	r0, #0
  35              		@ sp needed
  36 0002 7047     		bx	lr
  37              		.cfi_endproc
  38              	.LFE63:
  39              		.size	bt_lock_open_crypto, .-bt_lock_open_crypto
  40              		.section	.text.bt_lock_crypto,"ax",%progbits
  41              		.align	1
  42              		.global	bt_lock_crypto
  43              		.code	16
  44              		.thumb_func
  45              		.type	bt_lock_crypto, %function
  46              	bt_lock_crypto:
  47              	.LFB64:
  27:Code\Common\crypt/Aesecb.c **** 
  28:Code\Common\crypt/Aesecb.c **** int bt_lock_crypto(uint8_t *key, uint8_t *in, uint8_t *out, uint32_t len, uint8_t enc_dec) 
  29:Code\Common\crypt/Aesecb.c **** {
  48              		.loc 1 29 0
  49              		.cfi_startproc
  50              		@ args = 4, pretend = 0, frame = 8
  51              		@ frame_needed = 0, uses_anonymous_args = 0
  52              	.LVL0:
  53 0000 F7B5     		push	{r0, r1, r2, r4, r5, r6, r7, lr}
  54              		.cfi_def_cfa_offset 32
  55              		.cfi_offset 0, -32
  56              		.cfi_offset 1, -28
  57              		.cfi_offset 2, -24
  58              		.cfi_offset 4, -20
  59              		.cfi_offset 5, -16
  60              		.cfi_offset 6, -12
  61              		.cfi_offset 7, -8
  62              		.cfi_offset 14, -4
  63              		.loc 1 29 0
  64 0002 0700     		movs	r7, r0
  65              	.LVL1:
  66 0004 0E00     		movs	r6, r1
  67 0006 1500     		movs	r5, r2
  30:Code\Common\crypt/Aesecb.c **** 	uint32_t i;
  31:Code\Common\crypt/Aesecb.c **** 	int ret = 0;
  32:Code\Common\crypt/Aesecb.c **** #ifdef ARCH_CC2640
  33:Code\Common\crypt/Aesecb.c **** 	int key_index;
  34:Code\Common\crypt/Aesecb.c **** 	CryptoCC26XX_AESECB_Transaction ecb_trans;
  35:Code\Common\crypt/Aesecb.c **** 
  36:Code\Common\crypt/Aesecb.c **** 	if (NULL == crypto_hdl)
  37:Code\Common\crypt/Aesecb.c **** 		return -1;
  38:Code\Common\crypt/Aesecb.c **** 	
  39:Code\Common\crypt/Aesecb.c **** 	CryptoCC26XX_Transac_init((CryptoCC26XX_Transaction*)&ecb_trans, 
  40:Code\Common\crypt/Aesecb.c **** 		enc_dec? CRYPTOCC26XX_OP_AES_ECB: CRYPTOCC26XX_OP_AES_ECB_NOCRYPT);
  41:Code\Common\crypt/Aesecb.c **** 	key_index = CryptoCC26XX_allocateKey(crypto_hdl, CRYPTOCC26XX_KEY_ANY, (uint32_t*)key);
  42:Code\Common\crypt/Aesecb.c **** 	if (key_index < 0)
  43:Code\Common\crypt/Aesecb.c **** 		return -1;
  44:Code\Common\crypt/Aesecb.c **** 
  45:Code\Common\crypt/Aesecb.c **** 	for(i = 0; i < len; i+=16) {
  46:Code\Common\crypt/Aesecb.c **** 		ecb_trans.keyIndex	= key_index;
  47:Code\Common\crypt/Aesecb.c **** 		ecb_trans.msgIn		= &in[i];
ARM GAS  C:\Users\Administrator\AppData\Local\Temp\ccaHd6qa.s 			page 3


  48:Code\Common\crypt/Aesecb.c **** 		ecb_trans.msgOut	= &out[i];
  49:Code\Common\crypt/Aesecb.c **** 		ret = CryptoCC26XX_transact(crypto_hdl, (CryptoCC26XX_Transaction*)&ecb_trans);
  50:Code\Common\crypt/Aesecb.c **** 		if (ret != 0) {
  51:Code\Common\crypt/Aesecb.c **** 			ret = -1;
  52:Code\Common\crypt/Aesecb.c **** 			break;
  53:Code\Common\crypt/Aesecb.c **** 		}
  54:Code\Common\crypt/Aesecb.c **** 	}
  55:Code\Common\crypt/Aesecb.c **** 	
  56:Code\Common\crypt/Aesecb.c **** 	CryptoCC26XX_releaseKey(crypto_hdl, &key_index);
  57:Code\Common\crypt/Aesecb.c **** #else
  58:Code\Common\crypt/Aesecb.c **** #if 0
  59:Code\Common\crypt/Aesecb.c **** 	uint16 left_len = len, crypt_len = 0;
  60:Code\Common\crypt/Aesecb.c **** 	uint8 cp_len = 0;
  61:Code\Common\crypt/Aesecb.c **** 	uint8 *in_tmp = in, *out_tmp = out;
  62:Code\Common\crypt/Aesecb.c **** 		
  63:Code\Common\crypt/Aesecb.c **** 	while(left_len > 0) {
  64:Code\Common\crypt/Aesecb.c **** 		
  65:Code\Common\crypt/Aesecb.c **** 		CyBle_AesCcmInit(); 
  66:Code\Common\crypt/Aesecb.c **** 		if (enc_dec) {			
  67:Code\Common\crypt/Aesecb.c **** 			cp_len = left_len > 27? 27: left_len;
  68:Code\Common\crypt/Aesecb.c **** 			if ((ret = CyBle_AesCcmEncrypt(key, nonce, in, cp_len, out+4, out)) != CYBLE_ERROR_OK) {
  69:Code\Common\crypt/Aesecb.c **** 				DBG_PRINTF("<%s-%d>: fail\n", __FUNCTION__, __LINE__);
  70:Code\Common\crypt/Aesecb.c **** 				return -1;
  71:Code\Common\crypt/Aesecb.c **** 			}
  72:Code\Common\crypt/Aesecb.c **** 			left_len -= cp_len;
  73:Code\Common\crypt/Aesecb.c **** 			in += cp_len;
  74:Code\Common\crypt/Aesecb.c **** 			out += (4+cp_len);
  75:Code\Common\crypt/Aesecb.c **** 		} else {
  76:Code\Common\crypt/Aesecb.c **** 		
  77:Code\Common\crypt/Aesecb.c **** 			cp_len = left_len > (27+4)? (27): left_len;
  78:Code\Common\crypt/Aesecb.c **** 			if ((ret = CyBle_AesCcmDecrypt(key, nonce, in+4, cp_len, out, in)) != CYBLE_ERROR_OK) {
  79:Code\Common\crypt/Aesecb.c **** 				DBG_PRINTF("<%s-%d>: fail\n", __FUNCTION__, __LINE__);
  80:Code\Common\crypt/Aesecb.c **** 				return -1;
  81:Code\Common\crypt/Aesecb.c **** 			}
  82:Code\Common\crypt/Aesecb.c **** 			left_len -= (cp_len+4);
  83:Code\Common\crypt/Aesecb.c **** 			in += (cp_len+4);
  84:Code\Common\crypt/Aesecb.c **** 			out += cp_len;
  85:Code\Common\crypt/Aesecb.c **** 		}
  86:Code\Common\crypt/Aesecb.c **** 		
  87:Code\Common\crypt/Aesecb.c **** 	}
  88:Code\Common\crypt/Aesecb.c **** #else
  89:Code\Common\crypt/Aesecb.c **** 	for(i = 0; i < len; i+=16) {
  68              		.loc 1 89 0
  69 0008 0C00     		movs	r4, r1
  29:Code\Common\crypt/Aesecb.c **** 	uint32_t i;
  70              		.loc 1 29 0
  71 000a 0093     		str	r3, [sp]
  72 000c 08AB     		add	r3, sp, #32
  73              	.LVL2:
  74 000e 1B78     		ldrb	r3, [r3]
  75              	.LVL3:
  76 0010 0193     		str	r3, [sp, #4]
  77              	.LVL4:
  78              	.L3:
  79              		.loc 1 89 0 discriminator 1
  80 0012 009A     		ldr	r2, [sp]
  81 0014 A31B     		subs	r3, r4, r6
ARM GAS  C:\Users\Administrator\AppData\Local\Temp\ccaHd6qa.s 			page 4


  82 0016 9A42     		cmp	r2, r3
  83 0018 0FD9     		bls	.L8
  90:Code\Common\crypt/Aesecb.c **** 		if (enc_dec)
  84              		.loc 1 90 0
  85 001a 019B     		ldr	r3, [sp, #4]
  86 001c 002B     		cmp	r3, #0
  87 001e 04D0     		beq	.L4
  88              	.LBB2:
  91:Code\Common\crypt/Aesecb.c **** 			AES128_ECB_encrypt(&in[i], key);
  89              		.loc 1 91 0
  90 0020 3900     		movs	r1, r7
  91 0022 2000     		movs	r0, r4
  92 0024 FFF7FEFF 		bl	AES128_ECB_encrypt
  93              	.LVL5:
  94              	.LBE2:
  95 0028 04E0     		b	.L5
  96              	.L4:
  97              	.LBB3:
  92:Code\Common\crypt/Aesecb.c **** 		else
  93:Code\Common\crypt/Aesecb.c **** 			AES128_ECB_decrypt(&in[i], key, &out[i]);
  98              		.loc 1 93 0
  99 002a 2A00     		movs	r2, r5
 100 002c 3900     		movs	r1, r7
 101 002e 2000     		movs	r0, r4
 102 0030 FFF7FEFF 		bl	AES128_ECB_decrypt
 103              	.LVL6:
 104              	.L5:
 105 0034 1034     		adds	r4, r4, #16
 106              	.LVL7:
 107 0036 1035     		adds	r5, r5, #16
 108 0038 EBE7     		b	.L3
 109              	.L8:
 110              	.LBE3:
  94:Code\Common\crypt/Aesecb.c **** 	}
  95:Code\Common\crypt/Aesecb.c **** #endif
  96:Code\Common\crypt/Aesecb.c **** #endif
  97:Code\Common\crypt/Aesecb.c **** 	return ret;
  98:Code\Common\crypt/Aesecb.c **** }
 111              		.loc 1 98 0
 112 003a 0020     		movs	r0, #0
 113              		@ sp needed
 114              	.LVL8:
 115              	.LVL9:
 116              	.LVL10:
 117 003c FEBD     		pop	{r1, r2, r3, r4, r5, r6, r7, pc}
 118              		.cfi_endproc
 119              	.LFE64:
 120              		.size	bt_lock_crypto, .-bt_lock_crypto
 121              		.section	.text.bt_lock_close_crypto,"ax",%progbits
 122              		.align	1
 123              		.global	bt_lock_close_crypto
 124              		.code	16
 125              		.thumb_func
 126              		.type	bt_lock_close_crypto, %function
 127              	bt_lock_close_crypto:
 128              	.LFB65:
  99:Code\Common\crypt/Aesecb.c **** 
ARM GAS  C:\Users\Administrator\AppData\Local\Temp\ccaHd6qa.s 			page 5


 100:Code\Common\crypt/Aesecb.c **** int bt_lock_close_crypto(void)
 101:Code\Common\crypt/Aesecb.c **** {
 129              		.loc 1 101 0
 130              		.cfi_startproc
 131              		@ args = 0, pretend = 0, frame = 0
 132              		@ frame_needed = 0, uses_anonymous_args = 0
 133              		@ link register save eliminated.
 102:Code\Common\crypt/Aesecb.c **** #ifdef ARCH_CC2640
 103:Code\Common\crypt/Aesecb.c **** 
 104:Code\Common\crypt/Aesecb.c **** 	if (crypto_hdl != NULL) {
 105:Code\Common\crypt/Aesecb.c **** 		CryptoCC26XX_close(crypto_hdl);
 106:Code\Common\crypt/Aesecb.c **** 		crypto_hdl = NULL;
 107:Code\Common\crypt/Aesecb.c **** 	}
 108:Code\Common\crypt/Aesecb.c **** #endif
 109:Code\Common\crypt/Aesecb.c **** }
 134              		.loc 1 109 0
 135              		@ sp needed
 136 0000 7047     		bx	lr
 137              		.cfi_endproc
 138              	.LFE65:
 139              		.size	bt_lock_close_crypto, .-bt_lock_close_crypto
 140              		.section	.text.crypto_test,"ax",%progbits
 141              		.align	1
 142              		.global	crypto_test
 143              		.code	16
 144              		.thumb_func
 145              		.type	crypto_test, %function
 146              	crypto_test:
 147              	.LFB66:
 110:Code\Common\crypt/Aesecb.c **** 
 111:Code\Common\crypt/Aesecb.c **** void crypto_test(void)
 112:Code\Common\crypt/Aesecb.c **** {
 148              		.loc 1 112 0
 149              		.cfi_startproc
 150              		@ args = 0, pretend = 0, frame = 72
 151              		@ frame_needed = 0, uses_anonymous_args = 0
 152 0000 30B5     		push	{r4, r5, lr}
 153              		.cfi_def_cfa_offset 12
 154              		.cfi_offset 4, -12
 155              		.cfi_offset 5, -8
 156              		.cfi_offset 14, -4
 113:Code\Common\crypt/Aesecb.c **** 	uint8 key[16] = {0x00, 0x01, 0x02, 0x03, 0x04, 0x05, 0x06, 0x07, 0x08, 0x09, 0x0a, 0x0b, 0x0c, 0x0
 157              		.loc 1 113 0
 158 0002 114C     		ldr	r4, .L11
 112:Code\Common\crypt/Aesecb.c **** 	uint8 key[16] = {0x00, 0x01, 0x02, 0x03, 0x04, 0x05, 0x06, 0x07, 0x08, 0x09, 0x0a, 0x0b, 0x0c, 0x0
 159              		.loc 1 112 0
 160 0004 95B0     		sub	sp, sp, #84
 161              		.cfi_def_cfa_offset 96
 162              		.loc 1 113 0
 163 0006 2100     		movs	r1, r4
 164 0008 1022     		movs	r2, #16
 165 000a 05A8     		add	r0, sp, #20
 166 000c FFF7FEFF 		bl	memcpy
 167              	.LVL11:
 114:Code\Common\crypt/Aesecb.c **** 	uint8 plain_text[] = {0x11, 0x22, 0x11, 0x22, 0x11, 0x22, 0x11, 0x22, 
 168              		.loc 1 114 0
 169 0010 2A25     		movs	r5, #42
ARM GAS  C:\Users\Administrator\AppData\Local\Temp\ccaHd6qa.s 			page 6


 170 0012 2100     		movs	r1, r4
 171 0014 2A00     		movs	r2, r5
 172 0016 1031     		adds	r1, r1, #16
 173 0018 09A8     		add	r0, sp, #36
 174 001a FFF7FEFF 		bl	memcpy
 175              	.LVL12:
 115:Code\Common\crypt/Aesecb.c **** 							0x11, 0x22, 0x11, 0x22, 0x11, 0x22, 0x11, 0x22,
 116:Code\Common\crypt/Aesecb.c **** 							0x11, 0x22, 0x11, 0x22, 0x11, 0x22, 0x11, 0x22,
 117:Code\Common\crypt/Aesecb.c **** 							0x11, 0x22, 0x11
 118:Code\Common\crypt/Aesecb.c **** #if 1
 119:Code\Common\crypt/Aesecb.c **** 							, 0x01, 0x02, 0x03, 0x04, 0x05,
 120:Code\Common\crypt/Aesecb.c **** 							0x06, 0x07, 0x08, 0x09, 0x0a, 0x0b, 0x0c, 0x0d, 0x0e, 0x0f
 121:Code\Common\crypt/Aesecb.c **** #endif
 122:Code\Common\crypt/Aesecb.c **** 							};
 123:Code\Common\crypt/Aesecb.c **** 	uint8 cipher_text[ALIGN_X(sizeof(plain_text), 27)/27*4 + sizeof(plain_text)];
 124:Code\Common\crypt/Aesecb.c **** 	uint8 decrypt_text[sizeof(cipher_text)];
 125:Code\Common\crypt/Aesecb.c **** 
 126:Code\Common\crypt/Aesecb.c **** 	memset(cipher_text, 0, sizeof(cipher_text));
 127:Code\Common\crypt/Aesecb.c **** 	memset(decrypt_text, 0, sizeof(decrypt_text));
 128:Code\Common\crypt/Aesecb.c **** 	bt_lock_crypto(key, plain_text, cipher_text, sizeof(plain_text), 1);
 176              		.loc 1 128 0
 177 001e 0123     		movs	r3, #1
 126:Code\Common\crypt/Aesecb.c **** 	memset(decrypt_text, 0, sizeof(decrypt_text));
 178              		.loc 1 126 0
 179 0020 0024     		movs	r4, #0
 180              		.loc 1 128 0
 181 0022 0093     		str	r3, [sp]
 182 0024 03AA     		add	r2, sp, #12
 183 0026 2B00     		movs	r3, r5
 184 0028 09A9     		add	r1, sp, #36
 185 002a 05A8     		add	r0, sp, #20
 126:Code\Common\crypt/Aesecb.c **** 	memset(decrypt_text, 0, sizeof(decrypt_text));
 186              		.loc 1 126 0
 187 002c 0394     		str	r4, [sp, #12]
 127:Code\Common\crypt/Aesecb.c **** 	bt_lock_crypto(key, plain_text, cipher_text, sizeof(plain_text), 1);
 188              		.loc 1 127 0
 189 002e 0494     		str	r4, [sp, #16]
 190              		.loc 1 128 0
 191 0030 FFF7FEFF 		bl	bt_lock_crypto
 192              	.LVL13:
 129:Code\Common\crypt/Aesecb.c **** 	//DBG_SOFT_PrintfHex(cipher_text, sizeof(cipher_text));
 130:Code\Common\crypt/Aesecb.c **** 	bt_lock_crypto(key, cipher_text, decrypt_text, sizeof(cipher_text), 0);
 193              		.loc 1 130 0
 194 0034 0094     		str	r4, [sp]
 195 0036 0423     		movs	r3, #4
 196 0038 04AA     		add	r2, sp, #16
 197 003a 03A9     		add	r1, sp, #12
 198 003c 05A8     		add	r0, sp, #20
 199 003e FFF7FEFF 		bl	bt_lock_crypto
 200              	.LVL14:
 131:Code\Common\crypt/Aesecb.c **** 	//DBG_SOFT_PrintfHex(decrypt_text, sizeof(decrypt_text));
 132:Code\Common\crypt/Aesecb.c **** }
 201              		.loc 1 132 0
 202 0042 15B0     		add	sp, sp, #84
 203              		@ sp needed
 204 0044 30BD     		pop	{r4, r5, pc}
 205              	.L12:
ARM GAS  C:\Users\Administrator\AppData\Local\Temp\ccaHd6qa.s 			page 7


 206 0046 C046     		.align	2
 207              	.L11:
 208 0048 00000000 		.word	.LANCHOR0
 209              		.cfi_endproc
 210              	.LFE66:
 211              		.size	crypto_test, .-crypto_test
 212              		.global	nonce
 213              		.section	.rodata
 214              		.set	.LANCHOR0,. + 0
 215              	.LC0:
 216 0000 00       		.byte	0
 217 0001 01       		.byte	1
 218 0002 02       		.byte	2
 219 0003 03       		.byte	3
 220 0004 04       		.byte	4
 221 0005 05       		.byte	5
 222 0006 06       		.byte	6
 223 0007 07       		.byte	7
 224 0008 08       		.byte	8
 225 0009 09       		.byte	9
 226 000a 0A       		.byte	10
 227 000b 0B       		.byte	11
 228 000c 0C       		.byte	12
 229 000d 0D       		.byte	13
 230 000e 0E       		.byte	14
 231 000f 0F       		.byte	15
 232              	.LC1:
 233 0010 11       		.byte	17
 234 0011 22       		.byte	34
 235 0012 11       		.byte	17
 236 0013 22       		.byte	34
 237 0014 11       		.byte	17
 238 0015 22       		.byte	34
 239 0016 11       		.byte	17
 240 0017 22       		.byte	34
 241 0018 11       		.byte	17
 242 0019 22       		.byte	34
 243 001a 11       		.byte	17
 244 001b 22       		.byte	34
 245 001c 11       		.byte	17
 246 001d 22       		.byte	34
 247 001e 11       		.byte	17
 248 001f 22       		.byte	34
 249 0020 11       		.byte	17
 250 0021 22       		.byte	34
 251 0022 11       		.byte	17
 252 0023 22       		.byte	34
 253 0024 11       		.byte	17
 254 0025 22       		.byte	34
 255 0026 11       		.byte	17
 256 0027 22       		.byte	34
 257 0028 11       		.byte	17
 258 0029 22       		.byte	34
 259 002a 11       		.byte	17
 260 002b 01       		.byte	1
 261 002c 02       		.byte	2
 262 002d 03       		.byte	3
ARM GAS  C:\Users\Administrator\AppData\Local\Temp\ccaHd6qa.s 			page 8


 263 002e 04       		.byte	4
 264 002f 05       		.byte	5
 265 0030 06       		.byte	6
 266 0031 07       		.byte	7
 267 0032 08       		.byte	8
 268 0033 09       		.byte	9
 269 0034 0A       		.byte	10
 270 0035 0B       		.byte	11
 271 0036 0C       		.byte	12
 272 0037 0D       		.byte	13
 273 0038 0E       		.byte	14
 274 0039 0F       		.byte	15
 275              		.type	nonce, %object
 276              		.size	nonce, 13
 277              	nonce:
 278 003a EF       		.byte	-17
 279 003b EF       		.byte	-17
 280 003c CA       		.byte	-54
 281 003d B3       		.byte	-77
 282 003e 92       		.byte	-110
 283 003f 9E       		.byte	-98
 284 0040 C3       		.byte	-61
 285 0041 C7       		.byte	-57
 286 0042 12       		.byte	18
 287 0043 38       		.byte	56
 288 0044 1D       		.byte	29
 289 0045 CD       		.byte	-51
 290 0046 22       		.byte	34
 291              		.text
 292              	.Letext0:
 293              		.file 2 "c:\\program files (x86)\\cypress\\psoc creator\\4.1\\psoc creator\\import\\gnu\\arm\\5.4.
 294              		.file 3 "c:\\program files (x86)\\cypress\\psoc creator\\4.1\\psoc creator\\import\\gnu\\arm\\5.4.
 295              		.file 4 "Generated_Source\\PSoC4/cytypes.h"
 296              		.file 5 "Generated_Source\\PSoC4/RTC.h"