ARM GAS  C:\Users\Administrator\AppData\Local\Temp\ccHCWnFN.s 			page 1


   1              		.syntax unified
   2              		.cpu cortex-m0
   3              		.fpu softvfp
   4              		.eabi_attribute 20, 1
   5              		.eabi_attribute 21, 1
   6              		.eabi_attribute 23, 3
   7              		.eabi_attribute 24, 1
   8              		.eabi_attribute 25, 1
   9              		.eabi_attribute 26, 1
  10              		.eabi_attribute 30, 4
  11              		.eabi_attribute 34, 0
  12              		.eabi_attribute 18, 4
  13              		.thumb
  14              		.syntax unified
  15              		.file	"AtProtocol.c"
  16              		.text
  17              	.Ltext0:
  18              		.cfi_sections	.debug_frame
  19              		.section	.text.CyCharToHex,"ax",%progbits
  20              		.align	1
  21              		.global	CyCharToHex
  22              		.code	16
  23              		.thumb_func
  24              		.type	CyCharToHex, %function
  25              	CyCharToHex:
  26              	.LFB63:
  27              		.file 1 "Code\\Device\\GPRS\\AtProtocol.c"
   1:Code\Device\GPRS/AtProtocol.c **** //*************************************************************************************************
   2:Code\Device\GPRS/AtProtocol.c **** // File name		: AtProtocol.c
   3:Code\Device\GPRS/AtProtocol.c **** // Description		: AT指令的相关函数
   4:Code\Device\GPRS/AtProtocol.c **** // Author			: Keno
   5:Code\Device\GPRS/AtProtocol.c **** // Date				: 2016.8.8
   6:Code\Device\GPRS/AtProtocol.c **** // Version			: V02
   7:Code\Device\GPRS/AtProtocol.c **** //-------------------------------------------------------------------------------------------------
   8:Code\Device\GPRS/AtProtocol.c **** // Info				: 
   9:Code\Device\GPRS/AtProtocol.c **** //*************************************************************************************************
  10:Code\Device\GPRS/AtProtocol.c **** #include "AtProtocol.h"
  11:Code\Device\GPRS/AtProtocol.c **** 
  12:Code\Device\GPRS/AtProtocol.c **** 
  13:Code\Device\GPRS/AtProtocol.c **** 
  14:Code\Device\GPRS/AtProtocol.c **** //******************************************** AT指令定义 *************************************
  15:Code\Device\GPRS/AtProtocol.c **** // 发送
  16:Code\Device\GPRS/AtProtocol.c **** const char AT_AT[] = {"AT\r\n"};								// AT指令								//
  17:Code\Device\GPRS/AtProtocol.c **** const char AT_CTZR[] = {"AT+CTZR=1\r\n"};						// 开启时区报告							//
  18:Code\Device\GPRS/AtProtocol.c **** const char AT_CPIN[] = {"AT+CPIN?\r\n"};						// 查询PIN码							//
  19:Code\Device\GPRS/AtProtocol.c **** const char AT_CGACT[] = {"AT+CGACT=1,1\r\n"};					// 激活PDP上下文						//
  20:Code\Device\GPRS/AtProtocol.c **** const char AT_CLOSE[] = {"AT+IPCLOSE\r\n"};						// 关闭连接指令							//
  21:Code\Device\GPRS/AtProtocol.c **** const char AT_CMSTATE[] = {"AT+CMSTATE\r\n"};					// 主动查询服务器连接状态				//
  22:Code\Device\GPRS/AtProtocol.c **** const char AT_CMMUX[] = {"AT+CMMUX=0\r\n"};						// 设置单连接模式						//
  23:Code\Device\GPRS/AtProtocol.c **** const char AT_OPENLED[] = {"AT+CMNETLED=1\r\n"};				// 打开联网指示灯						//
  24:Code\Device\GPRS/AtProtocol.c **** const char AT_CREG[] = {"AT+CREG?\r\n"};						// 查询网络注册情况						//
  25:Code\Device\GPRS/AtProtocol.c **** const char AT_CSQ[] = {"AT+CSQ\r\n"};							// 查询RSSI								//
  26:Code\Device\GPRS/AtProtocol.c **** const char AT_APN[] = {"AT+CGDCONT=1,\"IP\",\"CMNET\"\r\n"};	// 设置APN								//
  27:Code\Device\GPRS/AtProtocol.c **** 
  28:Code\Device\GPRS/AtProtocol.c **** 
  29:Code\Device\GPRS/AtProtocol.c **** 
  30:Code\Device\GPRS/AtProtocol.c **** // 接收
ARM GAS  C:\Users\Administrator\AppData\Local\Temp\ccHCWnFN.s 			page 2


  31:Code\Device\GPRS/AtProtocol.c **** const char AT_OK[] = {"OK"};
  32:Code\Device\GPRS/AtProtocol.c **** const char AT_ERR[] = {"+CME ERROR:"};							// 错误AT指令							//
  33:Code\Device\GPRS/AtProtocol.c **** const char AT_ERR4[] = {"+CME ERROR: 4"};						// 错误码4								//
  34:Code\Device\GPRS/AtProtocol.c **** const char AT_INIT_OK[] = {"+CTZV:"};							// 上电成功，报告当前连接时间			//
  35:Code\Device\GPRS/AtProtocol.c **** const char AT_RECPIN[] = {"+CPIN: READY,1"};					// PIN码不需要输入						//
  36:Code\Device\GPRS/AtProtocol.c **** const char AT_CONNECT_OK[] = {"CONNECT OK"};					// 建立公网IP连接成功					//
  37:Code\Device\GPRS/AtProtocol.c **** const char AT_CONNECT_FAIL[] = {"CONNECT FAIL"};				// 建立公网IP连接失败					//
  38:Code\Device\GPRS/AtProtocol.c **** const char AT_ALREADY_CONNECT[] = {"ALREADY CONNECT"};			// 设备已经连接一个服务器				//
  39:Code\Device\GPRS/AtProtocol.c **** const char AT_CONNECT_CLOSED[] = {"CONNECTION CLOSED"};			// 当前连接被远程关闭					//
  40:Code\Device\GPRS/AtProtocol.c **** const char AT_CLOSE_CONNECT[] = {"+IPCLOSE:"};					// 成功释放一个连接【多连接模式】
  41:Code\Device\GPRS/AtProtocol.c **** const char AT_CLOSE_R[] = {"CLOSE"};							// 连接关闭								//
  42:Code\Device\GPRS/AtProtocol.c **** const char AT_RECMSTATE_INITIAL[] = {"INITIAL"};				// CMSTATE查询结果：初始化状态			//
  43:Code\Device\GPRS/AtProtocol.c **** const char AT_RECMSTATE_CONNECTD[] = {"CONNECTED"};				// CMSTATE查询结果：已连接				//
  44:Code\Device\GPRS/AtProtocol.c **** const char AT_RECMSTATE_CLOSED[] = {"CLOSED"};					// CMSTATE查询结果：已关闭				//
  45:Code\Device\GPRS/AtProtocol.c **** const char AT_ALLOW_SEND[] = {">"};      						// 允许发送数据							//
  46:Code\Device\GPRS/AtProtocol.c **** const char AT_SEND_OK[] = {"SEND OK"};							// 非透传模式，发送数据完成				//
  47:Code\Device\GPRS/AtProtocol.c **** const char AT_RECREG[] = {"+CREG:"};						// 网络注册情况回复值   :(0-2),1表示成功//
  48:Code\Device\GPRS/AtProtocol.c **** const char AT_RECSQ[] = {"+CSQ:"};								// 信号强度回复值						//
  49:Code\Device\GPRS/AtProtocol.c **** 
  50:Code\Device\GPRS/AtProtocol.c **** 
  51:Code\Device\GPRS/AtProtocol.c **** 
  52:Code\Device\GPRS/AtProtocol.c **** 
  53:Code\Device\GPRS/AtProtocol.c **** //********************************************* 变量声明 **************************************
  54:Code\Device\GPRS/AtProtocol.c **** const char *tcp = "TCP";
  55:Code\Device\GPRS/AtProtocol.c **** const char *udp = "UDP";
  56:Code\Device\GPRS/AtProtocol.c **** //const char *test1_ip = "test1.zjeja.com"; 	//第一次用的测试服务器地址 @08-22
  57:Code\Device\GPRS/AtProtocol.c **** const char *test1_ip = "183.146.22.84"; 		//第二次用的测试服务器地址 @08-22
  58:Code\Device\GPRS/AtProtocol.c **** 
  59:Code\Device\GPRS/AtProtocol.c **** //const char *test2_ip = "test1.zjeja.com";
  60:Code\Device\GPRS/AtProtocol.c **** //const char *test3_ip = "test1.zjeja.com";
  61:Code\Device\GPRS/AtProtocol.c **** //const char *test4_ip = "test1.zjeja.com";
  62:Code\Device\GPRS/AtProtocol.c **** const char *center_ip = "lock.zjeja.com";
  63:Code\Device\GPRS/AtProtocol.c **** //const char *center_port = "8981";
  64:Code\Device\GPRS/AtProtocol.c **** const char *center_port = "8982";
  65:Code\Device\GPRS/AtProtocol.c **** 
  66:Code\Device\GPRS/AtProtocol.c **** //const char *test1_ip = "106.14.140.19";
  67:Code\Device\GPRS/AtProtocol.c **** //const char *center_ip = "106.14.140.19";
  68:Code\Device\GPRS/AtProtocol.c **** //const char *center_port = "8888";
  69:Code\Device\GPRS/AtProtocol.c **** 
  70:Code\Device\GPRS/AtProtocol.c **** 
  71:Code\Device\GPRS/AtProtocol.c **** //******************************************* 外部变量声明 **********************************
  72:Code\Device\GPRS/AtProtocol.c **** extern uint8  domain[200];
  73:Code\Device\GPRS/AtProtocol.c **** extern uint8  pre_ip[200];
  74:Code\Device\GPRS/AtProtocol.c **** extern uint8  pre_port[5];
  75:Code\Device\GPRS/AtProtocol.c **** extern uint8  update_ip[16];
  76:Code\Device\GPRS/AtProtocol.c **** extern uint8  update_port[4];
  77:Code\Device\GPRS/AtProtocol.c **** 
  78:Code\Device\GPRS/AtProtocol.c **** extern uint8  gprs_state;
  79:Code\Device\GPRS/AtProtocol.c **** 
  80:Code\Device\GPRS/AtProtocol.c **** extern volatile uint32_t wait_timeout;
  81:Code\Device\GPRS/AtProtocol.c **** 
  82:Code\Device\GPRS/AtProtocol.c **** extern volatile uint8 RecvType;
  83:Code\Device\GPRS/AtProtocol.c **** extern volatile char  GPRS_AT_RecBuf[64];
  84:Code\Device\GPRS/AtProtocol.c **** extern volatile uint8 AT_RecvSta;
  85:Code\Device\GPRS/AtProtocol.c **** extern volatile uint8 AT_index;
  86:Code\Device\GPRS/AtProtocol.c **** 
  87:Code\Device\GPRS/AtProtocol.c **** extern volatile char  GPRS_AT_Buf[64];
ARM GAS  C:\Users\Administrator\AppData\Local\Temp\ccHCWnFN.s 			page 3


  88:Code\Device\GPRS/AtProtocol.c **** extern volatile uint8 GPRS_AT_RecFinish;
  89:Code\Device\GPRS/AtProtocol.c **** 
  90:Code\Device\GPRS/AtProtocol.c **** extern uint32 cur_time;
  91:Code\Device\GPRS/AtProtocol.c **** 
  92:Code\Device\GPRS/AtProtocol.c **** //*************************************************************************************************
  93:Code\Device\GPRS/AtProtocol.c **** // Function name	: CyCharToHex
  94:Code\Device\GPRS/AtProtocol.c **** // Description		: 字符串转回16进制
  95:Code\Device\GPRS/AtProtocol.c **** // Parameter		: value
  96:Code\Device\GPRS/AtProtocol.c **** // Return			: CYRET_SUCCESS
  97:Code\Device\GPRS/AtProtocol.c **** //-------------------------------------------------------------------------------------------------
  98:Code\Device\GPRS/AtProtocol.c **** // Info				: 
  99:Code\Device\GPRS/AtProtocol.c **** //*************************************************************************************************
 100:Code\Device\GPRS/AtProtocol.c **** unsigned char CyCharToHex(char value)
 101:Code\Device\GPRS/AtProtocol.c **** {
  28              		.loc 1 101 0
  29              		.cfi_startproc
  30              		@ args = 0, pretend = 0, frame = 0
  31              		@ frame_needed = 0, uses_anonymous_args = 0
  32              		@ link register save eliminated.
  33              	.LVL0:
 102:Code\Device\GPRS/AtProtocol.c ****     if ('0' <= value && value <= '9')
  34              		.loc 1 102 0
  35 0000 0300     		movs	r3, r0
  36 0002 303B     		subs	r3, r3, #48
  37 0004 DBB2     		uxtb	r3, r3
  38 0006 092B     		cmp	r3, #9
  39 0008 0CD9     		bls	.L2
 103:Code\Device\GPRS/AtProtocol.c ****         return (unsigned char)(value - '0');
 104:Code\Device\GPRS/AtProtocol.c ****     if ('a' <= value && value <= 'f')
  40              		.loc 1 104 0
  41 000a 0300     		movs	r3, r0
  42 000c 613B     		subs	r3, r3, #97
  43 000e 052B     		cmp	r3, #5
  44 0010 01D8     		bhi	.L3
 105:Code\Device\GPRS/AtProtocol.c ****         return (unsigned char)(10 + value - 'a');
  45              		.loc 1 105 0
  46 0012 5738     		subs	r0, r0, #87
  47              	.LVL1:
  48 0014 05E0     		b	.L6
  49              	.LVL2:
  50              	.L3:
  51              	.LBB4:
  52              	.LBB5:
 106:Code\Device\GPRS/AtProtocol.c ****     if ('A' <= value && value <= 'F')
  53              		.loc 1 106 0
  54 0016 0200     		movs	r2, r0
  55 0018 413A     		subs	r2, r2, #65
 107:Code\Device\GPRS/AtProtocol.c ****         return (unsigned char)(10 + value - 'A');
 108:Code\Device\GPRS/AtProtocol.c ****     return 0;
  56              		.loc 1 108 0
  57 001a 0023     		movs	r3, #0
 106:Code\Device\GPRS/AtProtocol.c ****     if ('A' <= value && value <= 'F')
  58              		.loc 1 106 0
  59 001c 052A     		cmp	r2, #5
  60 001e 01D8     		bhi	.L2
 107:Code\Device\GPRS/AtProtocol.c ****         return (unsigned char)(10 + value - 'A');
  61              		.loc 1 107 0
ARM GAS  C:\Users\Administrator\AppData\Local\Temp\ccHCWnFN.s 			page 4


  62 0020 3738     		subs	r0, r0, #55
  63              	.LVL3:
  64              	.L6:
  65 0022 C3B2     		uxtb	r3, r0
  66              	.L2:
  67              	.LBE5:
  68              	.LBE4:
 109:Code\Device\GPRS/AtProtocol.c **** }
  69              		.loc 1 109 0
  70 0024 1800     		movs	r0, r3
  71              		@ sp needed
  72 0026 7047     		bx	lr
  73              		.cfi_endproc
  74              	.LFE63:
  75              		.size	CyCharToHex, .-CyCharToHex
  76              		.section	.text.GPRS_AT_ParaInit,"ax",%progbits
  77              		.align	1
  78              		.global	GPRS_AT_ParaInit
  79              		.code	16
  80              		.thumb_func
  81              		.type	GPRS_AT_ParaInit, %function
  82              	GPRS_AT_ParaInit:
  83              	.LFB64:
 110:Code\Device\GPRS/AtProtocol.c **** 
 111:Code\Device\GPRS/AtProtocol.c **** 
 112:Code\Device\GPRS/AtProtocol.c **** //*************************************************************************************************
 113:Code\Device\GPRS/AtProtocol.c **** // Function name	: GPRS_AT_ParaInit
 114:Code\Device\GPRS/AtProtocol.c **** // Description		: GPRS AT指令相关的参数初始化
 115:Code\Device\GPRS/AtProtocol.c **** // Parameter		: none
 116:Code\Device\GPRS/AtProtocol.c **** // Return			: none
 117:Code\Device\GPRS/AtProtocol.c **** //-------------------------------------------------------------------------------------------------
 118:Code\Device\GPRS/AtProtocol.c **** // Info				: 
 119:Code\Device\GPRS/AtProtocol.c **** //*************************************************************************************************
 120:Code\Device\GPRS/AtProtocol.c **** void GPRS_AT_ParaInit(void)
 121:Code\Device\GPRS/AtProtocol.c **** {
  84              		.loc 1 121 0
  85              		.cfi_startproc
  86              		@ args = 0, pretend = 0, frame = 0
  87              		@ frame_needed = 0, uses_anonymous_args = 0
  88 0000 70B5     		push	{r4, r5, r6, lr}
  89              		.cfi_def_cfa_offset 16
  90              		.cfi_offset 4, -16
  91              		.cfi_offset 5, -12
  92              		.cfi_offset 6, -8
  93              		.cfi_offset 14, -4
 122:Code\Device\GPRS/AtProtocol.c **** 	RecvType = 0;
  94              		.loc 1 122 0
  95 0002 0024     		movs	r4, #0
 123:Code\Device\GPRS/AtProtocol.c **** 	AT_RecvSta = 0;
 124:Code\Device\GPRS/AtProtocol.c **** 	AT_index = 0;
 125:Code\Device\GPRS/AtProtocol.c **** 	GPRS_AT_RecFinish = RESET;
 126:Code\Device\GPRS/AtProtocol.c **** 	memset((char *)GPRS_AT_Buf, 0, sizeof(GPRS_AT_Buf));
  96              		.loc 1 126 0
  97 0004 4025     		movs	r5, #64
 122:Code\Device\GPRS/AtProtocol.c **** 	RecvType = 0;
  98              		.loc 1 122 0
  99 0006 094B     		ldr	r3, .L9
ARM GAS  C:\Users\Administrator\AppData\Local\Temp\ccHCWnFN.s 			page 5


 100              		.loc 1 126 0
 101 0008 2A00     		movs	r2, r5
 122:Code\Device\GPRS/AtProtocol.c **** 	RecvType = 0;
 102              		.loc 1 122 0
 103 000a 1C70     		strb	r4, [r3]
 123:Code\Device\GPRS/AtProtocol.c **** 	AT_RecvSta = 0;
 104              		.loc 1 123 0
 105 000c 084B     		ldr	r3, .L9+4
 106              		.loc 1 126 0
 107 000e 2100     		movs	r1, r4
 123:Code\Device\GPRS/AtProtocol.c **** 	AT_RecvSta = 0;
 108              		.loc 1 123 0
 109 0010 1C70     		strb	r4, [r3]
 124:Code\Device\GPRS/AtProtocol.c **** 	GPRS_AT_RecFinish = RESET;
 110              		.loc 1 124 0
 111 0012 084B     		ldr	r3, .L9+8
 112              		.loc 1 126 0
 113 0014 0848     		ldr	r0, .L9+12
 124:Code\Device\GPRS/AtProtocol.c **** 	GPRS_AT_RecFinish = RESET;
 114              		.loc 1 124 0
 115 0016 1C70     		strb	r4, [r3]
 125:Code\Device\GPRS/AtProtocol.c **** 	memset((char *)GPRS_AT_Buf, 0, sizeof(GPRS_AT_Buf));
 116              		.loc 1 125 0
 117 0018 084B     		ldr	r3, .L9+16
 127:Code\Device\GPRS/AtProtocol.c **** 	memset((char *)GPRS_AT_RecBuf, 0, sizeof(GPRS_AT_RecBuf));
 128:Code\Device\GPRS/AtProtocol.c **** }
 118              		.loc 1 128 0
 119              		@ sp needed
 125:Code\Device\GPRS/AtProtocol.c **** 	memset((char *)GPRS_AT_Buf, 0, sizeof(GPRS_AT_Buf));
 120              		.loc 1 125 0
 121 001a 1C70     		strb	r4, [r3]
 126:Code\Device\GPRS/AtProtocol.c **** 	memset((char *)GPRS_AT_RecBuf, 0, sizeof(GPRS_AT_RecBuf));
 122              		.loc 1 126 0
 123 001c FFF7FEFF 		bl	memset
 124              	.LVL4:
 127:Code\Device\GPRS/AtProtocol.c **** 	memset((char *)GPRS_AT_RecBuf, 0, sizeof(GPRS_AT_RecBuf));
 125              		.loc 1 127 0
 126 0020 2A00     		movs	r2, r5
 127 0022 2100     		movs	r1, r4
 128 0024 0648     		ldr	r0, .L9+20
 129 0026 FFF7FEFF 		bl	memset
 130              	.LVL5:
 131              		.loc 1 128 0
 132 002a 70BD     		pop	{r4, r5, r6, pc}
 133              	.L10:
 134              		.align	2
 135              	.L9:
 136 002c 00000000 		.word	RecvType
 137 0030 00000000 		.word	AT_RecvSta
 138 0034 00000000 		.word	AT_index
 139 0038 00000000 		.word	GPRS_AT_Buf
 140 003c 00000000 		.word	GPRS_AT_RecFinish
 141 0040 00000000 		.word	GPRS_AT_RecBuf
 142              		.cfi_endproc
 143              	.LFE64:
 144              		.size	GPRS_AT_ParaInit, .-GPRS_AT_ParaInit
 145              		.section	.text.GPRS_Send_ConnectServer,"ax",%progbits
ARM GAS  C:\Users\Administrator\AppData\Local\Temp\ccHCWnFN.s 			page 6


 146              		.align	1
 147              		.global	GPRS_Send_ConnectServer
 148              		.code	16
 149              		.thumb_func
 150              		.type	GPRS_Send_ConnectServer, %function
 151              	GPRS_Send_ConnectServer:
 152              	.LFB65:
 129:Code\Device\GPRS/AtProtocol.c **** 
 130:Code\Device\GPRS/AtProtocol.c **** //*************************************************************************************************
 131:Code\Device\GPRS/AtProtocol.c **** // Function name	: GPRS_Send_ConnectServer
 132:Code\Device\GPRS/AtProtocol.c **** // Description		: 发送连接服务器
 133:Code\Device\GPRS/AtProtocol.c **** // Parameter		: tcp	: TCP或UDP
 134:Code\Device\GPRS/AtProtocol.c **** //					: ip	: IP或域名
 135:Code\Device\GPRS/AtProtocol.c **** //					: port	: 端口号
 136:Code\Device\GPRS/AtProtocol.c **** // Return			: none
 137:Code\Device\GPRS/AtProtocol.c **** //-------------------------------------------------------------------------------------------------
 138:Code\Device\GPRS/AtProtocol.c **** // Info				: 
 139:Code\Device\GPRS/AtProtocol.c **** //*************************************************************************************************
 140:Code\Device\GPRS/AtProtocol.c **** void GPRS_Send_ConnectServer(char *tcp, char *ip, char *port)
 141:Code\Device\GPRS/AtProtocol.c **** {
 153              		.loc 1 141 0
 154              		.cfi_startproc
 155              		@ args = 0, pretend = 0, frame = 0
 156              		@ frame_needed = 0, uses_anonymous_args = 0
 157              	.LVL6:
 158 0000 10B5     		push	{r4, lr}
 159              		.cfi_def_cfa_offset 8
 160              		.cfi_offset 4, -8
 161              		.cfi_offset 14, -4
 162              		.loc 1 141 0
 163 0002 1300     		movs	r3, r2
 142:Code\Device\GPRS/AtProtocol.c **** 	printf("AT+IPSTART=\"%s\"\,\"%s\"\,%s\r\n", tcp, ip, port);
 164              		.loc 1 142 0
 165 0004 0A00     		movs	r2, r1
 166              	.LVL7:
 167 0006 0100     		movs	r1, r0
 168              	.LVL8:
 169 0008 0148     		ldr	r0, .L12
 170              	.LVL9:
 171 000a FFF7FEFF 		bl	printf
 172              	.LVL10:
 143:Code\Device\GPRS/AtProtocol.c **** }
 173              		.loc 1 143 0
 174              		@ sp needed
 175 000e 10BD     		pop	{r4, pc}
 176              	.L13:
 177              		.align	2
 178              	.L12:
 179 0010 00000000 		.word	.LC7
 180              		.cfi_endproc
 181              	.LFE65:
 182              		.size	GPRS_Send_ConnectServer, .-GPRS_Send_ConnectServer
 183              		.section	.text.GPRS_Send_LengthOfSendData,"ax",%progbits
 184              		.align	1
 185              		.global	GPRS_Send_LengthOfSendData
 186              		.code	16
 187              		.thumb_func
ARM GAS  C:\Users\Administrator\AppData\Local\Temp\ccHCWnFN.s 			page 7


 188              		.type	GPRS_Send_LengthOfSendData, %function
 189              	GPRS_Send_LengthOfSendData:
 190              	.LFB66:
 144:Code\Device\GPRS/AtProtocol.c **** 
 145:Code\Device\GPRS/AtProtocol.c **** //*************************************************************************************************
 146:Code\Device\GPRS/AtProtocol.c **** // Function name	: GPRS_Send_LengthOfSendData
 147:Code\Device\GPRS/AtProtocol.c **** // Description		: 设置发送数据的长度
 148:Code\Device\GPRS/AtProtocol.c **** // Parameter		: len	: 发送的数据长度
 149:Code\Device\GPRS/AtProtocol.c **** // Return			: none
 150:Code\Device\GPRS/AtProtocol.c **** //-------------------------------------------------------------------------------------------------
 151:Code\Device\GPRS/AtProtocol.c **** // Info				: 
 152:Code\Device\GPRS/AtProtocol.c **** //*************************************************************************************************
 153:Code\Device\GPRS/AtProtocol.c **** void GPRS_Send_LengthOfSendData(uint16_t len)
 154:Code\Device\GPRS/AtProtocol.c **** {
 191              		.loc 1 154 0
 192              		.cfi_startproc
 193              		@ args = 0, pretend = 0, frame = 0
 194              		@ frame_needed = 0, uses_anonymous_args = 0
 195              	.LVL11:
 196 0000 10B5     		push	{r4, lr}
 197              		.cfi_def_cfa_offset 8
 198              		.cfi_offset 4, -8
 199              		.cfi_offset 14, -4
 200              		.loc 1 154 0
 201 0002 0100     		movs	r1, r0
 155:Code\Device\GPRS/AtProtocol.c **** 	printf("AT+IPSEND=%d\r\n",len);
 202              		.loc 1 155 0
 203 0004 0148     		ldr	r0, .L15
 204              	.LVL12:
 205 0006 FFF7FEFF 		bl	printf
 206              	.LVL13:
 156:Code\Device\GPRS/AtProtocol.c **** }
 207              		.loc 1 156 0
 208              		@ sp needed
 209 000a 10BD     		pop	{r4, pc}
 210              	.L16:
 211              		.align	2
 212              	.L15:
 213 000c 1A000000 		.word	.LC9
 214              		.cfi_endproc
 215              	.LFE66:
 216              		.size	GPRS_Send_LengthOfSendData, .-GPRS_Send_LengthOfSendData
 217              		.section	.text.GPRS_AT_CheckAck,"ax",%progbits
 218              		.align	1
 219              		.global	GPRS_AT_CheckAck
 220              		.code	16
 221              		.thumb_func
 222              		.type	GPRS_AT_CheckAck, %function
 223              	GPRS_AT_CheckAck:
 224              	.LFB67:
 157:Code\Device\GPRS/AtProtocol.c **** 
 158:Code\Device\GPRS/AtProtocol.c **** //*************************************************************************************************
 159:Code\Device\GPRS/AtProtocol.c **** // Function name	: GPRS_AT_CheckAck
 160:Code\Device\GPRS/AtProtocol.c **** // Description		: 检测AT指令的应答
 161:Code\Device\GPRS/AtProtocol.c **** // Parameter		: r_char	: 应答的指令
 162:Code\Device\GPRS/AtProtocol.c **** // Return			: 1: OK; 0: Err
 163:Code\Device\GPRS/AtProtocol.c **** //-------------------------------------------------------------------------------------------------
ARM GAS  C:\Users\Administrator\AppData\Local\Temp\ccHCWnFN.s 			page 8


 164:Code\Device\GPRS/AtProtocol.c **** // Info				: 通用的检查是否有指定字段的函数.
 165:Code\Device\GPRS/AtProtocol.c **** //*************************************************************************************************
 166:Code\Device\GPRS/AtProtocol.c **** uint8_t GPRS_AT_CheckAck(char *r_char)
 167:Code\Device\GPRS/AtProtocol.c **** {
 225              		.loc 1 167 0
 226              		.cfi_startproc
 227              		@ args = 0, pretend = 0, frame = 0
 228              		@ frame_needed = 0, uses_anonymous_args = 0
 229              	.LVL14:
 230 0000 10B5     		push	{r4, lr}
 231              		.cfi_def_cfa_offset 8
 232              		.cfi_offset 4, -8
 233              		.cfi_offset 14, -4
 234              		.loc 1 167 0
 235 0002 0100     		movs	r1, r0
 168:Code\Device\GPRS/AtProtocol.c **** 	uint8_t ret; 
 169:Code\Device\GPRS/AtProtocol.c **** 	
 170:Code\Device\GPRS/AtProtocol.c ****     if (strstr((char *)GPRS_AT_Buf, r_char))					// 检查应答是否有指定字段				//
 236              		.loc 1 170 0
 237 0004 0348     		ldr	r0, .L18
 238              	.LVL15:
 239 0006 FFF7FEFF 		bl	strstr
 240              	.LVL16:
 171:Code\Device\GPRS/AtProtocol.c ****     {
 172:Code\Device\GPRS/AtProtocol.c ****         ret = TRUE;
 173:Code\Device\GPRS/AtProtocol.c ****     }
 174:Code\Device\GPRS/AtProtocol.c ****     else
 175:Code\Device\GPRS/AtProtocol.c ****     {   
 176:Code\Device\GPRS/AtProtocol.c ****         ret = FALSE;
 177:Code\Device\GPRS/AtProtocol.c ****     }
 178:Code\Device\GPRS/AtProtocol.c **** 	return ret;
 241              		.loc 1 178 0
 242 000a 431E     		subs	r3, r0, #1
 243 000c 9841     		sbcs	r0, r0, r3
 244              	.LVL17:
 179:Code\Device\GPRS/AtProtocol.c **** }
 245              		.loc 1 179 0
 246              		@ sp needed
 178:Code\Device\GPRS/AtProtocol.c **** }
 247              		.loc 1 178 0
 248 000e C0B2     		uxtb	r0, r0
 249              		.loc 1 179 0
 250 0010 10BD     		pop	{r4, pc}
 251              	.L19:
 252 0012 C046     		.align	2
 253              	.L18:
 254 0014 00000000 		.word	GPRS_AT_Buf
 255              		.cfi_endproc
 256              	.LFE67:
 257              		.size	GPRS_AT_CheckAck, .-GPRS_AT_CheckAck
 258              		.section	.text.GPRS_AT_SendAndCheckAck,"ax",%progbits
 259              		.align	1
 260              		.global	GPRS_AT_SendAndCheckAck
 261              		.code	16
 262              		.thumb_func
 263              		.type	GPRS_AT_SendAndCheckAck, %function
 264              	GPRS_AT_SendAndCheckAck:
ARM GAS  C:\Users\Administrator\AppData\Local\Temp\ccHCWnFN.s 			page 9


 265              	.LFB68:
 180:Code\Device\GPRS/AtProtocol.c **** 
 181:Code\Device\GPRS/AtProtocol.c **** //*************************************************************************************************
 182:Code\Device\GPRS/AtProtocol.c **** // Function name	: GPRS_AT_SendAndCheckAck
 183:Code\Device\GPRS/AtProtocol.c **** // Description		: 发送命令并检查应答结果
 184:Code\Device\GPRS/AtProtocol.c **** // Parameter		: s_char	: 发送的字符
 185:Code\Device\GPRS/AtProtocol.c **** //					: r_char	: 准备接收的字符
 186:Code\Device\GPRS/AtProtocol.c **** //					: size		: 发送字符的长度
 187:Code\Device\GPRS/AtProtocol.c **** //					: timeout	: 超时时间
 188:Code\Device\GPRS/AtProtocol.c **** // Return			: 1: TRUE; 0: FALSE
 189:Code\Device\GPRS/AtProtocol.c **** //-------------------------------------------------------------------------------------------------
 190:Code\Device\GPRS/AtProtocol.c **** // Info				: 通用的发送AT指令，等待应答回复并判断是否有指定字段的函数.
 191:Code\Device\GPRS/AtProtocol.c **** //*************************************************************************************************
 192:Code\Device\GPRS/AtProtocol.c **** uint8_t GPRS_AT_SendAndCheckAck(char *s_char, char *r_char, uint16_t size, uint16_t timeout)
 193:Code\Device\GPRS/AtProtocol.c **** {
 266              		.loc 1 193 0
 267              		.cfi_startproc
 268              		@ args = 0, pretend = 0, frame = 0
 269              		@ frame_needed = 0, uses_anonymous_args = 0
 270              	.LVL18:
 271 0000 F8B5     		push	{r3, r4, r5, r6, r7, lr}
 272              		.cfi_def_cfa_offset 24
 273              		.cfi_offset 3, -24
 274              		.cfi_offset 4, -20
 275              		.cfi_offset 5, -16
 276              		.cfi_offset 6, -12
 277              		.cfi_offset 7, -8
 278              		.cfi_offset 14, -4
 279              		.loc 1 193 0
 280 0002 1700     		movs	r7, r2
 281 0004 0500     		movs	r5, r0
 282 0006 1C00     		movs	r4, r3
 283 0008 0E00     		movs	r6, r1
 194:Code\Device\GPRS/AtProtocol.c **** 	uint8_t ret;
 195:Code\Device\GPRS/AtProtocol.c **** 	
 196:Code\Device\GPRS/AtProtocol.c **** 	GPRS_AT_ParaInit();
 284              		.loc 1 196 0
 285 000a FFF7FEFF 		bl	GPRS_AT_ParaInit
 286              	.LVL19:
 197:Code\Device\GPRS/AtProtocol.c **** 	
 198:Code\Device\GPRS/AtProtocol.c **** 	Uart433Send((uint8_t *)s_char, size);						// 发送指定的AT指令						//
 287              		.loc 1 198 0
 288 000e 3900     		movs	r1, r7
 289 0010 2800     		movs	r0, r5
 290 0012 FFF7FEFF 		bl	Uart433Send
 291              	.LVL20:
 199:Code\Device\GPRS/AtProtocol.c **** 	wait_timeout = timeout;										// 设置AT应答接收超时时间				//
 292              		.loc 1 199 0
 293 0016 0B4B     		ldr	r3, .L28
 200:Code\Device\GPRS/AtProtocol.c **** 	ret = FALSE;
 294              		.loc 1 200 0
 295 0018 0025     		movs	r5, #0
 296              	.LVL21:
 297 001a 1F00     		movs	r7, r3
 199:Code\Device\GPRS/AtProtocol.c **** 	wait_timeout = timeout;										// 设置AT应答接收超时时间				//
 298              		.loc 1 199 0
 299 001c 1C60     		str	r4, [r3]
ARM GAS  C:\Users\Administrator\AppData\Local\Temp\ccHCWnFN.s 			page 10


 300              	.LVL22:
 301              	.L21:
 201:Code\Device\GPRS/AtProtocol.c **** 	while ((ret != TRUE) && (wait_timeout > 0))
 302              		.loc 1 201 0 discriminator 1
 303 001e 3B68     		ldr	r3, [r7]
 304 0020 002B     		cmp	r3, #0
 305 0022 0DD0     		beq	.L23
 306              	.LBB6:
 202:Code\Device\GPRS/AtProtocol.c **** 	{
 203:Code\Device\GPRS/AtProtocol.c **** 	    if (GPRS_AT_RecFinish == SET)
 307              		.loc 1 203 0
 308 0024 084C     		ldr	r4, .L28+4
 309 0026 2378     		ldrb	r3, [r4]
 310 0028 012B     		cmp	r3, #1
 311 002a 05D1     		bne	.L22
 204:Code\Device\GPRS/AtProtocol.c **** 		{
 205:Code\Device\GPRS/AtProtocol.c **** 	        ret = GPRS_AT_CheckAck(r_char);
 312              		.loc 1 205 0
 313 002c 3000     		movs	r0, r6
 314 002e FFF7FEFF 		bl	GPRS_AT_CheckAck
 315              	.LVL23:
 206:Code\Device\GPRS/AtProtocol.c **** 			GPRS_AT_RecFinish = RESET;
 316              		.loc 1 206 0
 317 0032 0023     		movs	r3, #0
 205:Code\Device\GPRS/AtProtocol.c **** 			GPRS_AT_RecFinish = RESET;
 318              		.loc 1 205 0
 319 0034 0500     		movs	r5, r0
 320              	.LVL24:
 321              		.loc 1 206 0
 322 0036 2370     		strb	r3, [r4]
 323              	.LVL25:
 324              	.L22:
 207:Code\Device\GPRS/AtProtocol.c **** 		}
 208:Code\Device\GPRS/AtProtocol.c ****         sys_heartbeat();
 325              		.loc 1 208 0
 326 0038 FFF7FEFF 		bl	sys_heartbeat
 327              	.LVL26:
 328              	.LBE6:
 201:Code\Device\GPRS/AtProtocol.c **** 	{
 329              		.loc 1 201 0
 330 003c 012D     		cmp	r5, #1
 331 003e EED1     		bne	.L21
 332              	.L23:
 209:Code\Device\GPRS/AtProtocol.c **** 	}
 210:Code\Device\GPRS/AtProtocol.c **** 	return ret;
 211:Code\Device\GPRS/AtProtocol.c **** }
 333              		.loc 1 211 0
 334 0040 2800     		movs	r0, r5
 335              		@ sp needed
 336              	.LVL27:
 337              	.LVL28:
 338 0042 F8BD     		pop	{r3, r4, r5, r6, r7, pc}
 339              	.L29:
 340              		.align	2
 341              	.L28:
 342 0044 00000000 		.word	wait_timeout
 343 0048 00000000 		.word	GPRS_AT_RecFinish
ARM GAS  C:\Users\Administrator\AppData\Local\Temp\ccHCWnFN.s 			page 11


 344              		.cfi_endproc
 345              	.LFE68:
 346              		.size	GPRS_AT_SendAndCheckAck, .-GPRS_AT_SendAndCheckAck
 347              		.section	.text.GPRS_WaitInitFinish,"ax",%progbits
 348              		.align	1
 349              		.global	GPRS_WaitInitFinish
 350              		.code	16
 351              		.thumb_func
 352              		.type	GPRS_WaitInitFinish, %function
 353              	GPRS_WaitInitFinish:
 354              	.LFB69:
 212:Code\Device\GPRS/AtProtocol.c **** 
 213:Code\Device\GPRS/AtProtocol.c **** //*************************************************************************************************
 214:Code\Device\GPRS/AtProtocol.c **** // Function name	: GPRS_WaitInitFinish
 215:Code\Device\GPRS/AtProtocol.c **** // Description		: 等待GPRS初始化完成
 216:Code\Device\GPRS/AtProtocol.c **** // Parameter		: none
 217:Code\Device\GPRS/AtProtocol.c **** // Return			: 结果 TRUE / FALSE
 218:Code\Device\GPRS/AtProtocol.c **** //-------------------------------------------------------------------------------------------------
 219:Code\Device\GPRS/AtProtocol.c **** // Info				: const char AT_CTZR[] = {"AT+CTZR=1\r\n"};
 220:Code\Device\GPRS/AtProtocol.c **** //*************************************************************************************************
 221:Code\Device\GPRS/AtProtocol.c **** uint8_t GPRS_WaitInitFinish(void)
 222:Code\Device\GPRS/AtProtocol.c **** {
 355              		.loc 1 222 0
 356              		.cfi_startproc
 357              		@ args = 0, pretend = 0, frame = 0
 358              		@ frame_needed = 0, uses_anonymous_args = 0
 359 0000 70B5     		push	{r4, r5, r6, lr}
 360              		.cfi_def_cfa_offset 16
 361              		.cfi_offset 4, -16
 362              		.cfi_offset 5, -12
 363              		.cfi_offset 6, -8
 364              		.cfi_offset 14, -4
 223:Code\Device\GPRS/AtProtocol.c **** 	uint8_t ret;
 224:Code\Device\GPRS/AtProtocol.c **** 	
 225:Code\Device\GPRS/AtProtocol.c **** 	GPRS_AT_ParaInit();
 365              		.loc 1 225 0
 366 0002 FFF7FEFF 		bl	GPRS_AT_ParaInit
 367              	.LVL29:
 226:Code\Device\GPRS/AtProtocol.c **** 	
 227:Code\Device\GPRS/AtProtocol.c **** 	wait_timeout = 20000;
 368              		.loc 1 227 0
 369 0006 0C4B     		ldr	r3, .L38
 228:Code\Device\GPRS/AtProtocol.c **** 	ret = FALSE;
 370              		.loc 1 228 0
 371 0008 0026     		movs	r6, #0
 372 000a 1D00     		movs	r5, r3
 227:Code\Device\GPRS/AtProtocol.c **** 	ret = FALSE;
 373              		.loc 1 227 0
 374 000c 0B4A     		ldr	r2, .L38+4
 375 000e 1A60     		str	r2, [r3]
 376              	.LVL30:
 377              	.L31:
 229:Code\Device\GPRS/AtProtocol.c **** 	while ((ret != TRUE) && (wait_timeout > 0))
 378              		.loc 1 229 0 discriminator 1
 379 0010 2B68     		ldr	r3, [r5]
 380 0012 002B     		cmp	r3, #0
 381 0014 0DD0     		beq	.L33
ARM GAS  C:\Users\Administrator\AppData\Local\Temp\ccHCWnFN.s 			page 12


 382              	.LBB7:
 230:Code\Device\GPRS/AtProtocol.c **** 	{
 231:Code\Device\GPRS/AtProtocol.c **** 		if (GPRS_AT_RecFinish == SET)
 383              		.loc 1 231 0
 384 0016 0A4C     		ldr	r4, .L38+8
 385 0018 2378     		ldrb	r3, [r4]
 386 001a 012B     		cmp	r3, #1
 387 001c 05D1     		bne	.L32
 232:Code\Device\GPRS/AtProtocol.c **** 		{
 233:Code\Device\GPRS/AtProtocol.c **** 			ret = GPRS_AT_CheckAck((char *)AT_INIT_OK);
 388              		.loc 1 233 0
 389 001e 0948     		ldr	r0, .L38+12
 390 0020 FFF7FEFF 		bl	GPRS_AT_CheckAck
 391              	.LVL31:
 234:Code\Device\GPRS/AtProtocol.c **** 			GPRS_AT_RecFinish = RESET;
 392              		.loc 1 234 0
 393 0024 0023     		movs	r3, #0
 233:Code\Device\GPRS/AtProtocol.c **** 			GPRS_AT_RecFinish = RESET;
 394              		.loc 1 233 0
 395 0026 0600     		movs	r6, r0
 396              	.LVL32:
 397              		.loc 1 234 0
 398 0028 2370     		strb	r3, [r4]
 399              	.LVL33:
 400              	.L32:
 235:Code\Device\GPRS/AtProtocol.c **** 		}
 236:Code\Device\GPRS/AtProtocol.c ****         sys_heartbeat();
 401              		.loc 1 236 0
 402 002a FFF7FEFF 		bl	sys_heartbeat
 403              	.LVL34:
 404              	.LBE7:
 229:Code\Device\GPRS/AtProtocol.c **** 	{
 405              		.loc 1 229 0
 406 002e 012E     		cmp	r6, #1
 407 0030 EED1     		bne	.L31
 408              	.L33:
 237:Code\Device\GPRS/AtProtocol.c **** 	}
 238:Code\Device\GPRS/AtProtocol.c **** 	return ret;
 239:Code\Device\GPRS/AtProtocol.c **** }
 409              		.loc 1 239 0
 410 0032 3000     		movs	r0, r6
 411              		@ sp needed
 412              	.LVL35:
 413 0034 70BD     		pop	{r4, r5, r6, pc}
 414              	.L39:
 415 0036 C046     		.align	2
 416              	.L38:
 417 0038 00000000 		.word	wait_timeout
 418 003c 204E0000 		.word	20000
 419 0040 00000000 		.word	GPRS_AT_RecFinish
 420 0044 00000000 		.word	.LANCHOR0
 421              		.cfi_endproc
 422              	.LFE69:
 423              		.size	GPRS_WaitInitFinish, .-GPRS_WaitInitFinish
 424              		.section	.text.GPRS_TestAndWaitCommonOK,"ax",%progbits
 425              		.align	1
 426              		.global	GPRS_TestAndWaitCommonOK
ARM GAS  C:\Users\Administrator\AppData\Local\Temp\ccHCWnFN.s 			page 13


 427              		.code	16
 428              		.thumb_func
 429              		.type	GPRS_TestAndWaitCommonOK, %function
 430              	GPRS_TestAndWaitCommonOK:
 431              	.LFB70:
 240:Code\Device\GPRS/AtProtocol.c **** 
 241:Code\Device\GPRS/AtProtocol.c **** //*************************************************************************************************
 242:Code\Device\GPRS/AtProtocol.c **** // Function name	: GPRS_TestAndWaitCommonOK
 243:Code\Device\GPRS/AtProtocol.c **** // Description		: 连续发AT命令4次，共20秒钟，等待通讯正常
 244:Code\Device\GPRS/AtProtocol.c **** // Parameter		: none
 245:Code\Device\GPRS/AtProtocol.c **** // Return			: 结果 TRUE / FALSE
 246:Code\Device\GPRS/AtProtocol.c **** //-------------------------------------------------------------------------------------------------
 247:Code\Device\GPRS/AtProtocol.c **** // Info				: 
 248:Code\Device\GPRS/AtProtocol.c **** //*************************************************************************************************
 249:Code\Device\GPRS/AtProtocol.c **** uint8_t GPRS_TestAndWaitCommonOK(void)
 250:Code\Device\GPRS/AtProtocol.c **** {
 432              		.loc 1 250 0
 433              		.cfi_startproc
 434              		@ args = 0, pretend = 0, frame = 0
 435              		@ frame_needed = 0, uses_anonymous_args = 0
 436              	.LVL36:
 437 0000 10B5     		push	{r4, lr}
 438              		.cfi_def_cfa_offset 8
 439              		.cfi_offset 4, -8
 440              		.cfi_offset 14, -4
 441              		.loc 1 250 0
 442 0002 1424     		movs	r4, #20
 443              	.LVL37:
 444              	.L42:
 251:Code\Device\GPRS/AtProtocol.c **** 	uint8_t i, ret;
 252:Code\Device\GPRS/AtProtocol.c **** 	
 253:Code\Device\GPRS/AtProtocol.c **** 	for (i = 0; i < 20; i++)
 254:Code\Device\GPRS/AtProtocol.c **** 	{
 255:Code\Device\GPRS/AtProtocol.c **** 		ret = GPRS_AT_SendAndCheckAck((char *)AT_AT, (char *)AT_OK, strlen(AT_AT), 200);
 445              		.loc 1 255 0
 446 0004 0648     		ldr	r0, .L47
 447 0006 C823     		movs	r3, #200
 448 0008 C11D     		adds	r1, r0, #7
 449 000a 0422     		movs	r2, #4
 450 000c 0A30     		adds	r0, r0, #10
 451 000e FFF7FEFF 		bl	GPRS_AT_SendAndCheckAck
 452              	.LVL38:
 256:Code\Device\GPRS/AtProtocol.c **** 		if (ret == TRUE)
 453              		.loc 1 256 0
 454 0012 0128     		cmp	r0, #1
 455 0014 03D0     		beq	.L41
 456              	.LVL39:
 457 0016 013C     		subs	r4, r4, #1
 458              	.LVL40:
 459 0018 E4B2     		uxtb	r4, r4
 253:Code\Device\GPRS/AtProtocol.c **** 	{
 460              		.loc 1 253 0 discriminator 2
 461 001a 002C     		cmp	r4, #0
 462 001c F2D1     		bne	.L42
 463              	.L41:
 257:Code\Device\GPRS/AtProtocol.c **** 		{
 258:Code\Device\GPRS/AtProtocol.c **** 			break;
ARM GAS  C:\Users\Administrator\AppData\Local\Temp\ccHCWnFN.s 			page 14


 259:Code\Device\GPRS/AtProtocol.c **** 		}
 260:Code\Device\GPRS/AtProtocol.c **** 	}
 261:Code\Device\GPRS/AtProtocol.c **** 	return ret;
 262:Code\Device\GPRS/AtProtocol.c **** }
 464              		.loc 1 262 0
 465              		@ sp needed
 466 001e 10BD     		pop	{r4, pc}
 467              	.L48:
 468              		.align	2
 469              	.L47:
 470 0020 00000000 		.word	.LANCHOR0
 471              		.cfi_endproc
 472              	.LFE70:
 473              		.size	GPRS_TestAndWaitCommonOK, .-GPRS_TestAndWaitCommonOK
 474              		.section	.text.GPRS_QuerySimCard,"ax",%progbits
 475              		.align	1
 476              		.global	GPRS_QuerySimCard
 477              		.code	16
 478              		.thumb_func
 479              		.type	GPRS_QuerySimCard, %function
 480              	GPRS_QuerySimCard:
 481              	.LFB71:
 263:Code\Device\GPRS/AtProtocol.c **** 
 264:Code\Device\GPRS/AtProtocol.c **** //*************************************************************************************************
 265:Code\Device\GPRS/AtProtocol.c **** // Function name	: GPRS_QuerySimCard
 266:Code\Device\GPRS/AtProtocol.c **** // Description		: 查询Sim卡是否正确连接
 267:Code\Device\GPRS/AtProtocol.c **** // Parameter		: none
 268:Code\Device\GPRS/AtProtocol.c **** // Return			: 结果 TRUE / FALSE
 269:Code\Device\GPRS/AtProtocol.c **** //-------------------------------------------------------------------------------------------------
 270:Code\Device\GPRS/AtProtocol.c **** // Info				: 
 271:Code\Device\GPRS/AtProtocol.c **** //*************************************************************************************************
 272:Code\Device\GPRS/AtProtocol.c **** uint8_t GPRS_QuerySimCard(void)
 273:Code\Device\GPRS/AtProtocol.c **** {
 482              		.loc 1 273 0
 483              		.cfi_startproc
 484              		@ args = 0, pretend = 0, frame = 0
 485              		@ frame_needed = 0, uses_anonymous_args = 0
 486              	.LVL41:
 487 0000 10B5     		push	{r4, lr}
 488              		.cfi_def_cfa_offset 8
 489              		.cfi_offset 4, -8
 490              		.cfi_offset 14, -4
 491              		.loc 1 273 0
 492 0002 0324     		movs	r4, #3
 493              	.LVL42:
 494              	.L51:
 274:Code\Device\GPRS/AtProtocol.c **** 	uint8_t i, ret;
 275:Code\Device\GPRS/AtProtocol.c **** 	
 276:Code\Device\GPRS/AtProtocol.c **** 	for (i = 0; i < 3; i++)
 277:Code\Device\GPRS/AtProtocol.c **** 	{
 278:Code\Device\GPRS/AtProtocol.c **** 		ret = GPRS_AT_SendAndCheckAck((char *)AT_CPIN, (char *)AT_RECPIN, strlen(AT_CPIN), 1500);
 495              		.loc 1 278 0
 496 0004 0748     		ldr	r0, .L56
 497 0006 084B     		ldr	r3, .L56+4
 498 0008 0100     		movs	r1, r0
 499 000a 0A22     		movs	r2, #10
 500 000c 0F31     		adds	r1, r1, #15
ARM GAS  C:\Users\Administrator\AppData\Local\Temp\ccHCWnFN.s 			page 15


 501 000e 1E30     		adds	r0, r0, #30
 502 0010 FFF7FEFF 		bl	GPRS_AT_SendAndCheckAck
 503              	.LVL43:
 279:Code\Device\GPRS/AtProtocol.c **** 		if (ret == TRUE)
 504              		.loc 1 279 0
 505 0014 0128     		cmp	r0, #1
 506 0016 03D0     		beq	.L50
 507              	.LVL44:
 508 0018 013C     		subs	r4, r4, #1
 509              	.LVL45:
 510 001a E4B2     		uxtb	r4, r4
 276:Code\Device\GPRS/AtProtocol.c **** 	{
 511              		.loc 1 276 0 discriminator 2
 512 001c 002C     		cmp	r4, #0
 513 001e F1D1     		bne	.L51
 514              	.L50:
 280:Code\Device\GPRS/AtProtocol.c **** 		{
 281:Code\Device\GPRS/AtProtocol.c **** 			break;
 282:Code\Device\GPRS/AtProtocol.c **** 		}
 283:Code\Device\GPRS/AtProtocol.c **** 	}
 284:Code\Device\GPRS/AtProtocol.c **** 	return ret;
 285:Code\Device\GPRS/AtProtocol.c **** }
 515              		.loc 1 285 0
 516              		@ sp needed
 517 0020 10BD     		pop	{r4, pc}
 518              	.L57:
 519 0022 C046     		.align	2
 520              	.L56:
 521 0024 00000000 		.word	.LANCHOR0
 522 0028 DC050000 		.word	1500
 523              		.cfi_endproc
 524              	.LFE71:
 525              		.size	GPRS_QuerySimCard, .-GPRS_QuerySimCard
 526              		.section	.text.GPRS_QueryCREG,"ax",%progbits
 527              		.align	1
 528              		.global	GPRS_QueryCREG
 529              		.code	16
 530              		.thumb_func
 531              		.type	GPRS_QueryCREG, %function
 532              	GPRS_QueryCREG:
 533              	.LFB72:
 286:Code\Device\GPRS/AtProtocol.c **** 
 287:Code\Device\GPRS/AtProtocol.c **** 
 288:Code\Device\GPRS/AtProtocol.c **** //*************************************************************************************************
 289:Code\Device\GPRS/AtProtocol.c **** // Function name	: GPRS_QuerySimCard
 290:Code\Device\GPRS/AtProtocol.c **** // Description		: 确认CS域网络注册成功
 291:Code\Device\GPRS/AtProtocol.c **** // Parameter		: none
 292:Code\Device\GPRS/AtProtocol.c **** // Return			: 结果 TRUE / FALSE
 293:Code\Device\GPRS/AtProtocol.c **** //-------------------------------------------------------------------------------------------------
 294:Code\Device\GPRS/AtProtocol.c **** // Info				: 
 295:Code\Device\GPRS/AtProtocol.c **** //*************************************************************************************************
 296:Code\Device\GPRS/AtProtocol.c **** uint8_t GPRS_QueryCREG(void)
 297:Code\Device\GPRS/AtProtocol.c **** {
 534              		.loc 1 297 0
 535              		.cfi_startproc
 536              		@ args = 0, pretend = 0, frame = 0
 537              		@ frame_needed = 0, uses_anonymous_args = 0
ARM GAS  C:\Users\Administrator\AppData\Local\Temp\ccHCWnFN.s 			page 16


 538              	.LVL46:
 539 0000 70B5     		push	{r4, r5, r6, lr}
 540              		.cfi_def_cfa_offset 16
 541              		.cfi_offset 4, -16
 542              		.cfi_offset 5, -12
 543              		.cfi_offset 6, -8
 544              		.cfi_offset 14, -4
 545              		.loc 1 297 0
 546 0002 0324     		movs	r4, #3
 547              	.LVL47:
 548              	.L61:
 298:Code\Device\GPRS/AtProtocol.c **** 	uint8_t i, ret;
 299:Code\Device\GPRS/AtProtocol.c **** 	uint8_t tmp[2] = {0};
 300:Code\Device\GPRS/AtProtocol.c **** 	for (i = 0; i < 3; i++)
 301:Code\Device\GPRS/AtProtocol.c **** 	{
 302:Code\Device\GPRS/AtProtocol.c **** 		ret = GPRS_AT_SendAndCheckAck((char *)AT_CREG, (char *)AT_RECREG, strlen(AT_CREG), 1500);
 549              		.loc 1 302 0
 550 0004 0D48     		ldr	r0, .L69
 551 0006 0E4B     		ldr	r3, .L69+4
 552 0008 0100     		movs	r1, r0
 553 000a 0A22     		movs	r2, #10
 554 000c 2931     		adds	r1, r1, #41
 555 000e 3030     		adds	r0, r0, #48
 556 0010 FFF7FEFF 		bl	GPRS_AT_SendAndCheckAck
 557              	.LVL48:
 558 0014 0500     		movs	r5, r0
 559              	.LVL49:
 303:Code\Device\GPRS/AtProtocol.c **** 		if (ret == TRUE)
 560              		.loc 1 303 0
 561 0016 0128     		cmp	r0, #1
 562 0018 09D1     		bne	.L59
 304:Code\Device\GPRS/AtProtocol.c **** 		{
 305:Code\Device\GPRS/AtProtocol.c **** 			tmp[0] = CyCharToHex(GPRS_AT_Buf[9]);
 563              		.loc 1 305 0
 564 001a 0A4B     		ldr	r3, .L69+8
 565 001c 5A7A     		ldrb	r2, [r3, #9]
 306:Code\Device\GPRS/AtProtocol.c **** 			tmp[1] = CyCharToHex(GPRS_AT_Buf[11]);
 566              		.loc 1 306 0
 567 001e D87A     		ldrb	r0, [r3, #11]
 568              	.LVL50:
 569 0020 C0B2     		uxtb	r0, r0
 570 0022 FFF7FEFF 		bl	CyCharToHex
 571              	.LVL51:
 307:Code\Device\GPRS/AtProtocol.c **** 			DBG_SOFT_PutStr("\nCREG:");
 308:Code\Device\GPRS/AtProtocol.c **** 			DBG_SOFT_PrintfHex(tmp,2,16);
 309:Code\Device\GPRS/AtProtocol.c **** 			if(tmp[1] == 1)
 572              		.loc 1 309 0
 573 0026 0128     		cmp	r0, #1
 574 0028 06D0     		beq	.L60
 310:Code\Device\GPRS/AtProtocol.c **** 			{
 311:Code\Device\GPRS/AtProtocol.c **** 				return TRUE;
 312:Code\Device\GPRS/AtProtocol.c **** 			}
 313:Code\Device\GPRS/AtProtocol.c **** 			else if (tmp[1] == 0)
 575              		.loc 1 313 0
 576 002a 0028     		cmp	r0, #0
 577 002c 04D0     		beq	.L60
 578              	.LVL52:
ARM GAS  C:\Users\Administrator\AppData\Local\Temp\ccHCWnFN.s 			page 17


 579              	.L59:
 580 002e 013C     		subs	r4, r4, #1
 581              	.LVL53:
 582 0030 E4B2     		uxtb	r4, r4
 300:Code\Device\GPRS/AtProtocol.c **** 	{
 583              		.loc 1 300 0 discriminator 2
 584 0032 002C     		cmp	r4, #0
 585 0034 E6D1     		bne	.L61
 302:Code\Device\GPRS/AtProtocol.c **** 		if (ret == TRUE)
 586              		.loc 1 302 0
 587 0036 2800     		movs	r0, r5
 588              	.LVL54:
 589              	.L60:
 314:Code\Device\GPRS/AtProtocol.c **** 			{
 315:Code\Device\GPRS/AtProtocol.c **** 				return FALSE;
 316:Code\Device\GPRS/AtProtocol.c **** 			}
 317:Code\Device\GPRS/AtProtocol.c **** 		}
 318:Code\Device\GPRS/AtProtocol.c **** 	}
 319:Code\Device\GPRS/AtProtocol.c **** 	return ret;
 320:Code\Device\GPRS/AtProtocol.c **** }
 590              		.loc 1 320 0
 591              		@ sp needed
 592 0038 70BD     		pop	{r4, r5, r6, pc}
 593              	.L70:
 594 003a C046     		.align	2
 595              	.L69:
 596 003c 00000000 		.word	.LANCHOR0
 597 0040 DC050000 		.word	1500
 598 0044 00000000 		.word	GPRS_AT_Buf
 599              		.cfi_endproc
 600              	.LFE72:
 601              		.size	GPRS_QueryCREG, .-GPRS_QueryCREG
 602              		.global	__aeabi_uidivmod
 603              		.global	__aeabi_uidiv
 604              		.section	.text.GPRS_QueryRssi,"ax",%progbits
 605              		.align	1
 606              		.global	GPRS_QueryRssi
 607              		.code	16
 608              		.thumb_func
 609              		.type	GPRS_QueryRssi, %function
 610              	GPRS_QueryRssi:
 611              	.LFB73:
 321:Code\Device\GPRS/AtProtocol.c **** // Description		: 查询模块信号强度 AT+CSQ
 322:Code\Device\GPRS/AtProtocol.c **** // Parameter		: none
 323:Code\Device\GPRS/AtProtocol.c **** // Return			: 结果 TRUE / FALSE
 324:Code\Device\GPRS/AtProtocol.c **** //-------------------------------------------------------------------------------------------------
 325:Code\Device\GPRS/AtProtocol.c **** // Info				: 
 326:Code\Device\GPRS/AtProtocol.c **** //*************************************************************************************************
 327:Code\Device\GPRS/AtProtocol.c **** uint8_t GPRS_QueryRssi(void)
 328:Code\Device\GPRS/AtProtocol.c **** {
 612              		.loc 1 328 0
 613              		.cfi_startproc
 614              		@ args = 0, pretend = 0, frame = 0
 615              		@ frame_needed = 0, uses_anonymous_args = 0
 616              	.LVL55:
 617 0000 70B5     		push	{r4, r5, r6, lr}
 618              		.cfi_def_cfa_offset 16
ARM GAS  C:\Users\Administrator\AppData\Local\Temp\ccHCWnFN.s 			page 18


 619              		.cfi_offset 4, -16
 620              		.cfi_offset 5, -12
 621              		.cfi_offset 6, -8
 622              		.cfi_offset 14, -4
 623              		.loc 1 328 0
 624 0002 0324     		movs	r4, #3
 625              	.LVL56:
 626              	.L74:
 329:Code\Device\GPRS/AtProtocol.c **** 	uint8_t i, ret,rssi;
 330:Code\Device\GPRS/AtProtocol.c **** 	uint8_t temp[2] = {0};
 331:Code\Device\GPRS/AtProtocol.c **** 	
 332:Code\Device\GPRS/AtProtocol.c **** 	for (i = 0; i < 3; i++)
 333:Code\Device\GPRS/AtProtocol.c **** 	{
 334:Code\Device\GPRS/AtProtocol.c **** 		ret = GPRS_AT_SendAndCheckAck((char *)AT_CSQ, (char *)AT_RECSQ, strlen(AT_CSQ), 1500);
 627              		.loc 1 334 0
 628 0004 1548     		ldr	r0, .L76
 629 0006 164B     		ldr	r3, .L76+4
 630 0008 0100     		movs	r1, r0
 631 000a 0822     		movs	r2, #8
 632 000c 3B31     		adds	r1, r1, #59
 633 000e 4130     		adds	r0, r0, #65
 634 0010 FFF7FEFF 		bl	GPRS_AT_SendAndCheckAck
 635              	.LVL57:
 335:Code\Device\GPRS/AtProtocol.c **** 		if (ret == TRUE)
 636              		.loc 1 335 0
 637 0014 0128     		cmp	r0, #1
 638 0016 1BD1     		bne	.L72
 336:Code\Device\GPRS/AtProtocol.c **** 		{	
 337:Code\Device\GPRS/AtProtocol.c **** 			temp[0] = CyCharToHex(GPRS_AT_Buf[8]);
 639              		.loc 1 337 0
 640 0018 124C     		ldr	r4, .L76+8
 641              	.LVL58:
 642 001a 207A     		ldrb	r0, [r4, #8]
 643              	.LVL59:
 644 001c C0B2     		uxtb	r0, r0
 645 001e FFF7FEFF 		bl	CyCharToHex
 646              	.LVL60:
 647 0022 0500     		movs	r5, r0
 648              	.LVL61:
 338:Code\Device\GPRS/AtProtocol.c **** 			temp[1] = CyCharToHex(GPRS_AT_Buf[9]);
 649              		.loc 1 338 0
 650 0024 607A     		ldrb	r0, [r4, #9]
 651 0026 C0B2     		uxtb	r0, r0
 652 0028 FFF7FEFF 		bl	CyCharToHex
 653              	.LVL62:
 339:Code\Device\GPRS/AtProtocol.c **** 			DBG_SOFT_PutStr("\nRssi:");
 340:Code\Device\GPRS/AtProtocol.c **** 			DBG_SOFT_PrintfHex(temp,2,16);
 341:Code\Device\GPRS/AtProtocol.c **** 			rssi = temp[0]*10+temp[1];
 654              		.loc 1 341 0
 655 002c 0A23     		movs	r3, #10
 656 002e 5D43     		muls	r5, r3
 657              	.LVL63:
 658 0030 4019     		adds	r0, r0, r5
 659              	.LVL64:
 660 0032 C5B2     		uxtb	r5, r0
 661              	.LVL65:
 342:Code\Device\GPRS/AtProtocol.c **** 			return ((rssi/6)+((rssi%6) ? 1:0));
ARM GAS  C:\Users\Administrator\AppData\Local\Temp\ccHCWnFN.s 			page 19


 662              		.loc 1 342 0
 663 0034 0621     		movs	r1, #6
 664 0036 2800     		movs	r0, r5
 665 0038 FFF7FEFF 		bl	__aeabi_uidivmod
 666              	.LVL66:
 667 003c CEB2     		uxtb	r6, r1
 668 003e 711E     		subs	r1, r6, #1
 669 0040 8E41     		sbcs	r6, r6, r1
 670 0042 2800     		movs	r0, r5
 671 0044 0621     		movs	r1, #6
 672 0046 FFF7FEFF 		bl	__aeabi_uidiv
 673              	.LVL67:
 674 004a 3618     		adds	r6, r6, r0
 675 004c F4B2     		uxtb	r4, r6
 676 004e 03E0     		b	.L73
 677              	.LVL68:
 678              	.L72:
 679 0050 013C     		subs	r4, r4, #1
 680              	.LVL69:
 681 0052 E4B2     		uxtb	r4, r4
 332:Code\Device\GPRS/AtProtocol.c **** 	{
 682              		.loc 1 332 0 discriminator 2
 683 0054 002C     		cmp	r4, #0
 684 0056 D5D1     		bne	.L74
 685              	.LVL70:
 686              	.L73:
 343:Code\Device\GPRS/AtProtocol.c **** 		}
 344:Code\Device\GPRS/AtProtocol.c **** 	}
 345:Code\Device\GPRS/AtProtocol.c **** 	return FALSE;	
 346:Code\Device\GPRS/AtProtocol.c **** }
 687              		.loc 1 346 0
 688 0058 2000     		movs	r0, r4
 689              		@ sp needed
 690 005a 70BD     		pop	{r4, r5, r6, pc}
 691              	.L77:
 692              		.align	2
 693              	.L76:
 694 005c 00000000 		.word	.LANCHOR0
 695 0060 DC050000 		.word	1500
 696 0064 00000000 		.word	GPRS_AT_Buf
 697              		.cfi_endproc
 698              	.LFE73:
 699              		.size	GPRS_QueryRssi, .-GPRS_QueryRssi
 700              		.section	.text.GPRS_SetAPN,"ax",%progbits
 701              		.align	1
 702              		.global	GPRS_SetAPN
 703              		.code	16
 704              		.thumb_func
 705              		.type	GPRS_SetAPN, %function
 706              	GPRS_SetAPN:
 707              	.LFB74:
 347:Code\Device\GPRS/AtProtocol.c **** //*************************************************************************************************
 348:Code\Device\GPRS/AtProtocol.c **** // Function name	: GPRS_QuerySimCard
 349:Code\Device\GPRS/AtProtocol.c **** // Description		: 设置GPRS模块APN
 350:Code\Device\GPRS/AtProtocol.c **** // Parameter		: none
 351:Code\Device\GPRS/AtProtocol.c **** // Return			: 结果 TRUE / FALSE
 352:Code\Device\GPRS/AtProtocol.c **** //-------------------------------------------------------------------------------------------------
ARM GAS  C:\Users\Administrator\AppData\Local\Temp\ccHCWnFN.s 			page 20


 353:Code\Device\GPRS/AtProtocol.c **** // Info				: 
 354:Code\Device\GPRS/AtProtocol.c **** //*************************************************************************************************
 355:Code\Device\GPRS/AtProtocol.c **** uint8_t GPRS_SetAPN(void)
 356:Code\Device\GPRS/AtProtocol.c **** {
 708              		.loc 1 356 0
 709              		.cfi_startproc
 710              		@ args = 0, pretend = 0, frame = 0
 711              		@ frame_needed = 0, uses_anonymous_args = 0
 712              	.LVL71:
 713 0000 10B5     		push	{r4, lr}
 714              		.cfi_def_cfa_offset 8
 715              		.cfi_offset 4, -8
 716              		.cfi_offset 14, -4
 717              		.loc 1 356 0
 718 0002 0324     		movs	r4, #3
 719              	.LVL72:
 720              	.L80:
 357:Code\Device\GPRS/AtProtocol.c **** 	uint8_t i, ret;
 358:Code\Device\GPRS/AtProtocol.c **** 	for (i = 0; i < 3; i++)
 359:Code\Device\GPRS/AtProtocol.c **** 	{
 360:Code\Device\GPRS/AtProtocol.c **** 		ret = GPRS_AT_SendAndCheckAck((char *)AT_APN, (char *)AT_OK, strlen(AT_APN), 1500);
 721              		.loc 1 360 0
 722 0004 0648     		ldr	r0, .L85
 723 0006 074B     		ldr	r3, .L85+4
 724 0008 C11D     		adds	r1, r0, #7
 725 000a 1B22     		movs	r2, #27
 726 000c 4A30     		adds	r0, r0, #74
 727 000e FFF7FEFF 		bl	GPRS_AT_SendAndCheckAck
 728              	.LVL73:
 361:Code\Device\GPRS/AtProtocol.c **** 		if (ret == TRUE)
 729              		.loc 1 361 0
 730 0012 0128     		cmp	r0, #1
 731 0014 03D0     		beq	.L79
 732              	.LVL74:
 733 0016 013C     		subs	r4, r4, #1
 734              	.LVL75:
 735 0018 E4B2     		uxtb	r4, r4
 358:Code\Device\GPRS/AtProtocol.c **** 	{
 736              		.loc 1 358 0 discriminator 2
 737 001a 002C     		cmp	r4, #0
 738 001c F2D1     		bne	.L80
 739              	.L79:
 362:Code\Device\GPRS/AtProtocol.c **** 		{
 363:Code\Device\GPRS/AtProtocol.c **** 			break;
 364:Code\Device\GPRS/AtProtocol.c **** 		}
 365:Code\Device\GPRS/AtProtocol.c **** 	}
 366:Code\Device\GPRS/AtProtocol.c **** 	return ret;
 367:Code\Device\GPRS/AtProtocol.c **** }
 740              		.loc 1 367 0
 741              		@ sp needed
 742 001e 10BD     		pop	{r4, pc}
 743              	.L86:
 744              		.align	2
 745              	.L85:
 746 0020 00000000 		.word	.LANCHOR0
 747 0024 DC050000 		.word	1500
 748              		.cfi_endproc
ARM GAS  C:\Users\Administrator\AppData\Local\Temp\ccHCWnFN.s 			page 21


 749              	.LFE74:
 750              		.size	GPRS_SetAPN, .-GPRS_SetAPN
 751              		.section	.text.GPRS_SetActive,"ax",%progbits
 752              		.align	1
 753              		.global	GPRS_SetActive
 754              		.code	16
 755              		.thumb_func
 756              		.type	GPRS_SetActive, %function
 757              	GPRS_SetActive:
 758              	.LFB75:
 368:Code\Device\GPRS/AtProtocol.c **** 
 369:Code\Device\GPRS/AtProtocol.c **** //*************************************************************************************************
 370:Code\Device\GPRS/AtProtocol.c **** // Function name	: GPRS_SetActive
 371:Code\Device\GPRS/AtProtocol.c **** // Description		: 设置激活PDP上下文
 372:Code\Device\GPRS/AtProtocol.c **** // Parameter		: none
 373:Code\Device\GPRS/AtProtocol.c **** // Return			: 结果 TRUE / FALSE
 374:Code\Device\GPRS/AtProtocol.c **** //-------------------------------------------------------------------------------------------------
 375:Code\Device\GPRS/AtProtocol.c **** // Info				: 
 376:Code\Device\GPRS/AtProtocol.c **** //*************************************************************************************************
 377:Code\Device\GPRS/AtProtocol.c **** uint8_t GPRS_SetActive(void)
 378:Code\Device\GPRS/AtProtocol.c **** {
 759              		.loc 1 378 0
 760              		.cfi_startproc
 761              		@ args = 0, pretend = 0, frame = 0
 762              		@ frame_needed = 0, uses_anonymous_args = 0
 763              	.LVL76:
 764 0000 10B5     		push	{r4, lr}
 765              		.cfi_def_cfa_offset 8
 766              		.cfi_offset 4, -8
 767              		.cfi_offset 14, -4
 768              		.loc 1 378 0
 769 0002 0324     		movs	r4, #3
 770              	.LVL77:
 771              	.L89:
 379:Code\Device\GPRS/AtProtocol.c **** 	uint8_t i, ret;
 380:Code\Device\GPRS/AtProtocol.c **** 	
 381:Code\Device\GPRS/AtProtocol.c **** 	for (i = 0; i < 3; i++)
 382:Code\Device\GPRS/AtProtocol.c **** 	{
 383:Code\Device\GPRS/AtProtocol.c **** 		ret = GPRS_AT_SendAndCheckAck((char *)AT_CGACT, (char *)AT_OK, strlen(AT_CGACT), 2000);
 772              		.loc 1 383 0
 773 0004 FA23     		movs	r3, #250
 774 0006 0748     		ldr	r0, .L94
 775 0008 DB00     		lsls	r3, r3, #3
 776 000a C11D     		adds	r1, r0, #7
 777 000c 0E22     		movs	r2, #14
 778 000e 6630     		adds	r0, r0, #102
 779 0010 FFF7FEFF 		bl	GPRS_AT_SendAndCheckAck
 780              	.LVL78:
 384:Code\Device\GPRS/AtProtocol.c **** 		if (ret == TRUE)
 781              		.loc 1 384 0
 782 0014 0128     		cmp	r0, #1
 783 0016 03D0     		beq	.L88
 784              	.LVL79:
 785 0018 013C     		subs	r4, r4, #1
 786              	.LVL80:
 787 001a E4B2     		uxtb	r4, r4
 381:Code\Device\GPRS/AtProtocol.c **** 	{
ARM GAS  C:\Users\Administrator\AppData\Local\Temp\ccHCWnFN.s 			page 22


 788              		.loc 1 381 0 discriminator 2
 789 001c 002C     		cmp	r4, #0
 790 001e F1D1     		bne	.L89
 791              	.L88:
 385:Code\Device\GPRS/AtProtocol.c **** 		{
 386:Code\Device\GPRS/AtProtocol.c **** 			break;
 387:Code\Device\GPRS/AtProtocol.c **** 		}
 388:Code\Device\GPRS/AtProtocol.c **** 	}
 389:Code\Device\GPRS/AtProtocol.c **** 	return ret;
 390:Code\Device\GPRS/AtProtocol.c **** }
 792              		.loc 1 390 0
 793              		@ sp needed
 794 0020 10BD     		pop	{r4, pc}
 795              	.L95:
 796 0022 C046     		.align	2
 797              	.L94:
 798 0024 00000000 		.word	.LANCHOR0
 799              		.cfi_endproc
 800              	.LFE75:
 801              		.size	GPRS_SetActive, .-GPRS_SetActive
 802              		.section	.text.GPRS_CheckConnectState,"ax",%progbits
 803              		.align	1
 804              		.global	GPRS_CheckConnectState
 805              		.code	16
 806              		.thumb_func
 807              		.type	GPRS_CheckConnectState, %function
 808              	GPRS_CheckConnectState:
 809              	.LFB76:
 391:Code\Device\GPRS/AtProtocol.c **** 
 392:Code\Device\GPRS/AtProtocol.c **** //*************************************************************************************************
 393:Code\Device\GPRS/AtProtocol.c **** // Function name	: GPRS_CheckConnectState
 394:Code\Device\GPRS/AtProtocol.c **** // Description		: 查询服务器连接状态
 395:Code\Device\GPRS/AtProtocol.c **** // Parameter		: none
 396:Code\Device\GPRS/AtProtocol.c **** // Return			: 1(TRUE): 已连接; 0(FALSE): 其它状态
 397:Code\Device\GPRS/AtProtocol.c **** //-------------------------------------------------------------------------------------------------
 398:Code\Device\GPRS/AtProtocol.c **** // Info				: const char AT_RECMSTATE_INITIAL[] = {"INITIAL"};
 399:Code\Device\GPRS/AtProtocol.c **** //					: const char AT_RECMSTATE_CONNECTD[] = {"CONNECTD"};
 400:Code\Device\GPRS/AtProtocol.c **** //					: const char AT_RECMSTATE_CLOSED[] = {"CLOSED"};
 401:Code\Device\GPRS/AtProtocol.c **** //*************************************************************************************************
 402:Code\Device\GPRS/AtProtocol.c **** uint8_t GPRS_CheckConnectState(void)
 403:Code\Device\GPRS/AtProtocol.c **** {
 810              		.loc 1 403 0
 811              		.cfi_startproc
 812              		@ args = 0, pretend = 0, frame = 0
 813              		@ frame_needed = 0, uses_anonymous_args = 0
 814 0000 70B5     		push	{r4, r5, r6, lr}
 815              		.cfi_def_cfa_offset 16
 816              		.cfi_offset 4, -16
 817              		.cfi_offset 5, -12
 818              		.cfi_offset 6, -8
 819              		.cfi_offset 14, -4
 404:Code\Device\GPRS/AtProtocol.c **** 	uint8_t ret;
 405:Code\Device\GPRS/AtProtocol.c **** 	
 406:Code\Device\GPRS/AtProtocol.c **** 	GPRS_AT_ParaInit();
 407:Code\Device\GPRS/AtProtocol.c **** 	
 408:Code\Device\GPRS/AtProtocol.c **** 	Uart433Send((uint8_t *)AT_CMSTATE, strlen(AT_CMSTATE));
 409:Code\Device\GPRS/AtProtocol.c **** 	wait_timeout = 3000;
ARM GAS  C:\Users\Administrator\AppData\Local\Temp\ccHCWnFN.s 			page 23


 410:Code\Device\GPRS/AtProtocol.c **** 	ret = FALSE;
 820              		.loc 1 410 0
 821 0002 0025     		movs	r5, #0
 406:Code\Device\GPRS/AtProtocol.c **** 	
 822              		.loc 1 406 0
 823 0004 FFF7FEFF 		bl	GPRS_AT_ParaInit
 824              	.LVL81:
 408:Code\Device\GPRS/AtProtocol.c **** 	wait_timeout = 3000;
 825              		.loc 1 408 0
 826 0008 0E48     		ldr	r0, .L102
 827 000a 0C21     		movs	r1, #12
 828 000c 7530     		adds	r0, r0, #117
 829 000e FFF7FEFF 		bl	Uart433Send
 830              	.LVL82:
 409:Code\Device\GPRS/AtProtocol.c **** 	ret = FALSE;
 831              		.loc 1 409 0
 832 0012 0D4C     		ldr	r4, .L102+4
 833 0014 0D4B     		ldr	r3, .L102+8
 834 0016 2360     		str	r3, [r4]
 835              	.LVL83:
 836              	.L97:
 411:Code\Device\GPRS/AtProtocol.c **** 	while (wait_timeout > 0)
 837              		.loc 1 411 0
 838 0018 2368     		ldr	r3, [r4]
 839 001a 002B     		cmp	r3, #0
 840 001c 10D0     		beq	.L101
 841              	.LBB8:
 412:Code\Device\GPRS/AtProtocol.c **** 	{
 413:Code\Device\GPRS/AtProtocol.c **** 	    if (GPRS_AT_RecFinish == SET)
 842              		.loc 1 413 0
 843 001e 0C4E     		ldr	r6, .L102+12
 844 0020 3378     		ldrb	r3, [r6]
 845 0022 012B     		cmp	r3, #1
 846 0024 09D1     		bne	.L98
 414:Code\Device\GPRS/AtProtocol.c **** 		{
 415:Code\Device\GPRS/AtProtocol.c **** 			ret = GPRS_AT_CheckAck((char *)AT_RECMSTATE_CONNECTD);
 847              		.loc 1 415 0
 848 0026 0B48     		ldr	r0, .L102+16
 849 0028 0230     		adds	r0, r0, #2
 850 002a FFF7FEFF 		bl	GPRS_AT_CheckAck
 851              	.LVL84:
 852 002e 0023     		movs	r3, #0
 853 0030 0500     		movs	r5, r0
 854              	.LVL85:
 416:Code\Device\GPRS/AtProtocol.c **** 			if (ret == TRUE)
 855              		.loc 1 416 0
 856 0032 0128     		cmp	r0, #1
 857 0034 00D1     		bne	.L99
 417:Code\Device\GPRS/AtProtocol.c **** 			{
 418:Code\Device\GPRS/AtProtocol.c **** 				wait_timeout = 0;
 858              		.loc 1 418 0
 859 0036 2360     		str	r3, [r4]
 860              	.L99:
 419:Code\Device\GPRS/AtProtocol.c **** 			}
 420:Code\Device\GPRS/AtProtocol.c **** 			GPRS_AT_RecFinish = RESET;
 861              		.loc 1 420 0
 862 0038 3370     		strb	r3, [r6]
ARM GAS  C:\Users\Administrator\AppData\Local\Temp\ccHCWnFN.s 			page 24


 863              	.LVL86:
 864              	.L98:
 421:Code\Device\GPRS/AtProtocol.c **** 		}
 422:Code\Device\GPRS/AtProtocol.c ****         sys_heartbeat();
 865              		.loc 1 422 0
 866 003a FFF7FEFF 		bl	sys_heartbeat
 867              	.LVL87:
 868 003e EBE7     		b	.L97
 869              	.L101:
 870              	.LBE8:
 423:Code\Device\GPRS/AtProtocol.c **** 	}
 424:Code\Device\GPRS/AtProtocol.c **** 	return ret;
 425:Code\Device\GPRS/AtProtocol.c **** }
 871              		.loc 1 425 0
 872 0040 2800     		movs	r0, r5
 873              		@ sp needed
 874              	.LVL88:
 875 0042 70BD     		pop	{r4, r5, r6, pc}
 876              	.L103:
 877              		.align	2
 878              	.L102:
 879 0044 00000000 		.word	.LANCHOR0
 880 0048 00000000 		.word	wait_timeout
 881 004c B80B0000 		.word	3000
 882 0050 00000000 		.word	GPRS_AT_RecFinish
 883 0054 80000000 		.word	.LANCHOR1
 884              		.cfi_endproc
 885              	.LFE76:
 886              		.size	GPRS_CheckConnectState, .-GPRS_CheckConnectState
 887              		.section	.text.GPRS_ClosedConnect,"ax",%progbits
 888              		.align	1
 889              		.global	GPRS_ClosedConnect
 890              		.code	16
 891              		.thumb_func
 892              		.type	GPRS_ClosedConnect, %function
 893              	GPRS_ClosedConnect:
 894              	.LFB77:
 426:Code\Device\GPRS/AtProtocol.c **** 
 427:Code\Device\GPRS/AtProtocol.c **** //*************************************************************************************************
 428:Code\Device\GPRS/AtProtocol.c **** // Function name	: GPRS_ClosedConnect
 429:Code\Device\GPRS/AtProtocol.c **** // Description		: 关闭连接
 430:Code\Device\GPRS/AtProtocol.c **** // Parameter		: none
 431:Code\Device\GPRS/AtProtocol.c **** // Return			: TRUE / FALSE
 432:Code\Device\GPRS/AtProtocol.c **** //-------------------------------------------------------------------------------------------------
 433:Code\Device\GPRS/AtProtocol.c **** // Info				: 
 434:Code\Device\GPRS/AtProtocol.c **** //*************************************************************************************************
 435:Code\Device\GPRS/AtProtocol.c **** uint8_t GPRS_ClosedConnect(void)
 436:Code\Device\GPRS/AtProtocol.c **** {
 895              		.loc 1 436 0
 896              		.cfi_startproc
 897              		@ args = 0, pretend = 0, frame = 8
 898              		@ frame_needed = 0, uses_anonymous_args = 0
 899              	.LVL89:
 900 0000 F7B5     		push	{r0, r1, r2, r4, r5, r6, r7, lr}
 901              		.cfi_def_cfa_offset 32
 902              		.cfi_offset 0, -32
 903              		.cfi_offset 1, -28
ARM GAS  C:\Users\Administrator\AppData\Local\Temp\ccHCWnFN.s 			page 25


 904              		.cfi_offset 2, -24
 905              		.cfi_offset 4, -20
 906              		.cfi_offset 5, -16
 907              		.cfi_offset 6, -12
 908              		.cfi_offset 7, -8
 909              		.cfi_offset 14, -4
 910              		.loc 1 436 0
 911 0002 0325     		movs	r5, #3
 912              	.LVL90:
 913              	.L111:
 437:Code\Device\GPRS/AtProtocol.c **** 	uint8_t i, ret;
 438:Code\Device\GPRS/AtProtocol.c **** 	
 439:Code\Device\GPRS/AtProtocol.c **** 	for (i = 0; i < 3; i++)
 440:Code\Device\GPRS/AtProtocol.c **** 	{
 441:Code\Device\GPRS/AtProtocol.c **** 		GPRS_AT_ParaInit();
 914              		.loc 1 441 0
 915 0004 FFF7FEFF 		bl	GPRS_AT_ParaInit
 916              	.LVL91:
 442:Code\Device\GPRS/AtProtocol.c **** 	    
 443:Code\Device\GPRS/AtProtocol.c **** 		Uart433Send((uint8_t *)AT_CLOSE, strlen(AT_CLOSE));
 917              		.loc 1 443 0
 918 0008 154E     		ldr	r6, .L118
 919 000a 0C21     		movs	r1, #12
 920 000c 3000     		movs	r0, r6
 921 000e 0C30     		adds	r0, r0, #12
 922 0010 FFF7FEFF 		bl	Uart433Send
 923              	.LVL92:
 444:Code\Device\GPRS/AtProtocol.c **** 		wait_timeout = 500;
 924              		.loc 1 444 0
 925 0014 FA22     		movs	r2, #250
 445:Code\Device\GPRS/AtProtocol.c **** 		ret = FALSE;
 926              		.loc 1 445 0
 927 0016 0024     		movs	r4, #0
 444:Code\Device\GPRS/AtProtocol.c **** 		wait_timeout = 500;
 928              		.loc 1 444 0
 929 0018 124B     		ldr	r3, .L118+4
 930 001a 5200     		lsls	r2, r2, #1
 931 001c 1A60     		str	r2, [r3]
 932              	.LVL93:
 933 001e 0193     		str	r3, [sp, #4]
 934              	.LVL94:
 935              	.L105:
 446:Code\Device\GPRS/AtProtocol.c **** 		while ((ret != TRUE) && (wait_timeout > 0))
 936              		.loc 1 446 0 discriminator 1
 937 0020 019B     		ldr	r3, [sp, #4]
 938 0022 1B68     		ldr	r3, [r3]
 939 0024 002B     		cmp	r3, #0
 940 0026 15D0     		beq	.L117
 941              	.LBB9:
 447:Code\Device\GPRS/AtProtocol.c **** 		{
 448:Code\Device\GPRS/AtProtocol.c **** 		    if (GPRS_AT_RecFinish == SET)
 942              		.loc 1 448 0
 943 0028 0F4F     		ldr	r7, .L118+8
 944 002a 3B78     		ldrb	r3, [r7]
 945 002c 012B     		cmp	r3, #1
 946 002e 0CD1     		bne	.L106
 449:Code\Device\GPRS/AtProtocol.c **** 			{
ARM GAS  C:\Users\Administrator\AppData\Local\Temp\ccHCWnFN.s 			page 26


 450:Code\Device\GPRS/AtProtocol.c **** 				ret = GPRS_AT_CheckAck((char *)AT_CLOSE_CONNECT);
 947              		.loc 1 450 0
 948 0030 3000     		movs	r0, r6
 949 0032 1930     		adds	r0, r0, #25
 950 0034 FFF7FEFF 		bl	GPRS_AT_CheckAck
 951              	.LVL95:
 952 0038 041E     		subs	r4, r0, #0
 953              	.LVL96:
 451:Code\Device\GPRS/AtProtocol.c **** 				if (ret == FALSE)
 954              		.loc 1 451 0
 955 003a 04D1     		bne	.L107
 452:Code\Device\GPRS/AtProtocol.c **** 				{
 453:Code\Device\GPRS/AtProtocol.c **** 					ret = GPRS_AT_CheckAck((char *)AT_ERR4);	// 收到这个，处于已经断开状态			//
 956              		.loc 1 453 0
 957 003c 3000     		movs	r0, r6
 958              	.LVL97:
 959 003e 2330     		adds	r0, r0, #35
 960 0040 FFF7FEFF 		bl	GPRS_AT_CheckAck
 961              	.LVL98:
 962 0044 0400     		movs	r4, r0
 963              	.LVL99:
 964              	.L107:
 454:Code\Device\GPRS/AtProtocol.c **** 				}
 455:Code\Device\GPRS/AtProtocol.c **** 				GPRS_AT_RecFinish = RESET;
 965              		.loc 1 455 0
 966 0046 0023     		movs	r3, #0
 967 0048 3B70     		strb	r3, [r7]
 968              	.L106:
 456:Code\Device\GPRS/AtProtocol.c **** 			}
 457:Code\Device\GPRS/AtProtocol.c ****             sys_heartbeat();
 969              		.loc 1 457 0
 970 004a FFF7FEFF 		bl	sys_heartbeat
 971              	.LVL100:
 972              	.LBE9:
 446:Code\Device\GPRS/AtProtocol.c **** 		{
 973              		.loc 1 446 0
 974 004e 012C     		cmp	r4, #1
 975 0050 E6D1     		bne	.L105
 976 0052 03E0     		b	.L113
 977              	.L117:
 978              	.LVL101:
 979 0054 013D     		subs	r5, r5, #1
 980              	.LVL102:
 981 0056 EDB2     		uxtb	r5, r5
 439:Code\Device\GPRS/AtProtocol.c **** 	{
 982              		.loc 1 439 0
 983 0058 002D     		cmp	r5, #0
 984 005a D3D1     		bne	.L111
 985              	.L113:
 458:Code\Device\GPRS/AtProtocol.c **** 		}
 459:Code\Device\GPRS/AtProtocol.c **** 		if (ret == TRUE)
 460:Code\Device\GPRS/AtProtocol.c **** 		{
 461:Code\Device\GPRS/AtProtocol.c **** 			return ret;
 462:Code\Device\GPRS/AtProtocol.c **** 		}
 463:Code\Device\GPRS/AtProtocol.c **** 	}
 464:Code\Device\GPRS/AtProtocol.c **** 	return ret;
 465:Code\Device\GPRS/AtProtocol.c **** }
ARM GAS  C:\Users\Administrator\AppData\Local\Temp\ccHCWnFN.s 			page 27


 986              		.loc 1 465 0
 987 005c 2000     		movs	r0, r4
 988              		@ sp needed
 989              	.LVL103:
 990 005e FEBD     		pop	{r1, r2, r3, r4, r5, r6, r7, pc}
 991              	.L119:
 992              		.align	2
 993              	.L118:
 994 0060 80000000 		.word	.LANCHOR1
 995 0064 00000000 		.word	wait_timeout
 996 0068 00000000 		.word	GPRS_AT_RecFinish
 997              		.cfi_endproc
 998              	.LFE77:
 999              		.size	GPRS_ClosedConnect, .-GPRS_ClosedConnect
 1000              		.section	.text.GPRS_SetConnectMode,"ax",%progbits
 1001              		.align	1
 1002              		.global	GPRS_SetConnectMode
 1003              		.code	16
 1004              		.thumb_func
 1005              		.type	GPRS_SetConnectMode, %function
 1006              	GPRS_SetConnectMode:
 1007              	.LFB78:
 466:Code\Device\GPRS/AtProtocol.c **** 
 467:Code\Device\GPRS/AtProtocol.c **** //*************************************************************************************************
 468:Code\Device\GPRS/AtProtocol.c **** // Function name	: GPRS_SetConnectMode
 469:Code\Device\GPRS/AtProtocol.c **** // Description		: 设置连接模式
 470:Code\Device\GPRS/AtProtocol.c **** // Parameter		: none
 471:Code\Device\GPRS/AtProtocol.c **** // Return			: TRUE / FALSE
 472:Code\Device\GPRS/AtProtocol.c **** //-------------------------------------------------------------------------------------------------
 473:Code\Device\GPRS/AtProtocol.c **** // Info				: 
 474:Code\Device\GPRS/AtProtocol.c **** //*************************************************************************************************
 475:Code\Device\GPRS/AtProtocol.c **** uint8_t GPRS_SetConnectMode(void)
 476:Code\Device\GPRS/AtProtocol.c **** {
 1008              		.loc 1 476 0
 1009              		.cfi_startproc
 1010              		@ args = 0, pretend = 0, frame = 0
 1011              		@ frame_needed = 0, uses_anonymous_args = 0
 1012              	.LVL104:
 1013 0000 70B5     		push	{r4, r5, r6, lr}
 1014              		.cfi_def_cfa_offset 16
 1015              		.cfi_offset 4, -16
 1016              		.cfi_offset 5, -12
 1017              		.cfi_offset 6, -8
 1018              		.cfi_offset 14, -4
 1019              		.loc 1 476 0
 1020 0002 0324     		movs	r4, #3
 477:Code\Device\GPRS/AtProtocol.c **** 	uint8_t i, ret;
 478:Code\Device\GPRS/AtProtocol.c **** 	
 479:Code\Device\GPRS/AtProtocol.c **** 	for (i = 0; i < 3; i++)
 480:Code\Device\GPRS/AtProtocol.c **** 	{
 481:Code\Device\GPRS/AtProtocol.c **** 		ret = GPRS_AT_SendAndCheckAck((char *)AT_CMMUX, (char *)AT_OK, strlen(AT_CMMUX), 1000);
 1021              		.loc 1 481 0
 1022 0004 084D     		ldr	r5, .L127
 1023 0006 094E     		ldr	r6, .L127+4
 1024 0008 0735     		adds	r5, r5, #7
 1025 000a 3136     		adds	r6, r6, #49
 1026              	.LVL105:
ARM GAS  C:\Users\Administrator\AppData\Local\Temp\ccHCWnFN.s 			page 28


 1027              	.L122:
 1028 000c FA23     		movs	r3, #250
 1029 000e 0C22     		movs	r2, #12
 1030 0010 9B00     		lsls	r3, r3, #2
 1031 0012 2900     		movs	r1, r5
 1032 0014 3000     		movs	r0, r6
 1033 0016 FFF7FEFF 		bl	GPRS_AT_SendAndCheckAck
 1034              	.LVL106:
 482:Code\Device\GPRS/AtProtocol.c **** 		if (ret == TRUE)
 1035              		.loc 1 482 0
 1036 001a 0128     		cmp	r0, #1
 1037 001c 03D0     		beq	.L121
 1038              	.LVL107:
 1039 001e 013C     		subs	r4, r4, #1
 1040              	.LVL108:
 1041 0020 E4B2     		uxtb	r4, r4
 479:Code\Device\GPRS/AtProtocol.c **** 	{
 1042              		.loc 1 479 0 discriminator 2
 1043 0022 002C     		cmp	r4, #0
 1044 0024 F2D1     		bne	.L122
 1045              	.L121:
 483:Code\Device\GPRS/AtProtocol.c **** 		{
 484:Code\Device\GPRS/AtProtocol.c **** 			break;
 485:Code\Device\GPRS/AtProtocol.c **** 		}
 486:Code\Device\GPRS/AtProtocol.c **** 	}
 487:Code\Device\GPRS/AtProtocol.c **** 	return ret;
 488:Code\Device\GPRS/AtProtocol.c **** }
 1046              		.loc 1 488 0
 1047              		@ sp needed
 1048 0026 70BD     		pop	{r4, r5, r6, pc}
 1049              	.L128:
 1050              		.align	2
 1051              	.L127:
 1052 0028 00000000 		.word	.LANCHOR0
 1053 002c 80000000 		.word	.LANCHOR1
 1054              		.cfi_endproc
 1055              	.LFE78:
 1056              		.size	GPRS_SetConnectMode, .-GPRS_SetConnectMode
 1057              		.section	.text.GPRS_OpenNetworkLED,"ax",%progbits
 1058              		.align	1
 1059              		.global	GPRS_OpenNetworkLED
 1060              		.code	16
 1061              		.thumb_func
 1062              		.type	GPRS_OpenNetworkLED, %function
 1063              	GPRS_OpenNetworkLED:
 1064              	.LFB79:
 489:Code\Device\GPRS/AtProtocol.c **** 
 490:Code\Device\GPRS/AtProtocol.c **** //*************************************************************************************************
 491:Code\Device\GPRS/AtProtocol.c **** // Function name	: GPRS_OpenNetworkLED
 492:Code\Device\GPRS/AtProtocol.c **** // Description		: 打开联网指示灯
 493:Code\Device\GPRS/AtProtocol.c **** // Parameter		: none
 494:Code\Device\GPRS/AtProtocol.c **** // Return			: TRUE / FALSE
 495:Code\Device\GPRS/AtProtocol.c **** //-------------------------------------------------------------------------------------------------
 496:Code\Device\GPRS/AtProtocol.c **** // Info				: 
 497:Code\Device\GPRS/AtProtocol.c **** //*************************************************************************************************
 498:Code\Device\GPRS/AtProtocol.c **** uint8_t GPRS_OpenNetworkLED(void)
 499:Code\Device\GPRS/AtProtocol.c **** {
ARM GAS  C:\Users\Administrator\AppData\Local\Temp\ccHCWnFN.s 			page 29


 1065              		.loc 1 499 0
 1066              		.cfi_startproc
 1067              		@ args = 0, pretend = 0, frame = 0
 1068              		@ frame_needed = 0, uses_anonymous_args = 0
 1069              	.LVL109:
 1070 0000 70B5     		push	{r4, r5, r6, lr}
 1071              		.cfi_def_cfa_offset 16
 1072              		.cfi_offset 4, -16
 1073              		.cfi_offset 5, -12
 1074              		.cfi_offset 6, -8
 1075              		.cfi_offset 14, -4
 1076              		.loc 1 499 0
 1077 0002 0324     		movs	r4, #3
 500:Code\Device\GPRS/AtProtocol.c **** 	uint8_t i, ret;
 501:Code\Device\GPRS/AtProtocol.c **** 	
 502:Code\Device\GPRS/AtProtocol.c **** 	for (i = 0; i < 3; i++)
 503:Code\Device\GPRS/AtProtocol.c **** 	{
 504:Code\Device\GPRS/AtProtocol.c **** 		ret = GPRS_AT_SendAndCheckAck((char *)AT_OPENLED, (char *)AT_OK, strlen(AT_OPENLED), 500);
 1078              		.loc 1 504 0
 1079 0004 084D     		ldr	r5, .L136
 1080 0006 094E     		ldr	r6, .L136+4
 1081 0008 0735     		adds	r5, r5, #7
 1082 000a 3E36     		adds	r6, r6, #62
 1083              	.LVL110:
 1084              	.L131:
 1085 000c FA23     		movs	r3, #250
 1086 000e 0F22     		movs	r2, #15
 1087 0010 5B00     		lsls	r3, r3, #1
 1088 0012 2900     		movs	r1, r5
 1089 0014 3000     		movs	r0, r6
 1090 0016 FFF7FEFF 		bl	GPRS_AT_SendAndCheckAck
 1091              	.LVL111:
 505:Code\Device\GPRS/AtProtocol.c **** 		if (ret == TRUE)
 1092              		.loc 1 505 0
 1093 001a 0128     		cmp	r0, #1
 1094 001c 03D0     		beq	.L130
 1095              	.LVL112:
 1096 001e 013C     		subs	r4, r4, #1
 1097              	.LVL113:
 1098 0020 E4B2     		uxtb	r4, r4
 502:Code\Device\GPRS/AtProtocol.c **** 	{
 1099              		.loc 1 502 0 discriminator 2
 1100 0022 002C     		cmp	r4, #0
 1101 0024 F2D1     		bne	.L131
 1102              	.L130:
 506:Code\Device\GPRS/AtProtocol.c **** 		{
 507:Code\Device\GPRS/AtProtocol.c **** 			break;
 508:Code\Device\GPRS/AtProtocol.c **** 		}
 509:Code\Device\GPRS/AtProtocol.c **** 	}
 510:Code\Device\GPRS/AtProtocol.c **** 	return ret;
 511:Code\Device\GPRS/AtProtocol.c **** }
 1103              		.loc 1 511 0
 1104              		@ sp needed
 1105 0026 70BD     		pop	{r4, r5, r6, pc}
 1106              	.L137:
 1107              		.align	2
 1108              	.L136:
ARM GAS  C:\Users\Administrator\AppData\Local\Temp\ccHCWnFN.s 			page 30


 1109 0028 00000000 		.word	.LANCHOR0
 1110 002c 80000000 		.word	.LANCHOR1
 1111              		.cfi_endproc
 1112              	.LFE79:
 1113              		.size	GPRS_OpenNetworkLED, .-GPRS_OpenNetworkLED
 1114              		.section	.text.GPRS_ConnectCenterServer,"ax",%progbits
 1115              		.align	1
 1116              		.global	GPRS_ConnectCenterServer
 1117              		.code	16
 1118              		.thumb_func
 1119              		.type	GPRS_ConnectCenterServer, %function
 1120              	GPRS_ConnectCenterServer:
 1121              	.LFB80:
 512:Code\Device\GPRS/AtProtocol.c **** 
 513:Code\Device\GPRS/AtProtocol.c **** //*************************************************************************************************
 514:Code\Device\GPRS/AtProtocol.c **** // Function name	: GPRS_ConnectCenterServer
 515:Code\Device\GPRS/AtProtocol.c **** // Description		: 连接中心服务器
 516:Code\Device\GPRS/AtProtocol.c **** // Parameter		: none
 517:Code\Device\GPRS/AtProtocol.c **** // Return			: 1: TRUE; 0: FALSE
 518:Code\Device\GPRS/AtProtocol.c **** //-------------------------------------------------------------------------------------------------
 519:Code\Device\GPRS/AtProtocol.c **** // Info				: 
 520:Code\Device\GPRS/AtProtocol.c **** //*************************************************************************************************
 521:Code\Device\GPRS/AtProtocol.c **** uint8_t GPRS_ConnectCenterServer(void)
 522:Code\Device\GPRS/AtProtocol.c **** {
 1122              		.loc 1 522 0
 1123              		.cfi_startproc
 1124              		@ args = 0, pretend = 0, frame = 0
 1125              		@ frame_needed = 0, uses_anonymous_args = 0
 1126 0000 F8B5     		push	{r3, r4, r5, r6, r7, lr}
 1127              		.cfi_def_cfa_offset 24
 1128              		.cfi_offset 3, -24
 1129              		.cfi_offset 4, -20
 1130              		.cfi_offset 5, -16
 1131              		.cfi_offset 6, -12
 1132              		.cfi_offset 7, -8
 1133              		.cfi_offset 14, -4
 523:Code\Device\GPRS/AtProtocol.c **** 	uint8_t ret;
 524:Code\Device\GPRS/AtProtocol.c **** 	uint8_t IpType;
 525:Code\Device\GPRS/AtProtocol.c **** 	
 526:Code\Device\GPRS/AtProtocol.c **** 	GPRS_AT_ParaInit();
 1134              		.loc 1 526 0
 1135 0002 FFF7FEFF 		bl	GPRS_AT_ParaInit
 1136              	.LVL114:
 527:Code\Device\GPRS/AtProtocol.c **** 	
 528:Code\Device\GPRS/AtProtocol.c **** 	IpType = Read_CenterIpType();
 1137              		.loc 1 528 0
 1138 0006 FFF7FEFF 		bl	Read_CenterIpType
 1139              	.LVL115:
 529:Code\Device\GPRS/AtProtocol.c **** 	#if DBG_SOFT_ENNABLE
 530:Code\Device\GPRS/AtProtocol.c **** 	DBG_SOFT_PutString("\nIpType:");
 531:Code\Device\GPRS/AtProtocol.c **** 	DBG_SOFT_PutHexInt(IpType);
 532:Code\Device\GPRS/AtProtocol.c **** 	#endif
 533:Code\Device\GPRS/AtProtocol.c **** 	if (IpType == 1)
 1140              		.loc 1 533 0
 1141 000a 0128     		cmp	r0, #1
 1142 000c 04D1     		bne	.L139
 534:Code\Device\GPRS/AtProtocol.c **** 	{	
ARM GAS  C:\Users\Administrator\AppData\Local\Temp\ccHCWnFN.s 			page 31


 535:Code\Device\GPRS/AtProtocol.c **** 		#if DBG_SOFT_ENNABLE
 536:Code\Device\GPRS/AtProtocol.c **** 		DBG_SOFT_PutString("\nTest1 Server.\n");
 537:Code\Device\GPRS/AtProtocol.c **** 		#endif
 538:Code\Device\GPRS/AtProtocol.c **** 		GPRS_Send_ConnectServer((char *)tcp, (char *)test1_ip, (char *)center_port);
 1143              		.loc 1 538 0
 1144 000e 1B4B     		ldr	r3, .L152
 1145 0010 1A68     		ldr	r2, [r3]
 1146 0012 5968     		ldr	r1, [r3, #4]
 1147 0014 9868     		ldr	r0, [r3, #8]
 1148              	.LVL116:
 1149 0016 0FE0     		b	.L150
 1150              	.LVL117:
 1151              	.L139:
 539:Code\Device\GPRS/AtProtocol.c **** 	}
 540:Code\Device\GPRS/AtProtocol.c **** 	else if (IpType == 2)
 1152              		.loc 1 540 0
 1153 0018 831E     		subs	r3, r0, #2
 1154 001a DBB2     		uxtb	r3, r3
 1155 001c 022B     		cmp	r3, #2
 1156 001e 0DD9     		bls	.L140
 1157 0020 164C     		ldr	r4, .L152
 541:Code\Device\GPRS/AtProtocol.c **** 	{
 542:Code\Device\GPRS/AtProtocol.c **** 		//GPRS_Send_ConnectServer((char *)tcp, (char *)test2_ip, (char *)center_port);
 543:Code\Device\GPRS/AtProtocol.c **** 	}
 544:Code\Device\GPRS/AtProtocol.c **** 	else if (IpType == 3)
 545:Code\Device\GPRS/AtProtocol.c **** 	{
 546:Code\Device\GPRS/AtProtocol.c **** 		//GPRS_Send_ConnectServer((char *)tcp, (char *)test3_ip, (char *)center_port);
 547:Code\Device\GPRS/AtProtocol.c **** 	}
 548:Code\Device\GPRS/AtProtocol.c **** 	else if (IpType == 4)
 549:Code\Device\GPRS/AtProtocol.c **** 	{
 550:Code\Device\GPRS/AtProtocol.c **** 		//GPRS_Send_ConnectServer((char *)tcp, (char *)test4_ip, (char *)center_port);
 551:Code\Device\GPRS/AtProtocol.c **** 	}
 552:Code\Device\GPRS/AtProtocol.c **** 	else if (IpType == 5)
 1158              		.loc 1 552 0
 1159 0022 0528     		cmp	r0, #5
 1160 0024 02D1     		bne	.L141
 553:Code\Device\GPRS/AtProtocol.c **** 	{	
 554:Code\Device\GPRS/AtProtocol.c **** 		#if DBG_SOFT_ENNABLE
 555:Code\Device\GPRS/AtProtocol.c **** 		DBG_SOFT_PutString("\nFormal Server.\n");
 556:Code\Device\GPRS/AtProtocol.c **** 		#endif
 557:Code\Device\GPRS/AtProtocol.c **** 		GPRS_Send_ConnectServer((char *)tcp, (char *)center_ip, (char *)center_port);
 1161              		.loc 1 557 0
 1162 0026 2268     		ldr	r2, [r4]
 1163 0028 E168     		ldr	r1, [r4, #12]
 1164 002a 04E0     		b	.L151
 1165              	.L141:
 1166              	.LVL118:
 558:Code\Device\GPRS/AtProtocol.c **** 	}
 559:Code\Device\GPRS/AtProtocol.c **** 	else
 560:Code\Device\GPRS/AtProtocol.c **** 	{
 561:Code\Device\GPRS/AtProtocol.c **** 		//没有设置过IpType 默认为1
 562:Code\Device\GPRS/AtProtocol.c **** 		IpType = 1;
 563:Code\Device\GPRS/AtProtocol.c **** 		Write_CenterIpType(IpType);
 1167              		.loc 1 563 0
 1168 002c 0120     		movs	r0, #1
 1169 002e FFF7FEFF 		bl	Write_CenterIpType
 1170              	.LVL119:
ARM GAS  C:\Users\Administrator\AppData\Local\Temp\ccHCWnFN.s 			page 32


 564:Code\Device\GPRS/AtProtocol.c **** 		GPRS_Send_ConnectServer((char *)tcp, (char *)test1_ip, (char *)center_port);
 1171              		.loc 1 564 0
 1172 0032 2268     		ldr	r2, [r4]
 1173 0034 6168     		ldr	r1, [r4, #4]
 1174              	.LVL120:
 1175              	.L151:
 1176 0036 A068     		ldr	r0, [r4, #8]
 1177              	.L150:
 1178 0038 FFF7FEFF 		bl	GPRS_Send_ConnectServer
 1179              	.LVL121:
 1180              	.L140:
 565:Code\Device\GPRS/AtProtocol.c **** 	}
 566:Code\Device\GPRS/AtProtocol.c **** 	
 567:Code\Device\GPRS/AtProtocol.c **** 	wait_timeout = 10000;
 568:Code\Device\GPRS/AtProtocol.c **** 	ret = FALSE;
 1181              		.loc 1 568 0
 1182 003c 0024     		movs	r4, #0
 567:Code\Device\GPRS/AtProtocol.c **** 	ret = FALSE;
 1183              		.loc 1 567 0
 1184 003e 104D     		ldr	r5, .L152+4
 1185 0040 104B     		ldr	r3, .L152+8
 1186 0042 2B60     		str	r3, [r5]
 1187              	.LVL122:
 1188              	.L142:
 569:Code\Device\GPRS/AtProtocol.c **** 	while ((ret != TRUE) && (wait_timeout > 0))
 1189              		.loc 1 569 0 discriminator 1
 1190 0044 2B68     		ldr	r3, [r5]
 1191 0046 002B     		cmp	r3, #0
 1192 0048 15D0     		beq	.L145
 1193              	.LBB10:
 570:Code\Device\GPRS/AtProtocol.c **** 	{
 571:Code\Device\GPRS/AtProtocol.c **** 		if (GPRS_AT_RecFinish == SET)
 1194              		.loc 1 571 0
 1195 004a 0F4F     		ldr	r7, .L152+12
 1196 004c 3B78     		ldrb	r3, [r7]
 1197 004e 012B     		cmp	r3, #1
 1198 0050 0DD1     		bne	.L143
 572:Code\Device\GPRS/AtProtocol.c **** 		{
 573:Code\Device\GPRS/AtProtocol.c **** 			ret = GPRS_AT_CheckAck((char *)AT_CONNECT_OK);
 1199              		.loc 1 573 0
 1200 0052 0E4E     		ldr	r6, .L152+16
 1201 0054 3000     		movs	r0, r6
 1202 0056 4E30     		adds	r0, r0, #78
 1203 0058 FFF7FEFF 		bl	GPRS_AT_CheckAck
 1204              	.LVL123:
 1205 005c 041E     		subs	r4, r0, #0
 1206              	.LVL124:
 574:Code\Device\GPRS/AtProtocol.c **** 			if (ret == FALSE)
 1207              		.loc 1 574 0
 1208 005e 04D1     		bne	.L144
 575:Code\Device\GPRS/AtProtocol.c **** 			{
 576:Code\Device\GPRS/AtProtocol.c **** 				ret = GPRS_AT_CheckAck((char *)AT_ALREADY_CONNECT);
 1209              		.loc 1 576 0
 1210 0060 3000     		movs	r0, r6
 1211              	.LVL125:
 1212 0062 5930     		adds	r0, r0, #89
 1213 0064 FFF7FEFF 		bl	GPRS_AT_CheckAck
ARM GAS  C:\Users\Administrator\AppData\Local\Temp\ccHCWnFN.s 			page 33


 1214              	.LVL126:
 1215 0068 0400     		movs	r4, r0
 1216              	.LVL127:
 1217              	.L144:
 577:Code\Device\GPRS/AtProtocol.c **** 			}
 578:Code\Device\GPRS/AtProtocol.c **** 			GPRS_AT_RecFinish = RESET;
 1218              		.loc 1 578 0
 1219 006a 0023     		movs	r3, #0
 1220 006c 3B70     		strb	r3, [r7]
 1221              	.L143:
 579:Code\Device\GPRS/AtProtocol.c **** 		}
 580:Code\Device\GPRS/AtProtocol.c ****         sys_heartbeat();
 1222              		.loc 1 580 0
 1223 006e FFF7FEFF 		bl	sys_heartbeat
 1224              	.LVL128:
 1225              	.LBE10:
 569:Code\Device\GPRS/AtProtocol.c **** 	{
 1226              		.loc 1 569 0
 1227 0072 012C     		cmp	r4, #1
 1228 0074 E6D1     		bne	.L142
 1229              	.L145:
 581:Code\Device\GPRS/AtProtocol.c **** 	}
 582:Code\Device\GPRS/AtProtocol.c ****     return ret;
 583:Code\Device\GPRS/AtProtocol.c **** }
 1230              		.loc 1 583 0
 1231 0076 2000     		movs	r0, r4
 1232              		@ sp needed
 1233              	.LVL129:
 1234 0078 F8BD     		pop	{r3, r4, r5, r6, r7, pc}
 1235              	.L153:
 1236 007a C046     		.align	2
 1237              	.L152:
 1238 007c 00000000 		.word	.LANCHOR2
 1239 0080 00000000 		.word	wait_timeout
 1240 0084 10270000 		.word	10000
 1241 0088 00000000 		.word	GPRS_AT_RecFinish
 1242 008c 80000000 		.word	.LANCHOR1
 1243              		.cfi_endproc
 1244              	.LFE80:
 1245              		.size	GPRS_ConnectCenterServer, .-GPRS_ConnectCenterServer
 1246              		.section	.text.GPRS_ConnectPreServer,"ax",%progbits
 1247              		.align	1
 1248              		.global	GPRS_ConnectPreServer
 1249              		.code	16
 1250              		.thumb_func
 1251              		.type	GPRS_ConnectPreServer, %function
 1252              	GPRS_ConnectPreServer:
 1253              	.LFB81:
 584:Code\Device\GPRS/AtProtocol.c **** 
 585:Code\Device\GPRS/AtProtocol.c **** //*************************************************************************************************
 586:Code\Device\GPRS/AtProtocol.c **** // Function name	: GPRS_ConnectCenterServer
 587:Code\Device\GPRS/AtProtocol.c **** // Description		: 连接前置服务器
 588:Code\Device\GPRS/AtProtocol.c **** // Parameter		: none
 589:Code\Device\GPRS/AtProtocol.c **** // Return			: 1: TRUE; 0: FALSE
 590:Code\Device\GPRS/AtProtocol.c **** //-------------------------------------------------------------------------------------------------
 591:Code\Device\GPRS/AtProtocol.c **** // Info				: 
 592:Code\Device\GPRS/AtProtocol.c **** //*************************************************************************************************
ARM GAS  C:\Users\Administrator\AppData\Local\Temp\ccHCWnFN.s 			page 34


 593:Code\Device\GPRS/AtProtocol.c **** uint8_t GPRS_ConnectPreServer(void)
 594:Code\Device\GPRS/AtProtocol.c **** {
 1254              		.loc 1 594 0
 1255              		.cfi_startproc
 1256              		@ args = 0, pretend = 0, frame = 0
 1257              		@ frame_needed = 0, uses_anonymous_args = 0
 1258 0000 F8B5     		push	{r3, r4, r5, r6, r7, lr}
 1259              		.cfi_def_cfa_offset 24
 1260              		.cfi_offset 3, -24
 1261              		.cfi_offset 4, -20
 1262              		.cfi_offset 5, -16
 1263              		.cfi_offset 6, -12
 1264              		.cfi_offset 7, -8
 1265              		.cfi_offset 14, -4
 595:Code\Device\GPRS/AtProtocol.c **** 	uint8_t ret;
 596:Code\Device\GPRS/AtProtocol.c **** 	
 597:Code\Device\GPRS/AtProtocol.c **** 	GPRS_AT_ParaInit();
 598:Code\Device\GPRS/AtProtocol.c **** 	
 599:Code\Device\GPRS/AtProtocol.c **** 	GPRS_Send_ConnectServer((char *)tcp, (char *)pre_ip, (char *)pre_port);
 600:Code\Device\GPRS/AtProtocol.c **** 	wait_timeout = 10000;
 601:Code\Device\GPRS/AtProtocol.c **** 	ret = FALSE;
 1266              		.loc 1 601 0
 1267 0002 0024     		movs	r4, #0
 597:Code\Device\GPRS/AtProtocol.c **** 	
 1268              		.loc 1 597 0
 1269 0004 FFF7FEFF 		bl	GPRS_AT_ParaInit
 1270              	.LVL130:
 599:Code\Device\GPRS/AtProtocol.c **** 	wait_timeout = 10000;
 1271              		.loc 1 599 0
 1272 0008 114B     		ldr	r3, .L163
 1273 000a 124A     		ldr	r2, .L163+4
 1274 000c 9868     		ldr	r0, [r3, #8]
 1275 000e 1249     		ldr	r1, .L163+8
 1276 0010 FFF7FEFF 		bl	GPRS_Send_ConnectServer
 1277              	.LVL131:
 600:Code\Device\GPRS/AtProtocol.c **** 	ret = FALSE;
 1278              		.loc 1 600 0
 1279 0014 114D     		ldr	r5, .L163+12
 1280 0016 124B     		ldr	r3, .L163+16
 1281 0018 2B60     		str	r3, [r5]
 1282              	.LVL132:
 1283              	.L155:
 602:Code\Device\GPRS/AtProtocol.c **** 	while ((ret != TRUE) && (wait_timeout > 0))
 1284              		.loc 1 602 0 discriminator 1
 1285 001a 2B68     		ldr	r3, [r5]
 1286 001c 002B     		cmp	r3, #0
 1287 001e 15D0     		beq	.L158
 1288              	.LBB11:
 603:Code\Device\GPRS/AtProtocol.c **** 	{
 604:Code\Device\GPRS/AtProtocol.c **** 		if (GPRS_AT_RecFinish == SET)
 1289              		.loc 1 604 0
 1290 0020 104F     		ldr	r7, .L163+20
 1291 0022 3B78     		ldrb	r3, [r7]
 1292 0024 012B     		cmp	r3, #1
 1293 0026 0DD1     		bne	.L156
 605:Code\Device\GPRS/AtProtocol.c **** 		{
 606:Code\Device\GPRS/AtProtocol.c **** 			ret = GPRS_AT_CheckAck((char *)AT_CONNECT_OK);
ARM GAS  C:\Users\Administrator\AppData\Local\Temp\ccHCWnFN.s 			page 35


 1294              		.loc 1 606 0
 1295 0028 0F4E     		ldr	r6, .L163+24
 1296 002a 3000     		movs	r0, r6
 1297 002c 4E30     		adds	r0, r0, #78
 1298 002e FFF7FEFF 		bl	GPRS_AT_CheckAck
 1299              	.LVL133:
 1300 0032 041E     		subs	r4, r0, #0
 1301              	.LVL134:
 607:Code\Device\GPRS/AtProtocol.c **** 			if (ret == FALSE)
 1302              		.loc 1 607 0
 1303 0034 04D1     		bne	.L157
 608:Code\Device\GPRS/AtProtocol.c **** 			{
 609:Code\Device\GPRS/AtProtocol.c **** 				ret = GPRS_AT_CheckAck((char *)AT_ALREADY_CONNECT);
 1304              		.loc 1 609 0
 1305 0036 3000     		movs	r0, r6
 1306              	.LVL135:
 1307 0038 5930     		adds	r0, r0, #89
 1308 003a FFF7FEFF 		bl	GPRS_AT_CheckAck
 1309              	.LVL136:
 1310 003e 0400     		movs	r4, r0
 1311              	.LVL137:
 1312              	.L157:
 610:Code\Device\GPRS/AtProtocol.c **** 			}
 611:Code\Device\GPRS/AtProtocol.c **** 			GPRS_AT_RecFinish = RESET;
 1313              		.loc 1 611 0
 1314 0040 0023     		movs	r3, #0
 1315 0042 3B70     		strb	r3, [r7]
 1316              	.L156:
 612:Code\Device\GPRS/AtProtocol.c **** 		}
 613:Code\Device\GPRS/AtProtocol.c ****         sys_heartbeat();
 1317              		.loc 1 613 0
 1318 0044 FFF7FEFF 		bl	sys_heartbeat
 1319              	.LVL138:
 1320              	.LBE11:
 602:Code\Device\GPRS/AtProtocol.c **** 	{
 1321              		.loc 1 602 0
 1322 0048 012C     		cmp	r4, #1
 1323 004a E6D1     		bne	.L155
 1324              	.L158:
 614:Code\Device\GPRS/AtProtocol.c **** 	}
 615:Code\Device\GPRS/AtProtocol.c ****     return ret;
 616:Code\Device\GPRS/AtProtocol.c **** }
 1325              		.loc 1 616 0
 1326 004c 2000     		movs	r0, r4
 1327              		@ sp needed
 1328              	.LVL139:
 1329 004e F8BD     		pop	{r3, r4, r5, r6, r7, pc}
 1330              	.L164:
 1331              		.align	2
 1332              	.L163:
 1333 0050 00000000 		.word	.LANCHOR2
 1334 0054 00000000 		.word	pre_port
 1335 0058 00000000 		.word	pre_ip
 1336 005c 00000000 		.word	wait_timeout
 1337 0060 10270000 		.word	10000
 1338 0064 00000000 		.word	GPRS_AT_RecFinish
 1339 0068 80000000 		.word	.LANCHOR1
ARM GAS  C:\Users\Administrator\AppData\Local\Temp\ccHCWnFN.s 			page 36


 1340              		.cfi_endproc
 1341              	.LFE81:
 1342              		.size	GPRS_ConnectPreServer, .-GPRS_ConnectPreServer
 1343              		.section	.text.GPRS_ConnectUpdateServer,"ax",%progbits
 1344              		.align	1
 1345              		.global	GPRS_ConnectUpdateServer
 1346              		.code	16
 1347              		.thumb_func
 1348              		.type	GPRS_ConnectUpdateServer, %function
 1349              	GPRS_ConnectUpdateServer:
 1350              	.LFB82:
 617:Code\Device\GPRS/AtProtocol.c **** 
 618:Code\Device\GPRS/AtProtocol.c **** //*************************************************************************************************
 619:Code\Device\GPRS/AtProtocol.c **** // Function name	: GPRS_ConnectUpdateServer
 620:Code\Device\GPRS/AtProtocol.c **** // Description		: 连接升级服务器
 621:Code\Device\GPRS/AtProtocol.c **** // Parameter		: none
 622:Code\Device\GPRS/AtProtocol.c **** // Return			: 1: TRUE; 0: FALSE
 623:Code\Device\GPRS/AtProtocol.c **** //-------------------------------------------------------------------------------------------------
 624:Code\Device\GPRS/AtProtocol.c **** // Info				: 
 625:Code\Device\GPRS/AtProtocol.c **** //*************************************************************************************************
 626:Code\Device\GPRS/AtProtocol.c **** uint8_t GPRS_ConnectUpdateServer(void)
 627:Code\Device\GPRS/AtProtocol.c **** {
 1351              		.loc 1 627 0
 1352              		.cfi_startproc
 1353              		@ args = 0, pretend = 0, frame = 0
 1354              		@ frame_needed = 0, uses_anonymous_args = 0
 1355 0000 F8B5     		push	{r3, r4, r5, r6, r7, lr}
 1356              		.cfi_def_cfa_offset 24
 1357              		.cfi_offset 3, -24
 1358              		.cfi_offset 4, -20
 1359              		.cfi_offset 5, -16
 1360              		.cfi_offset 6, -12
 1361              		.cfi_offset 7, -8
 1362              		.cfi_offset 14, -4
 628:Code\Device\GPRS/AtProtocol.c **** 	uint8_t ret;
 629:Code\Device\GPRS/AtProtocol.c **** 	
 630:Code\Device\GPRS/AtProtocol.c **** 	GPRS_AT_ParaInit();
 631:Code\Device\GPRS/AtProtocol.c **** 	
 632:Code\Device\GPRS/AtProtocol.c **** 	GPRS_Send_ConnectServer((char *)tcp, (char *)update_ip, (char *)update_port);
 633:Code\Device\GPRS/AtProtocol.c **** 	wait_timeout = 10000;
 634:Code\Device\GPRS/AtProtocol.c **** 	ret = FALSE;
 1363              		.loc 1 634 0
 1364 0002 0024     		movs	r4, #0
 630:Code\Device\GPRS/AtProtocol.c **** 	
 1365              		.loc 1 630 0
 1366 0004 FFF7FEFF 		bl	GPRS_AT_ParaInit
 1367              	.LVL140:
 632:Code\Device\GPRS/AtProtocol.c **** 	wait_timeout = 10000;
 1368              		.loc 1 632 0
 1369 0008 114B     		ldr	r3, .L174
 1370 000a 124A     		ldr	r2, .L174+4
 1371 000c 9868     		ldr	r0, [r3, #8]
 1372 000e 1249     		ldr	r1, .L174+8
 1373 0010 FFF7FEFF 		bl	GPRS_Send_ConnectServer
 1374              	.LVL141:
 633:Code\Device\GPRS/AtProtocol.c **** 	ret = FALSE;
 1375              		.loc 1 633 0
ARM GAS  C:\Users\Administrator\AppData\Local\Temp\ccHCWnFN.s 			page 37


 1376 0014 114D     		ldr	r5, .L174+12
 1377 0016 124B     		ldr	r3, .L174+16
 1378 0018 2B60     		str	r3, [r5]
 1379              	.LVL142:
 1380              	.L166:
 635:Code\Device\GPRS/AtProtocol.c **** 	while ((ret != TRUE) && (wait_timeout > 0))
 1381              		.loc 1 635 0 discriminator 1
 1382 001a 2B68     		ldr	r3, [r5]
 1383 001c 002B     		cmp	r3, #0
 1384 001e 15D0     		beq	.L169
 1385              	.LBB12:
 636:Code\Device\GPRS/AtProtocol.c **** 	{
 637:Code\Device\GPRS/AtProtocol.c **** 		if (GPRS_AT_RecFinish == SET)
 1386              		.loc 1 637 0
 1387 0020 104F     		ldr	r7, .L174+20
 1388 0022 3B78     		ldrb	r3, [r7]
 1389 0024 012B     		cmp	r3, #1
 1390 0026 0DD1     		bne	.L167
 638:Code\Device\GPRS/AtProtocol.c **** 		{
 639:Code\Device\GPRS/AtProtocol.c **** 			ret = GPRS_AT_CheckAck((char *)AT_CONNECT_OK);
 1391              		.loc 1 639 0
 1392 0028 0F4E     		ldr	r6, .L174+24
 1393 002a 3000     		movs	r0, r6
 1394 002c 4E30     		adds	r0, r0, #78
 1395 002e FFF7FEFF 		bl	GPRS_AT_CheckAck
 1396              	.LVL143:
 1397 0032 041E     		subs	r4, r0, #0
 1398              	.LVL144:
 640:Code\Device\GPRS/AtProtocol.c **** 			if (ret == FALSE)
 1399              		.loc 1 640 0
 1400 0034 04D1     		bne	.L168
 641:Code\Device\GPRS/AtProtocol.c **** 			{
 642:Code\Device\GPRS/AtProtocol.c **** 				ret = GPRS_AT_CheckAck((char *)AT_ALREADY_CONNECT);
 1401              		.loc 1 642 0
 1402 0036 3000     		movs	r0, r6
 1403              	.LVL145:
 1404 0038 5930     		adds	r0, r0, #89
 1405 003a FFF7FEFF 		bl	GPRS_AT_CheckAck
 1406              	.LVL146:
 1407 003e 0400     		movs	r4, r0
 1408              	.LVL147:
 1409              	.L168:
 643:Code\Device\GPRS/AtProtocol.c **** 			}
 644:Code\Device\GPRS/AtProtocol.c **** 			GPRS_AT_RecFinish = RESET;
 1410              		.loc 1 644 0
 1411 0040 0023     		movs	r3, #0
 1412 0042 3B70     		strb	r3, [r7]
 1413              	.L167:
 645:Code\Device\GPRS/AtProtocol.c **** 		}
 646:Code\Device\GPRS/AtProtocol.c ****         sys_heartbeat();
 1414              		.loc 1 646 0
 1415 0044 FFF7FEFF 		bl	sys_heartbeat
 1416              	.LVL148:
 1417              	.LBE12:
 635:Code\Device\GPRS/AtProtocol.c **** 	{
 1418              		.loc 1 635 0
 1419 0048 012C     		cmp	r4, #1
ARM GAS  C:\Users\Administrator\AppData\Local\Temp\ccHCWnFN.s 			page 38


 1420 004a E6D1     		bne	.L166
 1421              	.L169:
 647:Code\Device\GPRS/AtProtocol.c **** 	}
 648:Code\Device\GPRS/AtProtocol.c ****     return ret;
 649:Code\Device\GPRS/AtProtocol.c **** }
 1422              		.loc 1 649 0
 1423 004c 2000     		movs	r0, r4
 1424              		@ sp needed
 1425              	.LVL149:
 1426 004e F8BD     		pop	{r3, r4, r5, r6, r7, pc}
 1427              	.L175:
 1428              		.align	2
 1429              	.L174:
 1430 0050 00000000 		.word	.LANCHOR2
 1431 0054 00000000 		.word	update_port
 1432 0058 00000000 		.word	update_ip
 1433 005c 00000000 		.word	wait_timeout
 1434 0060 10270000 		.word	10000
 1435 0064 00000000 		.word	GPRS_AT_RecFinish
 1436 0068 80000000 		.word	.LANCHOR1
 1437              		.cfi_endproc
 1438              	.LFE82:
 1439              		.size	GPRS_ConnectUpdateServer, .-GPRS_ConnectUpdateServer
 1440              		.section	.text.GPRS_SendHexDataToServer,"ax",%progbits
 1441              		.align	1
 1442              		.global	GPRS_SendHexDataToServer
 1443              		.code	16
 1444              		.thumb_func
 1445              		.type	GPRS_SendHexDataToServer, %function
 1446              	GPRS_SendHexDataToServer:
 1447              	.LFB83:
 650:Code\Device\GPRS/AtProtocol.c **** 
 651:Code\Device\GPRS/AtProtocol.c **** //*************************************************************************************************
 652:Code\Device\GPRS/AtProtocol.c **** // Function name	: GPRS_SendHexDataToServer
 653:Code\Device\GPRS/AtProtocol.c **** // Description		: 发送十六进制数据到服务器
 654:Code\Device\GPRS/AtProtocol.c **** // Parameter		: none
 655:Code\Device\GPRS/AtProtocol.c **** // Return			: 1: TRUE; 0: FALSE
 656:Code\Device\GPRS/AtProtocol.c **** //-------------------------------------------------------------------------------------------------
 657:Code\Device\GPRS/AtProtocol.c **** // Info				: 发送数据时可能会遇到网络差，导致连接失败的情况，错误码为 
 658:Code\Device\GPRS/AtProtocol.c **** //*************************************************************************************************
 659:Code\Device\GPRS/AtProtocol.c **** uint8_t GPRS_SendHexDataToServer(uint8_t *data, uint16_t size)
 660:Code\Device\GPRS/AtProtocol.c **** {
 1448              		.loc 1 660 0
 1449              		.cfi_startproc
 1450              		@ args = 0, pretend = 0, frame = 24
 1451              		@ frame_needed = 0, uses_anonymous_args = 0
 1452              	.LVL150:
 1453 0000 F0B5     		push	{r4, r5, r6, r7, lr}
 1454              		.cfi_def_cfa_offset 20
 1455              		.cfi_offset 4, -20
 1456              		.cfi_offset 5, -16
 1457              		.cfi_offset 6, -12
 1458              		.cfi_offset 7, -8
 1459              		.cfi_offset 14, -4
 661:Code\Device\GPRS/AtProtocol.c **** 	uint8_t ret;
 662:Code\Device\GPRS/AtProtocol.c **** 	uint8_t buf[10] = {0x01, 0x02, 0x03, 0x04, 0x05, 0x06, 0x07, 0x08, 0x09, 0x0A};
 1460              		.loc 1 662 0
ARM GAS  C:\Users\Administrator\AppData\Local\Temp\ccHCWnFN.s 			page 39


 1461 0002 2C4E     		ldr	r6, .L192
 660:Code\Device\GPRS/AtProtocol.c **** 	uint8_t ret;
 1462              		.loc 1 660 0
 1463 0004 87B0     		sub	sp, sp, #28
 1464              		.cfi_def_cfa_offset 48
 660:Code\Device\GPRS/AtProtocol.c **** 	uint8_t ret;
 1465              		.loc 1 660 0
 1466 0006 0091     		str	r1, [sp]
 1467              		.loc 1 662 0
 1468 0008 3100     		movs	r1, r6
 1469              	.LVL151:
 1470 000a 0A22     		movs	r2, #10
 1471 000c 6931     		adds	r1, r1, #105
 660:Code\Device\GPRS/AtProtocol.c **** 	uint8_t ret;
 1472              		.loc 1 660 0
 1473 000e 0190     		str	r0, [sp, #4]
 1474              		.loc 1 662 0
 1475 0010 03A8     		add	r0, sp, #12
 1476              	.LVL152:
 1477 0012 FFF7FEFF 		bl	memcpy
 1478              	.LVL153:
 663:Code\Device\GPRS/AtProtocol.c **** 	
 664:Code\Device\GPRS/AtProtocol.c **** 	GPRS_AT_ParaInit();
 1479              		.loc 1 664 0
 1480 0016 FFF7FEFF 		bl	GPRS_AT_ParaInit
 1481              	.LVL154:
 665:Code\Device\GPRS/AtProtocol.c **** 	
 666:Code\Device\GPRS/AtProtocol.c **** 	GPRS_Send_LengthOfSendData(size);
 1482              		.loc 1 666 0
 1483 001a 0098     		ldr	r0, [sp]
 1484 001c FFF7FEFF 		bl	GPRS_Send_LengthOfSendData
 1485              	.LVL155:
 667:Code\Device\GPRS/AtProtocol.c **** 	wait_timeout = 1000;
 1486              		.loc 1 667 0
 1487 0020 FA23     		movs	r3, #250
 668:Code\Device\GPRS/AtProtocol.c **** 	ret = FALSE;
 1488              		.loc 1 668 0
 1489 0022 0024     		movs	r4, #0
 1490 0024 3700     		movs	r7, r6
 667:Code\Device\GPRS/AtProtocol.c **** 	wait_timeout = 1000;
 1491              		.loc 1 667 0
 1492 0026 244D     		ldr	r5, .L192+4
 1493 0028 9B00     		lsls	r3, r3, #2
 1494 002a 2B60     		str	r3, [r5]
 1495              	.LVL156:
 1496              	.L177:
 669:Code\Device\GPRS/AtProtocol.c **** 	while ((ret != TRUE) && (wait_timeout > 0))
 1497              		.loc 1 669 0 discriminator 1
 1498 002c 2B68     		ldr	r3, [r5]
 1499 002e 002B     		cmp	r3, #0
 1500 0030 3AD0     		beq	.L191
 1501              	.LBB13:
 670:Code\Device\GPRS/AtProtocol.c **** 	{
 671:Code\Device\GPRS/AtProtocol.c **** 		if (GPRS_AT_RecFinish == SET)
 1502              		.loc 1 671 0
 1503 0032 224E     		ldr	r6, .L192+8
 1504 0034 3378     		ldrb	r3, [r6]
ARM GAS  C:\Users\Administrator\AppData\Local\Temp\ccHCWnFN.s 			page 40


 1505 0036 012B     		cmp	r3, #1
 1506 0038 06D1     		bne	.L178
 672:Code\Device\GPRS/AtProtocol.c **** 		{
 673:Code\Device\GPRS/AtProtocol.c **** 			ret = GPRS_AT_CheckAck((char *)AT_ALLOW_SEND);
 1507              		.loc 1 673 0
 1508 003a 3800     		movs	r0, r7
 1509 003c 7330     		adds	r0, r0, #115
 1510 003e FFF7FEFF 		bl	GPRS_AT_CheckAck
 1511              	.LVL157:
 674:Code\Device\GPRS/AtProtocol.c **** 			GPRS_AT_RecFinish = RESET;
 1512              		.loc 1 674 0
 1513 0042 0023     		movs	r3, #0
 673:Code\Device\GPRS/AtProtocol.c **** 			GPRS_AT_RecFinish = RESET;
 1514              		.loc 1 673 0
 1515 0044 0400     		movs	r4, r0
 1516              	.LVL158:
 1517              		.loc 1 674 0
 1518 0046 3370     		strb	r3, [r6]
 1519              	.LVL159:
 1520              	.L178:
 675:Code\Device\GPRS/AtProtocol.c **** 		}
 676:Code\Device\GPRS/AtProtocol.c ****         sys_heartbeat();
 1521              		.loc 1 676 0
 1522 0048 FFF7FEFF 		bl	sys_heartbeat
 1523              	.LVL160:
 1524              	.LBE13:
 669:Code\Device\GPRS/AtProtocol.c **** 	{
 1525              		.loc 1 669 0
 1526 004c 012C     		cmp	r4, #1
 1527 004e EDD1     		bne	.L177
 677:Code\Device\GPRS/AtProtocol.c **** 	}
 678:Code\Device\GPRS/AtProtocol.c ****     // 这里如果有数据下发下来 怎么处理? @chensq 02-04
 679:Code\Device\GPRS/AtProtocol.c **** 	if (ret == TRUE)										
 680:Code\Device\GPRS/AtProtocol.c **** 	{
 681:Code\Device\GPRS/AtProtocol.c **** 		GPRS_AT_ParaInit();
 682:Code\Device\GPRS/AtProtocol.c **** 		
 683:Code\Device\GPRS/AtProtocol.c **** 		Uart433Send(data, size);
 684:Code\Device\GPRS/AtProtocol.c **** 		Uart433Send(buf, 10);									// 防止数据发少了，再补几个数			//
 685:Code\Device\GPRS/AtProtocol.c **** 		wait_timeout = 5000;
 686:Code\Device\GPRS/AtProtocol.c **** 		ret = FALSE;
 1528              		.loc 1 686 0
 1529 0050 0024     		movs	r4, #0
 1530              	.LVL161:
 1531              	.LBB14:
 687:Code\Device\GPRS/AtProtocol.c **** 		while ((ret != TRUE) && (wait_timeout > 0))
 688:Code\Device\GPRS/AtProtocol.c **** 		{
 689:Code\Device\GPRS/AtProtocol.c **** 			if (GPRS_AT_RecFinish == SET)
 690:Code\Device\GPRS/AtProtocol.c **** 			{
 691:Code\Device\GPRS/AtProtocol.c **** 				ret = GPRS_AT_CheckAck((char *)AT_SEND_OK);
 692:Code\Device\GPRS/AtProtocol.c **** 				if (ret == FALSE)
 693:Code\Device\GPRS/AtProtocol.c **** 				{
 694:Code\Device\GPRS/AtProtocol.c **** 					ret = GPRS_AT_CheckAck((char *)AT_CONNECT_CLOSED);
 695:Code\Device\GPRS/AtProtocol.c **** 					if (ret == TRUE)							// 连接被远程服务器关闭					//
 696:Code\Device\GPRS/AtProtocol.c **** 					{
 697:Code\Device\GPRS/AtProtocol.c **** 						gprs_state = GET_PRE_IP;
 1532              		.loc 1 697 0
 1533 0052 0226     		movs	r6, #2
ARM GAS  C:\Users\Administrator\AppData\Local\Temp\ccHCWnFN.s 			page 41


 1534              	.LBE14:
 681:Code\Device\GPRS/AtProtocol.c **** 		
 1535              		.loc 1 681 0
 1536 0054 FFF7FEFF 		bl	GPRS_AT_ParaInit
 1537              	.LVL162:
 683:Code\Device\GPRS/AtProtocol.c **** 		Uart433Send(buf, 10);									// 防止数据发少了，再补几个数			//
 1538              		.loc 1 683 0
 1539 0058 0099     		ldr	r1, [sp]
 1540 005a 0198     		ldr	r0, [sp, #4]
 1541 005c FFF7FEFF 		bl	Uart433Send
 1542              	.LVL163:
 684:Code\Device\GPRS/AtProtocol.c **** 		wait_timeout = 5000;
 1543              		.loc 1 684 0
 1544 0060 0A21     		movs	r1, #10
 1545 0062 03A8     		add	r0, sp, #12
 1546 0064 FFF7FEFF 		bl	Uart433Send
 1547              	.LVL164:
 685:Code\Device\GPRS/AtProtocol.c **** 		ret = FALSE;
 1548              		.loc 1 685 0
 1549 0068 154B     		ldr	r3, .L192+12
 1550 006a 2B60     		str	r3, [r5]
 1551              	.LVL165:
 1552              	.L186:
 687:Code\Device\GPRS/AtProtocol.c **** 		{
 1553              		.loc 1 687 0 discriminator 1
 1554 006c 2B68     		ldr	r3, [r5]
 1555 006e 002B     		cmp	r3, #0
 1556 0070 1DD0     		beq	.L190
 1557              	.LBB15:
 689:Code\Device\GPRS/AtProtocol.c **** 			{
 1558              		.loc 1 689 0
 1559 0072 124B     		ldr	r3, .L192+8
 1560 0074 1B78     		ldrb	r3, [r3]
 1561 0076 012B     		cmp	r3, #1
 1562 0078 11D1     		bne	.L182
 691:Code\Device\GPRS/AtProtocol.c **** 				if (ret == FALSE)
 1563              		.loc 1 691 0
 1564 007a 3800     		movs	r0, r7
 1565 007c 7530     		adds	r0, r0, #117
 1566 007e FFF7FEFF 		bl	GPRS_AT_CheckAck
 1567              	.LVL166:
 1568 0082 041E     		subs	r4, r0, #0
 1569              	.LVL167:
 692:Code\Device\GPRS/AtProtocol.c **** 				{
 1570              		.loc 1 692 0
 1571 0084 08D1     		bne	.L183
 694:Code\Device\GPRS/AtProtocol.c **** 					if (ret == TRUE)							// 连接被远程服务器关闭					//
 1572              		.loc 1 694 0
 1573 0086 3800     		movs	r0, r7
 1574              	.LVL168:
 1575 0088 7D30     		adds	r0, r0, #125
 1576 008a FFF7FEFF 		bl	GPRS_AT_CheckAck
 1577              	.LVL169:
 1578 008e 0400     		movs	r4, r0
 1579              	.LVL170:
 695:Code\Device\GPRS/AtProtocol.c **** 					{
 1580              		.loc 1 695 0
ARM GAS  C:\Users\Administrator\AppData\Local\Temp\ccHCWnFN.s 			page 42


 1581 0090 0128     		cmp	r0, #1
 1582 0092 01D1     		bne	.L183
 1583              		.loc 1 697 0
 1584 0094 0B4B     		ldr	r3, .L192+16
 1585 0096 1E70     		strb	r6, [r3]
 1586              	.LVL171:
 1587              	.L183:
 698:Code\Device\GPRS/AtProtocol.c **** 					}
 699:Code\Device\GPRS/AtProtocol.c **** 					else
 700:Code\Device\GPRS/AtProtocol.c **** 					{
 701:Code\Device\GPRS/AtProtocol.c **** 						ret = GPRS_AT_CheckAck((char *)AT_CONNECT_CLOSED);
 702:Code\Device\GPRS/AtProtocol.c **** 						if (ret == TRUE)						// GPRS模块状态出错						//
 703:Code\Device\GPRS/AtProtocol.c **** 						{
 704:Code\Device\GPRS/AtProtocol.c **** 							gprs_state = NEED_INIT;
 705:Code\Device\GPRS/AtProtocol.c **** 						}
 706:Code\Device\GPRS/AtProtocol.c **** 					}
 707:Code\Device\GPRS/AtProtocol.c **** 				}
 708:Code\Device\GPRS/AtProtocol.c **** 				GPRS_AT_RecFinish = RESET;
 1588              		.loc 1 708 0
 1589 0098 0023     		movs	r3, #0
 1590 009a 084A     		ldr	r2, .L192+8
 1591 009c 1370     		strb	r3, [r2]
 1592              	.L182:
 709:Code\Device\GPRS/AtProtocol.c **** 			}
 710:Code\Device\GPRS/AtProtocol.c ****             sys_heartbeat();
 1593              		.loc 1 710 0
 1594 009e FFF7FEFF 		bl	sys_heartbeat
 1595              	.LVL172:
 1596              	.LBE15:
 687:Code\Device\GPRS/AtProtocol.c **** 		{
 1597              		.loc 1 687 0
 1598 00a2 012C     		cmp	r4, #1
 1599 00a4 E2D1     		bne	.L186
 1600 00a6 02E0     		b	.L190
 1601              	.L191:
 711:Code\Device\GPRS/AtProtocol.c **** 		}
 712:Code\Device\GPRS/AtProtocol.c **** 	}
 713:Code\Device\GPRS/AtProtocol.c **** 	else
 714:Code\Device\GPRS/AtProtocol.c **** 	{
 715:Code\Device\GPRS/AtProtocol.c **** 		gprs_state = NEED_INIT;
 1602              		.loc 1 715 0
 1603 00a8 0622     		movs	r2, #6
 1604 00aa 064B     		ldr	r3, .L192+16
 1605 00ac 1A70     		strb	r2, [r3]
 1606              	.L190:
 716:Code\Device\GPRS/AtProtocol.c **** 		return ret;
 1607              		.loc 1 716 0
 1608 00ae 2000     		movs	r0, r4
 717:Code\Device\GPRS/AtProtocol.c **** 	}
 718:Code\Device\GPRS/AtProtocol.c **** 	return ret;
 719:Code\Device\GPRS/AtProtocol.c **** }
 1609              		.loc 1 719 0
 1610 00b0 07B0     		add	sp, sp, #28
 1611              		@ sp needed
 1612              	.LVL173:
 1613 00b2 F0BD     		pop	{r4, r5, r6, r7, pc}
 1614              	.L193:
ARM GAS  C:\Users\Administrator\AppData\Local\Temp\ccHCWnFN.s 			page 43


 1615              		.align	2
 1616              	.L192:
 1617 00b4 80000000 		.word	.LANCHOR1
 1618 00b8 00000000 		.word	wait_timeout
 1619 00bc 00000000 		.word	GPRS_AT_RecFinish
 1620 00c0 88130000 		.word	5000
 1621 00c4 00000000 		.word	gprs_state
 1622              		.cfi_endproc
 1623              	.LFE83:
 1624              		.size	GPRS_SendHexDataToServer, .-GPRS_SendHexDataToServer
 1625              		.section	.text.GPRS_CheckIfRecvClosed,"ax",%progbits
 1626              		.align	1
 1627              		.global	GPRS_CheckIfRecvClosed
 1628              		.code	16
 1629              		.thumb_func
 1630              		.type	GPRS_CheckIfRecvClosed, %function
 1631              	GPRS_CheckIfRecvClosed:
 1632              	.LFB84:
 720:Code\Device\GPRS/AtProtocol.c **** 
 721:Code\Device\GPRS/AtProtocol.c **** //*************************************************************************************************
 722:Code\Device\GPRS/AtProtocol.c **** // Function name	: GPRS_CheckIfRecvClosed
 723:Code\Device\GPRS/AtProtocol.c **** // Description		: 检查是否收到CLOSE字段
 724:Code\Device\GPRS/AtProtocol.c **** // Parameter		: none
 725:Code\Device\GPRS/AtProtocol.c **** // Return			: none
 726:Code\Device\GPRS/AtProtocol.c **** //-------------------------------------------------------------------------------------------------
 727:Code\Device\GPRS/AtProtocol.c **** // Info				: 
 728:Code\Device\GPRS/AtProtocol.c **** //*************************************************************************************************
 729:Code\Device\GPRS/AtProtocol.c **** void GPRS_CheckIfRecvClosed(void)
 730:Code\Device\GPRS/AtProtocol.c **** {
 1633              		.loc 1 730 0
 1634              		.cfi_startproc
 1635              		@ args = 0, pretend = 0, frame = 0
 1636              		@ frame_needed = 0, uses_anonymous_args = 0
 1637 0000 10B5     		push	{r4, lr}
 1638              		.cfi_def_cfa_offset 8
 1639              		.cfi_offset 4, -8
 1640              		.cfi_offset 14, -4
 731:Code\Device\GPRS/AtProtocol.c **** 	uint8_t ret;
 732:Code\Device\GPRS/AtProtocol.c **** 	
 733:Code\Device\GPRS/AtProtocol.c **** 	if (GPRS_AT_RecFinish == SET)
 1641              		.loc 1 733 0
 1642 0002 084B     		ldr	r3, .L197
 1643 0004 1A78     		ldrb	r2, [r3]
 1644 0006 1C00     		movs	r4, r3
 1645 0008 012A     		cmp	r2, #1
 1646 000a 0AD1     		bne	.L194
 734:Code\Device\GPRS/AtProtocol.c **** 	{
 735:Code\Device\GPRS/AtProtocol.c **** 		ret = GPRS_AT_CheckAck((char *)AT_CLOSE_R);
 1647              		.loc 1 735 0
 1648 000c 0648     		ldr	r0, .L197+4
 1649 000e 0F30     		adds	r0, r0, #15
 1650 0010 FFF7FEFF 		bl	GPRS_AT_CheckAck
 1651              	.LVL174:
 736:Code\Device\GPRS/AtProtocol.c **** 		if (ret == TRUE)
 1652              		.loc 1 736 0
 1653 0014 0128     		cmp	r0, #1
 1654 0016 02D1     		bne	.L196
ARM GAS  C:\Users\Administrator\AppData\Local\Temp\ccHCWnFN.s 			page 44


 737:Code\Device\GPRS/AtProtocol.c **** 		{
 738:Code\Device\GPRS/AtProtocol.c **** 			gprs_state = GET_PRE_IP;
 1655              		.loc 1 738 0
 1656 0018 0222     		movs	r2, #2
 1657 001a 044B     		ldr	r3, .L197+8
 1658 001c 1A70     		strb	r2, [r3]
 1659              	.L196:
 739:Code\Device\GPRS/AtProtocol.c **** 		}
 740:Code\Device\GPRS/AtProtocol.c **** 		GPRS_AT_RecFinish = RESET;
 1660              		.loc 1 740 0
 1661 001e 0023     		movs	r3, #0
 1662 0020 2370     		strb	r3, [r4]
 1663              	.LVL175:
 1664              	.L194:
 741:Code\Device\GPRS/AtProtocol.c **** 	}
 742:Code\Device\GPRS/AtProtocol.c **** }
 1665              		.loc 1 742 0
 1666              		@ sp needed
 1667 0022 10BD     		pop	{r4, pc}
 1668              	.L198:
 1669              		.align	2
 1670              	.L197:
 1671 0024 00000000 		.word	GPRS_AT_RecFinish
 1672 0028 00010000 		.word	.LANCHOR3
 1673 002c 00000000 		.word	gprs_state
 1674              		.cfi_endproc
 1675              	.LFE84:
 1676              		.size	GPRS_CheckIfRecvClosed, .-GPRS_CheckIfRecvClosed
 1677              		.global	center_port
 1678              		.global	center_ip
 1679              		.global	test1_ip
 1680              		.global	udp
 1681              		.global	tcp
 1682              		.global	AT_RECSQ
 1683              		.global	AT_RECREG
 1684              		.global	AT_SEND_OK
 1685              		.global	AT_ALLOW_SEND
 1686              		.global	AT_RECMSTATE_CLOSED
 1687              		.global	AT_RECMSTATE_CONNECTD
 1688              		.global	AT_RECMSTATE_INITIAL
 1689              		.global	AT_CLOSE_R
 1690              		.global	AT_CLOSE_CONNECT
 1691              		.global	AT_CONNECT_CLOSED
 1692              		.global	AT_ALREADY_CONNECT
 1693              		.global	AT_CONNECT_FAIL
 1694              		.global	AT_CONNECT_OK
 1695              		.global	AT_RECPIN
 1696              		.global	AT_INIT_OK
 1697              		.global	AT_ERR4
 1698              		.global	AT_ERR
 1699              		.global	AT_OK
 1700              		.global	AT_APN
 1701              		.global	AT_CSQ
 1702              		.global	AT_CREG
 1703              		.global	AT_OPENLED
 1704              		.global	AT_CMMUX
 1705              		.global	AT_CMSTATE
ARM GAS  C:\Users\Administrator\AppData\Local\Temp\ccHCWnFN.s 			page 45


 1706              		.global	AT_CLOSE
 1707              		.global	AT_CGACT
 1708              		.global	AT_CPIN
 1709              		.global	AT_CTZR
 1710              		.global	AT_AT
 1711              		.comm	ADCResultCenter,1,1
 1712              		.section	.rodata
 1713              		.set	.LANCHOR0,. + 0
 1714              		.set	.LANCHOR1,. + 128
 1715              		.set	.LANCHOR3,. + 256
 1716              		.type	AT_INIT_OK, %object
 1717              		.size	AT_INIT_OK, 7
 1718              	AT_INIT_OK:
 1719 0000 2B43545A 		.ascii	"+CTZV:\000"
 1719      563A00
 1720              		.type	AT_OK, %object
 1721              		.size	AT_OK, 3
 1722              	AT_OK:
 1723 0007 4F4B00   		.ascii	"OK\000"
 1724              		.type	AT_AT, %object
 1725              		.size	AT_AT, 5
 1726              	AT_AT:
 1727 000a 41540D0A 		.ascii	"AT\015\012\000"
 1727      00
 1728              		.type	AT_RECPIN, %object
 1729              		.size	AT_RECPIN, 15
 1730              	AT_RECPIN:
 1731 000f 2B435049 		.ascii	"+CPIN: READY,1\000"
 1731      4E3A2052 
 1731      45414459 
 1731      2C3100
 1732              		.type	AT_CPIN, %object
 1733              		.size	AT_CPIN, 11
 1734              	AT_CPIN:
 1735 001e 41542B43 		.ascii	"AT+CPIN?\015\012\000"
 1735      50494E3F 
 1735      0D0A00
 1736              		.type	AT_RECREG, %object
 1737              		.size	AT_RECREG, 7
 1738              	AT_RECREG:
 1739 0029 2B435245 		.ascii	"+CREG:\000"
 1739      473A00
 1740              		.type	AT_CREG, %object
 1741              		.size	AT_CREG, 11
 1742              	AT_CREG:
 1743 0030 41542B43 		.ascii	"AT+CREG?\015\012\000"
 1743      5245473F 
 1743      0D0A00
 1744              		.type	AT_RECSQ, %object
 1745              		.size	AT_RECSQ, 6
 1746              	AT_RECSQ:
 1747 003b 2B435351 		.ascii	"+CSQ:\000"
 1747      3A00
 1748              		.type	AT_CSQ, %object
 1749              		.size	AT_CSQ, 9
 1750              	AT_CSQ:
 1751 0041 41542B43 		.ascii	"AT+CSQ\015\012\000"
ARM GAS  C:\Users\Administrator\AppData\Local\Temp\ccHCWnFN.s 			page 46


 1751      53510D0A 
 1751      00
 1752              		.type	AT_APN, %object
 1753              		.size	AT_APN, 28
 1754              	AT_APN:
 1755 004a 41542B43 		.ascii	"AT+CGDCONT=1,\"IP\",\"CMNET\"\015\012\000"
 1755      4744434F 
 1755      4E543D31 
 1755      2C224950 
 1755      222C2243 
 1756              		.type	AT_CGACT, %object
 1757              		.size	AT_CGACT, 15
 1758              	AT_CGACT:
 1759 0066 41542B43 		.ascii	"AT+CGACT=1,1\015\012\000"
 1759      47414354 
 1759      3D312C31 
 1759      0D0A00
 1760              		.type	AT_CMSTATE, %object
 1761              		.size	AT_CMSTATE, 13
 1762              	AT_CMSTATE:
 1763 0075 41542B43 		.ascii	"AT+CMSTATE\015\012\000"
 1763      4D535441 
 1763      54450D0A 
 1763      00
 1764              		.type	AT_RECMSTATE_CONNECTD, %object
 1765              		.size	AT_RECMSTATE_CONNECTD, 10
 1766              	AT_RECMSTATE_CONNECTD:
 1767 0082 434F4E4E 		.ascii	"CONNECTED\000"
 1767      45435445 
 1767      4400
 1768              		.type	AT_CLOSE, %object
 1769              		.size	AT_CLOSE, 13
 1770              	AT_CLOSE:
 1771 008c 41542B49 		.ascii	"AT+IPCLOSE\015\012\000"
 1771      50434C4F 
 1771      53450D0A 
 1771      00
 1772              		.type	AT_CLOSE_CONNECT, %object
 1773              		.size	AT_CLOSE_CONNECT, 10
 1774              	AT_CLOSE_CONNECT:
 1775 0099 2B495043 		.ascii	"+IPCLOSE:\000"
 1775      4C4F5345 
 1775      3A00
 1776              		.type	AT_ERR4, %object
 1777              		.size	AT_ERR4, 14
 1778              	AT_ERR4:
 1779 00a3 2B434D45 		.ascii	"+CME ERROR: 4\000"
 1779      20455252 
 1779      4F523A20 
 1779      3400
 1780              		.type	AT_CMMUX, %object
 1781              		.size	AT_CMMUX, 13
 1782              	AT_CMMUX:
 1783 00b1 41542B43 		.ascii	"AT+CMMUX=0\015\012\000"
 1783      4D4D5558 
 1783      3D300D0A 
 1783      00
ARM GAS  C:\Users\Administrator\AppData\Local\Temp\ccHCWnFN.s 			page 47


 1784              		.type	AT_OPENLED, %object
 1785              		.size	AT_OPENLED, 16
 1786              	AT_OPENLED:
 1787 00be 41542B43 		.ascii	"AT+CMNETLED=1\015\012\000"
 1787      4D4E4554 
 1787      4C45443D 
 1787      310D0A00 
 1788              		.type	AT_CONNECT_OK, %object
 1789              		.size	AT_CONNECT_OK, 11
 1790              	AT_CONNECT_OK:
 1791 00ce 434F4E4E 		.ascii	"CONNECT OK\000"
 1791      45435420 
 1791      4F4B00
 1792              		.type	AT_ALREADY_CONNECT, %object
 1793              		.size	AT_ALREADY_CONNECT, 16
 1794              	AT_ALREADY_CONNECT:
 1795 00d9 414C5245 		.ascii	"ALREADY CONNECT\000"
 1795      41445920 
 1795      434F4E4E 
 1795      45435400 
 1796              	.LC0:
 1797 00e9 01       		.byte	1
 1798 00ea 02       		.byte	2
 1799 00eb 03       		.byte	3
 1800 00ec 04       		.byte	4
 1801 00ed 05       		.byte	5
 1802 00ee 06       		.byte	6
 1803 00ef 07       		.byte	7
 1804 00f0 08       		.byte	8
 1805 00f1 09       		.byte	9
 1806 00f2 0A       		.byte	10
 1807              		.type	AT_ALLOW_SEND, %object
 1808              		.size	AT_ALLOW_SEND, 2
 1809              	AT_ALLOW_SEND:
 1810 00f3 3E00     		.ascii	">\000"
 1811              		.type	AT_SEND_OK, %object
 1812              		.size	AT_SEND_OK, 8
 1813              	AT_SEND_OK:
 1814 00f5 53454E44 		.ascii	"SEND OK\000"
 1814      204F4B00 
 1815              		.type	AT_CONNECT_CLOSED, %object
 1816              		.size	AT_CONNECT_CLOSED, 18
 1817              	AT_CONNECT_CLOSED:
 1818 00fd 434F4E4E 		.ascii	"CONNECTION CLOSED\000"
 1818      45435449 
 1818      4F4E2043 
 1818      4C4F5345 
 1818      4400
 1819              		.type	AT_CLOSE_R, %object
 1820              		.size	AT_CLOSE_R, 6
 1821              	AT_CLOSE_R:
 1822 010f 434C4F53 		.ascii	"CLOSE\000"
 1822      4500
 1823              		.type	AT_RECMSTATE_CLOSED, %object
 1824              		.size	AT_RECMSTATE_CLOSED, 7
 1825              	AT_RECMSTATE_CLOSED:
 1826 0115 434C4F53 		.ascii	"CLOSED\000"
ARM GAS  C:\Users\Administrator\AppData\Local\Temp\ccHCWnFN.s 			page 48


 1826      454400
 1827              		.type	AT_RECMSTATE_INITIAL, %object
 1828              		.size	AT_RECMSTATE_INITIAL, 8
 1829              	AT_RECMSTATE_INITIAL:
 1830 011c 494E4954 		.ascii	"INITIAL\000"
 1830      49414C00 
 1831              		.type	AT_CONNECT_FAIL, %object
 1832              		.size	AT_CONNECT_FAIL, 13
 1833              	AT_CONNECT_FAIL:
 1834 0124 434F4E4E 		.ascii	"CONNECT FAIL\000"
 1834      45435420 
 1834      4641494C 
 1834      00
 1835              		.type	AT_ERR, %object
 1836              		.size	AT_ERR, 12
 1837              	AT_ERR:
 1838 0131 2B434D45 		.ascii	"+CME ERROR:\000"
 1838      20455252 
 1838      4F523A00 
 1839              		.type	AT_CTZR, %object
 1840              		.size	AT_CTZR, 12
 1841              	AT_CTZR:
 1842 013d 41542B43 		.ascii	"AT+CTZR=1\015\012\000"
 1842      545A523D 
 1842      310D0A00 
 1843              		.section	.rodata.str1.1,"aMS",%progbits,1
 1844              	.LC7:
 1845 0000 41542B49 		.ascii	"AT+IPSTART=\"%s\",\"%s\",%s\015\012\000"
 1845      50535441 
 1845      52543D22 
 1845      2573222C 
 1845      22257322 
 1846              	.LC9:
 1847 001a 41542B49 		.ascii	"AT+IPSEND=%d\015\012\000"
 1847      5053454E 
 1847      443D2564 
 1847      0D0A00
 1848              	.LC88:
 1849 0029 38393832 		.ascii	"8982\000"
 1849      00
 1850              	.LC89:
 1851 002e 6C6F636B 		.ascii	"lock.zjeja.com\000"
 1851      2E7A6A65 
 1851      6A612E63 
 1851      6F6D00
 1852              	.LC90:
 1853 003d 3138332E 		.ascii	"183.146.22.84\000"
 1853      3134362E 
 1853      32322E38 
 1853      3400
 1854              	.LC91:
 1855 004b 55445000 		.ascii	"UDP\000"
 1856              	.LC92:
 1857 004f 54435000 		.ascii	"TCP\000"
 1858              		.data
 1859              		.align	2
 1860              		.set	.LANCHOR2,. + 0
ARM GAS  C:\Users\Administrator\AppData\Local\Temp\ccHCWnFN.s 			page 49


 1861              		.type	center_port, %object
 1862              		.size	center_port, 4
 1863              	center_port:
 1864 0000 29000000 		.word	.LC88
 1865              		.type	test1_ip, %object
 1866              		.size	test1_ip, 4
 1867              	test1_ip:
 1868 0004 3D000000 		.word	.LC90
 1869              		.type	tcp, %object
 1870              		.size	tcp, 4
 1871              	tcp:
 1872 0008 4F000000 		.word	.LC92
 1873              		.type	center_ip, %object
 1874              		.size	center_ip, 4
 1875              	center_ip:
 1876 000c 2E000000 		.word	.LC89
 1877              		.type	udp, %object
 1878              		.size	udp, 4
 1879              	udp:
 1880 0010 4B000000 		.word	.LC91
 1881              		.text
 1882              	.Letext0:
 1883              		.file 2 "c:\\program files (x86)\\cypress\\psoc creator\\4.1\\psoc creator\\import\\gnu\\arm\\5.4.
 1884              		.file 3 "c:\\program files (x86)\\cypress\\psoc creator\\4.1\\psoc creator\\import\\gnu\\arm\\5.4.
 1885              		.file 4 "Generated_Source\\PSoC4/cytypes.h"
 1886              		.file 5 "Generated_Source\\PSoC4/RTC.h"
 1887              		.file 6 ".\\Code\\Device\\FM175XX\\LPCD/lpcd_api.h"
 1888              		.file 7 "c:\\program files (x86)\\cypress\\psoc creator\\4.1\\psoc creator\\import\\gnu\\arm\\5.4.
 1889              		.file 8 "c:\\program files (x86)\\cypress\\psoc creator\\4.1\\psoc creator\\import\\gnu\\arm\\5.4.
 1890              		.file 9 "Code\\Device\\GPRS\\Uart433.h"
 1891              		.file 10 ".\\Code\\Device\\W25Q80/user_data.h"