ARM GAS  C:\Users\Administrator\AppData\Local\Temp\ccexfbaX.s 			page 1


   1              		.syntax unified
   2              		.cpu cortex-m0
   3              		.fpu softvfp
   4              		.eabi_attribute 20, 1
   5              		.eabi_attribute 21, 1
   6              		.eabi_attribute 23, 3
   7              		.eabi_attribute 24, 1
   8              		.eabi_attribute 25, 1
   9              		.eabi_attribute 26, 1
  10              		.eabi_attribute 30, 4
  11              		.eabi_attribute 34, 0
  12              		.eabi_attribute 18, 4
  13              		.thumb
  14              		.syntax unified
  15              		.file	"CmdProtocol.c"
  16              		.text
  17              	.Ltext0:
  18              		.cfi_sections	.debug_frame
  19              		.global	__aeabi_uidiv
  20              		.global	__aeabi_uidivmod
  21              		.section	.text.Protocol_CmdGetPreSever,"ax",%progbits
  22              		.align	1
  23              		.code	16
  24              		.thumb_func
  25              		.type	Protocol_CmdGetPreSever, %function
  26              	Protocol_CmdGetPreSever:
  27              	.LFB73:
  28              		.file 1 "Code\\UserApp\\Protocol\\CmdProtocol.c"
   1:Code\UserApp\Protocol/CmdProtocol.c **** //*************************************************************************************************
   2:Code\UserApp\Protocol/CmdProtocol.c **** // File name		: x33AppProtocol.c
   3:Code\UserApp\Protocol/CmdProtocol.c **** // Description		: è“ç‰™åè®®ç›¸å…³å‡½æ•°
   4:Code\UserApp\Protocol/CmdProtocol.c **** // Author			: Keno
   5:Code\UserApp\Protocol/CmdProtocol.c **** // Date				: 2016.8.8
   6:Code\UserApp\Protocol/CmdProtocol.c **** // Version			: V02
   7:Code\UserApp\Protocol/CmdProtocol.c **** //-------------------------------------------------------------------------------------------------
   8:Code\UserApp\Protocol/CmdProtocol.c **** // Info				: 
   9:Code\UserApp\Protocol/CmdProtocol.c **** //*************************************************************************************************
  10:Code\UserApp\Protocol/CmdProtocol.c **** #include "CmdProtocol.h"
  11:Code\UserApp\Protocol/CmdProtocol.c **** 
  12:Code\UserApp\Protocol/CmdProtocol.c **** 
  13:Code\UserApp\Protocol/CmdProtocol.c **** 
  14:Code\UserApp\Protocol/CmdProtocol.c **** //******************************************* å¤–éƒ¨å˜é‡å£°æ˜ **********************************
  15:Code\UserApp\Protocol/CmdProtocol.c **** extern uint8 system_version;
  16:Code\UserApp\Protocol/CmdProtocol.c **** 
  17:Code\UserApp\Protocol/CmdProtocol.c **** extern volatile uint8 Mac_Addr[6];
  18:Code\UserApp\Protocol/CmdProtocol.c **** 
  19:Code\UserApp\Protocol/CmdProtocol.c **** extern uint8 domain[200];
  20:Code\UserApp\Protocol/CmdProtocol.c **** extern uint8 pre_ip[200];
  21:Code\UserApp\Protocol/CmdProtocol.c **** extern uint8 pre_port[6];
  22:Code\UserApp\Protocol/CmdProtocol.c **** extern uint8 update_ip[16];
  23:Code\UserApp\Protocol/CmdProtocol.c **** extern uint8 update_port[5];
  24:Code\UserApp\Protocol/CmdProtocol.c **** extern uint8 update_flag;
  25:Code\UserApp\Protocol/CmdProtocol.c **** extern uint16 update_version;
  26:Code\UserApp\Protocol/CmdProtocol.c **** extern uint16 update_page;
  27:Code\UserApp\Protocol/CmdProtocol.c **** #if 0
  28:Code\UserApp\Protocol/CmdProtocol.c **** extern uint16 update_offset;
  29:Code\UserApp\Protocol/CmdProtocol.c **** extern uint16 Image_size;
ARM GAS  C:\Users\Administrator\AppData\Local\Temp\ccexfbaX.s 			page 2


  30:Code\UserApp\Protocol/CmdProtocol.c **** #endif
  31:Code\UserApp\Protocol/CmdProtocol.c **** 
  32:Code\UserApp\Protocol/CmdProtocol.c **** extern uint32 update_offset;
  33:Code\UserApp\Protocol/CmdProtocol.c **** extern uint32 Image_size;
  34:Code\UserApp\Protocol/CmdProtocol.c **** 
  35:Code\UserApp\Protocol/CmdProtocol.c **** extern uint8 SendMacFlag;
  36:Code\UserApp\Protocol/CmdProtocol.c **** extern uint8 gprs_state;
  37:Code\UserApp\Protocol/CmdProtocol.c **** 
  38:Code\UserApp\Protocol/CmdProtocol.c **** extern uint8 GPRSCmdParseFlag1;
  39:Code\UserApp\Protocol/CmdProtocol.c **** extern uint8 GPRSCmdParseFlag2;
  40:Code\UserApp\Protocol/CmdProtocol.c **** extern volatile uint8 GPRSCmd_buf1[DATABUF_SIZE];
  41:Code\UserApp\Protocol/CmdProtocol.c **** extern volatile uint8 GPRSCmd_buf2[DATABUF_SIZE];
  42:Code\UserApp\Protocol/CmdProtocol.c **** 
  43:Code\UserApp\Protocol/CmdProtocol.c **** extern volatile uint8  RecvType;
  44:Code\UserApp\Protocol/CmdProtocol.c **** extern volatile uint8  CmdRev_buf[DATABUF_SIZE];
  45:Code\UserApp\Protocol/CmdProtocol.c **** extern volatile uint16 Cmd_Baglen;
  46:Code\UserApp\Protocol/CmdProtocol.c **** extern volatile uint8  Cmd_Revsta;
  47:Code\UserApp\Protocol/CmdProtocol.c **** extern volatile uint16 Cmd_index;
  48:Code\UserApp\Protocol/CmdProtocol.c **** 
  49:Code\UserApp\Protocol/CmdProtocol.c **** extern uint32 cur_time;
  50:Code\UserApp\Protocol/CmdProtocol.c **** extern uint32 next_network_time;
  51:Code\UserApp\Protocol/CmdProtocol.c **** extern uint32 next_heartbeat_time;
  52:Code\UserApp\Protocol/CmdProtocol.c **** extern uint32 next_gprs_operation_time;
  53:Code\UserApp\Protocol/CmdProtocol.c **** extern uint32 next_gprs_upload_time;									// ä¸‹ä¸€æ¬¡GPRSä¸»åŠ¨ä¸ŠæŠ¥æ—¶é—´				//
  54:Code\UserApp\Protocol/CmdProtocol.c **** extern uint32 next_allupload_time;		
  55:Code\UserApp\Protocol/CmdProtocol.c **** extern uint8  uploadpolling_stop;										// è½®è®­ä¸ŠæŠ¥å¼€é—¨ä¿¡æ¯ åœæ­¢ä½				//
  56:Code\UserApp\Protocol/CmdProtocol.c **** 
  57:Code\UserApp\Protocol/CmdProtocol.c **** 
  58:Code\UserApp\Protocol/CmdProtocol.c **** extern uint8  update_timeout_count;
  59:Code\UserApp\Protocol/CmdProtocol.c **** extern volatile uint32 update_timeout_time;
  60:Code\UserApp\Protocol/CmdProtocol.c **** extern volatile uint32 wait_timeout;
  61:Code\UserApp\Protocol/CmdProtocol.c **** extern uint8  gprs_operation_ErrCount;
  62:Code\UserApp\Protocol/CmdProtocol.c **** extern uint8  heartbeat_SendCount;
  63:Code\UserApp\Protocol/CmdProtocol.c **** 
  64:Code\UserApp\Protocol/CmdProtocol.c **** extern uint8  Card_ErrCount;
  65:Code\UserApp\Protocol/CmdProtocol.c **** extern uint8  flag_reboot;
  66:Code\UserApp\Protocol/CmdProtocol.c **** extern uint8  stop_reboot;
  67:Code\UserApp\Protocol/CmdProtocol.c **** 
  68:Code\UserApp\Protocol/CmdProtocol.c **** extern uint8  LED_State;
  69:Code\UserApp\Protocol/CmdProtocol.c **** 
  70:Code\UserApp\Protocol/CmdProtocol.c **** 
  71:Code\UserApp\Protocol/CmdProtocol.c **** //********************************************* å˜é‡å£°æ˜ **************************************
  72:Code\UserApp\Protocol/CmdProtocol.c **** uint16 UploadQty;
  73:Code\UserApp\Protocol/CmdProtocol.c **** uint16 UploadStartnum;
  74:Code\UserApp\Protocol/CmdProtocol.c **** 
  75:Code\UserApp\Protocol/CmdProtocol.c **** 
  76:Code\UserApp\Protocol/CmdProtocol.c **** 
  77:Code\UserApp\Protocol/CmdProtocol.c **** //******************************************* å¤–éƒ¨å‡½æ•°å£°æ˜ **********************************
  78:Code\UserApp\Protocol/CmdProtocol.c **** extern void delay_with_ble(uint32 ms);
  79:Code\UserApp\Protocol/CmdProtocol.c **** extern void ble_heartbeat(void);
  80:Code\UserApp\Protocol/CmdProtocol.c **** extern void Led_RedON(void);
  81:Code\UserApp\Protocol/CmdProtocol.c **** extern void Led_GreenON(void);
  82:Code\UserApp\Protocol/CmdProtocol.c **** extern void Led_SetState(uint8 Sta);
  83:Code\UserApp\Protocol/CmdProtocol.c **** extern void DoorOpen(void);
  84:Code\UserApp\Protocol/CmdProtocol.c **** extern void DoorClose(void);
  85:Code\UserApp\Protocol/CmdProtocol.c **** extern void Updatealarm_check(void);
  86:Code\UserApp\Protocol/CmdProtocol.c **** 
ARM GAS  C:\Users\Administrator\AppData\Local\Temp\ccexfbaX.s 			page 3


  87:Code\UserApp\Protocol/CmdProtocol.c **** 
  88:Code\UserApp\Protocol/CmdProtocol.c **** int Endpoint_exchange(uint8 card_data[])
  89:Code\UserApp\Protocol/CmdProtocol.c **** {
  90:Code\UserApp\Protocol/CmdProtocol.c **** 	uint8 databuf[8] = {0};
  91:Code\UserApp\Protocol/CmdProtocol.c **** 
  92:Code\UserApp\Protocol/CmdProtocol.c **** 	DBG_SOFT_PutStr("Endpoint_exchange1:\n");
  93:Code\UserApp\Protocol/CmdProtocol.c **** 	DBG_SOFT_PrintfHex(card_data,8,16);
  94:Code\UserApp\Protocol/CmdProtocol.c **** 	
  95:Code\UserApp\Protocol/CmdProtocol.c **** 	// å¦‚æœæ˜¯Aå¡ å‰/åé¢4Bæ˜¯0 è½¬æ¢ä½ç½® 
  96:Code\UserApp\Protocol/CmdProtocol.c **** 	if((card_data[4] == 0 && card_data[5] == 0 
  97:Code\UserApp\Protocol/CmdProtocol.c **** 	 && card_data[6] == 0 && card_data[7] == 0) ||
  98:Code\UserApp\Protocol/CmdProtocol.c **** 	   (card_data[0] == 0 && card_data[1] == 0 
  99:Code\UserApp\Protocol/CmdProtocol.c **** 	 && card_data[2] == 0 && card_data[3] == 0))
 100:Code\UserApp\Protocol/CmdProtocol.c **** 	{
 101:Code\UserApp\Protocol/CmdProtocol.c **** 		memcpy(databuf+4, card_data, 4);						// å‰4ä¸ªUIDæ‹·è´åˆ°åå››ä¸ª 
 102:Code\UserApp\Protocol/CmdProtocol.c **** 		memcpy(databuf, card_data+4, 4);						// å4ä¸ªUIDæ‹·è´åˆ°å‰å››ä¸ª 
 103:Code\UserApp\Protocol/CmdProtocol.c **** 		
 104:Code\UserApp\Protocol/CmdProtocol.c **** 		memcpy(card_data,databuf,8);							// å…¨éƒ¨è€ƒå›
 105:Code\UserApp\Protocol/CmdProtocol.c **** 	}
 106:Code\UserApp\Protocol/CmdProtocol.c **** 	DBG_SOFT_PutStr("Endpoint_exchange2:\n");
 107:Code\UserApp\Protocol/CmdProtocol.c **** 	DBG_SOFT_PrintfHex(card_data,8,16);
 108:Code\UserApp\Protocol/CmdProtocol.c **** 	return 0;
 109:Code\UserApp\Protocol/CmdProtocol.c **** }
 110:Code\UserApp\Protocol/CmdProtocol.c **** 
 111:Code\UserApp\Protocol/CmdProtocol.c **** 
 112:Code\UserApp\Protocol/CmdProtocol.c **** 
 113:Code\UserApp\Protocol/CmdProtocol.c **** //*************************************************************************************************
 114:Code\UserApp\Protocol/CmdProtocol.c **** // Function name	: Cmd_Protocol_ParaInit
 115:Code\UserApp\Protocol/CmdProtocol.c **** // Description		: å‘½ä»¤ç›¸å…³å‚æ•°åˆå§‹åŒ–
 116:Code\UserApp\Protocol/CmdProtocol.c **** // Parameter		: none
 117:Code\UserApp\Protocol/CmdProtocol.c **** // Return			: none
 118:Code\UserApp\Protocol/CmdProtocol.c **** //-------------------------------------------------------------------------------------------------
 119:Code\UserApp\Protocol/CmdProtocol.c **** // Info				: 
 120:Code\UserApp\Protocol/CmdProtocol.c **** //*************************************************************************************************
 121:Code\UserApp\Protocol/CmdProtocol.c **** void Cmd_Protocol_ParaInit(void)
 122:Code\UserApp\Protocol/CmdProtocol.c **** {
 123:Code\UserApp\Protocol/CmdProtocol.c **** 	RecvType = 0;
 124:Code\UserApp\Protocol/CmdProtocol.c **** 	Cmd_Baglen = 0;
 125:Code\UserApp\Protocol/CmdProtocol.c **** 	Cmd_Revsta = 0;
 126:Code\UserApp\Protocol/CmdProtocol.c **** 	Cmd_index = 0;
 127:Code\UserApp\Protocol/CmdProtocol.c **** 	GPRSCmdParseFlag1 = RESET;
 128:Code\UserApp\Protocol/CmdProtocol.c **** 	GPRSCmdParseFlag2 = RESET;
 129:Code\UserApp\Protocol/CmdProtocol.c **** 	memset((char *)CmdRev_buf, 0, sizeof(CmdRev_buf));
 130:Code\UserApp\Protocol/CmdProtocol.c **** 	memset((char *)GPRSCmd_buf1, 0, sizeof(GPRSCmd_buf1));
 131:Code\UserApp\Protocol/CmdProtocol.c **** 	memset((char *)GPRSCmd_buf2, 0, sizeof(GPRSCmd_buf2));
 132:Code\UserApp\Protocol/CmdProtocol.c **** }
 133:Code\UserApp\Protocol/CmdProtocol.c **** 
 134:Code\UserApp\Protocol/CmdProtocol.c **** //===ã€å¼€å§‹ã€‘===================== ä¸šåŠ¡å±‚ä¸»åŠ¨ä¸ŠæŠ¥æœåŠ¡å™¨æŒ‡ä»¤ =======================
 135:Code\UserApp\Protocol/CmdProtocol.c **** 
 136:Code\UserApp\Protocol/CmdProtocol.c **** //*************************************************************************************************
 137:Code\UserApp\Protocol/CmdProtocol.c **** // Function name	: send_get_forntserviceip
 138:Code\UserApp\Protocol/CmdProtocol.c **** // Description		: è·å–æœåŠ¡å™¨åœ°å€  0x01
 139:Code\UserApp\Protocol/CmdProtocol.c **** // Parameter		: none
 140:Code\UserApp\Protocol/CmdProtocol.c **** // Return			: none
 141:Code\UserApp\Protocol/CmdProtocol.c **** //-------------------------------------------------------------------------------------------------
 142:Code\UserApp\Protocol/CmdProtocol.c **** // è¯´æ˜				: 
 143:Code\UserApp\Protocol/CmdProtocol.c **** //*************************************************************************************************
ARM GAS  C:\Users\Administrator\AppData\Local\Temp\ccexfbaX.s 			page 4


 144:Code\UserApp\Protocol/CmdProtocol.c **** uint8_t send_get_pre_service_ip(void)
 145:Code\UserApp\Protocol/CmdProtocol.c **** {
 146:Code\UserApp\Protocol/CmdProtocol.c **** 	uint8 uart_buf[96];
 147:Code\UserApp\Protocol/CmdProtocol.c **** 	uint8 time_arr[4];
 148:Code\UserApp\Protocol/CmdProtocol.c **** 	uint32_t time_tmp;
 149:Code\UserApp\Protocol/CmdProtocol.c **** 	uint16_t TempCrc = 0;
 150:Code\UserApp\Protocol/CmdProtocol.c **** 	uint16_t cnt = 0;
 151:Code\UserApp\Protocol/CmdProtocol.c **** 	uint16_t i = 0;
 152:Code\UserApp\Protocol/CmdProtocol.c **** 	uint16_t pack_len = 0x0F;
 153:Code\UserApp\Protocol/CmdProtocol.c **** 	
 154:Code\UserApp\Protocol/CmdProtocol.c **** 	uart_buf[cnt++] = 0xef;
 155:Code\UserApp\Protocol/CmdProtocol.c **** 	uart_buf[cnt++] = 0x3a;
 156:Code\UserApp\Protocol/CmdProtocol.c **** 	uart_buf[cnt++] = (pack_len >> 8) & 0xFF;					// åŒ…é•¿åº¦é«˜å­—èŠ‚							//
 157:Code\UserApp\Protocol/CmdProtocol.c **** 	uart_buf[cnt++] = pack_len & 0xFF;							// åŒ…é•¿åº¦ä½å­—èŠ‚							//
 158:Code\UserApp\Protocol/CmdProtocol.c **** 	uart_buf[cnt++] = 0x01;
 159:Code\UserApp\Protocol/CmdProtocol.c **** 	uart_buf[cnt++] = 0x01;
 160:Code\UserApp\Protocol/CmdProtocol.c **** 	uart_buf[cnt++] = 0x01;
 161:Code\UserApp\Protocol/CmdProtocol.c **** 	
 162:Code\UserApp\Protocol/CmdProtocol.c **** 	for(i = 0; i < 6; i++)										// MACåœ°å€								//
 163:Code\UserApp\Protocol/CmdProtocol.c **** 	{
 164:Code\UserApp\Protocol/CmdProtocol.c **** 		uart_buf[cnt++] = Mac_Addr[i];
 165:Code\UserApp\Protocol/CmdProtocol.c **** 	}
 166:Code\UserApp\Protocol/CmdProtocol.c **** 	
 167:Code\UserApp\Protocol/CmdProtocol.c **** 	time_tmp = (uint32)RTC_GetUnixTime();						// æ—¶é—´æˆ³								//
 168:Code\UserApp\Protocol/CmdProtocol.c **** 	LONG2BYTE(time_tmp, time_arr);
 169:Code\UserApp\Protocol/CmdProtocol.c **** 	uart_buf[cnt++] = time_arr[0];
 170:Code\UserApp\Protocol/CmdProtocol.c **** 	uart_buf[cnt++] = time_arr[1];
 171:Code\UserApp\Protocol/CmdProtocol.c **** 	uart_buf[cnt++] = time_arr[2];
 172:Code\UserApp\Protocol/CmdProtocol.c **** 	uart_buf[cnt++] = time_arr[3];
 173:Code\UserApp\Protocol/CmdProtocol.c **** 	
 174:Code\UserApp\Protocol/CmdProtocol.c **** 	TempCrc = MyCrc16Check(uart_buf, pack_len + 0x02);			// CRCæ ¡éªŒ								//
 175:Code\UserApp\Protocol/CmdProtocol.c **** 	uart_buf[cnt++] = (TempCrc >> 8) & 0xFF;
 176:Code\UserApp\Protocol/CmdProtocol.c **** 	uart_buf[cnt++] = TempCrc & 0xFF;
 177:Code\UserApp\Protocol/CmdProtocol.c **** 	
 178:Code\UserApp\Protocol/CmdProtocol.c **** 	GPRS_SendHexDataToServer((uint8_t *)uart_buf, ((uart_buf[2] << 8) + uart_buf[3] + 4));
 179:Code\UserApp\Protocol/CmdProtocol.c **** 	return 0;
 180:Code\UserApp\Protocol/CmdProtocol.c **** }
 181:Code\UserApp\Protocol/CmdProtocol.c **** 
 182:Code\UserApp\Protocol/CmdProtocol.c **** //*************************************************************************************************
 183:Code\UserApp\Protocol/CmdProtocol.c **** // Function name	: send_send_mac_and_get_blekey
 184:Code\UserApp\Protocol/CmdProtocol.c **** // Description		: ç”³æŠ¥macå’Œè·å–blekey  0x02
 185:Code\UserApp\Protocol/CmdProtocol.c **** // Parameter		: none
 186:Code\UserApp\Protocol/CmdProtocol.c **** // Return			: none
 187:Code\UserApp\Protocol/CmdProtocol.c **** //-------------------------------------------------------------------------------------------------
 188:Code\UserApp\Protocol/CmdProtocol.c **** // è¯´æ˜				: 
 189:Code\UserApp\Protocol/CmdProtocol.c **** //*************************************************************************************************
 190:Code\UserApp\Protocol/CmdProtocol.c **** uint8_t send_send_mac_and_get_blekey(void)
 191:Code\UserApp\Protocol/CmdProtocol.c **** {
 192:Code\UserApp\Protocol/CmdProtocol.c **** 	uint8 ver;
 193:Code\UserApp\Protocol/CmdProtocol.c **** 	uint8 uart_buf[96];
 194:Code\UserApp\Protocol/CmdProtocol.c **** 	uint8 time_arr[4];
 195:Code\UserApp\Protocol/CmdProtocol.c **** 	uint32_t time_tmp;
 196:Code\UserApp\Protocol/CmdProtocol.c **** 	uint16_t TempCrc = 0;
 197:Code\UserApp\Protocol/CmdProtocol.c **** 	uint16_t cnt = 0;
 198:Code\UserApp\Protocol/CmdProtocol.c **** 	uint16_t i = 0;
 199:Code\UserApp\Protocol/CmdProtocol.c **** 	uint16_t pack_len = 0x11;
 200:Code\UserApp\Protocol/CmdProtocol.c ****     
ARM GAS  C:\Users\Administrator\AppData\Local\Temp\ccexfbaX.s 			page 5


 201:Code\UserApp\Protocol/CmdProtocol.c **** 	uart_buf[cnt++] = 0xef;
 202:Code\UserApp\Protocol/CmdProtocol.c **** 	uart_buf[cnt++] = 0x3a;
 203:Code\UserApp\Protocol/CmdProtocol.c **** 	uart_buf[cnt++] = (pack_len >> 8) & 0xFF;					// åŒ…é•¿åº¦é«˜å­—èŠ‚							//
 204:Code\UserApp\Protocol/CmdProtocol.c **** 	uart_buf[cnt++] = pack_len & 0xFF;							// åŒ…é•¿åº¦ä½å­—èŠ‚							//
 205:Code\UserApp\Protocol/CmdProtocol.c **** 	uart_buf[cnt++] = 0x01;
 206:Code\UserApp\Protocol/CmdProtocol.c **** 	uart_buf[cnt++] = 0x01;
 207:Code\UserApp\Protocol/CmdProtocol.c **** 	uart_buf[cnt++] = 0x02;
 208:Code\UserApp\Protocol/CmdProtocol.c **** 	
 209:Code\UserApp\Protocol/CmdProtocol.c **** 	for(i = 0; i < 6; i++)										// MACåœ°å€								//
 210:Code\UserApp\Protocol/CmdProtocol.c **** 	{
 211:Code\UserApp\Protocol/CmdProtocol.c **** 		uart_buf[cnt++] = Mac_Addr[i];
 212:Code\UserApp\Protocol/CmdProtocol.c **** 	}
 213:Code\UserApp\Protocol/CmdProtocol.c **** 
 214:Code\UserApp\Protocol/CmdProtocol.c **** 	ver = system_version;										// å›ºä»¶ç‰ˆæœ¬å·							//
 215:Code\UserApp\Protocol/CmdProtocol.c **** 	uart_buf[cnt++] = (ver >> 8) & 0xFF;
 216:Code\UserApp\Protocol/CmdProtocol.c **** 	uart_buf[cnt++] = ver & 0xFF;
 217:Code\UserApp\Protocol/CmdProtocol.c **** 	    
 218:Code\UserApp\Protocol/CmdProtocol.c **** 	time_tmp = (uint32)RTC_GetUnixTime();						// æ—¶é—´æˆ³								//
 219:Code\UserApp\Protocol/CmdProtocol.c **** 	LONG2BYTE(time_tmp, time_arr);
 220:Code\UserApp\Protocol/CmdProtocol.c **** 	uart_buf[cnt++] = time_arr[0];
 221:Code\UserApp\Protocol/CmdProtocol.c **** 	uart_buf[cnt++] = time_arr[1];
 222:Code\UserApp\Protocol/CmdProtocol.c **** 	uart_buf[cnt++] = time_arr[2];
 223:Code\UserApp\Protocol/CmdProtocol.c **** 	uart_buf[cnt++] = time_arr[3];
 224:Code\UserApp\Protocol/CmdProtocol.c **** 	
 225:Code\UserApp\Protocol/CmdProtocol.c **** 	TempCrc = MyCrc16Check(uart_buf, pack_len + 0x02);			// CRCæ ¡éªŒ								//
 226:Code\UserApp\Protocol/CmdProtocol.c **** 	uart_buf[cnt++] = (TempCrc >> 8) & 0xFF;
 227:Code\UserApp\Protocol/CmdProtocol.c **** 	uart_buf[cnt++] = TempCrc & 0xFF;
 228:Code\UserApp\Protocol/CmdProtocol.c **** 	
 229:Code\UserApp\Protocol/CmdProtocol.c **** 	GPRS_SendHexDataToServer((uint8_t *)uart_buf, ((uart_buf[2] << 8) + uart_buf[3] + 4));
 230:Code\UserApp\Protocol/CmdProtocol.c **** 	return 0;
 231:Code\UserApp\Protocol/CmdProtocol.c **** }
 232:Code\UserApp\Protocol/CmdProtocol.c **** 
 233:Code\UserApp\Protocol/CmdProtocol.c **** 
 234:Code\UserApp\Protocol/CmdProtocol.c **** //*************************************************************************************************
 235:Code\UserApp\Protocol/CmdProtocol.c **** // Function name	: send_upload_open_info
 236:Code\UserApp\Protocol/CmdProtocol.c **** // Description		: å¼€é—¨ä¿¡æ¯ä¸ŠæŠ¥  0x07
 237:Code\UserApp\Protocol/CmdProtocol.c **** // Parameter		: open_info	: å¼€é—¨ä¿¡æ¯
 238:Code\UserApp\Protocol/CmdProtocol.c **** //					: uidlen	: UIDé•¿åº¦
 239:Code\UserApp\Protocol/CmdProtocol.c **** //					: open_mode	: å¼€é—¨æ–¹å¼
 240:Code\UserApp\Protocol/CmdProtocol.c **** // Return			: none
 241:Code\UserApp\Protocol/CmdProtocol.c **** //-------------------------------------------------------------------------------------------------
 242:Code\UserApp\Protocol/CmdProtocol.c **** // è¯´æ˜				: 
 243:Code\UserApp\Protocol/CmdProtocol.c **** //*************************************************************************************************
 244:Code\UserApp\Protocol/CmdProtocol.c **** uint8_t send_upload_open_info(open_door_t* open_info, uint8_t uidlen, uint8_t open_mode)
 245:Code\UserApp\Protocol/CmdProtocol.c **** {
 246:Code\UserApp\Protocol/CmdProtocol.c **** 	uint8 uart_buf[96];
 247:Code\UserApp\Protocol/CmdProtocol.c **** 	uint8 time_arr[4];
 248:Code\UserApp\Protocol/CmdProtocol.c **** 	uint32_t time_tmp;
 249:Code\UserApp\Protocol/CmdProtocol.c **** 	uint16_t TempCrc = 0;
 250:Code\UserApp\Protocol/CmdProtocol.c **** 	uint16_t cnt = 0;
 251:Code\UserApp\Protocol/CmdProtocol.c **** 	uint16_t i = 0;
 252:Code\UserApp\Protocol/CmdProtocol.c **** 	open_door_t *pstr = open_info;
 253:Code\UserApp\Protocol/CmdProtocol.c ****     uint16_t pack_len = 0x1c;
 254:Code\UserApp\Protocol/CmdProtocol.c **** 		
 255:Code\UserApp\Protocol/CmdProtocol.c **** 	uart_buf[cnt++] = 0xef;
 256:Code\UserApp\Protocol/CmdProtocol.c **** 	uart_buf[cnt++] = 0x3a;
 257:Code\UserApp\Protocol/CmdProtocol.c **** 	uart_buf[cnt++] = (pack_len >> 8) & 0xFF;					// åŒ…é•¿åº¦é«˜å­—èŠ‚							//
ARM GAS  C:\Users\Administrator\AppData\Local\Temp\ccexfbaX.s 			page 6


 258:Code\UserApp\Protocol/CmdProtocol.c **** 	uart_buf[cnt++] = pack_len & 0xFF;							// åŒ…é•¿åº¦ä½å­—èŠ‚							//
 259:Code\UserApp\Protocol/CmdProtocol.c **** 	uart_buf[cnt++] = 0x01;
 260:Code\UserApp\Protocol/CmdProtocol.c **** 	uart_buf[cnt++] = 0x01;
 261:Code\UserApp\Protocol/CmdProtocol.c **** 	uart_buf[cnt++] = 0x07;
 262:Code\UserApp\Protocol/CmdProtocol.c **** 	
 263:Code\UserApp\Protocol/CmdProtocol.c **** 	for(i = 0; i < 6; i++)										// MACåœ°å€								//
 264:Code\UserApp\Protocol/CmdProtocol.c **** 	{
 265:Code\UserApp\Protocol/CmdProtocol.c **** 		uart_buf[cnt++] = Mac_Addr[i];
 266:Code\UserApp\Protocol/CmdProtocol.c **** 	}
 267:Code\UserApp\Protocol/CmdProtocol.c **** 	
 268:Code\UserApp\Protocol/CmdProtocol.c **** 	Endpoint_exchange(pstr->card_uid);							// Aå¡æ•°æ®ä½ç½®è½¬æ¢ @ 18-1-17			//
 269:Code\UserApp\Protocol/CmdProtocol.c **** 	{
 270:Code\UserApp\Protocol/CmdProtocol.c **** 		for(i = 0; i < uidlen; i++)								// Bå¡ä¸å˜								//
 271:Code\UserApp\Protocol/CmdProtocol.c **** 		{
 272:Code\UserApp\Protocol/CmdProtocol.c **** 			uart_buf[cnt++] = pstr->card_uid[i];
 273:Code\UserApp\Protocol/CmdProtocol.c **** 		}
 274:Code\UserApp\Protocol/CmdProtocol.c **** 	}
 275:Code\UserApp\Protocol/CmdProtocol.c **** 	
 276:Code\UserApp\Protocol/CmdProtocol.c **** 	uart_buf[cnt++] = open_mode;								// å¼€é—¨æ–¹å¼								//
 277:Code\UserApp\Protocol/CmdProtocol.c **** 	
 278:Code\UserApp\Protocol/CmdProtocol.c **** 	uart_buf[cnt++] = pstr->open_time[0];						// å¼€é—¨æ—¶é—´								//
 279:Code\UserApp\Protocol/CmdProtocol.c **** 	uart_buf[cnt++] = pstr->open_time[1];
 280:Code\UserApp\Protocol/CmdProtocol.c **** 	uart_buf[cnt++] = pstr->open_time[2];
 281:Code\UserApp\Protocol/CmdProtocol.c **** 	uart_buf[cnt++] = pstr->open_time[3];
 282:Code\UserApp\Protocol/CmdProtocol.c **** 	
 283:Code\UserApp\Protocol/CmdProtocol.c **** 	time_tmp = (uint32)RTC_GetUnixTime();						// æ—¶é—´æˆ³								//
 284:Code\UserApp\Protocol/CmdProtocol.c **** 	LONG2BYTE(time_tmp, time_arr);
 285:Code\UserApp\Protocol/CmdProtocol.c **** 	uart_buf[cnt++] = time_arr[0];
 286:Code\UserApp\Protocol/CmdProtocol.c **** 	uart_buf[cnt++] = time_arr[1];
 287:Code\UserApp\Protocol/CmdProtocol.c **** 	uart_buf[cnt++] = time_arr[2];
 288:Code\UserApp\Protocol/CmdProtocol.c **** 	uart_buf[cnt++] = time_arr[3];
 289:Code\UserApp\Protocol/CmdProtocol.c **** 	
 290:Code\UserApp\Protocol/CmdProtocol.c **** 	TempCrc = MyCrc16Check(uart_buf, pack_len + 0x02);			// CRCæ ¡éªŒ								//
 291:Code\UserApp\Protocol/CmdProtocol.c **** 	uart_buf[cnt++] = (TempCrc >> 8) & 0xFF;
 292:Code\UserApp\Protocol/CmdProtocol.c **** 	uart_buf[cnt++] = TempCrc & 0xFF;
 293:Code\UserApp\Protocol/CmdProtocol.c **** 	
 294:Code\UserApp\Protocol/CmdProtocol.c **** 	cur_time = (uint32)RTC_GetUnixTime();
 295:Code\UserApp\Protocol/CmdProtocol.c **** 	if ((cur_time + 300) > next_heartbeat_time)					// ä¸‹ä¸€æ¬¡å¿ƒè·³åœ¨5minä»¥å†…					//
 296:Code\UserApp\Protocol/CmdProtocol.c **** 	{
 297:Code\UserApp\Protocol/CmdProtocol.c **** 		next_heartbeat_time = cur_time + 300;
 298:Code\UserApp\Protocol/CmdProtocol.c **** 	}
 299:Code\UserApp\Protocol/CmdProtocol.c **** 	
 300:Code\UserApp\Protocol/CmdProtocol.c **** 	if ((cur_time + 60) > next_gprs_upload_time)				// ä¸‹æ¬¡è½®è¯¢ä¸ŠæŠ¥çš„æ—¶é—´å»¶é•¿1min æ‰¾ç©ºé—²
 301:Code\UserApp\Protocol/CmdProtocol.c **** 	{
 302:Code\UserApp\Protocol/CmdProtocol.c **** 		next_gprs_upload_time = cur_time + 60;
 303:Code\UserApp\Protocol/CmdProtocol.c **** 	}
 304:Code\UserApp\Protocol/CmdProtocol.c **** 	#if 0
 305:Code\UserApp\Protocol/CmdProtocol.c **** 	if ((cur_time + 15) > next_allupload_time)					// ä¸‹æ¬¡ç«‹å³å¼€é—¨ä¸ŠæŠ¥çš„æ—¶é—´å»¶é•¿15s æ‰¾ç©
 306:Code\UserApp\Protocol/CmdProtocol.c **** 	{
 307:Code\UserApp\Protocol/CmdProtocol.c **** 		next_allupload_time = cur_time + 15;
 308:Code\UserApp\Protocol/CmdProtocol.c **** 	}
 309:Code\UserApp\Protocol/CmdProtocol.c **** 	#endif
 310:Code\UserApp\Protocol/CmdProtocol.c **** 	GPRS_SendHexDataToServer((uint8_t *)uart_buf, ((uart_buf[2] << 8) + uart_buf[3] + 4));
 311:Code\UserApp\Protocol/CmdProtocol.c **** 	
 312:Code\UserApp\Protocol/CmdProtocol.c **** 	uploadpolling_stop = 0;
 313:Code\UserApp\Protocol/CmdProtocol.c **** 	return 0;
 314:Code\UserApp\Protocol/CmdProtocol.c **** }
ARM GAS  C:\Users\Administrator\AppData\Local\Temp\ccexfbaX.s 			page 7


 315:Code\UserApp\Protocol/CmdProtocol.c **** 
 316:Code\UserApp\Protocol/CmdProtocol.c **** //*************************************************************************************************
 317:Code\UserApp\Protocol/CmdProtocol.c **** // Function name	: send_heartbeat
 318:Code\UserApp\Protocol/CmdProtocol.c **** // Description		: å¿ƒè·³åŒ…  0x08
 319:Code\UserApp\Protocol/CmdProtocol.c **** // Parameter		: lock_state	: é”å…·çŠ¶æ€
 320:Code\UserApp\Protocol/CmdProtocol.c **** // Return			: none
 321:Code\UserApp\Protocol/CmdProtocol.c **** //-------------------------------------------------------------------------------------------------
 322:Code\UserApp\Protocol/CmdProtocol.c **** // è¯´æ˜				: 
 323:Code\UserApp\Protocol/CmdProtocol.c **** //*************************************************************************************************
 324:Code\UserApp\Protocol/CmdProtocol.c **** uint8_t send_heartbeat(uint8_t lock_state)
 325:Code\UserApp\Protocol/CmdProtocol.c **** {
 326:Code\UserApp\Protocol/CmdProtocol.c **** 	uint8 uart_buf[96];
 327:Code\UserApp\Protocol/CmdProtocol.c **** 	uint8 time_arr[4];
 328:Code\UserApp\Protocol/CmdProtocol.c **** 	uint32_t time_tmp;
 329:Code\UserApp\Protocol/CmdProtocol.c **** 	uint16_t TempCrc = 0;
 330:Code\UserApp\Protocol/CmdProtocol.c **** 	uint16_t cnt = 0;
 331:Code\UserApp\Protocol/CmdProtocol.c **** 	uint16_t i = 0;
 332:Code\UserApp\Protocol/CmdProtocol.c **** 	uint16_t pack_len = 0x10;
 333:Code\UserApp\Protocol/CmdProtocol.c **** 
 334:Code\UserApp\Protocol/CmdProtocol.c **** 		
 335:Code\UserApp\Protocol/CmdProtocol.c **** 	uart_buf[cnt++] = 0xef;
 336:Code\UserApp\Protocol/CmdProtocol.c **** 	uart_buf[cnt++] = 0x3a;
 337:Code\UserApp\Protocol/CmdProtocol.c **** 	uart_buf[cnt++] = (pack_len >> 8) & 0xFF;					// åŒ…é•¿åº¦é«˜å­—èŠ‚							//
 338:Code\UserApp\Protocol/CmdProtocol.c **** 	uart_buf[cnt++] = pack_len & 0xFF;							// åŒ…é•¿åº¦ä½å­—èŠ‚							//
 339:Code\UserApp\Protocol/CmdProtocol.c **** 	uart_buf[cnt++] = 0x01;
 340:Code\UserApp\Protocol/CmdProtocol.c **** 	uart_buf[cnt++] = 0x01;
 341:Code\UserApp\Protocol/CmdProtocol.c **** 	uart_buf[cnt++] = 0x08;
 342:Code\UserApp\Protocol/CmdProtocol.c **** 	
 343:Code\UserApp\Protocol/CmdProtocol.c **** 	for(i = 0; i < 6; i++)										// MACåœ°å€								//
 344:Code\UserApp\Protocol/CmdProtocol.c **** 	{
 345:Code\UserApp\Protocol/CmdProtocol.c **** 		uart_buf[cnt++] = Mac_Addr[i];
 346:Code\UserApp\Protocol/CmdProtocol.c **** 	}
 347:Code\UserApp\Protocol/CmdProtocol.c **** 	
 348:Code\UserApp\Protocol/CmdProtocol.c **** 	uart_buf[cnt++] = lock_state;								// é”å…·çŠ¶æ€								//
 349:Code\UserApp\Protocol/CmdProtocol.c **** 	#if DEF_RSSI
 350:Code\UserApp\Protocol/CmdProtocol.c **** 	Rssi = GPRS_QueryRssi();
 351:Code\UserApp\Protocol/CmdProtocol.c **** 	uart_buf[cnt++] = Rssi;										// GPRSæ¨¡å—ä¿¡å·å¼ºåº¦	@10.31.9.00			//
 352:Code\UserApp\Protocol/CmdProtocol.c **** 	#endif
 353:Code\UserApp\Protocol/CmdProtocol.c **** 	
 354:Code\UserApp\Protocol/CmdProtocol.c **** 	time_tmp = (uint32)RTC_GetUnixTime();						// æ—¶é—´æˆ³								//
 355:Code\UserApp\Protocol/CmdProtocol.c **** 	LONG2BYTE(time_tmp, time_arr);
 356:Code\UserApp\Protocol/CmdProtocol.c **** 	uart_buf[cnt++] = time_arr[0];
 357:Code\UserApp\Protocol/CmdProtocol.c **** 	uart_buf[cnt++] = time_arr[1];
 358:Code\UserApp\Protocol/CmdProtocol.c **** 	uart_buf[cnt++] = time_arr[2];
 359:Code\UserApp\Protocol/CmdProtocol.c **** 	uart_buf[cnt++] = time_arr[3];
 360:Code\UserApp\Protocol/CmdProtocol.c **** 	
 361:Code\UserApp\Protocol/CmdProtocol.c **** 	TempCrc = MyCrc16Check(uart_buf, pack_len + 0x02);			// CRCæ ¡éªŒ								//
 362:Code\UserApp\Protocol/CmdProtocol.c **** 	uart_buf[cnt++] = (TempCrc >> 8) & 0xFF;
 363:Code\UserApp\Protocol/CmdProtocol.c **** 	uart_buf[cnt++] = TempCrc & 0xFF;
 364:Code\UserApp\Protocol/CmdProtocol.c **** 	//DBG_SOFT_PutStr("\nsend_heartbeat:\n");
 365:Code\UserApp\Protocol/CmdProtocol.c **** 	//DBG_SOFT_PrintfHex(uart_buf,32,16);
 366:Code\UserApp\Protocol/CmdProtocol.c **** 	GPRS_SendHexDataToServer((uint8_t *)uart_buf, ((uart_buf[2] << 8) + uart_buf[3] + 4));
 367:Code\UserApp\Protocol/CmdProtocol.c **** 	
 368:Code\UserApp\Protocol/CmdProtocol.c ****     return 0;
 369:Code\UserApp\Protocol/CmdProtocol.c **** }
 370:Code\UserApp\Protocol/CmdProtocol.c **** 
 371:Code\UserApp\Protocol/CmdProtocol.c **** //*************************************************************************************************
ARM GAS  C:\Users\Administrator\AppData\Local\Temp\ccexfbaX.s 			page 8


 372:Code\UserApp\Protocol/CmdProtocol.c **** // Function name	: send_timeadjust
 373:Code\UserApp\Protocol/CmdProtocol.c **** // Description		: æ—¶é—´æ ¡å‡†  0x0A
 374:Code\UserApp\Protocol/CmdProtocol.c **** // Parameter		: none
 375:Code\UserApp\Protocol/CmdProtocol.c **** // Return			: none
 376:Code\UserApp\Protocol/CmdProtocol.c **** //-------------------------------------------------------------------------------------------------
 377:Code\UserApp\Protocol/CmdProtocol.c **** // è¯´æ˜				: 
 378:Code\UserApp\Protocol/CmdProtocol.c **** //*************************************************************************************************
 379:Code\UserApp\Protocol/CmdProtocol.c **** uint8_t send_time_adjust(void)
 380:Code\UserApp\Protocol/CmdProtocol.c **** {
 381:Code\UserApp\Protocol/CmdProtocol.c **** 	uint8 uart_buf[96];
 382:Code\UserApp\Protocol/CmdProtocol.c **** 	uint16_t TempCrc = 0;
 383:Code\UserApp\Protocol/CmdProtocol.c **** 	uint16_t cnt = 0;
 384:Code\UserApp\Protocol/CmdProtocol.c **** 	uint16_t i = 0;
 385:Code\UserApp\Protocol/CmdProtocol.c **** 	uint16_t pack_len = 0x0D;
 386:Code\UserApp\Protocol/CmdProtocol.c **** 	
 387:Code\UserApp\Protocol/CmdProtocol.c **** 	uart_buf[cnt++] = 0xef;
 388:Code\UserApp\Protocol/CmdProtocol.c **** 	uart_buf[cnt++] = 0x3a;
 389:Code\UserApp\Protocol/CmdProtocol.c **** 	uart_buf[cnt++] = (pack_len >> 8) & 0xFF;					// åŒ…é•¿åº¦é«˜å­—èŠ‚							//
 390:Code\UserApp\Protocol/CmdProtocol.c **** 	uart_buf[cnt++] = pack_len & 0xFF;							// åŒ…é•¿åº¦ä½å­—èŠ‚							//
 391:Code\UserApp\Protocol/CmdProtocol.c **** 	uart_buf[cnt++] = 0x01;
 392:Code\UserApp\Protocol/CmdProtocol.c **** 	uart_buf[cnt++] = 0x01;
 393:Code\UserApp\Protocol/CmdProtocol.c **** 	uart_buf[cnt++] = 0x0A;
 394:Code\UserApp\Protocol/CmdProtocol.c **** 	
 395:Code\UserApp\Protocol/CmdProtocol.c **** 	for(i = 0; i < 6; i++)										// MACåœ°å€								//
 396:Code\UserApp\Protocol/CmdProtocol.c **** 	{
 397:Code\UserApp\Protocol/CmdProtocol.c **** 		uart_buf[cnt++] = Mac_Addr[i];
 398:Code\UserApp\Protocol/CmdProtocol.c **** 	}
 399:Code\UserApp\Protocol/CmdProtocol.c **** 	
 400:Code\UserApp\Protocol/CmdProtocol.c **** 	uart_buf[cnt++] = 0xff;										// æ—¶é—´æˆ³								//
 401:Code\UserApp\Protocol/CmdProtocol.c **** 	uart_buf[cnt++] = 0xff;
 402:Code\UserApp\Protocol/CmdProtocol.c **** 	uart_buf[cnt++] = 0xff;
 403:Code\UserApp\Protocol/CmdProtocol.c **** 	uart_buf[cnt++] = 0xff;
 404:Code\UserApp\Protocol/CmdProtocol.c **** 	
 405:Code\UserApp\Protocol/CmdProtocol.c **** 	TempCrc = MyCrc16Check(uart_buf, pack_len + 0x02);			// CRCæ ¡éªŒ								//
 406:Code\UserApp\Protocol/CmdProtocol.c **** 	uart_buf[cnt++] = (TempCrc >> 8) & 0xFF;
 407:Code\UserApp\Protocol/CmdProtocol.c **** 	uart_buf[cnt++] = TempCrc & 0xFF;
 408:Code\UserApp\Protocol/CmdProtocol.c **** 	
 409:Code\UserApp\Protocol/CmdProtocol.c **** 	cur_time = (uint32)RTC_GetUnixTime();
 410:Code\UserApp\Protocol/CmdProtocol.c **** 	if ((cur_time + 300) > next_heartbeat_time)					// ä¸‹ä¸€æ¬¡å¿ƒè·³åœ¨5minä»¥å†…					//
 411:Code\UserApp\Protocol/CmdProtocol.c **** 	{
 412:Code\UserApp\Protocol/CmdProtocol.c **** 		next_heartbeat_time = cur_time + 300;
 413:Code\UserApp\Protocol/CmdProtocol.c **** 	}
 414:Code\UserApp\Protocol/CmdProtocol.c **** 	GPRS_SendHexDataToServer((uint8_t *)uart_buf, ((uart_buf[2] << 8) + uart_buf[3] + 4));
 415:Code\UserApp\Protocol/CmdProtocol.c **** 	return 0;
 416:Code\UserApp\Protocol/CmdProtocol.c **** }
 417:Code\UserApp\Protocol/CmdProtocol.c **** 
 418:Code\UserApp\Protocol/CmdProtocol.c **** //*************************************************************************************************
 419:Code\UserApp\Protocol/CmdProtocol.c **** // Function name	: send_alarminfo
 420:Code\UserApp\Protocol/CmdProtocol.c **** // Description		: æŠ¥è­¦ä¿¡æ¯ä¸Šä¼   0x0B
 421:Code\UserApp\Protocol/CmdProtocol.c **** // Parameter		: none
 422:Code\UserApp\Protocol/CmdProtocol.c **** // Return			: none
 423:Code\UserApp\Protocol/CmdProtocol.c **** //-------------------------------------------------------------------------------------------------
 424:Code\UserApp\Protocol/CmdProtocol.c **** // è¯´æ˜				: 
 425:Code\UserApp\Protocol/CmdProtocol.c **** //*************************************************************************************************
 426:Code\UserApp\Protocol/CmdProtocol.c **** uint8_t send_alarm_info(uint8_t alarm_mode)
 427:Code\UserApp\Protocol/CmdProtocol.c **** {
 428:Code\UserApp\Protocol/CmdProtocol.c **** 	uint8 uart_buf[96];
ARM GAS  C:\Users\Administrator\AppData\Local\Temp\ccexfbaX.s 			page 9


 429:Code\UserApp\Protocol/CmdProtocol.c **** 	uint8 time_arr[4];
 430:Code\UserApp\Protocol/CmdProtocol.c **** 	uint32_t time_tmp;
 431:Code\UserApp\Protocol/CmdProtocol.c **** 	uint16_t TempCrc = 0;
 432:Code\UserApp\Protocol/CmdProtocol.c **** 	uint16_t cnt = 0;
 433:Code\UserApp\Protocol/CmdProtocol.c **** 	uint16_t i = 0;
 434:Code\UserApp\Protocol/CmdProtocol.c **** 	uint16_t pack_len = 0x10;
 435:Code\UserApp\Protocol/CmdProtocol.c **** 	
 436:Code\UserApp\Protocol/CmdProtocol.c **** 	uart_buf[cnt++] = 0xef;
 437:Code\UserApp\Protocol/CmdProtocol.c **** 	uart_buf[cnt++] = 0x3a;
 438:Code\UserApp\Protocol/CmdProtocol.c **** 	uart_buf[cnt++] = (pack_len >> 8) & 0xFF;					// åŒ…é•¿åº¦é«˜å­—èŠ‚							//
 439:Code\UserApp\Protocol/CmdProtocol.c **** 	uart_buf[cnt++] = pack_len & 0xFF;							// åŒ…é•¿åº¦ä½å­—èŠ‚							//
 440:Code\UserApp\Protocol/CmdProtocol.c **** 	uart_buf[cnt++] = 0x01;
 441:Code\UserApp\Protocol/CmdProtocol.c **** 	uart_buf[cnt++] = 0x01;
 442:Code\UserApp\Protocol/CmdProtocol.c **** 	uart_buf[cnt++] = 0x0B;
 443:Code\UserApp\Protocol/CmdProtocol.c **** 	
 444:Code\UserApp\Protocol/CmdProtocol.c **** 	for(i = 0; i < 6; i++)										// MACåœ°å€								//
 445:Code\UserApp\Protocol/CmdProtocol.c **** 	{
 446:Code\UserApp\Protocol/CmdProtocol.c **** 		uart_buf[cnt++] = Mac_Addr[i];
 447:Code\UserApp\Protocol/CmdProtocol.c **** 	}
 448:Code\UserApp\Protocol/CmdProtocol.c **** 	
 449:Code\UserApp\Protocol/CmdProtocol.c **** 	uart_buf[cnt++] = alarm_mode;								// æŠ¥è­¦ç±»å‹								//
 450:Code\UserApp\Protocol/CmdProtocol.c **** 	
 451:Code\UserApp\Protocol/CmdProtocol.c **** 	time_tmp = (uint32)RTC_GetUnixTime();						// æ—¶é—´æˆ³								//
 452:Code\UserApp\Protocol/CmdProtocol.c **** 	LONG2BYTE(time_tmp, time_arr);
 453:Code\UserApp\Protocol/CmdProtocol.c **** 	uart_buf[cnt++] = time_arr[0];
 454:Code\UserApp\Protocol/CmdProtocol.c **** 	uart_buf[cnt++] = time_arr[1];
 455:Code\UserApp\Protocol/CmdProtocol.c **** 	uart_buf[cnt++] = time_arr[2];
 456:Code\UserApp\Protocol/CmdProtocol.c **** 	uart_buf[cnt++] = time_arr[3];
 457:Code\UserApp\Protocol/CmdProtocol.c **** 	
 458:Code\UserApp\Protocol/CmdProtocol.c **** 	TempCrc = MyCrc16Check(uart_buf, pack_len + 0x02);			// CRCæ ¡éªŒ								//
 459:Code\UserApp\Protocol/CmdProtocol.c **** 	uart_buf[cnt++] = (TempCrc >> 8) & 0xFF;
 460:Code\UserApp\Protocol/CmdProtocol.c **** 	uart_buf[cnt++] = TempCrc & 0xFF;
 461:Code\UserApp\Protocol/CmdProtocol.c **** 	
 462:Code\UserApp\Protocol/CmdProtocol.c **** 	cur_time = (uint32)RTC_GetUnixTime();
 463:Code\UserApp\Protocol/CmdProtocol.c **** 	if ((cur_time + 300) > next_heartbeat_time)					// ä¸‹ä¸€æ¬¡å¿ƒè·³åœ¨5minä»¥å†…					//
 464:Code\UserApp\Protocol/CmdProtocol.c **** 	{
 465:Code\UserApp\Protocol/CmdProtocol.c **** 		next_heartbeat_time = cur_time + 300;
 466:Code\UserApp\Protocol/CmdProtocol.c **** 	}
 467:Code\UserApp\Protocol/CmdProtocol.c **** 	GPRS_SendHexDataToServer((uint8_t *)uart_buf, ((uart_buf[2] << 8) + uart_buf[3] + 4));
 468:Code\UserApp\Protocol/CmdProtocol.c **** 	return 0;
 469:Code\UserApp\Protocol/CmdProtocol.c **** }
 470:Code\UserApp\Protocol/CmdProtocol.c **** 
 471:Code\UserApp\Protocol/CmdProtocol.c **** 
 472:Code\UserApp\Protocol/CmdProtocol.c **** //*************************************************************************************************
 473:Code\UserApp\Protocol/CmdProtocol.c **** // Function name	: send_update_req(uint16 page)
 474:Code\UserApp\Protocol/CmdProtocol.c **** // Description		: è¯·æ±‚ä¸‹å‘å‡çº§åŒ…  0x0F
 475:Code\UserApp\Protocol/CmdProtocol.c **** // Parameter		: none
 476:Code\UserApp\Protocol/CmdProtocol.c **** // Return			: none
 477:Code\UserApp\Protocol/CmdProtocol.c **** //-------------------------------------------------------------------------------------------------
 478:Code\UserApp\Protocol/CmdProtocol.c **** // è¯´æ˜				: 
 479:Code\UserApp\Protocol/CmdProtocol.c **** //*************************************************************************************************
 480:Code\UserApp\Protocol/CmdProtocol.c **** uint8_t send_update_req(uint16 page)
 481:Code\UserApp\Protocol/CmdProtocol.c **** {
 482:Code\UserApp\Protocol/CmdProtocol.c **** 	uint8 uart_buf[96];
 483:Code\UserApp\Protocol/CmdProtocol.c **** 	uint8 time_arr[4];
 484:Code\UserApp\Protocol/CmdProtocol.c **** 	uint32_t time_tmp;
 485:Code\UserApp\Protocol/CmdProtocol.c **** 	uint16_t TempCrc = 0;
ARM GAS  C:\Users\Administrator\AppData\Local\Temp\ccexfbaX.s 			page 10


 486:Code\UserApp\Protocol/CmdProtocol.c **** 	uint16_t cnt = 0;
 487:Code\UserApp\Protocol/CmdProtocol.c **** 	uint16_t i = 0;
 488:Code\UserApp\Protocol/CmdProtocol.c **** 	uint16_t pack_len = 0x13;
 489:Code\UserApp\Protocol/CmdProtocol.c **** 	
 490:Code\UserApp\Protocol/CmdProtocol.c **** 	uart_buf[cnt++] = 0xef;
 491:Code\UserApp\Protocol/CmdProtocol.c **** 	uart_buf[cnt++] = 0x3a;
 492:Code\UserApp\Protocol/CmdProtocol.c **** 	uart_buf[cnt++] = (pack_len >> 8) & 0xFF;					// åŒ…é•¿åº¦é«˜å­—èŠ‚							//
 493:Code\UserApp\Protocol/CmdProtocol.c **** 	uart_buf[cnt++] = pack_len & 0xFF;							// åŒ…é•¿åº¦ä½å­—èŠ‚							//
 494:Code\UserApp\Protocol/CmdProtocol.c **** 	uart_buf[cnt++] = 0x01;
 495:Code\UserApp\Protocol/CmdProtocol.c **** 	uart_buf[cnt++] = 0x01;
 496:Code\UserApp\Protocol/CmdProtocol.c **** 	uart_buf[cnt++] = 0x0F;
 497:Code\UserApp\Protocol/CmdProtocol.c **** 	
 498:Code\UserApp\Protocol/CmdProtocol.c **** 	for(i = 0; i < 6; i++)										// MACåœ°å€								//
 499:Code\UserApp\Protocol/CmdProtocol.c **** 	{
 500:Code\UserApp\Protocol/CmdProtocol.c **** 		uart_buf[cnt++] = Mac_Addr[i];
 501:Code\UserApp\Protocol/CmdProtocol.c **** 	}
 502:Code\UserApp\Protocol/CmdProtocol.c **** 	
 503:Code\UserApp\Protocol/CmdProtocol.c **** 	uart_buf[cnt++] = (page >> 8) & 0xFF;						// ç»„å·
 504:Code\UserApp\Protocol/CmdProtocol.c **** 	uart_buf[cnt++] = page & 0xFF;	
 505:Code\UserApp\Protocol/CmdProtocol.c **** 	
 506:Code\UserApp\Protocol/CmdProtocol.c **** 	uart_buf[cnt++] = (update_version>> 8) & 0xFF;				// å‡çº§ç‰ˆæœ¬
 507:Code\UserApp\Protocol/CmdProtocol.c **** 	uart_buf[cnt++] = update_version & 0xFF;								
 508:Code\UserApp\Protocol/CmdProtocol.c **** 		
 509:Code\UserApp\Protocol/CmdProtocol.c **** 	time_tmp = (uint32)RTC_GetUnixTime();						// æ—¶é—´æˆ³								//
 510:Code\UserApp\Protocol/CmdProtocol.c **** 	LONG2BYTE(time_tmp, time_arr);
 511:Code\UserApp\Protocol/CmdProtocol.c **** 	uart_buf[cnt++] = time_arr[0];
 512:Code\UserApp\Protocol/CmdProtocol.c **** 	uart_buf[cnt++] = time_arr[1];
 513:Code\UserApp\Protocol/CmdProtocol.c **** 	uart_buf[cnt++] = time_arr[2];
 514:Code\UserApp\Protocol/CmdProtocol.c **** 	uart_buf[cnt++] = time_arr[3];
 515:Code\UserApp\Protocol/CmdProtocol.c **** 
 516:Code\UserApp\Protocol/CmdProtocol.c **** 	TempCrc = MyCrc16Check(uart_buf, pack_len + 0x02);			// CRCæ ¡éªŒ								//
 517:Code\UserApp\Protocol/CmdProtocol.c **** 	uart_buf[cnt++] = (TempCrc >> 8) & 0xFF;
 518:Code\UserApp\Protocol/CmdProtocol.c **** 	uart_buf[cnt++] = TempCrc & 0xFF;
 519:Code\UserApp\Protocol/CmdProtocol.c **** 	GPRS_SendHexDataToServer((uint8_t *)uart_buf, ((uart_buf[2] << 8) + uart_buf[3] + 4));
 520:Code\UserApp\Protocol/CmdProtocol.c **** 	
 521:Code\UserApp\Protocol/CmdProtocol.c **** 	return 0;
 522:Code\UserApp\Protocol/CmdProtocol.c **** }
 523:Code\UserApp\Protocol/CmdProtocol.c **** 
 524:Code\UserApp\Protocol/CmdProtocol.c **** //*************************************************************************************************
 525:Code\UserApp\Protocol/CmdProtocol.c **** // Function name	: Protocol_SendAckPacket
 526:Code\UserApp\Protocol/CmdProtocol.c **** // Description		: å‘APP(è“ç‰™)å‘é€æ ‡å‡†åº”ç­”åŒ…
 527:Code\UserApp\Protocol/CmdProtocol.c **** // Parameter		: uint8 CommChanle		ä¿¡é“
 528:Code\UserApp\Protocol/CmdProtocol.c **** //                  : uint8 cPackType       0-å‘é€åŒ…ï¼Œ1-åº”ç­”åŒ…
 529:Code\UserApp\Protocol/CmdProtocol.c **** //                  : uint8 cCmd           	å‘½ä»¤ç 
 530:Code\UserApp\Protocol/CmdProtocol.c **** //				    : uint8 *UserData		å¾…å‘é€çš„ç”¨æˆ·æ•°æ®(å†…å®¹)
 531:Code\UserApp\Protocol/CmdProtocol.c **** //				    : uint16 UserDataLen	å¾…å‘é€çš„ç”¨æˆ·æ•°æ®é•¿åº¦ï¼ˆä¸åŒ…å«åº”ç­”ç ï¼‰
 532:Code\UserApp\Protocol/CmdProtocol.c **** // Return			: none
 533:Code\UserApp\Protocol/CmdProtocol.c **** //-------------------------------------------------------------------------------------------------
 534:Code\UserApp\Protocol/CmdProtocol.c **** // Info				: 
 535:Code\UserApp\Protocol/CmdProtocol.c **** //*************************************************************************************************
 536:Code\UserApp\Protocol/CmdProtocol.c **** void Protocol_SendAckPacket(uint8 CommChanle, uint8 cPackType, uint8 cCmd, uint8 *UserData, uint16 
 537:Code\UserApp\Protocol/CmdProtocol.c **** {
 538:Code\UserApp\Protocol/CmdProtocol.c **** 	uint8 AppResponseBuf[256] = {0};
 539:Code\UserApp\Protocol/CmdProtocol.c **** 	uint8 i;
 540:Code\UserApp\Protocol/CmdProtocol.c **** 	uint16 NoPtr;
 541:Code\UserApp\Protocol/CmdProtocol.c **** 	uint16 TempCrc;
 542:Code\UserApp\Protocol/CmdProtocol.c **** 	uint16 nPacketLen;
ARM GAS  C:\Users\Administrator\AppData\Local\Temp\ccexfbaX.s 			page 11


 543:Code\UserApp\Protocol/CmdProtocol.c **** 	
 544:Code\UserApp\Protocol/CmdProtocol.c **** 	NoPtr = 0;
 545:Code\UserApp\Protocol/CmdProtocol.c **** 	nPacketLen = UserDataLen + 5;
 546:Code\UserApp\Protocol/CmdProtocol.c **** 	memset(AppResponseBuf, 0, sizeof(AppResponseBuf));
 547:Code\UserApp\Protocol/CmdProtocol.c **** 	AppResponseBuf[NoPtr++] = HEAD_BYTE1;
 548:Code\UserApp\Protocol/CmdProtocol.c **** 	AppResponseBuf[NoPtr++] = HEAD_BYTE2;
 549:Code\UserApp\Protocol/CmdProtocol.c **** 	AppResponseBuf[NoPtr++] = (nPacketLen >> 8) & 0xff;
 550:Code\UserApp\Protocol/CmdProtocol.c **** 	AppResponseBuf[NoPtr++] = nPacketLen & 0xff;
 551:Code\UserApp\Protocol/CmdProtocol.c **** 	AppResponseBuf[NoPtr++] = CommChanle | (cPackType << 4);
 552:Code\UserApp\Protocol/CmdProtocol.c **** 	AppResponseBuf[NoPtr++] = PROTOCOL_VER; 
 553:Code\UserApp\Protocol/CmdProtocol.c **** 	AppResponseBuf[NoPtr++] = cCmd;
 554:Code\UserApp\Protocol/CmdProtocol.c **** 
 555:Code\UserApp\Protocol/CmdProtocol.c **** 	#ifdef	AES_ENCRY
 556:Code\UserApp\Protocol/CmdProtocol.c **** 
 557:Code\UserApp\Protocol/CmdProtocol.c **** 	#else
 558:Code\UserApp\Protocol/CmdProtocol.c **** 
 559:Code\UserApp\Protocol/CmdProtocol.c **** 	#endif
 560:Code\UserApp\Protocol/CmdProtocol.c **** 
 561:Code\UserApp\Protocol/CmdProtocol.c **** 	if (UserDataLen)
 562:Code\UserApp\Protocol/CmdProtocol.c **** 	{
 563:Code\UserApp\Protocol/CmdProtocol.c **** 		for (i = 0; i < UserDataLen; i++)
 564:Code\UserApp\Protocol/CmdProtocol.c **** 		{
 565:Code\UserApp\Protocol/CmdProtocol.c **** 			AppResponseBuf[NoPtr++] = *(UserData + i);
 566:Code\UserApp\Protocol/CmdProtocol.c **** 		}
 567:Code\UserApp\Protocol/CmdProtocol.c **** 	}
 568:Code\UserApp\Protocol/CmdProtocol.c **** 	
 569:Code\UserApp\Protocol/CmdProtocol.c **** 	TempCrc = MyCrc16Check(AppResponseBuf, NoPtr);
 570:Code\UserApp\Protocol/CmdProtocol.c **** 
 571:Code\UserApp\Protocol/CmdProtocol.c **** 	AppResponseBuf[NoPtr++] = (TempCrc >> 8) & 0xFF;
 572:Code\UserApp\Protocol/CmdProtocol.c **** 	AppResponseBuf[NoPtr++] = TempCrc & 0xFF;
 573:Code\UserApp\Protocol/CmdProtocol.c **** 	
 574:Code\UserApp\Protocol/CmdProtocol.c **** 	DBG_SOFT_PutStr("\r\n AppResponseBuf:\r\n");
 575:Code\UserApp\Protocol/CmdProtocol.c **** 	DBG_SOFT_PrintfHex(AppResponseBuf,64,16);
 576:Code\UserApp\Protocol/CmdProtocol.c **** 	
 577:Code\UserApp\Protocol/CmdProtocol.c **** 	if (CommChanle == 0x02)                          			// è“ç‰™é€šé“								//
 578:Code\UserApp\Protocol/CmdProtocol.c **** 	{
 579:Code\UserApp\Protocol/CmdProtocol.c **** 		BleSend(AppResponseBuf, NoPtr);
 580:Code\UserApp\Protocol/CmdProtocol.c ****         #if 0
 581:Code\UserApp\Protocol/CmdProtocol.c **** 		for (i = 0; i < 100; i++)
 582:Code\UserApp\Protocol/CmdProtocol.c ****         {
 583:Code\UserApp\Protocol/CmdProtocol.c ****             ble_heartbeat();
 584:Code\UserApp\Protocol/CmdProtocol.c ****         }
 585:Code\UserApp\Protocol/CmdProtocol.c **** 		#endif
 586:Code\UserApp\Protocol/CmdProtocol.c **** 	}
 587:Code\UserApp\Protocol/CmdProtocol.c **** 	else if(CommChanle == 0x01)                     			// GPRSé€šé“								//
 588:Code\UserApp\Protocol/CmdProtocol.c **** 	{
 589:Code\UserApp\Protocol/CmdProtocol.c **** 		cur_time = (uint32)RTC_GetUnixTime();
 590:Code\UserApp\Protocol/CmdProtocol.c **** 		if ((cur_time + 300) > next_heartbeat_time)				// ä¸‹ä¸€æ¬¡å¿ƒè·³åœ¨5minä»¥å†…					//
 591:Code\UserApp\Protocol/CmdProtocol.c **** 		{
 592:Code\UserApp\Protocol/CmdProtocol.c **** 			next_heartbeat_time = cur_time + 300;
 593:Code\UserApp\Protocol/CmdProtocol.c **** 		}
 594:Code\UserApp\Protocol/CmdProtocol.c **** 	    GPRS_SendHexDataToServer(AppResponseBuf, NoPtr);
 595:Code\UserApp\Protocol/CmdProtocol.c **** 	}
 596:Code\UserApp\Protocol/CmdProtocol.c **** }
 597:Code\UserApp\Protocol/CmdProtocol.c **** 
 598:Code\UserApp\Protocol/CmdProtocol.c **** //===ã€ç»“æŸã€‘===================== ä¸šåŠ¡å±‚ä¸»åŠ¨ä¸ŠæŠ¥æœåŠ¡å™¨æŒ‡ä»¤ =======================
 599:Code\UserApp\Protocol/CmdProtocol.c **** 
ARM GAS  C:\Users\Administrator\AppData\Local\Temp\ccexfbaX.s 			page 12


 600:Code\UserApp\Protocol/CmdProtocol.c **** 
 601:Code\UserApp\Protocol/CmdProtocol.c **** 
 602:Code\UserApp\Protocol/CmdProtocol.c **** 
 603:Code\UserApp\Protocol/CmdProtocol.c **** //===ã€å¼€å§‹ã€‘=================== ä¸šåŠ¡å±‚å¤„ç†æ¥æ”¶åˆ°çš„æœåŠ¡å™¨/è“ç‰™æŒ‡ä»¤ ============
 604:Code\UserApp\Protocol/CmdProtocol.c **** 
 605:Code\UserApp\Protocol/CmdProtocol.c **** //*************************************************************************************************
 606:Code\UserApp\Protocol/CmdProtocol.c **** // Function name	: Protocol_CmdGetPreSever
 607:Code\UserApp\Protocol/CmdProtocol.c **** // Description		: ä»ä¸­å¿ƒæœåŠ¡å™¨è·å–å…·ä½“è¦é“¾æ¥çš„å‰ç½®æœåŠ¡å™¨åŸŸåæˆ–IP
 608:Code\UserApp\Protocol/CmdProtocol.c **** // Parameter		: uint8* RecBuf	å‘½ä»¤åŒ…æŒ‡é’ˆ
 609:Code\UserApp\Protocol/CmdProtocol.c **** // Return			: none
 610:Code\UserApp\Protocol/CmdProtocol.c **** //-------------------------------------------------------------------------------------------------
 611:Code\UserApp\Protocol/CmdProtocol.c **** // Info				: 0x01å‘½ä»¤ï¼ŒæœåŠ¡å™¨åº”ç­”
 612:Code\UserApp\Protocol/CmdProtocol.c **** //*************************************************************************************************
 613:Code\UserApp\Protocol/CmdProtocol.c **** static void Protocol_CmdGetPreSever(uint8* RecBuf)
 614:Code\UserApp\Protocol/CmdProtocol.c **** {
  29              		.loc 1 614 0
  30              		.cfi_startproc
  31              		@ args = 0, pretend = 0, frame = 8
  32              		@ frame_needed = 0, uses_anonymous_args = 0
  33              	.LVL0:
  34 0000 F7B5     		push	{r0, r1, r2, r4, r5, r6, r7, lr}
  35              		.cfi_def_cfa_offset 32
  36              		.cfi_offset 0, -32
  37              		.cfi_offset 1, -28
  38              		.cfi_offset 2, -24
  39              		.cfi_offset 4, -20
  40              		.cfi_offset 5, -16
  41              		.cfi_offset 6, -12
  42              		.cfi_offset 7, -8
  43              		.cfi_offset 14, -4
 615:Code\UserApp\Protocol/CmdProtocol.c **** 	uint8 *pstr = RecBuf;
 616:Code\UserApp\Protocol/CmdProtocol.c **** 	uint8 port_tmp[2];
 617:Code\UserApp\Protocol/CmdProtocol.c **** 	uint8 port_str[6];
 618:Code\UserApp\Protocol/CmdProtocol.c **** 	uint16 port_hex;
 619:Code\UserApp\Protocol/CmdProtocol.c **** 
 620:Code\UserApp\Protocol/CmdProtocol.c **** 	// è·å–å‰ç½®æœåŠ¡å™¨åœ°å€å’Œç«¯å£çš„åº”ç­”ä¿¡æ¯																//
 621:Code\UserApp\Protocol/CmdProtocol.c **** 	pstr += 13;
 622:Code\UserApp\Protocol/CmdProtocol.c **** 	memcpy(domain, pstr, 200);									// 200 å­—èŠ‚IPæˆ–åŸŸå						//
  44              		.loc 1 622 0
  45 0002 0100     		movs	r1, r0
 614:Code\UserApp\Protocol/CmdProtocol.c **** 	uint8 *pstr = RecBuf;
  46              		.loc 1 614 0
  47 0004 0500     		movs	r5, r0
  48              		.loc 1 622 0
  49 0006 414F     		ldr	r7, .L5
  50 0008 0D31     		adds	r1, r1, #13
  51              	.LVL1:
  52 000a C822     		movs	r2, #200
  53 000c 3800     		movs	r0, r7
  54              	.LVL2:
  55 000e FFF7FEFF 		bl	memcpy
  56              	.LVL3:
 623:Code\UserApp\Protocol/CmdProtocol.c **** 	pstr += 200;
 624:Code\UserApp\Protocol/CmdProtocol.c **** 	memcpy(port_tmp, pstr, 2);									// ç«¯å£å·								//
  57              		.loc 1 624 0
  58 0012 2B00     		movs	r3, r5
  59 0014 D533     		adds	r3, r3, #213
ARM GAS  C:\Users\Administrator\AppData\Local\Temp\ccexfbaX.s 			page 13


  60              	.LVL4:
 625:Code\UserApp\Protocol/CmdProtocol.c **** 
 626:Code\UserApp\Protocol/CmdProtocol.c **** 	//port_hex = BYTE2WORD(port_tmp[0], port_tmp[1]);
 627:Code\UserApp\Protocol/CmdProtocol.c **** 	#if 0
 628:Code\UserApp\Protocol/CmdProtocol.c **** 	port_str[0]= port_tmp[0]/0x10 + '0';
 629:Code\UserApp\Protocol/CmdProtocol.c **** 	port_str[1]= port_tmp[0]%0x10 + '0';
 630:Code\UserApp\Protocol/CmdProtocol.c **** 	port_str[2]= port_tmp[1]/0x10 + '0';
 631:Code\UserApp\Protocol/CmdProtocol.c **** 	port_str[3]= port_tmp[1]%0x10 + '0';
 632:Code\UserApp\Protocol/CmdProtocol.c **** 	#endif
 633:Code\UserApp\Protocol/CmdProtocol.c **** 
 634:Code\UserApp\Protocol/CmdProtocol.c **** 	port_hex = (port_tmp[0]<<8) + port_tmp[1];
  61              		.loc 1 634 0
  62 0016 1C78     		ldrb	r4, [r3]
 624:Code\UserApp\Protocol/CmdProtocol.c **** 
  63              		.loc 1 624 0
  64 0018 D635     		adds	r5, r5, #214
  65              	.LVL5:
  66              		.loc 1 634 0
  67 001a 2B78     		ldrb	r3, [r5]
  68              	.LVL6:
  69 001c 2402     		lsls	r4, r4, #8
  70 001e 1C19     		adds	r4, r3, r4
 635:Code\UserApp\Protocol/CmdProtocol.c **** 	if (port_hex < 10000)
  71              		.loc 1 635 0
  72 0020 3B4B     		ldr	r3, .L5+4
 634:Code\UserApp\Protocol/CmdProtocol.c **** 	if (port_hex < 10000)
  73              		.loc 1 634 0
  74 0022 A4B2     		uxth	r4, r4
  75              	.LVL7:
  76              		.loc 1 635 0
  77 0024 9C42     		cmp	r4, r3
  78 0026 25D8     		bhi	.L2
 636:Code\UserApp\Protocol/CmdProtocol.c **** 	{
 637:Code\UserApp\Protocol/CmdProtocol.c **** 		port_str[0] = port_hex/1000 + '0';
  79              		.loc 1 637 0
  80 0028 FA21     		movs	r1, #250
  81 002a 2000     		movs	r0, r4
  82 002c 8900     		lsls	r1, r1, #2
  83 002e FFF7FEFF 		bl	__aeabi_uidiv
  84              	.LVL8:
 638:Code\UserApp\Protocol/CmdProtocol.c **** 		port_str[1] = port_hex%1000/100 + '0';	
  85              		.loc 1 638 0
  86 0032 FA21     		movs	r1, #250
 637:Code\UserApp\Protocol/CmdProtocol.c **** 		port_str[1] = port_hex%1000/100 + '0';	
  87              		.loc 1 637 0
  88 0034 3030     		adds	r0, r0, #48
  89 0036 C6B2     		uxtb	r6, r0
  90              	.LVL9:
  91              		.loc 1 638 0
  92 0038 8900     		lsls	r1, r1, #2
  93 003a 2000     		movs	r0, r4
  94 003c FFF7FEFF 		bl	__aeabi_uidivmod
  95              	.LVL10:
  96 0040 88B2     		uxth	r0, r1
  97 0042 6421     		movs	r1, #100
  98 0044 FFF7FEFF 		bl	__aeabi_uidiv
  99              	.LVL11:
ARM GAS  C:\Users\Administrator\AppData\Local\Temp\ccexfbaX.s 			page 14


 100 0048 3030     		adds	r0, r0, #48
 101 004a C5B2     		uxtb	r5, r0
 102              	.LVL12:
 639:Code\UserApp\Protocol/CmdProtocol.c **** 		port_str[2] = port_hex%100/10 + '0';
 103              		.loc 1 639 0
 104 004c 6421     		movs	r1, #100
 105 004e 2000     		movs	r0, r4
 106 0050 FFF7FEFF 		bl	__aeabi_uidivmod
 107              	.LVL13:
 108 0054 88B2     		uxth	r0, r1
 109 0056 0A21     		movs	r1, #10
 110 0058 FFF7FEFF 		bl	__aeabi_uidiv
 111              	.LVL14:
 112 005c 3030     		adds	r0, r0, #48
 113 005e C3B2     		uxtb	r3, r0
 640:Code\UserApp\Protocol/CmdProtocol.c **** 		port_str[3] = port_hex%10 + '0';
 114              		.loc 1 640 0
 115 0060 0A21     		movs	r1, #10
 116 0062 2000     		movs	r0, r4
 639:Code\UserApp\Protocol/CmdProtocol.c **** 		port_str[2] = port_hex%100/10 + '0';
 117              		.loc 1 639 0
 118 0064 0193     		str	r3, [sp, #4]
 119              	.LVL15:
 120              		.loc 1 640 0
 121 0066 FFF7FEFF 		bl	__aeabi_uidivmod
 122              	.LVL16:
 123 006a 3031     		adds	r1, r1, #48
 124 006c CBB2     		uxtb	r3, r1
 125 006e 0093     		str	r3, [sp]
 126              	.LVL17:
 641:Code\UserApp\Protocol/CmdProtocol.c **** 		port_str[4] = '\0';
 127              		.loc 1 641 0
 128 0070 0021     		movs	r1, #0
 129 0072 2DE0     		b	.L3
 130              	.LVL18:
 131              	.L2:
 642:Code\UserApp\Protocol/CmdProtocol.c **** 		port_str[5] = '\0';
 643:Code\UserApp\Protocol/CmdProtocol.c **** 	}
 644:Code\UserApp\Protocol/CmdProtocol.c **** 	else
 645:Code\UserApp\Protocol/CmdProtocol.c **** 	{
 646:Code\UserApp\Protocol/CmdProtocol.c **** 		port_str[0] = port_hex/10000 + '0';
 132              		.loc 1 646 0
 133 0074 2749     		ldr	r1, .L5+8
 134 0076 2000     		movs	r0, r4
 135 0078 FFF7FEFF 		bl	__aeabi_uidiv
 136              	.LVL19:
 137 007c 3030     		adds	r0, r0, #48
 138 007e C6B2     		uxtb	r6, r0
 139              	.LVL20:
 647:Code\UserApp\Protocol/CmdProtocol.c **** 		port_str[1] = port_hex%10000/1000 + '0';	
 140              		.loc 1 647 0
 141 0080 2449     		ldr	r1, .L5+8
 142 0082 2000     		movs	r0, r4
 143 0084 FFF7FEFF 		bl	__aeabi_uidivmod
 144              	.LVL21:
 145 0088 88B2     		uxth	r0, r1
 146 008a FA21     		movs	r1, #250
ARM GAS  C:\Users\Administrator\AppData\Local\Temp\ccexfbaX.s 			page 15


 147 008c 8900     		lsls	r1, r1, #2
 148 008e FFF7FEFF 		bl	__aeabi_uidiv
 149              	.LVL22:
 648:Code\UserApp\Protocol/CmdProtocol.c **** 		port_str[2] = port_hex%1000/100 + '0';
 150              		.loc 1 648 0
 151 0092 FA21     		movs	r1, #250
 647:Code\UserApp\Protocol/CmdProtocol.c **** 		port_str[1] = port_hex%10000/1000 + '0';	
 152              		.loc 1 647 0
 153 0094 3030     		adds	r0, r0, #48
 154 0096 C5B2     		uxtb	r5, r0
 155              	.LVL23:
 156              		.loc 1 648 0
 157 0098 8900     		lsls	r1, r1, #2
 158 009a 2000     		movs	r0, r4
 159 009c FFF7FEFF 		bl	__aeabi_uidivmod
 160              	.LVL24:
 161 00a0 88B2     		uxth	r0, r1
 162 00a2 6421     		movs	r1, #100
 163 00a4 FFF7FEFF 		bl	__aeabi_uidiv
 164              	.LVL25:
 165 00a8 3030     		adds	r0, r0, #48
 166 00aa C3B2     		uxtb	r3, r0
 649:Code\UserApp\Protocol/CmdProtocol.c **** 		port_str[3] = port_hex%100/10 + '0';
 167              		.loc 1 649 0
 168 00ac 6421     		movs	r1, #100
 169 00ae 2000     		movs	r0, r4
 648:Code\UserApp\Protocol/CmdProtocol.c **** 		port_str[2] = port_hex%1000/100 + '0';
 170              		.loc 1 648 0
 171 00b0 0193     		str	r3, [sp, #4]
 172              	.LVL26:
 173              		.loc 1 649 0
 174 00b2 FFF7FEFF 		bl	__aeabi_uidivmod
 175              	.LVL27:
 176 00b6 88B2     		uxth	r0, r1
 177 00b8 0A21     		movs	r1, #10
 178 00ba FFF7FEFF 		bl	__aeabi_uidiv
 179              	.LVL28:
 180 00be 3030     		adds	r0, r0, #48
 181 00c0 C3B2     		uxtb	r3, r0
 650:Code\UserApp\Protocol/CmdProtocol.c **** 		port_str[4] = port_hex%10 + '0';
 182              		.loc 1 650 0
 183 00c2 0A21     		movs	r1, #10
 184 00c4 2000     		movs	r0, r4
 649:Code\UserApp\Protocol/CmdProtocol.c **** 		port_str[3] = port_hex%100/10 + '0';
 185              		.loc 1 649 0
 186 00c6 0093     		str	r3, [sp]
 187              	.LVL29:
 188              		.loc 1 650 0
 189 00c8 FFF7FEFF 		bl	__aeabi_uidivmod
 190              	.LVL30:
 191 00cc 3031     		adds	r1, r1, #48
 192 00ce C9B2     		uxtb	r1, r1
 193              	.LVL31:
 194              	.L3:
 651:Code\UserApp\Protocol/CmdProtocol.c **** 		port_str[5] = '\0';
 652:Code\UserApp\Protocol/CmdProtocol.c **** 	}
 653:Code\UserApp\Protocol/CmdProtocol.c **** 	memcpy(pre_port, port_str, 6);
ARM GAS  C:\Users\Administrator\AppData\Local\Temp\ccexfbaX.s 			page 16


 195              		.loc 1 653 0
 196 00d0 6A46     		mov	r2, sp
 197 00d2 114B     		ldr	r3, .L5+12
 198 00d4 1279     		ldrb	r2, [r2, #4]
 199 00d6 0024     		movs	r4, #0
 200              	.LVL32:
 201 00d8 9A70     		strb	r2, [r3, #2]
 202 00da 6A46     		mov	r2, sp
 203 00dc 1278     		ldrb	r2, [r2]
 204 00de 1E70     		strb	r6, [r3]
 205 00e0 5D70     		strb	r5, [r3, #1]
 206 00e2 DA70     		strb	r2, [r3, #3]
 207 00e4 1971     		strb	r1, [r3, #4]
 208 00e6 5C71     		strb	r4, [r3, #5]
 654:Code\UserApp\Protocol/CmdProtocol.c **** 	memcpy((char *)pre_ip, (char *)domain, strlen((char *)domain));
 209              		.loc 1 654 0
 210 00e8 3800     		movs	r0, r7
 211 00ea FFF7FEFF 		bl	strlen
 212              	.LVL33:
 213 00ee 3900     		movs	r1, r7
 214 00f0 0200     		movs	r2, r0
 215 00f2 0A48     		ldr	r0, .L5+16
 216 00f4 FFF7FEFF 		bl	memcpy
 217              	.LVL34:
 655:Code\UserApp\Protocol/CmdProtocol.c **** 	
 656:Code\UserApp\Protocol/CmdProtocol.c **** 	#if DBG_SOFT_ENNABLE
 657:Code\UserApp\Protocol/CmdProtocol.c **** 	DBG_SOFT_PutString("\nPre_domain:");	
 658:Code\UserApp\Protocol/CmdProtocol.c **** 	DBG_SOFT_PutArray(domain, strlen((char *)domain));
 659:Code\UserApp\Protocol/CmdProtocol.c **** 	DBG_SOFT_PutString("\nPre_PORT:");
 660:Code\UserApp\Protocol/CmdProtocol.c **** 	DBG_SOFT_PutArray(port_str, 4);
 661:Code\UserApp\Protocol/CmdProtocol.c **** 	DBG_SOFT_PutString("\n");
 662:Code\UserApp\Protocol/CmdProtocol.c **** 	#endif
 663:Code\UserApp\Protocol/CmdProtocol.c **** 	
 664:Code\UserApp\Protocol/CmdProtocol.c **** 	//===ã€å¼€å§‹ã€‘=== è®¾å¤‡å±‚çš„å¤„ç† ==========================================================
 665:Code\UserApp\Protocol/CmdProtocol.c **** 	gprs_state = GET_PRE_IP;
 218              		.loc 1 665 0
 219 00f8 0222     		movs	r2, #2
 220 00fa 094B     		ldr	r3, .L5+20
 666:Code\UserApp\Protocol/CmdProtocol.c **** 	gprs_operation_ErrCount = 0;
 667:Code\UserApp\Protocol/CmdProtocol.c **** 	next_gprs_operation_time = cur_time;
 668:Code\UserApp\Protocol/CmdProtocol.c **** 	//===ã€ç»“æŸã€‘=== è®¾å¤‡å±‚çš„å¤„ç† ==========================================================
 669:Code\UserApp\Protocol/CmdProtocol.c **** 
 670:Code\UserApp\Protocol/CmdProtocol.c **** 	DBG_PRINTF("leaving %s\n", __FUNCTION__);
 671:Code\UserApp\Protocol/CmdProtocol.c **** }
 221              		.loc 1 671 0
 222              		@ sp needed
 665:Code\UserApp\Protocol/CmdProtocol.c **** 	gprs_operation_ErrCount = 0;
 223              		.loc 1 665 0
 224 00fc 1A70     		strb	r2, [r3]
 666:Code\UserApp\Protocol/CmdProtocol.c **** 	gprs_operation_ErrCount = 0;
 225              		.loc 1 666 0
 226 00fe 094B     		ldr	r3, .L5+24
 227 0100 1C70     		strb	r4, [r3]
 667:Code\UserApp\Protocol/CmdProtocol.c **** 	//===ã€ç»“æŸã€‘=== è®¾å¤‡å±‚çš„å¤„ç† ==========================================================
 228              		.loc 1 667 0
 229 0102 094B     		ldr	r3, .L5+28
 230 0104 1A68     		ldr	r2, [r3]
ARM GAS  C:\Users\Administrator\AppData\Local\Temp\ccexfbaX.s 			page 17


 231 0106 094B     		ldr	r3, .L5+32
 232 0108 1A60     		str	r2, [r3]
 233              	.LVL35:
 234              		.loc 1 671 0
 235 010a F7BD     		pop	{r0, r1, r2, r4, r5, r6, r7, pc}
 236              	.L6:
 237              		.align	2
 238              	.L5:
 239 010c 00000000 		.word	domain
 240 0110 0F270000 		.word	9999
 241 0114 10270000 		.word	10000
 242 0118 00000000 		.word	pre_port
 243 011c 00000000 		.word	pre_ip
 244 0120 00000000 		.word	gprs_state
 245 0124 00000000 		.word	gprs_operation_ErrCount
 246 0128 00000000 		.word	cur_time
 247 012c 00000000 		.word	next_gprs_operation_time
 248              		.cfi_endproc
 249              	.LFE73:
 250              		.size	Protocol_CmdGetPreSever, .-Protocol_CmdGetPreSever
 251              		.section	.text.Protocol_CmdSendOpenInfo,"ax",%progbits
 252              		.align	1
 253              		.code	16
 254              		.thumb_func
 255              		.type	Protocol_CmdSendOpenInfo, %function
 256              	Protocol_CmdSendOpenInfo:
 257              	.LFB79:
 672:Code\UserApp\Protocol/CmdProtocol.c **** 
 673:Code\UserApp\Protocol/CmdProtocol.c **** //*************************************************************************************************
 674:Code\UserApp\Protocol/CmdProtocol.c **** // Function name	: Protocol_CmdGetMacAndKey
 675:Code\UserApp\Protocol/CmdProtocol.c **** // Description		: æ™ºèƒ½é—¨ç¦å‘æœåŠ¡å™¨ç”³æŠ¥MAC ç å¹¶è·å–è“ç‰™å¯†é’¥æŒ‡ä»¤ï¼ˆæ™ºèƒ½é—¨ç¦â†
 676:Code\UserApp\Protocol/CmdProtocol.c **** // Parameter		: uint8* RecBuf	å‘½ä»¤åŒ…æŒ‡é’ˆ
 677:Code\UserApp\Protocol/CmdProtocol.c **** // Return			: none
 678:Code\UserApp\Protocol/CmdProtocol.c **** //-------------------------------------------------------------------------------------------------
 679:Code\UserApp\Protocol/CmdProtocol.c **** // Info				: 0x02å‘½ä»¤ï¼ŒæœåŠ¡å™¨åº”ç­”
 680:Code\UserApp\Protocol/CmdProtocol.c **** //*************************************************************************************************
 681:Code\UserApp\Protocol/CmdProtocol.c **** static void Protocol_CmdGetMacAndKey(uint8* RecBuf)
 682:Code\UserApp\Protocol/CmdProtocol.c **** {
 683:Code\UserApp\Protocol/CmdProtocol.c **** 	uint8 ble_key[6];
 684:Code\UserApp\Protocol/CmdProtocol.c **** 	uint8 *pstr = RecBuf;
 685:Code\UserApp\Protocol/CmdProtocol.c **** 	
 686:Code\UserApp\Protocol/CmdProtocol.c **** 	// è·å–MACåœ°å€å’Œè“ç‰™é’¥åŒ™å‘½ä»¤çš„åº”ç­”åŒ…																//
 687:Code\UserApp\Protocol/CmdProtocol.c **** 	pstr += 13;
 688:Code\UserApp\Protocol/CmdProtocol.c **** 	#if 0
 689:Code\UserApp\Protocol/CmdProtocol.c **** 	uint8 ptime[4] = {0};
 690:Code\UserApp\Protocol/CmdProtocol.c **** 	memcpy(ptime, pstr, 4);										// æ—¶é—´æˆ³								//
 691:Code\UserApp\Protocol/CmdProtocol.c **** 	cur_time = BYTE2LONG(ptime[0], ptime[1], ptime[2], ptime[3]);
 692:Code\UserApp\Protocol/CmdProtocol.c **** 	RTC_SetUnixTime(cur_time);
 693:Code\UserApp\Protocol/CmdProtocol.c **** 	#endif
 694:Code\UserApp\Protocol/CmdProtocol.c **** 	
 695:Code\UserApp\Protocol/CmdProtocol.c **** 	pstr += 4;
 696:Code\UserApp\Protocol/CmdProtocol.c **** 	memcpy(ble_key, pstr, 6);									// 6å­—èŠ‚è“ç‰™å¯†é’¥						//
 697:Code\UserApp\Protocol/CmdProtocol.c **** 	
 698:Code\UserApp\Protocol/CmdProtocol.c **** 	//===ã€å¼€å§‹ã€‘=== è®¾å¤‡å±‚çš„å¤„ç† ==========================================================
 699:Code\UserApp\Protocol/CmdProtocol.c **** 	SendMacFlag = 1;
 700:Code\UserApp\Protocol/CmdProtocol.c **** 	gprs_state = NORMAL_COMM;
 701:Code\UserApp\Protocol/CmdProtocol.c **** 	gprs_operation_ErrCount = 0;
ARM GAS  C:\Users\Administrator\AppData\Local\Temp\ccexfbaX.s 			page 18


 702:Code\UserApp\Protocol/CmdProtocol.c **** 	next_gprs_operation_time = cur_time;
 703:Code\UserApp\Protocol/CmdProtocol.c **** 	//===ã€ç»“æŸã€‘=== è®¾å¤‡å±‚çš„å¤„ç† ==========================================================
 704:Code\UserApp\Protocol/CmdProtocol.c **** 	
 705:Code\UserApp\Protocol/CmdProtocol.c **** 	DBG_PRINTF("leaving %s\n", __FUNCTION__);
 706:Code\UserApp\Protocol/CmdProtocol.c **** }
 707:Code\UserApp\Protocol/CmdProtocol.c **** 
 708:Code\UserApp\Protocol/CmdProtocol.c **** 
 709:Code\UserApp\Protocol/CmdProtocol.c **** //*************************************************************************************************
 710:Code\UserApp\Protocol/CmdProtocol.c **** // Function name	: Protocol_CmdReadUID
 711:Code\UserApp\Protocol/CmdProtocol.c **** // Description		: å¹³å° --> ä»æ™ºèƒ½é—¨ç¦è¯»å–ä¸€æ¡UID æŒ‡ä»¤ 
 712:Code\UserApp\Protocol/CmdProtocol.c **** // Parameter		: uint8* RecBuf	å‘½ä»¤åŒ…æŒ‡é’ˆ
 713:Code\UserApp\Protocol/CmdProtocol.c **** // Return			: none
 714:Code\UserApp\Protocol/CmdProtocol.c **** //-------------------------------------------------------------------------------------------------
 715:Code\UserApp\Protocol/CmdProtocol.c **** // Info				: 0x03å‘½ä»¤ï¼ŒæœåŠ¡å™¨å‘é€
 716:Code\UserApp\Protocol/CmdProtocol.c **** //*************************************************************************************************
 717:Code\UserApp\Protocol/CmdProtocol.c **** static void Protocol_CmdReadUID(uint8* RecBuf)
 718:Code\UserApp\Protocol/CmdProtocol.c **** {
 719:Code\UserApp\Protocol/CmdProtocol.c **** 	uint8 ret;
 720:Code\UserApp\Protocol/CmdProtocol.c **** 	uint8 DataBuf[64];
 721:Code\UserApp\Protocol/CmdProtocol.c **** 	uint8 *pT = DataBuf;
 722:Code\UserApp\Protocol/CmdProtocol.c **** 	uint8 pUID[8] = {0};
 723:Code\UserApp\Protocol/CmdProtocol.c **** 	uint8 comm_chanle = RecBuf[4];								// å–å‡ºä¿¡é“å€¼							//
 724:Code\UserApp\Protocol/CmdProtocol.c **** 	uint16 nCmdPackLen;
 725:Code\UserApp\Protocol/CmdProtocol.c **** 
 726:Code\UserApp\Protocol/CmdProtocol.c **** 	nCmdPackLen= (RecBuf[2]<<8) + RecBuf[3] + 4;
 727:Code\UserApp\Protocol/CmdProtocol.c **** 	 
 728:Code\UserApp\Protocol/CmdProtocol.c **** 	memset(pT, 0, sizeof(DataBuf));
 729:Code\UserApp\Protocol/CmdProtocol.c **** 	
 730:Code\UserApp\Protocol/CmdProtocol.c **** 	//if (0 != memcmp((uint8 *)Mac_Addr, pMAC, BD_ADDR_LEN))
 731:Code\UserApp\Protocol/CmdProtocol.c **** 	
 732:Code\UserApp\Protocol/CmdProtocol.c **** 	memcpy(pT, RecBuf + 7, 6);			  						// å–å‡ºMACåœ°å€ï¼Œç†è®ºåº”åŠ ä¸ŠMACæ ¡éªŒ		//
 733:Code\UserApp\Protocol/CmdProtocol.c **** 	pT += 6;
 734:Code\UserApp\Protocol/CmdProtocol.c **** 	
 735:Code\UserApp\Protocol/CmdProtocol.c **** 	//===ã€å¼€å§‹ã€‘=== è®¾å¤‡å±‚çš„å¤„ç† ==========================================================
 736:Code\UserApp\Protocol/CmdProtocol.c **** 	VoicePlay((uint8)Sound_PleasePutCard);						// ä»è®¾å¤‡è¯»å–ä¸€å¼ uid == PUID			//
 737:Code\UserApp\Protocol/CmdProtocol.c **** 	wait_timeout = 20000;
 738:Code\UserApp\Protocol/CmdProtocol.c **** 	ret = RET_ERR;
 739:Code\UserApp\Protocol/CmdProtocol.c **** 	DBG_SOFT_PutStr("\nProtocol_CmdReadUID\n");
 740:Code\UserApp\Protocol/CmdProtocol.c **** 	while (wait_timeout > 0)
 741:Code\UserApp\Protocol/CmdProtocol.c **** 	{
 742:Code\UserApp\Protocol/CmdProtocol.c **** 		ret = detect_nfc_card(pUID, CARD_UID_LEN);
 743:Code\UserApp\Protocol/CmdProtocol.c **** 		// æ»¤é™¤ä¸å‡†ç¡®çš„å¡ID
 744:Code\UserApp\Protocol/CmdProtocol.c **** 		if((pUID[0] == 0) && (pUID[1] == 0) &&(pUID[2] == 0) && (pUID[3] == 0))
 745:Code\UserApp\Protocol/CmdProtocol.c **** 		{
 746:Code\UserApp\Protocol/CmdProtocol.c **** 			continue;
 747:Code\UserApp\Protocol/CmdProtocol.c **** 		}
 748:Code\UserApp\Protocol/CmdProtocol.c **** 		if (ret == RET_OK)
 749:Code\UserApp\Protocol/CmdProtocol.c **** 		{
 750:Code\UserApp\Protocol/CmdProtocol.c **** 			VoicePlay((uint8)Sound_ReadCardSuccess);
 751:Code\UserApp\Protocol/CmdProtocol.c **** 			break;
 752:Code\UserApp\Protocol/CmdProtocol.c **** 		}
 753:Code\UserApp\Protocol/CmdProtocol.c **** 	}
 754:Code\UserApp\Protocol/CmdProtocol.c **** 	if(wait_timeout == 0)										// è¶…æ—¶æ’­æŠ¥
 755:Code\UserApp\Protocol/CmdProtocol.c **** 	{	
 756:Code\UserApp\Protocol/CmdProtocol.c **** 		memset(pUID,0xFF,7);									// è¶…æ—¶UID æ›¿ä»£å€¼ FFFFFFFFFFFFFF03
 757:Code\UserApp\Protocol/CmdProtocol.c **** 		pUID[7] = 0x03;
 758:Code\UserApp\Protocol/CmdProtocol.c **** 		VoicePlay((uint8)Sound_TIMEOUT);
ARM GAS  C:\Users\Administrator\AppData\Local\Temp\ccexfbaX.s 			page 19


 759:Code\UserApp\Protocol/CmdProtocol.c **** 	}
 760:Code\UserApp\Protocol/CmdProtocol.c **** 	
 761:Code\UserApp\Protocol/CmdProtocol.c **** 	//===ã€ç»“æŸã€‘=== è®¾å¤‡å±‚çš„å¤„ç† ==========================================================
 762:Code\UserApp\Protocol/CmdProtocol.c **** 	
 763:Code\UserApp\Protocol/CmdProtocol.c **** 	Endpoint_exchange(pUID);									// Aå¡æ•°æ®ä½ç½®è½¬æ¢ @ 18-1-17			//
 764:Code\UserApp\Protocol/CmdProtocol.c **** 	
 765:Code\UserApp\Protocol/CmdProtocol.c **** 	memcpy(pT, pUID, 8);										// å¤åˆ¶è¯»åˆ°çš„å¡UID						//
 766:Code\UserApp\Protocol/CmdProtocol.c **** 	pT += 8;
 767:Code\UserApp\Protocol/CmdProtocol.c **** 
 768:Code\UserApp\Protocol/CmdProtocol.c **** 	memcpy(pT, RecBuf + nCmdPackLen - 6, 4);					// æ‹·è´æ—¶é—´æˆ³							//
 769:Code\UserApp\Protocol/CmdProtocol.c **** 	pT += 4;
 770:Code\UserApp\Protocol/CmdProtocol.c **** 	
 771:Code\UserApp\Protocol/CmdProtocol.c **** 	if (ret == RET_ERR)											// æ²¡è¯»åˆ°å¡ï¼Œå›ä¼ ç»“æœç å¤±è´¥				//
 772:Code\UserApp\Protocol/CmdProtocol.c **** 	{
 773:Code\UserApp\Protocol/CmdProtocol.c **** 		*pT = RT_Timeout_ERR;									// è¶…æ—¶ä¸ŠæŠ¥								//
 774:Code\UserApp\Protocol/CmdProtocol.c **** 	}
 775:Code\UserApp\Protocol/CmdProtocol.c **** 	else
 776:Code\UserApp\Protocol/CmdProtocol.c **** 	{
 777:Code\UserApp\Protocol/CmdProtocol.c **** 		*pT = RT_SUCC;
 778:Code\UserApp\Protocol/CmdProtocol.c **** 	}
 779:Code\UserApp\Protocol/CmdProtocol.c **** 	
 780:Code\UserApp\Protocol/CmdProtocol.c **** 	Protocol_SendAckPacket(comm_chanle, PACK_RESP, RecBuf[6], DataBuf, 19);
 781:Code\UserApp\Protocol/CmdProtocol.c **** 	
 782:Code\UserApp\Protocol/CmdProtocol.c **** 	DBG_PRINTF("leaving %s\n", __FUNCTION__);
 783:Code\UserApp\Protocol/CmdProtocol.c **** }
 784:Code\UserApp\Protocol/CmdProtocol.c **** 
 785:Code\UserApp\Protocol/CmdProtocol.c **** //*************************************************************************************************
 786:Code\UserApp\Protocol/CmdProtocol.c **** // Function name	: Protocol_CmdWriteUID
 787:Code\UserApp\Protocol/CmdProtocol.c **** // Description		: å¹³å° --> å†™ä¸€æ¡UIDå’Œæœ‰æ•ˆæœŸåˆ°æ™ºèƒ½é—¨ç¦æŒ‡ä»¤
 788:Code\UserApp\Protocol/CmdProtocol.c **** // Parameter		: uint8* GPRSCmdBuf	å‘½ä»¤åŒ…æŒ‡é’ˆ
 789:Code\UserApp\Protocol/CmdProtocol.c **** // Return			: none
 790:Code\UserApp\Protocol/CmdProtocol.c **** //-------------------------------------------------------------------------------------------------
 791:Code\UserApp\Protocol/CmdProtocol.c **** // Info				: 0x04å‘½ä»¤ï¼ŒæœåŠ¡å™¨å‘é€
 792:Code\UserApp\Protocol/CmdProtocol.c **** //*************************************************************************************************
 793:Code\UserApp\Protocol/CmdProtocol.c **** static void Protocol_CmdWriteUID(uint8* RecBuf)
 794:Code\UserApp\Protocol/CmdProtocol.c **** {
 795:Code\UserApp\Protocol/CmdProtocol.c **** 	uint8 DataBuf[64];
 796:Code\UserApp\Protocol/CmdProtocol.c **** 	uint8 *pT = DataBuf;
 797:Code\UserApp\Protocol/CmdProtocol.c **** 	uint8 pUID[8];
 798:Code\UserApp\Protocol/CmdProtocol.c **** 	uint8 pTime[4];
 799:Code\UserApp\Protocol/CmdProtocol.c **** 	uint8 comm_chanle = RecBuf[4];								// å–å‡ºä¿¡é“å€¼							//
 800:Code\UserApp\Protocol/CmdProtocol.c **** 	user_info_t user_info;
 801:Code\UserApp\Protocol/CmdProtocol.c **** 	uint16 nCmdPackLen;
 802:Code\UserApp\Protocol/CmdProtocol.c **** 	
 803:Code\UserApp\Protocol/CmdProtocol.c ****     nCmdPackLen= (RecBuf[2] << 8) + RecBuf[3] + 4;
 804:Code\UserApp\Protocol/CmdProtocol.c ****     
 805:Code\UserApp\Protocol/CmdProtocol.c **** 	memset(pT, 0, sizeof(DataBuf));
 806:Code\UserApp\Protocol/CmdProtocol.c **** 	memcpy(pT, RecBuf + 7, 6);									// å–å‡ºMACåœ°å€ï¼Œç†è®ºåº”åŠ ä¸ŠMACæ ¡éªŒ		//
 807:Code\UserApp\Protocol/CmdProtocol.c **** 	pT += 6;
 808:Code\UserApp\Protocol/CmdProtocol.c **** 	
 809:Code\UserApp\Protocol/CmdProtocol.c **** 	memcpy(pT, RecBuf + 13, 8);									// å–å‡ºuid								//
 810:Code\UserApp\Protocol/CmdProtocol.c **** 	memcpy(pUID, RecBuf + 13, 8);
 811:Code\UserApp\Protocol/CmdProtocol.c **** 	pT += 8;
 812:Code\UserApp\Protocol/CmdProtocol.c **** 	
 813:Code\UserApp\Protocol/CmdProtocol.c **** 	memcpy(pT, RecBuf + 21, 4);									// å–å‡ºæœ‰æ•ˆæ—¥æœŸ							//
 814:Code\UserApp\Protocol/CmdProtocol.c **** 	memcpy(pTime, RecBuf + 21, 4);	
 815:Code\UserApp\Protocol/CmdProtocol.c **** 	pT += 4;
ARM GAS  C:\Users\Administrator\AppData\Local\Temp\ccexfbaX.s 			page 20


 816:Code\UserApp\Protocol/CmdProtocol.c **** 	memcpy(pT, RecBuf + nCmdPackLen - 6, 4);					// æ—¶é—´æˆ³								//
 817:Code\UserApp\Protocol/CmdProtocol.c **** 	pT += 4;
 818:Code\UserApp\Protocol/CmdProtocol.c ****     
 819:Code\UserApp\Protocol/CmdProtocol.c **** 	//===ã€å¼€å§‹ã€‘=== è®¾å¤‡å±‚çš„å¤„ç† ==========================================================
 820:Code\UserApp\Protocol/CmdProtocol.c **** 	Endpoint_exchange(pUID);									// Aå¡æ•°æ®ä½ç½®è½¬æ¢ @ 18-1-17			//
 821:Code\UserApp\Protocol/CmdProtocol.c **** 	
 822:Code\UserApp\Protocol/CmdProtocol.c **** 	memcpy(user_info.card_uid, pUID, 8);
 823:Code\UserApp\Protocol/CmdProtocol.c **** 	memcpy(user_info.valid_time, pTime, 4);
 824:Code\UserApp\Protocol/CmdProtocol.c **** 	if (TRUE == UserData_Add_User(&user_info))
 825:Code\UserApp\Protocol/CmdProtocol.c **** 	{
 826:Code\UserApp\Protocol/CmdProtocol.c **** 		VoicePlay((uint8)Sound_REG_SUCCESS);
 827:Code\UserApp\Protocol/CmdProtocol.c **** 		*pT = RT_SUCC;
 828:Code\UserApp\Protocol/CmdProtocol.c **** 	}
 829:Code\UserApp\Protocol/CmdProtocol.c **** 	else
 830:Code\UserApp\Protocol/CmdProtocol.c **** 	{
 831:Code\UserApp\Protocol/CmdProtocol.c **** 		VoicePlay((uint8)Sound_REG_FAILURE);
 832:Code\UserApp\Protocol/CmdProtocol.c **** 		*pT = RT_FAIL;
 833:Code\UserApp\Protocol/CmdProtocol.c **** 	}
 834:Code\UserApp\Protocol/CmdProtocol.c **** 	//===ã€ç»“æŸã€‘=== è®¾å¤‡å±‚çš„å¤„ç† ==========================================================
 835:Code\UserApp\Protocol/CmdProtocol.c **** 	
 836:Code\UserApp\Protocol/CmdProtocol.c **** 	Protocol_SendAckPacket(comm_chanle, PACK_RESP, RecBuf[6], DataBuf, 23);
 837:Code\UserApp\Protocol/CmdProtocol.c **** 	
 838:Code\UserApp\Protocol/CmdProtocol.c **** 	#if DBG_SOFT_ENNABLE
 839:Code\UserApp\Protocol/CmdProtocol.c **** 	test_Flash();
 840:Code\UserApp\Protocol/CmdProtocol.c **** 	#endif
 841:Code\UserApp\Protocol/CmdProtocol.c **** 	
 842:Code\UserApp\Protocol/CmdProtocol.c **** 	DBG_PRINTF("leaving %s\n", __FUNCTION__);
 843:Code\UserApp\Protocol/CmdProtocol.c **** }
 844:Code\UserApp\Protocol/CmdProtocol.c **** 
 845:Code\UserApp\Protocol/CmdProtocol.c **** //*************************************************************************************************
 846:Code\UserApp\Protocol/CmdProtocol.c **** // Function name	: Protocol_CmdDelUID
 847:Code\UserApp\Protocol/CmdProtocol.c **** // Description		: å¹³å° -->ä»æ™ºèƒ½é—¨ç¦åˆ é™¤ä¸€æ¡UID æŒ‡ä»¤
 848:Code\UserApp\Protocol/CmdProtocol.c **** // Parameter		: uint8* RecBuf	å‘½ä»¤åŒ…æŒ‡é’ˆ
 849:Code\UserApp\Protocol/CmdProtocol.c **** // Return			: none
 850:Code\UserApp\Protocol/CmdProtocol.c **** //-------------------------------------------------------------------------------------------------
 851:Code\UserApp\Protocol/CmdProtocol.c **** // Info				: 0x05å‘½ä»¤ï¼ŒæœåŠ¡å™¨å‘é€
 852:Code\UserApp\Protocol/CmdProtocol.c **** //*************************************************************************************************
 853:Code\UserApp\Protocol/CmdProtocol.c **** static void Protocol_CmdDelUID(uint8* RecBuf)
 854:Code\UserApp\Protocol/CmdProtocol.c **** {
 855:Code\UserApp\Protocol/CmdProtocol.c **** 	uint8 ret = 0;
 856:Code\UserApp\Protocol/CmdProtocol.c **** 	uint8 DataBuf[64];
 857:Code\UserApp\Protocol/CmdProtocol.c **** 	uint8 *pT = DataBuf;
 858:Code\UserApp\Protocol/CmdProtocol.c **** 	uint8 pUID[8];
 859:Code\UserApp\Protocol/CmdProtocol.c **** 	uint8 comm_chanle = RecBuf[4];								// å–å‡ºä¿¡é“å€¼							//
 860:Code\UserApp\Protocol/CmdProtocol.c **** 	uint16 nCmdPackLen;
 861:Code\UserApp\Protocol/CmdProtocol.c **** 
 862:Code\UserApp\Protocol/CmdProtocol.c **** 	nCmdPackLen= (RecBuf[2]<<8) + RecBuf[3] + 4;
 863:Code\UserApp\Protocol/CmdProtocol.c **** 	 
 864:Code\UserApp\Protocol/CmdProtocol.c **** 	memset(pT, 0, sizeof(DataBuf));
 865:Code\UserApp\Protocol/CmdProtocol.c **** 	memcpy(pT, RecBuf + 7, 6);									// å–å‡ºMACåœ°å€ï¼Œç†è®ºåº”åŠ ä¸ŠMACæ ¡éªŒ		//
 866:Code\UserApp\Protocol/CmdProtocol.c **** 	pT += 6;
 867:Code\UserApp\Protocol/CmdProtocol.c **** 
 868:Code\UserApp\Protocol/CmdProtocol.c **** 	memcpy(pT, RecBuf + 13, 8);									// å–å‡ºuid								//
 869:Code\UserApp\Protocol/CmdProtocol.c **** 	memcpy(pUID, RecBuf + 13, 8);
 870:Code\UserApp\Protocol/CmdProtocol.c **** 	pT += 8;
 871:Code\UserApp\Protocol/CmdProtocol.c **** 
 872:Code\UserApp\Protocol/CmdProtocol.c **** 	memcpy(pT, RecBuf + nCmdPackLen - 6, 4);					// æ—¶é—´æˆ³								//
ARM GAS  C:\Users\Administrator\AppData\Local\Temp\ccexfbaX.s 			page 21


 873:Code\UserApp\Protocol/CmdProtocol.c **** 	pT += 4;
 874:Code\UserApp\Protocol/CmdProtocol.c ****  	
 875:Code\UserApp\Protocol/CmdProtocol.c **** 	//===ã€å¼€å§‹ã€‘=== è®¾å¤‡å±‚çš„å¤„ç† ==========================================================
 876:Code\UserApp\Protocol/CmdProtocol.c **** 	Endpoint_exchange(pUID);									// Aå¡æ•°æ®ä½ç½®è½¬æ¢ @ 18-1-17			//
 877:Code\UserApp\Protocol/CmdProtocol.c **** 	
 878:Code\UserApp\Protocol/CmdProtocol.c **** 	ret = UserData_DEL_User(pUID);
 879:Code\UserApp\Protocol/CmdProtocol.c **** 	if (TRUE == ret)
 880:Code\UserApp\Protocol/CmdProtocol.c **** 	{
 881:Code\UserApp\Protocol/CmdProtocol.c **** 		VoicePlay((uint8)Sound_DELETE_SUCCESS);
 882:Code\UserApp\Protocol/CmdProtocol.c **** 		*pT = RT_SUCC;
 883:Code\UserApp\Protocol/CmdProtocol.c **** 	}
 884:Code\UserApp\Protocol/CmdProtocol.c **** 	else if(RT_Invalid_ERR == ret)
 885:Code\UserApp\Protocol/CmdProtocol.c **** 	{
 886:Code\UserApp\Protocol/CmdProtocol.c **** 		VoicePlay((uint8)Sound_DELETE_FAILURE);
 887:Code\UserApp\Protocol/CmdProtocol.c **** 		*pT = RT_Invalid_ERR;
 888:Code\UserApp\Protocol/CmdProtocol.c **** 	}
 889:Code\UserApp\Protocol/CmdProtocol.c **** 	else if(FALSE == ret)
 890:Code\UserApp\Protocol/CmdProtocol.c **** 	{
 891:Code\UserApp\Protocol/CmdProtocol.c **** 		VoicePlay((uint8)Sound_DELETE_FAILURE);
 892:Code\UserApp\Protocol/CmdProtocol.c **** 		*pT = RT_FAIL;
 893:Code\UserApp\Protocol/CmdProtocol.c **** 	}
 894:Code\UserApp\Protocol/CmdProtocol.c **** 	
 895:Code\UserApp\Protocol/CmdProtocol.c **** 	
 896:Code\UserApp\Protocol/CmdProtocol.c **** 	//===ã€ç»“æŸã€‘=== è®¾å¤‡å±‚çš„å¤„ç† ==========================================================
 897:Code\UserApp\Protocol/CmdProtocol.c **** 	
 898:Code\UserApp\Protocol/CmdProtocol.c **** 	Protocol_SendAckPacket(comm_chanle, PACK_RESP, RecBuf[6], DataBuf, 19);	
 899:Code\UserApp\Protocol/CmdProtocol.c **** 	
 900:Code\UserApp\Protocol/CmdProtocol.c **** 	#if DBG_SOFT_ENNABLE
 901:Code\UserApp\Protocol/CmdProtocol.c **** 	test_Flash();
 902:Code\UserApp\Protocol/CmdProtocol.c **** 	#endif
 903:Code\UserApp\Protocol/CmdProtocol.c **** 	
 904:Code\UserApp\Protocol/CmdProtocol.c **** 	DBG_PRINTF("leaving %s\n", __FUNCTION__);
 905:Code\UserApp\Protocol/CmdProtocol.c **** }  
 906:Code\UserApp\Protocol/CmdProtocol.c **** 
 907:Code\UserApp\Protocol/CmdProtocol.c **** //*************************************************************************************************
 908:Code\UserApp\Protocol/CmdProtocol.c **** // Function name	: Protocol_CmdOpenDoor
 909:Code\UserApp\Protocol/CmdProtocol.c **** // Description		: APP(æˆ–å¹³å°)é€šè¿‡é¢„å®šçš„ä¿¡é“å‘æ™ºèƒ½é—¨ç¦å‘å‡ºå¼€é—¨å‘½ä»¤ï¼Œæ™ºèƒ½é—¨ç
 910:Code\UserApp\Protocol/CmdProtocol.c **** // Parameter		: uint8* RecBuf	å‘½ä»¤åŒ…æŒ‡é’ˆ
 911:Code\UserApp\Protocol/CmdProtocol.c **** // Return			: none
 912:Code\UserApp\Protocol/CmdProtocol.c **** //-------------------------------------------------------------------------------------------------
 913:Code\UserApp\Protocol/CmdProtocol.c **** // Info				: 0x06å‘½ä»¤ï¼ŒæœåŠ¡å™¨å‘é€
 914:Code\UserApp\Protocol/CmdProtocol.c **** //*************************************************************************************************
 915:Code\UserApp\Protocol/CmdProtocol.c **** static void Protocol_CmdOpenDoor(uint8* RecBuf)
 916:Code\UserApp\Protocol/CmdProtocol.c **** {
 917:Code\UserApp\Protocol/CmdProtocol.c **** 	uint8 ret = 0;
 918:Code\UserApp\Protocol/CmdProtocol.c **** 	uint8 RetCode = RT_SUCC;
 919:Code\UserApp\Protocol/CmdProtocol.c **** 	uint8 DataBuf[256];
 920:Code\UserApp\Protocol/CmdProtocol.c **** 	uint8 pUID[8];
 921:Code\UserApp\Protocol/CmdProtocol.c **** 	uint8 pMAC[6];
 922:Code\UserApp\Protocol/CmdProtocol.c **** 	uint8 pTime[4];
 923:Code\UserApp\Protocol/CmdProtocol.c **** 	uint8 OpenType;  
 924:Code\UserApp\Protocol/CmdProtocol.c **** 	uint8 *pT=DataBuf;
 925:Code\UserApp\Protocol/CmdProtocol.c **** 	uint8 comm_chanle = RecBuf[4];								// å–å‡ºä¿¡é“å€¼							//
 926:Code\UserApp\Protocol/CmdProtocol.c **** 	uint16 nCmdPackLen;
 927:Code\UserApp\Protocol/CmdProtocol.c **** 	user_info_t user_info;
 928:Code\UserApp\Protocol/CmdProtocol.c **** 	open_door_t openInfo;
 929:Code\UserApp\Protocol/CmdProtocol.c **** 
ARM GAS  C:\Users\Administrator\AppData\Local\Temp\ccexfbaX.s 			page 22


 930:Code\UserApp\Protocol/CmdProtocol.c ****     nCmdPackLen= (RecBuf[2] << 8) + RecBuf[3] + 4;
 931:Code\UserApp\Protocol/CmdProtocol.c **** 	
 932:Code\UserApp\Protocol/CmdProtocol.c **** 	memset(&openInfo, 0, sizeof(open_door_t));
 933:Code\UserApp\Protocol/CmdProtocol.c ****     memset(pT, 0, sizeof(DataBuf));
 934:Code\UserApp\Protocol/CmdProtocol.c ****     
 935:Code\UserApp\Protocol/CmdProtocol.c **** 	memcpy(pT, RecBuf + 7, 6);									// å–å‡ºMACåœ°å€ï¼Œç†è®ºåº”åŠ ä¸ŠMACæ ¡éªŒ		//
 936:Code\UserApp\Protocol/CmdProtocol.c ****     memcpy(pMAC, RecBuf + 7, 6);
 937:Code\UserApp\Protocol/CmdProtocol.c **** 	pT += 6;
 938:Code\UserApp\Protocol/CmdProtocol.c **** 	
 939:Code\UserApp\Protocol/CmdProtocol.c **** 	memcpy(pT, RecBuf + 13, 8);									// å–å‡ºuid								//
 940:Code\UserApp\Protocol/CmdProtocol.c **** 	memcpy(pUID, RecBuf + 13,8);
 941:Code\UserApp\Protocol/CmdProtocol.c ****     pT += 8;
 942:Code\UserApp\Protocol/CmdProtocol.c **** 	
 943:Code\UserApp\Protocol/CmdProtocol.c ****     *pT = *(RecBuf + 13 + 8);									// å¼€é—¨æ–¹å¼								//
 944:Code\UserApp\Protocol/CmdProtocol.c **** 	OpenType = *(RecBuf + 13 + 8);
 945:Code\UserApp\Protocol/CmdProtocol.c **** 	pT += 1;
 946:Code\UserApp\Protocol/CmdProtocol.c **** 	
 947:Code\UserApp\Protocol/CmdProtocol.c ****     memcpy(pT, RecBuf + nCmdPackLen - 6, 4);					// æ—¶é—´æˆ³								//
 948:Code\UserApp\Protocol/CmdProtocol.c ****     memcpy(pTime, RecBuf + nCmdPackLen - 6, 4);
 949:Code\UserApp\Protocol/CmdProtocol.c **** 	pT += 4;
 950:Code\UserApp\Protocol/CmdProtocol.c **** 	
 951:Code\UserApp\Protocol/CmdProtocol.c **** 	//===ã€å¼€å§‹ã€‘=== è®¾å¤‡å±‚çš„å¤„ç† ==========================================================
 952:Code\UserApp\Protocol/CmdProtocol.c **** 	Endpoint_exchange(pUID);									// Aå¡æ•°æ®ä½ç½®è½¬æ¢ @ 18-1-17			//
 953:Code\UserApp\Protocol/CmdProtocol.c **** 	
 954:Code\UserApp\Protocol/CmdProtocol.c **** 	memcpy(user_info.card_uid, pUID, 8);
 955:Code\UserApp\Protocol/CmdProtocol.c **** 	memcpy(user_info.valid_time, pTime, 4);
 956:Code\UserApp\Protocol/CmdProtocol.c **** 	
 957:Code\UserApp\Protocol/CmdProtocol.c **** 	if (0 != memcmp((uint8 *)Mac_Addr, pMAC, BD_ADDR_LEN))
 958:Code\UserApp\Protocol/CmdProtocol.c **** 	{
 959:Code\UserApp\Protocol/CmdProtocol.c **** 		RetCode = RT_FAIL;										// ä¸¢å¼ƒï¼Ÿ
 960:Code\UserApp\Protocol/CmdProtocol.c **** 	}
 961:Code\UserApp\Protocol/CmdProtocol.c **** 	else
 962:Code\UserApp\Protocol/CmdProtocol.c **** 	{ 
 963:Code\UserApp\Protocol/CmdProtocol.c **** 		
 964:Code\UserApp\Protocol/CmdProtocol.c **** 		ret = UserData_Judge_If_Open(&user_info);
 965:Code\UserApp\Protocol/CmdProtocol.c **** 		if (RT_UID_ERR == ret)
 966:Code\UserApp\Protocol/CmdProtocol.c **** 		{
 967:Code\UserApp\Protocol/CmdProtocol.c **** 			RetCode = RT_UID_ERR;
 968:Code\UserApp\Protocol/CmdProtocol.c **** 		}
 969:Code\UserApp\Protocol/CmdProtocol.c **** 		else if(RT_ValidTime_ERR == ret)
 970:Code\UserApp\Protocol/CmdProtocol.c **** 		{
 971:Code\UserApp\Protocol/CmdProtocol.c **** 			RetCode = RT_ValidTime_ERR;
 972:Code\UserApp\Protocol/CmdProtocol.c **** 		}
 973:Code\UserApp\Protocol/CmdProtocol.c **** 		else if (TRUE == ret)
 974:Code\UserApp\Protocol/CmdProtocol.c **** 		{
 975:Code\UserApp\Protocol/CmdProtocol.c **** 			RetCode = RT_SUCC;
 976:Code\UserApp\Protocol/CmdProtocol.c **** 		}
 977:Code\UserApp\Protocol/CmdProtocol.c **** 	}
 978:Code\UserApp\Protocol/CmdProtocol.c **** 	*pT = RetCode;
 979:Code\UserApp\Protocol/CmdProtocol.c **** 	//===ã€ç»“æŸã€‘=== è®¾å¤‡å±‚çš„å¤„ç† ==========================================================
 980:Code\UserApp\Protocol/CmdProtocol.c **** 	
 981:Code\UserApp\Protocol/CmdProtocol.c **** 	Protocol_SendAckPacket(comm_chanle, PACK_RESP, RecBuf[6], DataBuf, 20);
 982:Code\UserApp\Protocol/CmdProtocol.c **** 		
 983:Code\UserApp\Protocol/CmdProtocol.c **** 	if (RetCode == RT_SUCC)
 984:Code\UserApp\Protocol/CmdProtocol.c **** 	{
 985:Code\UserApp\Protocol/CmdProtocol.c **** 		//===ã€å¼€å§‹ã€‘=== è®¾å¤‡å±‚çš„å¤„ç† =========================================================
 986:Code\UserApp\Protocol/CmdProtocol.c **** 	    Led_GreenON();
ARM GAS  C:\Users\Administrator\AppData\Local\Temp\ccexfbaX.s 			page 23


 987:Code\UserApp\Protocol/CmdProtocol.c **** 		DoorOpen();
 988:Code\UserApp\Protocol/CmdProtocol.c **** 		VoicePlay((uint8)Sound_VERIFY_SUCCESS);
 989:Code\UserApp\Protocol/CmdProtocol.c ****         cur_time = (uint32)RTC_GetUnixTime();
 990:Code\UserApp\Protocol/CmdProtocol.c **** 		if (cur_time >= 1483203600)
 991:Code\UserApp\Protocol/CmdProtocol.c **** 		{
 992:Code\UserApp\Protocol/CmdProtocol.c **** 			memcpy(openInfo.card_uid, pUID, CARD_UID_LEN);
 993:Code\UserApp\Protocol/CmdProtocol.c **** 			memcpy(openInfo.open_time, pTime, 4);
 994:Code\UserApp\Protocol/CmdProtocol.c **** 			memset(pTime, 0, 4);
 995:Code\UserApp\Protocol/CmdProtocol.c **** 			memcpy(openInfo.send_time, pTime, 4);
 996:Code\UserApp\Protocol/CmdProtocol.c **** 			Write_OpenInfo(&openInfo, OpenType);
 997:Code\UserApp\Protocol/CmdProtocol.c **** 		}
 998:Code\UserApp\Protocol/CmdProtocol.c **** 		delay_with_ble(1000);
 999:Code\UserApp\Protocol/CmdProtocol.c **** 		DoorClose();
1000:Code\UserApp\Protocol/CmdProtocol.c **** 		Led_SetState(LED_State);
1001:Code\UserApp\Protocol/CmdProtocol.c **** 		
1002:Code\UserApp\Protocol/CmdProtocol.c **** 		
1003:Code\UserApp\Protocol/CmdProtocol.c **** 		//===ã€ç»“æŸã€‘=== è®¾å¤‡å±‚çš„å¤„ç† =========================================================
1004:Code\UserApp\Protocol/CmdProtocol.c **** 		#if 0
1005:Code\UserApp\Protocol/CmdProtocol.c **** 		cur_time = (uint32)RTC_GetUnixTime();
1006:Code\UserApp\Protocol/CmdProtocol.c **** 		if ((cur_time + 300) > next_heartbeat_time)					// ä¸‹ä¸€æ¬¡å¿ƒè·³åœ¨30ç§’ä»¥å†…				//
1007:Code\UserApp\Protocol/CmdProtocol.c **** 		{
1008:Code\UserApp\Protocol/CmdProtocol.c **** 			next_heartbeat_time = cur_time + 300;
1009:Code\UserApp\Protocol/CmdProtocol.c **** 		}
1010:Code\UserApp\Protocol/CmdProtocol.c **** 		#endif
1011:Code\UserApp\Protocol/CmdProtocol.c **** 		if (cur_time >= 1483203600)
1012:Code\UserApp\Protocol/CmdProtocol.c **** 		{
1013:Code\UserApp\Protocol/CmdProtocol.c **** 			if (gprs_state == NORMAL_COMM)
1014:Code\UserApp\Protocol/CmdProtocol.c **** 			{
1015:Code\UserApp\Protocol/CmdProtocol.c **** 				cur_time = (uint32)RTC_GetUnixTime();
1016:Code\UserApp\Protocol/CmdProtocol.c **** 				if(cur_time > next_allupload_time)
1017:Code\UserApp\Protocol/CmdProtocol.c **** 				{
1018:Code\UserApp\Protocol/CmdProtocol.c **** 					next_allupload_time = cur_time + 15;
1019:Code\UserApp\Protocol/CmdProtocol.c **** 					send_upload_open_info(&openInfo, CARD_UID_LEN, OpenType);
1020:Code\UserApp\Protocol/CmdProtocol.c **** 				}
1021:Code\UserApp\Protocol/CmdProtocol.c **** 			}
1022:Code\UserApp\Protocol/CmdProtocol.c **** 		}
1023:Code\UserApp\Protocol/CmdProtocol.c **** 	}
1024:Code\UserApp\Protocol/CmdProtocol.c **** 	else
1025:Code\UserApp\Protocol/CmdProtocol.c **** 	{
1026:Code\UserApp\Protocol/CmdProtocol.c **** 		Card_ErrCount++;
1027:Code\UserApp\Protocol/CmdProtocol.c **** 		Led_RedON();
1028:Code\UserApp\Protocol/CmdProtocol.c **** 		VoicePlay(Sound_VERIFY_FAILURE);
1029:Code\UserApp\Protocol/CmdProtocol.c **** 		delay_with_ble(1000);
1030:Code\UserApp\Protocol/CmdProtocol.c **** 	}
1031:Code\UserApp\Protocol/CmdProtocol.c **** 		
1032:Code\UserApp\Protocol/CmdProtocol.c **** 	DBG_PRINTF("leaving %s\n", __FUNCTION__);
1033:Code\UserApp\Protocol/CmdProtocol.c **** }
1034:Code\UserApp\Protocol/CmdProtocol.c **** 
1035:Code\UserApp\Protocol/CmdProtocol.c **** //*************************************************************************************************
1036:Code\UserApp\Protocol/CmdProtocol.c **** // Function name	: Protocol_CmdSendOpenInfo
1037:Code\UserApp\Protocol/CmdProtocol.c **** // Description		: å¼€é—¨ä¿¡æ¯ä¸ŠæŠ¥åˆ°æœåŠ¡å™¨æŒ‡ä»¤ï¼ˆæ™ºèƒ½é—¨ç¦â†’æœåŠ¡å™¨ï¼‰
1038:Code\UserApp\Protocol/CmdProtocol.c **** // Parameter		: uint8* RecBuf	å‘½ä»¤åŒ…æŒ‡é’ˆ
1039:Code\UserApp\Protocol/CmdProtocol.c **** // Return			: none
1040:Code\UserApp\Protocol/CmdProtocol.c **** //-------------------------------------------------------------------------------------------------
1041:Code\UserApp\Protocol/CmdProtocol.c **** // Info				: 0x07å‘½ä»¤ï¼ŒæœåŠ¡å™¨åº”ç­”
1042:Code\UserApp\Protocol/CmdProtocol.c **** //*************************************************************************************************
1043:Code\UserApp\Protocol/CmdProtocol.c **** static void Protocol_CmdSendOpenInfo(uint8* RecBuf)
ARM GAS  C:\Users\Administrator\AppData\Local\Temp\ccexfbaX.s 			page 24


1044:Code\UserApp\Protocol/CmdProtocol.c **** {
 258              		.loc 1 1044 0
 259              		.cfi_startproc
 260              		@ args = 0, pretend = 0, frame = 8
 261              		@ frame_needed = 0, uses_anonymous_args = 0
 262              	.LVL36:
 263 0000 13B5     		push	{r0, r1, r4, lr}
 264              		.cfi_def_cfa_offset 16
 265              		.cfi_offset 0, -16
 266              		.cfi_offset 1, -12
 267              		.cfi_offset 4, -8
 268              		.cfi_offset 14, -4
1045:Code\UserApp\Protocol/CmdProtocol.c **** 	//===ã€å¼€å§‹ã€‘=== è®¾å¤‡å±‚çš„å¤„ç† ==========================================================
1046:Code\UserApp\Protocol/CmdProtocol.c **** 	uint8 opentime[4] = {0};
1047:Code\UserApp\Protocol/CmdProtocol.c **** 	uint8 pTime[4] = {0};
1048:Code\UserApp\Protocol/CmdProtocol.c **** 	uint8 ret_code = 0;
1049:Code\UserApp\Protocol/CmdProtocol.c **** 	
1050:Code\UserApp\Protocol/CmdProtocol.c **** 	memcpy(opentime, RecBuf + 22, 4);								// å¼€é—¨æ—¶é—´							//
 269              		.loc 1 1050 0
 270 0002 0100     		movs	r1, r0
1044:Code\UserApp\Protocol/CmdProtocol.c **** 	//===ã€å¼€å§‹ã€‘=== è®¾å¤‡å±‚çš„å¤„ç† ==========================================================
 271              		.loc 1 1044 0
 272 0004 0400     		movs	r4, r0
 273              		.loc 1 1050 0
 274 0006 1631     		adds	r1, r1, #22
 275 0008 0422     		movs	r2, #4
 276 000a 6846     		mov	r0, sp
 277              	.LVL37:
 278 000c FFF7FEFF 		bl	memcpy
 279              	.LVL38:
1051:Code\UserApp\Protocol/CmdProtocol.c **** 	memcpy(pTime, RecBuf + 26, 4);									// æ—¶é—´æˆ³ -- è®°ä½œå‘é€æ—¶é—´ 			//
 280              		.loc 1 1051 0
 281 0010 2100     		movs	r1, r4
 282 0012 0422     		movs	r2, #4
 283 0014 1A31     		adds	r1, r1, #26
 284 0016 01A8     		add	r0, sp, #4
 285 0018 FFF7FEFF 		bl	memcpy
 286              	.LVL39:
1052:Code\UserApp\Protocol/CmdProtocol.c **** 	ret_code =  RecBuf[30];											// ç»“æœç 							//
1053:Code\UserApp\Protocol/CmdProtocol.c **** 	
1054:Code\UserApp\Protocol/CmdProtocol.c **** 	if(ret_code == 0x01)
 287              		.loc 1 1054 0
 288 001c A37F     		ldrb	r3, [r4, #30]
 289 001e 012B     		cmp	r3, #1
 290 0020 03D1     		bne	.L8
1055:Code\UserApp\Protocol/CmdProtocol.c **** 		FindAndSet_UploadTime_UploadFlag(opentime, pTime);
 291              		.loc 1 1055 0
 292 0022 01A9     		add	r1, sp, #4
 293 0024 6846     		mov	r0, sp
 294 0026 FFF7FEFF 		bl	FindAndSet_UploadTime_UploadFlag
 295              	.LVL40:
 296              	.L8:
1056:Code\UserApp\Protocol/CmdProtocol.c **** 	else
1057:Code\UserApp\Protocol/CmdProtocol.c **** 	{	
1058:Code\UserApp\Protocol/CmdProtocol.c **** 		//Fail_openinfo
1059:Code\UserApp\Protocol/CmdProtocol.c **** 		DBG_SOFT_PutStr("\r\n 07 reponse err:\r\n");
1060:Code\UserApp\Protocol/CmdProtocol.c **** 		DBG_SOFT_PrintfHex(&ret_code,1,16);		
ARM GAS  C:\Users\Administrator\AppData\Local\Temp\ccexfbaX.s 			page 25


1061:Code\UserApp\Protocol/CmdProtocol.c **** 	}	
1062:Code\UserApp\Protocol/CmdProtocol.c **** 	//===ã€ç»“æŸã€‘=== è®¾å¤‡å±‚çš„å¤„ç† ==========================================================
1063:Code\UserApp\Protocol/CmdProtocol.c **** 	
1064:Code\UserApp\Protocol/CmdProtocol.c **** 	#if DBG_SOFT_ENNABLE
1065:Code\UserApp\Protocol/CmdProtocol.c **** 	test_Flash();
1066:Code\UserApp\Protocol/CmdProtocol.c **** 	#endif
1067:Code\UserApp\Protocol/CmdProtocol.c **** 	
1068:Code\UserApp\Protocol/CmdProtocol.c **** 	next_allupload_time = (uint32)RTC_GetUnixTime(); 				// æ¢å¤å»¶æ—¶ä¸ŠæŠ¥çš„æ—¶å»¶				//
 297              		.loc 1 1068 0
 298 002a FFF7FEFF 		bl	RTC_GetUnixTime
 299              	.LVL41:
 300 002e 014B     		ldr	r3, .L9
1069:Code\UserApp\Protocol/CmdProtocol.c **** 	
1070:Code\UserApp\Protocol/CmdProtocol.c **** 	DBG_PRINTF("leaving %s\n", __FUNCTION__);
1071:Code\UserApp\Protocol/CmdProtocol.c **** } 
 301              		.loc 1 1071 0
 302              		@ sp needed
1068:Code\UserApp\Protocol/CmdProtocol.c **** 	
 303              		.loc 1 1068 0
 304 0030 1860     		str	r0, [r3]
 305              	.LVL42:
 306              		.loc 1 1071 0
 307 0032 13BD     		pop	{r0, r1, r4, pc}
 308              	.L10:
 309              		.align	2
 310              	.L9:
 311 0034 00000000 		.word	next_allupload_time
 312              		.cfi_endproc
 313              	.LFE79:
 314              		.size	Protocol_CmdSendOpenInfo, .-Protocol_CmdSendOpenInfo
 315              		.section	.text.Protocol_CmdTimeCheck,"ax",%progbits
 316              		.align	1
 317              		.code	16
 318              		.thumb_func
 319              		.type	Protocol_CmdTimeCheck, %function
 320              	Protocol_CmdTimeCheck:
 321              	.LFB82:
1072:Code\UserApp\Protocol/CmdProtocol.c **** 
1073:Code\UserApp\Protocol/CmdProtocol.c **** //*************************************************************************************************
1074:Code\UserApp\Protocol/CmdProtocol.c **** // Function name	: Protocol_CmdPluse
1075:Code\UserApp\Protocol/CmdProtocol.c **** // Description		: å¿ƒè·³åŒ…ç»™æœåŠ¡å™¨ï¼ˆæ™ºèƒ½é—¨ç¦â†’æœåŠ¡å™¨ï¼‰
1076:Code\UserApp\Protocol/CmdProtocol.c **** // Parameter		: uint8* RecBuf	å‘½ä»¤åŒ…æŒ‡é’ˆ
1077:Code\UserApp\Protocol/CmdProtocol.c **** // Return			: none
1078:Code\UserApp\Protocol/CmdProtocol.c **** //-------------------------------------------------------------------------------------------------
1079:Code\UserApp\Protocol/CmdProtocol.c **** // Info				: 0x08å‘½ä»¤ï¼ŒæœåŠ¡å™¨åº”ç­”
1080:Code\UserApp\Protocol/CmdProtocol.c **** //*************************************************************************************************
1081:Code\UserApp\Protocol/CmdProtocol.c **** static void Protocol_CmdPluse(uint8* RecBuf)
1082:Code\UserApp\Protocol/CmdProtocol.c **** {
1083:Code\UserApp\Protocol/CmdProtocol.c **** 	uint8 ret;
1084:Code\UserApp\Protocol/CmdProtocol.c **** 	uint8 *pstr = RecBuf;
1085:Code\UserApp\Protocol/CmdProtocol.c **** 	uint8 arr_adjtime[4] = {0};
1086:Code\UserApp\Protocol/CmdProtocol.c **** 	uint16 nCmdPackLen = (RecBuf[2] << 8) + RecBuf[3] + 4;
1087:Code\UserApp\Protocol/CmdProtocol.c **** 	
1088:Code\UserApp\Protocol/CmdProtocol.c **** 	//===ã€å¼€å§‹ã€‘=== è®¾å¤‡å±‚çš„å¤„ç† ==========================================================
1089:Code\UserApp\Protocol/CmdProtocol.c **** 	heartbeat_SendCount = 0;										// æ”¶åˆ°ï¼Œé”™è¯¯æ¬¡æ•°æ¸…é›¶				//
1090:Code\UserApp\Protocol/CmdProtocol.c **** 	ret = *(pstr + nCmdPackLen - 3);
1091:Code\UserApp\Protocol/CmdProtocol.c **** 	if (ret == RT_SUCC)
ARM GAS  C:\Users\Administrator\AppData\Local\Temp\ccexfbaX.s 			page 26


1092:Code\UserApp\Protocol/CmdProtocol.c **** 	{
1093:Code\UserApp\Protocol/CmdProtocol.c **** 		pstr += 17;
1094:Code\UserApp\Protocol/CmdProtocol.c **** 		memcpy(arr_adjtime, pstr, 4);
1095:Code\UserApp\Protocol/CmdProtocol.c **** 		SetSysRTCTime(arr_adjtime);
1096:Code\UserApp\Protocol/CmdProtocol.c **** 		cur_time = (uint32)RTC_GetUnixTime();						// æ›´æ–°æ—¶é—´							//
1097:Code\UserApp\Protocol/CmdProtocol.c **** 		next_heartbeat_time = cur_time + 300;
1098:Code\UserApp\Protocol/CmdProtocol.c **** 	}
1099:Code\UserApp\Protocol/CmdProtocol.c **** 	Updatealarm_check();											// ä¸ŠæŠ¥æ˜¯å¦å‡çº§æˆåŠŸ										
1100:Code\UserApp\Protocol/CmdProtocol.c **** 	
1101:Code\UserApp\Protocol/CmdProtocol.c **** 	//===ã€ç»“æŸã€‘=== è®¾å¤‡å±‚çš„å¤„ç† ==========================================================
1102:Code\UserApp\Protocol/CmdProtocol.c **** 	
1103:Code\UserApp\Protocol/CmdProtocol.c **** 	
1104:Code\UserApp\Protocol/CmdProtocol.c **** 	DBG_PRINTF("leaving %s\n", __FUNCTION__);
1105:Code\UserApp\Protocol/CmdProtocol.c **** }  
1106:Code\UserApp\Protocol/CmdProtocol.c **** 
1107:Code\UserApp\Protocol/CmdProtocol.c **** //*************************************************************************************************
1108:Code\UserApp\Protocol/CmdProtocol.c **** // Function name	: Protocol_CmdClearUID
1109:Code\UserApp\Protocol/CmdProtocol.c **** // Description		: æ¸…ç©ºæ™ºèƒ½é—¨ç¦æ‰€æœ‰UID å’Œæœ‰æ•ˆæœŸæŒ‡ä»¤
1110:Code\UserApp\Protocol/CmdProtocol.c **** // Parameter		: uint8* RecBuf	å‘½ä»¤åŒ…æŒ‡é’ˆ
1111:Code\UserApp\Protocol/CmdProtocol.c **** // Return			: none
1112:Code\UserApp\Protocol/CmdProtocol.c **** //-------------------------------------------------------------------------------------------------
1113:Code\UserApp\Protocol/CmdProtocol.c **** // Info				: 0x09å‘½ä»¤ï¼ŒæœåŠ¡å™¨å‘é€
1114:Code\UserApp\Protocol/CmdProtocol.c **** //*************************************************************************************************
1115:Code\UserApp\Protocol/CmdProtocol.c **** static void Protocol_CmdClearUID(uint8* RecBuf)
1116:Code\UserApp\Protocol/CmdProtocol.c **** {
1117:Code\UserApp\Protocol/CmdProtocol.c **** 	uint8 RetCode = RT_SUCC;
1118:Code\UserApp\Protocol/CmdProtocol.c **** 	uint8 DataBuf[64];
1119:Code\UserApp\Protocol/CmdProtocol.c **** 	uint8 *pT = DataBuf;
1120:Code\UserApp\Protocol/CmdProtocol.c **** 	uint8 comm_chanle = RecBuf[4];								// å–å‡ºä¿¡é“å€¼							//
1121:Code\UserApp\Protocol/CmdProtocol.c **** 		 
1122:Code\UserApp\Protocol/CmdProtocol.c **** 	memset(pT, 0, sizeof(DataBuf));
1123:Code\UserApp\Protocol/CmdProtocol.c **** 	memcpy(pT, RecBuf + 7, 10);									// å–å‡ºMACåœ°å€å’Œæ—¶é—´æˆ³					//
1124:Code\UserApp\Protocol/CmdProtocol.c **** 	pT += 10;
1125:Code\UserApp\Protocol/CmdProtocol.c **** 
1126:Code\UserApp\Protocol/CmdProtocol.c **** 	//===ã€å¼€å§‹ã€‘=== è®¾å¤‡å±‚çš„å¤„ç† ==========================================================
1127:Code\UserApp\Protocol/CmdProtocol.c **** 	if (TRUE == UserData_CLR_User())
1128:Code\UserApp\Protocol/CmdProtocol.c **** 	{
1129:Code\UserApp\Protocol/CmdProtocol.c **** 		RetCode = RT_SUCC;
1130:Code\UserApp\Protocol/CmdProtocol.c **** 		VoicePlay((uint8)Sound_EMPTY_SUCCESS);
1131:Code\UserApp\Protocol/CmdProtocol.c **** 	}
1132:Code\UserApp\Protocol/CmdProtocol.c **** 	else
1133:Code\UserApp\Protocol/CmdProtocol.c **** 	{
1134:Code\UserApp\Protocol/CmdProtocol.c **** 		RetCode = RT_FAIL;
1135:Code\UserApp\Protocol/CmdProtocol.c **** 		VoicePlay((uint8)Sound_EMPTY_FAILURE);
1136:Code\UserApp\Protocol/CmdProtocol.c **** 	}
1137:Code\UserApp\Protocol/CmdProtocol.c **** 	//===ã€ç»“æŸã€‘=== è®¾å¤‡å±‚çš„å¤„ç† ==========================================================
1138:Code\UserApp\Protocol/CmdProtocol.c **** 
1139:Code\UserApp\Protocol/CmdProtocol.c **** 	*pT = RetCode;
1140:Code\UserApp\Protocol/CmdProtocol.c **** 	Protocol_SendAckPacket(comm_chanle, PACK_RESP, RecBuf[6], DataBuf, 11);
1141:Code\UserApp\Protocol/CmdProtocol.c **** 	
1142:Code\UserApp\Protocol/CmdProtocol.c **** 	#if DBG_SOFT_ENNABLE
1143:Code\UserApp\Protocol/CmdProtocol.c **** 	Clear_AllOPeninfo();
1144:Code\UserApp\Protocol/CmdProtocol.c **** 	#endif
1145:Code\UserApp\Protocol/CmdProtocol.c **** 	
1146:Code\UserApp\Protocol/CmdProtocol.c **** 	DBG_PRINTF("leaving %s\n", __FUNCTION__);
1147:Code\UserApp\Protocol/CmdProtocol.c **** }  
1148:Code\UserApp\Protocol/CmdProtocol.c **** 
ARM GAS  C:\Users\Administrator\AppData\Local\Temp\ccexfbaX.s 			page 27


1149:Code\UserApp\Protocol/CmdProtocol.c **** //*************************************************************************************************
1150:Code\UserApp\Protocol/CmdProtocol.c **** // Function name	: Protocol_CmdTimeCheck
1151:Code\UserApp\Protocol/CmdProtocol.c **** // Description		: æ—¶é—´æ ¡å‡†è¯·æ±‚ï¼ˆæ™ºèƒ½é—¨ç¦â†’æœåŠ¡å™¨ï¼‰
1152:Code\UserApp\Protocol/CmdProtocol.c **** // Parameter		: uint8* RecBuf	å‘½ä»¤åŒ…æŒ‡é’ˆ
1153:Code\UserApp\Protocol/CmdProtocol.c **** // Return			: none
1154:Code\UserApp\Protocol/CmdProtocol.c **** //-------------------------------------------------------------------------------------------------
1155:Code\UserApp\Protocol/CmdProtocol.c **** // Info				: 0x0Aå‘½ä»¤ï¼ŒæœåŠ¡å™¨åº”ç­”
1156:Code\UserApp\Protocol/CmdProtocol.c **** //*************************************************************************************************
1157:Code\UserApp\Protocol/CmdProtocol.c **** static void Protocol_CmdTimeCheck(uint8* RecBuf)
1158:Code\UserApp\Protocol/CmdProtocol.c **** {	
 322              		.loc 1 1158 0
 323              		.cfi_startproc
 324              		@ args = 0, pretend = 0, frame = 8
 325              		@ frame_needed = 0, uses_anonymous_args = 0
 326              	.LVL43:
 327 0000 07B5     		push	{r0, r1, r2, lr}
 328              		.cfi_def_cfa_offset 16
 329              		.cfi_offset 0, -16
 330              		.cfi_offset 1, -12
 331              		.cfi_offset 2, -8
 332              		.cfi_offset 14, -4
1159:Code\UserApp\Protocol/CmdProtocol.c **** 	uint8 *pstr = RecBuf;
1160:Code\UserApp\Protocol/CmdProtocol.c **** 	uint8 arr_adjtime[4] = {0};
1161:Code\UserApp\Protocol/CmdProtocol.c **** 	
1162:Code\UserApp\Protocol/CmdProtocol.c **** 	//===ã€å¼€å§‹ã€‘=== è®¾å¤‡å±‚çš„å¤„ç† ==========================================================
1163:Code\UserApp\Protocol/CmdProtocol.c **** 	pstr += 17;
1164:Code\UserApp\Protocol/CmdProtocol.c **** 	memcpy(arr_adjtime, pstr, 4);
 333              		.loc 1 1164 0
 334 0002 0100     		movs	r1, r0
 335 0004 0422     		movs	r2, #4
 336 0006 1131     		adds	r1, r1, #17
 337              	.LVL44:
 338 0008 01A8     		add	r0, sp, #4
 339              	.LVL45:
 340 000a FFF7FEFF 		bl	memcpy
 341              	.LVL46:
1165:Code\UserApp\Protocol/CmdProtocol.c **** 	SetSysRTCTime(arr_adjtime);
 342              		.loc 1 1165 0
 343 000e 01A8     		add	r0, sp, #4
 344 0010 FFF7FEFF 		bl	SetSysRTCTime
 345              	.LVL47:
1166:Code\UserApp\Protocol/CmdProtocol.c **** 	cur_time = (uint32)RTC_GetUnixTime();
 346              		.loc 1 1166 0
 347 0014 FFF7FEFF 		bl	RTC_GetUnixTime
 348              	.LVL48:
 349 0018 014B     		ldr	r3, .L12
1167:Code\UserApp\Protocol/CmdProtocol.c **** 	//===ã€ç»“æŸã€‘=== è®¾å¤‡å±‚çš„å¤„ç† ==========================================================
1168:Code\UserApp\Protocol/CmdProtocol.c ****  
1169:Code\UserApp\Protocol/CmdProtocol.c **** 	DBG_PRINTF("leaving %s\n", __FUNCTION__);
1170:Code\UserApp\Protocol/CmdProtocol.c **** }  
 350              		.loc 1 1170 0
 351              		@ sp needed
1166:Code\UserApp\Protocol/CmdProtocol.c **** 	cur_time = (uint32)RTC_GetUnixTime();
 352              		.loc 1 1166 0
 353 001a 1860     		str	r0, [r3]
 354              		.loc 1 1170 0
 355 001c 07BD     		pop	{r0, r1, r2, pc}
ARM GAS  C:\Users\Administrator\AppData\Local\Temp\ccexfbaX.s 			page 28


 356              	.L13:
 357 001e C046     		.align	2
 358              	.L12:
 359 0020 00000000 		.word	cur_time
 360              		.cfi_endproc
 361              	.LFE82:
 362              		.size	Protocol_CmdTimeCheck, .-Protocol_CmdTimeCheck
 363              		.section	.text.Protocol_CmdPluse,"ax",%progbits
 364              		.align	1
 365              		.code	16
 366              		.thumb_func
 367              		.type	Protocol_CmdPluse, %function
 368              	Protocol_CmdPluse:
 369              	.LFB80:
1082:Code\UserApp\Protocol/CmdProtocol.c **** 	uint8 ret;
 370              		.loc 1 1082 0
 371              		.cfi_startproc
 372              		@ args = 0, pretend = 0, frame = 8
 373              		@ frame_needed = 0, uses_anonymous_args = 0
 374              	.LVL49:
 375 0000 07B5     		push	{r0, r1, r2, lr}
 376              		.cfi_def_cfa_offset 16
 377              		.cfi_offset 0, -16
 378              		.cfi_offset 1, -12
 379              		.cfi_offset 2, -8
 380              		.cfi_offset 14, -4
1085:Code\UserApp\Protocol/CmdProtocol.c **** 	uint16 nCmdPackLen = (RecBuf[2] << 8) + RecBuf[3] + 4;
 381              		.loc 1 1085 0
 382 0002 0021     		movs	r1, #0
1086:Code\UserApp\Protocol/CmdProtocol.c **** 	
 383              		.loc 1 1086 0
 384 0004 8378     		ldrb	r3, [r0, #2]
 385 0006 C278     		ldrb	r2, [r0, #3]
 386 0008 1B02     		lsls	r3, r3, #8
 387 000a 0432     		adds	r2, r2, #4
 388 000c 9B18     		adds	r3, r3, r2
 389 000e 9BB2     		uxth	r3, r3
 390              	.LVL50:
1089:Code\UserApp\Protocol/CmdProtocol.c **** 	ret = *(pstr + nCmdPackLen - 3);
 391              		.loc 1 1089 0
 392 0010 0D4A     		ldr	r2, .L16
1090:Code\UserApp\Protocol/CmdProtocol.c **** 	if (ret == RT_SUCC)
 393              		.loc 1 1090 0
 394 0012 C318     		adds	r3, r0, r3
 395              	.LVL51:
1089:Code\UserApp\Protocol/CmdProtocol.c **** 	ret = *(pstr + nCmdPackLen - 3);
 396              		.loc 1 1089 0
 397 0014 1170     		strb	r1, [r2]
 398              	.LVL52:
1090:Code\UserApp\Protocol/CmdProtocol.c **** 	if (ret == RT_SUCC)
 399              		.loc 1 1090 0
 400 0016 033B     		subs	r3, r3, #3
1091:Code\UserApp\Protocol/CmdProtocol.c **** 	{
 401              		.loc 1 1091 0
 402 0018 1B78     		ldrb	r3, [r3]
1085:Code\UserApp\Protocol/CmdProtocol.c **** 	uint16 nCmdPackLen = (RecBuf[2] << 8) + RecBuf[3] + 4;
 403              		.loc 1 1085 0
ARM GAS  C:\Users\Administrator\AppData\Local\Temp\ccexfbaX.s 			page 29


 404 001a 0191     		str	r1, [sp, #4]
1091:Code\UserApp\Protocol/CmdProtocol.c **** 	{
 405              		.loc 1 1091 0
 406 001c 012B     		cmp	r3, #1
 407 001e 10D1     		bne	.L15
 408              	.LVL53:
1094:Code\UserApp\Protocol/CmdProtocol.c **** 		SetSysRTCTime(arr_adjtime);
 409              		.loc 1 1094 0
 410 0020 0100     		movs	r1, r0
 411 0022 0422     		movs	r2, #4
 412 0024 1131     		adds	r1, r1, #17
 413              	.LVL54:
 414 0026 01A8     		add	r0, sp, #4
 415              	.LVL55:
 416 0028 FFF7FEFF 		bl	memcpy
 417              	.LVL56:
1095:Code\UserApp\Protocol/CmdProtocol.c **** 		cur_time = (uint32)RTC_GetUnixTime();						// æ›´æ–°æ—¶é—´							//
 418              		.loc 1 1095 0
 419 002c 01A8     		add	r0, sp, #4
 420 002e FFF7FEFF 		bl	SetSysRTCTime
 421              	.LVL57:
1096:Code\UserApp\Protocol/CmdProtocol.c **** 		next_heartbeat_time = cur_time + 300;
 422              		.loc 1 1096 0
 423 0032 FFF7FEFF 		bl	RTC_GetUnixTime
 424              	.LVL58:
 425 0036 054B     		ldr	r3, .L16+4
 426 0038 1860     		str	r0, [r3]
1097:Code\UserApp\Protocol/CmdProtocol.c **** 	}
 427              		.loc 1 1097 0
 428 003a 2D30     		adds	r0, r0, #45
 429 003c 044B     		ldr	r3, .L16+8
 430 003e FF30     		adds	r0, r0, #255
 431 0040 1860     		str	r0, [r3]
 432              	.LVL59:
 433              	.L15:
1099:Code\UserApp\Protocol/CmdProtocol.c **** 	
 434              		.loc 1 1099 0
 435 0042 FFF7FEFF 		bl	Updatealarm_check
 436              	.LVL60:
1105:Code\UserApp\Protocol/CmdProtocol.c **** 
 437              		.loc 1 1105 0
 438              		@ sp needed
 439 0046 07BD     		pop	{r0, r1, r2, pc}
 440              	.L17:
 441              		.align	2
 442              	.L16:
 443 0048 00000000 		.word	heartbeat_SendCount
 444 004c 00000000 		.word	cur_time
 445 0050 00000000 		.word	next_heartbeat_time
 446              		.cfi_endproc
 447              	.LFE80:
 448              		.size	Protocol_CmdPluse, .-Protocol_CmdPluse
 449              		.section	.text.Protocol_CmdManufac,"ax",%progbits
 450              		.align	1
 451              		.code	16
 452              		.thumb_func
 453              		.type	Protocol_CmdManufac, %function
ARM GAS  C:\Users\Administrator\AppData\Local\Temp\ccexfbaX.s 			page 30


 454              	Protocol_CmdManufac:
 455              	.LFB89:
1171:Code\UserApp\Protocol/CmdProtocol.c **** 
1172:Code\UserApp\Protocol/CmdProtocol.c **** //*************************************************************************************************
1173:Code\UserApp\Protocol/CmdProtocol.c **** // Function name	: Protocol_CmdSendWarnInfo
1174:Code\UserApp\Protocol/CmdProtocol.c **** // Description		: æŠ¥è­¦ä¿¡æ¯ä¸ŠæŠ¥åˆ°æœåŠ¡å™¨æŒ‡ä»¤ï¼ˆæ™ºèƒ½é—¨ç¦â†’æœåŠ¡å™¨ï¼‰
1175:Code\UserApp\Protocol/CmdProtocol.c **** // Parameter		: uint8* RecBuf	å‘½ä»¤åŒ…æŒ‡é’ˆ
1176:Code\UserApp\Protocol/CmdProtocol.c **** // Return			: none
1177:Code\UserApp\Protocol/CmdProtocol.c **** //-------------------------------------------------------------------------------------------------
1178:Code\UserApp\Protocol/CmdProtocol.c **** // Info				: 0x0Bå‘½ä»¤ï¼ŒæœåŠ¡å™¨åº”ç­”
1179:Code\UserApp\Protocol/CmdProtocol.c **** //*************************************************************************************************
1180:Code\UserApp\Protocol/CmdProtocol.c **** static void Protocol_CmdSendWarnInfo(uint8* RecBuf)
1181:Code\UserApp\Protocol/CmdProtocol.c **** {
1182:Code\UserApp\Protocol/CmdProtocol.c **** 	uint8 *pstr = RecBuf;
1183:Code\UserApp\Protocol/CmdProtocol.c **** 	uint8 nCmdPackLen= (RecBuf[2] << 8) + RecBuf[3] + 4;
1184:Code\UserApp\Protocol/CmdProtocol.c **** 
1185:Code\UserApp\Protocol/CmdProtocol.c **** 	//===ã€å¼€å§‹ã€‘=== è®¾å¤‡å±‚çš„å¤„ç† ==========================================================
1186:Code\UserApp\Protocol/CmdProtocol.c **** 	//
1187:Code\UserApp\Protocol/CmdProtocol.c **** 	//æ£€æŸ¥æŠ¥è­¦çš„åº”ç­”åŒ…æ˜¯å¦æˆåŠŸ,å¦‚å¤±è´¥éœ€é‡æ–°ä¸ŠæŠ¥ï¼Œæš‚æ—¶ä¸åš
1188:Code\UserApp\Protocol/CmdProtocol.c **** 	//
1189:Code\UserApp\Protocol/CmdProtocol.c **** 	//===ã€å¼€å§‹ã€‘=== è®¾å¤‡å±‚çš„å¤„ç† ==========================================================
1190:Code\UserApp\Protocol/CmdProtocol.c **** 		
1191:Code\UserApp\Protocol/CmdProtocol.c **** 	DBG_PRINTF("leaving %s\n", __FUNCTION__);
1192:Code\UserApp\Protocol/CmdProtocol.c **** }  
1193:Code\UserApp\Protocol/CmdProtocol.c **** 
1194:Code\UserApp\Protocol/CmdProtocol.c **** //*************************************************************************************************
1195:Code\UserApp\Protocol/CmdProtocol.c **** // Function name	: Protocol_CmdReadInfo
1196:Code\UserApp\Protocol/CmdProtocol.c **** // Description		: è¯»å–ç»™å®šæ—¶é—´èŒƒå›´å†…å¼€é—¨æ—¥å¿—æŒ‡ä»¤
1197:Code\UserApp\Protocol/CmdProtocol.c **** // Parameter		: uint8* RecBuf	å‘½ä»¤åŒ…æŒ‡é’ˆ
1198:Code\UserApp\Protocol/CmdProtocol.c **** // Return			: none
1199:Code\UserApp\Protocol/CmdProtocol.c **** //-------------------------------------------------------------------------------------------------
1200:Code\UserApp\Protocol/CmdProtocol.c **** // Info				: 0x0Cå‘½ä»¤ï¼ŒæœåŠ¡å™¨å‘é€
1201:Code\UserApp\Protocol/CmdProtocol.c **** //uint16 UploadQty;
1202:Code\UserApp\Protocol/CmdProtocol.c **** //uint16 UploadStartnum;
1203:Code\UserApp\Protocol/CmdProtocol.c **** //*************************************************************************************************
1204:Code\UserApp\Protocol/CmdProtocol.c **** static void Protocol_CmdReadInfo(uint8* RecBuf)
1205:Code\UserApp\Protocol/CmdProtocol.c **** {
1206:Code\UserApp\Protocol/CmdProtocol.c **** 	uint8 i;
1207:Code\UserApp\Protocol/CmdProtocol.c **** 	uint8 RetCode = RT_SUCC;
1208:Code\UserApp\Protocol/CmdProtocol.c **** 	uint8 DataBuf[256];
1209:Code\UserApp\Protocol/CmdProtocol.c **** 	uint8 *pT = DataBuf;
1210:Code\UserApp\Protocol/CmdProtocol.c **** 	uint8 comm_chanle = RecBuf[4];								// å–å‡ºä¿¡é“å€¼							//
1211:Code\UserApp\Protocol/CmdProtocol.c **** 	uint8 data_openinfo[256];
1212:Code\UserApp\Protocol/CmdProtocol.c **** 	uint8  start_t[4];
1213:Code\UserApp\Protocol/CmdProtocol.c **** 	uint8  end_t[4];
1214:Code\UserApp\Protocol/CmdProtocol.c **** 	uint32 start_time;
1215:Code\UserApp\Protocol/CmdProtocol.c **** 	uint32 end_time;
1216:Code\UserApp\Protocol/CmdProtocol.c **** 	uint16 app_group = 0;
1217:Code\UserApp\Protocol/CmdProtocol.c **** 	uint16 nCmdPackLen = (RecBuf[2] << 8) + RecBuf[3] + 4;
1218:Code\UserApp\Protocol/CmdProtocol.c **** 	uint16 tUploadQty;											// å­˜æ”¾æœ¬æ¬¡å‘é€çš„é•¿åº¦					//
1219:Code\UserApp\Protocol/CmdProtocol.c **** 	uint8 cmd;
1220:Code\UserApp\Protocol/CmdProtocol.c **** 	
1221:Code\UserApp\Protocol/CmdProtocol.c ****     memset(pT, 0, sizeof(DataBuf));
1222:Code\UserApp\Protocol/CmdProtocol.c **** 	cmd = RecBuf[6];
1223:Code\UserApp\Protocol/CmdProtocol.c **** 	memcpy(pT, RecBuf + 7, 6);								// å–å‡ºMACåœ°å€å’Œæ—¶é—´æˆ³					//
1224:Code\UserApp\Protocol/CmdProtocol.c ****     pT += 6;
1225:Code\UserApp\Protocol/CmdProtocol.c **** 	
ARM GAS  C:\Users\Administrator\AppData\Local\Temp\ccexfbaX.s 			page 31


1226:Code\UserApp\Protocol/CmdProtocol.c **** 	//===ã€å¼€å§‹ã€‘=== è®¾å¤‡å±‚çš„å¤„ç† ==========================================================
1227:Code\UserApp\Protocol/CmdProtocol.c **** 	app_group = (RecBuf[21] << 8) + RecBuf[22];					// ç»„å·									//
1228:Code\UserApp\Protocol/CmdProtocol.c **** 	
1229:Code\UserApp\Protocol/CmdProtocol.c **** 	if (app_group == 1)
1230:Code\UserApp\Protocol/CmdProtocol.c **** 	{
1231:Code\UserApp\Protocol/CmdProtocol.c **** 		memcpy(start_t, RecBuf + 13, 4);           				// å–å§‹æœ«æ—¶é—´							//
1232:Code\UserApp\Protocol/CmdProtocol.c **** 		memcpy(end_t, RecBuf + 13 + 4, 4);
1233:Code\UserApp\Protocol/CmdProtocol.c **** 		start_time = BYTE2LONG(start_t[0], start_t[1], start_t[2], start_t[3]);
1234:Code\UserApp\Protocol/CmdProtocol.c **** 		end_time = BYTE2LONG(end_t[0], end_t[1], end_t[2], end_t[3]);
1235:Code\UserApp\Protocol/CmdProtocol.c **** 		
1236:Code\UserApp\Protocol/CmdProtocol.c **** 		if(start_time > end_time)
1237:Code\UserApp\Protocol/CmdProtocol.c **** 		{
1238:Code\UserApp\Protocol/CmdProtocol.c **** 			RetCode = RT_StartOrEnd_ERR;
1239:Code\UserApp\Protocol/CmdProtocol.c **** 		}
1240:Code\UserApp\Protocol/CmdProtocol.c **** 		
1241:Code\UserApp\Protocol/CmdProtocol.c **** 		UploadQty = Find_Open_ValidQty(start_time, end_time);
1242:Code\UserApp\Protocol/CmdProtocol.c **** 		if (UploadQty > 0)
1243:Code\UserApp\Protocol/CmdProtocol.c **** 		{
1244:Code\UserApp\Protocol/CmdProtocol.c **** 			UploadStartnum = Find_Open_StartNum(start_time);
1245:Code\UserApp\Protocol/CmdProtocol.c **** 		}
1246:Code\UserApp\Protocol/CmdProtocol.c **** 	}
1247:Code\UserApp\Protocol/CmdProtocol.c **** 	
1248:Code\UserApp\Protocol/CmdProtocol.c **** 	if (UploadQty <= OPENDATA_UPPAGE_LEN)
1249:Code\UserApp\Protocol/CmdProtocol.c **** 	{
1250:Code\UserApp\Protocol/CmdProtocol.c **** 		*pT++ = 0;												// ç»„å·									//
1251:Code\UserApp\Protocol/CmdProtocol.c **** 		*pT++ = 0;
1252:Code\UserApp\Protocol/CmdProtocol.c **** 		
1253:Code\UserApp\Protocol/CmdProtocol.c **** 		tUploadQty = UploadQty;
1254:Code\UserApp\Protocol/CmdProtocol.c **** 		memcpy(pT, &tUploadQty, 1);								// æœ¬æ¬¡å‘é€æ•°é‡							//
1255:Code\UserApp\Protocol/CmdProtocol.c **** 		pT += 1;
1256:Code\UserApp\Protocol/CmdProtocol.c **** 		
1257:Code\UserApp\Protocol/CmdProtocol.c **** 		for (i = 0; i < tUploadQty; i++)
1258:Code\UserApp\Protocol/CmdProtocol.c **** 		{
1259:Code\UserApp\Protocol/CmdProtocol.c **** 		    Get_Open_Info(UploadStartnum + i, 1, data_openinfo);
1260:Code\UserApp\Protocol/CmdProtocol.c **** 		    memcpy(pT, data_openinfo, 16);
1261:Code\UserApp\Protocol/CmdProtocol.c **** 		    pT += 16;
1262:Code\UserApp\Protocol/CmdProtocol.c **** 			*pT++ = Read_Open_Type(UploadStartnum + i);			// å¼€é—¨æ–¹å¼								//
1263:Code\UserApp\Protocol/CmdProtocol.c **** 		}
1264:Code\UserApp\Protocol/CmdProtocol.c **** 		UploadQty = 0;
1265:Code\UserApp\Protocol/CmdProtocol.c **** 		UploadStartnum = 0;
1266:Code\UserApp\Protocol/CmdProtocol.c **** 	}
1267:Code\UserApp\Protocol/CmdProtocol.c **** 	else
1268:Code\UserApp\Protocol/CmdProtocol.c **** 	{
1269:Code\UserApp\Protocol/CmdProtocol.c **** 		*pT++ = RecBuf[21];										// ç»„å·									//
1270:Code\UserApp\Protocol/CmdProtocol.c **** 		*pT++ = RecBuf[22];
1271:Code\UserApp\Protocol/CmdProtocol.c **** 		
1272:Code\UserApp\Protocol/CmdProtocol.c **** 		tUploadQty = OPENDATA_UPPAGE_LEN;
1273:Code\UserApp\Protocol/CmdProtocol.c **** 		*pT++ = OPENDATA_UPPAGE_LEN;							// æœ¬æ¬¡å‘é€æ•°é‡							//
1274:Code\UserApp\Protocol/CmdProtocol.c **** 		
1275:Code\UserApp\Protocol/CmdProtocol.c **** 		for (i = 0; i < OPENDATA_UPPAGE_LEN; i++)
1276:Code\UserApp\Protocol/CmdProtocol.c **** 		{
1277:Code\UserApp\Protocol/CmdProtocol.c **** 		    Get_Open_Info(UploadStartnum + i, 1, data_openinfo);
1278:Code\UserApp\Protocol/CmdProtocol.c **** 		    memcpy(pT, data_openinfo, 16);
1279:Code\UserApp\Protocol/CmdProtocol.c **** 		    pT += 16;
1280:Code\UserApp\Protocol/CmdProtocol.c **** 			*pT++ = Read_Open_Type(UploadStartnum + i);			// å¼€é—¨æ–¹å¼								//
1281:Code\UserApp\Protocol/CmdProtocol.c **** 		}
1282:Code\UserApp\Protocol/CmdProtocol.c **** 		UploadQty -= tUploadQty;
ARM GAS  C:\Users\Administrator\AppData\Local\Temp\ccexfbaX.s 			page 32


1283:Code\UserApp\Protocol/CmdProtocol.c **** 		UploadStartnum += tUploadQty;
1284:Code\UserApp\Protocol/CmdProtocol.c **** 	}
1285:Code\UserApp\Protocol/CmdProtocol.c **** 	
1286:Code\UserApp\Protocol/CmdProtocol.c **** 	memcpy(pT, RecBuf + nCmdPackLen - 6, 4);					// æ—¶é—´æˆ³								//
1287:Code\UserApp\Protocol/CmdProtocol.c **** 	pT += 4;        
1288:Code\UserApp\Protocol/CmdProtocol.c **** 
1289:Code\UserApp\Protocol/CmdProtocol.c **** 	*pT = RetCode;												// ç»“æœç 								//
1290:Code\UserApp\Protocol/CmdProtocol.c **** 	
1291:Code\UserApp\Protocol/CmdProtocol.c **** 	Protocol_SendAckPacket(comm_chanle, PACK_RESP, cmd, DataBuf, 14 + (tUploadQty * (1 + sizeof(open_d
1292:Code\UserApp\Protocol/CmdProtocol.c **** 	
1293:Code\UserApp\Protocol/CmdProtocol.c **** 	#if DBG_SOFT_ENNABLE
1294:Code\UserApp\Protocol/CmdProtocol.c **** 	test_Flash();
1295:Code\UserApp\Protocol/CmdProtocol.c **** 	#endif
1296:Code\UserApp\Protocol/CmdProtocol.c **** 	
1297:Code\UserApp\Protocol/CmdProtocol.c **** 	DBG_PRINTF("leaving %s\n", __FUNCTION__);
1298:Code\UserApp\Protocol/CmdProtocol.c **** }
1299:Code\UserApp\Protocol/CmdProtocol.c **** 
1300:Code\UserApp\Protocol/CmdProtocol.c **** //*************************************************************************************************
1301:Code\UserApp\Protocol/CmdProtocol.c **** // Function name	: Protocol_CmdRemoteUpdate
1302:Code\UserApp\Protocol/CmdProtocol.c **** // Description		: æœåŠ¡å™¨å‘æ™ºèƒ½é—¨ç¦å‘é€è¿œç¨‹å‡çº§æŒ‡ä»¤ï¼ˆæœåŠ¡å™¨â†’æ™ºèƒ½é—¨ç¦ï¼‰
1303:Code\UserApp\Protocol/CmdProtocol.c **** // Parameter		: uint8* RecBuf	å‘½ä»¤åŒ…æŒ‡é’ˆ
1304:Code\UserApp\Protocol/CmdProtocol.c **** // Return			: none
1305:Code\UserApp\Protocol/CmdProtocol.c **** //-------------------------------------------------------------------------------------------------
1306:Code\UserApp\Protocol/CmdProtocol.c **** // Info				: 0x0Då‘½ä»¤ï¼ŒæœåŠ¡å™¨å‘é€
1307:Code\UserApp\Protocol/CmdProtocol.c **** //*************************************************************************************************
1308:Code\UserApp\Protocol/CmdProtocol.c **** static void Protocol_CmdRemoteUpdate(uint8* RecBuf)
1309:Code\UserApp\Protocol/CmdProtocol.c **** {
1310:Code\UserApp\Protocol/CmdProtocol.c **** 	uint8 RetCode = RT_SUCC;
1311:Code\UserApp\Protocol/CmdProtocol.c **** 	uint8 DataBuf[64];
1312:Code\UserApp\Protocol/CmdProtocol.c **** 	uint8 *pT = DataBuf;
1313:Code\UserApp\Protocol/CmdProtocol.c **** 	uint8 comm_chanle = RecBuf[4];								// å–å‡ºä¿¡é“å€¼							//
1314:Code\UserApp\Protocol/CmdProtocol.c **** 	uint8 port_str[4];
1315:Code\UserApp\Protocol/CmdProtocol.c **** 	uint16 port_hex;
1316:Code\UserApp\Protocol/CmdProtocol.c **** 	
1317:Code\UserApp\Protocol/CmdProtocol.c **** 	memcpy(pT, RecBuf + 7, 6);									// å–å‡ºMACåœ°å€ï¼Œç†è®ºåº”åŠ ä¸ŠMACæ ¡éªŒ		//
1318:Code\UserApp\Protocol/CmdProtocol.c **** 	pT += 6;
1319:Code\UserApp\Protocol/CmdProtocol.c **** 	
1320:Code\UserApp\Protocol/CmdProtocol.c **** 	memcpy(domain, RecBuf + 13, 200);							// 200å­—èŠ‚IPæˆ–åŸŸå						//
1321:Code\UserApp\Protocol/CmdProtocol.c **** 	memcpy((char *)update_ip, (char *)domain, strlen((char *)domain));
1322:Code\UserApp\Protocol/CmdProtocol.c **** 	
1323:Code\UserApp\Protocol/CmdProtocol.c **** 	port_hex = (RecBuf[213] << 8) + RecBuf[214];				// ç«¯å£å·								//
1324:Code\UserApp\Protocol/CmdProtocol.c **** 	port_str[0]= port_hex/1000 + '0';
1325:Code\UserApp\Protocol/CmdProtocol.c **** 	port_str[1]= port_hex%1000/100 + '0';
1326:Code\UserApp\Protocol/CmdProtocol.c **** 	port_str[2]= port_hex%100/10 + '0';
1327:Code\UserApp\Protocol/CmdProtocol.c **** 	port_str[3]= port_hex%10 + '0';
1328:Code\UserApp\Protocol/CmdProtocol.c **** 	memcpy(update_port, port_str, 4);
1329:Code\UserApp\Protocol/CmdProtocol.c **** 	
1330:Code\UserApp\Protocol/CmdProtocol.c **** 	*pT++ = RecBuf[215];										// å‡çº§ç‰ˆæœ¬								//
1331:Code\UserApp\Protocol/CmdProtocol.c **** 	*pT++ = RecBuf[216];
1332:Code\UserApp\Protocol/CmdProtocol.c **** 	update_version = (RecBuf[215] << 8) + RecBuf[216];
1333:Code\UserApp\Protocol/CmdProtocol.c **** 	
1334:Code\UserApp\Protocol/CmdProtocol.c **** 	memcpy(pT, RecBuf + 219, 4);								// æ—¶é—´æˆ³								//
1335:Code\UserApp\Protocol/CmdProtocol.c **** 	pT += 4;
1336:Code\UserApp\Protocol/CmdProtocol.c **** 	
1337:Code\UserApp\Protocol/CmdProtocol.c **** 	if (update_version <= system_version)
1338:Code\UserApp\Protocol/CmdProtocol.c **** 	{
1339:Code\UserApp\Protocol/CmdProtocol.c **** 		RetCode = RT_NEWEST;
ARM GAS  C:\Users\Administrator\AppData\Local\Temp\ccexfbaX.s 			page 33


1340:Code\UserApp\Protocol/CmdProtocol.c **** 	}
1341:Code\UserApp\Protocol/CmdProtocol.c **** 	else
1342:Code\UserApp\Protocol/CmdProtocol.c **** 	{
1343:Code\UserApp\Protocol/CmdProtocol.c **** 		if (0 == strlen((char *)update_ip))
1344:Code\UserApp\Protocol/CmdProtocol.c **** 		{
1345:Code\UserApp\Protocol/CmdProtocol.c **** 			RetCode = RT_IPorPort_ERR;
1346:Code\UserApp\Protocol/CmdProtocol.c **** 		}
1347:Code\UserApp\Protocol/CmdProtocol.c **** 		else
1348:Code\UserApp\Protocol/CmdProtocol.c **** 		{
1349:Code\UserApp\Protocol/CmdProtocol.c **** 			//å­˜ä¸‹å¾…å‡çº§ç‰ˆæœ¬å·å’Œå‡çº§æ ‡å¿—ä½ é‡å¯çš„æ—¶å€™åˆ¤æ–­falg==1å’Œç³»ç»Ÿç‰ˆæœ¬å·å’Œå®
1350:Code\UserApp\Protocol/CmdProtocol.c **** 			update_flag = 1;
1351:Code\UserApp\Protocol/CmdProtocol.c **** 			Write_UpdateInfo(update_flag,update_version);
1352:Code\UserApp\Protocol/CmdProtocol.c **** 			RetCode = RT_SUCC;
1353:Code\UserApp\Protocol/CmdProtocol.c **** 		}
1354:Code\UserApp\Protocol/CmdProtocol.c **** 	}
1355:Code\UserApp\Protocol/CmdProtocol.c **** 	
1356:Code\UserApp\Protocol/CmdProtocol.c **** 	*pT++ = RetCode;
1357:Code\UserApp\Protocol/CmdProtocol.c **** 	Protocol_SendAckPacket(comm_chanle, PACK_RESP, RecBuf[6], DataBuf, 13);
1358:Code\UserApp\Protocol/CmdProtocol.c **** 	
1359:Code\UserApp\Protocol/CmdProtocol.c **** 	//===ã€å¼€å§‹ã€‘=== è®¾å¤‡å±‚çš„å¤„ç† ==========================================================
1360:Code\UserApp\Protocol/CmdProtocol.c **** 	
1361:Code\UserApp\Protocol/CmdProtocol.c **** 	//===ã€ç»“æŸã€‘=== è®¾å¤‡å±‚çš„å¤„ç† ==========================================================
1362:Code\UserApp\Protocol/CmdProtocol.c **** 
1363:Code\UserApp\Protocol/CmdProtocol.c **** 	
1364:Code\UserApp\Protocol/CmdProtocol.c **** 	DBG_PRINTF("leaving %s\n", __FUNCTION__);
1365:Code\UserApp\Protocol/CmdProtocol.c **** }  
1366:Code\UserApp\Protocol/CmdProtocol.c **** 
1367:Code\UserApp\Protocol/CmdProtocol.c **** //*************************************************************************************************
1368:Code\UserApp\Protocol/CmdProtocol.c **** // Function name	: Protocol_CmdRemoteRestart
1369:Code\UserApp\Protocol/CmdProtocol.c **** // Description		: æœåŠ¡å™¨å‘æ™ºèƒ½é—¨ç¦å‘é€è¿œç¨‹é‡å¯æŒ‡ä»¤ï¼ˆæœåŠ¡å™¨â†’æ™ºèƒ½é—¨ç¦ï¼‰
1370:Code\UserApp\Protocol/CmdProtocol.c **** // Parameter		: uint8* RecBuf	å‘½ä»¤åŒ…æŒ‡é’ˆ
1371:Code\UserApp\Protocol/CmdProtocol.c **** // Return			: none
1372:Code\UserApp\Protocol/CmdProtocol.c **** //-------------------------------------------------------------------------------------------------
1373:Code\UserApp\Protocol/CmdProtocol.c **** // Info				: 0x0Eå‘½ä»¤ï¼ŒæœåŠ¡å™¨å‘é€
1374:Code\UserApp\Protocol/CmdProtocol.c **** //*************************************************************************************************
1375:Code\UserApp\Protocol/CmdProtocol.c **** static void Protocol_CmdRemoteRestart(uint8* RecBuf)
1376:Code\UserApp\Protocol/CmdProtocol.c **** {
1377:Code\UserApp\Protocol/CmdProtocol.c ****     uint8 RetCode = RT_SUCC;
1378:Code\UserApp\Protocol/CmdProtocol.c ****     uint8 DataBuf[64];
1379:Code\UserApp\Protocol/CmdProtocol.c **** 	uint8 *pT = DataBuf;
1380:Code\UserApp\Protocol/CmdProtocol.c ****     uint8 comm_chanle = RecBuf[4];								// å–å‡ºä¿¡é“å€¼							//
1381:Code\UserApp\Protocol/CmdProtocol.c ****     uint16 nCmdPackLen;
1382:Code\UserApp\Protocol/CmdProtocol.c ****     
1383:Code\UserApp\Protocol/CmdProtocol.c ****     nCmdPackLen= (RecBuf[2] << 8) + RecBuf[3] + 4;
1384:Code\UserApp\Protocol/CmdProtocol.c **** 	 
1385:Code\UserApp\Protocol/CmdProtocol.c ****     memset(pT, 0, sizeof(DataBuf));
1386:Code\UserApp\Protocol/CmdProtocol.c ****     memcpy(pT, RecBuf + 7, 6);									// å–å‡ºMACåœ°å€ï¼Œç†è®ºåº”åŠ ä¸ŠMACæ ¡éªŒ		//
1387:Code\UserApp\Protocol/CmdProtocol.c ****     pT += 6; 
1388:Code\UserApp\Protocol/CmdProtocol.c ****     
1389:Code\UserApp\Protocol/CmdProtocol.c **** 	memcpy(pT, RecBuf + nCmdPackLen - 6, 4);					// æ—¶é—´æˆ³								//
1390:Code\UserApp\Protocol/CmdProtocol.c ****     pT += 4; 
1391:Code\UserApp\Protocol/CmdProtocol.c ****     
1392:Code\UserApp\Protocol/CmdProtocol.c **** 	*pT = RetCode;
1393:Code\UserApp\Protocol/CmdProtocol.c ****  
1394:Code\UserApp\Protocol/CmdProtocol.c **** 	//===ã€å¼€å§‹ã€‘=== è®¾å¤‡å±‚çš„å¤„ç† ==========================================================
1395:Code\UserApp\Protocol/CmdProtocol.c **** 	flag_reboot = 1;
1396:Code\UserApp\Protocol/CmdProtocol.c **** 	//===ã€ç»“æŸã€‘=== è®¾å¤‡å±‚çš„å¤„ç† ==========================================================
ARM GAS  C:\Users\Administrator\AppData\Local\Temp\ccexfbaX.s 			page 34


1397:Code\UserApp\Protocol/CmdProtocol.c **** 	
1398:Code\UserApp\Protocol/CmdProtocol.c **** 	Protocol_SendAckPacket(comm_chanle, PACK_RESP, RecBuf[6], DataBuf, 11);
1399:Code\UserApp\Protocol/CmdProtocol.c **** 	
1400:Code\UserApp\Protocol/CmdProtocol.c **** 	DBG_PRINTF("leaving %s\n", __FUNCTION__);
1401:Code\UserApp\Protocol/CmdProtocol.c **** } 
1402:Code\UserApp\Protocol/CmdProtocol.c **** 
1403:Code\UserApp\Protocol/CmdProtocol.c **** //*************************************************************************************************
1404:Code\UserApp\Protocol/CmdProtocol.c **** // Function name	: Protocol_CmdRemoteDownload
1405:Code\UserApp\Protocol/CmdProtocol.c **** // Description		: å¤–éƒ¨äº‘æœåŠ¡å™¨ä¸‹è½½å‡çº§åŒ…ï¼ˆæ™ºèƒ½é—¨ç¦ - æœåŠ¡å™¨ä»¶ï¼‰
1406:Code\UserApp\Protocol/CmdProtocol.c **** // Parameter		: uint8* RecBuf	å‘½ä»¤åŒ…æŒ‡é’ˆ
1407:Code\UserApp\Protocol/CmdProtocol.c **** // Return			: none
1408:Code\UserApp\Protocol/CmdProtocol.c **** //-------------------------------------------------------------------------------------------------
1409:Code\UserApp\Protocol/CmdProtocol.c **** // Info				: 0x0Få‘½ä»¤ï¼ŒæœåŠ¡å™¨åº”ç­”
1410:Code\UserApp\Protocol/CmdProtocol.c **** //-------------------------------------------------------------------------------------------------
1411:Code\UserApp\Protocol/CmdProtocol.c **** //					: 
1412:Code\UserApp\Protocol/CmdProtocol.c **** //*************************************************************************************************
1413:Code\UserApp\Protocol/CmdProtocol.c **** static void Protocol_CmdRemoteDownload(uint8* RecBuf)
1414:Code\UserApp\Protocol/CmdProtocol.c **** {
1415:Code\UserApp\Protocol/CmdProtocol.c **** 	uint8 ReadDataBuf[DATABUF_SIZE];
1416:Code\UserApp\Protocol/CmdProtocol.c **** 	uint8 data_size[4];
1417:Code\UserApp\Protocol/CmdProtocol.c **** 	uint16 recv_page;
1418:Code\UserApp\Protocol/CmdProtocol.c **** 	uint16 nCmdPackLen= (RecBuf[2] << 8) + RecBuf[3];
1419:Code\UserApp\Protocol/CmdProtocol.c **** 	uint16 curr_packet_len = nCmdPackLen - 18;					// å½“å‰å‡çº§æ•°æ®åŒ…å†…å®¹é•¿åº¦				//
1420:Code\UserApp\Protocol/CmdProtocol.c **** 	
1421:Code\UserApp\Protocol/CmdProtocol.c **** 	recv_page = (RecBuf[13] << 8) + RecBuf[14];					// è·å–ç»„å·å€¼							//
1422:Code\UserApp\Protocol/CmdProtocol.c **** 	
1423:Code\UserApp\Protocol/CmdProtocol.c **** 	DBG_SOFT_PutString("Protocol_CmdRemoteDownload-->recv_page:");
1424:Code\UserApp\Protocol/CmdProtocol.c **** 	DBG_SOFT_PutHexInt(recv_page);
1425:Code\UserApp\Protocol/CmdProtocol.c **** 	DBG_SOFT_PutString("\n");
1426:Code\UserApp\Protocol/CmdProtocol.c **** 	
1427:Code\UserApp\Protocol/CmdProtocol.c **** 	//===ã€å¼€å§‹ã€‘=== è®¾å¤‡å±‚çš„å¤„ç† ==========================================================
1428:Code\UserApp\Protocol/CmdProtocol.c **** 	if ((recv_page == update_page) || (recv_page == 0))
1429:Code\UserApp\Protocol/CmdProtocol.c **** 	{
1430:Code\UserApp\Protocol/CmdProtocol.c **** 		W25QXX_Write(RecBuf + 15, W25X_IMAGESTART_ADDR + update_offset, curr_packet_len);
1431:Code\UserApp\Protocol/CmdProtocol.c **** 		W25QXX_Read(ReadDataBuf, W25X_IMAGESTART_ADDR + update_offset, curr_packet_len);
1432:Code\UserApp\Protocol/CmdProtocol.c **** 		if (memcmp(RecBuf + 15, ReadDataBuf, curr_packet_len) == 0)
1433:Code\UserApp\Protocol/CmdProtocol.c **** 		{
1434:Code\UserApp\Protocol/CmdProtocol.c **** 			update_offset +=  curr_packet_len;
1435:Code\UserApp\Protocol/CmdProtocol.c **** 			if (recv_page != 0)
1436:Code\UserApp\Protocol/CmdProtocol.c **** 			{	
1437:Code\UserApp\Protocol/CmdProtocol.c **** 				update_page += 1;
1438:Code\UserApp\Protocol/CmdProtocol.c **** 				Image_size += curr_packet_len;
1439:Code\UserApp\Protocol/CmdProtocol.c **** 				send_update_req(update_page);
1440:Code\UserApp\Protocol/CmdProtocol.c **** 				update_timeout_time = 10000;
1441:Code\UserApp\Protocol/CmdProtocol.c **** 				update_timeout_count = 0;
1442:Code\UserApp\Protocol/CmdProtocol.c **** 			}
1443:Code\UserApp\Protocol/CmdProtocol.c **** 			else
1444:Code\UserApp\Protocol/CmdProtocol.c **** 			{
1445:Code\UserApp\Protocol/CmdProtocol.c **** 				Image_size += curr_packet_len;
1446:Code\UserApp\Protocol/CmdProtocol.c **** 				data_size[2] = (uint8)(update_offset >> 24);
1447:Code\UserApp\Protocol/CmdProtocol.c **** 				data_size[3] = (uint8)(update_offset >> 16);	// é«˜ä½åœ¨å[2-3]
1448:Code\UserApp\Protocol/CmdProtocol.c **** 				data_size[0] = (uint8)(update_offset >> 8);
1449:Code\UserApp\Protocol/CmdProtocol.c **** 				data_size[1] = (uint8)update_offset;
1450:Code\UserApp\Protocol/CmdProtocol.c **** 				
1451:Code\UserApp\Protocol/CmdProtocol.c **** 				W25QXX_Write(data_size, W25X_IMAGE_METDATA_ADDR, 4);
1452:Code\UserApp\Protocol/CmdProtocol.c **** 				gprs_state = UPDATE_FINISH;
1453:Code\UserApp\Protocol/CmdProtocol.c **** 			}
ARM GAS  C:\Users\Administrator\AppData\Local\Temp\ccexfbaX.s 			page 35


1454:Code\UserApp\Protocol/CmdProtocol.c **** 		}
1455:Code\UserApp\Protocol/CmdProtocol.c **** 		else
1456:Code\UserApp\Protocol/CmdProtocol.c **** 		{
1457:Code\UserApp\Protocol/CmdProtocol.c **** 			update_timeout_count++;
1458:Code\UserApp\Protocol/CmdProtocol.c **** 			if (update_timeout_count >= 3)
1459:Code\UserApp\Protocol/CmdProtocol.c **** 			{
1460:Code\UserApp\Protocol/CmdProtocol.c **** 				update_timeout_count = 0;
1461:Code\UserApp\Protocol/CmdProtocol.c **** 				gprs_state = NEED_INIT;
1462:Code\UserApp\Protocol/CmdProtocol.c **** 			}
1463:Code\UserApp\Protocol/CmdProtocol.c **** 			else
1464:Code\UserApp\Protocol/CmdProtocol.c **** 			{
1465:Code\UserApp\Protocol/CmdProtocol.c **** 				Cmd_Protocol_ParaInit();
1466:Code\UserApp\Protocol/CmdProtocol.c **** 				send_update_req(update_page);
1467:Code\UserApp\Protocol/CmdProtocol.c **** 				update_timeout_time = 10000;
1468:Code\UserApp\Protocol/CmdProtocol.c **** 			}
1469:Code\UserApp\Protocol/CmdProtocol.c **** 		}
1470:Code\UserApp\Protocol/CmdProtocol.c **** 	}
1471:Code\UserApp\Protocol/CmdProtocol.c **** 	else
1472:Code\UserApp\Protocol/CmdProtocol.c **** 	{
1473:Code\UserApp\Protocol/CmdProtocol.c **** 		update_timeout_count++;
1474:Code\UserApp\Protocol/CmdProtocol.c **** 		if (update_timeout_count >= 3)
1475:Code\UserApp\Protocol/CmdProtocol.c **** 		{
1476:Code\UserApp\Protocol/CmdProtocol.c **** 			update_timeout_count = 0;
1477:Code\UserApp\Protocol/CmdProtocol.c **** 			gprs_state = NEED_INIT;
1478:Code\UserApp\Protocol/CmdProtocol.c **** 		}
1479:Code\UserApp\Protocol/CmdProtocol.c **** 		else
1480:Code\UserApp\Protocol/CmdProtocol.c **** 		{
1481:Code\UserApp\Protocol/CmdProtocol.c **** 			Cmd_Protocol_ParaInit();
1482:Code\UserApp\Protocol/CmdProtocol.c **** 			send_update_req(update_page);
1483:Code\UserApp\Protocol/CmdProtocol.c **** 			update_timeout_time = 10000;
1484:Code\UserApp\Protocol/CmdProtocol.c **** 		}
1485:Code\UserApp\Protocol/CmdProtocol.c **** 	}
1486:Code\UserApp\Protocol/CmdProtocol.c **** 	//===ã€ç»“æŸã€‘=== è®¾å¤‡å±‚çš„å¤„ç† ==========================================================
1487:Code\UserApp\Protocol/CmdProtocol.c **** 	
1488:Code\UserApp\Protocol/CmdProtocol.c **** 	DBG_PRINTF("leaving %s\n", __FUNCTION__);
1489:Code\UserApp\Protocol/CmdProtocol.c **** }
1490:Code\UserApp\Protocol/CmdProtocol.c **** 
1491:Code\UserApp\Protocol/CmdProtocol.c **** //*************************************************************************************************
1492:Code\UserApp\Protocol/CmdProtocol.c **** // Function name	: Protocol_CmdChangeIP
1493:Code\UserApp\Protocol/CmdProtocol.c **** // Description		: æ›´æ”¹ä¸­å¿ƒæœåŠ¡å™¨åœ°å€ï¼ˆæœåŠ¡å™¨/APP - æ™ºèƒ½é—¨ç¦ï¼‰
1494:Code\UserApp\Protocol/CmdProtocol.c **** // Parameter		: uint8* RecBuf	å‘½ä»¤åŒ…æŒ‡é’ˆ
1495:Code\UserApp\Protocol/CmdProtocol.c **** // Return			: none
1496:Code\UserApp\Protocol/CmdProtocol.c **** //-------------------------------------------------------------------------------------------------
1497:Code\UserApp\Protocol/CmdProtocol.c **** // Info				: 0x10å‘½ä»¤ï¼ŒæœåŠ¡å™¨å‘é€
1498:Code\UserApp\Protocol/CmdProtocol.c **** //*************************************************************************************************
1499:Code\UserApp\Protocol/CmdProtocol.c **** static void Protocol_CmdChangeIP(uint8* RecBuf)
1500:Code\UserApp\Protocol/CmdProtocol.c **** {
1501:Code\UserApp\Protocol/CmdProtocol.c ****     uint8 RetCode = RT_SUCC;
1502:Code\UserApp\Protocol/CmdProtocol.c ****     uint8 DataBuf[64];
1503:Code\UserApp\Protocol/CmdProtocol.c **** 	uint8 *pT = DataBuf;
1504:Code\UserApp\Protocol/CmdProtocol.c ****     uint8 comm_chanle = RecBuf[4];                              // å–å‡ºä¿¡é“å€¼							//
1505:Code\UserApp\Protocol/CmdProtocol.c ****     uint16 nCmdPackLen;
1506:Code\UserApp\Protocol/CmdProtocol.c ****     uint8 IpNum;
1507:Code\UserApp\Protocol/CmdProtocol.c **** 	
1508:Code\UserApp\Protocol/CmdProtocol.c ****     nCmdPackLen= (RecBuf[2] << 8) + RecBuf[3] + 4;
1509:Code\UserApp\Protocol/CmdProtocol.c **** 	 
1510:Code\UserApp\Protocol/CmdProtocol.c ****     memset(pT, 0, sizeof(DataBuf));
ARM GAS  C:\Users\Administrator\AppData\Local\Temp\ccexfbaX.s 			page 36


1511:Code\UserApp\Protocol/CmdProtocol.c ****     memcpy(pT, RecBuf + 7, 6);									// å–å‡ºMACåœ°å€ï¼Œç†è®ºåº”åŠ ä¸ŠMACæ ¡éªŒ		//
1512:Code\UserApp\Protocol/CmdProtocol.c ****     pT += 6; 
1513:Code\UserApp\Protocol/CmdProtocol.c ****     
1514:Code\UserApp\Protocol/CmdProtocol.c **** 	*pT++ = RecBuf[13];
1515:Code\UserApp\Protocol/CmdProtocol.c **** 	IpNum = RecBuf[13];
1516:Code\UserApp\Protocol/CmdProtocol.c **** 	
1517:Code\UserApp\Protocol/CmdProtocol.c **** 	if ((IpNum == 0) || (IpNum > 5))
1518:Code\UserApp\Protocol/CmdProtocol.c **** 	{
1519:Code\UserApp\Protocol/CmdProtocol.c **** 		RetCode = RT_IP_NUM_ERR;
1520:Code\UserApp\Protocol/CmdProtocol.c **** 	}
1521:Code\UserApp\Protocol/CmdProtocol.c **** 	
1522:Code\UserApp\Protocol/CmdProtocol.c **** 	memcpy(pT, RecBuf + nCmdPackLen - 6, 4);					// æ—¶é—´æˆ³								//
1523:Code\UserApp\Protocol/CmdProtocol.c ****     pT += 4; 
1524:Code\UserApp\Protocol/CmdProtocol.c ****     
1525:Code\UserApp\Protocol/CmdProtocol.c **** 	*pT = RetCode;
1526:Code\UserApp\Protocol/CmdProtocol.c **** 	
1527:Code\UserApp\Protocol/CmdProtocol.c **** 	Protocol_SendAckPacket(comm_chanle, PACK_RESP, RecBuf[6], DataBuf, 12);
1528:Code\UserApp\Protocol/CmdProtocol.c **** 	
1529:Code\UserApp\Protocol/CmdProtocol.c **** 	//===ã€å¼€å§‹ã€‘=== è®¾å¤‡å±‚çš„å¤„ç† ==========================================================
1530:Code\UserApp\Protocol/CmdProtocol.c **** 	if (IpNum == 0x01)											 // æµ‹è¯•æœåŸŸå1							//
1531:Code\UserApp\Protocol/CmdProtocol.c **** 	{
1532:Code\UserApp\Protocol/CmdProtocol.c **** 		Write_CenterIpType(IpNum);
1533:Code\UserApp\Protocol/CmdProtocol.c **** 		VoicePlay(Sound_ShortDI);
1534:Code\UserApp\Protocol/CmdProtocol.c **** 	}
1535:Code\UserApp\Protocol/CmdProtocol.c **** 	else if (IpNum == 0x02)
1536:Code\UserApp\Protocol/CmdProtocol.c **** 	{
1537:Code\UserApp\Protocol/CmdProtocol.c **** 		VoicePlay(Sound_ShortDI);
1538:Code\UserApp\Protocol/CmdProtocol.c **** 		BeepPlay_Delay(300);
1539:Code\UserApp\Protocol/CmdProtocol.c **** 		VoicePlay(Sound_ShortDI);
1540:Code\UserApp\Protocol/CmdProtocol.c **** 	}
1541:Code\UserApp\Protocol/CmdProtocol.c **** 	else if (IpNum == 0x03)
1542:Code\UserApp\Protocol/CmdProtocol.c **** 	{
1543:Code\UserApp\Protocol/CmdProtocol.c **** 		VoicePlay(Sound_ShortDI);
1544:Code\UserApp\Protocol/CmdProtocol.c **** 		BeepPlay_Delay(300);
1545:Code\UserApp\Protocol/CmdProtocol.c **** 		VoicePlay(Sound_ShortDI);
1546:Code\UserApp\Protocol/CmdProtocol.c **** 		BeepPlay_Delay(300);
1547:Code\UserApp\Protocol/CmdProtocol.c **** 		VoicePlay(Sound_ShortDI);
1548:Code\UserApp\Protocol/CmdProtocol.c **** 	}
1549:Code\UserApp\Protocol/CmdProtocol.c **** 	else if (IpNum == 0x04)
1550:Code\UserApp\Protocol/CmdProtocol.c **** 	{
1551:Code\UserApp\Protocol/CmdProtocol.c **** 		VoicePlay(Sound_LongDI);
1552:Code\UserApp\Protocol/CmdProtocol.c **** 	}
1553:Code\UserApp\Protocol/CmdProtocol.c **** 	else if (IpNum == 0x05)										// æ­£å¼æœåŸŸå							//
1554:Code\UserApp\Protocol/CmdProtocol.c **** 	{
1555:Code\UserApp\Protocol/CmdProtocol.c **** 		Write_CenterIpType(IpNum);
1556:Code\UserApp\Protocol/CmdProtocol.c **** 		VoicePlay(Sound_LongDI);
1557:Code\UserApp\Protocol/CmdProtocol.c **** 		BeepPlay_Delay(300);
1558:Code\UserApp\Protocol/CmdProtocol.c **** 		VoicePlay(Sound_ShortDI);
1559:Code\UserApp\Protocol/CmdProtocol.c **** 	}
1560:Code\UserApp\Protocol/CmdProtocol.c **** 	
1561:Code\UserApp\Protocol/CmdProtocol.c **** 	flag_reboot = 1;
1562:Code\UserApp\Protocol/CmdProtocol.c **** 	//===ã€ç»“æŸã€‘=== è®¾å¤‡å±‚çš„å¤„ç† ==========================================================
1563:Code\UserApp\Protocol/CmdProtocol.c **** 	
1564:Code\UserApp\Protocol/CmdProtocol.c **** 	DBG_PRINTF("leaving %s\n", __FUNCTION__);
1565:Code\UserApp\Protocol/CmdProtocol.c **** }
1566:Code\UserApp\Protocol/CmdProtocol.c **** 
1567:Code\UserApp\Protocol/CmdProtocol.c **** 
ARM GAS  C:\Users\Administrator\AppData\Local\Temp\ccexfbaX.s 			page 37


1568:Code\UserApp\Protocol/CmdProtocol.c **** //*************************************************************************************************
1569:Code\UserApp\Protocol/CmdProtocol.c **** // Function name	: Protocol_CmdManufac
1570:Code\UserApp\Protocol/CmdProtocol.c **** // Description		: è“ç‰™çƒ§å†™è®¾å¤‡MACåŠŸèƒ½
1571:Code\UserApp\Protocol/CmdProtocol.c **** // Parameter		: uint8* RecBuf	å‘½ä»¤åŒ…æŒ‡é’ˆ
1572:Code\UserApp\Protocol/CmdProtocol.c **** // Return			: none
1573:Code\UserApp\Protocol/CmdProtocol.c **** //-------------------------------------------------------------------------------------------------
1574:Code\UserApp\Protocol/CmdProtocol.c **** // Info				: 0xF1å‘½ä»¤ï¼Œæ‰‹æœºå‘é€
1575:Code\UserApp\Protocol/CmdProtocol.c **** //*************************************************************************************************
1576:Code\UserApp\Protocol/CmdProtocol.c **** static void Protocol_CmdManufac(uint8* RecBuf)
1577:Code\UserApp\Protocol/CmdProtocol.c **** {
 456              		.loc 1 1577 0
 457              		.cfi_startproc
 458              		@ args = 0, pretend = 0, frame = 16
 459              		@ frame_needed = 0, uses_anonymous_args = 0
 460              	.LVL61:
 461 0000 F0B5     		push	{r4, r5, r6, r7, lr}
 462              		.cfi_def_cfa_offset 20
 463              		.cfi_offset 4, -20
 464              		.cfi_offset 5, -16
 465              		.cfi_offset 6, -12
 466              		.cfi_offset 7, -8
 467              		.cfi_offset 14, -4
1578:Code\UserApp\Protocol/CmdProtocol.c **** 	uint8 Newmac[6] = {0};
1579:Code\UserApp\Protocol/CmdProtocol.c **** 		//1.å–å‡ºmac å†™å…¥æœ¬åœ°flash
1580:Code\UserApp\Protocol/CmdProtocol.c **** 	memcpy(Newmac, RecBuf+13, 6);
 468              		.loc 1 1580 0
 469 0002 0100     		movs	r1, r0
 470 0004 0626     		movs	r6, #6
1577:Code\UserApp\Protocol/CmdProtocol.c **** 	uint8 Newmac[6] = {0};
 471              		.loc 1 1577 0
 472 0006 85B0     		sub	sp, sp, #20
 473              		.cfi_def_cfa_offset 40
 474              		.loc 1 1580 0
 475 0008 02AC     		add	r4, sp, #8
 476 000a 3200     		movs	r2, r6
 477 000c 0D31     		adds	r1, r1, #13
 478 000e 2000     		movs	r0, r4
 479              	.LVL62:
 480 0010 FFF7FEFF 		bl	memcpy
 481              	.LVL63:
1581:Code\UserApp\Protocol/CmdProtocol.c **** 	uint8 flag = 0;
 482              		.loc 1 1581 0
 483 0014 6B46     		mov	r3, sp
 484 0016 DF1D     		adds	r7, r3, #7
 485 0018 0023     		movs	r3, #0
1582:Code\UserApp\Protocol/CmdProtocol.c **** 	W25QXX_Read(&flag, MACFLAG_BASE, 1);
 486              		.loc 1 1582 0
 487 001a 3800     		movs	r0, r7
 488 001c 0122     		movs	r2, #1
 489 001e 1149     		ldr	r1, .L19
1581:Code\UserApp\Protocol/CmdProtocol.c **** 	uint8 flag = 0;
 490              		.loc 1 1581 0
 491 0020 3B70     		strb	r3, [r7]
 492              		.loc 1 1582 0
 493 0022 FFF7FEFF 		bl	W25QXX_Read
 494              	.LVL64:
1583:Code\UserApp\Protocol/CmdProtocol.c **** 	
ARM GAS  C:\Users\Administrator\AppData\Local\Temp\ccexfbaX.s 			page 38


1584:Code\UserApp\Protocol/CmdProtocol.c **** 	if(DEBUG_PRJ == 1)
1585:Code\UserApp\Protocol/CmdProtocol.c **** 	{	//2.æµ‹è¯•ç¨‹åº æ­£ç¡®åˆ™æ’­æ”¾é•¿éŸ³ å¯ä»¥é‡å¤å†™
1586:Code\UserApp\Protocol/CmdProtocol.c **** 		if((Newmac[0] = 0x06) && (Newmac[1] = 0x01))
1587:Code\UserApp\Protocol/CmdProtocol.c **** 		{
1588:Code\UserApp\Protocol/CmdProtocol.c **** 			
1589:Code\UserApp\Protocol/CmdProtocol.c **** 			flag = 1;
1590:Code\UserApp\Protocol/CmdProtocol.c **** 			W25QXX_Write(Newmac, MAC_BASE, (uint16)sizeof(Newmac));
 495              		.loc 1 1590 0
 496 0026 C921     		movs	r1, #201
1586:Code\UserApp\Protocol/CmdProtocol.c **** 		{
 497              		.loc 1 1586 0
 498 0028 0125     		movs	r5, #1
 499              		.loc 1 1590 0
 500 002a 3200     		movs	r2, r6
 501 002c 2000     		movs	r0, r4
 502 002e 4902     		lsls	r1, r1, #9
1586:Code\UserApp\Protocol/CmdProtocol.c **** 		{
 503              		.loc 1 1586 0
 504 0030 2670     		strb	r6, [r4]
 505 0032 6570     		strb	r5, [r4, #1]
1589:Code\UserApp\Protocol/CmdProtocol.c **** 			W25QXX_Write(Newmac, MAC_BASE, (uint16)sizeof(Newmac));
 506              		.loc 1 1589 0
 507 0034 3D70     		strb	r5, [r7]
 508              		.loc 1 1590 0
 509 0036 FFF7FEFF 		bl	W25QXX_Write
 510              	.LVL65:
1591:Code\UserApp\Protocol/CmdProtocol.c **** 			W25QXX_Write(&flag, MACFLAG_BASE, 1);
 511              		.loc 1 1591 0
 512 003a 2A00     		movs	r2, r5
 513 003c 0949     		ldr	r1, .L19
 514 003e 3800     		movs	r0, r7
 515 0040 FFF7FEFF 		bl	W25QXX_Write
 516              	.LVL66:
1592:Code\UserApp\Protocol/CmdProtocol.c **** 			VoicePlay((uint8)Sound_REG_SUCCESS);	
 517              		.loc 1 1592 0
 518 0044 0420     		movs	r0, #4
 519 0046 FFF7FEFF 		bl	VoicePlay
 520              	.LVL67:
1593:Code\UserApp\Protocol/CmdProtocol.c **** 		}
1594:Code\UserApp\Protocol/CmdProtocol.c **** 		else
1595:Code\UserApp\Protocol/CmdProtocol.c **** 		{
1596:Code\UserApp\Protocol/CmdProtocol.c **** 			//3.é”™è¯¯åˆ™æ’­æŠ¥çŸ­éŸ³3å£°
1597:Code\UserApp\Protocol/CmdProtocol.c **** 			VoicePlay((uint8)Sound_VERIFY_FAILURE);
1598:Code\UserApp\Protocol/CmdProtocol.c **** 			
1599:Code\UserApp\Protocol/CmdProtocol.c **** 		}
1600:Code\UserApp\Protocol/CmdProtocol.c **** 	
1601:Code\UserApp\Protocol/CmdProtocol.c **** 	}
1602:Code\UserApp\Protocol/CmdProtocol.c **** 	
1603:Code\UserApp\Protocol/CmdProtocol.c **** 	else if(DEBUG_PRJ == 0)
1604:Code\UserApp\Protocol/CmdProtocol.c **** 	{	//2.å‡ºå‚ç¨‹åº åªèƒ½å†™ä¸€æ¬¡		
1605:Code\UserApp\Protocol/CmdProtocol.c **** 		if((Newmac[0] = 0x06) && (Newmac[1] = 0x01) && (flag != 1))
1606:Code\UserApp\Protocol/CmdProtocol.c **** 		{
1607:Code\UserApp\Protocol/CmdProtocol.c **** 			
1608:Code\UserApp\Protocol/CmdProtocol.c **** 			flag = 1;
1609:Code\UserApp\Protocol/CmdProtocol.c **** 			W25QXX_Write(Newmac, MAC_BASE, (uint16)sizeof(Newmac));
1610:Code\UserApp\Protocol/CmdProtocol.c **** 			W25QXX_Write(&flag, MACFLAG_BASE, 1);
1611:Code\UserApp\Protocol/CmdProtocol.c **** 			VoicePlay((uint8)Sound_REG_SUCCESS);	
ARM GAS  C:\Users\Administrator\AppData\Local\Temp\ccexfbaX.s 			page 39


1612:Code\UserApp\Protocol/CmdProtocol.c **** 		}
1613:Code\UserApp\Protocol/CmdProtocol.c **** 		else
1614:Code\UserApp\Protocol/CmdProtocol.c **** 		{
1615:Code\UserApp\Protocol/CmdProtocol.c **** 			//3.é”™è¯¯åˆ™æ’­æŠ¥çŸ­éŸ³3å£°
1616:Code\UserApp\Protocol/CmdProtocol.c **** 			VoicePlay((uint8)Sound_VERIFY_FAILURE);
1617:Code\UserApp\Protocol/CmdProtocol.c **** 		}
1618:Code\UserApp\Protocol/CmdProtocol.c **** 	}
1619:Code\UserApp\Protocol/CmdProtocol.c **** 	
1620:Code\UserApp\Protocol/CmdProtocol.c **** 	BleSend(Newmac, 6);											// è“ç‰™åº”ç­”
 521              		.loc 1 1620 0
 522 004a 3100     		movs	r1, r6
 523 004c 2000     		movs	r0, r4
 524 004e FFF7FEFF 		bl	BleSend
 525              	.LVL68:
1621:Code\UserApp\Protocol/CmdProtocol.c **** 	BeepPlay_Delay(1000);
 526              		.loc 1 1621 0
 527 0052 FA20     		movs	r0, #250
 528 0054 8000     		lsls	r0, r0, #2
 529 0056 FFF7FEFF 		bl	BeepPlay_Delay
 530              	.LVL69:
1622:Code\UserApp\Protocol/CmdProtocol.c **** 	flag_reboot = 1;	
 531              		.loc 1 1622 0
 532 005a 034B     		ldr	r3, .L19+4
 533 005c 1D70     		strb	r5, [r3]
1623:Code\UserApp\Protocol/CmdProtocol.c **** }
 534              		.loc 1 1623 0
 535 005e 05B0     		add	sp, sp, #20
 536              		@ sp needed
 537 0060 F0BD     		pop	{r4, r5, r6, r7, pc}
 538              	.L20:
 539 0062 C046     		.align	2
 540              	.L19:
 541 0064 06920100 		.word	102918
 542 0068 00000000 		.word	flag_reboot
 543              		.cfi_endproc
 544              	.LFE89:
 545              		.size	Protocol_CmdManufac, .-Protocol_CmdManufac
 546              		.section	.text.Endpoint_exchange,"ax",%progbits
 547              		.align	1
 548              		.global	Endpoint_exchange
 549              		.code	16
 550              		.thumb_func
 551              		.type	Endpoint_exchange, %function
 552              	Endpoint_exchange:
 553              	.LFB63:
  89:Code\UserApp\Protocol/CmdProtocol.c **** 	uint8 databuf[8] = {0};
 554              		.loc 1 89 0
 555              		.cfi_startproc
 556              		@ args = 0, pretend = 0, frame = 8
 557              		@ frame_needed = 0, uses_anonymous_args = 0
 558              	.LVL70:
 559 0000 13B5     		push	{r0, r1, r4, lr}
 560              		.cfi_def_cfa_offset 16
 561              		.cfi_offset 0, -16
 562              		.cfi_offset 1, -12
 563              		.cfi_offset 4, -8
 564              		.cfi_offset 14, -4
ARM GAS  C:\Users\Administrator\AppData\Local\Temp\ccexfbaX.s 			page 40


  89:Code\UserApp\Protocol/CmdProtocol.c **** 	uint8 databuf[8] = {0};
 565              		.loc 1 89 0
 566 0002 0400     		movs	r4, r0
  90:Code\UserApp\Protocol/CmdProtocol.c **** 
 567              		.loc 1 90 0
 568 0004 0822     		movs	r2, #8
 569 0006 0021     		movs	r1, #0
 570 0008 6846     		mov	r0, sp
 571              	.LVL71:
 572 000a FFF7FEFF 		bl	memset
 573              	.LVL72:
  96:Code\UserApp\Protocol/CmdProtocol.c **** 	 && card_data[6] == 0 && card_data[7] == 0) ||
 574              		.loc 1 96 0
 575 000e 2379     		ldrb	r3, [r4, #4]
 576 0010 002B     		cmp	r3, #0
 577 0012 08D1     		bne	.L22
  96:Code\UserApp\Protocol/CmdProtocol.c **** 	 && card_data[6] == 0 && card_data[7] == 0) ||
 578              		.loc 1 96 0 is_stmt 0 discriminator 1
 579 0014 6379     		ldrb	r3, [r4, #5]
 580 0016 002B     		cmp	r3, #0
 581 0018 05D1     		bne	.L22
  97:Code\UserApp\Protocol/CmdProtocol.c **** 	   (card_data[0] == 0 && card_data[1] == 0 
 582              		.loc 1 97 0 is_stmt 1
 583 001a A379     		ldrb	r3, [r4, #6]
 584 001c 002B     		cmp	r3, #0
 585 001e 02D1     		bne	.L22
  97:Code\UserApp\Protocol/CmdProtocol.c **** 	   (card_data[0] == 0 && card_data[1] == 0 
 586              		.loc 1 97 0 is_stmt 0 discriminator 1
 587 0020 E379     		ldrb	r3, [r4, #7]
 588 0022 002B     		cmp	r3, #0
 589 0024 0BD0     		beq	.L23
 590              	.L22:
  97:Code\UserApp\Protocol/CmdProtocol.c **** 	   (card_data[0] == 0 && card_data[1] == 0 
 591              		.loc 1 97 0 discriminator 3
 592 0026 2378     		ldrb	r3, [r4]
 593 0028 002B     		cmp	r3, #0
 594 002a 17D1     		bne	.L24
  98:Code\UserApp\Protocol/CmdProtocol.c **** 	 && card_data[2] == 0 && card_data[3] == 0))
 595              		.loc 1 98 0 is_stmt 1
 596 002c 6378     		ldrb	r3, [r4, #1]
 597 002e 002B     		cmp	r3, #0
 598 0030 14D1     		bne	.L24
  99:Code\UserApp\Protocol/CmdProtocol.c **** 	{
 599              		.loc 1 99 0
 600 0032 A378     		ldrb	r3, [r4, #2]
 601 0034 002B     		cmp	r3, #0
 602 0036 11D1     		bne	.L24
  99:Code\UserApp\Protocol/CmdProtocol.c **** 	{
 603              		.loc 1 99 0 is_stmt 0 discriminator 1
 604 0038 E378     		ldrb	r3, [r4, #3]
 605 003a 002B     		cmp	r3, #0
 606 003c 0ED1     		bne	.L24
 607              	.L23:
 101:Code\UserApp\Protocol/CmdProtocol.c **** 		memcpy(databuf, card_data+4, 4);						// å4ä¸ªUIDæ‹·è´åˆ°å‰å››ä¸ª 
 608              		.loc 1 101 0 is_stmt 1
 609 003e 0422     		movs	r2, #4
 610 0040 2100     		movs	r1, r4
ARM GAS  C:\Users\Administrator\AppData\Local\Temp\ccexfbaX.s 			page 41


 611 0042 01A8     		add	r0, sp, #4
 612 0044 FFF7FEFF 		bl	memcpy
 613              	.LVL73:
 102:Code\UserApp\Protocol/CmdProtocol.c **** 		
 614              		.loc 1 102 0
 615 0048 211D     		adds	r1, r4, #4
 616 004a 0422     		movs	r2, #4
 617 004c 6846     		mov	r0, sp
 618 004e FFF7FEFF 		bl	memcpy
 619              	.LVL74:
 104:Code\UserApp\Protocol/CmdProtocol.c **** 	}
 620              		.loc 1 104 0
 621 0052 0822     		movs	r2, #8
 622 0054 6946     		mov	r1, sp
 623 0056 2000     		movs	r0, r4
 624 0058 FFF7FEFF 		bl	memcpy
 625              	.LVL75:
 626              	.L24:
 109:Code\UserApp\Protocol/CmdProtocol.c **** 
 627              		.loc 1 109 0
 628 005c 0020     		movs	r0, #0
 629              		@ sp needed
 630              	.LVL76:
 631 005e 16BD     		pop	{r1, r2, r4, pc}
 632              		.cfi_endproc
 633              	.LFE63:
 634              		.size	Endpoint_exchange, .-Endpoint_exchange
 635              		.section	.text.Cmd_Protocol_ParaInit,"ax",%progbits
 636              		.align	1
 637              		.global	Cmd_Protocol_ParaInit
 638              		.code	16
 639              		.thumb_func
 640              		.type	Cmd_Protocol_ParaInit, %function
 641              	Cmd_Protocol_ParaInit:
 642              	.LFB64:
 122:Code\UserApp\Protocol/CmdProtocol.c **** 	RecvType = 0;
 643              		.loc 1 122 0
 644              		.cfi_startproc
 645              		@ args = 0, pretend = 0, frame = 0
 646              		@ frame_needed = 0, uses_anonymous_args = 0
 647 0000 70B5     		push	{r4, r5, r6, lr}
 648              		.cfi_def_cfa_offset 16
 649              		.cfi_offset 4, -16
 650              		.cfi_offset 5, -12
 651              		.cfi_offset 6, -8
 652              		.cfi_offset 14, -4
 123:Code\UserApp\Protocol/CmdProtocol.c **** 	Cmd_Baglen = 0;
 653              		.loc 1 123 0
 654 0002 0024     		movs	r4, #0
 655 0004 0E4B     		ldr	r3, .L29
 129:Code\UserApp\Protocol/CmdProtocol.c **** 	memset((char *)GPRSCmd_buf1, 0, sizeof(GPRSCmd_buf1));
 656              		.loc 1 129 0
 657 0006 0F4D     		ldr	r5, .L29+4
 123:Code\UserApp\Protocol/CmdProtocol.c **** 	Cmd_Baglen = 0;
 658              		.loc 1 123 0
 659 0008 1C70     		strb	r4, [r3]
 124:Code\UserApp\Protocol/CmdProtocol.c **** 	Cmd_Revsta = 0;
ARM GAS  C:\Users\Administrator\AppData\Local\Temp\ccexfbaX.s 			page 42


 660              		.loc 1 124 0
 661 000a 0F4B     		ldr	r3, .L29+8
 129:Code\UserApp\Protocol/CmdProtocol.c **** 	memset((char *)GPRSCmd_buf1, 0, sizeof(GPRSCmd_buf1));
 662              		.loc 1 129 0
 663 000c 2A00     		movs	r2, r5
 124:Code\UserApp\Protocol/CmdProtocol.c **** 	Cmd_Revsta = 0;
 664              		.loc 1 124 0
 665 000e 1C80     		strh	r4, [r3]
 125:Code\UserApp\Protocol/CmdProtocol.c **** 	Cmd_index = 0;
 666              		.loc 1 125 0
 667 0010 0E4B     		ldr	r3, .L29+12
 129:Code\UserApp\Protocol/CmdProtocol.c **** 	memset((char *)GPRSCmd_buf1, 0, sizeof(GPRSCmd_buf1));
 668              		.loc 1 129 0
 669 0012 2100     		movs	r1, r4
 125:Code\UserApp\Protocol/CmdProtocol.c **** 	Cmd_index = 0;
 670              		.loc 1 125 0
 671 0014 1C70     		strb	r4, [r3]
 126:Code\UserApp\Protocol/CmdProtocol.c **** 	GPRSCmdParseFlag1 = RESET;
 672              		.loc 1 126 0
 673 0016 0E4B     		ldr	r3, .L29+16
 129:Code\UserApp\Protocol/CmdProtocol.c **** 	memset((char *)GPRSCmd_buf1, 0, sizeof(GPRSCmd_buf1));
 674              		.loc 1 129 0
 675 0018 0E48     		ldr	r0, .L29+20
 126:Code\UserApp\Protocol/CmdProtocol.c **** 	GPRSCmdParseFlag1 = RESET;
 676              		.loc 1 126 0
 677 001a 1C80     		strh	r4, [r3]
 127:Code\UserApp\Protocol/CmdProtocol.c **** 	GPRSCmdParseFlag2 = RESET;
 678              		.loc 1 127 0
 679 001c 0E4B     		ldr	r3, .L29+24
 132:Code\UserApp\Protocol/CmdProtocol.c **** 
 680              		.loc 1 132 0
 681              		@ sp needed
 127:Code\UserApp\Protocol/CmdProtocol.c **** 	GPRSCmdParseFlag2 = RESET;
 682              		.loc 1 127 0
 683 001e 1C70     		strb	r4, [r3]
 128:Code\UserApp\Protocol/CmdProtocol.c **** 	memset((char *)CmdRev_buf, 0, sizeof(CmdRev_buf));
 684              		.loc 1 128 0
 685 0020 0E4B     		ldr	r3, .L29+28
 686 0022 1C70     		strb	r4, [r3]
 129:Code\UserApp\Protocol/CmdProtocol.c **** 	memset((char *)GPRSCmd_buf1, 0, sizeof(GPRSCmd_buf1));
 687              		.loc 1 129 0
 688 0024 FFF7FEFF 		bl	memset
 689              	.LVL77:
 130:Code\UserApp\Protocol/CmdProtocol.c **** 	memset((char *)GPRSCmd_buf2, 0, sizeof(GPRSCmd_buf2));
 690              		.loc 1 130 0
 691 0028 2A00     		movs	r2, r5
 692 002a 2100     		movs	r1, r4
 693 002c 0C48     		ldr	r0, .L29+32
 694 002e FFF7FEFF 		bl	memset
 695              	.LVL78:
 131:Code\UserApp\Protocol/CmdProtocol.c **** }
 696              		.loc 1 131 0
 697 0032 2A00     		movs	r2, r5
 698 0034 2100     		movs	r1, r4
 699 0036 0B48     		ldr	r0, .L29+36
 700 0038 FFF7FEFF 		bl	memset
 701              	.LVL79:
ARM GAS  C:\Users\Administrator\AppData\Local\Temp\ccexfbaX.s 			page 43


 132:Code\UserApp\Protocol/CmdProtocol.c **** 
 702              		.loc 1 132 0
 703 003c 70BD     		pop	{r4, r5, r6, pc}
 704              	.L30:
 705 003e C046     		.align	2
 706              	.L29:
 707 0040 00000000 		.word	RecvType
 708 0044 1A040000 		.word	1050
 709 0048 00000000 		.word	Cmd_Baglen
 710 004c 00000000 		.word	Cmd_Revsta
 711 0050 00000000 		.word	Cmd_index
 712 0054 00000000 		.word	CmdRev_buf
 713 0058 00000000 		.word	GPRSCmdParseFlag1
 714 005c 00000000 		.word	GPRSCmdParseFlag2
 715 0060 00000000 		.word	GPRSCmd_buf1
 716 0064 00000000 		.word	GPRSCmd_buf2
 717              		.cfi_endproc
 718              	.LFE64:
 719              		.size	Cmd_Protocol_ParaInit, .-Cmd_Protocol_ParaInit
 720              		.section	.text.send_get_pre_service_ip,"ax",%progbits
 721              		.align	1
 722              		.global	send_get_pre_service_ip
 723              		.code	16
 724              		.thumb_func
 725              		.type	send_get_pre_service_ip, %function
 726              	send_get_pre_service_ip:
 727              	.LFB65:
 145:Code\UserApp\Protocol/CmdProtocol.c **** 	uint8 uart_buf[96];
 728              		.loc 1 145 0
 729              		.cfi_startproc
 730              		@ args = 0, pretend = 0, frame = 96
 731              		@ frame_needed = 0, uses_anonymous_args = 0
 732              	.LVL80:
 733 0000 00B5     		push	{lr}
 734              		.cfi_def_cfa_offset 4
 735              		.cfi_offset 14, -4
 736 0002 99B0     		sub	sp, sp, #100
 737              		.cfi_def_cfa_offset 104
 154:Code\UserApp\Protocol/CmdProtocol.c **** 	uart_buf[cnt++] = 0x3a;
 738              		.loc 1 154 0
 739 0004 6A46     		mov	r2, sp
 740 0006 EF23     		movs	r3, #239
 741 0008 1370     		strb	r3, [r2]
 742              	.LVL81:
 155:Code\UserApp\Protocol/CmdProtocol.c **** 	uart_buf[cnt++] = (pack_len >> 8) & 0xFF;					// åŒ…é•¿åº¦é«˜å­—èŠ‚							//
 743              		.loc 1 155 0
 744 000a B53B     		subs	r3, r3, #181
 745 000c 5370     		strb	r3, [r2, #1]
 746              	.LVL82:
 156:Code\UserApp\Protocol/CmdProtocol.c **** 	uart_buf[cnt++] = pack_len & 0xFF;							// åŒ…é•¿åº¦ä½å­—èŠ‚							//
 747              		.loc 1 156 0
 748 000e 0023     		movs	r3, #0
 157:Code\UserApp\Protocol/CmdProtocol.c **** 	uart_buf[cnt++] = 0x01;
 749              		.loc 1 157 0
 750 0010 6946     		mov	r1, sp
 156:Code\UserApp\Protocol/CmdProtocol.c **** 	uart_buf[cnt++] = pack_len & 0xFF;							// åŒ…é•¿åº¦ä½å­—èŠ‚							//
 751              		.loc 1 156 0
ARM GAS  C:\Users\Administrator\AppData\Local\Temp\ccexfbaX.s 			page 44


 752 0012 9370     		strb	r3, [r2, #2]
 753              	.LVL83:
 157:Code\UserApp\Protocol/CmdProtocol.c **** 	uart_buf[cnt++] = 0x01;
 754              		.loc 1 157 0
 755 0014 0F22     		movs	r2, #15
 164:Code\UserApp\Protocol/CmdProtocol.c **** 	}
 756              		.loc 1 164 0
 757 0016 1548     		ldr	r0, .L34
 157:Code\UserApp\Protocol/CmdProtocol.c **** 	uart_buf[cnt++] = 0x01;
 758              		.loc 1 157 0
 759 0018 CA70     		strb	r2, [r1, #3]
 760              	.LVL84:
 158:Code\UserApp\Protocol/CmdProtocol.c **** 	uart_buf[cnt++] = 0x01;
 761              		.loc 1 158 0
 762 001a 0E3A     		subs	r2, r2, #14
 763 001c 0A71     		strb	r2, [r1, #4]
 764              	.LVL85:
 159:Code\UserApp\Protocol/CmdProtocol.c **** 	uart_buf[cnt++] = 0x01;
 765              		.loc 1 159 0
 766 001e 4A71     		strb	r2, [r1, #5]
 767              	.LVL86:
 160:Code\UserApp\Protocol/CmdProtocol.c **** 	
 768              		.loc 1 160 0
 769 0020 8A71     		strb	r2, [r1, #6]
 770              	.LVL87:
 771              	.L32:
 164:Code\UserApp\Protocol/CmdProtocol.c **** 	}
 772              		.loc 1 164 0 discriminator 3
 773 0022 1A00     		movs	r2, r3
 774 0024 C15C     		ldrb	r1, [r0, r3]
 775 0026 6A44     		add	r2, r2, sp
 776 0028 0133     		adds	r3, r3, #1
 777              	.LVL88:
 778 002a D171     		strb	r1, [r2, #7]
 162:Code\UserApp\Protocol/CmdProtocol.c **** 	{
 779              		.loc 1 162 0 discriminator 3
 780 002c 062B     		cmp	r3, #6
 781 002e F8D1     		bne	.L32
 167:Code\UserApp\Protocol/CmdProtocol.c **** 	LONG2BYTE(time_tmp, time_arr);
 782              		.loc 1 167 0
 783 0030 FFF7FEFF 		bl	RTC_GetUnixTime
 784              	.LVL89:
 169:Code\UserApp\Protocol/CmdProtocol.c **** 	uart_buf[cnt++] = time_arr[1];
 785              		.loc 1 169 0
 786 0034 6A46     		mov	r2, sp
 787 0036 030E     		lsrs	r3, r0, #24
 788 0038 5373     		strb	r3, [r2, #13]
 789              	.LVL90:
 170:Code\UserApp\Protocol/CmdProtocol.c **** 	uart_buf[cnt++] = time_arr[2];
 790              		.loc 1 170 0
 791 003a 030C     		lsrs	r3, r0, #16
 792 003c 9373     		strb	r3, [r2, #14]
 793              	.LVL91:
 172:Code\UserApp\Protocol/CmdProtocol.c **** 	
 794              		.loc 1 172 0
 795 003e 1074     		strb	r0, [r2, #16]
 171:Code\UserApp\Protocol/CmdProtocol.c **** 	uart_buf[cnt++] = time_arr[3];
ARM GAS  C:\Users\Administrator\AppData\Local\Temp\ccexfbaX.s 			page 45


 796              		.loc 1 171 0
 797 0040 030A     		lsrs	r3, r0, #8
 174:Code\UserApp\Protocol/CmdProtocol.c **** 	uart_buf[cnt++] = (TempCrc >> 8) & 0xFF;
 798              		.loc 1 174 0
 799 0042 1121     		movs	r1, #17
 800 0044 6846     		mov	r0, sp
 801              	.LVL92:
 171:Code\UserApp\Protocol/CmdProtocol.c **** 	uart_buf[cnt++] = time_arr[3];
 802              		.loc 1 171 0
 803 0046 D373     		strb	r3, [r2, #15]
 804              	.LVL93:
 174:Code\UserApp\Protocol/CmdProtocol.c **** 	uart_buf[cnt++] = (TempCrc >> 8) & 0xFF;
 805              		.loc 1 174 0
 806 0048 FFF7FEFF 		bl	MyCrc16Check
 807              	.LVL94:
 175:Code\UserApp\Protocol/CmdProtocol.c **** 	uart_buf[cnt++] = TempCrc & 0xFF;
 808              		.loc 1 175 0
 809 004c 6A46     		mov	r2, sp
 810 004e 030A     		lsrs	r3, r0, #8
 811 0050 5374     		strb	r3, [r2, #17]
 812              	.LVL95:
 178:Code\UserApp\Protocol/CmdProtocol.c **** 	return 0;
 813              		.loc 1 178 0
 814 0052 9178     		ldrb	r1, [r2, #2]
 815 0054 D378     		ldrb	r3, [r2, #3]
 816 0056 0902     		lsls	r1, r1, #8
 817 0058 0433     		adds	r3, r3, #4
 818 005a C918     		adds	r1, r1, r3
 176:Code\UserApp\Protocol/CmdProtocol.c **** 	
 819              		.loc 1 176 0
 820 005c 9074     		strb	r0, [r2, #18]
 178:Code\UserApp\Protocol/CmdProtocol.c **** 	return 0;
 821              		.loc 1 178 0
 822 005e 89B2     		uxth	r1, r1
 823 0060 6846     		mov	r0, sp
 824              	.LVL96:
 825 0062 FFF7FEFF 		bl	GPRS_SendHexDataToServer
 826              	.LVL97:
 180:Code\UserApp\Protocol/CmdProtocol.c **** 
 827              		.loc 1 180 0
 828 0066 0020     		movs	r0, #0
 829 0068 19B0     		add	sp, sp, #100
 830              		@ sp needed
 831 006a 00BD     		pop	{pc}
 832              	.L35:
 833              		.align	2
 834              	.L34:
 835 006c 00000000 		.word	Mac_Addr
 836              		.cfi_endproc
 837              	.LFE65:
 838              		.size	send_get_pre_service_ip, .-send_get_pre_service_ip
 839              		.section	.text.send_send_mac_and_get_blekey,"ax",%progbits
 840              		.align	1
 841              		.global	send_send_mac_and_get_blekey
 842              		.code	16
 843              		.thumb_func
 844              		.type	send_send_mac_and_get_blekey, %function
ARM GAS  C:\Users\Administrator\AppData\Local\Temp\ccexfbaX.s 			page 46


 845              	send_send_mac_and_get_blekey:
 846              	.LFB66:
 191:Code\UserApp\Protocol/CmdProtocol.c **** 	uint8 ver;
 847              		.loc 1 191 0
 848              		.cfi_startproc
 849              		@ args = 0, pretend = 0, frame = 96
 850              		@ frame_needed = 0, uses_anonymous_args = 0
 851              	.LVL98:
 852 0000 10B5     		push	{r4, lr}
 853              		.cfi_def_cfa_offset 8
 854              		.cfi_offset 4, -8
 855              		.cfi_offset 14, -4
 856 0002 98B0     		sub	sp, sp, #96
 857              		.cfi_def_cfa_offset 104
 201:Code\UserApp\Protocol/CmdProtocol.c **** 	uart_buf[cnt++] = 0x3a;
 858              		.loc 1 201 0
 859 0004 6A46     		mov	r2, sp
 860 0006 EF23     		movs	r3, #239
 861 0008 1370     		strb	r3, [r2]
 862              	.LVL99:
 202:Code\UserApp\Protocol/CmdProtocol.c **** 	uart_buf[cnt++] = (pack_len >> 8) & 0xFF;					// åŒ…é•¿åº¦é«˜å­—èŠ‚							//
 863              		.loc 1 202 0
 864 000a B53B     		subs	r3, r3, #181
 865 000c 5370     		strb	r3, [r2, #1]
 866              	.LVL100:
 203:Code\UserApp\Protocol/CmdProtocol.c **** 	uart_buf[cnt++] = pack_len & 0xFF;							// åŒ…é•¿åº¦ä½å­—èŠ‚							//
 867              		.loc 1 203 0
 868 000e 0023     		movs	r3, #0
 204:Code\UserApp\Protocol/CmdProtocol.c **** 	uart_buf[cnt++] = 0x01;
 869              		.loc 1 204 0
 870 0010 6946     		mov	r1, sp
 203:Code\UserApp\Protocol/CmdProtocol.c **** 	uart_buf[cnt++] = pack_len & 0xFF;							// åŒ…é•¿åº¦ä½å­—èŠ‚							//
 871              		.loc 1 203 0
 872 0012 9370     		strb	r3, [r2, #2]
 873              	.LVL101:
 204:Code\UserApp\Protocol/CmdProtocol.c **** 	uart_buf[cnt++] = 0x01;
 874              		.loc 1 204 0
 875 0014 1122     		movs	r2, #17
 876 0016 CA70     		strb	r2, [r1, #3]
 877              	.LVL102:
 205:Code\UserApp\Protocol/CmdProtocol.c **** 	uart_buf[cnt++] = 0x01;
 878              		.loc 1 205 0
 879 0018 103A     		subs	r2, r2, #16
 880 001a 0A71     		strb	r2, [r1, #4]
 881              	.LVL103:
 206:Code\UserApp\Protocol/CmdProtocol.c **** 	uart_buf[cnt++] = 0x02;
 882              		.loc 1 206 0
 883 001c 4A71     		strb	r2, [r1, #5]
 884              	.LVL104:
 211:Code\UserApp\Protocol/CmdProtocol.c **** 	}
 885              		.loc 1 211 0
 886 001e 1748     		ldr	r0, .L39
 207:Code\UserApp\Protocol/CmdProtocol.c **** 	
 887              		.loc 1 207 0
 888 0020 0132     		adds	r2, r2, #1
 889 0022 8A71     		strb	r2, [r1, #6]
 890              	.LVL105:
ARM GAS  C:\Users\Administrator\AppData\Local\Temp\ccexfbaX.s 			page 47


 891              	.L37:
 211:Code\UserApp\Protocol/CmdProtocol.c **** 	}
 892              		.loc 1 211 0 discriminator 3
 893 0024 1A00     		movs	r2, r3
 894 0026 C15C     		ldrb	r1, [r0, r3]
 895 0028 6A44     		add	r2, r2, sp
 896 002a 0133     		adds	r3, r3, #1
 897              	.LVL106:
 898 002c D171     		strb	r1, [r2, #7]
 209:Code\UserApp\Protocol/CmdProtocol.c **** 	{
 899              		.loc 1 209 0 discriminator 3
 900 002e 062B     		cmp	r3, #6
 901 0030 F8D1     		bne	.L37
 215:Code\UserApp\Protocol/CmdProtocol.c **** 	uart_buf[cnt++] = ver & 0xFF;
 902              		.loc 1 215 0
 903 0032 6A46     		mov	r2, sp
 904 0034 0024     		movs	r4, #0
 214:Code\UserApp\Protocol/CmdProtocol.c **** 	uart_buf[cnt++] = (ver >> 8) & 0xFF;
 905              		.loc 1 214 0
 906 0036 124B     		ldr	r3, .L39+4
 215:Code\UserApp\Protocol/CmdProtocol.c **** 	uart_buf[cnt++] = ver & 0xFF;
 907              		.loc 1 215 0
 908 0038 5473     		strb	r4, [r2, #13]
 214:Code\UserApp\Protocol/CmdProtocol.c **** 	uart_buf[cnt++] = (ver >> 8) & 0xFF;
 909              		.loc 1 214 0
 910 003a 1B78     		ldrb	r3, [r3]
 911              	.LVL107:
 216:Code\UserApp\Protocol/CmdProtocol.c **** 	    
 912              		.loc 1 216 0
 913 003c 9373     		strb	r3, [r2, #14]
 218:Code\UserApp\Protocol/CmdProtocol.c **** 	LONG2BYTE(time_tmp, time_arr);
 914              		.loc 1 218 0
 915 003e FFF7FEFF 		bl	RTC_GetUnixTime
 916              	.LVL108:
 220:Code\UserApp\Protocol/CmdProtocol.c **** 	uart_buf[cnt++] = time_arr[1];
 917              		.loc 1 220 0
 918 0042 6A46     		mov	r2, sp
 919 0044 030E     		lsrs	r3, r0, #24
 920 0046 D373     		strb	r3, [r2, #15]
 921              	.LVL109:
 221:Code\UserApp\Protocol/CmdProtocol.c **** 	uart_buf[cnt++] = time_arr[2];
 922              		.loc 1 221 0
 923 0048 030C     		lsrs	r3, r0, #16
 924 004a 1374     		strb	r3, [r2, #16]
 925              	.LVL110:
 223:Code\UserApp\Protocol/CmdProtocol.c **** 	
 926              		.loc 1 223 0
 927 004c 9074     		strb	r0, [r2, #18]
 222:Code\UserApp\Protocol/CmdProtocol.c **** 	uart_buf[cnt++] = time_arr[3];
 928              		.loc 1 222 0
 929 004e 030A     		lsrs	r3, r0, #8
 225:Code\UserApp\Protocol/CmdProtocol.c **** 	uart_buf[cnt++] = (TempCrc >> 8) & 0xFF;
 930              		.loc 1 225 0
 931 0050 1321     		movs	r1, #19
 932 0052 6846     		mov	r0, sp
 933              	.LVL111:
 222:Code\UserApp\Protocol/CmdProtocol.c **** 	uart_buf[cnt++] = time_arr[3];
ARM GAS  C:\Users\Administrator\AppData\Local\Temp\ccexfbaX.s 			page 48


 934              		.loc 1 222 0
 935 0054 5374     		strb	r3, [r2, #17]
 936              	.LVL112:
 225:Code\UserApp\Protocol/CmdProtocol.c **** 	uart_buf[cnt++] = (TempCrc >> 8) & 0xFF;
 937              		.loc 1 225 0
 938 0056 FFF7FEFF 		bl	MyCrc16Check
 939              	.LVL113:
 226:Code\UserApp\Protocol/CmdProtocol.c **** 	uart_buf[cnt++] = TempCrc & 0xFF;
 940              		.loc 1 226 0
 941 005a 6A46     		mov	r2, sp
 942 005c 030A     		lsrs	r3, r0, #8
 943 005e D374     		strb	r3, [r2, #19]
 944              	.LVL114:
 229:Code\UserApp\Protocol/CmdProtocol.c **** 	return 0;
 945              		.loc 1 229 0
 946 0060 9178     		ldrb	r1, [r2, #2]
 947 0062 D378     		ldrb	r3, [r2, #3]
 948 0064 0902     		lsls	r1, r1, #8
 949 0066 0433     		adds	r3, r3, #4
 950 0068 C918     		adds	r1, r1, r3
 227:Code\UserApp\Protocol/CmdProtocol.c **** 	
 951              		.loc 1 227 0
 952 006a 1075     		strb	r0, [r2, #20]
 229:Code\UserApp\Protocol/CmdProtocol.c **** 	return 0;
 953              		.loc 1 229 0
 954 006c 89B2     		uxth	r1, r1
 955 006e 6846     		mov	r0, sp
 956              	.LVL115:
 957 0070 FFF7FEFF 		bl	GPRS_SendHexDataToServer
 958              	.LVL116:
 231:Code\UserApp\Protocol/CmdProtocol.c **** 
 959              		.loc 1 231 0
 960 0074 2000     		movs	r0, r4
 961 0076 18B0     		add	sp, sp, #96
 962              		@ sp needed
 963 0078 10BD     		pop	{r4, pc}
 964              	.L40:
 965 007a C046     		.align	2
 966              	.L39:
 967 007c 00000000 		.word	Mac_Addr
 968 0080 00000000 		.word	system_version
 969              		.cfi_endproc
 970              	.LFE66:
 971              		.size	send_send_mac_and_get_blekey, .-send_send_mac_and_get_blekey
 972              		.section	.text.send_upload_open_info,"ax",%progbits
 973              		.align	1
 974              		.global	send_upload_open_info
 975              		.code	16
 976              		.thumb_func
 977              		.type	send_upload_open_info, %function
 978              	send_upload_open_info:
 979              	.LFB67:
 245:Code\UserApp\Protocol/CmdProtocol.c **** 	uint8 uart_buf[96];
 980              		.loc 1 245 0
 981              		.cfi_startproc
 982              		@ args = 0, pretend = 0, frame = 96
 983              		@ frame_needed = 0, uses_anonymous_args = 0
ARM GAS  C:\Users\Administrator\AppData\Local\Temp\ccexfbaX.s 			page 49


 984              	.LVL117:
 985 0000 70B5     		push	{r4, r5, r6, lr}
 986              		.cfi_def_cfa_offset 16
 987              		.cfi_offset 4, -16
 988              		.cfi_offset 5, -12
 989              		.cfi_offset 6, -8
 990              		.cfi_offset 14, -4
 991 0002 98B0     		sub	sp, sp, #96
 992              		.cfi_def_cfa_offset 112
 255:Code\UserApp\Protocol/CmdProtocol.c **** 	uart_buf[cnt++] = 0x3a;
 993              		.loc 1 255 0
 994 0004 EF23     		movs	r3, #239
 245:Code\UserApp\Protocol/CmdProtocol.c **** 	uint8 uart_buf[96];
 995              		.loc 1 245 0
 996 0006 1600     		movs	r6, r2
 255:Code\UserApp\Protocol/CmdProtocol.c **** 	uart_buf[cnt++] = 0x3a;
 997              		.loc 1 255 0
 998 0008 6A46     		mov	r2, sp
 999              	.LVL118:
 1000 000a 1370     		strb	r3, [r2]
 256:Code\UserApp\Protocol/CmdProtocol.c **** 	uart_buf[cnt++] = (pack_len >> 8) & 0xFF;					// åŒ…é•¿åº¦é«˜å­—èŠ‚							//
 1001              		.loc 1 256 0
 1002 000c B53B     		subs	r3, r3, #181
 1003 000e 5370     		strb	r3, [r2, #1]
 257:Code\UserApp\Protocol/CmdProtocol.c **** 	uart_buf[cnt++] = pack_len & 0xFF;							// åŒ…é•¿åº¦ä½å­—èŠ‚							//
 1004              		.loc 1 257 0
 1005 0010 0023     		movs	r3, #0
 245:Code\UserApp\Protocol/CmdProtocol.c **** 	uint8 uart_buf[96];
 1006              		.loc 1 245 0
 1007 0012 0C00     		movs	r4, r1
 257:Code\UserApp\Protocol/CmdProtocol.c **** 	uart_buf[cnt++] = pack_len & 0xFF;							// åŒ…é•¿åº¦ä½å­—èŠ‚							//
 1008              		.loc 1 257 0
 1009 0014 9370     		strb	r3, [r2, #2]
 258:Code\UserApp\Protocol/CmdProtocol.c **** 	uart_buf[cnt++] = 0x01;
 1010              		.loc 1 258 0
 1011 0016 6946     		mov	r1, sp
 1012              	.LVL119:
 1013 0018 1C22     		movs	r2, #28
 1014 001a CA70     		strb	r2, [r1, #3]
 259:Code\UserApp\Protocol/CmdProtocol.c **** 	uart_buf[cnt++] = 0x01;
 1015              		.loc 1 259 0
 1016 001c 1B3A     		subs	r2, r2, #27
 245:Code\UserApp\Protocol/CmdProtocol.c **** 	uint8 uart_buf[96];
 1017              		.loc 1 245 0
 1018 001e 0500     		movs	r5, r0
 1019              	.LVL120:
 259:Code\UserApp\Protocol/CmdProtocol.c **** 	uart_buf[cnt++] = 0x01;
 1020              		.loc 1 259 0
 1021 0020 0A71     		strb	r2, [r1, #4]
 1022              	.LVL121:
 260:Code\UserApp\Protocol/CmdProtocol.c **** 	uart_buf[cnt++] = 0x07;
 1023              		.loc 1 260 0
 1024 0022 4A71     		strb	r2, [r1, #5]
 1025              	.LVL122:
 265:Code\UserApp\Protocol/CmdProtocol.c **** 	}
 1026              		.loc 1 265 0
 1027 0024 3148     		ldr	r0, .L49
ARM GAS  C:\Users\Administrator\AppData\Local\Temp\ccexfbaX.s 			page 50


 1028              	.LVL123:
 261:Code\UserApp\Protocol/CmdProtocol.c **** 	
 1029              		.loc 1 261 0
 1030 0026 0632     		adds	r2, r2, #6
 1031 0028 8A71     		strb	r2, [r1, #6]
 1032              	.LVL124:
 1033              	.L42:
 265:Code\UserApp\Protocol/CmdProtocol.c **** 	}
 1034              		.loc 1 265 0 discriminator 3
 1035 002a 1A00     		movs	r2, r3
 1036 002c C15C     		ldrb	r1, [r0, r3]
 1037 002e 6A44     		add	r2, r2, sp
 1038 0030 0133     		adds	r3, r3, #1
 1039              	.LVL125:
 1040 0032 D171     		strb	r1, [r2, #7]
 263:Code\UserApp\Protocol/CmdProtocol.c **** 	{
 1041              		.loc 1 263 0 discriminator 3
 1042 0034 062B     		cmp	r3, #6
 1043 0036 F8D1     		bne	.L42
 268:Code\UserApp\Protocol/CmdProtocol.c **** 	{
 1044              		.loc 1 268 0
 1045 0038 2800     		movs	r0, r5
 1046 003a FFF7FEFF 		bl	Endpoint_exchange
 1047              	.LVL126:
 270:Code\UserApp\Protocol/CmdProtocol.c **** 		{
 1048              		.loc 1 270 0
 1049 003e 0023     		movs	r3, #0
 1050 0040 A4B2     		uxth	r4, r4
 1051              	.LVL127:
 1052              	.L43:
 270:Code\UserApp\Protocol/CmdProtocol.c **** 		{
 1053              		.loc 1 270 0 is_stmt 0 discriminator 1
 1054 0042 9AB2     		uxth	r2, r3
 1055 0044 9442     		cmp	r4, r2
 1056 0046 05D9     		bls	.L48
 1057              	.LVL128:
 272:Code\UserApp\Protocol/CmdProtocol.c **** 		}
 1058              		.loc 1 272 0 is_stmt 1 discriminator 3
 1059 0048 1A00     		movs	r2, r3
 1060 004a E95C     		ldrb	r1, [r5, r3]
 1061 004c 6A44     		add	r2, r2, sp
 1062 004e 5173     		strb	r1, [r2, #13]
 1063              	.LVL129:
 1064 0050 0133     		adds	r3, r3, #1
 1065              	.LVL130:
 1066 0052 F6E7     		b	.L43
 1067              	.LVL131:
 1068              	.L48:
 276:Code\UserApp\Protocol/CmdProtocol.c **** 	
 1069              		.loc 1 276 0
 1070 0054 2300     		movs	r3, r4
 1071              	.LVL132:
 1072 0056 6A46     		mov	r2, sp
 1073              	.LVL133:
 278:Code\UserApp\Protocol/CmdProtocol.c **** 	uart_buf[cnt++] = pstr->open_time[1];
 1074              		.loc 1 278 0
 1075 0058 6946     		mov	r1, sp
ARM GAS  C:\Users\Administrator\AppData\Local\Temp\ccexfbaX.s 			page 51


 276:Code\UserApp\Protocol/CmdProtocol.c **** 	
 1076              		.loc 1 276 0
 1077 005a 0D33     		adds	r3, r3, #13
 1078 005c D654     		strb	r6, [r2, r3]
 1079              	.LVL134:
 278:Code\UserApp\Protocol/CmdProtocol.c **** 	uart_buf[cnt++] = pstr->open_time[1];
 1080              		.loc 1 278 0
 1081 005e 2A7A     		ldrb	r2, [r5, #8]
 1082 0060 0133     		adds	r3, r3, #1
 1083 0062 CA54     		strb	r2, [r1, r3]
 1084              	.LVL135:
 279:Code\UserApp\Protocol/CmdProtocol.c **** 	uart_buf[cnt++] = pstr->open_time[2];
 1085              		.loc 1 279 0
 1086 0064 6A7A     		ldrb	r2, [r5, #9]
 1087 0066 0133     		adds	r3, r3, #1
 1088 0068 CA54     		strb	r2, [r1, r3]
 1089              	.LVL136:
 280:Code\UserApp\Protocol/CmdProtocol.c **** 	uart_buf[cnt++] = pstr->open_time[3];
 1090              		.loc 1 280 0
 1091 006a AA7A     		ldrb	r2, [r5, #10]
 1092 006c 0133     		adds	r3, r3, #1
 1093 006e CA54     		strb	r2, [r1, r3]
 1094              	.LVL137:
 281:Code\UserApp\Protocol/CmdProtocol.c **** 	
 1095              		.loc 1 281 0
 1096 0070 EA7A     		ldrb	r2, [r5, #11]
 1097 0072 0133     		adds	r3, r3, #1
 1098 0074 CA54     		strb	r2, [r1, r3]
 283:Code\UserApp\Protocol/CmdProtocol.c **** 	LONG2BYTE(time_tmp, time_arr);
 1099              		.loc 1 283 0
 1100 0076 FFF7FEFF 		bl	RTC_GetUnixTime
 1101              	.LVL138:
 285:Code\UserApp\Protocol/CmdProtocol.c **** 	uart_buf[cnt++] = time_arr[1];
 1102              		.loc 1 285 0
 1103 007a 2300     		movs	r3, r4
 1104 007c 6946     		mov	r1, sp
 1105 007e 020E     		lsrs	r2, r0, #24
 1106 0080 1233     		adds	r3, r3, #18
 1107 0082 CA54     		strb	r2, [r1, r3]
 1108              	.LVL139:
 286:Code\UserApp\Protocol/CmdProtocol.c **** 	uart_buf[cnt++] = time_arr[2];
 1109              		.loc 1 286 0
 1110 0084 020C     		lsrs	r2, r0, #16
 1111 0086 0133     		adds	r3, r3, #1
 1112 0088 CA54     		strb	r2, [r1, r3]
 1113              	.LVL140:
 287:Code\UserApp\Protocol/CmdProtocol.c **** 	uart_buf[cnt++] = time_arr[3];
 1114              		.loc 1 287 0
 1115 008a 020A     		lsrs	r2, r0, #8
 1116 008c 0133     		adds	r3, r3, #1
 1117 008e CA54     		strb	r2, [r1, r3]
 1118              	.LVL141:
 288:Code\UserApp\Protocol/CmdProtocol.c **** 	
 1119              		.loc 1 288 0
 1120 0090 0133     		adds	r3, r3, #1
 1121 0092 C854     		strb	r0, [r1, r3]
 290:Code\UserApp\Protocol/CmdProtocol.c **** 	uart_buf[cnt++] = (TempCrc >> 8) & 0xFF;
ARM GAS  C:\Users\Administrator\AppData\Local\Temp\ccexfbaX.s 			page 52


 1122              		.loc 1 290 0
 1123 0094 1E21     		movs	r1, #30
 1124 0096 6846     		mov	r0, sp
 1125              	.LVL142:
 1126 0098 FFF7FEFF 		bl	MyCrc16Check
 1127              	.LVL143:
 291:Code\UserApp\Protocol/CmdProtocol.c **** 	uart_buf[cnt++] = TempCrc & 0xFF;
 1128              		.loc 1 291 0
 1129 009c 2300     		movs	r3, r4
 1130 009e 6946     		mov	r1, sp
 1131 00a0 1633     		adds	r3, r3, #22
 1132 00a2 020A     		lsrs	r2, r0, #8
 292:Code\UserApp\Protocol/CmdProtocol.c **** 	
 1133              		.loc 1 292 0
 1134 00a4 1734     		adds	r4, r4, #23
 1135              	.LVL144:
 291:Code\UserApp\Protocol/CmdProtocol.c **** 	uart_buf[cnt++] = TempCrc & 0xFF;
 1136              		.loc 1 291 0
 1137 00a6 CA54     		strb	r2, [r1, r3]
 292:Code\UserApp\Protocol/CmdProtocol.c **** 	
 1138              		.loc 1 292 0
 1139 00a8 0855     		strb	r0, [r1, r4]
 294:Code\UserApp\Protocol/CmdProtocol.c **** 	if ((cur_time + 300) > next_heartbeat_time)					// ä¸‹ä¸€æ¬¡å¿ƒè·³åœ¨5minä»¥å†…					//
 1140              		.loc 1 294 0
 1141 00aa FFF7FEFF 		bl	RTC_GetUnixTime
 1142              	.LVL145:
 295:Code\UserApp\Protocol/CmdProtocol.c **** 	{
 1143              		.loc 1 295 0
 1144 00ae 0200     		movs	r2, r0
 294:Code\UserApp\Protocol/CmdProtocol.c **** 	if ((cur_time + 300) > next_heartbeat_time)					// ä¸‹ä¸€æ¬¡å¿ƒè·³åœ¨5minä»¥å†…					//
 1145              		.loc 1 294 0
 1146 00b0 0F4B     		ldr	r3, .L49+4
 295:Code\UserApp\Protocol/CmdProtocol.c **** 	{
 1147              		.loc 1 295 0
 1148 00b2 2D32     		adds	r2, r2, #45
 294:Code\UserApp\Protocol/CmdProtocol.c **** 	if ((cur_time + 300) > next_heartbeat_time)					// ä¸‹ä¸€æ¬¡å¿ƒè·³åœ¨5minä»¥å†…					//
 1149              		.loc 1 294 0
 1150 00b4 1860     		str	r0, [r3]
 295:Code\UserApp\Protocol/CmdProtocol.c **** 	{
 1151              		.loc 1 295 0
 1152 00b6 0F4B     		ldr	r3, .L49+8
 1153 00b8 FF32     		adds	r2, r2, #255
 1154 00ba 1968     		ldr	r1, [r3]
 1155 00bc 8A42     		cmp	r2, r1
 1156 00be 00D9     		bls	.L45
 297:Code\UserApp\Protocol/CmdProtocol.c **** 	}
 1157              		.loc 1 297 0
 1158 00c0 1A60     		str	r2, [r3]
 1159              	.L45:
 300:Code\UserApp\Protocol/CmdProtocol.c **** 	{
 1160              		.loc 1 300 0
 1161 00c2 0D4B     		ldr	r3, .L49+12
 1162 00c4 3C30     		adds	r0, r0, #60
 1163 00c6 1A68     		ldr	r2, [r3]
 1164 00c8 9042     		cmp	r0, r2
 1165 00ca 00D9     		bls	.L46
 302:Code\UserApp\Protocol/CmdProtocol.c **** 	}
ARM GAS  C:\Users\Administrator\AppData\Local\Temp\ccexfbaX.s 			page 53


 1166              		.loc 1 302 0
 1167 00cc 1860     		str	r0, [r3]
 1168              	.L46:
 310:Code\UserApp\Protocol/CmdProtocol.c **** 	
 1169              		.loc 1 310 0
 1170 00ce 6B46     		mov	r3, sp
 1171 00d0 9978     		ldrb	r1, [r3, #2]
 1172 00d2 DB78     		ldrb	r3, [r3, #3]
 1173 00d4 0902     		lsls	r1, r1, #8
 1174 00d6 0433     		adds	r3, r3, #4
 1175 00d8 C918     		adds	r1, r1, r3
 1176 00da 89B2     		uxth	r1, r1
 1177 00dc 6846     		mov	r0, sp
 1178 00de FFF7FEFF 		bl	GPRS_SendHexDataToServer
 1179              	.LVL146:
 312:Code\UserApp\Protocol/CmdProtocol.c **** 	return 0;
 1180              		.loc 1 312 0
 1181 00e2 0020     		movs	r0, #0
 1182 00e4 054B     		ldr	r3, .L49+16
 1183 00e6 1870     		strb	r0, [r3]
 314:Code\UserApp\Protocol/CmdProtocol.c **** 
 1184              		.loc 1 314 0
 1185 00e8 18B0     		add	sp, sp, #96
 1186              		@ sp needed
 1187              	.LVL147:
 1188 00ea 70BD     		pop	{r4, r5, r6, pc}
 1189              	.L50:
 1190              		.align	2
 1191              	.L49:
 1192 00ec 00000000 		.word	Mac_Addr
 1193 00f0 00000000 		.word	cur_time
 1194 00f4 00000000 		.word	next_heartbeat_time
 1195 00f8 00000000 		.word	next_gprs_upload_time
 1196 00fc 00000000 		.word	uploadpolling_stop
 1197              		.cfi_endproc
 1198              	.LFE67:
 1199              		.size	send_upload_open_info, .-send_upload_open_info
 1200              		.section	.text.send_heartbeat,"ax",%progbits
 1201              		.align	1
 1202              		.global	send_heartbeat
 1203              		.code	16
 1204              		.thumb_func
 1205              		.type	send_heartbeat, %function
 1206              	send_heartbeat:
 1207              	.LFB68:
 325:Code\UserApp\Protocol/CmdProtocol.c **** 	uint8 uart_buf[96];
 1208              		.loc 1 325 0
 1209              		.cfi_startproc
 1210              		@ args = 0, pretend = 0, frame = 96
 1211              		@ frame_needed = 0, uses_anonymous_args = 0
 1212              	.LVL148:
 1213 0000 10B5     		push	{r4, lr}
 1214              		.cfi_def_cfa_offset 8
 1215              		.cfi_offset 4, -8
 1216              		.cfi_offset 14, -4
 1217 0002 98B0     		sub	sp, sp, #96
 1218              		.cfi_def_cfa_offset 104
ARM GAS  C:\Users\Administrator\AppData\Local\Temp\ccexfbaX.s 			page 54


 335:Code\UserApp\Protocol/CmdProtocol.c **** 	uart_buf[cnt++] = 0x3a;
 1219              		.loc 1 335 0
 1220 0004 6A46     		mov	r2, sp
 1221 0006 EF23     		movs	r3, #239
 1222 0008 1370     		strb	r3, [r2]
 1223              	.LVL149:
 336:Code\UserApp\Protocol/CmdProtocol.c **** 	uart_buf[cnt++] = (pack_len >> 8) & 0xFF;					// åŒ…é•¿åº¦é«˜å­—èŠ‚							//
 1224              		.loc 1 336 0
 1225 000a B53B     		subs	r3, r3, #181
 1226 000c 5370     		strb	r3, [r2, #1]
 1227              	.LVL150:
 337:Code\UserApp\Protocol/CmdProtocol.c **** 	uart_buf[cnt++] = pack_len & 0xFF;							// åŒ…é•¿åº¦ä½å­—èŠ‚							//
 1228              		.loc 1 337 0
 1229 000e 0023     		movs	r3, #0
 338:Code\UserApp\Protocol/CmdProtocol.c **** 	uart_buf[cnt++] = 0x01;
 1230              		.loc 1 338 0
 1231 0010 6946     		mov	r1, sp
 337:Code\UserApp\Protocol/CmdProtocol.c **** 	uart_buf[cnt++] = pack_len & 0xFF;							// åŒ…é•¿åº¦ä½å­—èŠ‚							//
 1232              		.loc 1 337 0
 1233 0012 9370     		strb	r3, [r2, #2]
 1234              	.LVL151:
 338:Code\UserApp\Protocol/CmdProtocol.c **** 	uart_buf[cnt++] = 0x01;
 1235              		.loc 1 338 0
 1236 0014 1022     		movs	r2, #16
 1237 0016 CA70     		strb	r2, [r1, #3]
 1238              	.LVL152:
 339:Code\UserApp\Protocol/CmdProtocol.c **** 	uart_buf[cnt++] = 0x01;
 1239              		.loc 1 339 0
 1240 0018 0F3A     		subs	r2, r2, #15
 1241 001a 0A71     		strb	r2, [r1, #4]
 1242              	.LVL153:
 340:Code\UserApp\Protocol/CmdProtocol.c **** 	uart_buf[cnt++] = 0x08;
 1243              		.loc 1 340 0
 1244 001c 4A71     		strb	r2, [r1, #5]
 1245              	.LVL154:
 345:Code\UserApp\Protocol/CmdProtocol.c **** 	}
 1246              		.loc 1 345 0
 1247 001e 154C     		ldr	r4, .L54
 341:Code\UserApp\Protocol/CmdProtocol.c **** 	
 1248              		.loc 1 341 0
 1249 0020 0732     		adds	r2, r2, #7
 1250 0022 8A71     		strb	r2, [r1, #6]
 1251              	.LVL155:
 1252              	.L52:
 345:Code\UserApp\Protocol/CmdProtocol.c **** 	}
 1253              		.loc 1 345 0 discriminator 3
 1254 0024 1A00     		movs	r2, r3
 1255 0026 E15C     		ldrb	r1, [r4, r3]
 1256 0028 6A44     		add	r2, r2, sp
 1257 002a 0133     		adds	r3, r3, #1
 1258              	.LVL156:
 1259 002c D171     		strb	r1, [r2, #7]
 343:Code\UserApp\Protocol/CmdProtocol.c **** 	{
 1260              		.loc 1 343 0 discriminator 3
 1261 002e 062B     		cmp	r3, #6
 1262 0030 F8D1     		bne	.L52
 1263              	.LVL157:
ARM GAS  C:\Users\Administrator\AppData\Local\Temp\ccexfbaX.s 			page 55


 348:Code\UserApp\Protocol/CmdProtocol.c **** 	#if DEF_RSSI
 1264              		.loc 1 348 0
 1265 0032 6B46     		mov	r3, sp
 1266 0034 5873     		strb	r0, [r3, #13]
 354:Code\UserApp\Protocol/CmdProtocol.c **** 	LONG2BYTE(time_tmp, time_arr);
 1267              		.loc 1 354 0
 1268 0036 FFF7FEFF 		bl	RTC_GetUnixTime
 1269              	.LVL158:
 356:Code\UserApp\Protocol/CmdProtocol.c **** 	uart_buf[cnt++] = time_arr[1];
 1270              		.loc 1 356 0
 1271 003a 6A46     		mov	r2, sp
 1272 003c 030E     		lsrs	r3, r0, #24
 1273 003e 9373     		strb	r3, [r2, #14]
 1274              	.LVL159:
 357:Code\UserApp\Protocol/CmdProtocol.c **** 	uart_buf[cnt++] = time_arr[2];
 1275              		.loc 1 357 0
 1276 0040 030C     		lsrs	r3, r0, #16
 1277 0042 D373     		strb	r3, [r2, #15]
 1278              	.LVL160:
 359:Code\UserApp\Protocol/CmdProtocol.c **** 	
 1279              		.loc 1 359 0
 1280 0044 5074     		strb	r0, [r2, #17]
 358:Code\UserApp\Protocol/CmdProtocol.c **** 	uart_buf[cnt++] = time_arr[3];
 1281              		.loc 1 358 0
 1282 0046 030A     		lsrs	r3, r0, #8
 361:Code\UserApp\Protocol/CmdProtocol.c **** 	uart_buf[cnt++] = (TempCrc >> 8) & 0xFF;
 1283              		.loc 1 361 0
 1284 0048 1221     		movs	r1, #18
 1285 004a 6846     		mov	r0, sp
 1286              	.LVL161:
 358:Code\UserApp\Protocol/CmdProtocol.c **** 	uart_buf[cnt++] = time_arr[3];
 1287              		.loc 1 358 0
 1288 004c 1374     		strb	r3, [r2, #16]
 1289              	.LVL162:
 361:Code\UserApp\Protocol/CmdProtocol.c **** 	uart_buf[cnt++] = (TempCrc >> 8) & 0xFF;
 1290              		.loc 1 361 0
 1291 004e FFF7FEFF 		bl	MyCrc16Check
 1292              	.LVL163:
 362:Code\UserApp\Protocol/CmdProtocol.c **** 	uart_buf[cnt++] = TempCrc & 0xFF;
 1293              		.loc 1 362 0
 1294 0052 6A46     		mov	r2, sp
 1295 0054 030A     		lsrs	r3, r0, #8
 1296 0056 9374     		strb	r3, [r2, #18]
 1297              	.LVL164:
 366:Code\UserApp\Protocol/CmdProtocol.c **** 	
 1298              		.loc 1 366 0
 1299 0058 9178     		ldrb	r1, [r2, #2]
 1300 005a D378     		ldrb	r3, [r2, #3]
 1301 005c 0902     		lsls	r1, r1, #8
 1302 005e 0433     		adds	r3, r3, #4
 1303 0060 C918     		adds	r1, r1, r3
 363:Code\UserApp\Protocol/CmdProtocol.c **** 	//DBG_SOFT_PutStr("\nsend_heartbeat:\n");
 1304              		.loc 1 363 0
 1305 0062 D074     		strb	r0, [r2, #19]
 366:Code\UserApp\Protocol/CmdProtocol.c **** 	
 1306              		.loc 1 366 0
 1307 0064 89B2     		uxth	r1, r1
ARM GAS  C:\Users\Administrator\AppData\Local\Temp\ccexfbaX.s 			page 56


 1308 0066 6846     		mov	r0, sp
 1309              	.LVL165:
 1310 0068 FFF7FEFF 		bl	GPRS_SendHexDataToServer
 1311              	.LVL166:
 369:Code\UserApp\Protocol/CmdProtocol.c **** 
 1312              		.loc 1 369 0
 1313 006c 0020     		movs	r0, #0
 1314 006e 18B0     		add	sp, sp, #96
 1315              		@ sp needed
 1316 0070 10BD     		pop	{r4, pc}
 1317              	.L55:
 1318 0072 C046     		.align	2
 1319              	.L54:
 1320 0074 00000000 		.word	Mac_Addr
 1321              		.cfi_endproc
 1322              	.LFE68:
 1323              		.size	send_heartbeat, .-send_heartbeat
 1324              		.section	.text.send_time_adjust,"ax",%progbits
 1325              		.align	1
 1326              		.global	send_time_adjust
 1327              		.code	16
 1328              		.thumb_func
 1329              		.type	send_time_adjust, %function
 1330              	send_time_adjust:
 1331              	.LFB69:
 380:Code\UserApp\Protocol/CmdProtocol.c **** 	uint8 uart_buf[96];
 1332              		.loc 1 380 0
 1333              		.cfi_startproc
 1334              		@ args = 0, pretend = 0, frame = 96
 1335              		@ frame_needed = 0, uses_anonymous_args = 0
 1336              	.LVL167:
 1337 0000 00B5     		push	{lr}
 1338              		.cfi_def_cfa_offset 4
 1339              		.cfi_offset 14, -4
 1340 0002 99B0     		sub	sp, sp, #100
 1341              		.cfi_def_cfa_offset 104
 387:Code\UserApp\Protocol/CmdProtocol.c **** 	uart_buf[cnt++] = 0x3a;
 1342              		.loc 1 387 0
 1343 0004 6A46     		mov	r2, sp
 1344 0006 EF23     		movs	r3, #239
 1345 0008 1370     		strb	r3, [r2]
 1346              	.LVL168:
 388:Code\UserApp\Protocol/CmdProtocol.c **** 	uart_buf[cnt++] = (pack_len >> 8) & 0xFF;					// åŒ…é•¿åº¦é«˜å­—èŠ‚							//
 1347              		.loc 1 388 0
 1348 000a B53B     		subs	r3, r3, #181
 1349 000c 5370     		strb	r3, [r2, #1]
 1350              	.LVL169:
 389:Code\UserApp\Protocol/CmdProtocol.c **** 	uart_buf[cnt++] = pack_len & 0xFF;							// åŒ…é•¿åº¦ä½å­—èŠ‚							//
 1351              		.loc 1 389 0
 1352 000e 0023     		movs	r3, #0
 390:Code\UserApp\Protocol/CmdProtocol.c **** 	uart_buf[cnt++] = 0x01;
 1353              		.loc 1 390 0
 1354 0010 6946     		mov	r1, sp
 389:Code\UserApp\Protocol/CmdProtocol.c **** 	uart_buf[cnt++] = pack_len & 0xFF;							// åŒ…é•¿åº¦ä½å­—èŠ‚							//
 1355              		.loc 1 389 0
 1356 0012 9370     		strb	r3, [r2, #2]
 1357              	.LVL170:
ARM GAS  C:\Users\Administrator\AppData\Local\Temp\ccexfbaX.s 			page 57


 390:Code\UserApp\Protocol/CmdProtocol.c **** 	uart_buf[cnt++] = 0x01;
 1358              		.loc 1 390 0
 1359 0014 0D22     		movs	r2, #13
 1360 0016 CA70     		strb	r2, [r1, #3]
 1361              	.LVL171:
 391:Code\UserApp\Protocol/CmdProtocol.c **** 	uart_buf[cnt++] = 0x01;
 1362              		.loc 1 391 0
 1363 0018 0C3A     		subs	r2, r2, #12
 1364 001a 0A71     		strb	r2, [r1, #4]
 1365              	.LVL172:
 392:Code\UserApp\Protocol/CmdProtocol.c **** 	uart_buf[cnt++] = 0x0A;
 1366              		.loc 1 392 0
 1367 001c 4A71     		strb	r2, [r1, #5]
 1368              	.LVL173:
 397:Code\UserApp\Protocol/CmdProtocol.c **** 	}
 1369              		.loc 1 397 0
 1370 001e 1848     		ldr	r0, .L60
 393:Code\UserApp\Protocol/CmdProtocol.c **** 	
 1371              		.loc 1 393 0
 1372 0020 0932     		adds	r2, r2, #9
 1373 0022 8A71     		strb	r2, [r1, #6]
 1374              	.LVL174:
 1375              	.L57:
 397:Code\UserApp\Protocol/CmdProtocol.c **** 	}
 1376              		.loc 1 397 0 discriminator 3
 1377 0024 1A00     		movs	r2, r3
 1378 0026 C15C     		ldrb	r1, [r0, r3]
 1379 0028 6A44     		add	r2, r2, sp
 1380 002a 0133     		adds	r3, r3, #1
 1381              	.LVL175:
 1382 002c D171     		strb	r1, [r2, #7]
 395:Code\UserApp\Protocol/CmdProtocol.c **** 	{
 1383              		.loc 1 395 0 discriminator 3
 1384 002e 062B     		cmp	r3, #6
 1385 0030 F8D1     		bne	.L57
 1386              	.LVL176:
 400:Code\UserApp\Protocol/CmdProtocol.c **** 	uart_buf[cnt++] = 0xff;
 1387              		.loc 1 400 0
 1388 0032 6A46     		mov	r2, sp
 1389 0034 F933     		adds	r3, r3, #249
 405:Code\UserApp\Protocol/CmdProtocol.c **** 	uart_buf[cnt++] = (TempCrc >> 8) & 0xFF;
 1390              		.loc 1 405 0
 1391 0036 0F21     		movs	r1, #15
 1392 0038 6846     		mov	r0, sp
 400:Code\UserApp\Protocol/CmdProtocol.c **** 	uart_buf[cnt++] = 0xff;
 1393              		.loc 1 400 0
 1394 003a 5373     		strb	r3, [r2, #13]
 1395              	.LVL177:
 401:Code\UserApp\Protocol/CmdProtocol.c **** 	uart_buf[cnt++] = 0xff;
 1396              		.loc 1 401 0
 1397 003c 9373     		strb	r3, [r2, #14]
 1398              	.LVL178:
 402:Code\UserApp\Protocol/CmdProtocol.c **** 	uart_buf[cnt++] = 0xff;
 1399              		.loc 1 402 0
 1400 003e D373     		strb	r3, [r2, #15]
 1401              	.LVL179:
 403:Code\UserApp\Protocol/CmdProtocol.c **** 	
ARM GAS  C:\Users\Administrator\AppData\Local\Temp\ccexfbaX.s 			page 58


 1402              		.loc 1 403 0
 1403 0040 1374     		strb	r3, [r2, #16]
 405:Code\UserApp\Protocol/CmdProtocol.c **** 	uart_buf[cnt++] = (TempCrc >> 8) & 0xFF;
 1404              		.loc 1 405 0
 1405 0042 FFF7FEFF 		bl	MyCrc16Check
 1406              	.LVL180:
 406:Code\UserApp\Protocol/CmdProtocol.c **** 	uart_buf[cnt++] = TempCrc & 0xFF;
 1407              		.loc 1 406 0
 1408 0046 6A46     		mov	r2, sp
 1409 0048 030A     		lsrs	r3, r0, #8
 1410 004a 5374     		strb	r3, [r2, #17]
 1411              	.LVL181:
 407:Code\UserApp\Protocol/CmdProtocol.c **** 	
 1412              		.loc 1 407 0
 1413 004c 9074     		strb	r0, [r2, #18]
 409:Code\UserApp\Protocol/CmdProtocol.c **** 	if ((cur_time + 300) > next_heartbeat_time)					// ä¸‹ä¸€æ¬¡å¿ƒè·³åœ¨5minä»¥å†…					//
 1414              		.loc 1 409 0
 1415 004e FFF7FEFF 		bl	RTC_GetUnixTime
 1416              	.LVL182:
 1417 0052 0C4B     		ldr	r3, .L60+4
 1418 0054 1860     		str	r0, [r3]
 410:Code\UserApp\Protocol/CmdProtocol.c **** 	{
 1419              		.loc 1 410 0
 1420 0056 0C4B     		ldr	r3, .L60+8
 1421 0058 2D30     		adds	r0, r0, #45
 1422 005a 1A68     		ldr	r2, [r3]
 1423 005c FF30     		adds	r0, r0, #255
 1424 005e 9042     		cmp	r0, r2
 1425 0060 00D9     		bls	.L58
 412:Code\UserApp\Protocol/CmdProtocol.c **** 	}
 1426              		.loc 1 412 0
 1427 0062 1860     		str	r0, [r3]
 1428              	.L58:
 414:Code\UserApp\Protocol/CmdProtocol.c **** 	return 0;
 1429              		.loc 1 414 0
 1430 0064 6B46     		mov	r3, sp
 1431 0066 9978     		ldrb	r1, [r3, #2]
 1432 0068 DB78     		ldrb	r3, [r3, #3]
 1433 006a 0902     		lsls	r1, r1, #8
 1434 006c 0433     		adds	r3, r3, #4
 1435 006e C918     		adds	r1, r1, r3
 1436 0070 89B2     		uxth	r1, r1
 1437 0072 6846     		mov	r0, sp
 1438 0074 FFF7FEFF 		bl	GPRS_SendHexDataToServer
 1439              	.LVL183:
 416:Code\UserApp\Protocol/CmdProtocol.c **** 
 1440              		.loc 1 416 0
 1441 0078 0020     		movs	r0, #0
 1442 007a 19B0     		add	sp, sp, #100
 1443              		@ sp needed
 1444 007c 00BD     		pop	{pc}
 1445              	.L61:
 1446 007e C046     		.align	2
 1447              	.L60:
 1448 0080 00000000 		.word	Mac_Addr
 1449 0084 00000000 		.word	cur_time
 1450 0088 00000000 		.word	next_heartbeat_time
ARM GAS  C:\Users\Administrator\AppData\Local\Temp\ccexfbaX.s 			page 59


 1451              		.cfi_endproc
 1452              	.LFE69:
 1453              		.size	send_time_adjust, .-send_time_adjust
 1454              		.section	.text.send_alarm_info,"ax",%progbits
 1455              		.align	1
 1456              		.global	send_alarm_info
 1457              		.code	16
 1458              		.thumb_func
 1459              		.type	send_alarm_info, %function
 1460              	send_alarm_info:
 1461              	.LFB70:
 427:Code\UserApp\Protocol/CmdProtocol.c **** 	uint8 uart_buf[96];
 1462              		.loc 1 427 0
 1463              		.cfi_startproc
 1464              		@ args = 0, pretend = 0, frame = 96
 1465              		@ frame_needed = 0, uses_anonymous_args = 0
 1466              	.LVL184:
 1467 0000 10B5     		push	{r4, lr}
 1468              		.cfi_def_cfa_offset 8
 1469              		.cfi_offset 4, -8
 1470              		.cfi_offset 14, -4
 1471 0002 98B0     		sub	sp, sp, #96
 1472              		.cfi_def_cfa_offset 104
 436:Code\UserApp\Protocol/CmdProtocol.c **** 	uart_buf[cnt++] = 0x3a;
 1473              		.loc 1 436 0
 1474 0004 6A46     		mov	r2, sp
 1475 0006 EF23     		movs	r3, #239
 1476 0008 1370     		strb	r3, [r2]
 1477              	.LVL185:
 437:Code\UserApp\Protocol/CmdProtocol.c **** 	uart_buf[cnt++] = (pack_len >> 8) & 0xFF;					// åŒ…é•¿åº¦é«˜å­—èŠ‚							//
 1478              		.loc 1 437 0
 1479 000a B53B     		subs	r3, r3, #181
 1480 000c 5370     		strb	r3, [r2, #1]
 1481              	.LVL186:
 438:Code\UserApp\Protocol/CmdProtocol.c **** 	uart_buf[cnt++] = pack_len & 0xFF;							// åŒ…é•¿åº¦ä½å­—èŠ‚							//
 1482              		.loc 1 438 0
 1483 000e 0023     		movs	r3, #0
 439:Code\UserApp\Protocol/CmdProtocol.c **** 	uart_buf[cnt++] = 0x01;
 1484              		.loc 1 439 0
 1485 0010 6946     		mov	r1, sp
 438:Code\UserApp\Protocol/CmdProtocol.c **** 	uart_buf[cnt++] = pack_len & 0xFF;							// åŒ…é•¿åº¦ä½å­—èŠ‚							//
 1486              		.loc 1 438 0
 1487 0012 9370     		strb	r3, [r2, #2]
 1488              	.LVL187:
 439:Code\UserApp\Protocol/CmdProtocol.c **** 	uart_buf[cnt++] = 0x01;
 1489              		.loc 1 439 0
 1490 0014 1022     		movs	r2, #16
 1491 0016 CA70     		strb	r2, [r1, #3]
 1492              	.LVL188:
 440:Code\UserApp\Protocol/CmdProtocol.c **** 	uart_buf[cnt++] = 0x01;
 1493              		.loc 1 440 0
 1494 0018 0F3A     		subs	r2, r2, #15
 1495 001a 0A71     		strb	r2, [r1, #4]
 1496              	.LVL189:
 441:Code\UserApp\Protocol/CmdProtocol.c **** 	uart_buf[cnt++] = 0x0B;
 1497              		.loc 1 441 0
 1498 001c 4A71     		strb	r2, [r1, #5]
ARM GAS  C:\Users\Administrator\AppData\Local\Temp\ccexfbaX.s 			page 60


 1499              	.LVL190:
 446:Code\UserApp\Protocol/CmdProtocol.c **** 	}
 1500              		.loc 1 446 0
 1501 001e 1B4C     		ldr	r4, .L66
 442:Code\UserApp\Protocol/CmdProtocol.c **** 	
 1502              		.loc 1 442 0
 1503 0020 0A32     		adds	r2, r2, #10
 1504 0022 8A71     		strb	r2, [r1, #6]
 1505              	.LVL191:
 1506              	.L63:
 446:Code\UserApp\Protocol/CmdProtocol.c **** 	}
 1507              		.loc 1 446 0 discriminator 3
 1508 0024 1A00     		movs	r2, r3
 1509 0026 E15C     		ldrb	r1, [r4, r3]
 1510 0028 6A44     		add	r2, r2, sp
 1511 002a 0133     		adds	r3, r3, #1
 1512              	.LVL192:
 1513 002c D171     		strb	r1, [r2, #7]
 444:Code\UserApp\Protocol/CmdProtocol.c **** 	{
 1514              		.loc 1 444 0 discriminator 3
 1515 002e 062B     		cmp	r3, #6
 1516 0030 F8D1     		bne	.L63
 1517              	.LVL193:
 449:Code\UserApp\Protocol/CmdProtocol.c **** 	
 1518              		.loc 1 449 0
 1519 0032 6B46     		mov	r3, sp
 1520 0034 5873     		strb	r0, [r3, #13]
 451:Code\UserApp\Protocol/CmdProtocol.c **** 	LONG2BYTE(time_tmp, time_arr);
 1521              		.loc 1 451 0
 1522 0036 FFF7FEFF 		bl	RTC_GetUnixTime
 1523              	.LVL194:
 453:Code\UserApp\Protocol/CmdProtocol.c **** 	uart_buf[cnt++] = time_arr[1];
 1524              		.loc 1 453 0
 1525 003a 6A46     		mov	r2, sp
 1526 003c 030E     		lsrs	r3, r0, #24
 1527 003e 9373     		strb	r3, [r2, #14]
 1528              	.LVL195:
 454:Code\UserApp\Protocol/CmdProtocol.c **** 	uart_buf[cnt++] = time_arr[2];
 1529              		.loc 1 454 0
 1530 0040 030C     		lsrs	r3, r0, #16
 1531 0042 D373     		strb	r3, [r2, #15]
 1532              	.LVL196:
 456:Code\UserApp\Protocol/CmdProtocol.c **** 	
 1533              		.loc 1 456 0
 1534 0044 5074     		strb	r0, [r2, #17]
 455:Code\UserApp\Protocol/CmdProtocol.c **** 	uart_buf[cnt++] = time_arr[3];
 1535              		.loc 1 455 0
 1536 0046 030A     		lsrs	r3, r0, #8
 458:Code\UserApp\Protocol/CmdProtocol.c **** 	uart_buf[cnt++] = (TempCrc >> 8) & 0xFF;
 1537              		.loc 1 458 0
 1538 0048 1221     		movs	r1, #18
 1539 004a 6846     		mov	r0, sp
 1540              	.LVL197:
 455:Code\UserApp\Protocol/CmdProtocol.c **** 	uart_buf[cnt++] = time_arr[3];
 1541              		.loc 1 455 0
 1542 004c 1374     		strb	r3, [r2, #16]
 1543              	.LVL198:
ARM GAS  C:\Users\Administrator\AppData\Local\Temp\ccexfbaX.s 			page 61


 458:Code\UserApp\Protocol/CmdProtocol.c **** 	uart_buf[cnt++] = (TempCrc >> 8) & 0xFF;
 1544              		.loc 1 458 0
 1545 004e FFF7FEFF 		bl	MyCrc16Check
 1546              	.LVL199:
 459:Code\UserApp\Protocol/CmdProtocol.c **** 	uart_buf[cnt++] = TempCrc & 0xFF;
 1547              		.loc 1 459 0
 1548 0052 6A46     		mov	r2, sp
 1549 0054 030A     		lsrs	r3, r0, #8
 1550 0056 9374     		strb	r3, [r2, #18]
 1551              	.LVL200:
 460:Code\UserApp\Protocol/CmdProtocol.c **** 	
 1552              		.loc 1 460 0
 1553 0058 D074     		strb	r0, [r2, #19]
 462:Code\UserApp\Protocol/CmdProtocol.c **** 	if ((cur_time + 300) > next_heartbeat_time)					// ä¸‹ä¸€æ¬¡å¿ƒè·³åœ¨5minä»¥å†…					//
 1554              		.loc 1 462 0
 1555 005a FFF7FEFF 		bl	RTC_GetUnixTime
 1556              	.LVL201:
 1557 005e 0C4B     		ldr	r3, .L66+4
 1558 0060 1860     		str	r0, [r3]
 463:Code\UserApp\Protocol/CmdProtocol.c **** 	{
 1559              		.loc 1 463 0
 1560 0062 0C4B     		ldr	r3, .L66+8
 1561 0064 2D30     		adds	r0, r0, #45
 1562 0066 1A68     		ldr	r2, [r3]
 1563 0068 FF30     		adds	r0, r0, #255
 1564 006a 9042     		cmp	r0, r2
 1565 006c 00D9     		bls	.L64
 465:Code\UserApp\Protocol/CmdProtocol.c **** 	}
 1566              		.loc 1 465 0
 1567 006e 1860     		str	r0, [r3]
 1568              	.L64:
 467:Code\UserApp\Protocol/CmdProtocol.c **** 	return 0;
 1569              		.loc 1 467 0
 1570 0070 6B46     		mov	r3, sp
 1571 0072 9978     		ldrb	r1, [r3, #2]
 1572 0074 DB78     		ldrb	r3, [r3, #3]
 1573 0076 0902     		lsls	r1, r1, #8
 1574 0078 0433     		adds	r3, r3, #4
 1575 007a C918     		adds	r1, r1, r3
 1576 007c 89B2     		uxth	r1, r1
 1577 007e 6846     		mov	r0, sp
 1578 0080 FFF7FEFF 		bl	GPRS_SendHexDataToServer
 1579              	.LVL202:
 469:Code\UserApp\Protocol/CmdProtocol.c **** 
 1580              		.loc 1 469 0
 1581 0084 0020     		movs	r0, #0
 1582 0086 18B0     		add	sp, sp, #96
 1583              		@ sp needed
 1584 0088 10BD     		pop	{r4, pc}
 1585              	.L67:
 1586 008a C046     		.align	2
 1587              	.L66:
 1588 008c 00000000 		.word	Mac_Addr
 1589 0090 00000000 		.word	cur_time
 1590 0094 00000000 		.word	next_heartbeat_time
 1591              		.cfi_endproc
 1592              	.LFE70:
ARM GAS  C:\Users\Administrator\AppData\Local\Temp\ccexfbaX.s 			page 62


 1593              		.size	send_alarm_info, .-send_alarm_info
 1594              		.section	.text.send_update_req,"ax",%progbits
 1595              		.align	1
 1596              		.global	send_update_req
 1597              		.code	16
 1598              		.thumb_func
 1599              		.type	send_update_req, %function
 1600              	send_update_req:
 1601              	.LFB71:
 481:Code\UserApp\Protocol/CmdProtocol.c **** 	uint8 uart_buf[96];
 1602              		.loc 1 481 0
 1603              		.cfi_startproc
 1604              		@ args = 0, pretend = 0, frame = 96
 1605              		@ frame_needed = 0, uses_anonymous_args = 0
 1606              	.LVL203:
 1607 0000 10B5     		push	{r4, lr}
 1608              		.cfi_def_cfa_offset 8
 1609              		.cfi_offset 4, -8
 1610              		.cfi_offset 14, -4
 1611 0002 98B0     		sub	sp, sp, #96
 1612              		.cfi_def_cfa_offset 104
 490:Code\UserApp\Protocol/CmdProtocol.c **** 	uart_buf[cnt++] = 0x3a;
 1613              		.loc 1 490 0
 1614 0004 6A46     		mov	r2, sp
 1615 0006 EF23     		movs	r3, #239
 1616 0008 1370     		strb	r3, [r2]
 1617              	.LVL204:
 491:Code\UserApp\Protocol/CmdProtocol.c **** 	uart_buf[cnt++] = (pack_len >> 8) & 0xFF;					// åŒ…é•¿åº¦é«˜å­—èŠ‚							//
 1618              		.loc 1 491 0
 1619 000a B53B     		subs	r3, r3, #181
 1620 000c 5370     		strb	r3, [r2, #1]
 1621              	.LVL205:
 492:Code\UserApp\Protocol/CmdProtocol.c **** 	uart_buf[cnt++] = pack_len & 0xFF;							// åŒ…é•¿åº¦ä½å­—èŠ‚							//
 1622              		.loc 1 492 0
 1623 000e 0023     		movs	r3, #0
 493:Code\UserApp\Protocol/CmdProtocol.c **** 	uart_buf[cnt++] = 0x01;
 1624              		.loc 1 493 0
 1625 0010 6946     		mov	r1, sp
 492:Code\UserApp\Protocol/CmdProtocol.c **** 	uart_buf[cnt++] = pack_len & 0xFF;							// åŒ…é•¿åº¦ä½å­—èŠ‚							//
 1626              		.loc 1 492 0
 1627 0012 9370     		strb	r3, [r2, #2]
 1628              	.LVL206:
 493:Code\UserApp\Protocol/CmdProtocol.c **** 	uart_buf[cnt++] = 0x01;
 1629              		.loc 1 493 0
 1630 0014 1322     		movs	r2, #19
 1631 0016 CA70     		strb	r2, [r1, #3]
 1632              	.LVL207:
 494:Code\UserApp\Protocol/CmdProtocol.c **** 	uart_buf[cnt++] = 0x01;
 1633              		.loc 1 494 0
 1634 0018 123A     		subs	r2, r2, #18
 1635 001a 0A71     		strb	r2, [r1, #4]
 1636              	.LVL208:
 495:Code\UserApp\Protocol/CmdProtocol.c **** 	uart_buf[cnt++] = 0x0F;
 1637              		.loc 1 495 0
 1638 001c 4A71     		strb	r2, [r1, #5]
 1639              	.LVL209:
 500:Code\UserApp\Protocol/CmdProtocol.c **** 	}
ARM GAS  C:\Users\Administrator\AppData\Local\Temp\ccexfbaX.s 			page 63


 1640              		.loc 1 500 0
 1641 001e 194C     		ldr	r4, .L71
 496:Code\UserApp\Protocol/CmdProtocol.c **** 	
 1642              		.loc 1 496 0
 1643 0020 0E32     		adds	r2, r2, #14
 1644 0022 8A71     		strb	r2, [r1, #6]
 1645              	.LVL210:
 1646              	.L69:
 500:Code\UserApp\Protocol/CmdProtocol.c **** 	}
 1647              		.loc 1 500 0 discriminator 3
 1648 0024 1A00     		movs	r2, r3
 1649 0026 E15C     		ldrb	r1, [r4, r3]
 1650 0028 6A44     		add	r2, r2, sp
 1651 002a 0133     		adds	r3, r3, #1
 1652              	.LVL211:
 1653 002c D171     		strb	r1, [r2, #7]
 498:Code\UserApp\Protocol/CmdProtocol.c **** 	{
 1654              		.loc 1 498 0 discriminator 3
 1655 002e 062B     		cmp	r3, #6
 1656 0030 F8D1     		bne	.L69
 1657              	.LVL212:
 503:Code\UserApp\Protocol/CmdProtocol.c **** 	uart_buf[cnt++] = page & 0xFF;	
 1658              		.loc 1 503 0
 1659 0032 6A46     		mov	r2, sp
 506:Code\UserApp\Protocol/CmdProtocol.c **** 	uart_buf[cnt++] = update_version & 0xFF;								
 1660              		.loc 1 506 0
 1661 0034 6946     		mov	r1, sp
 503:Code\UserApp\Protocol/CmdProtocol.c **** 	uart_buf[cnt++] = page & 0xFF;	
 1662              		.loc 1 503 0
 1663 0036 030A     		lsrs	r3, r0, #8
 1664 0038 5373     		strb	r3, [r2, #13]
 1665              	.LVL213:
 506:Code\UserApp\Protocol/CmdProtocol.c **** 	uart_buf[cnt++] = update_version & 0xFF;								
 1666              		.loc 1 506 0
 1667 003a 134B     		ldr	r3, .L71+4
 504:Code\UserApp\Protocol/CmdProtocol.c **** 	
 1668              		.loc 1 504 0
 1669 003c 9073     		strb	r0, [r2, #14]
 1670              	.LVL214:
 506:Code\UserApp\Protocol/CmdProtocol.c **** 	uart_buf[cnt++] = update_version & 0xFF;								
 1671              		.loc 1 506 0
 1672 003e 1B88     		ldrh	r3, [r3]
 1673 0040 1A0A     		lsrs	r2, r3, #8
 1674 0042 CA73     		strb	r2, [r1, #15]
 1675              	.LVL215:
 507:Code\UserApp\Protocol/CmdProtocol.c **** 		
 1676              		.loc 1 507 0
 1677 0044 0B74     		strb	r3, [r1, #16]
 509:Code\UserApp\Protocol/CmdProtocol.c **** 	LONG2BYTE(time_tmp, time_arr);
 1678              		.loc 1 509 0
 1679 0046 FFF7FEFF 		bl	RTC_GetUnixTime
 1680              	.LVL216:
 511:Code\UserApp\Protocol/CmdProtocol.c **** 	uart_buf[cnt++] = time_arr[1];
 1681              		.loc 1 511 0
 1682 004a 6A46     		mov	r2, sp
 1683 004c 030E     		lsrs	r3, r0, #24
 1684 004e 5374     		strb	r3, [r2, #17]
ARM GAS  C:\Users\Administrator\AppData\Local\Temp\ccexfbaX.s 			page 64


 1685              	.LVL217:
 512:Code\UserApp\Protocol/CmdProtocol.c **** 	uart_buf[cnt++] = time_arr[2];
 1686              		.loc 1 512 0
 1687 0050 030C     		lsrs	r3, r0, #16
 1688 0052 9374     		strb	r3, [r2, #18]
 1689              	.LVL218:
 514:Code\UserApp\Protocol/CmdProtocol.c **** 
 1690              		.loc 1 514 0
 1691 0054 1075     		strb	r0, [r2, #20]
 513:Code\UserApp\Protocol/CmdProtocol.c **** 	uart_buf[cnt++] = time_arr[3];
 1692              		.loc 1 513 0
 1693 0056 030A     		lsrs	r3, r0, #8
 516:Code\UserApp\Protocol/CmdProtocol.c **** 	uart_buf[cnt++] = (TempCrc >> 8) & 0xFF;
 1694              		.loc 1 516 0
 1695 0058 1521     		movs	r1, #21
 1696 005a 6846     		mov	r0, sp
 1697              	.LVL219:
 513:Code\UserApp\Protocol/CmdProtocol.c **** 	uart_buf[cnt++] = time_arr[3];
 1698              		.loc 1 513 0
 1699 005c D374     		strb	r3, [r2, #19]
 1700              	.LVL220:
 516:Code\UserApp\Protocol/CmdProtocol.c **** 	uart_buf[cnt++] = (TempCrc >> 8) & 0xFF;
 1701              		.loc 1 516 0
 1702 005e FFF7FEFF 		bl	MyCrc16Check
 1703              	.LVL221:
 517:Code\UserApp\Protocol/CmdProtocol.c **** 	uart_buf[cnt++] = TempCrc & 0xFF;
 1704              		.loc 1 517 0
 1705 0062 6A46     		mov	r2, sp
 1706 0064 030A     		lsrs	r3, r0, #8
 1707 0066 5375     		strb	r3, [r2, #21]
 1708              	.LVL222:
 519:Code\UserApp\Protocol/CmdProtocol.c **** 	
 1709              		.loc 1 519 0
 1710 0068 9178     		ldrb	r1, [r2, #2]
 1711 006a D378     		ldrb	r3, [r2, #3]
 1712 006c 0902     		lsls	r1, r1, #8
 1713 006e 0433     		adds	r3, r3, #4
 1714 0070 C918     		adds	r1, r1, r3
 518:Code\UserApp\Protocol/CmdProtocol.c **** 	GPRS_SendHexDataToServer((uint8_t *)uart_buf, ((uart_buf[2] << 8) + uart_buf[3] + 4));
 1715              		.loc 1 518 0
 1716 0072 9075     		strb	r0, [r2, #22]
 519:Code\UserApp\Protocol/CmdProtocol.c **** 	
 1717              		.loc 1 519 0
 1718 0074 89B2     		uxth	r1, r1
 1719 0076 6846     		mov	r0, sp
 1720              	.LVL223:
 1721 0078 FFF7FEFF 		bl	GPRS_SendHexDataToServer
 1722              	.LVL224:
 522:Code\UserApp\Protocol/CmdProtocol.c **** 
 1723              		.loc 1 522 0
 1724 007c 0020     		movs	r0, #0
 1725 007e 18B0     		add	sp, sp, #96
 1726              		@ sp needed
 1727 0080 10BD     		pop	{r4, pc}
 1728              	.L72:
 1729 0082 C046     		.align	2
 1730              	.L71:
ARM GAS  C:\Users\Administrator\AppData\Local\Temp\ccexfbaX.s 			page 65


 1731 0084 00000000 		.word	Mac_Addr
 1732 0088 00000000 		.word	update_version
 1733              		.cfi_endproc
 1734              	.LFE71:
 1735              		.size	send_update_req, .-send_update_req
 1736              		.section	.text.Protocol_CmdRemoteDownload,"ax",%progbits
 1737              		.align	1
 1738              		.code	16
 1739              		.thumb_func
 1740              		.type	Protocol_CmdRemoteDownload, %function
 1741              	Protocol_CmdRemoteDownload:
 1742              	.LFB87:
1414:Code\UserApp\Protocol/CmdProtocol.c **** 	uint8 ReadDataBuf[DATABUF_SIZE];
 1743              		.loc 1 1414 0
 1744              		.cfi_startproc
 1745              		@ args = 0, pretend = 0, frame = 1056
 1746              		@ frame_needed = 0, uses_anonymous_args = 0
 1747              	.LVL225:
 1748 0000 F0B5     		push	{r4, r5, r6, r7, lr}
 1749              		.cfi_def_cfa_offset 20
 1750              		.cfi_offset 4, -20
 1751              		.cfi_offset 5, -16
 1752              		.cfi_offset 6, -12
 1753              		.cfi_offset 7, -8
 1754              		.cfi_offset 14, -4
 1755 0002 3C4C     		ldr	r4, .L83
1421:Code\UserApp\Protocol/CmdProtocol.c **** 	
 1756              		.loc 1 1421 0
 1757 0004 457B     		ldrb	r5, [r0, #13]
 1758 0006 837B     		ldrb	r3, [r0, #14]
1414:Code\UserApp\Protocol/CmdProtocol.c **** 	uint8 ReadDataBuf[DATABUF_SIZE];
 1759              		.loc 1 1414 0
 1760 0008 A544     		add	sp, sp, r4
 1761              		.cfi_def_cfa_offset 1080
1428:Code\UserApp\Protocol/CmdProtocol.c **** 	{
 1762              		.loc 1 1428 0
 1763 000a 3B4C     		ldr	r4, .L83+4
1421:Code\UserApp\Protocol/CmdProtocol.c **** 	
 1764              		.loc 1 1421 0
 1765 000c 2D02     		lsls	r5, r5, #8
 1766 000e 5D19     		adds	r5, r3, r5
1428:Code\UserApp\Protocol/CmdProtocol.c **** 	{
 1767              		.loc 1 1428 0
 1768 0010 2388     		ldrh	r3, [r4]
1421:Code\UserApp\Protocol/CmdProtocol.c **** 	
 1769              		.loc 1 1421 0
 1770 0012 ADB2     		uxth	r5, r5
 1771              	.LVL226:
1428:Code\UserApp\Protocol/CmdProtocol.c **** 	{
 1772              		.loc 1 1428 0
 1773 0014 AB42     		cmp	r3, r5
 1774 0016 01D0     		beq	.L74
1428:Code\UserApp\Protocol/CmdProtocol.c **** 	{
 1775              		.loc 1 1428 0 is_stmt 0 discriminator 1
 1776 0018 002D     		cmp	r5, #0
 1777 001a 58D1     		bne	.L75
 1778              	.L74:
ARM GAS  C:\Users\Administrator\AppData\Local\Temp\ccexfbaX.s 			page 66


1419:Code\UserApp\Protocol/CmdProtocol.c **** 	
 1779              		.loc 1 1419 0 is_stmt 1
 1780 001c 8478     		ldrb	r4, [r0, #2]
 1781 001e C378     		ldrb	r3, [r0, #3]
1430:Code\UserApp\Protocol/CmdProtocol.c **** 		W25QXX_Read(ReadDataBuf, W25X_IMAGESTART_ADDR + update_offset, curr_packet_len);
 1782              		.loc 1 1430 0
 1783 0020 0F30     		adds	r0, r0, #15
 1784              	.LVL227:
 1785 0022 0600     		movs	r6, r0
 1786 0024 354F     		ldr	r7, .L83+8
1419:Code\UserApp\Protocol/CmdProtocol.c **** 	
 1787              		.loc 1 1419 0
 1788 0026 123B     		subs	r3, r3, #18
 1789 0028 2402     		lsls	r4, r4, #8
 1790 002a E418     		adds	r4, r4, r3
1430:Code\UserApp\Protocol/CmdProtocol.c **** 		W25QXX_Read(ReadDataBuf, W25X_IMAGESTART_ADDR + update_offset, curr_packet_len);
 1791              		.loc 1 1430 0
 1792 002c 344A     		ldr	r2, .L83+12
 1793 002e 3B68     		ldr	r3, [r7]
1419:Code\UserApp\Protocol/CmdProtocol.c **** 	
 1794              		.loc 1 1419 0
 1795 0030 A4B2     		uxth	r4, r4
1430:Code\UserApp\Protocol/CmdProtocol.c **** 		W25QXX_Read(ReadDataBuf, W25X_IMAGESTART_ADDR + update_offset, curr_packet_len);
 1796              		.loc 1 1430 0
 1797 0032 9918     		adds	r1, r3, r2
 1798 0034 2200     		movs	r2, r4
 1799 0036 FFF7FEFF 		bl	W25QXX_Write
 1800              	.LVL228:
1431:Code\UserApp\Protocol/CmdProtocol.c **** 		if (memcmp(RecBuf + 15, ReadDataBuf, curr_packet_len) == 0)
 1801              		.loc 1 1431 0
 1802 003a 3B68     		ldr	r3, [r7]
 1803 003c 304A     		ldr	r2, .L83+12
 1804 003e 01A8     		add	r0, sp, #4
 1805 0040 9918     		adds	r1, r3, r2
 1806 0042 2200     		movs	r2, r4
 1807 0044 FFF7FEFF 		bl	W25QXX_Read
 1808              	.LVL229:
1432:Code\UserApp\Protocol/CmdProtocol.c **** 		{
 1809              		.loc 1 1432 0
 1810 0048 3000     		movs	r0, r6
 1811 004a 2200     		movs	r2, r4
 1812 004c 01A9     		add	r1, sp, #4
 1813 004e FFF7FEFF 		bl	memcmp
 1814              	.LVL230:
 1815 0052 061E     		subs	r6, r0, #0
 1816              	.LVL231:
 1817 0054 28D1     		bne	.L76
1434:Code\UserApp\Protocol/CmdProtocol.c **** 			if (recv_page != 0)
 1818              		.loc 1 1434 0
 1819 0056 3B68     		ldr	r3, [r7]
 1820 0058 2A4A     		ldr	r2, .L83+16
 1821 005a E318     		adds	r3, r4, r3
 1822 005c 3B60     		str	r3, [r7]
1435:Code\UserApp\Protocol/CmdProtocol.c **** 			{	
 1823              		.loc 1 1435 0
 1824 005e 002D     		cmp	r5, #0
 1825 0060 0FD0     		beq	.L77
ARM GAS  C:\Users\Administrator\AppData\Local\Temp\ccexfbaX.s 			page 67


1437:Code\UserApp\Protocol/CmdProtocol.c **** 				Image_size += curr_packet_len;
 1826              		.loc 1 1437 0
 1827 0062 254B     		ldr	r3, .L83+4
 1828 0064 1888     		ldrh	r0, [r3]
 1829 0066 0130     		adds	r0, r0, #1
 1830 0068 80B2     		uxth	r0, r0
 1831 006a 1880     		strh	r0, [r3]
1438:Code\UserApp\Protocol/CmdProtocol.c **** 				send_update_req(update_page);
 1832              		.loc 1 1438 0
 1833 006c 1368     		ldr	r3, [r2]
 1834 006e 1C19     		adds	r4, r3, r4
 1835 0070 1460     		str	r4, [r2]
1439:Code\UserApp\Protocol/CmdProtocol.c **** 				update_timeout_time = 10000;
 1836              		.loc 1 1439 0
 1837 0072 FFF7FEFF 		bl	send_update_req
 1838              	.LVL232:
1440:Code\UserApp\Protocol/CmdProtocol.c **** 				update_timeout_count = 0;
 1839              		.loc 1 1440 0
 1840 0076 244B     		ldr	r3, .L83+20
 1841 0078 244A     		ldr	r2, .L83+24
 1842 007a 1A60     		str	r2, [r3]
1441:Code\UserApp\Protocol/CmdProtocol.c **** 			}
 1843              		.loc 1 1441 0
 1844 007c 244B     		ldr	r3, .L83+28
 1845 007e 1E70     		strb	r6, [r3]
 1846 0080 34E0     		b	.L73
 1847              	.L77:
1445:Code\UserApp\Protocol/CmdProtocol.c **** 				data_size[2] = (uint8)(update_offset >> 24);
 1848              		.loc 1 1445 0
 1849 0082 1168     		ldr	r1, [r2]
1451:Code\UserApp\Protocol/CmdProtocol.c **** 				gprs_state = UPDATE_FINISH;
 1850              		.loc 1 1451 0
 1851 0084 6846     		mov	r0, sp
1445:Code\UserApp\Protocol/CmdProtocol.c **** 				data_size[2] = (uint8)(update_offset >> 24);
 1852              		.loc 1 1445 0
 1853 0086 0C19     		adds	r4, r1, r4
1446:Code\UserApp\Protocol/CmdProtocol.c **** 				data_size[3] = (uint8)(update_offset >> 16);	// é«˜ä½åœ¨å[2-3]
 1854              		.loc 1 1446 0
 1855 0088 6946     		mov	r1, sp
1445:Code\UserApp\Protocol/CmdProtocol.c **** 				data_size[2] = (uint8)(update_offset >> 24);
 1856              		.loc 1 1445 0
 1857 008a 1460     		str	r4, [r2]
1446:Code\UserApp\Protocol/CmdProtocol.c **** 				data_size[3] = (uint8)(update_offset >> 16);	// é«˜ä½åœ¨å[2-3]
 1858              		.loc 1 1446 0
 1859 008c 1A0E     		lsrs	r2, r3, #24
 1860 008e 8A70     		strb	r2, [r1, #2]
1447:Code\UserApp\Protocol/CmdProtocol.c **** 				data_size[0] = (uint8)(update_offset >> 8);
 1861              		.loc 1 1447 0
 1862 0090 1A0C     		lsrs	r2, r3, #16
 1863 0092 CA70     		strb	r2, [r1, #3]
1448:Code\UserApp\Protocol/CmdProtocol.c **** 				data_size[1] = (uint8)update_offset;
 1864              		.loc 1 1448 0
 1865 0094 1A0A     		lsrs	r2, r3, #8
 1866 0096 0A70     		strb	r2, [r1]
1449:Code\UserApp\Protocol/CmdProtocol.c **** 				
 1867              		.loc 1 1449 0
 1868 0098 4B70     		strb	r3, [r1, #1]
ARM GAS  C:\Users\Administrator\AppData\Local\Temp\ccexfbaX.s 			page 68


1451:Code\UserApp\Protocol/CmdProtocol.c **** 				gprs_state = UPDATE_FINISH;
 1869              		.loc 1 1451 0
 1870 009a C821     		movs	r1, #200
 1871 009c 0422     		movs	r2, #4
 1872 009e 8902     		lsls	r1, r1, #10
 1873 00a0 FFF7FEFF 		bl	W25QXX_Write
 1874              	.LVL233:
1452:Code\UserApp\Protocol/CmdProtocol.c **** 			}
 1875              		.loc 1 1452 0
 1876 00a4 0B22     		movs	r2, #11
 1877 00a6 0AE0     		b	.L81
 1878              	.L76:
1457:Code\UserApp\Protocol/CmdProtocol.c **** 			if (update_timeout_count >= 3)
 1879              		.loc 1 1457 0
 1880 00a8 194A     		ldr	r2, .L83+28
 1881 00aa 1378     		ldrb	r3, [r2]
 1882 00ac 0133     		adds	r3, r3, #1
 1883 00ae DBB2     		uxtb	r3, r3
 1884 00b0 1370     		strb	r3, [r2]
1458:Code\UserApp\Protocol/CmdProtocol.c **** 			{
 1885              		.loc 1 1458 0
 1886 00b2 022B     		cmp	r3, #2
 1887 00b4 06D9     		bls	.L79
 1888              	.L80:
1460:Code\UserApp\Protocol/CmdProtocol.c **** 				gprs_state = NEED_INIT;
 1889              		.loc 1 1460 0
 1890 00b6 0022     		movs	r2, #0
 1891 00b8 154B     		ldr	r3, .L83+28
 1892 00ba 1A70     		strb	r2, [r3]
1461:Code\UserApp\Protocol/CmdProtocol.c **** 			}
 1893              		.loc 1 1461 0
 1894 00bc 0632     		adds	r2, r2, #6
 1895              	.L81:
 1896 00be 154B     		ldr	r3, .L83+32
 1897 00c0 1A70     		strb	r2, [r3]
 1898 00c2 13E0     		b	.L73
 1899              	.L79:
1465:Code\UserApp\Protocol/CmdProtocol.c **** 				send_update_req(update_page);
 1900              		.loc 1 1465 0
 1901 00c4 FFF7FEFF 		bl	Cmd_Protocol_ParaInit
 1902              	.LVL234:
1466:Code\UserApp\Protocol/CmdProtocol.c **** 				update_timeout_time = 10000;
 1903              		.loc 1 1466 0
 1904 00c8 0B4B     		ldr	r3, .L83+4
 1905 00ca 1888     		ldrh	r0, [r3]
 1906 00cc 09E0     		b	.L82
 1907              	.LVL235:
 1908              	.L75:
1473:Code\UserApp\Protocol/CmdProtocol.c **** 		if (update_timeout_count >= 3)
 1909              		.loc 1 1473 0
 1910 00ce 104A     		ldr	r2, .L83+28
 1911 00d0 1378     		ldrb	r3, [r2]
 1912 00d2 0133     		adds	r3, r3, #1
 1913 00d4 DBB2     		uxtb	r3, r3
 1914 00d6 1370     		strb	r3, [r2]
1474:Code\UserApp\Protocol/CmdProtocol.c **** 		{
 1915              		.loc 1 1474 0
ARM GAS  C:\Users\Administrator\AppData\Local\Temp\ccexfbaX.s 			page 69


 1916 00d8 022B     		cmp	r3, #2
 1917 00da ECD8     		bhi	.L80
1481:Code\UserApp\Protocol/CmdProtocol.c **** 			send_update_req(update_page);
 1918              		.loc 1 1481 0
 1919 00dc FFF7FEFF 		bl	Cmd_Protocol_ParaInit
 1920              	.LVL236:
1482:Code\UserApp\Protocol/CmdProtocol.c **** 			update_timeout_time = 10000;
 1921              		.loc 1 1482 0
 1922 00e0 2088     		ldrh	r0, [r4]
 1923              	.L82:
 1924 00e2 FFF7FEFF 		bl	send_update_req
 1925              	.LVL237:
1483:Code\UserApp\Protocol/CmdProtocol.c **** 		}
 1926              		.loc 1 1483 0
 1927 00e6 094A     		ldr	r2, .L83+24
 1928 00e8 074B     		ldr	r3, .L83+20
 1929 00ea 1A60     		str	r2, [r3]
 1930              	.L73:
1489:Code\UserApp\Protocol/CmdProtocol.c **** 
 1931              		.loc 1 1489 0
 1932 00ec 0A4B     		ldr	r3, .L83+36
 1933 00ee 9D44     		add	sp, sp, r3
 1934              		@ sp needed
 1935              	.LVL238:
 1936 00f0 F0BD     		pop	{r4, r5, r6, r7, pc}
 1937              	.L84:
 1938 00f2 C046     		.align	2
 1939              	.L83:
 1940 00f4 DCFBFFFF 		.word	-1060
 1941 00f8 00000000 		.word	update_page
 1942 00fc 00000000 		.word	update_offset
 1943 0100 00210300 		.word	205056
 1944 0104 00000000 		.word	Image_size
 1945 0108 00000000 		.word	update_timeout_time
 1946 010c 10270000 		.word	10000
 1947 0110 00000000 		.word	update_timeout_count
 1948 0114 00000000 		.word	gprs_state
 1949 0118 24040000 		.word	1060
 1950              		.cfi_endproc
 1951              	.LFE87:
 1952              		.size	Protocol_CmdRemoteDownload, .-Protocol_CmdRemoteDownload
 1953              		.section	.text.Protocol_SendAckPacket,"ax",%progbits
 1954              		.align	1
 1955              		.global	Protocol_SendAckPacket
 1956              		.code	16
 1957              		.thumb_func
 1958              		.type	Protocol_SendAckPacket, %function
 1959              	Protocol_SendAckPacket:
 1960              	.LFB72:
 537:Code\UserApp\Protocol/CmdProtocol.c **** 	uint8 AppResponseBuf[256] = {0};
 1961              		.loc 1 537 0
 1962              		.cfi_startproc
 1963              		@ args = 4, pretend = 0, frame = 264
 1964              		@ frame_needed = 0, uses_anonymous_args = 0
 1965              	.LVL239:
 1966 0000 F0B5     		push	{r4, r5, r6, r7, lr}
 1967              		.cfi_def_cfa_offset 20
ARM GAS  C:\Users\Administrator\AppData\Local\Temp\ccexfbaX.s 			page 70


 1968              		.cfi_offset 4, -20
 1969              		.cfi_offset 5, -16
 1970              		.cfi_offset 6, -12
 1971              		.cfi_offset 7, -8
 1972              		.cfi_offset 14, -4
 1973 0002 C3B0     		sub	sp, sp, #268
 1974              		.cfi_def_cfa_offset 288
 537:Code\UserApp\Protocol/CmdProtocol.c **** 	uint8 AppResponseBuf[256] = {0};
 1975              		.loc 1 537 0
 1976 0004 0092     		str	r2, [sp]
 546:Code\UserApp\Protocol/CmdProtocol.c **** 	AppResponseBuf[NoPtr++] = HEAD_BYTE1;
 1977              		.loc 1 546 0
 1978 0006 8022     		movs	r2, #128
 1979              	.LVL240:
 537:Code\UserApp\Protocol/CmdProtocol.c **** 	uint8 AppResponseBuf[256] = {0};
 1980              		.loc 1 537 0
 1981 0008 0600     		movs	r6, r0
 1982 000a 0C00     		movs	r4, r1
 1983 000c 0193     		str	r3, [sp, #4]
 546:Code\UserApp\Protocol/CmdProtocol.c **** 	AppResponseBuf[NoPtr++] = HEAD_BYTE1;
 1984              		.loc 1 546 0
 1985 000e 5200     		lsls	r2, r2, #1
 537:Code\UserApp\Protocol/CmdProtocol.c **** 	uint8 AppResponseBuf[256] = {0};
 1986              		.loc 1 537 0
 1987 0010 48AB     		add	r3, sp, #288
 1988              	.LVL241:
 546:Code\UserApp\Protocol/CmdProtocol.c **** 	AppResponseBuf[NoPtr++] = HEAD_BYTE1;
 1989              		.loc 1 546 0
 1990 0012 0021     		movs	r1, #0
 1991              	.LVL242:
 1992 0014 02A8     		add	r0, sp, #8
 1993              	.LVL243:
 537:Code\UserApp\Protocol/CmdProtocol.c **** 	uint8 AppResponseBuf[256] = {0};
 1994              		.loc 1 537 0
 1995 0016 1F88     		ldrh	r7, [r3]
 546:Code\UserApp\Protocol/CmdProtocol.c **** 	AppResponseBuf[NoPtr++] = HEAD_BYTE1;
 1996              		.loc 1 546 0
 1997 0018 FFF7FEFF 		bl	memset
 1998              	.LVL244:
 547:Code\UserApp\Protocol/CmdProtocol.c **** 	AppResponseBuf[NoPtr++] = HEAD_BYTE2;
 1999              		.loc 1 547 0
 2000 001c EF23     		movs	r3, #239
 2001 001e 02AA     		add	r2, sp, #8
 545:Code\UserApp\Protocol/CmdProtocol.c **** 	memset(AppResponseBuf, 0, sizeof(AppResponseBuf));
 2002              		.loc 1 545 0
 2003 0020 7D1D     		adds	r5, r7, #5
 547:Code\UserApp\Protocol/CmdProtocol.c **** 	AppResponseBuf[NoPtr++] = HEAD_BYTE2;
 2004              		.loc 1 547 0
 2005 0022 1370     		strb	r3, [r2]
 545:Code\UserApp\Protocol/CmdProtocol.c **** 	memset(AppResponseBuf, 0, sizeof(AppResponseBuf));
 2006              		.loc 1 545 0
 2007 0024 ADB2     		uxth	r5, r5
 2008              	.LVL245:
 548:Code\UserApp\Protocol/CmdProtocol.c **** 	AppResponseBuf[NoPtr++] = (nPacketLen >> 8) & 0xff;
 2009              		.loc 1 548 0
 2010 0026 B53B     		subs	r3, r3, #181
 2011 0028 5370     		strb	r3, [r2, #1]
ARM GAS  C:\Users\Administrator\AppData\Local\Temp\ccexfbaX.s 			page 71


 2012              	.LVL246:
 549:Code\UserApp\Protocol/CmdProtocol.c **** 	AppResponseBuf[NoPtr++] = nPacketLen & 0xff;
 2013              		.loc 1 549 0
 2014 002a 2B0A     		lsrs	r3, r5, #8
 2015 002c 9370     		strb	r3, [r2, #2]
 2016              	.LVL247:
 552:Code\UserApp\Protocol/CmdProtocol.c **** 	AppResponseBuf[NoPtr++] = cCmd;
 2017              		.loc 1 552 0
 2018 002e 0123     		movs	r3, #1
 551:Code\UserApp\Protocol/CmdProtocol.c **** 	AppResponseBuf[NoPtr++] = PROTOCOL_VER; 
 2019              		.loc 1 551 0
 2020 0030 2401     		lsls	r4, r4, #4
 2021 0032 3443     		orrs	r4, r6
 2022 0034 1471     		strb	r4, [r2, #4]
 552:Code\UserApp\Protocol/CmdProtocol.c **** 	AppResponseBuf[NoPtr++] = cCmd;
 2023              		.loc 1 552 0
 2024 0036 5371     		strb	r3, [r2, #5]
 550:Code\UserApp\Protocol/CmdProtocol.c **** 	AppResponseBuf[NoPtr++] = CommChanle | (cPackType << 4);
 2025              		.loc 1 550 0
 2026 0038 D570     		strb	r5, [r2, #3]
 2027              	.LVL248:
 553:Code\UserApp\Protocol/CmdProtocol.c **** 
 2028              		.loc 1 553 0
 2029 003a 1300     		movs	r3, r2
 2030 003c 6A46     		mov	r2, sp
 2031 003e 1278     		ldrb	r2, [r2]
 2032 0040 0724     		movs	r4, #7
 2033 0042 9A71     		strb	r2, [r3, #6]
 561:Code\UserApp\Protocol/CmdProtocol.c **** 	{
 2034              		.loc 1 561 0
 2035 0044 002F     		cmp	r7, #0
 2036 0046 0FD0     		beq	.L86
 2037 0048 0023     		movs	r3, #0
 563:Code\UserApp\Protocol/CmdProtocol.c **** 		{
 2038              		.loc 1 563 0 discriminator 1
 2039 004a FF21     		movs	r1, #255
 2040              	.LVL249:
 2041              	.L87:
 2042 004c 1A00     		movs	r2, r3
 2043 004e DC1D     		adds	r4, r3, #7
 2044 0050 D8B2     		uxtb	r0, r3
 2045 0052 0133     		adds	r3, r3, #1
 2046 0054 A4B2     		uxth	r4, r4
 2047              	.LVL250:
 2048 0056 0A40     		ands	r2, r1
 2049 0058 9BB2     		uxth	r3, r3
 2050 005a 9742     		cmp	r7, r2
 2051 005c 04D9     		bls	.L86
 2052              	.LVL251:
 565:Code\UserApp\Protocol/CmdProtocol.c **** 		}
 2053              		.loc 1 565 0 discriminator 3
 2054 005e 019A     		ldr	r2, [sp, #4]
 2055 0060 125C     		ldrb	r2, [r2, r0]
 2056 0062 02A8     		add	r0, sp, #8
 2057              	.LVL252:
 2058 0064 0255     		strb	r2, [r0, r4]
 2059              	.LVL253:
ARM GAS  C:\Users\Administrator\AppData\Local\Temp\ccexfbaX.s 			page 72


 2060 0066 F1E7     		b	.L87
 2061              	.LVL254:
 2062              	.L86:
 569:Code\UserApp\Protocol/CmdProtocol.c **** 
 2063              		.loc 1 569 0
 2064 0068 2100     		movs	r1, r4
 2065 006a 02A8     		add	r0, sp, #8
 2066 006c FFF7FEFF 		bl	MyCrc16Check
 2067              	.LVL255:
 571:Code\UserApp\Protocol/CmdProtocol.c **** 	AppResponseBuf[NoPtr++] = TempCrc & 0xFF;
 2068              		.loc 1 571 0
 2069 0070 02AA     		add	r2, sp, #8
 2070 0072 030A     		lsrs	r3, r0, #8
 2071 0074 1355     		strb	r3, [r2, r4]
 572:Code\UserApp\Protocol/CmdProtocol.c **** 	
 2072              		.loc 1 572 0
 2073 0076 A51C     		adds	r5, r4, #2
 2074              	.LVL256:
 2075 0078 0134     		adds	r4, r4, #1
 2076              	.LVL257:
 2077 007a A4B2     		uxth	r4, r4
 2078 007c ADB2     		uxth	r5, r5
 2079              	.LVL258:
 2080 007e 1055     		strb	r0, [r2, r4]
 577:Code\UserApp\Protocol/CmdProtocol.c **** 	{
 2081              		.loc 1 577 0
 2082 0080 022E     		cmp	r6, #2
 2083 0082 04D1     		bne	.L89
 579:Code\UserApp\Protocol/CmdProtocol.c ****         #if 0
 2084              		.loc 1 579 0
 2085 0084 2900     		movs	r1, r5
 2086 0086 1000     		movs	r0, r2
 2087              	.LVL259:
 2088 0088 FFF7FEFF 		bl	BleSend
 2089              	.LVL260:
 2090 008c 10E0     		b	.L85
 2091              	.LVL261:
 2092              	.L89:
 587:Code\UserApp\Protocol/CmdProtocol.c **** 	{
 2093              		.loc 1 587 0
 2094 008e 012E     		cmp	r6, #1
 2095 0090 0ED1     		bne	.L85
 589:Code\UserApp\Protocol/CmdProtocol.c **** 		if ((cur_time + 300) > next_heartbeat_time)				// ä¸‹ä¸€æ¬¡å¿ƒè·³åœ¨5minä»¥å†…					//
 2096              		.loc 1 589 0
 2097 0092 FFF7FEFF 		bl	RTC_GetUnixTime
 2098              	.LVL262:
 2099 0096 074B     		ldr	r3, .L94
 2100 0098 1860     		str	r0, [r3]
 590:Code\UserApp\Protocol/CmdProtocol.c **** 		{
 2101              		.loc 1 590 0
 2102 009a 074B     		ldr	r3, .L94+4
 2103 009c 2D30     		adds	r0, r0, #45
 2104 009e 1A68     		ldr	r2, [r3]
 2105 00a0 FF30     		adds	r0, r0, #255
 2106 00a2 9042     		cmp	r0, r2
 2107 00a4 00D9     		bls	.L91
 592:Code\UserApp\Protocol/CmdProtocol.c **** 		}
ARM GAS  C:\Users\Administrator\AppData\Local\Temp\ccexfbaX.s 			page 73


 2108              		.loc 1 592 0
 2109 00a6 1860     		str	r0, [r3]
 2110              	.L91:
 594:Code\UserApp\Protocol/CmdProtocol.c **** 	}
 2111              		.loc 1 594 0
 2112 00a8 2900     		movs	r1, r5
 2113 00aa 02A8     		add	r0, sp, #8
 2114 00ac FFF7FEFF 		bl	GPRS_SendHexDataToServer
 2115              	.LVL263:
 2116              	.L85:
 596:Code\UserApp\Protocol/CmdProtocol.c **** 
 2117              		.loc 1 596 0
 2118 00b0 43B0     		add	sp, sp, #268
 2119              		@ sp needed
 2120              	.LVL264:
 2121              	.LVL265:
 2122 00b2 F0BD     		pop	{r4, r5, r6, r7, pc}
 2123              	.L95:
 2124              		.align	2
 2125              	.L94:
 2126 00b4 00000000 		.word	cur_time
 2127 00b8 00000000 		.word	next_heartbeat_time
 2128              		.cfi_endproc
 2129              	.LFE72:
 2130              		.size	Protocol_SendAckPacket, .-Protocol_SendAckPacket
 2131              		.section	.text.Protocol_CmdReadUID,"ax",%progbits
 2132              		.align	1
 2133              		.code	16
 2134              		.thumb_func
 2135              		.type	Protocol_CmdReadUID, %function
 2136              	Protocol_CmdReadUID:
 2137              	.LFB75:
 718:Code\UserApp\Protocol/CmdProtocol.c **** 	uint8 ret;
 2138              		.loc 1 718 0
 2139              		.cfi_startproc
 2140              		@ args = 0, pretend = 0, frame = 80
 2141              		@ frame_needed = 0, uses_anonymous_args = 0
 2142              	.LVL266:
 2143 0000 F0B5     		push	{r4, r5, r6, r7, lr}
 2144              		.cfi_def_cfa_offset 20
 2145              		.cfi_offset 4, -20
 2146              		.cfi_offset 5, -16
 2147              		.cfi_offset 6, -12
 2148              		.cfi_offset 7, -8
 2149              		.cfi_offset 14, -4
 2150 0002 0500     		movs	r5, r0
 738:Code\UserApp\Protocol/CmdProtocol.c **** 	DBG_SOFT_PutStr("\nProtocol_CmdReadUID\n");
 2151              		.loc 1 738 0
 2152 0004 0027     		movs	r7, #0
 718:Code\UserApp\Protocol/CmdProtocol.c **** 	uint8 ret;
 2153              		.loc 1 718 0
 2154 0006 97B0     		sub	sp, sp, #92
 2155              		.cfi_def_cfa_offset 112
 2156              	.LVL267:
 722:Code\UserApp\Protocol/CmdProtocol.c **** 	uint8 comm_chanle = RecBuf[4];								// å–å‡ºä¿¡é“å€¼							//
 2157              		.loc 1 722 0
 2158 0008 04AC     		add	r4, sp, #16
ARM GAS  C:\Users\Administrator\AppData\Local\Temp\ccexfbaX.s 			page 74


 2159 000a 0822     		movs	r2, #8
 2160 000c 0021     		movs	r1, #0
 2161 000e 2000     		movs	r0, r4
 2162              	.LVL268:
 2163 0010 FFF7FEFF 		bl	memset
 2164              	.LVL269:
 723:Code\UserApp\Protocol/CmdProtocol.c **** 	uint16 nCmdPackLen;
 2165              		.loc 1 723 0
 2166 0014 2B79     		ldrb	r3, [r5, #4]
 726:Code\UserApp\Protocol/CmdProtocol.c **** 	 
 2167              		.loc 1 726 0
 2168 0016 A978     		ldrb	r1, [r5, #2]
 723:Code\UserApp\Protocol/CmdProtocol.c **** 	uint16 nCmdPackLen;
 2169              		.loc 1 723 0
 2170 0018 0293     		str	r3, [sp, #8]
 2171              	.LVL270:
 726:Code\UserApp\Protocol/CmdProtocol.c **** 	 
 2172              		.loc 1 726 0
 2173 001a EB78     		ldrb	r3, [r5, #3]
 2174 001c 0902     		lsls	r1, r1, #8
 2175 001e 0433     		adds	r3, r3, #4
 2176 0020 C918     		adds	r1, r1, r3
 2177 0022 8BB2     		uxth	r3, r1
 728:Code\UserApp\Protocol/CmdProtocol.c **** 	
 2178              		.loc 1 728 0
 2179 0024 4022     		movs	r2, #64
 2180 0026 0021     		movs	r1, #0
 2181 0028 06A8     		add	r0, sp, #24
 2182              	.LVL271:
 726:Code\UserApp\Protocol/CmdProtocol.c **** 	 
 2183              		.loc 1 726 0
 2184 002a 0393     		str	r3, [sp, #12]
 2185              	.LVL272:
 728:Code\UserApp\Protocol/CmdProtocol.c **** 	
 2186              		.loc 1 728 0
 2187 002c FFF7FEFF 		bl	memset
 2188              	.LVL273:
 732:Code\UserApp\Protocol/CmdProtocol.c **** 	pT += 6;
 2189              		.loc 1 732 0
 2190 0030 E91D     		adds	r1, r5, #7
 2191 0032 0622     		movs	r2, #6
 2192 0034 06A8     		add	r0, sp, #24
 2193              	.LVL274:
 2194 0036 FFF7FEFF 		bl	memcpy
 2195              	.LVL275:
 736:Code\UserApp\Protocol/CmdProtocol.c **** 	wait_timeout = 20000;
 2196              		.loc 1 736 0
 2197 003a 0D20     		movs	r0, #13
 2198 003c FFF7FEFF 		bl	VoicePlay
 2199              	.LVL276:
 737:Code\UserApp\Protocol/CmdProtocol.c **** 	ret = RET_ERR;
 2200              		.loc 1 737 0
 2201 0040 264E     		ldr	r6, .L109
 2202 0042 274B     		ldr	r3, .L109+4
 2203 0044 3360     		str	r3, [r6]
 2204              	.LVL277:
 2205              	.L97:
ARM GAS  C:\Users\Administrator\AppData\Local\Temp\ccexfbaX.s 			page 75


 740:Code\UserApp\Protocol/CmdProtocol.c **** 	{
 2206              		.loc 1 740 0
 2207 0046 3368     		ldr	r3, [r6]
 2208 0048 002B     		cmp	r3, #0
 2209 004a 16D0     		beq	.L100
 742:Code\UserApp\Protocol/CmdProtocol.c **** 		// æ»¤é™¤ä¸å‡†ç¡®çš„å¡ID
 2210              		.loc 1 742 0
 2211 004c 0821     		movs	r1, #8
 2212 004e 2000     		movs	r0, r4
 2213 0050 FFF7FEFF 		bl	detect_nfc_card
 2214              	.LVL278:
 744:Code\UserApp\Protocol/CmdProtocol.c **** 		{
 2215              		.loc 1 744 0
 2216 0054 2278     		ldrb	r2, [r4]
 742:Code\UserApp\Protocol/CmdProtocol.c **** 		// æ»¤é™¤ä¸å‡†ç¡®çš„å¡ID
 2217              		.loc 1 742 0
 2218 0056 0700     		movs	r7, r0
 2219              	.LVL279:
 2220 0058 0300     		movs	r3, r0
 744:Code\UserApp\Protocol/CmdProtocol.c **** 		{
 2221              		.loc 1 744 0
 2222 005a 002A     		cmp	r2, #0
 2223 005c 08D1     		bne	.L98
 744:Code\UserApp\Protocol/CmdProtocol.c **** 		{
 2224              		.loc 1 744 0 is_stmt 0 discriminator 1
 2225 005e 6278     		ldrb	r2, [r4, #1]
 2226 0060 002A     		cmp	r2, #0
 2227 0062 05D1     		bne	.L98
 744:Code\UserApp\Protocol/CmdProtocol.c **** 		{
 2228              		.loc 1 744 0 discriminator 2
 2229 0064 A278     		ldrb	r2, [r4, #2]
 2230 0066 002A     		cmp	r2, #0
 2231 0068 02D1     		bne	.L98
 744:Code\UserApp\Protocol/CmdProtocol.c **** 		{
 2232              		.loc 1 744 0 discriminator 3
 2233 006a E278     		ldrb	r2, [r4, #3]
 2234 006c 002A     		cmp	r2, #0
 2235 006e EAD0     		beq	.L97
 2236              	.L98:
 748:Code\UserApp\Protocol/CmdProtocol.c **** 		{
 2237              		.loc 1 748 0 is_stmt 1
 2238 0070 012B     		cmp	r3, #1
 2239 0072 E8D1     		bne	.L97
 750:Code\UserApp\Protocol/CmdProtocol.c **** 			break;
 2240              		.loc 1 750 0
 2241 0074 0E20     		movs	r0, #14
 2242 0076 FFF7FEFF 		bl	VoicePlay
 2243              	.LVL280:
 2244              	.L100:
 754:Code\UserApp\Protocol/CmdProtocol.c **** 	{	
 2245              		.loc 1 754 0
 2246 007a 3368     		ldr	r3, [r6]
 2247 007c 002B     		cmp	r3, #0
 2248 007e 09D1     		bne	.L102
 756:Code\UserApp\Protocol/CmdProtocol.c **** 		pUID[7] = 0x03;
 2249              		.loc 1 756 0
 2250 0080 0722     		movs	r2, #7
ARM GAS  C:\Users\Administrator\AppData\Local\Temp\ccexfbaX.s 			page 76


 2251 0082 FF21     		movs	r1, #255
 2252 0084 2000     		movs	r0, r4
 2253 0086 FFF7FEFF 		bl	memset
 2254              	.LVL281:
 757:Code\UserApp\Protocol/CmdProtocol.c **** 		VoicePlay((uint8)Sound_TIMEOUT);
 2255              		.loc 1 757 0
 2256 008a 0323     		movs	r3, #3
 758:Code\UserApp\Protocol/CmdProtocol.c **** 	}
 2257              		.loc 1 758 0
 2258 008c 1220     		movs	r0, #18
 757:Code\UserApp\Protocol/CmdProtocol.c **** 		VoicePlay((uint8)Sound_TIMEOUT);
 2259              		.loc 1 757 0
 2260 008e E371     		strb	r3, [r4, #7]
 758:Code\UserApp\Protocol/CmdProtocol.c **** 	}
 2261              		.loc 1 758 0
 2262 0090 FFF7FEFF 		bl	VoicePlay
 2263              	.LVL282:
 2264              	.L102:
 763:Code\UserApp\Protocol/CmdProtocol.c **** 	
 2265              		.loc 1 763 0
 2266 0094 2000     		movs	r0, r4
 2267 0096 FFF7FEFF 		bl	Endpoint_exchange
 2268              	.LVL283:
 765:Code\UserApp\Protocol/CmdProtocol.c **** 	pT += 8;
 2269              		.loc 1 765 0
 2270 009a 1620     		movs	r0, #22
 2271 009c 02AB     		add	r3, sp, #8
 2272              	.LVL284:
 2273 009e 0822     		movs	r2, #8
 2274 00a0 2100     		movs	r1, r4
 2275 00a2 C018     		adds	r0, r0, r3
 2276 00a4 FFF7FEFF 		bl	memcpy
 2277              	.LVL285:
 768:Code\UserApp\Protocol/CmdProtocol.c **** 	pT += 4;
 2278              		.loc 1 768 0
 2279 00a8 1E20     		movs	r0, #30
 2280 00aa 0399     		ldr	r1, [sp, #12]
 2281 00ac 02AB     		add	r3, sp, #8
 2282              	.LVL286:
 2283 00ae 0639     		subs	r1, r1, #6
 2284 00b0 C018     		adds	r0, r0, r3
 2285 00b2 6918     		adds	r1, r5, r1
 2286 00b4 0422     		movs	r2, #4
 2287 00b6 FFF7FEFF 		bl	memcpy
 2288              	.LVL287:
 765:Code\UserApp\Protocol/CmdProtocol.c **** 	pT += 8;
 2289              		.loc 1 765 0
 2290 00ba 06AE     		add	r6, sp, #24
 773:Code\UserApp\Protocol/CmdProtocol.c **** 	}
 2291              		.loc 1 773 0
 2292 00bc 0F23     		movs	r3, #15
 771:Code\UserApp\Protocol/CmdProtocol.c **** 	{
 2293              		.loc 1 771 0
 2294 00be 002F     		cmp	r7, #0
 2295 00c0 00D0     		beq	.L108
 777:Code\UserApp\Protocol/CmdProtocol.c **** 	}
 2296              		.loc 1 777 0
ARM GAS  C:\Users\Administrator\AppData\Local\Temp\ccexfbaX.s 			page 77


 2297 00c2 0123     		movs	r3, #1
 2298              	.L108:
 2299 00c4 B374     		strb	r3, [r6, #18]
 780:Code\UserApp\Protocol/CmdProtocol.c **** 	
 2300              		.loc 1 780 0
 2301 00c6 1323     		movs	r3, #19
 2302 00c8 AA79     		ldrb	r2, [r5, #6]
 2303 00ca 0093     		str	r3, [sp]
 2304 00cc 0121     		movs	r1, #1
 2305 00ce 3300     		movs	r3, r6
 2306 00d0 0298     		ldr	r0, [sp, #8]
 2307 00d2 FFF7FEFF 		bl	Protocol_SendAckPacket
 2308              	.LVL288:
 783:Code\UserApp\Protocol/CmdProtocol.c **** 
 2309              		.loc 1 783 0
 2310 00d6 17B0     		add	sp, sp, #92
 2311              		@ sp needed
 2312              	.LVL289:
 2313              	.LVL290:
 2314 00d8 F0BD     		pop	{r4, r5, r6, r7, pc}
 2315              	.L110:
 2316 00da C046     		.align	2
 2317              	.L109:
 2318 00dc 00000000 		.word	wait_timeout
 2319 00e0 204E0000 		.word	20000
 2320              		.cfi_endproc
 2321              	.LFE75:
 2322              		.size	Protocol_CmdReadUID, .-Protocol_CmdReadUID
 2323              		.section	.text.Protocol_CmdWriteUID,"ax",%progbits
 2324              		.align	1
 2325              		.code	16
 2326              		.thumb_func
 2327              		.type	Protocol_CmdWriteUID, %function
 2328              	Protocol_CmdWriteUID:
 2329              	.LFB76:
 794:Code\UserApp\Protocol/CmdProtocol.c **** 	uint8 DataBuf[64];
 2330              		.loc 1 794 0
 2331              		.cfi_startproc
 2332              		@ args = 0, pretend = 0, frame = 96
 2333              		@ frame_needed = 0, uses_anonymous_args = 0
 2334              	.LVL291:
 2335 0000 F0B5     		push	{r4, r5, r6, r7, lr}
 2336              		.cfi_def_cfa_offset 20
 2337              		.cfi_offset 4, -20
 2338              		.cfi_offset 5, -16
 2339              		.cfi_offset 6, -12
 2340              		.cfi_offset 7, -8
 2341              		.cfi_offset 14, -4
 2342 0002 0400     		movs	r4, r0
 799:Code\UserApp\Protocol/CmdProtocol.c **** 	user_info_t user_info;
 2343              		.loc 1 799 0
 2344 0004 0379     		ldrb	r3, [r0, #4]
 794:Code\UserApp\Protocol/CmdProtocol.c **** 	uint8 DataBuf[64];
 2345              		.loc 1 794 0
 2346 0006 9BB0     		sub	sp, sp, #108
 2347              		.cfi_def_cfa_offset 128
 2348              	.LVL292:
ARM GAS  C:\Users\Administrator\AppData\Local\Temp\ccexfbaX.s 			page 78


 803:Code\UserApp\Protocol/CmdProtocol.c ****     
 2349              		.loc 1 803 0
 2350 0008 8178     		ldrb	r1, [r0, #2]
 799:Code\UserApp\Protocol/CmdProtocol.c **** 	user_info_t user_info;
 2351              		.loc 1 799 0
 2352 000a 0293     		str	r3, [sp, #8]
 2353              	.LVL293:
 803:Code\UserApp\Protocol/CmdProtocol.c ****     
 2354              		.loc 1 803 0
 2355 000c C378     		ldrb	r3, [r0, #3]
 2356 000e 0902     		lsls	r1, r1, #8
 2357 0010 0433     		adds	r3, r3, #4
 2358 0012 C918     		adds	r1, r1, r3
 805:Code\UserApp\Protocol/CmdProtocol.c **** 	memcpy(pT, RecBuf + 7, 6);									// å–å‡ºMACåœ°å€ï¼Œç†è®ºåº”åŠ ä¸ŠMACæ ¡éªŒ		//
 2359              		.loc 1 805 0
 2360 0014 0AAE     		add	r6, sp, #40
 2361              	.LVL294:
 803:Code\UserApp\Protocol/CmdProtocol.c ****     
 2362              		.loc 1 803 0
 2363 0016 8BB2     		uxth	r3, r1
 805:Code\UserApp\Protocol/CmdProtocol.c **** 	memcpy(pT, RecBuf + 7, 6);									// å–å‡ºMACåœ°å€ï¼Œç†è®ºåº”åŠ ä¸ŠMACæ ¡éªŒ		//
 2364              		.loc 1 805 0
 2365 0018 4022     		movs	r2, #64
 2366 001a 0021     		movs	r1, #0
 2367 001c 3000     		movs	r0, r6
 2368              	.LVL295:
 803:Code\UserApp\Protocol/CmdProtocol.c ****     
 2369              		.loc 1 803 0
 2370 001e 0393     		str	r3, [sp, #12]
 2371              	.LVL296:
 809:Code\UserApp\Protocol/CmdProtocol.c **** 	memcpy(pUID, RecBuf + 13, 8);
 2372              		.loc 1 809 0
 2373 0020 2700     		movs	r7, r4
 805:Code\UserApp\Protocol/CmdProtocol.c **** 	memcpy(pT, RecBuf + 7, 6);									// å–å‡ºMACåœ°å€ï¼Œç†è®ºåº”åŠ ä¸ŠMACæ ¡éªŒ		//
 2374              		.loc 1 805 0
 2375 0022 FFF7FEFF 		bl	memset
 2376              	.LVL297:
 806:Code\UserApp\Protocol/CmdProtocol.c **** 	pT += 6;
 2377              		.loc 1 806 0
 2378 0026 E11D     		adds	r1, r4, #7
 2379 0028 0622     		movs	r2, #6
 2380 002a 3000     		movs	r0, r6
 2381 002c FFF7FEFF 		bl	memcpy
 2382              	.LVL298:
 809:Code\UserApp\Protocol/CmdProtocol.c **** 	memcpy(pUID, RecBuf + 13, 8);
 2383              		.loc 1 809 0
 2384 0030 2620     		movs	r0, #38
 2385 0032 02AB     		add	r3, sp, #8
 2386              	.LVL299:
 2387 0034 0D37     		adds	r7, r7, #13
 2388 0036 3900     		movs	r1, r7
 2389 0038 C018     		adds	r0, r0, r3
 810:Code\UserApp\Protocol/CmdProtocol.c **** 	pT += 8;
 2390              		.loc 1 810 0
 2391 003a 05AD     		add	r5, sp, #20
 809:Code\UserApp\Protocol/CmdProtocol.c **** 	memcpy(pUID, RecBuf + 13, 8);
 2392              		.loc 1 809 0
ARM GAS  C:\Users\Administrator\AppData\Local\Temp\ccexfbaX.s 			page 79


 2393 003c 0822     		movs	r2, #8
 2394 003e FFF7FEFF 		bl	memcpy
 2395              	.LVL300:
 810:Code\UserApp\Protocol/CmdProtocol.c **** 	pT += 8;
 2396              		.loc 1 810 0
 2397 0042 3900     		movs	r1, r7
 2398 0044 0822     		movs	r2, #8
 2399 0046 2800     		movs	r0, r5
 2400 0048 FFF7FEFF 		bl	memcpy
 2401              	.LVL301:
 813:Code\UserApp\Protocol/CmdProtocol.c **** 	memcpy(pTime, RecBuf + 21, 4);	
 2402              		.loc 1 813 0
 2403 004c 2E20     		movs	r0, #46
 2404 004e 02AB     		add	r3, sp, #8
 2405              	.LVL302:
 2406 0050 0837     		adds	r7, r7, #8
 2407 0052 C018     		adds	r0, r0, r3
 2408 0054 0422     		movs	r2, #4
 2409 0056 3900     		movs	r1, r7
 2410 0058 FFF7FEFF 		bl	memcpy
 2411              	.LVL303:
 814:Code\UserApp\Protocol/CmdProtocol.c **** 	pT += 4;
 2412              		.loc 1 814 0
 2413 005c 0422     		movs	r2, #4
 2414 005e 3900     		movs	r1, r7
 2415 0060 04A8     		add	r0, sp, #16
 2416 0062 FFF7FEFF 		bl	memcpy
 2417              	.LVL304:
 816:Code\UserApp\Protocol/CmdProtocol.c **** 	pT += 4;
 2418              		.loc 1 816 0
 2419 0066 3220     		movs	r0, #50
 2420 0068 039B     		ldr	r3, [sp, #12]
 2421 006a 0422     		movs	r2, #4
 2422 006c 991F     		subs	r1, r3, #6
 2423 006e 02AB     		add	r3, sp, #8
 2424              	.LVL305:
 2425 0070 6118     		adds	r1, r4, r1
 2426 0072 C018     		adds	r0, r0, r3
 2427 0074 FFF7FEFF 		bl	memcpy
 2428              	.LVL306:
 820:Code\UserApp\Protocol/CmdProtocol.c **** 	
 2429              		.loc 1 820 0
 2430 0078 2800     		movs	r0, r5
 2431 007a FFF7FEFF 		bl	Endpoint_exchange
 2432              	.LVL307:
 822:Code\UserApp\Protocol/CmdProtocol.c **** 	memcpy(user_info.valid_time, pTime, 4);
 2433              		.loc 1 822 0
 2434 007e 07A8     		add	r0, sp, #28
 2435 0080 0300     		movs	r3, r0
 2436 0082 06CD     		ldmia	r5!, {r1, r2}
 2437 0084 06C3     		stmia	r3!, {r1, r2}
 823:Code\UserApp\Protocol/CmdProtocol.c **** 	if (TRUE == UserData_Add_User(&user_info))
 2438              		.loc 1 823 0
 2439 0086 049B     		ldr	r3, [sp, #16]
 2440 0088 8360     		str	r3, [r0, #8]
 824:Code\UserApp\Protocol/CmdProtocol.c **** 	{
 2441              		.loc 1 824 0
ARM GAS  C:\Users\Administrator\AppData\Local\Temp\ccexfbaX.s 			page 80


 2442 008a FFF7FEFF 		bl	UserData_Add_User
 2443              	.LVL308:
 2444 008e 0500     		movs	r5, r0
 2445 0090 0128     		cmp	r0, #1
 2446 0092 04D1     		bne	.L112
 826:Code\UserApp\Protocol/CmdProtocol.c **** 		*pT = RT_SUCC;
 2447              		.loc 1 826 0
 2448 0094 0420     		movs	r0, #4
 2449 0096 FFF7FEFF 		bl	VoicePlay
 2450              	.LVL309:
 827:Code\UserApp\Protocol/CmdProtocol.c **** 	}
 2451              		.loc 1 827 0
 2452 009a B575     		strb	r5, [r6, #22]
 2453 009c 04E0     		b	.L113
 2454              	.L112:
 831:Code\UserApp\Protocol/CmdProtocol.c **** 		*pT = RT_FAIL;
 2455              		.loc 1 831 0
 2456 009e 0520     		movs	r0, #5
 2457 00a0 FFF7FEFF 		bl	VoicePlay
 2458              	.LVL310:
 832:Code\UserApp\Protocol/CmdProtocol.c **** 	}
 2459              		.loc 1 832 0
 2460 00a4 0223     		movs	r3, #2
 2461 00a6 B375     		strb	r3, [r6, #22]
 2462              	.L113:
 836:Code\UserApp\Protocol/CmdProtocol.c **** 	
 2463              		.loc 1 836 0
 2464 00a8 1723     		movs	r3, #23
 2465 00aa A279     		ldrb	r2, [r4, #6]
 2466 00ac 0093     		str	r3, [sp]
 2467 00ae 0121     		movs	r1, #1
 2468 00b0 3300     		movs	r3, r6
 2469 00b2 0298     		ldr	r0, [sp, #8]
 2470 00b4 FFF7FEFF 		bl	Protocol_SendAckPacket
 2471              	.LVL311:
 843:Code\UserApp\Protocol/CmdProtocol.c **** 
 2472              		.loc 1 843 0
 2473 00b8 1BB0     		add	sp, sp, #108
 2474              		@ sp needed
 2475              	.LVL312:
 2476              	.LVL313:
 2477 00ba F0BD     		pop	{r4, r5, r6, r7, pc}
 2478              		.cfi_endproc
 2479              	.LFE76:
 2480              		.size	Protocol_CmdWriteUID, .-Protocol_CmdWriteUID
 2481              		.section	.text.Protocol_CmdDelUID,"ax",%progbits
 2482              		.align	1
 2483              		.code	16
 2484              		.thumb_func
 2485              		.type	Protocol_CmdDelUID, %function
 2486              	Protocol_CmdDelUID:
 2487              	.LFB77:
 854:Code\UserApp\Protocol/CmdProtocol.c **** 	uint8 ret = 0;
 2488              		.loc 1 854 0
 2489              		.cfi_startproc
 2490              		@ args = 0, pretend = 0, frame = 80
 2491              		@ frame_needed = 0, uses_anonymous_args = 0
ARM GAS  C:\Users\Administrator\AppData\Local\Temp\ccexfbaX.s 			page 81


 2492              	.LVL314:
 2493 0000 F0B5     		push	{r4, r5, r6, r7, lr}
 2494              		.cfi_def_cfa_offset 20
 2495              		.cfi_offset 4, -20
 2496              		.cfi_offset 5, -16
 2497              		.cfi_offset 6, -12
 2498              		.cfi_offset 7, -8
 2499              		.cfi_offset 14, -4
 2500 0002 0400     		movs	r4, r0
 862:Code\UserApp\Protocol/CmdProtocol.c **** 	 
 2501              		.loc 1 862 0
 2502 0004 8178     		ldrb	r1, [r0, #2]
 2503 0006 C378     		ldrb	r3, [r0, #3]
 854:Code\UserApp\Protocol/CmdProtocol.c **** 	uint8 ret = 0;
 2504              		.loc 1 854 0
 2505 0008 97B0     		sub	sp, sp, #92
 2506              		.cfi_def_cfa_offset 112
 2507              	.LVL315:
 862:Code\UserApp\Protocol/CmdProtocol.c **** 	 
 2508              		.loc 1 862 0
 2509 000a 0433     		adds	r3, r3, #4
 2510 000c 0902     		lsls	r1, r1, #8
 2511 000e C918     		adds	r1, r1, r3
 864:Code\UserApp\Protocol/CmdProtocol.c **** 	memcpy(pT, RecBuf + 7, 6);									// å–å‡ºMACåœ°å€ï¼Œç†è®ºåº”åŠ ä¸ŠMACæ ¡éªŒ		//
 2512              		.loc 1 864 0
 2513 0010 06AD     		add	r5, sp, #24
 2514              	.LVL316:
 862:Code\UserApp\Protocol/CmdProtocol.c **** 	 
 2515              		.loc 1 862 0
 2516 0012 8BB2     		uxth	r3, r1
 859:Code\UserApp\Protocol/CmdProtocol.c **** 	uint16 nCmdPackLen;
 2517              		.loc 1 859 0
 2518 0014 0779     		ldrb	r7, [r0, #4]
 2519              	.LVL317:
 864:Code\UserApp\Protocol/CmdProtocol.c **** 	memcpy(pT, RecBuf + 7, 6);									// å–å‡ºMACåœ°å€ï¼Œç†è®ºåº”åŠ ä¸ŠMACæ ¡éªŒ		//
 2520              		.loc 1 864 0
 2521 0016 4022     		movs	r2, #64
 2522 0018 0021     		movs	r1, #0
 2523 001a 2800     		movs	r0, r5
 2524              	.LVL318:
 862:Code\UserApp\Protocol/CmdProtocol.c **** 	 
 2525              		.loc 1 862 0
 2526 001c 0393     		str	r3, [sp, #12]
 2527              	.LVL319:
 868:Code\UserApp\Protocol/CmdProtocol.c **** 	memcpy(pUID, RecBuf + 13, 8);
 2528              		.loc 1 868 0
 2529 001e 2600     		movs	r6, r4
 864:Code\UserApp\Protocol/CmdProtocol.c **** 	memcpy(pT, RecBuf + 7, 6);									// å–å‡ºMACåœ°å€ï¼Œç†è®ºåº”åŠ ä¸ŠMACæ ¡éªŒ		//
 2530              		.loc 1 864 0
 2531 0020 FFF7FEFF 		bl	memset
 2532              	.LVL320:
 865:Code\UserApp\Protocol/CmdProtocol.c **** 	pT += 6;
 2533              		.loc 1 865 0
 2534 0024 E11D     		adds	r1, r4, #7
 2535 0026 0622     		movs	r2, #6
 2536 0028 2800     		movs	r0, r5
 2537 002a FFF7FEFF 		bl	memcpy
ARM GAS  C:\Users\Administrator\AppData\Local\Temp\ccexfbaX.s 			page 82


 2538              	.LVL321:
 868:Code\UserApp\Protocol/CmdProtocol.c **** 	memcpy(pUID, RecBuf + 13, 8);
 2539              		.loc 1 868 0
 2540 002e 1620     		movs	r0, #22
 2541 0030 02AB     		add	r3, sp, #8
 2542 0032 0D36     		adds	r6, r6, #13
 2543 0034 3100     		movs	r1, r6
 2544 0036 C018     		adds	r0, r0, r3
 2545 0038 0822     		movs	r2, #8
 2546 003a FFF7FEFF 		bl	memcpy
 2547              	.LVL322:
 869:Code\UserApp\Protocol/CmdProtocol.c **** 	pT += 8;
 2548              		.loc 1 869 0
 2549 003e 3100     		movs	r1, r6
 2550 0040 0822     		movs	r2, #8
 2551 0042 04A8     		add	r0, sp, #16
 2552 0044 FFF7FEFF 		bl	memcpy
 2553              	.LVL323:
 872:Code\UserApp\Protocol/CmdProtocol.c **** 	pT += 4;
 2554              		.loc 1 872 0
 2555 0048 1E20     		movs	r0, #30
 2556 004a 039B     		ldr	r3, [sp, #12]
 2557 004c 0422     		movs	r2, #4
 2558 004e 991F     		subs	r1, r3, #6
 2559 0050 02AB     		add	r3, sp, #8
 2560 0052 6118     		adds	r1, r4, r1
 2561 0054 C018     		adds	r0, r0, r3
 2562 0056 FFF7FEFF 		bl	memcpy
 2563              	.LVL324:
 876:Code\UserApp\Protocol/CmdProtocol.c **** 	
 2564              		.loc 1 876 0
 2565 005a 04A8     		add	r0, sp, #16
 2566 005c FFF7FEFF 		bl	Endpoint_exchange
 2567              	.LVL325:
 878:Code\UserApp\Protocol/CmdProtocol.c **** 	if (TRUE == ret)
 2568              		.loc 1 878 0
 2569 0060 04A8     		add	r0, sp, #16
 2570 0062 FFF7FEFF 		bl	UserData_DEL_User
 2571              	.LVL326:
 2572 0066 0600     		movs	r6, r0
 2573              	.LVL327:
 881:Code\UserApp\Protocol/CmdProtocol.c **** 		*pT = RT_SUCC;
 2574              		.loc 1 881 0
 2575 0068 0620     		movs	r0, #6
 879:Code\UserApp\Protocol/CmdProtocol.c **** 	{
 2576              		.loc 1 879 0
 2577 006a 012E     		cmp	r6, #1
 2578 006c 02D0     		beq	.L118
 884:Code\UserApp\Protocol/CmdProtocol.c **** 	{
 2579              		.loc 1 884 0
 2580 006e 102E     		cmp	r6, #16
 2581 0070 04D1     		bne	.L117
 886:Code\UserApp\Protocol/CmdProtocol.c **** 		*pT = RT_Invalid_ERR;
 2582              		.loc 1 886 0
 2583 0072 0720     		movs	r0, #7
 2584              	.L118:
 2585 0074 FFF7FEFF 		bl	VoicePlay
ARM GAS  C:\Users\Administrator\AppData\Local\Temp\ccexfbaX.s 			page 83


 2586              	.LVL328:
 887:Code\UserApp\Protocol/CmdProtocol.c **** 	}
 2587              		.loc 1 887 0
 2588 0078 AE74     		strb	r6, [r5, #18]
 2589 007a 06E0     		b	.L116
 2590              	.L117:
 889:Code\UserApp\Protocol/CmdProtocol.c **** 	{
 2591              		.loc 1 889 0
 2592 007c 002E     		cmp	r6, #0
 2593 007e 04D1     		bne	.L116
 891:Code\UserApp\Protocol/CmdProtocol.c **** 		*pT = RT_FAIL;
 2594              		.loc 1 891 0
 2595 0080 0720     		movs	r0, #7
 2596 0082 FFF7FEFF 		bl	VoicePlay
 2597              	.LVL329:
 892:Code\UserApp\Protocol/CmdProtocol.c **** 	}
 2598              		.loc 1 892 0
 2599 0086 0223     		movs	r3, #2
 2600 0088 AB74     		strb	r3, [r5, #18]
 2601              	.L116:
 898:Code\UserApp\Protocol/CmdProtocol.c **** 	
 2602              		.loc 1 898 0
 2603 008a 1323     		movs	r3, #19
 2604 008c A279     		ldrb	r2, [r4, #6]
 2605 008e 0093     		str	r3, [sp]
 2606 0090 0121     		movs	r1, #1
 2607 0092 2B00     		movs	r3, r5
 2608 0094 3800     		movs	r0, r7
 2609 0096 FFF7FEFF 		bl	Protocol_SendAckPacket
 2610              	.LVL330:
 905:Code\UserApp\Protocol/CmdProtocol.c **** 
 2611              		.loc 1 905 0
 2612 009a 17B0     		add	sp, sp, #92
 2613              		@ sp needed
 2614              	.LVL331:
 2615              	.LVL332:
 2616              	.LVL333:
 2617 009c F0BD     		pop	{r4, r5, r6, r7, pc}
 2618              		.cfi_endproc
 2619              	.LFE77:
 2620              		.size	Protocol_CmdDelUID, .-Protocol_CmdDelUID
 2621              		.section	.text.Protocol_CmdOpenDoor,"ax",%progbits
 2622              		.align	1
 2623              		.code	16
 2624              		.thumb_func
 2625              		.type	Protocol_CmdOpenDoor, %function
 2626              	Protocol_CmdOpenDoor:
 2627              	.LFB78:
 916:Code\UserApp\Protocol/CmdProtocol.c **** 	uint8 ret = 0;
 2628              		.loc 1 916 0
 2629              		.cfi_startproc
 2630              		@ args = 0, pretend = 0, frame = 312
 2631              		@ frame_needed = 0, uses_anonymous_args = 0
 2632              	.LVL334:
 2633 0000 F0B5     		push	{r4, r5, r6, r7, lr}
 2634              		.cfi_def_cfa_offset 20
 2635              		.cfi_offset 4, -20
ARM GAS  C:\Users\Administrator\AppData\Local\Temp\ccexfbaX.s 			page 84


 2636              		.cfi_offset 5, -16
 2637              		.cfi_offset 6, -12
 2638              		.cfi_offset 7, -8
 2639              		.cfi_offset 14, -4
 925:Code\UserApp\Protocol/CmdProtocol.c **** 	uint16 nCmdPackLen;
 2640              		.loc 1 925 0
 2641 0002 0379     		ldrb	r3, [r0, #4]
 916:Code\UserApp\Protocol/CmdProtocol.c **** 	uint8 ret = 0;
 2642              		.loc 1 916 0
 2643 0004 D1B0     		sub	sp, sp, #324
 2644              		.cfi_def_cfa_offset 344
 2645              	.LVL335:
 930:Code\UserApp\Protocol/CmdProtocol.c **** 	
 2646              		.loc 1 930 0
 2647 0006 8778     		ldrb	r7, [r0, #2]
 925:Code\UserApp\Protocol/CmdProtocol.c **** 	uint16 nCmdPackLen;
 2648              		.loc 1 925 0
 2649 0008 0393     		str	r3, [sp, #12]
 2650              	.LVL336:
 930:Code\UserApp\Protocol/CmdProtocol.c **** 	
 2651              		.loc 1 930 0
 2652 000a C378     		ldrb	r3, [r0, #3]
 932:Code\UserApp\Protocol/CmdProtocol.c ****     memset(pT, 0, sizeof(DataBuf));
 2653              		.loc 1 932 0
 2654 000c 0CAC     		add	r4, sp, #48
 930:Code\UserApp\Protocol/CmdProtocol.c **** 	
 2655              		.loc 1 930 0
 2656 000e 0433     		adds	r3, r3, #4
 916:Code\UserApp\Protocol/CmdProtocol.c **** 	uint8 ret = 0;
 2657              		.loc 1 916 0
 2658 0010 0600     		movs	r6, r0
 932:Code\UserApp\Protocol/CmdProtocol.c ****     memset(pT, 0, sizeof(DataBuf));
 2659              		.loc 1 932 0
 2660 0012 1022     		movs	r2, #16
 2661 0014 0021     		movs	r1, #0
 930:Code\UserApp\Protocol/CmdProtocol.c **** 	
 2662              		.loc 1 930 0
 2663 0016 3F02     		lsls	r7, r7, #8
 932:Code\UserApp\Protocol/CmdProtocol.c ****     memset(pT, 0, sizeof(DataBuf));
 2664              		.loc 1 932 0
 2665 0018 2000     		movs	r0, r4
 2666              	.LVL337:
 930:Code\UserApp\Protocol/CmdProtocol.c **** 	
 2667              		.loc 1 930 0
 2668 001a FF18     		adds	r7, r7, r3
 932:Code\UserApp\Protocol/CmdProtocol.c ****     memset(pT, 0, sizeof(DataBuf));
 2669              		.loc 1 932 0
 2670 001c FFF7FEFF 		bl	memset
 2671              	.LVL338:
 933:Code\UserApp\Protocol/CmdProtocol.c ****     
 2672              		.loc 1 933 0
 2673 0020 8022     		movs	r2, #128
 935:Code\UserApp\Protocol/CmdProtocol.c ****     memcpy(pMAC, RecBuf + 7, 6);
 2674              		.loc 1 935 0
 2675 0022 F51D     		adds	r5, r6, #7
 933:Code\UserApp\Protocol/CmdProtocol.c ****     
 2676              		.loc 1 933 0
ARM GAS  C:\Users\Administrator\AppData\Local\Temp\ccexfbaX.s 			page 85


 2677 0024 5200     		lsls	r2, r2, #1
 2678 0026 0021     		movs	r1, #0
 2679 0028 10A8     		add	r0, sp, #64
 2680              	.LVL339:
 2681 002a FFF7FEFF 		bl	memset
 2682              	.LVL340:
 935:Code\UserApp\Protocol/CmdProtocol.c ****     memcpy(pMAC, RecBuf + 7, 6);
 2683              		.loc 1 935 0
 2684 002e 2900     		movs	r1, r5
 2685 0030 0622     		movs	r2, #6
 2686 0032 10A8     		add	r0, sp, #64
 2687              	.LVL341:
 2688 0034 FFF7FEFF 		bl	memcpy
 2689              	.LVL342:
 936:Code\UserApp\Protocol/CmdProtocol.c **** 	pT += 6;
 2690              		.loc 1 936 0
 2691 0038 2900     		movs	r1, r5
 2692 003a 0622     		movs	r2, #6
 2693 003c 05A8     		add	r0, sp, #20
 2694 003e FFF7FEFF 		bl	memcpy
 2695              	.LVL343:
 939:Code\UserApp\Protocol/CmdProtocol.c **** 	memcpy(pUID, RecBuf + 13,8);
 2696              		.loc 1 939 0
 2697 0042 3E20     		movs	r0, #62
 2698 0044 02AB     		add	r3, sp, #8
 2699 0046 0635     		adds	r5, r5, #6
 2700 0048 2900     		movs	r1, r5
 2701 004a C018     		adds	r0, r0, r3
 2702 004c 0822     		movs	r2, #8
 2703 004e FFF7FEFF 		bl	memcpy
 2704              	.LVL344:
 940:Code\UserApp\Protocol/CmdProtocol.c ****     pT += 8;
 2705              		.loc 1 940 0
 2706 0052 2900     		movs	r1, r5
 2707 0054 0822     		movs	r2, #8
 2708 0056 07A8     		add	r0, sp, #28
 2709 0058 FFF7FEFF 		bl	memcpy
 2710              	.LVL345:
 943:Code\UserApp\Protocol/CmdProtocol.c **** 	OpenType = *(RecBuf + 13 + 8);
 2711              		.loc 1 943 0
 2712 005c 4622     		movs	r2, #70
 2713 005e 737D     		ldrb	r3, [r6, #21]
 947:Code\UserApp\Protocol/CmdProtocol.c ****     memcpy(pTime, RecBuf + nCmdPackLen - 6, 4);
 2714              		.loc 1 947 0
 2715 0060 4720     		movs	r0, #71
 943:Code\UserApp\Protocol/CmdProtocol.c **** 	OpenType = *(RecBuf + 13 + 8);
 2716              		.loc 1 943 0
 2717 0062 0293     		str	r3, [sp, #8]
 2718 0064 02AB     		add	r3, sp, #8
 2719 0066 9B18     		adds	r3, r3, r2
 2720 0068 6A46     		mov	r2, sp
 930:Code\UserApp\Protocol/CmdProtocol.c **** 	
 2721              		.loc 1 930 0
 2722 006a BFB2     		uxth	r7, r7
 2723              	.LVL346:
 943:Code\UserApp\Protocol/CmdProtocol.c **** 	OpenType = *(RecBuf + 13 + 8);
 2724              		.loc 1 943 0
ARM GAS  C:\Users\Administrator\AppData\Local\Temp\ccexfbaX.s 			page 86


 2725 006c 127A     		ldrb	r2, [r2, #8]
 947:Code\UserApp\Protocol/CmdProtocol.c ****     memcpy(pTime, RecBuf + nCmdPackLen - 6, 4);
 2726              		.loc 1 947 0
 2727 006e BD1F     		subs	r5, r7, #6
 943:Code\UserApp\Protocol/CmdProtocol.c **** 	OpenType = *(RecBuf + 13 + 8);
 2728              		.loc 1 943 0
 2729 0070 1A70     		strb	r2, [r3]
 2730              	.LVL347:
 947:Code\UserApp\Protocol/CmdProtocol.c ****     memcpy(pTime, RecBuf + nCmdPackLen - 6, 4);
 2731              		.loc 1 947 0
 2732 0072 7519     		adds	r5, r6, r5
 2733 0074 02AB     		add	r3, sp, #8
 2734              	.LVL348:
 2735 0076 C018     		adds	r0, r0, r3
 2736 0078 2900     		movs	r1, r5
 2737 007a 0422     		movs	r2, #4
 2738 007c FFF7FEFF 		bl	memcpy
 2739              	.LVL349:
 948:Code\UserApp\Protocol/CmdProtocol.c **** 	pT += 4;
 2740              		.loc 1 948 0
 2741 0080 2900     		movs	r1, r5
 2742 0082 0422     		movs	r2, #4
 2743 0084 04A8     		add	r0, sp, #16
 2744 0086 FFF7FEFF 		bl	memcpy
 2745              	.LVL350:
 954:Code\UserApp\Protocol/CmdProtocol.c **** 	memcpy(user_info.valid_time, pTime, 4);
 2746              		.loc 1 954 0
 2747 008a 09AF     		add	r7, sp, #36
 2748              	.LVL351:
 952:Code\UserApp\Protocol/CmdProtocol.c **** 	
 2749              		.loc 1 952 0
 2750 008c 07A8     		add	r0, sp, #28
 2751 008e FFF7FEFF 		bl	Endpoint_exchange
 2752              	.LVL352:
 954:Code\UserApp\Protocol/CmdProtocol.c **** 	memcpy(user_info.valid_time, pTime, 4);
 2753              		.loc 1 954 0
 2754 0092 3B00     		movs	r3, r7
 2755 0094 07AA     		add	r2, sp, #28
 2756 0096 03CA     		ldmia	r2!, {r0, r1}
 2757 0098 03C3     		stmia	r3!, {r0, r1}
 955:Code\UserApp\Protocol/CmdProtocol.c **** 	
 2758              		.loc 1 955 0
 2759 009a 049B     		ldr	r3, [sp, #16]
 957:Code\UserApp\Protocol/CmdProtocol.c **** 	{
 2760              		.loc 1 957 0
 2761 009c 0622     		movs	r2, #6
 2762 009e 05A9     		add	r1, sp, #20
 2763 00a0 3348     		ldr	r0, .L129
 955:Code\UserApp\Protocol/CmdProtocol.c **** 	
 2764              		.loc 1 955 0
 2765 00a2 0B93     		str	r3, [sp, #44]
 957:Code\UserApp\Protocol/CmdProtocol.c **** 	{
 2766              		.loc 1 957 0
 2767 00a4 FFF7FEFF 		bl	memcmp
 2768              	.LVL353:
 959:Code\UserApp\Protocol/CmdProtocol.c **** 	}
 2769              		.loc 1 959 0
ARM GAS  C:\Users\Administrator\AppData\Local\Temp\ccexfbaX.s 			page 87


 2770 00a8 0225     		movs	r5, #2
 957:Code\UserApp\Protocol/CmdProtocol.c **** 	{
 2771              		.loc 1 957 0
 2772 00aa 0028     		cmp	r0, #0
 2773 00ac 08D1     		bne	.L120
 964:Code\UserApp\Protocol/CmdProtocol.c **** 		if (RT_UID_ERR == ret)
 2774              		.loc 1 964 0
 2775 00ae 3800     		movs	r0, r7
 2776 00b0 FFF7FEFF 		bl	UserData_Judge_If_Open
 2777              	.LVL354:
 967:Code\UserApp\Protocol/CmdProtocol.c **** 		}
 2778              		.loc 1 967 0
 2779 00b4 0500     		movs	r5, r0
 965:Code\UserApp\Protocol/CmdProtocol.c **** 		{
 2780              		.loc 1 965 0
 2781 00b6 0628     		cmp	r0, #6
 2782 00b8 02D0     		beq	.L120
 969:Code\UserApp\Protocol/CmdProtocol.c **** 		{
 2783              		.loc 1 969 0
 2784 00ba 0828     		cmp	r0, #8
 2785 00bc 00D0     		beq	.L120
 918:Code\UserApp\Protocol/CmdProtocol.c **** 	uint8 DataBuf[256];
 2786              		.loc 1 918 0
 2787 00be 0125     		movs	r5, #1
 2788              	.LVL355:
 2789              	.L120:
 978:Code\UserApp\Protocol/CmdProtocol.c **** 	//===ã€ç»“æŸã€‘=== è®¾å¤‡å±‚çš„å¤„ç† ==========================================================
 2790              		.loc 1 978 0
 2791 00c0 4B22     		movs	r2, #75
 2792 00c2 02AB     		add	r3, sp, #8
 2793              	.LVL356:
 2794 00c4 9B18     		adds	r3, r3, r2
 2795              	.LVL357:
 2796 00c6 1D70     		strb	r5, [r3]
 981:Code\UserApp\Protocol/CmdProtocol.c **** 		
 2797              		.loc 1 981 0
 2798 00c8 1423     		movs	r3, #20
 2799              	.LVL358:
 2800 00ca B279     		ldrb	r2, [r6, #6]
 2801 00cc 0121     		movs	r1, #1
 2802 00ce 0093     		str	r3, [sp]
 2803 00d0 0398     		ldr	r0, [sp, #12]
 2804 00d2 10AB     		add	r3, sp, #64
 2805 00d4 FFF7FEFF 		bl	Protocol_SendAckPacket
 2806              	.LVL359:
 983:Code\UserApp\Protocol/CmdProtocol.c **** 	{
 2807              		.loc 1 983 0
 2808 00d8 012D     		cmp	r5, #1
 2809 00da 3AD1     		bne	.L121
 2810              	.LVL360:
 986:Code\UserApp\Protocol/CmdProtocol.c **** 		DoorOpen();
 2811              		.loc 1 986 0
 2812 00dc FFF7FEFF 		bl	Led_GreenON
 2813              	.LVL361:
 987:Code\UserApp\Protocol/CmdProtocol.c **** 		VoicePlay((uint8)Sound_VERIFY_SUCCESS);
 2814              		.loc 1 987 0
 2815 00e0 FFF7FEFF 		bl	DoorOpen
ARM GAS  C:\Users\Administrator\AppData\Local\Temp\ccexfbaX.s 			page 88


 2816              	.LVL362:
 988:Code\UserApp\Protocol/CmdProtocol.c ****         cur_time = (uint32)RTC_GetUnixTime();
 2817              		.loc 1 988 0
 2818 00e4 0A20     		movs	r0, #10
 2819 00e6 FFF7FEFF 		bl	VoicePlay
 2820              	.LVL363:
 989:Code\UserApp\Protocol/CmdProtocol.c **** 		if (cur_time >= 1483203600)
 2821              		.loc 1 989 0
 2822 00ea FFF7FEFF 		bl	RTC_GetUnixTime
 2823              	.LVL364:
 2824 00ee 214E     		ldr	r6, .L129+4
 2825              	.LVL365:
 2826 00f0 214D     		ldr	r5, .L129+8
 2827 00f2 2860     		str	r0, [r5]
 990:Code\UserApp\Protocol/CmdProtocol.c **** 		{
 2828              		.loc 1 990 0
 2829 00f4 B042     		cmp	r0, r6
 2830 00f6 0CD9     		bls	.L122
 992:Code\UserApp\Protocol/CmdProtocol.c **** 			memcpy(openInfo.open_time, pTime, 4);
 2831              		.loc 1 992 0
 2832 00f8 2300     		movs	r3, r4
 2833 00fa 07AA     		add	r2, sp, #28
 2834 00fc 03CA     		ldmia	r2!, {r0, r1}
 2835 00fe 03C3     		stmia	r3!, {r0, r1}
 993:Code\UserApp\Protocol/CmdProtocol.c **** 			memset(pTime, 0, 4);
 2836              		.loc 1 993 0
 2837 0100 049B     		ldr	r3, [sp, #16]
 996:Code\UserApp\Protocol/CmdProtocol.c **** 		}
 2838              		.loc 1 996 0
 2839 0102 0299     		ldr	r1, [sp, #8]
 993:Code\UserApp\Protocol/CmdProtocol.c **** 			memset(pTime, 0, 4);
 2840              		.loc 1 993 0
 2841 0104 A360     		str	r3, [r4, #8]
 994:Code\UserApp\Protocol/CmdProtocol.c **** 			memcpy(openInfo.send_time, pTime, 4);
 2842              		.loc 1 994 0
 2843 0106 0023     		movs	r3, #0
 996:Code\UserApp\Protocol/CmdProtocol.c **** 		}
 2844              		.loc 1 996 0
 2845 0108 2000     		movs	r0, r4
 994:Code\UserApp\Protocol/CmdProtocol.c **** 			memcpy(openInfo.send_time, pTime, 4);
 2846              		.loc 1 994 0
 2847 010a 0493     		str	r3, [sp, #16]
 995:Code\UserApp\Protocol/CmdProtocol.c **** 			Write_OpenInfo(&openInfo, OpenType);
 2848              		.loc 1 995 0
 2849 010c E360     		str	r3, [r4, #12]
 996:Code\UserApp\Protocol/CmdProtocol.c **** 		}
 2850              		.loc 1 996 0
 2851 010e FFF7FEFF 		bl	Write_OpenInfo
 2852              	.LVL366:
 2853              	.L122:
 998:Code\UserApp\Protocol/CmdProtocol.c **** 		DoorClose();
 2854              		.loc 1 998 0
 2855 0112 FA20     		movs	r0, #250
 2856 0114 8000     		lsls	r0, r0, #2
 2857 0116 FFF7FEFF 		bl	delay_with_ble
 2858              	.LVL367:
 999:Code\UserApp\Protocol/CmdProtocol.c **** 		Led_SetState(LED_State);
ARM GAS  C:\Users\Administrator\AppData\Local\Temp\ccexfbaX.s 			page 89


 2859              		.loc 1 999 0
 2860 011a FFF7FEFF 		bl	DoorClose
 2861              	.LVL368:
1000:Code\UserApp\Protocol/CmdProtocol.c **** 		
 2862              		.loc 1 1000 0
 2863 011e 174B     		ldr	r3, .L129+12
 2864 0120 1878     		ldrb	r0, [r3]
 2865 0122 FFF7FEFF 		bl	Led_SetState
 2866              	.LVL369:
1011:Code\UserApp\Protocol/CmdProtocol.c **** 		{
 2867              		.loc 1 1011 0
 2868 0126 2B68     		ldr	r3, [r5]
 2869 0128 B342     		cmp	r3, r6
 2870 012a 1FD9     		bls	.L119
1013:Code\UserApp\Protocol/CmdProtocol.c **** 			{
 2871              		.loc 1 1013 0
 2872 012c 144B     		ldr	r3, .L129+16
 2873 012e 1B78     		ldrb	r3, [r3]
 2874 0130 052B     		cmp	r3, #5
 2875 0132 1BD1     		bne	.L119
1015:Code\UserApp\Protocol/CmdProtocol.c **** 				if(cur_time > next_allupload_time)
 2876              		.loc 1 1015 0
 2877 0134 FFF7FEFF 		bl	RTC_GetUnixTime
 2878              	.LVL370:
1016:Code\UserApp\Protocol/CmdProtocol.c **** 				{
 2879              		.loc 1 1016 0
 2880 0138 124B     		ldr	r3, .L129+20
1015:Code\UserApp\Protocol/CmdProtocol.c **** 				if(cur_time > next_allupload_time)
 2881              		.loc 1 1015 0
 2882 013a 2860     		str	r0, [r5]
1016:Code\UserApp\Protocol/CmdProtocol.c **** 				{
 2883              		.loc 1 1016 0
 2884 013c 1A68     		ldr	r2, [r3]
 2885 013e 9042     		cmp	r0, r2
 2886 0140 14D9     		bls	.L119
1018:Code\UserApp\Protocol/CmdProtocol.c **** 					send_upload_open_info(&openInfo, CARD_UID_LEN, OpenType);
 2887              		.loc 1 1018 0
 2888 0142 0F30     		adds	r0, r0, #15
 2889 0144 1860     		str	r0, [r3]
1019:Code\UserApp\Protocol/CmdProtocol.c **** 				}
 2890              		.loc 1 1019 0
 2891 0146 029A     		ldr	r2, [sp, #8]
 2892 0148 0821     		movs	r1, #8
 2893 014a 2000     		movs	r0, r4
 2894 014c FFF7FEFF 		bl	send_upload_open_info
 2895              	.LVL371:
 2896 0150 0CE0     		b	.L119
 2897              	.LVL372:
 2898              	.L121:
1026:Code\UserApp\Protocol/CmdProtocol.c **** 		Led_RedON();
 2899              		.loc 1 1026 0
 2900 0152 0D4A     		ldr	r2, .L129+24
 2901 0154 1378     		ldrb	r3, [r2]
 2902 0156 0133     		adds	r3, r3, #1
 2903 0158 1370     		strb	r3, [r2]
1027:Code\UserApp\Protocol/CmdProtocol.c **** 		VoicePlay(Sound_VERIFY_FAILURE);
 2904              		.loc 1 1027 0
ARM GAS  C:\Users\Administrator\AppData\Local\Temp\ccexfbaX.s 			page 90


 2905 015a FFF7FEFF 		bl	Led_RedON
 2906              	.LVL373:
1028:Code\UserApp\Protocol/CmdProtocol.c **** 		delay_with_ble(1000);
 2907              		.loc 1 1028 0
 2908 015e 0B20     		movs	r0, #11
 2909 0160 FFF7FEFF 		bl	VoicePlay
 2910              	.LVL374:
1029:Code\UserApp\Protocol/CmdProtocol.c **** 	}
 2911              		.loc 1 1029 0
 2912 0164 FA20     		movs	r0, #250
 2913 0166 8000     		lsls	r0, r0, #2
 2914 0168 FFF7FEFF 		bl	delay_with_ble
 2915              	.LVL375:
 2916              	.L119:
1033:Code\UserApp\Protocol/CmdProtocol.c **** 
 2917              		.loc 1 1033 0
 2918 016c 51B0     		add	sp, sp, #324
 2919              		@ sp needed
 2920 016e F0BD     		pop	{r4, r5, r6, r7, pc}
 2921              	.L130:
 2922              		.align	2
 2923              	.L129:
 2924 0170 00000000 		.word	Mac_Addr
 2925 0174 0FE46758 		.word	1483203599
 2926 0178 00000000 		.word	cur_time
 2927 017c 00000000 		.word	LED_State
 2928 0180 00000000 		.word	gprs_state
 2929 0184 00000000 		.word	next_allupload_time
 2930 0188 00000000 		.word	Card_ErrCount
 2931              		.cfi_endproc
 2932              	.LFE78:
 2933              		.size	Protocol_CmdOpenDoor, .-Protocol_CmdOpenDoor
 2934              		.section	.text.Protocol_CmdClearUID,"ax",%progbits
 2935              		.align	1
 2936              		.code	16
 2937              		.thumb_func
 2938              		.type	Protocol_CmdClearUID, %function
 2939              	Protocol_CmdClearUID:
 2940              	.LFB81:
1116:Code\UserApp\Protocol/CmdProtocol.c **** 	uint8 RetCode = RT_SUCC;
 2941              		.loc 1 1116 0
 2942              		.cfi_startproc
 2943              		@ args = 0, pretend = 0, frame = 64
 2944              		@ frame_needed = 0, uses_anonymous_args = 0
 2945              	.LVL376:
 2946 0000 F0B5     		push	{r4, r5, r6, r7, lr}
 2947              		.cfi_def_cfa_offset 20
 2948              		.cfi_offset 4, -20
 2949              		.cfi_offset 5, -16
 2950              		.cfi_offset 6, -12
 2951              		.cfi_offset 7, -8
 2952              		.cfi_offset 14, -4
 2953 0002 0600     		movs	r6, r0
 2954 0004 93B0     		sub	sp, sp, #76
 2955              		.cfi_def_cfa_offset 96
 2956              	.LVL377:
1122:Code\UserApp\Protocol/CmdProtocol.c **** 	memcpy(pT, RecBuf + 7, 10);									// å–å‡ºMACåœ°å€å’Œæ—¶é—´æˆ³					//
ARM GAS  C:\Users\Administrator\AppData\Local\Temp\ccexfbaX.s 			page 91


 2957              		.loc 1 1122 0
 2958 0006 02AD     		add	r5, sp, #8
 2959              	.LVL378:
1120:Code\UserApp\Protocol/CmdProtocol.c **** 		 
 2960              		.loc 1 1120 0
 2961 0008 0779     		ldrb	r7, [r0, #4]
 2962              	.LVL379:
1122:Code\UserApp\Protocol/CmdProtocol.c **** 	memcpy(pT, RecBuf + 7, 10);									// å–å‡ºMACåœ°å€å’Œæ—¶é—´æˆ³					//
 2963              		.loc 1 1122 0
 2964 000a 4022     		movs	r2, #64
 2965 000c 0021     		movs	r1, #0
 2966 000e 2800     		movs	r0, r5
 2967              	.LVL380:
 2968 0010 FFF7FEFF 		bl	memset
 2969              	.LVL381:
1123:Code\UserApp\Protocol/CmdProtocol.c **** 	pT += 10;
 2970              		.loc 1 1123 0
 2971 0014 F11D     		adds	r1, r6, #7
 2972 0016 0A22     		movs	r2, #10
 2973 0018 2800     		movs	r0, r5
 2974 001a FFF7FEFF 		bl	memcpy
 2975              	.LVL382:
1127:Code\UserApp\Protocol/CmdProtocol.c **** 	{
 2976              		.loc 1 1127 0
 2977 001e FFF7FEFF 		bl	UserData_CLR_User
 2978              	.LVL383:
 2979 0022 0400     		movs	r4, r0
 2980 0024 0128     		cmp	r0, #1
 2981 0026 03D1     		bne	.L132
1130:Code\UserApp\Protocol/CmdProtocol.c **** 	}
 2982              		.loc 1 1130 0
 2983 0028 0820     		movs	r0, #8
 2984 002a FFF7FEFF 		bl	VoicePlay
 2985              	.LVL384:
 2986 002e 03E0     		b	.L133
 2987              	.L132:
 2988              	.LVL385:
1135:Code\UserApp\Protocol/CmdProtocol.c **** 	}
 2989              		.loc 1 1135 0
 2990 0030 0920     		movs	r0, #9
 2991 0032 FFF7FEFF 		bl	VoicePlay
 2992              	.LVL386:
1134:Code\UserApp\Protocol/CmdProtocol.c **** 		VoicePlay((uint8)Sound_EMPTY_FAILURE);
 2993              		.loc 1 1134 0
 2994 0036 0224     		movs	r4, #2
 2995              	.LVL387:
 2996              	.L133:
1140:Code\UserApp\Protocol/CmdProtocol.c **** 	
 2997              		.loc 1 1140 0
 2998 0038 0B23     		movs	r3, #11
1139:Code\UserApp\Protocol/CmdProtocol.c **** 	Protocol_SendAckPacket(comm_chanle, PACK_RESP, RecBuf[6], DataBuf, 11);
 2999              		.loc 1 1139 0
 3000 003a AC72     		strb	r4, [r5, #10]
1140:Code\UserApp\Protocol/CmdProtocol.c **** 	
 3001              		.loc 1 1140 0
 3002 003c B279     		ldrb	r2, [r6, #6]
 3003 003e 0093     		str	r3, [sp]
ARM GAS  C:\Users\Administrator\AppData\Local\Temp\ccexfbaX.s 			page 92


 3004 0040 0121     		movs	r1, #1
 3005 0042 2B00     		movs	r3, r5
 3006 0044 3800     		movs	r0, r7
 3007 0046 FFF7FEFF 		bl	Protocol_SendAckPacket
 3008              	.LVL388:
1147:Code\UserApp\Protocol/CmdProtocol.c **** 
 3009              		.loc 1 1147 0
 3010 004a 13B0     		add	sp, sp, #76
 3011              		@ sp needed
 3012              	.LVL389:
 3013              	.LVL390:
 3014              	.LVL391:
 3015 004c F0BD     		pop	{r4, r5, r6, r7, pc}
 3016              		.cfi_endproc
 3017              	.LFE81:
 3018              		.size	Protocol_CmdClearUID, .-Protocol_CmdClearUID
 3019              		.section	.text.Protocol_CmdReadInfo,"ax",%progbits
 3020              		.align	1
 3021              		.code	16
 3022              		.thumb_func
 3023              		.type	Protocol_CmdReadInfo, %function
 3024              	Protocol_CmdReadInfo:
 3025              	.LFB84:
1205:Code\UserApp\Protocol/CmdProtocol.c **** 	uint8 i;
 3026              		.loc 1 1205 0
 3027              		.cfi_startproc
 3028              		@ args = 0, pretend = 0, frame = 544
 3029              		@ frame_needed = 0, uses_anonymous_args = 0
 3030              	.LVL392:
 3031 0000 F0B5     		push	{r4, r5, r6, r7, lr}
 3032              		.cfi_def_cfa_offset 20
 3033              		.cfi_offset 4, -20
 3034              		.cfi_offset 5, -16
 3035              		.cfi_offset 6, -12
 3036              		.cfi_offset 7, -8
 3037              		.cfi_offset 14, -4
 3038 0002 654C     		ldr	r4, .L149
1221:Code\UserApp\Protocol/CmdProtocol.c **** 	cmd = RecBuf[6];
 3039              		.loc 1 1221 0
 3040 0004 8022     		movs	r2, #128
1205:Code\UserApp\Protocol/CmdProtocol.c **** 	uint8 i;
 3041              		.loc 1 1205 0
 3042 0006 A544     		add	sp, sp, r4
 3043              		.cfi_def_cfa_offset 576
 3044              	.LVL393:
1205:Code\UserApp\Protocol/CmdProtocol.c **** 	uint8 i;
 3045              		.loc 1 1205 0
 3046 0008 0400     		movs	r4, r0
1210:Code\UserApp\Protocol/CmdProtocol.c **** 	uint8 data_openinfo[256];
 3047              		.loc 1 1210 0
 3048 000a 0379     		ldrb	r3, [r0, #4]
1217:Code\UserApp\Protocol/CmdProtocol.c **** 	uint16 tUploadQty;											// å­˜æ”¾æœ¬æ¬¡å‘é€çš„é•¿åº¦					//
 3049              		.loc 1 1217 0
 3050 000c 8178     		ldrb	r1, [r0, #2]
1210:Code\UserApp\Protocol/CmdProtocol.c **** 	uint8 data_openinfo[256];
 3051              		.loc 1 1210 0
 3052 000e 0593     		str	r3, [sp, #20]
ARM GAS  C:\Users\Administrator\AppData\Local\Temp\ccexfbaX.s 			page 93


 3053              	.LVL394:
1217:Code\UserApp\Protocol/CmdProtocol.c **** 	uint16 tUploadQty;											// å­˜æ”¾æœ¬æ¬¡å‘é€çš„é•¿åº¦					//
 3054              		.loc 1 1217 0
 3055 0010 C378     		ldrb	r3, [r0, #3]
 3056 0012 0902     		lsls	r1, r1, #8
 3057 0014 0433     		adds	r3, r3, #4
 3058 0016 C918     		adds	r1, r1, r3
1221:Code\UserApp\Protocol/CmdProtocol.c **** 	cmd = RecBuf[6];
 3059              		.loc 1 1221 0
 3060 0018 0AAD     		add	r5, sp, #40
 3061              	.LVL395:
1217:Code\UserApp\Protocol/CmdProtocol.c **** 	uint16 tUploadQty;											// å­˜æ”¾æœ¬æ¬¡å‘é€çš„é•¿åº¦					//
 3062              		.loc 1 1217 0
 3063 001a 8BB2     		uxth	r3, r1
1221:Code\UserApp\Protocol/CmdProtocol.c **** 	cmd = RecBuf[6];
 3064              		.loc 1 1221 0
 3065 001c 5200     		lsls	r2, r2, #1
 3066 001e 0021     		movs	r1, #0
 3067 0020 2800     		movs	r0, r5
 3068              	.LVL396:
1217:Code\UserApp\Protocol/CmdProtocol.c **** 	uint16 tUploadQty;											// å­˜æ”¾æœ¬æ¬¡å‘é€çš„é•¿åº¦					//
 3069              		.loc 1 1217 0
 3070 0022 0693     		str	r3, [sp, #24]
 3071              	.LVL397:
1221:Code\UserApp\Protocol/CmdProtocol.c **** 	cmd = RecBuf[6];
 3072              		.loc 1 1221 0
 3073 0024 FFF7FEFF 		bl	memset
 3074              	.LVL398:
1222:Code\UserApp\Protocol/CmdProtocol.c **** 	memcpy(pT, RecBuf + 7, 6);								// å–å‡ºMACåœ°å€å’Œæ—¶é—´æˆ³					//
 3075              		.loc 1 1222 0
 3076 0028 A379     		ldrb	r3, [r4, #6]
1223:Code\UserApp\Protocol/CmdProtocol.c ****     pT += 6;
 3077              		.loc 1 1223 0
 3078 002a 0622     		movs	r2, #6
 3079 002c E11D     		adds	r1, r4, #7
 3080 002e 2800     		movs	r0, r5
1222:Code\UserApp\Protocol/CmdProtocol.c **** 	memcpy(pT, RecBuf + 7, 6);								// å–å‡ºMACåœ°å€å’Œæ—¶é—´æˆ³					//
 3081              		.loc 1 1222 0
 3082 0030 0793     		str	r3, [sp, #28]
 3083              	.LVL399:
1223:Code\UserApp\Protocol/CmdProtocol.c ****     pT += 6;
 3084              		.loc 1 1223 0
 3085 0032 FFF7FEFF 		bl	memcpy
 3086              	.LVL400:
1229:Code\UserApp\Protocol/CmdProtocol.c **** 	{
 3087              		.loc 1 1229 0
 3088 0036 637D     		ldrb	r3, [r4, #21]
 3089 0038 A27D     		ldrb	r2, [r4, #22]
 3090 003a 1B02     		lsls	r3, r3, #8
 3091 003c D318     		adds	r3, r2, r3
1207:Code\UserApp\Protocol/CmdProtocol.c **** 	uint8 DataBuf[256];
 3092              		.loc 1 1207 0
 3093 003e 0122     		movs	r2, #1
1229:Code\UserApp\Protocol/CmdProtocol.c **** 	{
 3094              		.loc 1 1229 0
 3095 0040 9BB2     		uxth	r3, r3
1207:Code\UserApp\Protocol/CmdProtocol.c **** 	uint8 DataBuf[256];
ARM GAS  C:\Users\Administrator\AppData\Local\Temp\ccexfbaX.s 			page 94


 3096              		.loc 1 1207 0
 3097 0042 0492     		str	r2, [sp, #16]
1229:Code\UserApp\Protocol/CmdProtocol.c **** 	{
 3098              		.loc 1 1229 0
 3099 0044 9342     		cmp	r3, r2
 3100 0046 23D1     		bne	.L135
 3101              	.LVL401:
1233:Code\UserApp\Protocol/CmdProtocol.c **** 		end_time = BYTE2LONG(end_t[0], end_t[1], end_t[2], end_t[3]);
 3102              		.loc 1 1233 0
 3103 0048 667B     		ldrb	r6, [r4, #13]
 3104 004a A37B     		ldrb	r3, [r4, #14]
 3105 004c 3606     		lsls	r6, r6, #24
 3106 004e 1B04     		lsls	r3, r3, #16
 3107 0050 1E43     		orrs	r6, r3
 3108 0052 237C     		ldrb	r3, [r4, #16]
1234:Code\UserApp\Protocol/CmdProtocol.c **** 		
 3109              		.loc 1 1234 0
 3110 0054 617C     		ldrb	r1, [r4, #17]
1233:Code\UserApp\Protocol/CmdProtocol.c **** 		end_time = BYTE2LONG(end_t[0], end_t[1], end_t[2], end_t[3]);
 3111              		.loc 1 1233 0
 3112 0056 1E43     		orrs	r6, r3
 3113 0058 E37B     		ldrb	r3, [r4, #15]
1234:Code\UserApp\Protocol/CmdProtocol.c **** 		
 3114              		.loc 1 1234 0
 3115 005a 0906     		lsls	r1, r1, #24
1233:Code\UserApp\Protocol/CmdProtocol.c **** 		end_time = BYTE2LONG(end_t[0], end_t[1], end_t[2], end_t[3]);
 3116              		.loc 1 1233 0
 3117 005c 1B02     		lsls	r3, r3, #8
 3118 005e 1E43     		orrs	r6, r3
 3119              	.LVL402:
1234:Code\UserApp\Protocol/CmdProtocol.c **** 		
 3120              		.loc 1 1234 0
 3121 0060 A37C     		ldrb	r3, [r4, #18]
 3122 0062 1B04     		lsls	r3, r3, #16
 3123 0064 1943     		orrs	r1, r3
 3124 0066 237D     		ldrb	r3, [r4, #20]
 3125 0068 1943     		orrs	r1, r3
 3126 006a E37C     		ldrb	r3, [r4, #19]
 3127 006c 1B02     		lsls	r3, r3, #8
 3128 006e 1943     		orrs	r1, r3
 3129              	.LVL403:
1236:Code\UserApp\Protocol/CmdProtocol.c **** 		{
 3130              		.loc 1 1236 0
 3131 0070 8E42     		cmp	r6, r1
 3132 0072 01D9     		bls	.L136
1238:Code\UserApp\Protocol/CmdProtocol.c **** 		}
 3133              		.loc 1 1238 0
 3134 0074 0923     		movs	r3, #9
 3135 0076 0493     		str	r3, [sp, #16]
 3136              	.L136:
 3137              	.LVL404:
1241:Code\UserApp\Protocol/CmdProtocol.c **** 		if (UploadQty > 0)
 3138              		.loc 1 1241 0
 3139 0078 3000     		movs	r0, r6
 3140 007a FFF7FEFF 		bl	Find_Open_ValidQty
 3141              	.LVL405:
 3142 007e 474B     		ldr	r3, .L149+4
ARM GAS  C:\Users\Administrator\AppData\Local\Temp\ccexfbaX.s 			page 95


 3143 0080 1880     		strh	r0, [r3]
1242:Code\UserApp\Protocol/CmdProtocol.c **** 		{
 3144              		.loc 1 1242 0
 3145 0082 0028     		cmp	r0, #0
 3146 0084 04D0     		beq	.L135
1244:Code\UserApp\Protocol/CmdProtocol.c **** 		}
 3147              		.loc 1 1244 0
 3148 0086 3000     		movs	r0, r6
 3149 0088 FFF7FEFF 		bl	Find_Open_StartNum
 3150              	.LVL406:
 3151 008c 444B     		ldr	r3, .L149+8
 3152 008e 1880     		strh	r0, [r3]
 3153              	.LVL407:
 3154              	.L135:
1248:Code\UserApp\Protocol/CmdProtocol.c **** 	{
 3155              		.loc 1 1248 0
 3156 0090 424B     		ldr	r3, .L149+4
 3157 0092 1E88     		ldrh	r6, [r3]
 3158 0094 052E     		cmp	r6, #5
 3159 0096 32D8     		bhi	.L137
 3160              	.LVL408:
1250:Code\UserApp\Protocol/CmdProtocol.c **** 		*pT++ = 0;
 3161              		.loc 1 1250 0
 3162 0098 0023     		movs	r3, #0
1253:Code\UserApp\Protocol/CmdProtocol.c **** 		memcpy(pT, &tUploadQty, 1);								// æœ¬æ¬¡å‘é€æ•°é‡							//
 3163              		.loc 1 1253 0
 3164 009a 0E22     		movs	r2, #14
1250:Code\UserApp\Protocol/CmdProtocol.c **** 		*pT++ = 0;
 3165              		.loc 1 1250 0
 3166 009c AB71     		strb	r3, [r5, #6]
 3167              	.LVL409:
1251:Code\UserApp\Protocol/CmdProtocol.c **** 		
 3168              		.loc 1 1251 0
 3169 009e EB71     		strb	r3, [r5, #7]
1254:Code\UserApp\Protocol/CmdProtocol.c **** 		pT += 1;
 3170              		.loc 1 1254 0
 3171 00a0 2E72     		strb	r6, [r5, #8]
 3172              	.LVL410:
 3173 00a2 1925     		movs	r5, #25
1253:Code\UserApp\Protocol/CmdProtocol.c **** 		memcpy(pT, &tUploadQty, 1);								// æœ¬æ¬¡å‘é€æ•°é‡							//
 3174              		.loc 1 1253 0
 3175 00a4 06A9     		add	r1, sp, #24
 3176              	.LVL411:
 3177 00a6 5218     		adds	r2, r2, r1
 3178 00a8 1680     		strh	r6, [r2]
 3179 00aa 6D18     		adds	r5, r5, r1
1257:Code\UserApp\Protocol/CmdProtocol.c **** 		{
 3180              		.loc 1 1257 0
 3181 00ac 0293     		str	r3, [sp, #8]
 3182              	.LVL412:
 3183              	.L138:
1257:Code\UserApp\Protocol/CmdProtocol.c **** 		{
 3184              		.loc 1 1257 0 is_stmt 0 discriminator 1
 3185 00ae 6B46     		mov	r3, sp
 3186 00b0 1B89     		ldrh	r3, [r3, #8]
 3187 00b2 2F00     		movs	r7, r5
 3188              	.LVL413:
ARM GAS  C:\Users\Administrator\AppData\Local\Temp\ccexfbaX.s 			page 96


 3189 00b4 0393     		str	r3, [sp, #12]
 3190 00b6 9E42     		cmp	r6, r3
 3191 00b8 1BD9     		bls	.L148
1259:Code\UserApp\Protocol/CmdProtocol.c **** 		    memcpy(pT, data_openinfo, 16);
 3192              		.loc 1 1259 0 is_stmt 1 discriminator 3
 3193 00ba 394B     		ldr	r3, .L149+8
 3194 00bc 4AAA     		add	r2, sp, #296
 3195 00be 1888     		ldrh	r0, [r3]
 3196 00c0 039B     		ldr	r3, [sp, #12]
 3197 00c2 0121     		movs	r1, #1
 3198 00c4 1818     		adds	r0, r3, r0
 3199 00c6 80B2     		uxth	r0, r0
 3200 00c8 FFF7FEFF 		bl	Get_Open_Info
 3201              	.LVL414:
1260:Code\UserApp\Protocol/CmdProtocol.c **** 		    pT += 16;
 3202              		.loc 1 1260 0 discriminator 3
 3203 00cc 1022     		movs	r2, #16
 3204 00ce 4AA9     		add	r1, sp, #296
 3205 00d0 2800     		movs	r0, r5
 3206 00d2 FFF7FEFF 		bl	memcpy
 3207              	.LVL415:
1262:Code\UserApp\Protocol/CmdProtocol.c **** 		}
 3208              		.loc 1 1262 0 discriminator 3
 3209 00d6 324B     		ldr	r3, .L149+8
 3210 00d8 1888     		ldrh	r0, [r3]
 3211 00da 039B     		ldr	r3, [sp, #12]
 3212 00dc 1818     		adds	r0, r3, r0
 3213 00de 80B2     		uxth	r0, r0
 3214 00e0 FFF7FEFF 		bl	Read_Open_Type
 3215              	.LVL416:
1257:Code\UserApp\Protocol/CmdProtocol.c **** 		{
 3216              		.loc 1 1257 0 discriminator 3
 3217 00e4 029B     		ldr	r3, [sp, #8]
1262:Code\UserApp\Protocol/CmdProtocol.c **** 		}
 3218              		.loc 1 1262 0 discriminator 3
 3219 00e6 2874     		strb	r0, [r5, #16]
1257:Code\UserApp\Protocol/CmdProtocol.c **** 		{
 3220              		.loc 1 1257 0 discriminator 3
 3221 00e8 0133     		adds	r3, r3, #1
 3222 00ea DBB2     		uxtb	r3, r3
 3223 00ec 0293     		str	r3, [sp, #8]
 3224              	.LVL417:
 3225 00ee 1135     		adds	r5, r5, #17
 3226              	.LVL418:
 3227 00f0 DDE7     		b	.L138
 3228              	.L148:
1264:Code\UserApp\Protocol/CmdProtocol.c **** 		UploadStartnum = 0;
 3229              		.loc 1 1264 0
 3230 00f2 0023     		movs	r3, #0
 3231 00f4 294A     		ldr	r2, .L149+4
 3232 00f6 1380     		strh	r3, [r2]
1265:Code\UserApp\Protocol/CmdProtocol.c **** 	}
 3233              		.loc 1 1265 0
 3234 00f8 294A     		ldr	r2, .L149+8
 3235 00fa 1380     		strh	r3, [r2]
 3236 00fc 2FE0     		b	.L140
 3237              	.LVL419:
ARM GAS  C:\Users\Administrator\AppData\Local\Temp\ccexfbaX.s 			page 97


 3238              	.L137:
1269:Code\UserApp\Protocol/CmdProtocol.c **** 		*pT++ = RecBuf[22];
 3239              		.loc 1 1269 0
 3240 00fe 637D     		ldrb	r3, [r4, #21]
1272:Code\UserApp\Protocol/CmdProtocol.c **** 		*pT++ = OPENDATA_UPPAGE_LEN;							// æœ¬æ¬¡å‘é€æ•°é‡							//
 3241              		.loc 1 1272 0
 3242 0100 0E22     		movs	r2, #14
1269:Code\UserApp\Protocol/CmdProtocol.c **** 		*pT++ = RecBuf[22];
 3243              		.loc 1 1269 0
 3244 0102 AB71     		strb	r3, [r5, #6]
 3245              	.LVL420:
1270:Code\UserApp\Protocol/CmdProtocol.c **** 		
 3246              		.loc 1 1270 0
 3247 0104 A37D     		ldrb	r3, [r4, #22]
 3248 0106 1927     		movs	r7, #25
 3249 0108 EB71     		strb	r3, [r5, #7]
1272:Code\UserApp\Protocol/CmdProtocol.c **** 		*pT++ = OPENDATA_UPPAGE_LEN;							// æœ¬æ¬¡å‘é€æ•°é‡							//
 3250              		.loc 1 1272 0
 3251 010a 0523     		movs	r3, #5
1273:Code\UserApp\Protocol/CmdProtocol.c **** 		
 3252              		.loc 1 1273 0
 3253 010c 0026     		movs	r6, #0
1272:Code\UserApp\Protocol/CmdProtocol.c **** 		*pT++ = OPENDATA_UPPAGE_LEN;							// æœ¬æ¬¡å‘é€æ•°é‡							//
 3254              		.loc 1 1272 0
 3255 010e 06A9     		add	r1, sp, #24
 3256              	.LVL421:
 3257 0110 5218     		adds	r2, r2, r1
 3258 0112 1380     		strh	r3, [r2]
 3259              	.LVL422:
1273:Code\UserApp\Protocol/CmdProtocol.c **** 		
 3260              		.loc 1 1273 0
 3261 0114 2B72     		strb	r3, [r5, #8]
 3262              	.LVL423:
 3263 0116 7F18     		adds	r7, r7, r1
 3264              	.LVL424:
 3265              	.L141:
1277:Code\UserApp\Protocol/CmdProtocol.c **** 		    memcpy(pT, data_openinfo, 16);
 3266              		.loc 1 1277 0 discriminator 3
 3267 0118 214D     		ldr	r5, .L149+8
 3268 011a B3B2     		uxth	r3, r6
 3269 011c 2888     		ldrh	r0, [r5]
 3270 011e 4AAA     		add	r2, sp, #296
 3271 0120 1818     		adds	r0, r3, r0
 3272 0122 80B2     		uxth	r0, r0
 3273 0124 0121     		movs	r1, #1
 3274 0126 FFF7FEFF 		bl	Get_Open_Info
 3275              	.LVL425:
1278:Code\UserApp\Protocol/CmdProtocol.c **** 		    pT += 16;
 3276              		.loc 1 1278 0 discriminator 3
 3277 012a 1022     		movs	r2, #16
 3278 012c 4AA9     		add	r1, sp, #296
 3279 012e 3800     		movs	r0, r7
 3280 0130 FFF7FEFF 		bl	memcpy
 3281              	.LVL426:
1280:Code\UserApp\Protocol/CmdProtocol.c **** 		}
 3282              		.loc 1 1280 0 discriminator 3
 3283 0134 2888     		ldrh	r0, [r5]
ARM GAS  C:\Users\Administrator\AppData\Local\Temp\ccexfbaX.s 			page 98


 3284 0136 B3B2     		uxth	r3, r6
 3285 0138 1818     		adds	r0, r3, r0
 3286 013a 80B2     		uxth	r0, r0
 3287 013c FFF7FEFF 		bl	Read_Open_Type
 3288              	.LVL427:
 3289 0140 0136     		adds	r6, r6, #1
 3290              	.LVL428:
 3291 0142 3874     		strb	r0, [r7, #16]
 3292 0144 1137     		adds	r7, r7, #17
 3293              	.LVL429:
1275:Code\UserApp\Protocol/CmdProtocol.c **** 		{
 3294              		.loc 1 1275 0 discriminator 3
 3295 0146 052E     		cmp	r6, #5
 3296 0148 E6D1     		bne	.L141
1280:Code\UserApp\Protocol/CmdProtocol.c **** 		}
 3297              		.loc 1 1280 0
 3298 014a 6E27     		movs	r7, #110
 3299              	.LVL430:
1282:Code\UserApp\Protocol/CmdProtocol.c **** 		UploadStartnum += tUploadQty;
 3300              		.loc 1 1282 0
 3301 014c 134A     		ldr	r2, .L149+4
 3302 014e 1388     		ldrh	r3, [r2]
 3303 0150 053B     		subs	r3, r3, #5
 3304 0152 1380     		strh	r3, [r2]
1283:Code\UserApp\Protocol/CmdProtocol.c **** 	}
 3305              		.loc 1 1283 0
 3306 0154 2B88     		ldrh	r3, [r5]
 3307 0156 0533     		adds	r3, r3, #5
 3308 0158 2B80     		strh	r3, [r5]
1280:Code\UserApp\Protocol/CmdProtocol.c **** 		}
 3309              		.loc 1 1280 0
 3310 015a 06AB     		add	r3, sp, #24
 3311              	.LVL431:
 3312 015c FF18     		adds	r7, r7, r3
 3313              	.LVL432:
 3314              	.L140:
1286:Code\UserApp\Protocol/CmdProtocol.c **** 	pT += 4;        
 3315              		.loc 1 1286 0
 3316 015e 0699     		ldr	r1, [sp, #24]
 3317 0160 0422     		movs	r2, #4
 3318 0162 0639     		subs	r1, r1, #6
 3319 0164 6118     		adds	r1, r4, r1
 3320 0166 3800     		movs	r0, r7
 3321 0168 FFF7FEFF 		bl	memcpy
 3322              	.LVL433:
1289:Code\UserApp\Protocol/CmdProtocol.c **** 	
 3323              		.loc 1 1289 0
 3324 016c 6B46     		mov	r3, sp
 3325 016e 1B7C     		ldrb	r3, [r3, #16]
1291:Code\UserApp\Protocol/CmdProtocol.c **** 	
 3326              		.loc 1 1291 0
 3327 0170 06AA     		add	r2, sp, #24
 3328              	.LVL434:
1289:Code\UserApp\Protocol/CmdProtocol.c **** 	
 3329              		.loc 1 1289 0
 3330 0172 3B71     		strb	r3, [r7, #4]
1291:Code\UserApp\Protocol/CmdProtocol.c **** 	
ARM GAS  C:\Users\Administrator\AppData\Local\Temp\ccexfbaX.s 			page 99


 3331              		.loc 1 1291 0
 3332 0174 0E23     		movs	r3, #14
 3333 0176 9B18     		adds	r3, r3, r2
 3334 0178 1A88     		ldrh	r2, [r3]
 3335              	.LVL435:
 3336 017a 1123     		movs	r3, #17
 3337 017c 5343     		muls	r3, r2
 3338 017e 0E33     		adds	r3, r3, #14
 3339 0180 9BB2     		uxth	r3, r3
 3340 0182 0093     		str	r3, [sp]
 3341 0184 079A     		ldr	r2, [sp, #28]
 3342 0186 0AAB     		add	r3, sp, #40
 3343 0188 0121     		movs	r1, #1
 3344 018a 0598     		ldr	r0, [sp, #20]
 3345 018c FFF7FEFF 		bl	Protocol_SendAckPacket
 3346              	.LVL436:
1298:Code\UserApp\Protocol/CmdProtocol.c **** 
 3347              		.loc 1 1298 0
 3348 0190 8B23     		movs	r3, #139
 3349 0192 9B00     		lsls	r3, r3, #2
 3350 0194 9D44     		add	sp, sp, r3
 3351              		@ sp needed
 3352              	.LVL437:
 3353              	.LVL438:
 3354 0196 F0BD     		pop	{r4, r5, r6, r7, pc}
 3355              	.L150:
 3356              		.align	2
 3357              	.L149:
 3358 0198 D4FDFFFF 		.word	-556
 3359 019c 00000000 		.word	UploadQty
 3360 01a0 00000000 		.word	UploadStartnum
 3361              		.cfi_endproc
 3362              	.LFE84:
 3363              		.size	Protocol_CmdReadInfo, .-Protocol_CmdReadInfo
 3364              		.section	.text.Protocol_CmdRemoteUpdate,"ax",%progbits
 3365              		.align	1
 3366              		.code	16
 3367              		.thumb_func
 3368              		.type	Protocol_CmdRemoteUpdate, %function
 3369              	Protocol_CmdRemoteUpdate:
 3370              	.LFB85:
1309:Code\UserApp\Protocol/CmdProtocol.c **** 	uint8 RetCode = RT_SUCC;
 3371              		.loc 1 1309 0
 3372              		.cfi_startproc
 3373              		@ args = 0, pretend = 0, frame = 72
 3374              		@ frame_needed = 0, uses_anonymous_args = 0
 3375              	.LVL439:
 3376 0000 F0B5     		push	{r4, r5, r6, r7, lr}
 3377              		.cfi_def_cfa_offset 20
 3378              		.cfi_offset 4, -20
 3379              		.cfi_offset 5, -16
 3380              		.cfi_offset 6, -12
 3381              		.cfi_offset 7, -8
 3382              		.cfi_offset 14, -4
 3383 0002 0500     		movs	r5, r0
 3384 0004 95B0     		sub	sp, sp, #84
 3385              		.cfi_def_cfa_offset 104
ARM GAS  C:\Users\Administrator\AppData\Local\Temp\ccexfbaX.s 			page 100


 3386              	.LVL440:
1313:Code\UserApp\Protocol/CmdProtocol.c **** 	uint8 port_str[4];
 3387              		.loc 1 1313 0
 3388 0006 0379     		ldrb	r3, [r0, #4]
1317:Code\UserApp\Protocol/CmdProtocol.c **** 	pT += 6;
 3389              		.loc 1 1317 0
 3390 0008 04AE     		add	r6, sp, #16
 3391              	.LVL441:
 3392 000a C11D     		adds	r1, r0, #7
 3393 000c 0622     		movs	r2, #6
 3394 000e 3000     		movs	r0, r6
 3395              	.LVL442:
1313:Code\UserApp\Protocol/CmdProtocol.c **** 	uint8 port_str[4];
 3396              		.loc 1 1313 0
 3397 0010 0393     		str	r3, [sp, #12]
 3398              	.LVL443:
1317:Code\UserApp\Protocol/CmdProtocol.c **** 	pT += 6;
 3399              		.loc 1 1317 0
 3400 0012 FFF7FEFF 		bl	memcpy
 3401              	.LVL444:
1320:Code\UserApp\Protocol/CmdProtocol.c **** 	memcpy((char *)update_ip, (char *)domain, strlen((char *)domain));
 3402              		.loc 1 1320 0
 3403 0016 2900     		movs	r1, r5
 3404 0018 334C     		ldr	r4, .L156
 3405 001a 0D31     		adds	r1, r1, #13
 3406 001c C822     		movs	r2, #200
 3407 001e 2000     		movs	r0, r4
 3408 0020 FFF7FEFF 		bl	memcpy
 3409              	.LVL445:
1321:Code\UserApp\Protocol/CmdProtocol.c **** 	
 3410              		.loc 1 1321 0
 3411 0024 2000     		movs	r0, r4
 3412 0026 FFF7FEFF 		bl	strlen
 3413              	.LVL446:
 3414 002a 2100     		movs	r1, r4
 3415 002c 0200     		movs	r2, r0
 3416 002e 2F48     		ldr	r0, .L156+4
 3417 0030 FFF7FEFF 		bl	memcpy
 3418              	.LVL447:
1323:Code\UserApp\Protocol/CmdProtocol.c **** 	port_str[0]= port_hex/1000 + '0';
 3419              		.loc 1 1323 0
 3420 0034 2B00     		movs	r3, r5
1328:Code\UserApp\Protocol/CmdProtocol.c **** 	
 3421              		.loc 1 1328 0
 3422 0036 FA21     		movs	r1, #250
1323:Code\UserApp\Protocol/CmdProtocol.c **** 	port_str[0]= port_hex/1000 + '0';
 3423              		.loc 1 1323 0
 3424 0038 D533     		adds	r3, r3, #213
 3425 003a 1C78     		ldrb	r4, [r3]
 3426 003c 0133     		adds	r3, r3, #1
 3427 003e 1B78     		ldrb	r3, [r3]
 3428 0040 2402     		lsls	r4, r4, #8
 3429 0042 1C19     		adds	r4, r3, r4
 3430 0044 A4B2     		uxth	r4, r4
 3431              	.LVL448:
1328:Code\UserApp\Protocol/CmdProtocol.c **** 	
 3432              		.loc 1 1328 0
ARM GAS  C:\Users\Administrator\AppData\Local\Temp\ccexfbaX.s 			page 101


 3433 0046 8900     		lsls	r1, r1, #2
 3434 0048 2000     		movs	r0, r4
 3435 004a FFF7FEFF 		bl	__aeabi_uidiv
 3436              	.LVL449:
 3437 004e FA21     		movs	r1, #250
 3438 0050 274F     		ldr	r7, .L156+8
 3439 0052 3030     		adds	r0, r0, #48
 3440 0054 3870     		strb	r0, [r7]
 3441 0056 8900     		lsls	r1, r1, #2
 3442 0058 2000     		movs	r0, r4
 3443 005a FFF7FEFF 		bl	__aeabi_uidivmod
 3444              	.LVL450:
 3445 005e 88B2     		uxth	r0, r1
 3446 0060 6421     		movs	r1, #100
 3447 0062 FFF7FEFF 		bl	__aeabi_uidiv
 3448              	.LVL451:
 3449 0066 3030     		adds	r0, r0, #48
 3450 0068 7870     		strb	r0, [r7, #1]
 3451 006a 6421     		movs	r1, #100
 3452 006c 2000     		movs	r0, r4
 3453 006e FFF7FEFF 		bl	__aeabi_uidivmod
 3454              	.LVL452:
 3455 0072 88B2     		uxth	r0, r1
 3456 0074 0A21     		movs	r1, #10
 3457 0076 FFF7FEFF 		bl	__aeabi_uidiv
 3458              	.LVL453:
 3459 007a 3030     		adds	r0, r0, #48
 3460 007c B870     		strb	r0, [r7, #2]
 3461 007e 0A21     		movs	r1, #10
 3462 0080 2000     		movs	r0, r4
 3463 0082 FFF7FEFF 		bl	__aeabi_uidivmod
 3464              	.LVL454:
1330:Code\UserApp\Protocol/CmdProtocol.c **** 	*pT++ = RecBuf[216];
 3465              		.loc 1 1330 0
 3466 0086 2B00     		movs	r3, r5
1328:Code\UserApp\Protocol/CmdProtocol.c **** 	
 3467              		.loc 1 1328 0
 3468 0088 3031     		adds	r1, r1, #48
 3469 008a F970     		strb	r1, [r7, #3]
 3470              	.LVL455:
1334:Code\UserApp\Protocol/CmdProtocol.c **** 	pT += 4;
 3471              		.loc 1 1334 0
 3472 008c 2900     		movs	r1, r5
1330:Code\UserApp\Protocol/CmdProtocol.c **** 	*pT++ = RecBuf[216];
 3473              		.loc 1 1330 0
 3474 008e D733     		adds	r3, r3, #215
 3475 0090 1C78     		ldrb	r4, [r3]
 3476              	.LVL456:
1331:Code\UserApp\Protocol/CmdProtocol.c **** 	update_version = (RecBuf[215] << 8) + RecBuf[216];
 3477              		.loc 1 1331 0
 3478 0092 0133     		adds	r3, r3, #1
 3479 0094 1B78     		ldrb	r3, [r3]
1330:Code\UserApp\Protocol/CmdProtocol.c **** 	*pT++ = RecBuf[216];
 3480              		.loc 1 1330 0
 3481 0096 B471     		strb	r4, [r6, #6]
 3482              	.LVL457:
1332:Code\UserApp\Protocol/CmdProtocol.c **** 	
ARM GAS  C:\Users\Administrator\AppData\Local\Temp\ccexfbaX.s 			page 102


 3483              		.loc 1 1332 0
 3484 0098 2402     		lsls	r4, r4, #8
1331:Code\UserApp\Protocol/CmdProtocol.c **** 	update_version = (RecBuf[215] << 8) + RecBuf[216];
 3485              		.loc 1 1331 0
 3486 009a F371     		strb	r3, [r6, #7]
1332:Code\UserApp\Protocol/CmdProtocol.c **** 	
 3487              		.loc 1 1332 0
 3488 009c E318     		adds	r3, r4, r3
 3489 009e 9CB2     		uxth	r4, r3
 3490 00a0 144B     		ldr	r3, .L156+12
1334:Code\UserApp\Protocol/CmdProtocol.c **** 	pT += 4;
 3491              		.loc 1 1334 0
 3492 00a2 DB31     		adds	r1, r1, #219
 3493 00a4 0422     		movs	r2, #4
 3494 00a6 06A8     		add	r0, sp, #24
 3495              	.LVL458:
1332:Code\UserApp\Protocol/CmdProtocol.c **** 	
 3496              		.loc 1 1332 0
 3497 00a8 1C80     		strh	r4, [r3]
1334:Code\UserApp\Protocol/CmdProtocol.c **** 	pT += 4;
 3498              		.loc 1 1334 0
 3499 00aa FFF7FEFF 		bl	memcpy
 3500              	.LVL459:
1337:Code\UserApp\Protocol/CmdProtocol.c **** 	{
 3501              		.loc 1 1337 0
 3502 00ae 124B     		ldr	r3, .L156+16
1339:Code\UserApp\Protocol/CmdProtocol.c **** 	}
 3503              		.loc 1 1339 0
 3504 00b0 0427     		movs	r7, #4
1337:Code\UserApp\Protocol/CmdProtocol.c **** 	{
 3505              		.loc 1 1337 0
 3506 00b2 1B78     		ldrb	r3, [r3]
 3507 00b4 A342     		cmp	r3, r4
 3508 00b6 0BD2     		bcs	.L152
1343:Code\UserApp\Protocol/CmdProtocol.c **** 		{
 3509              		.loc 1 1343 0
 3510 00b8 0C4B     		ldr	r3, .L156+4
1345:Code\UserApp\Protocol/CmdProtocol.c **** 		}
 3511              		.loc 1 1345 0
 3512 00ba 0737     		adds	r7, r7, #7
1343:Code\UserApp\Protocol/CmdProtocol.c **** 		{
 3513              		.loc 1 1343 0
 3514 00bc 1B78     		ldrb	r3, [r3]
 3515 00be 002B     		cmp	r3, #0
 3516 00c0 06D0     		beq	.L152
1350:Code\UserApp\Protocol/CmdProtocol.c **** 			Write_UpdateInfo(update_flag,update_version);
 3517              		.loc 1 1350 0
 3518 00c2 0A3F     		subs	r7, r7, #10
 3519 00c4 0D4B     		ldr	r3, .L156+20
1351:Code\UserApp\Protocol/CmdProtocol.c **** 			RetCode = RT_SUCC;
 3520              		.loc 1 1351 0
 3521 00c6 2100     		movs	r1, r4
 3522 00c8 3800     		movs	r0, r7
1350:Code\UserApp\Protocol/CmdProtocol.c **** 			Write_UpdateInfo(update_flag,update_version);
 3523              		.loc 1 1350 0
 3524 00ca 1F70     		strb	r7, [r3]
1351:Code\UserApp\Protocol/CmdProtocol.c **** 			RetCode = RT_SUCC;
ARM GAS  C:\Users\Administrator\AppData\Local\Temp\ccexfbaX.s 			page 103


 3525              		.loc 1 1351 0
 3526 00cc FFF7FEFF 		bl	Write_UpdateInfo
 3527              	.LVL460:
 3528              	.L152:
1357:Code\UserApp\Protocol/CmdProtocol.c **** 	
 3529              		.loc 1 1357 0
 3530 00d0 0D23     		movs	r3, #13
1356:Code\UserApp\Protocol/CmdProtocol.c **** 	Protocol_SendAckPacket(comm_chanle, PACK_RESP, RecBuf[6], DataBuf, 13);
 3531              		.loc 1 1356 0
 3532 00d2 3773     		strb	r7, [r6, #12]
1357:Code\UserApp\Protocol/CmdProtocol.c **** 	
 3533              		.loc 1 1357 0
 3534 00d4 AA79     		ldrb	r2, [r5, #6]
 3535 00d6 0093     		str	r3, [sp]
 3536 00d8 0121     		movs	r1, #1
 3537 00da 3300     		movs	r3, r6
 3538 00dc 0398     		ldr	r0, [sp, #12]
 3539 00de FFF7FEFF 		bl	Protocol_SendAckPacket
 3540              	.LVL461:
1365:Code\UserApp\Protocol/CmdProtocol.c **** 
 3541              		.loc 1 1365 0
 3542 00e2 15B0     		add	sp, sp, #84
 3543              		@ sp needed
 3544              	.LVL462:
 3545              	.LVL463:
 3546 00e4 F0BD     		pop	{r4, r5, r6, r7, pc}
 3547              	.L157:
 3548 00e6 C046     		.align	2
 3549              	.L156:
 3550 00e8 00000000 		.word	domain
 3551 00ec 00000000 		.word	update_ip
 3552 00f0 00000000 		.word	update_port
 3553 00f4 00000000 		.word	update_version
 3554 00f8 00000000 		.word	system_version
 3555 00fc 00000000 		.word	update_flag
 3556              		.cfi_endproc
 3557              	.LFE85:
 3558              		.size	Protocol_CmdRemoteUpdate, .-Protocol_CmdRemoteUpdate
 3559              		.section	.text.Protocol_CmdRemoteRestart,"ax",%progbits
 3560              		.align	1
 3561              		.code	16
 3562              		.thumb_func
 3563              		.type	Protocol_CmdRemoteRestart, %function
 3564              	Protocol_CmdRemoteRestart:
 3565              	.LFB86:
1376:Code\UserApp\Protocol/CmdProtocol.c ****     uint8 RetCode = RT_SUCC;
 3566              		.loc 1 1376 0
 3567              		.cfi_startproc
 3568              		@ args = 0, pretend = 0, frame = 64
 3569              		@ frame_needed = 0, uses_anonymous_args = 0
 3570              	.LVL464:
 3571 0000 F0B5     		push	{r4, r5, r6, r7, lr}
 3572              		.cfi_def_cfa_offset 20
 3573              		.cfi_offset 4, -20
 3574              		.cfi_offset 5, -16
 3575              		.cfi_offset 6, -12
 3576              		.cfi_offset 7, -8
ARM GAS  C:\Users\Administrator\AppData\Local\Temp\ccexfbaX.s 			page 104


 3577              		.cfi_offset 14, -4
 3578 0002 0500     		movs	r5, r0
 3579 0004 93B0     		sub	sp, sp, #76
 3580              		.cfi_def_cfa_offset 96
 3581              	.LVL465:
1383:Code\UserApp\Protocol/CmdProtocol.c **** 	 
 3582              		.loc 1 1383 0
 3583 0006 8478     		ldrb	r4, [r0, #2]
 3584 0008 C378     		ldrb	r3, [r0, #3]
1385:Code\UserApp\Protocol/CmdProtocol.c ****     memcpy(pT, RecBuf + 7, 6);									// å–å‡ºMACåœ°å€ï¼Œç†è®ºåº”åŠ ä¸ŠMACæ ¡éªŒ		//
 3585              		.loc 1 1385 0
 3586 000a 02AE     		add	r6, sp, #8
 3587              	.LVL466:
1383:Code\UserApp\Protocol/CmdProtocol.c **** 	 
 3588              		.loc 1 1383 0
 3589 000c 0433     		adds	r3, r3, #4
1380:Code\UserApp\Protocol/CmdProtocol.c ****     uint16 nCmdPackLen;
 3590              		.loc 1 1380 0
 3591 000e 0779     		ldrb	r7, [r0, #4]
 3592              	.LVL467:
1385:Code\UserApp\Protocol/CmdProtocol.c ****     memcpy(pT, RecBuf + 7, 6);									// å–å‡ºMACåœ°å€ï¼Œç†è®ºåº”åŠ ä¸ŠMACæ ¡éªŒ		//
 3593              		.loc 1 1385 0
 3594 0010 4022     		movs	r2, #64
 3595 0012 0021     		movs	r1, #0
 3596 0014 3000     		movs	r0, r6
 3597              	.LVL468:
1383:Code\UserApp\Protocol/CmdProtocol.c **** 	 
 3598              		.loc 1 1383 0
 3599 0016 2402     		lsls	r4, r4, #8
 3600 0018 E418     		adds	r4, r4, r3
1385:Code\UserApp\Protocol/CmdProtocol.c ****     memcpy(pT, RecBuf + 7, 6);									// å–å‡ºMACåœ°å€ï¼Œç†è®ºåº”åŠ ä¸ŠMACæ ¡éªŒ		//
 3601              		.loc 1 1385 0
 3602 001a FFF7FEFF 		bl	memset
 3603              	.LVL469:
1386:Code\UserApp\Protocol/CmdProtocol.c ****     pT += 6; 
 3604              		.loc 1 1386 0
 3605 001e E91D     		adds	r1, r5, #7
 3606 0020 0622     		movs	r2, #6
 3607 0022 3000     		movs	r0, r6
 3608 0024 FFF7FEFF 		bl	memcpy
 3609              	.LVL470:
1389:Code\UserApp\Protocol/CmdProtocol.c ****     pT += 4; 
 3610              		.loc 1 1389 0
 3611 0028 0E20     		movs	r0, #14
1383:Code\UserApp\Protocol/CmdProtocol.c **** 	 
 3612              		.loc 1 1383 0
 3613 002a A4B2     		uxth	r4, r4
 3614              	.LVL471:
1389:Code\UserApp\Protocol/CmdProtocol.c ****     pT += 4; 
 3615              		.loc 1 1389 0
 3616 002c A11F     		subs	r1, r4, #6
 3617 002e 6918     		adds	r1, r5, r1
 3618 0030 0422     		movs	r2, #4
 3619 0032 6844     		add	r0, r0, sp
 3620 0034 FFF7FEFF 		bl	memcpy
 3621              	.LVL472:
1392:Code\UserApp\Protocol/CmdProtocol.c ****  
ARM GAS  C:\Users\Administrator\AppData\Local\Temp\ccexfbaX.s 			page 105


 3622              		.loc 1 1392 0
 3623 0038 0121     		movs	r1, #1
1395:Code\UserApp\Protocol/CmdProtocol.c **** 	//===ã€ç»“æŸã€‘=== è®¾å¤‡å±‚çš„å¤„ç† ==========================================================
 3624              		.loc 1 1395 0
 3625 003a 064B     		ldr	r3, .L159
1392:Code\UserApp\Protocol/CmdProtocol.c ****  
 3626              		.loc 1 1392 0
 3627 003c B172     		strb	r1, [r6, #10]
1395:Code\UserApp\Protocol/CmdProtocol.c **** 	//===ã€ç»“æŸã€‘=== è®¾å¤‡å±‚çš„å¤„ç† ==========================================================
 3628              		.loc 1 1395 0
 3629 003e 1970     		strb	r1, [r3]
1398:Code\UserApp\Protocol/CmdProtocol.c **** 	
 3630              		.loc 1 1398 0
 3631 0040 0B23     		movs	r3, #11
 3632 0042 AA79     		ldrb	r2, [r5, #6]
 3633 0044 0093     		str	r3, [sp]
 3634 0046 3800     		movs	r0, r7
 3635 0048 3300     		movs	r3, r6
 3636 004a FFF7FEFF 		bl	Protocol_SendAckPacket
 3637              	.LVL473:
1401:Code\UserApp\Protocol/CmdProtocol.c **** 
 3638              		.loc 1 1401 0
 3639 004e 13B0     		add	sp, sp, #76
 3640              		@ sp needed
 3641              	.LVL474:
 3642              	.LVL475:
 3643              	.LVL476:
 3644 0050 F0BD     		pop	{r4, r5, r6, r7, pc}
 3645              	.L160:
 3646 0052 C046     		.align	2
 3647              	.L159:
 3648 0054 00000000 		.word	flag_reboot
 3649              		.cfi_endproc
 3650              	.LFE86:
 3651              		.size	Protocol_CmdRemoteRestart, .-Protocol_CmdRemoteRestart
 3652              		.section	.text.Protocol_CmdChangeIP,"ax",%progbits
 3653              		.align	1
 3654              		.code	16
 3655              		.thumb_func
 3656              		.type	Protocol_CmdChangeIP, %function
 3657              	Protocol_CmdChangeIP:
 3658              	.LFB88:
1500:Code\UserApp\Protocol/CmdProtocol.c ****     uint8 RetCode = RT_SUCC;
 3659              		.loc 1 1500 0
 3660              		.cfi_startproc
 3661              		@ args = 0, pretend = 0, frame = 72
 3662              		@ frame_needed = 0, uses_anonymous_args = 0
 3663              	.LVL477:
 3664 0000 F0B5     		push	{r4, r5, r6, r7, lr}
 3665              		.cfi_def_cfa_offset 20
 3666              		.cfi_offset 4, -20
 3667              		.cfi_offset 5, -16
 3668              		.cfi_offset 6, -12
 3669              		.cfi_offset 7, -8
 3670              		.cfi_offset 14, -4
 3671 0002 0500     		movs	r5, r0
1504:Code\UserApp\Protocol/CmdProtocol.c ****     uint16 nCmdPackLen;
ARM GAS  C:\Users\Administrator\AppData\Local\Temp\ccexfbaX.s 			page 106


 3672              		.loc 1 1504 0
 3673 0004 0379     		ldrb	r3, [r0, #4]
1500:Code\UserApp\Protocol/CmdProtocol.c ****     uint8 RetCode = RT_SUCC;
 3674              		.loc 1 1500 0
 3675 0006 95B0     		sub	sp, sp, #84
 3676              		.cfi_def_cfa_offset 104
 3677              	.LVL478:
1508:Code\UserApp\Protocol/CmdProtocol.c **** 	 
 3678              		.loc 1 1508 0
 3679 0008 8178     		ldrb	r1, [r0, #2]
1504:Code\UserApp\Protocol/CmdProtocol.c ****     uint16 nCmdPackLen;
 3680              		.loc 1 1504 0
 3681 000a 0293     		str	r3, [sp, #8]
 3682              	.LVL479:
1508:Code\UserApp\Protocol/CmdProtocol.c **** 	 
 3683              		.loc 1 1508 0
 3684 000c C378     		ldrb	r3, [r0, #3]
 3685 000e 0902     		lsls	r1, r1, #8
 3686 0010 0433     		adds	r3, r3, #4
1510:Code\UserApp\Protocol/CmdProtocol.c ****     memcpy(pT, RecBuf + 7, 6);									// å–å‡ºMACåœ°å€ï¼Œç†è®ºåº”åŠ ä¸ŠMACæ ¡éªŒ		//
 3687              		.loc 1 1510 0
 3688 0012 04AE     		add	r6, sp, #16
 3689              	.LVL480:
1508:Code\UserApp\Protocol/CmdProtocol.c **** 	 
 3690              		.loc 1 1508 0
 3691 0014 C918     		adds	r1, r1, r3
 3692 0016 8BB2     		uxth	r3, r1
1510:Code\UserApp\Protocol/CmdProtocol.c ****     memcpy(pT, RecBuf + 7, 6);									// å–å‡ºMACåœ°å€ï¼Œç†è®ºåº”åŠ ä¸ŠMACæ ¡éªŒ		//
 3693              		.loc 1 1510 0
 3694 0018 4022     		movs	r2, #64
 3695 001a 0021     		movs	r1, #0
 3696 001c 3000     		movs	r0, r6
 3697              	.LVL481:
1508:Code\UserApp\Protocol/CmdProtocol.c **** 	 
 3698              		.loc 1 1508 0
 3699 001e 0393     		str	r3, [sp, #12]
 3700              	.LVL482:
1510:Code\UserApp\Protocol/CmdProtocol.c ****     memcpy(pT, RecBuf + 7, 6);									// å–å‡ºMACåœ°å€ï¼Œç†è®ºåº”åŠ ä¸ŠMACæ ¡éªŒ		//
 3701              		.loc 1 1510 0
 3702 0020 FFF7FEFF 		bl	memset
 3703              	.LVL483:
1511:Code\UserApp\Protocol/CmdProtocol.c ****     pT += 6; 
 3704              		.loc 1 1511 0
 3705 0024 E91D     		adds	r1, r5, #7
 3706 0026 0622     		movs	r2, #6
 3707 0028 3000     		movs	r0, r6
 3708 002a FFF7FEFF 		bl	memcpy
 3709              	.LVL484:
1514:Code\UserApp\Protocol/CmdProtocol.c **** 	IpNum = RecBuf[13];
 3710              		.loc 1 1514 0
 3711 002e 6C7B     		ldrb	r4, [r5, #13]
1501:Code\UserApp\Protocol/CmdProtocol.c ****     uint8 DataBuf[64];
 3712              		.loc 1 1501 0
 3713 0030 0127     		movs	r7, #1
1517:Code\UserApp\Protocol/CmdProtocol.c **** 	{
 3714              		.loc 1 1517 0
 3715 0032 631E     		subs	r3, r4, #1
ARM GAS  C:\Users\Administrator\AppData\Local\Temp\ccexfbaX.s 			page 107


1514:Code\UserApp\Protocol/CmdProtocol.c **** 	IpNum = RecBuf[13];
 3716              		.loc 1 1514 0
 3717 0034 B471     		strb	r4, [r6, #6]
 3718              	.LVL485:
1517:Code\UserApp\Protocol/CmdProtocol.c **** 	{
 3719              		.loc 1 1517 0
 3720 0036 042B     		cmp	r3, #4
 3721 0038 00D9     		bls	.L162
1519:Code\UserApp\Protocol/CmdProtocol.c **** 	}
 3722              		.loc 1 1519 0
 3723 003a 1037     		adds	r7, r7, #16
 3724              	.L162:
 3725              	.LVL486:
1522:Code\UserApp\Protocol/CmdProtocol.c ****     pT += 4; 
 3726              		.loc 1 1522 0
 3727 003c 0F20     		movs	r0, #15
 3728 003e 0399     		ldr	r1, [sp, #12]
 3729 0040 02AB     		add	r3, sp, #8
 3730              	.LVL487:
 3731 0042 0639     		subs	r1, r1, #6
 3732 0044 6918     		adds	r1, r5, r1
 3733 0046 0422     		movs	r2, #4
 3734 0048 C018     		adds	r0, r0, r3
 3735 004a FFF7FEFF 		bl	memcpy
 3736              	.LVL488:
1527:Code\UserApp\Protocol/CmdProtocol.c **** 	
 3737              		.loc 1 1527 0
 3738 004e 0C23     		movs	r3, #12
1525:Code\UserApp\Protocol/CmdProtocol.c **** 	
 3739              		.loc 1 1525 0
 3740 0050 F772     		strb	r7, [r6, #11]
1527:Code\UserApp\Protocol/CmdProtocol.c **** 	
 3741              		.loc 1 1527 0
 3742 0052 AA79     		ldrb	r2, [r5, #6]
 3743 0054 0093     		str	r3, [sp]
 3744 0056 0121     		movs	r1, #1
 3745 0058 3300     		movs	r3, r6
 3746 005a 0298     		ldr	r0, [sp, #8]
 3747 005c FFF7FEFF 		bl	Protocol_SendAckPacket
 3748              	.LVL489:
1530:Code\UserApp\Protocol/CmdProtocol.c **** 	{
 3749              		.loc 1 1530 0
 3750 0060 012C     		cmp	r4, #1
 3751 0062 03D1     		bne	.L163
1532:Code\UserApp\Protocol/CmdProtocol.c **** 		VoicePlay(Sound_ShortDI);
 3752              		.loc 1 1532 0
 3753 0064 2000     		movs	r0, r4
 3754 0066 FFF7FEFF 		bl	Write_CenterIpType
 3755              	.LVL490:
 3756 006a 1BE0     		b	.L169
 3757              	.L163:
1535:Code\UserApp\Protocol/CmdProtocol.c **** 	{
 3758              		.loc 1 1535 0
 3759 006c 022C     		cmp	r4, #2
 3760 006e 08D0     		beq	.L172
1541:Code\UserApp\Protocol/CmdProtocol.c **** 	{
 3761              		.loc 1 1541 0
ARM GAS  C:\Users\Administrator\AppData\Local\Temp\ccexfbaX.s 			page 108


 3762 0070 032C     		cmp	r4, #3
 3763 0072 08D1     		bne	.L166
1543:Code\UserApp\Protocol/CmdProtocol.c **** 		BeepPlay_Delay(300);
 3764              		.loc 1 1543 0
 3765 0074 0F20     		movs	r0, #15
 3766 0076 FFF7FEFF 		bl	VoicePlay
 3767              	.LVL491:
1544:Code\UserApp\Protocol/CmdProtocol.c **** 		VoicePlay(Sound_ShortDI);
 3768              		.loc 1 1544 0
 3769 007a 9620     		movs	r0, #150
 3770 007c 4000     		lsls	r0, r0, #1
 3771 007e FFF7FEFF 		bl	BeepPlay_Delay
 3772              	.LVL492:
 3773              	.L172:
1545:Code\UserApp\Protocol/CmdProtocol.c **** 		BeepPlay_Delay(300);
 3774              		.loc 1 1545 0
 3775 0082 0F20     		movs	r0, #15
 3776 0084 08E0     		b	.L171
 3777              	.L166:
1551:Code\UserApp\Protocol/CmdProtocol.c **** 	}
 3778              		.loc 1 1551 0
 3779 0086 1020     		movs	r0, #16
1549:Code\UserApp\Protocol/CmdProtocol.c **** 	{
 3780              		.loc 1 1549 0
 3781 0088 042C     		cmp	r4, #4
 3782 008a 0CD0     		beq	.L170
1553:Code\UserApp\Protocol/CmdProtocol.c **** 	{
 3783              		.loc 1 1553 0
 3784 008c 052C     		cmp	r4, #5
 3785 008e 0CD1     		bne	.L164
1555:Code\UserApp\Protocol/CmdProtocol.c **** 		VoicePlay(Sound_LongDI);
 3786              		.loc 1 1555 0
 3787 0090 2000     		movs	r0, r4
 3788 0092 FFF7FEFF 		bl	Write_CenterIpType
 3789              	.LVL493:
1556:Code\UserApp\Protocol/CmdProtocol.c **** 		BeepPlay_Delay(300);
 3790              		.loc 1 1556 0
 3791 0096 1020     		movs	r0, #16
 3792              	.L171:
 3793 0098 FFF7FEFF 		bl	VoicePlay
 3794              	.LVL494:
1557:Code\UserApp\Protocol/CmdProtocol.c **** 		VoicePlay(Sound_ShortDI);
 3795              		.loc 1 1557 0
 3796 009c 9620     		movs	r0, #150
 3797 009e 4000     		lsls	r0, r0, #1
 3798 00a0 FFF7FEFF 		bl	BeepPlay_Delay
 3799              	.LVL495:
 3800              	.L169:
1558:Code\UserApp\Protocol/CmdProtocol.c **** 	}
 3801              		.loc 1 1558 0
 3802 00a4 0F20     		movs	r0, #15
 3803              	.L170:
 3804 00a6 FFF7FEFF 		bl	VoicePlay
 3805              	.LVL496:
 3806              	.L164:
1561:Code\UserApp\Protocol/CmdProtocol.c **** 	//===ã€ç»“æŸã€‘=== è®¾å¤‡å±‚çš„å¤„ç† ==========================================================
 3807              		.loc 1 1561 0
ARM GAS  C:\Users\Administrator\AppData\Local\Temp\ccexfbaX.s 			page 109


 3808 00aa 0122     		movs	r2, #1
 3809 00ac 014B     		ldr	r3, .L173
 3810 00ae 1A70     		strb	r2, [r3]
1565:Code\UserApp\Protocol/CmdProtocol.c **** 
 3811              		.loc 1 1565 0
 3812 00b0 15B0     		add	sp, sp, #84
 3813              		@ sp needed
 3814              	.LVL497:
 3815              	.LVL498:
 3816 00b2 F0BD     		pop	{r4, r5, r6, r7, pc}
 3817              	.L174:
 3818              		.align	2
 3819              	.L173:
 3820 00b4 00000000 		.word	flag_reboot
 3821              		.cfi_endproc
 3822              	.LFE88:
 3823              		.size	Protocol_CmdChangeIP, .-Protocol_CmdChangeIP
 3824              		.section	.text.Protocol_CmdParse,"ax",%progbits
 3825              		.align	1
 3826              		.global	Protocol_CmdParse
 3827              		.code	16
 3828              		.thumb_func
 3829              		.type	Protocol_CmdParse, %function
 3830              	Protocol_CmdParse:
 3831              	.LFB91:
1624:Code\UserApp\Protocol/CmdProtocol.c **** 
1625:Code\UserApp\Protocol/CmdProtocol.c **** //*************************************************************************************************
1626:Code\UserApp\Protocol/CmdProtocol.c **** // Function name	: Protocol_ClrOpenData_Qty
1627:Code\UserApp\Protocol/CmdProtocol.c **** // Description		: å‡ºå‚å‰ è“ç‰™æ¸…é™¤å¼€é—¨è®°å½• å’Œ æ•°é‡å†…å®¹
1628:Code\UserApp\Protocol/CmdProtocol.c **** // Parameter		: uint8* RecBuf	å‘½ä»¤åŒ…æŒ‡é’ˆ
1629:Code\UserApp\Protocol/CmdProtocol.c **** // Return			: none
1630:Code\UserApp\Protocol/CmdProtocol.c **** //-------------------------------------------------------------------------------------------------
1631:Code\UserApp\Protocol/CmdProtocol.c **** // Info				: 0xF2å‘½ä»¤ï¼Œæ‰‹æœºå‘é€
1632:Code\UserApp\Protocol/CmdProtocol.c **** //*************************************************************************************************
1633:Code\UserApp\Protocol/CmdProtocol.c **** static void Protocol_ClrOpenData_Qty(uint8* RecBuf)
1634:Code\UserApp\Protocol/CmdProtocol.c **** {
1635:Code\UserApp\Protocol/CmdProtocol.c **** 	uint8 dev_mac[6] = {0};
1636:Code\UserApp\Protocol/CmdProtocol.c **** 	uint8 RetCode = RT_SUCC;
1637:Code\UserApp\Protocol/CmdProtocol.c ****     uint8 DataBuf[64];
1638:Code\UserApp\Protocol/CmdProtocol.c **** 	uint8 *pT = DataBuf;
1639:Code\UserApp\Protocol/CmdProtocol.c ****     uint8 comm_chanle = RecBuf[4];                              // å–å‡ºä¿¡é“å€¼							//
1640:Code\UserApp\Protocol/CmdProtocol.c **** 	uint16 nCmdPackLen;
1641:Code\UserApp\Protocol/CmdProtocol.c **** 	
1642:Code\UserApp\Protocol/CmdProtocol.c **** 	W25QXX_Read(dev_mac, MAC_BASE, (uint16)sizeof(dev_mac));
1643:Code\UserApp\Protocol/CmdProtocol.c **** 	
1644:Code\UserApp\Protocol/CmdProtocol.c **** 	nCmdPackLen= (RecBuf[2] << 8) + RecBuf[3] + 4;
1645:Code\UserApp\Protocol/CmdProtocol.c **** 	 
1646:Code\UserApp\Protocol/CmdProtocol.c ****     memset(pT, 0, sizeof(DataBuf));
1647:Code\UserApp\Protocol/CmdProtocol.c ****     memcpy(pT, RecBuf + 7, 6);									// å–å‡ºMACåœ°å€							//
1648:Code\UserApp\Protocol/CmdProtocol.c ****     pT += 6; 
1649:Code\UserApp\Protocol/CmdProtocol.c **** 	memcpy(pT, RecBuf + nCmdPackLen - 6, 4);					// æ—¶é—´æˆ³								//
1650:Code\UserApp\Protocol/CmdProtocol.c **** 	pT += 4;
1651:Code\UserApp\Protocol/CmdProtocol.c **** 
1652:Code\UserApp\Protocol/CmdProtocol.c **** 	*pT = RetCode;
1653:Code\UserApp\Protocol/CmdProtocol.c **** 	Protocol_SendAckPacket(comm_chanle, PACK_RESP, RecBuf[6], DataBuf, 11);
1654:Code\UserApp\Protocol/CmdProtocol.c **** 	
1655:Code\UserApp\Protocol/CmdProtocol.c **** 	Clear_AllOPeninfo();
ARM GAS  C:\Users\Administrator\AppData\Local\Temp\ccexfbaX.s 			page 110


1656:Code\UserApp\Protocol/CmdProtocol.c **** 	VoicePlay((uint8)Sound_REG_SUCCESS);
1657:Code\UserApp\Protocol/CmdProtocol.c **** 		
1658:Code\UserApp\Protocol/CmdProtocol.c **** }
1659:Code\UserApp\Protocol/CmdProtocol.c **** 
1660:Code\UserApp\Protocol/CmdProtocol.c **** 
1661:Code\UserApp\Protocol/CmdProtocol.c **** //*************************************************************************************************
1662:Code\UserApp\Protocol/CmdProtocol.c **** // Function name	: Protocol_CmdParse
1663:Code\UserApp\Protocol/CmdProtocol.c **** // Description		: å¯¹æ”¶åˆ°çš„æœåŠ¡å™¨å‘½ä»¤çš„è§£æå¹¶å¤„ç†
1664:Code\UserApp\Protocol/CmdProtocol.c **** // Parameter		: none
1665:Code\UserApp\Protocol/CmdProtocol.c **** // Return			: none
1666:Code\UserApp\Protocol/CmdProtocol.c **** //-------------------------------------------------------------------------------------------------
1667:Code\UserApp\Protocol/CmdProtocol.c **** // Info				: 
1668:Code\UserApp\Protocol/CmdProtocol.c **** //*************************************************************************************************
1669:Code\UserApp\Protocol/CmdProtocol.c **** void Protocol_CmdParse(void)
1670:Code\UserApp\Protocol/CmdProtocol.c **** {
 3832              		.loc 1 1670 0
 3833              		.cfi_startproc
 3834              		@ args = 0, pretend = 0, frame = 1056
 3835              		@ frame_needed = 0, uses_anonymous_args = 0
 3836 0000 70B5     		push	{r4, r5, r6, lr}
 3837              		.cfi_def_cfa_offset 16
 3838              		.cfi_offset 4, -16
 3839              		.cfi_offset 5, -12
 3840              		.cfi_offset 6, -8
 3841              		.cfi_offset 14, -4
 3842 0002 4E4C     		ldr	r4, .L204
1671:Code\UserApp\Protocol/CmdProtocol.c **** 	uint8 	TempCmdBuf[DATABUF_SIZE];
1672:Code\UserApp\Protocol/CmdProtocol.c **** 	uint16 	CmdPacketTotalSize;
1673:Code\UserApp\Protocol/CmdProtocol.c **** 	uint16 	TempCrc;
1674:Code\UserApp\Protocol/CmdProtocol.c ****     
1675:Code\UserApp\Protocol/CmdProtocol.c **** 	if (GPRSCmdParseFlag2 == 1)
1676:Code\UserApp\Protocol/CmdProtocol.c **** 	{
1677:Code\UserApp\Protocol/CmdProtocol.c **** 		memcpy(TempCmdBuf, (uint8 *)GPRSCmd_buf2, sizeof(GPRSCmd_buf2));
 3843              		.loc 1 1677 0
 3844 0004 4E4E     		ldr	r6, .L204+4
1670:Code\UserApp\Protocol/CmdProtocol.c **** 	uint8 	TempCmdBuf[DATABUF_SIZE];
 3845              		.loc 1 1670 0
 3846 0006 A544     		add	sp, sp, r4
 3847              		.cfi_def_cfa_offset 1072
1675:Code\UserApp\Protocol/CmdProtocol.c **** 	{
 3848              		.loc 1 1675 0
 3849 0008 4E4C     		ldr	r4, .L204+8
 3850 000a 01AD     		add	r5, sp, #4
 3851 000c 2378     		ldrb	r3, [r4]
 3852 000e 012B     		cmp	r3, #1
 3853 0010 09D0     		beq	.L202
1678:Code\UserApp\Protocol/CmdProtocol.c **** 		DBG_SOFT_PutStr("\nGPRSCmdParseFlag2 chanel\n");
1679:Code\UserApp\Protocol/CmdProtocol.c **** 		DBG_SOFT_PrintfHex(GPRSCmd_buf2, 32, 16);
1680:Code\UserApp\Protocol/CmdProtocol.c **** 		memset((uint8 *)GPRSCmd_buf2, 0, sizeof(GPRSCmd_buf2));
1681:Code\UserApp\Protocol/CmdProtocol.c **** 		GPRSCmdParseFlag2 = 0;
1682:Code\UserApp\Protocol/CmdProtocol.c **** 
1683:Code\UserApp\Protocol/CmdProtocol.c **** 	}
1684:Code\UserApp\Protocol/CmdProtocol.c **** 	else if (GPRSCmdParseFlag1 == 1)
 3854              		.loc 1 1684 0
 3855 0012 4D4C     		ldr	r4, .L204+12
1685:Code\UserApp\Protocol/CmdProtocol.c **** 	{
1686:Code\UserApp\Protocol/CmdProtocol.c **** 		memcpy(TempCmdBuf, (uint8 *)GPRSCmd_buf1, sizeof(GPRSCmd_buf1));
ARM GAS  C:\Users\Administrator\AppData\Local\Temp\ccexfbaX.s 			page 111


 3856              		.loc 1 1686 0
 3857 0014 4D4E     		ldr	r6, .L204+16
1684:Code\UserApp\Protocol/CmdProtocol.c **** 	{
 3858              		.loc 1 1684 0
 3859 0016 2378     		ldrb	r3, [r4]
 3860 0018 012B     		cmp	r3, #1
 3861 001a 04D0     		beq	.L202
1687:Code\UserApp\Protocol/CmdProtocol.c **** 		DBG_SOFT_PutStr("\nGPRSCmdParseFlag1 chanel\n");
1688:Code\UserApp\Protocol/CmdProtocol.c **** 		DBG_SOFT_PrintfHex(GPRSCmd_buf1, 32, 16);
1689:Code\UserApp\Protocol/CmdProtocol.c **** 		memset((uint8 *)GPRSCmd_buf1, 0, sizeof(GPRSCmd_buf1));
1690:Code\UserApp\Protocol/CmdProtocol.c **** 		GPRSCmdParseFlag1 = 0;
1691:Code\UserApp\Protocol/CmdProtocol.c **** 
1692:Code\UserApp\Protocol/CmdProtocol.c **** 	}
1693:Code\UserApp\Protocol/CmdProtocol.c **** 	else if (BleCmdValidFlag == 1)
 3862              		.loc 1 1693 0
 3863 001c 4C4C     		ldr	r4, .L204+20
 3864 001e 2378     		ldrb	r3, [r4]
 3865 0020 012B     		cmp	r3, #1
 3866 0022 0CD1     		bne	.L177
1694:Code\UserApp\Protocol/CmdProtocol.c **** 	{
1695:Code\UserApp\Protocol/CmdProtocol.c **** 		memcpy(TempCmdBuf, BleCmdBuf, sizeof(BleCmdBuf));
 3867              		.loc 1 1695 0
 3868 0024 4B4E     		ldr	r6, .L204+24
 3869              	.L202:
 3870 0026 4C4A     		ldr	r2, .L204+28
 3871 0028 3100     		movs	r1, r6
 3872 002a 2800     		movs	r0, r5
 3873 002c FFF7FEFF 		bl	memcpy
 3874              	.LVL499:
1696:Code\UserApp\Protocol/CmdProtocol.c **** 		memset(BleCmdBuf, 0, sizeof(BleCmdBuf));
 3875              		.loc 1 1696 0
 3876 0030 494A     		ldr	r2, .L204+28
 3877 0032 0021     		movs	r1, #0
 3878 0034 3000     		movs	r0, r6
 3879 0036 FFF7FEFF 		bl	memset
 3880              	.LVL500:
1697:Code\UserApp\Protocol/CmdProtocol.c **** 		BleCmdValidFlag = 0;
 3881              		.loc 1 1697 0
 3882 003a 0023     		movs	r3, #0
 3883 003c 2370     		strb	r3, [r4]
 3884              	.L177:
 3885              	.LVL501:
1698:Code\UserApp\Protocol/CmdProtocol.c **** 	}
1699:Code\UserApp\Protocol/CmdProtocol.c **** 	
1700:Code\UserApp\Protocol/CmdProtocol.c **** 	CmdPacketTotalSize = (TempCmdBuf[2] << 8) + TempCmdBuf[3] + 4;
1701:Code\UserApp\Protocol/CmdProtocol.c **** 	DBG_SOFT_PutStr("\nProtocol_CmdParse-->Cmd:");
1702:Code\UserApp\Protocol/CmdProtocol.c **** 	DBG_SOFT_PrintfHex(TempCmdBuf + 6, 1, 16);
1703:Code\UserApp\Protocol/CmdProtocol.c **** 	//DBG_SOFT_PrintfHex(TempCmdBuf, CmdPacketTotalSize);
1704:Code\UserApp\Protocol/CmdProtocol.c **** 	DBG_SOFT_PrintfHex(TempCmdBuf, CmdPacketTotalSize+4, 16);
1705:Code\UserApp\Protocol/CmdProtocol.c **** 	DBG_SOFT_PutStr("\n");
1706:Code\UserApp\Protocol/CmdProtocol.c **** 	
1707:Code\UserApp\Protocol/CmdProtocol.c **** 	TempCrc = MyCrc16Check(TempCmdBuf, CmdPacketTotalSize - 2);
 3886              		.loc 1 1707 0
 3887 003e AC78     		ldrb	r4, [r5, #2]
 3888 0040 EB78     		ldrb	r3, [r5, #3]
 3889 0042 2402     		lsls	r4, r4, #8
 3890 0044 0433     		adds	r3, r3, #4
ARM GAS  C:\Users\Administrator\AppData\Local\Temp\ccexfbaX.s 			page 112


 3891 0046 E418     		adds	r4, r4, r3
 3892 0048 A4B2     		uxth	r4, r4
 3893 004a A61E     		subs	r6, r4, #2
 3894 004c 3100     		movs	r1, r6
 3895 004e 2800     		movs	r0, r5
 3896 0050 FFF7FEFF 		bl	MyCrc16Check
 3897              	.LVL502:
1708:Code\UserApp\Protocol/CmdProtocol.c **** 	if (((TempCmdBuf[CmdPacketTotalSize-2] << 8) + TempCmdBuf[CmdPacketTotalSize - 1]) != TempCrc)
 3898              		.loc 1 1708 0
 3899 0054 2C19     		adds	r4, r5, r4
 3900 0056 AB5D     		ldrb	r3, [r5, r6]
 3901 0058 013C     		subs	r4, r4, #1
 3902 005a 2278     		ldrb	r2, [r4]
 3903 005c 1B02     		lsls	r3, r3, #8
 3904 005e 9B18     		adds	r3, r3, r2
 3905 0060 80B2     		uxth	r0, r0
 3906 0062 8342     		cmp	r3, r0
 3907 0064 66D1     		bne	.L175
1709:Code\UserApp\Protocol/CmdProtocol.c **** 	{
1710:Code\UserApp\Protocol/CmdProtocol.c **** 		DBG_SOFT_PutStr("\nCrc Err!\n");
1711:Code\UserApp\Protocol/CmdProtocol.c **** 		return;
1712:Code\UserApp\Protocol/CmdProtocol.c **** 	}
1713:Code\UserApp\Protocol/CmdProtocol.c **** 	DBG_SOFT_PutStr("\nCrc Ok!\n");
1714:Code\UserApp\Protocol/CmdProtocol.c **** 	
1715:Code\UserApp\Protocol/CmdProtocol.c **** 	switch (TempCmdBuf[6])
 3908              		.loc 1 1715 0
 3909 0066 AB79     		ldrb	r3, [r5, #6]
 3910 0068 082B     		cmp	r3, #8
 3911 006a 48D0     		beq	.L181
 3912 006c 12D8     		bhi	.L182
 3913 006e 042B     		cmp	r3, #4
 3914 0070 39D0     		beq	.L183
 3915 0072 08D8     		bhi	.L184
 3916 0074 022B     		cmp	r3, #2
 3917 0076 24D0     		beq	.L185
 3918 0078 31D8     		bhi	.L186
 3919 007a 012B     		cmp	r3, #1
 3920 007c 5AD1     		bne	.L175
1716:Code\UserApp\Protocol/CmdProtocol.c **** 	{
1717:Code\UserApp\Protocol/CmdProtocol.c **** 		
1718:Code\UserApp\Protocol/CmdProtocol.c **** 		case CMD_GET_PRESEVER:									// 0x01å‘½ä»¤								//
1719:Code\UserApp\Protocol/CmdProtocol.c **** 			Protocol_CmdGetPreSever(TempCmdBuf);
 3921              		.loc 1 1719 0
 3922 007e 01A8     		add	r0, sp, #4
 3923              	.LVL503:
 3924 0080 FFF7FEFF 		bl	Protocol_CmdGetPreSever
 3925              	.LVL504:
1720:Code\UserApp\Protocol/CmdProtocol.c **** 			break;
 3926              		.loc 1 1720 0
 3927 0084 56E0     		b	.L175
 3928              	.LVL505:
 3929              	.L184:
1715:Code\UserApp\Protocol/CmdProtocol.c **** 	{
 3930              		.loc 1 1715 0
 3931 0086 062B     		cmp	r3, #6
 3932 0088 31D0     		beq	.L188
 3933 008a 34D8     		bhi	.L203
ARM GAS  C:\Users\Administrator\AppData\Local\Temp\ccexfbaX.s 			page 113


1721:Code\UserApp\Protocol/CmdProtocol.c **** 		case CMD_GET_MAC_AND_KEY:								// 0x02å‘½ä»¤								//
1722:Code\UserApp\Protocol/CmdProtocol.c **** 			Protocol_CmdGetMacAndKey(TempCmdBuf);
1723:Code\UserApp\Protocol/CmdProtocol.c **** 			break;
1724:Code\UserApp\Protocol/CmdProtocol.c **** 		case CMD_READ_UID:										// 0x03å‘½ä»¤								//
1725:Code\UserApp\Protocol/CmdProtocol.c **** 			Protocol_CmdReadUID(TempCmdBuf);
1726:Code\UserApp\Protocol/CmdProtocol.c **** 			break;
1727:Code\UserApp\Protocol/CmdProtocol.c **** 		case CMD_WRITE_UID:										// 0x04å‘½ä»¤								//
1728:Code\UserApp\Protocol/CmdProtocol.c **** 			Protocol_CmdWriteUID(TempCmdBuf);
1729:Code\UserApp\Protocol/CmdProtocol.c **** 			break;
1730:Code\UserApp\Protocol/CmdProtocol.c **** 		case CMD_DEL_UID:										// 0x05å‘½ä»¤								//
1731:Code\UserApp\Protocol/CmdProtocol.c **** 			Protocol_CmdDelUID(TempCmdBuf);
 3934              		.loc 1 1731 0
 3935 008c 01A8     		add	r0, sp, #4
 3936              	.LVL506:
 3937 008e FFF7FEFF 		bl	Protocol_CmdDelUID
 3938              	.LVL507:
1732:Code\UserApp\Protocol/CmdProtocol.c **** 			break;
 3939              		.loc 1 1732 0
 3940 0092 4FE0     		b	.L175
 3941              	.LVL508:
 3942              	.L182:
1715:Code\UserApp\Protocol/CmdProtocol.c **** 	{
 3943              		.loc 1 1715 0
 3944 0094 0D2B     		cmp	r3, #13
 3945 0096 3ED0     		beq	.L191
 3946 0098 08D8     		bhi	.L192
 3947 009a 0A2B     		cmp	r3, #10
 3948 009c 37D0     		beq	.L193
 3949 009e 32D3     		bcc	.L194
 3950 00a0 0C2B     		cmp	r3, #12
 3951 00a2 47D1     		bne	.L175
1733:Code\UserApp\Protocol/CmdProtocol.c **** 		case CMD_OPEN_DOOR:										// 0x06å‘½ä»¤								//
1734:Code\UserApp\Protocol/CmdProtocol.c **** 			Protocol_CmdOpenDoor(TempCmdBuf);
1735:Code\UserApp\Protocol/CmdProtocol.c **** 			break;
1736:Code\UserApp\Protocol/CmdProtocol.c **** 		case CMD_SEND_OPEN_INFO:								// 0x07å‘½ä»¤								//
1737:Code\UserApp\Protocol/CmdProtocol.c **** 			Protocol_CmdSendOpenInfo(TempCmdBuf);
1738:Code\UserApp\Protocol/CmdProtocol.c **** 			break;
1739:Code\UserApp\Protocol/CmdProtocol.c **** 		case CMD_PLUSE:											// 0x08å‘½ä»¤								//
1740:Code\UserApp\Protocol/CmdProtocol.c **** 			Protocol_CmdPluse(TempCmdBuf);
1741:Code\UserApp\Protocol/CmdProtocol.c **** 			break;
1742:Code\UserApp\Protocol/CmdProtocol.c **** 		case CMD_CLEAR_UID:										// 0x09å‘½ä»¤								//
1743:Code\UserApp\Protocol/CmdProtocol.c **** 			Protocol_CmdClearUID(TempCmdBuf);
1744:Code\UserApp\Protocol/CmdProtocol.c **** 			break;
1745:Code\UserApp\Protocol/CmdProtocol.c **** 		case CMD_TIME_CHECK:									// 0x0Aå‘½ä»¤								//
1746:Code\UserApp\Protocol/CmdProtocol.c **** 			Protocol_CmdTimeCheck(TempCmdBuf);
1747:Code\UserApp\Protocol/CmdProtocol.c **** 			break;
1748:Code\UserApp\Protocol/CmdProtocol.c ****         case CMD_SEND_WARN_INFO:								// 0x0Bå‘½ä»¤								//
1749:Code\UserApp\Protocol/CmdProtocol.c **** 			Protocol_CmdSendWarnInfo(TempCmdBuf);
1750:Code\UserApp\Protocol/CmdProtocol.c **** 			break;
1751:Code\UserApp\Protocol/CmdProtocol.c **** 		case CMD_READ_INFO:										// 0x0Cå‘½ä»¤								//
1752:Code\UserApp\Protocol/CmdProtocol.c **** 			Protocol_CmdReadInfo(TempCmdBuf);
 3952              		.loc 1 1752 0
 3953 00a4 01A8     		add	r0, sp, #4
 3954              	.LVL509:
 3955 00a6 FFF7FEFF 		bl	Protocol_CmdReadInfo
 3956              	.LVL510:
1753:Code\UserApp\Protocol/CmdProtocol.c **** 			break;
ARM GAS  C:\Users\Administrator\AppData\Local\Temp\ccexfbaX.s 			page 114


 3957              		.loc 1 1753 0
 3958 00aa 43E0     		b	.L175
 3959              	.LVL511:
 3960              	.L192:
1715:Code\UserApp\Protocol/CmdProtocol.c **** 	{
 3961              		.loc 1 1715 0
 3962 00ac 0F2B     		cmp	r3, #15
 3963 00ae 3AD0     		beq	.L196
 3964 00b0 35D3     		bcc	.L197
 3965 00b2 102B     		cmp	r3, #16
 3966 00b4 3BD0     		beq	.L198
 3967 00b6 F12B     		cmp	r3, #241
 3968 00b8 3CD1     		bne	.L175
1754:Code\UserApp\Protocol/CmdProtocol.c **** 		case CMD_REMOTE_UPDATE:									// 0x0Då‘½ä»¤								//
1755:Code\UserApp\Protocol/CmdProtocol.c **** 			Protocol_CmdRemoteUpdate(TempCmdBuf);
1756:Code\UserApp\Protocol/CmdProtocol.c **** 			break;
1757:Code\UserApp\Protocol/CmdProtocol.c **** 		case CMD_REMOTE_RESTART:								// 0x0Eå‘½ä»¤								//
1758:Code\UserApp\Protocol/CmdProtocol.c **** 			Protocol_CmdRemoteRestart(TempCmdBuf);
1759:Code\UserApp\Protocol/CmdProtocol.c **** 			break;
1760:Code\UserApp\Protocol/CmdProtocol.c **** 		case CMD_DOWNLOAD:										// 0x0Få‘½ä»¤								//
1761:Code\UserApp\Protocol/CmdProtocol.c **** 		    Protocol_CmdRemoteDownload(TempCmdBuf);
1762:Code\UserApp\Protocol/CmdProtocol.c **** 		    break;
1763:Code\UserApp\Protocol/CmdProtocol.c **** 		case CMD_CHANGE_IP:										// 0x10å‘½ä»¤								//
1764:Code\UserApp\Protocol/CmdProtocol.c **** 		    Protocol_CmdChangeIP(TempCmdBuf);
1765:Code\UserApp\Protocol/CmdProtocol.c **** 		    break;
1766:Code\UserApp\Protocol/CmdProtocol.c **** 
1767:Code\UserApp\Protocol/CmdProtocol.c **** 		case CMD_MANUFAC:										// 0xF1å‘½ä»¤								//
1768:Code\UserApp\Protocol/CmdProtocol.c **** 			Protocol_CmdManufac(TempCmdBuf);
 3969              		.loc 1 1768 0
 3970 00ba 01A8     		add	r0, sp, #4
 3971              	.LVL512:
 3972 00bc FFF7FEFF 		bl	Protocol_CmdManufac
 3973              	.LVL513:
1769:Code\UserApp\Protocol/CmdProtocol.c **** 			break;
 3974              		.loc 1 1769 0
 3975 00c0 38E0     		b	.L175
 3976              	.LVL514:
 3977              	.L185:
 3978              	.LBB8:
 3979              	.LBB9:
 699:Code\UserApp\Protocol/CmdProtocol.c **** 	gprs_state = NORMAL_COMM;
 3980              		.loc 1 699 0
 3981 00c2 0122     		movs	r2, #1
 3982 00c4 254B     		ldr	r3, .L204+32
 3983 00c6 1A70     		strb	r2, [r3]
 700:Code\UserApp\Protocol/CmdProtocol.c **** 	gprs_operation_ErrCount = 0;
 3984              		.loc 1 700 0
 3985 00c8 254B     		ldr	r3, .L204+36
 3986 00ca 0432     		adds	r2, r2, #4
 3987 00cc 1A70     		strb	r2, [r3]
 701:Code\UserApp\Protocol/CmdProtocol.c **** 	next_gprs_operation_time = cur_time;
 3988              		.loc 1 701 0
 3989 00ce 0022     		movs	r2, #0
 3990 00d0 244B     		ldr	r3, .L204+40
 3991 00d2 1A70     		strb	r2, [r3]
 702:Code\UserApp\Protocol/CmdProtocol.c **** 	//===ã€ç»“æŸã€‘=== è®¾å¤‡å±‚çš„å¤„ç† ==========================================================
 3992              		.loc 1 702 0
ARM GAS  C:\Users\Administrator\AppData\Local\Temp\ccexfbaX.s 			page 115


 3993 00d4 244B     		ldr	r3, .L204+44
 3994 00d6 1A68     		ldr	r2, [r3]
 3995 00d8 244B     		ldr	r3, .L204+48
 3996 00da 1A60     		str	r2, [r3]
 3997 00dc 2AE0     		b	.L175
 3998              	.LVL515:
 3999              	.L186:
 4000              	.LBE9:
 4001              	.LBE8:
1725:Code\UserApp\Protocol/CmdProtocol.c **** 			break;
 4002              		.loc 1 1725 0
 4003 00de 01A8     		add	r0, sp, #4
 4004              	.LVL516:
 4005 00e0 FFF7FEFF 		bl	Protocol_CmdReadUID
 4006              	.LVL517:
1726:Code\UserApp\Protocol/CmdProtocol.c **** 		case CMD_WRITE_UID:										// 0x04å‘½ä»¤								//
 4007              		.loc 1 1726 0
 4008 00e4 26E0     		b	.L175
 4009              	.LVL518:
 4010              	.L183:
1728:Code\UserApp\Protocol/CmdProtocol.c **** 			break;
 4011              		.loc 1 1728 0
 4012 00e6 01A8     		add	r0, sp, #4
 4013              	.LVL519:
 4014 00e8 FFF7FEFF 		bl	Protocol_CmdWriteUID
 4015              	.LVL520:
1729:Code\UserApp\Protocol/CmdProtocol.c **** 		case CMD_DEL_UID:										// 0x05å‘½ä»¤								//
 4016              		.loc 1 1729 0
 4017 00ec 22E0     		b	.L175
 4018              	.LVL521:
 4019              	.L188:
1734:Code\UserApp\Protocol/CmdProtocol.c **** 			break;
 4020              		.loc 1 1734 0
 4021 00ee 01A8     		add	r0, sp, #4
 4022              	.LVL522:
 4023 00f0 FFF7FEFF 		bl	Protocol_CmdOpenDoor
 4024              	.LVL523:
1735:Code\UserApp\Protocol/CmdProtocol.c **** 		case CMD_SEND_OPEN_INFO:								// 0x07å‘½ä»¤								//
 4025              		.loc 1 1735 0
 4026 00f4 1EE0     		b	.L175
 4027              	.LVL524:
 4028              	.L203:
1737:Code\UserApp\Protocol/CmdProtocol.c **** 			break;
 4029              		.loc 1 1737 0
 4030 00f6 01A8     		add	r0, sp, #4
 4031              	.LVL525:
 4032 00f8 FFF7FEFF 		bl	Protocol_CmdSendOpenInfo
 4033              	.LVL526:
1738:Code\UserApp\Protocol/CmdProtocol.c **** 		case CMD_PLUSE:											// 0x08å‘½ä»¤								//
 4034              		.loc 1 1738 0
 4035 00fc 1AE0     		b	.L175
 4036              	.LVL527:
 4037              	.L181:
1740:Code\UserApp\Protocol/CmdProtocol.c **** 			break;
 4038              		.loc 1 1740 0
 4039 00fe 01A8     		add	r0, sp, #4
 4040              	.LVL528:
ARM GAS  C:\Users\Administrator\AppData\Local\Temp\ccexfbaX.s 			page 116


 4041 0100 FFF7FEFF 		bl	Protocol_CmdPluse
 4042              	.LVL529:
1741:Code\UserApp\Protocol/CmdProtocol.c **** 		case CMD_CLEAR_UID:										// 0x09å‘½ä»¤								//
 4043              		.loc 1 1741 0
 4044 0104 16E0     		b	.L175
 4045              	.LVL530:
 4046              	.L194:
1743:Code\UserApp\Protocol/CmdProtocol.c **** 			break;
 4047              		.loc 1 1743 0
 4048 0106 01A8     		add	r0, sp, #4
 4049              	.LVL531:
 4050 0108 FFF7FEFF 		bl	Protocol_CmdClearUID
 4051              	.LVL532:
1744:Code\UserApp\Protocol/CmdProtocol.c **** 		case CMD_TIME_CHECK:									// 0x0Aå‘½ä»¤								//
 4052              		.loc 1 1744 0
 4053 010c 12E0     		b	.L175
 4054              	.LVL533:
 4055              	.L193:
1746:Code\UserApp\Protocol/CmdProtocol.c **** 			break;
 4056              		.loc 1 1746 0
 4057 010e 01A8     		add	r0, sp, #4
 4058              	.LVL534:
 4059 0110 FFF7FEFF 		bl	Protocol_CmdTimeCheck
 4060              	.LVL535:
1747:Code\UserApp\Protocol/CmdProtocol.c ****         case CMD_SEND_WARN_INFO:								// 0x0Bå‘½ä»¤								//
 4061              		.loc 1 1747 0
 4062 0114 0EE0     		b	.L175
 4063              	.LVL536:
 4064              	.L191:
1755:Code\UserApp\Protocol/CmdProtocol.c **** 			break;
 4065              		.loc 1 1755 0
 4066 0116 01A8     		add	r0, sp, #4
 4067              	.LVL537:
 4068 0118 FFF7FEFF 		bl	Protocol_CmdRemoteUpdate
 4069              	.LVL538:
1756:Code\UserApp\Protocol/CmdProtocol.c **** 		case CMD_REMOTE_RESTART:								// 0x0Eå‘½ä»¤								//
 4070              		.loc 1 1756 0
 4071 011c 0AE0     		b	.L175
 4072              	.LVL539:
 4073              	.L197:
1758:Code\UserApp\Protocol/CmdProtocol.c **** 			break;
 4074              		.loc 1 1758 0
 4075 011e 01A8     		add	r0, sp, #4
 4076              	.LVL540:
 4077 0120 FFF7FEFF 		bl	Protocol_CmdRemoteRestart
 4078              	.LVL541:
1759:Code\UserApp\Protocol/CmdProtocol.c **** 		case CMD_DOWNLOAD:										// 0x0Få‘½ä»¤								//
 4079              		.loc 1 1759 0
 4080 0124 06E0     		b	.L175
 4081              	.LVL542:
 4082              	.L196:
1761:Code\UserApp\Protocol/CmdProtocol.c **** 		    break;
 4083              		.loc 1 1761 0
 4084 0126 01A8     		add	r0, sp, #4
 4085              	.LVL543:
 4086 0128 FFF7FEFF 		bl	Protocol_CmdRemoteDownload
 4087              	.LVL544:
ARM GAS  C:\Users\Administrator\AppData\Local\Temp\ccexfbaX.s 			page 117


1762:Code\UserApp\Protocol/CmdProtocol.c **** 		case CMD_CHANGE_IP:										// 0x10å‘½ä»¤								//
 4088              		.loc 1 1762 0
 4089 012c 02E0     		b	.L175
 4090              	.LVL545:
 4091              	.L198:
1764:Code\UserApp\Protocol/CmdProtocol.c **** 		    break;
 4092              		.loc 1 1764 0
 4093 012e 01A8     		add	r0, sp, #4
 4094              	.LVL546:
 4095 0130 FFF7FEFF 		bl	Protocol_CmdChangeIP
 4096              	.LVL547:
 4097              	.L175:
1770:Code\UserApp\Protocol/CmdProtocol.c **** 			
1771:Code\UserApp\Protocol/CmdProtocol.c **** 		default:
1772:Code\UserApp\Protocol/CmdProtocol.c **** 			break;
1773:Code\UserApp\Protocol/CmdProtocol.c **** 	}
1774:Code\UserApp\Protocol/CmdProtocol.c **** 	
1775:Code\UserApp\Protocol/CmdProtocol.c **** 	DBG_PRINTF("leaving %s\n", __FUNCTION__);
1776:Code\UserApp\Protocol/CmdProtocol.c **** }
 4098              		.loc 1 1776 0
 4099 0134 8423     		movs	r3, #132
 4100 0136 DB00     		lsls	r3, r3, #3
 4101 0138 9D44     		add	sp, sp, r3
 4102              		@ sp needed
 4103 013a 70BD     		pop	{r4, r5, r6, pc}
 4104              	.L205:
 4105              		.align	2
 4106              	.L204:
 4107 013c E0FBFFFF 		.word	-1056
 4108 0140 00000000 		.word	GPRSCmd_buf2
 4109 0144 00000000 		.word	GPRSCmdParseFlag2
 4110 0148 00000000 		.word	GPRSCmdParseFlag1
 4111 014c 00000000 		.word	GPRSCmd_buf1
 4112 0150 00000000 		.word	BleCmdValidFlag
 4113 0154 00000000 		.word	BleCmdBuf
 4114 0158 1A040000 		.word	1050
 4115 015c 00000000 		.word	SendMacFlag
 4116 0160 00000000 		.word	gprs_state
 4117 0164 00000000 		.word	gprs_operation_ErrCount
 4118 0168 00000000 		.word	cur_time
 4119 016c 00000000 		.word	next_gprs_operation_time
 4120              		.cfi_endproc
 4121              	.LFE91:
 4122              		.size	Protocol_CmdParse, .-Protocol_CmdParse
 4123              		.section	.text.Protocol_CmdParse_BLE,"ax",%progbits
 4124              		.align	1
 4125              		.global	Protocol_CmdParse_BLE
 4126              		.code	16
 4127              		.thumb_func
 4128              		.type	Protocol_CmdParse_BLE, %function
 4129              	Protocol_CmdParse_BLE:
 4130              	.LFB92:
1777:Code\UserApp\Protocol/CmdProtocol.c **** 
1778:Code\UserApp\Protocol/CmdProtocol.c **** //*************************************************************************************************
1779:Code\UserApp\Protocol/CmdProtocol.c **** // Function name	: Protocol_CmdParse_BLE
1780:Code\UserApp\Protocol/CmdProtocol.c **** // Description		: å¯¹æ”¶åˆ°çš„æœåŠ¡å™¨å‘½ä»¤çš„è§£æå¹¶å¤„ç†
1781:Code\UserApp\Protocol/CmdProtocol.c **** // Parameter		: none
ARM GAS  C:\Users\Administrator\AppData\Local\Temp\ccexfbaX.s 			page 118


1782:Code\UserApp\Protocol/CmdProtocol.c **** // Return			: none
1783:Code\UserApp\Protocol/CmdProtocol.c **** //-------------------------------------------------------------------------------------------------
1784:Code\UserApp\Protocol/CmdProtocol.c **** // Info				: 
1785:Code\UserApp\Protocol/CmdProtocol.c **** //*************************************************************************************************
1786:Code\UserApp\Protocol/CmdProtocol.c **** void Protocol_CmdParse_BLE(void)
1787:Code\UserApp\Protocol/CmdProtocol.c **** {
 4131              		.loc 1 1787 0
 4132              		.cfi_startproc
 4133              		@ args = 0, pretend = 0, frame = 1128
 4134              		@ frame_needed = 0, uses_anonymous_args = 0
 4135 0000 F0B5     		push	{r4, r5, r6, r7, lr}
 4136              		.cfi_def_cfa_offset 20
 4137              		.cfi_offset 4, -20
 4138              		.cfi_offset 5, -16
 4139              		.cfi_offset 6, -12
 4140              		.cfi_offset 7, -8
 4141              		.cfi_offset 14, -4
 4142 0002 674C     		ldr	r4, .L231
 4143 0004 A544     		add	sp, sp, r4
 4144              		.cfi_def_cfa_offset 1160
1788:Code\UserApp\Protocol/CmdProtocol.c **** 	uint8 	TempCmdBuf[DATABUF_SIZE];
1789:Code\UserApp\Protocol/CmdProtocol.c **** 	uint16 	CmdPacketTotalSize;
1790:Code\UserApp\Protocol/CmdProtocol.c **** 	uint16 	TempCrc;
1791:Code\UserApp\Protocol/CmdProtocol.c ****     
1792:Code\UserApp\Protocol/CmdProtocol.c **** 	if (BleCmdValidFlag == 1)
 4145              		.loc 1 1792 0
 4146 0006 674C     		ldr	r4, .L231+4
 4147 0008 15AD     		add	r5, sp, #84
 4148 000a 2378     		ldrb	r3, [r4]
 4149 000c 012B     		cmp	r3, #1
 4150 000e 0CD1     		bne	.L207
1793:Code\UserApp\Protocol/CmdProtocol.c **** 	{
1794:Code\UserApp\Protocol/CmdProtocol.c **** 		memcpy(TempCmdBuf, BleCmdBuf, DATABUF_SIZE);
 4151              		.loc 1 1794 0
 4152 0010 654E     		ldr	r6, .L231+8
 4153 0012 664A     		ldr	r2, .L231+12
 4154 0014 3100     		movs	r1, r6
 4155 0016 2800     		movs	r0, r5
 4156 0018 FFF7FEFF 		bl	memcpy
 4157              	.LVL548:
1795:Code\UserApp\Protocol/CmdProtocol.c **** 		memset(BleCmdBuf, 0, DATABUF_SIZE);
 4158              		.loc 1 1795 0
 4159 001c 634A     		ldr	r2, .L231+12
 4160 001e 0021     		movs	r1, #0
 4161 0020 3000     		movs	r0, r6
 4162 0022 FFF7FEFF 		bl	memset
 4163              	.LVL549:
1796:Code\UserApp\Protocol/CmdProtocol.c **** 		BleCmdValidFlag = 0;
 4164              		.loc 1 1796 0
 4165 0026 0023     		movs	r3, #0
 4166 0028 2370     		strb	r3, [r4]
 4167              	.L207:
 4168              	.LVL550:
1797:Code\UserApp\Protocol/CmdProtocol.c **** 	}
1798:Code\UserApp\Protocol/CmdProtocol.c **** 	
1799:Code\UserApp\Protocol/CmdProtocol.c **** 	CmdPacketTotalSize = (TempCmdBuf[2] << 8) + TempCmdBuf[3] + 4;
1800:Code\UserApp\Protocol/CmdProtocol.c **** 	DBG_SOFT_PutStr("\nProtocol_CmdParse_BLE-->Cmd:");
ARM GAS  C:\Users\Administrator\AppData\Local\Temp\ccexfbaX.s 			page 119


1801:Code\UserApp\Protocol/CmdProtocol.c **** 	DBG_SOFT_PrintfHex(TempCmdBuf + 6, 1, 16);
1802:Code\UserApp\Protocol/CmdProtocol.c **** 	//DBG_SOFT_PrintfHex(TempCmdBuf, CmdPacketTotalSize);
1803:Code\UserApp\Protocol/CmdProtocol.c **** 	//DBG_SOFT_PrintfHex(TempCmdBuf, CmdPacketTotalSize, 16);
1804:Code\UserApp\Protocol/CmdProtocol.c **** 	
1805:Code\UserApp\Protocol/CmdProtocol.c **** 	DBG_SOFT_PutStr("\n");
1806:Code\UserApp\Protocol/CmdProtocol.c **** 	
1807:Code\UserApp\Protocol/CmdProtocol.c **** 	TempCrc = MyCrc16Check(TempCmdBuf, CmdPacketTotalSize - 2);
 4169              		.loc 1 1807 0
 4170 002a AC78     		ldrb	r4, [r5, #2]
 4171 002c EB78     		ldrb	r3, [r5, #3]
 4172 002e 2402     		lsls	r4, r4, #8
 4173 0030 0433     		adds	r3, r3, #4
 4174 0032 E418     		adds	r4, r4, r3
 4175 0034 A4B2     		uxth	r4, r4
 4176 0036 A61E     		subs	r6, r4, #2
 4177 0038 3100     		movs	r1, r6
 4178 003a 2800     		movs	r0, r5
 4179 003c FFF7FEFF 		bl	MyCrc16Check
 4180              	.LVL551:
1808:Code\UserApp\Protocol/CmdProtocol.c **** 	if (((TempCmdBuf[CmdPacketTotalSize-2] << 8) + TempCmdBuf[CmdPacketTotalSize - 1]) != TempCrc)
 4181              		.loc 1 1808 0
 4182 0040 2C19     		adds	r4, r5, r4
 4183 0042 AB5D     		ldrb	r3, [r5, r6]
 4184 0044 013C     		subs	r4, r4, #1
 4185 0046 2278     		ldrb	r2, [r4]
 4186 0048 1B02     		lsls	r3, r3, #8
 4187 004a 9B18     		adds	r3, r3, r2
 4188 004c 80B2     		uxth	r0, r0
 4189 004e 8342     		cmp	r3, r0
 4190 0050 00D0     		beq	.LCB3912
 4191 0052 A2E0     		b	.L206	@long jump
 4192              	.LCB3912:
1809:Code\UserApp\Protocol/CmdProtocol.c **** 	{
1810:Code\UserApp\Protocol/CmdProtocol.c **** 		return;
1811:Code\UserApp\Protocol/CmdProtocol.c **** 	}
1812:Code\UserApp\Protocol/CmdProtocol.c **** 	
1813:Code\UserApp\Protocol/CmdProtocol.c **** 	switch (TempCmdBuf[6])
 4193              		.loc 1 1813 0
 4194 0054 AB79     		ldrb	r3, [r5, #6]
 4195 0056 092B     		cmp	r3, #9
 4196 0058 00D1     		bne	.LCB3916
 4197 005a 83E0     		b	.L210	@long jump
 4198              	.LCB3916:
 4199 005c 18D8     		bhi	.L211
 4200 005e 042B     		cmp	r3, #4
 4201 0060 70D0     		beq	.L212
 4202 0062 09D8     		bhi	.L213
 4203 0064 022B     		cmp	r3, #2
 4204 0066 5BD0     		beq	.L214
 4205 0068 68D8     		bhi	.L215
 4206 006a 012B     		cmp	r3, #1
 4207 006c 00D0     		beq	.LCB3928
 4208 006e 94E0     		b	.L206	@long jump
 4209              	.LCB3928:
1814:Code\UserApp\Protocol/CmdProtocol.c **** 	{
1815:Code\UserApp\Protocol/CmdProtocol.c **** 		case CMD_GET_PRESEVER:									// 0x01å‘½ä»¤								//
1816:Code\UserApp\Protocol/CmdProtocol.c **** 			Protocol_CmdGetPreSever(TempCmdBuf);
ARM GAS  C:\Users\Administrator\AppData\Local\Temp\ccexfbaX.s 			page 120


 4210              		.loc 1 1816 0
 4211 0070 15A8     		add	r0, sp, #84
 4212              	.LVL552:
 4213 0072 FFF7FEFF 		bl	Protocol_CmdGetPreSever
 4214              	.LVL553:
1817:Code\UserApp\Protocol/CmdProtocol.c **** 			break;
 4215              		.loc 1 1817 0
 4216 0076 90E0     		b	.L206
 4217              	.LVL554:
 4218              	.L213:
1813:Code\UserApp\Protocol/CmdProtocol.c **** 	{
 4219              		.loc 1 1813 0
 4220 0078 062B     		cmp	r3, #6
 4221 007a 6BD0     		beq	.L217
 4222 007c 66D3     		bcc	.L218
 4223 007e 072B     		cmp	r3, #7
 4224 0080 6CD0     		beq	.L219
 4225 0082 082B     		cmp	r3, #8
 4226 0084 00D0     		beq	.LCB3945
 4227 0086 88E0     		b	.L206	@long jump
 4228              	.LCB3945:
1818:Code\UserApp\Protocol/CmdProtocol.c **** 		case CMD_GET_MAC_AND_KEY:								// 0x02å‘½ä»¤								//
1819:Code\UserApp\Protocol/CmdProtocol.c **** 			Protocol_CmdGetMacAndKey(TempCmdBuf);
1820:Code\UserApp\Protocol/CmdProtocol.c **** 			break;
1821:Code\UserApp\Protocol/CmdProtocol.c **** 		case CMD_READ_UID:										// 0x03å‘½ä»¤								//
1822:Code\UserApp\Protocol/CmdProtocol.c **** 			Protocol_CmdReadUID(TempCmdBuf);
1823:Code\UserApp\Protocol/CmdProtocol.c **** 			break;
1824:Code\UserApp\Protocol/CmdProtocol.c **** 		case CMD_WRITE_UID:										// 0x04å‘½ä»¤								//
1825:Code\UserApp\Protocol/CmdProtocol.c **** 			Protocol_CmdWriteUID(TempCmdBuf);
1826:Code\UserApp\Protocol/CmdProtocol.c **** 			break;
1827:Code\UserApp\Protocol/CmdProtocol.c **** 		case CMD_DEL_UID:										// 0x05å‘½ä»¤								//
1828:Code\UserApp\Protocol/CmdProtocol.c **** 			Protocol_CmdDelUID(TempCmdBuf);
1829:Code\UserApp\Protocol/CmdProtocol.c **** 			break;
1830:Code\UserApp\Protocol/CmdProtocol.c **** 		case CMD_OPEN_DOOR:										// 0x06å‘½ä»¤								//
1831:Code\UserApp\Protocol/CmdProtocol.c **** 			Protocol_CmdOpenDoor(TempCmdBuf);
1832:Code\UserApp\Protocol/CmdProtocol.c **** 			break;
1833:Code\UserApp\Protocol/CmdProtocol.c **** 		case CMD_SEND_OPEN_INFO:								// 0x07å‘½ä»¤								//
1834:Code\UserApp\Protocol/CmdProtocol.c **** 			Protocol_CmdSendOpenInfo(TempCmdBuf);
1835:Code\UserApp\Protocol/CmdProtocol.c **** 			break;
1836:Code\UserApp\Protocol/CmdProtocol.c **** 		case CMD_PLUSE:											// 0x08å‘½ä»¤								//
1837:Code\UserApp\Protocol/CmdProtocol.c **** 			Protocol_CmdPluse(TempCmdBuf);
 4229              		.loc 1 1837 0
 4230 0088 15A8     		add	r0, sp, #84
 4231              	.LVL555:
 4232 008a FFF7FEFF 		bl	Protocol_CmdPluse
 4233              	.LVL556:
1838:Code\UserApp\Protocol/CmdProtocol.c **** 			break;
 4234              		.loc 1 1838 0
 4235 008e 84E0     		b	.L206
 4236              	.LVL557:
 4237              	.L211:
1813:Code\UserApp\Protocol/CmdProtocol.c **** 	{
 4238              		.loc 1 1813 0
 4239 0090 0E2B     		cmp	r3, #14
 4240 0092 73D0     		beq	.L221
 4241 0094 08D8     		bhi	.L222
 4242 0096 0C2B     		cmp	r3, #12
ARM GAS  C:\Users\Administrator\AppData\Local\Temp\ccexfbaX.s 			page 121


 4243 0098 68D0     		beq	.L223
 4244 009a 6BD8     		bhi	.L224
 4245 009c 0A2B     		cmp	r3, #10
 4246 009e 7CD1     		bne	.L206
1839:Code\UserApp\Protocol/CmdProtocol.c **** 		case CMD_CLEAR_UID:										// 0x09å‘½ä»¤								//
1840:Code\UserApp\Protocol/CmdProtocol.c **** 			Protocol_CmdClearUID(TempCmdBuf);
1841:Code\UserApp\Protocol/CmdProtocol.c **** 			break;
1842:Code\UserApp\Protocol/CmdProtocol.c **** 		case CMD_TIME_CHECK:									// 0x0Aå‘½ä»¤								//
1843:Code\UserApp\Protocol/CmdProtocol.c **** 			Protocol_CmdTimeCheck(TempCmdBuf);
 4247              		.loc 1 1843 0
 4248 00a0 15A8     		add	r0, sp, #84
 4249              	.LVL558:
 4250 00a2 FFF7FEFF 		bl	Protocol_CmdTimeCheck
 4251              	.LVL559:
1844:Code\UserApp\Protocol/CmdProtocol.c **** 			break;
 4252              		.loc 1 1844 0
 4253 00a6 78E0     		b	.L206
 4254              	.LVL560:
 4255              	.L222:
1813:Code\UserApp\Protocol/CmdProtocol.c **** 	{
 4256              		.loc 1 1813 0
 4257 00a8 102B     		cmp	r3, #16
 4258 00aa 6FD0     		beq	.L226
 4259 00ac 6AD3     		bcc	.L227
 4260 00ae F12B     		cmp	r3, #241
 4261 00b0 70D0     		beq	.L228
 4262 00b2 F22B     		cmp	r3, #242
 4263 00b4 71D1     		bne	.L206
 4264              	.LVL561:
 4265              	.LBB14:
 4266              	.LBB15:
1635:Code\UserApp\Protocol/CmdProtocol.c **** 	uint8 RetCode = RT_SUCC;
 4267              		.loc 1 1635 0
 4268 00b6 0622     		movs	r2, #6
 4269 00b8 0021     		movs	r1, #0
 4270 00ba 03A8     		add	r0, sp, #12
 4271              	.LVL562:
 4272 00bc FFF7FEFF 		bl	memset
 4273              	.LVL563:
1642:Code\UserApp\Protocol/CmdProtocol.c **** 	
 4274              		.loc 1 1642 0
 4275 00c0 C921     		movs	r1, #201
 4276 00c2 03A8     		add	r0, sp, #12
 4277 00c4 0622     		movs	r2, #6
 4278 00c6 4902     		lsls	r1, r1, #9
1639:Code\UserApp\Protocol/CmdProtocol.c **** 	uint16 nCmdPackLen;
 4279              		.loc 1 1639 0
 4280 00c8 2F79     		ldrb	r7, [r5, #4]
 4281              	.LVL564:
1642:Code\UserApp\Protocol/CmdProtocol.c **** 	
 4282              		.loc 1 1642 0
 4283 00ca FFF7FEFF 		bl	W25QXX_Read
 4284              	.LVL565:
1644:Code\UserApp\Protocol/CmdProtocol.c **** 	 
 4285              		.loc 1 1644 0
 4286 00ce AC78     		ldrb	r4, [r5, #2]
 4287 00d0 EB78     		ldrb	r3, [r5, #3]
ARM GAS  C:\Users\Administrator\AppData\Local\Temp\ccexfbaX.s 			page 122


1646:Code\UserApp\Protocol/CmdProtocol.c ****     memcpy(pT, RecBuf + 7, 6);									// å–å‡ºMACåœ°å€							//
 4288              		.loc 1 1646 0
 4289 00d2 05AE     		add	r6, sp, #20
 4290              	.LVL566:
1644:Code\UserApp\Protocol/CmdProtocol.c **** 	 
 4291              		.loc 1 1644 0
 4292 00d4 0433     		adds	r3, r3, #4
1646:Code\UserApp\Protocol/CmdProtocol.c ****     memcpy(pT, RecBuf + 7, 6);									// å–å‡ºMACåœ°å€							//
 4293              		.loc 1 1646 0
 4294 00d6 4022     		movs	r2, #64
 4295 00d8 0021     		movs	r1, #0
 4296 00da 3000     		movs	r0, r6
1644:Code\UserApp\Protocol/CmdProtocol.c **** 	 
 4297              		.loc 1 1644 0
 4298 00dc 2402     		lsls	r4, r4, #8
 4299 00de E418     		adds	r4, r4, r3
1646:Code\UserApp\Protocol/CmdProtocol.c ****     memcpy(pT, RecBuf + 7, 6);									// å–å‡ºMACåœ°å€							//
 4300              		.loc 1 1646 0
 4301 00e0 FFF7FEFF 		bl	memset
 4302              	.LVL567:
1647:Code\UserApp\Protocol/CmdProtocol.c ****     pT += 6; 
 4303              		.loc 1 1647 0
 4304 00e4 5B21     		movs	r1, #91
 4305 00e6 0622     		movs	r2, #6
 4306 00e8 6944     		add	r1, r1, sp
 4307 00ea 3000     		movs	r0, r6
 4308 00ec FFF7FEFF 		bl	memcpy
 4309              	.LVL568:
1649:Code\UserApp\Protocol/CmdProtocol.c **** 	pT += 4;
 4310              		.loc 1 1649 0
 4311 00f0 1A20     		movs	r0, #26
1644:Code\UserApp\Protocol/CmdProtocol.c **** 	 
 4312              		.loc 1 1644 0
 4313 00f2 A4B2     		uxth	r4, r4
 4314              	.LVL569:
1649:Code\UserApp\Protocol/CmdProtocol.c **** 	pT += 4;
 4315              		.loc 1 1649 0
 4316 00f4 15AB     		add	r3, sp, #84
 4317 00f6 A11F     		subs	r1, r4, #6
 4318 00f8 5918     		adds	r1, r3, r1
 4319 00fa 0422     		movs	r2, #4
 4320 00fc 6844     		add	r0, r0, sp
 4321 00fe FFF7FEFF 		bl	memcpy
 4322              	.LVL570:
1652:Code\UserApp\Protocol/CmdProtocol.c **** 	Protocol_SendAckPacket(comm_chanle, PACK_RESP, RecBuf[6], DataBuf, 11);
 4323              		.loc 1 1652 0
 4324 0102 0121     		movs	r1, #1
1653:Code\UserApp\Protocol/CmdProtocol.c **** 	
 4325              		.loc 1 1653 0
 4326 0104 0B23     		movs	r3, #11
1652:Code\UserApp\Protocol/CmdProtocol.c **** 	Protocol_SendAckPacket(comm_chanle, PACK_RESP, RecBuf[6], DataBuf, 11);
 4327              		.loc 1 1652 0
 4328 0106 B172     		strb	r1, [r6, #10]
1653:Code\UserApp\Protocol/CmdProtocol.c **** 	
 4329              		.loc 1 1653 0
 4330 0108 AA79     		ldrb	r2, [r5, #6]
 4331 010a 3800     		movs	r0, r7
ARM GAS  C:\Users\Administrator\AppData\Local\Temp\ccexfbaX.s 			page 123


 4332 010c 0093     		str	r3, [sp]
 4333 010e 3300     		movs	r3, r6
 4334 0110 FFF7FEFF 		bl	Protocol_SendAckPacket
 4335              	.LVL571:
1655:Code\UserApp\Protocol/CmdProtocol.c **** 	VoicePlay((uint8)Sound_REG_SUCCESS);
 4336              		.loc 1 1655 0
 4337 0114 FFF7FEFF 		bl	Clear_AllOPeninfo
 4338              	.LVL572:
1656:Code\UserApp\Protocol/CmdProtocol.c **** 		
 4339              		.loc 1 1656 0
 4340 0118 0420     		movs	r0, #4
 4341 011a FFF7FEFF 		bl	VoicePlay
 4342              	.LVL573:
 4343 011e 3CE0     		b	.L206
 4344              	.LVL574:
 4345              	.L214:
 4346              	.LBE15:
 4347              	.LBE14:
 4348              	.LBB16:
 4349              	.LBB17:
 699:Code\UserApp\Protocol/CmdProtocol.c **** 	gprs_state = NORMAL_COMM;
 4350              		.loc 1 699 0
 4351 0120 0122     		movs	r2, #1
 4352 0122 234B     		ldr	r3, .L231+16
 4353 0124 1A70     		strb	r2, [r3]
 700:Code\UserApp\Protocol/CmdProtocol.c **** 	gprs_operation_ErrCount = 0;
 4354              		.loc 1 700 0
 4355 0126 234B     		ldr	r3, .L231+20
 4356 0128 0432     		adds	r2, r2, #4
 4357 012a 1A70     		strb	r2, [r3]
 701:Code\UserApp\Protocol/CmdProtocol.c **** 	next_gprs_operation_time = cur_time;
 4358              		.loc 1 701 0
 4359 012c 0022     		movs	r2, #0
 4360 012e 224B     		ldr	r3, .L231+24
 4361 0130 1A70     		strb	r2, [r3]
 702:Code\UserApp\Protocol/CmdProtocol.c **** 	//===ã€ç»“æŸã€‘=== è®¾å¤‡å±‚çš„å¤„ç† ==========================================================
 4362              		.loc 1 702 0
 4363 0132 224B     		ldr	r3, .L231+28
 4364 0134 1A68     		ldr	r2, [r3]
 4365 0136 224B     		ldr	r3, .L231+32
 4366 0138 1A60     		str	r2, [r3]
 4367 013a 2EE0     		b	.L206
 4368              	.LVL575:
 4369              	.L215:
 4370              	.LBE17:
 4371              	.LBE16:
1822:Code\UserApp\Protocol/CmdProtocol.c **** 			break;
 4372              		.loc 1 1822 0
 4373 013c 15A8     		add	r0, sp, #84
 4374              	.LVL576:
 4375 013e FFF7FEFF 		bl	Protocol_CmdReadUID
 4376              	.LVL577:
1823:Code\UserApp\Protocol/CmdProtocol.c **** 		case CMD_WRITE_UID:										// 0x04å‘½ä»¤								//
 4377              		.loc 1 1823 0
 4378 0142 2AE0     		b	.L206
 4379              	.LVL578:
 4380              	.L212:
ARM GAS  C:\Users\Administrator\AppData\Local\Temp\ccexfbaX.s 			page 124


1825:Code\UserApp\Protocol/CmdProtocol.c **** 			break;
 4381              		.loc 1 1825 0
 4382 0144 15A8     		add	r0, sp, #84
 4383              	.LVL579:
 4384 0146 FFF7FEFF 		bl	Protocol_CmdWriteUID
 4385              	.LVL580:
1826:Code\UserApp\Protocol/CmdProtocol.c **** 		case CMD_DEL_UID:										// 0x05å‘½ä»¤								//
 4386              		.loc 1 1826 0
 4387 014a 26E0     		b	.L206
 4388              	.LVL581:
 4389              	.L218:
1828:Code\UserApp\Protocol/CmdProtocol.c **** 			break;
 4390              		.loc 1 1828 0
 4391 014c 15A8     		add	r0, sp, #84
 4392              	.LVL582:
 4393 014e FFF7FEFF 		bl	Protocol_CmdDelUID
 4394              	.LVL583:
1829:Code\UserApp\Protocol/CmdProtocol.c **** 		case CMD_OPEN_DOOR:										// 0x06å‘½ä»¤								//
 4395              		.loc 1 1829 0
 4396 0152 22E0     		b	.L206
 4397              	.LVL584:
 4398              	.L217:
1831:Code\UserApp\Protocol/CmdProtocol.c **** 			break;
 4399              		.loc 1 1831 0
 4400 0154 15A8     		add	r0, sp, #84
 4401              	.LVL585:
 4402 0156 FFF7FEFF 		bl	Protocol_CmdOpenDoor
 4403              	.LVL586:
1832:Code\UserApp\Protocol/CmdProtocol.c **** 		case CMD_SEND_OPEN_INFO:								// 0x07å‘½ä»¤								//
 4404              		.loc 1 1832 0
 4405 015a 1EE0     		b	.L206
 4406              	.LVL587:
 4407              	.L219:
1834:Code\UserApp\Protocol/CmdProtocol.c **** 			break;
 4408              		.loc 1 1834 0
 4409 015c 15A8     		add	r0, sp, #84
 4410              	.LVL588:
 4411 015e FFF7FEFF 		bl	Protocol_CmdSendOpenInfo
 4412              	.LVL589:
1835:Code\UserApp\Protocol/CmdProtocol.c **** 		case CMD_PLUSE:											// 0x08å‘½ä»¤								//
 4413              		.loc 1 1835 0
 4414 0162 1AE0     		b	.L206
 4415              	.LVL590:
 4416              	.L210:
1840:Code\UserApp\Protocol/CmdProtocol.c **** 			break;
 4417              		.loc 1 1840 0
 4418 0164 15A8     		add	r0, sp, #84
 4419              	.LVL591:
 4420 0166 FFF7FEFF 		bl	Protocol_CmdClearUID
 4421              	.LVL592:
1841:Code\UserApp\Protocol/CmdProtocol.c **** 		case CMD_TIME_CHECK:									// 0x0Aå‘½ä»¤								//
 4422              		.loc 1 1841 0
 4423 016a 16E0     		b	.L206
 4424              	.LVL593:
 4425              	.L223:
1845:Code\UserApp\Protocol/CmdProtocol.c ****         case CMD_SEND_WARN_INFO:								// 0x0Bå‘½ä»¤								//
1846:Code\UserApp\Protocol/CmdProtocol.c **** 			Protocol_CmdSendWarnInfo(TempCmdBuf);
ARM GAS  C:\Users\Administrator\AppData\Local\Temp\ccexfbaX.s 			page 125


1847:Code\UserApp\Protocol/CmdProtocol.c **** 			break;
1848:Code\UserApp\Protocol/CmdProtocol.c **** 		case CMD_READ_INFO:										// 0x0Cå‘½ä»¤								//
1849:Code\UserApp\Protocol/CmdProtocol.c **** 			Protocol_CmdReadInfo(TempCmdBuf);
 4426              		.loc 1 1849 0
 4427 016c 15A8     		add	r0, sp, #84
 4428              	.LVL594:
 4429 016e FFF7FEFF 		bl	Protocol_CmdReadInfo
 4430              	.LVL595:
1850:Code\UserApp\Protocol/CmdProtocol.c **** 			break;
 4431              		.loc 1 1850 0
 4432 0172 12E0     		b	.L206
 4433              	.LVL596:
 4434              	.L224:
1851:Code\UserApp\Protocol/CmdProtocol.c **** 		case CMD_REMOTE_UPDATE:									// 0x0Då‘½ä»¤								//
1852:Code\UserApp\Protocol/CmdProtocol.c **** 			Protocol_CmdRemoteUpdate(TempCmdBuf);
 4435              		.loc 1 1852 0
 4436 0174 15A8     		add	r0, sp, #84
 4437              	.LVL597:
 4438 0176 FFF7FEFF 		bl	Protocol_CmdRemoteUpdate
 4439              	.LVL598:
1853:Code\UserApp\Protocol/CmdProtocol.c **** 			break;
 4440              		.loc 1 1853 0
 4441 017a 0EE0     		b	.L206
 4442              	.LVL599:
 4443              	.L221:
1854:Code\UserApp\Protocol/CmdProtocol.c **** 		case CMD_REMOTE_RESTART:								// 0x0Eå‘½ä»¤								//
1855:Code\UserApp\Protocol/CmdProtocol.c **** 			Protocol_CmdRemoteRestart(TempCmdBuf);
 4444              		.loc 1 1855 0
 4445 017c 15A8     		add	r0, sp, #84
 4446              	.LVL600:
 4447 017e FFF7FEFF 		bl	Protocol_CmdRemoteRestart
 4448              	.LVL601:
1856:Code\UserApp\Protocol/CmdProtocol.c **** 			break;
 4449              		.loc 1 1856 0
 4450 0182 0AE0     		b	.L206
 4451              	.LVL602:
 4452              	.L227:
1857:Code\UserApp\Protocol/CmdProtocol.c **** 		case CMD_DOWNLOAD:										// 0x0Få‘½ä»¤								//
1858:Code\UserApp\Protocol/CmdProtocol.c **** 		    Protocol_CmdRemoteDownload(TempCmdBuf);
 4453              		.loc 1 1858 0
 4454 0184 15A8     		add	r0, sp, #84
 4455              	.LVL603:
 4456 0186 FFF7FEFF 		bl	Protocol_CmdRemoteDownload
 4457              	.LVL604:
1859:Code\UserApp\Protocol/CmdProtocol.c **** 		    break;
 4458              		.loc 1 1859 0
 4459 018a 06E0     		b	.L206
 4460              	.LVL605:
 4461              	.L226:
1860:Code\UserApp\Protocol/CmdProtocol.c **** 		case CMD_CHANGE_IP:										// 0x10å‘½ä»¤								//
1861:Code\UserApp\Protocol/CmdProtocol.c **** 		    Protocol_CmdChangeIP(TempCmdBuf);
 4462              		.loc 1 1861 0
 4463 018c 15A8     		add	r0, sp, #84
 4464              	.LVL606:
 4465 018e FFF7FEFF 		bl	Protocol_CmdChangeIP
 4466              	.LVL607:
1862:Code\UserApp\Protocol/CmdProtocol.c **** 		    break;	
ARM GAS  C:\Users\Administrator\AppData\Local\Temp\ccexfbaX.s 			page 126


 4467              		.loc 1 1862 0
 4468 0192 02E0     		b	.L206
 4469              	.LVL608:
 4470              	.L228:
1863:Code\UserApp\Protocol/CmdProtocol.c **** 		
1864:Code\UserApp\Protocol/CmdProtocol.c **** 		case CMD_MANUFAC:										// 0xF1å‘½ä»¤								//
1865:Code\UserApp\Protocol/CmdProtocol.c **** 			Protocol_CmdManufac(TempCmdBuf);
 4471              		.loc 1 1865 0
 4472 0194 15A8     		add	r0, sp, #84
 4473              	.LVL609:
 4474 0196 FFF7FEFF 		bl	Protocol_CmdManufac
 4475              	.LVL610:
 4476              	.L206:
1866:Code\UserApp\Protocol/CmdProtocol.c **** 		break;	
1867:Code\UserApp\Protocol/CmdProtocol.c **** 			
1868:Code\UserApp\Protocol/CmdProtocol.c **** 		case CMD_CLROPENDATA:									// 0xF2å‘½ä»¤								//
1869:Code\UserApp\Protocol/CmdProtocol.c **** 			Protocol_ClrOpenData_Qty(TempCmdBuf);	
1870:Code\UserApp\Protocol/CmdProtocol.c **** 		break;	
1871:Code\UserApp\Protocol/CmdProtocol.c **** 			
1872:Code\UserApp\Protocol/CmdProtocol.c **** 	    default:
1873:Code\UserApp\Protocol/CmdProtocol.c ****             break;
1874:Code\UserApp\Protocol/CmdProtocol.c **** 	}
1875:Code\UserApp\Protocol/CmdProtocol.c **** 	
1876:Code\UserApp\Protocol/CmdProtocol.c **** 	DBG_PRINTF("leaving %s\n", __FUNCTION__);
1877:Code\UserApp\Protocol/CmdProtocol.c **** }
 4477              		.loc 1 1877 0
 4478 019a 0A4B     		ldr	r3, .L231+36
 4479 019c 9D44     		add	sp, sp, r3
 4480              		@ sp needed
 4481 019e F0BD     		pop	{r4, r5, r6, r7, pc}
 4482              	.L232:
 4483              		.align	2
 4484              	.L231:
 4485 01a0 8CFBFFFF 		.word	-1140
 4486 01a4 00000000 		.word	BleCmdValidFlag
 4487 01a8 00000000 		.word	BleCmdBuf
 4488 01ac 1A040000 		.word	1050
 4489 01b0 00000000 		.word	SendMacFlag
 4490 01b4 00000000 		.word	gprs_state
 4491 01b8 00000000 		.word	gprs_operation_ErrCount
 4492 01bc 00000000 		.word	cur_time
 4493 01c0 00000000 		.word	next_gprs_operation_time
 4494 01c4 74040000 		.word	1140
 4495              		.cfi_endproc
 4496              	.LFE92:
 4497              		.size	Protocol_CmdParse_BLE, .-Protocol_CmdParse_BLE
 4498              		.comm	UploadStartnum,2,2
 4499              		.comm	UploadQty,2,2
 4500              		.comm	ADCResultCenter,1,1
 4501              		.text
 4502              	.Letext0:
 4503              		.file 2 "c:\\program files (x86)\\cypress\\psoc creator\\4.1\\psoc creator\\import\\gnu\\arm\\5.4.
 4504              		.file 3 "c:\\program files (x86)\\cypress\\psoc creator\\4.1\\psoc creator\\import\\gnu\\arm\\5.4.
 4505              		.file 4 "Generated_Source\\PSoC4/cytypes.h"
 4506              		.file 5 "./OTAMandatory.h"
 4507              		.file 6 ".\\Code\\Device\\W25Q80/user_data.h"
 4508              		.file 7 "Generated_Source\\PSoC4/RTC.h"
ARM GAS  C:\Users\Administrator\AppData\Local\Temp\ccexfbaX.s 			page 127


 4509              		.file 8 ".\\Code\\Device\\BLE/Bluetooth.h"
 4510              		.file 9 ".\\Code\\Device\\FM175XX\\LPCD/lpcd_api.h"
 4511              		.file 10 "c:\\program files (x86)\\cypress\\psoc creator\\4.1\\psoc creator\\import\\gnu\\arm\\5.4
 4512              		.file 11 ".\\Code\\Device\\RTC/UserRTC.h"
 4513              		.file 12 ".\\Code\\Device\\W25Q80/w25qxx.h"
 4514              		.file 13 ".\\Code\\UserApp\\Voice/voice.h"
 4515              		.file 14 ".\\Code\\Common/crc16check.h"
 4516              		.file 15 ".\\Code\\Device\\GPRS/AtProtocol.h"
 4517              		.file 16 ".\\Code\\Device\\FM175XX/card.h"
 4518              		.section	.debug_info,"",%progbits
 4519              	.Ldebug_info0:
 4520 0000 5F290000 		.4byte	0x295f
 4521 0004 0400     		.2byte	0x4
 4522 0006 00000000 		.4byte	.Ldebug_abbrev0
 4523 000a 04       		.byte	0x4
 4524 000b 01       		.uleb128 0x1
 4525 000c 4B040000 		.4byte	.LASF261
 4526 0010 0C       		.byte	0xc
 4527 0011 9D110000 		.4byte	.LASF262
 4528 0015 24070000 		.4byte	.LASF263
 4529 0019 00000000 		.4byte	.Ldebug_ranges0+0
 4530 001d 00000000 		.4byte	0
 4531 0021 00000000 		.4byte	.Ldebug_line0
 4532 0025 02       		.uleb128 0x2
 4533 0026 02       		.byte	0x2
 4534 0027 07       		.byte	0x7
 4535 0028 81110000 		.4byte	.LASF0
 4536 002c 02       		.uleb128 0x2
 4537 002d 01       		.byte	0x1
 4538 002e 06       		.byte	0x6
 4539 002f 93030000 		.4byte	.LASF1
 4540 0033 03       		.uleb128 0x3
 4541 0034 76020000 		.4byte	.LASF4
 4542 0038 02       		.byte	0x2
 4543 0039 1D       		.byte	0x1d
 4544 003a 3E000000 		.4byte	0x3e
 4545 003e 02       		.uleb128 0x2
 4546 003f 01       		.byte	0x1
 4547 0040 08       		.byte	0x8
 4548 0041 FA030000 		.4byte	.LASF2
 4549 0045 02       		.uleb128 0x2
 4550 0046 02       		.byte	0x2
 4551 0047 05       		.byte	0x5
 4552 0048 6F0F0000 		.4byte	.LASF3
 4553 004c 03       		.uleb128 0x3
 4554 004d EE050000 		.4byte	.LASF5
 4555 0051 02       		.byte	0x2
 4556 0052 2B       		.byte	0x2b
 4557 0053 25000000 		.4byte	0x25
 4558 0057 02       		.uleb128 0x2
 4559 0058 04       		.byte	0x4
 4560 0059 05       		.byte	0x5
 4561 005a EB020000 		.4byte	.LASF6
 4562 005e 03       		.uleb128 0x3
 4563 005f D7090000 		.4byte	.LASF7
 4564 0063 02       		.byte	0x2
 4565 0064 41       		.byte	0x41
ARM GAS  C:\Users\Administrator\AppData\Local\Temp\ccexfbaX.s 			page 128


 4566 0065 69000000 		.4byte	0x69
 4567 0069 02       		.uleb128 0x2
 4568 006a 04       		.byte	0x4
 4569 006b 07       		.byte	0x7
 4570 006c 94080000 		.4byte	.LASF8
 4571 0070 02       		.uleb128 0x2
 4572 0071 08       		.byte	0x8
 4573 0072 05       		.byte	0x5
 4574 0073 E2090000 		.4byte	.LASF9
 4575 0077 02       		.uleb128 0x2
 4576 0078 08       		.byte	0x8
 4577 0079 07       		.byte	0x7
 4578 007a 550D0000 		.4byte	.LASF10
 4579 007e 04       		.uleb128 0x4
 4580 007f 04       		.byte	0x4
 4581 0080 05       		.byte	0x5
 4582 0081 696E7400 		.ascii	"int\000"
 4583 0085 02       		.uleb128 0x2
 4584 0086 04       		.byte	0x4
 4585 0087 07       		.byte	0x7
 4586 0088 DA0A0000 		.4byte	.LASF11
 4587 008c 03       		.uleb128 0x3
 4588 008d 9F030000 		.4byte	.LASF12
 4589 0091 03       		.byte	0x3
 4590 0092 18       		.byte	0x18
 4591 0093 33000000 		.4byte	0x33
 4592 0097 03       		.uleb128 0x3
 4593 0098 890D0000 		.4byte	.LASF13
 4594 009c 03       		.byte	0x3
 4595 009d 24       		.byte	0x24
 4596 009e 4C000000 		.4byte	0x4c
 4597 00a2 03       		.uleb128 0x3
 4598 00a3 E3100000 		.4byte	.LASF14
 4599 00a7 03       		.byte	0x3
 4600 00a8 30       		.byte	0x30
 4601 00a9 5E000000 		.4byte	0x5e
 4602 00ad 05       		.uleb128 0x5
 4603 00ae 400F0000 		.4byte	.LASF15
 4604 00b2 04       		.byte	0x4
 4605 00b3 D201     		.2byte	0x1d2
 4606 00b5 3E000000 		.4byte	0x3e
 4607 00b9 05       		.uleb128 0x5
 4608 00ba CE120000 		.4byte	.LASF16
 4609 00be 04       		.byte	0x4
 4610 00bf D301     		.2byte	0x1d3
 4611 00c1 25000000 		.4byte	0x25
 4612 00c5 05       		.uleb128 0x5
 4613 00c6 F4000000 		.4byte	.LASF17
 4614 00ca 04       		.byte	0x4
 4615 00cb D401     		.2byte	0x1d4
 4616 00cd 69000000 		.4byte	0x69
 4617 00d1 02       		.uleb128 0x2
 4618 00d2 04       		.byte	0x4
 4619 00d3 04       		.byte	0x4
 4620 00d4 710A0000 		.4byte	.LASF18
 4621 00d8 02       		.uleb128 0x2
 4622 00d9 08       		.byte	0x8
ARM GAS  C:\Users\Administrator\AppData\Local\Temp\ccexfbaX.s 			page 129


 4623 00da 04       		.byte	0x4
 4624 00db 200A0000 		.4byte	.LASF19
 4625 00df 02       		.uleb128 0x2
 4626 00e0 01       		.byte	0x1
 4627 00e1 08       		.byte	0x8
 4628 00e2 81050000 		.4byte	.LASF20
 4629 00e6 06       		.uleb128 0x6
 4630 00e7 AD000000 		.4byte	0xad
 4631 00eb 06       		.uleb128 0x6
 4632 00ec B9000000 		.4byte	0xb9
 4633 00f0 06       		.uleb128 0x6
 4634 00f1 C5000000 		.4byte	0xc5
 4635 00f5 02       		.uleb128 0x2
 4636 00f6 08       		.byte	0x8
 4637 00f7 04       		.byte	0x4
 4638 00f8 AD0C0000 		.4byte	.LASF21
 4639 00fc 02       		.uleb128 0x2
 4640 00fd 04       		.byte	0x4
 4641 00fe 07       		.byte	0x7
 4642 00ff 27000000 		.4byte	.LASF22
 4643 0103 07       		.uleb128 0x7
 4644 0104 04       		.byte	0x4
 4645 0105 AD000000 		.4byte	0xad
 4646 0109 08       		.uleb128 0x8
 4647 010a AD000000 		.4byte	0xad
 4648 010e 19010000 		.4byte	0x119
 4649 0112 09       		.uleb128 0x9
 4650 0113 FC000000 		.4byte	0xfc
 4651 0117 05       		.byte	0x5
 4652 0118 00       		.byte	0
 4653 0119 0A       		.uleb128 0xa
 4654 011a 01       		.byte	0x1
 4655 011b 3E000000 		.4byte	0x3e
 4656 011f 05       		.byte	0x5
 4657 0120 3A01     		.2byte	0x13a
 4658 0122 7D020000 		.4byte	0x27d
 4659 0126 0B       		.uleb128 0xb
 4660 0127 D7050000 		.4byte	.LASF23
 4661 012b 00       		.byte	0
 4662 012c 0B       		.uleb128 0xb
 4663 012d FF020000 		.4byte	.LASF24
 4664 0131 01       		.byte	0x1
 4665 0132 0B       		.uleb128 0xb
 4666 0133 770D0000 		.4byte	.LASF25
 4667 0137 02       		.byte	0x2
 4668 0138 0B       		.uleb128 0xb
 4669 0139 A7030000 		.4byte	.LASF26
 4670 013d 03       		.byte	0x3
 4671 013e 0B       		.uleb128 0xb
 4672 013f 02120000 		.4byte	.LASF27
 4673 0143 04       		.byte	0x4
 4674 0144 0B       		.uleb128 0xb
 4675 0145 F7080000 		.4byte	.LASF28
 4676 0149 05       		.byte	0x5
 4677 014a 0B       		.uleb128 0xb
 4678 014b 24100000 		.4byte	.LASF29
 4679 014f 20       		.byte	0x20
ARM GAS  C:\Users\Administrator\AppData\Local\Temp\ccexfbaX.s 			page 130


 4680 0150 0B       		.uleb128 0xb
 4681 0151 19020000 		.4byte	.LASF30
 4682 0155 21       		.byte	0x21
 4683 0156 0B       		.uleb128 0xb
 4684 0157 B3090000 		.4byte	.LASF31
 4685 015b 22       		.byte	0x22
 4686 015c 0B       		.uleb128 0xb
 4687 015d 2A0C0000 		.4byte	.LASF32
 4688 0161 23       		.byte	0x23
 4689 0162 0B       		.uleb128 0xb
 4690 0163 22080000 		.4byte	.LASF33
 4691 0167 24       		.byte	0x24
 4692 0168 0B       		.uleb128 0xb
 4693 0169 47080000 		.4byte	.LASF34
 4694 016d 25       		.byte	0x25
 4695 016e 0B       		.uleb128 0xb
 4696 016f 180F0000 		.4byte	.LASF35
 4697 0173 26       		.byte	0x26
 4698 0174 0B       		.uleb128 0xb
 4699 0175 95000000 		.4byte	.LASF36
 4700 0179 27       		.byte	0x27
 4701 017a 0B       		.uleb128 0xb
 4702 017b 78120000 		.4byte	.LASF37
 4703 017f 28       		.byte	0x28
 4704 0180 0B       		.uleb128 0xb
 4705 0181 E10C0000 		.4byte	.LASF38
 4706 0185 29       		.byte	0x29
 4707 0186 0B       		.uleb128 0xb
 4708 0187 45090000 		.4byte	.LASF39
 4709 018b 2A       		.byte	0x2a
 4710 018c 0B       		.uleb128 0xb
 4711 018d C80B0000 		.4byte	.LASF40
 4712 0191 2B       		.byte	0x2b
 4713 0192 0B       		.uleb128 0xb
 4714 0193 10110000 		.4byte	.LASF41
 4715 0197 2C       		.byte	0x2c
 4716 0198 0B       		.uleb128 0xb
 4717 0199 AD0F0000 		.4byte	.LASF42
 4718 019d 40       		.byte	0x40
 4719 019e 0B       		.uleb128 0xb
 4720 019f B4000000 		.4byte	.LASF43
 4721 01a3 41       		.byte	0x41
 4722 01a4 0B       		.uleb128 0xb
 4723 01a5 17120000 		.4byte	.LASF44
 4724 01a9 42       		.byte	0x42
 4725 01aa 0B       		.uleb128 0xb
 4726 01ab 0A0D0000 		.4byte	.LASF45
 4727 01af 43       		.byte	0x43
 4728 01b0 0B       		.uleb128 0xb
 4729 01b1 08040000 		.4byte	.LASF46
 4730 01b5 44       		.byte	0x44
 4731 01b6 0B       		.uleb128 0xb
 4732 01b7 D3030000 		.4byte	.LASF47
 4733 01bb 45       		.byte	0x45
 4734 01bc 0B       		.uleb128 0xb
 4735 01bd 710E0000 		.4byte	.LASF48
 4736 01c1 46       		.byte	0x46
ARM GAS  C:\Users\Administrator\AppData\Local\Temp\ccexfbaX.s 			page 131


 4737 01c2 0B       		.uleb128 0xb
 4738 01c3 530E0000 		.4byte	.LASF49
 4739 01c7 47       		.byte	0x47
 4740 01c8 0B       		.uleb128 0xb
 4741 01c9 1D050000 		.4byte	.LASF50
 4742 01cd 48       		.byte	0x48
 4743 01ce 0B       		.uleb128 0xb
 4744 01cf 630C0000 		.4byte	.LASF51
 4745 01d3 49       		.byte	0x49
 4746 01d4 0B       		.uleb128 0xb
 4747 01d5 F9050000 		.4byte	.LASF52
 4748 01d9 4A       		.byte	0x4a
 4749 01da 0B       		.uleb128 0xb
 4750 01db 95050000 		.4byte	.LASF53
 4751 01df 4B       		.byte	0x4b
 4752 01e0 0B       		.uleb128 0xb
 4753 01e1 FB0B0000 		.4byte	.LASF54
 4754 01e5 4C       		.byte	0x4c
 4755 01e6 0B       		.uleb128 0xb
 4756 01e7 AD0E0000 		.4byte	.LASF55
 4757 01eb 4D       		.byte	0x4d
 4758 01ec 0B       		.uleb128 0xb
 4759 01ed B0020000 		.4byte	.LASF56
 4760 01f1 4E       		.byte	0x4e
 4761 01f2 0B       		.uleb128 0xb
 4762 01f3 FF0A0000 		.4byte	.LASF57
 4763 01f7 4F       		.byte	0x4f
 4764 01f8 0B       		.uleb128 0xb
 4765 01f9 05100000 		.4byte	.LASF58
 4766 01fd 50       		.byte	0x50
 4767 01fe 0B       		.uleb128 0xb
 4768 01ff 17060000 		.4byte	.LASF59
 4769 0203 51       		.byte	0x51
 4770 0204 0B       		.uleb128 0xb
 4771 0205 F8010000 		.4byte	.LASF60
 4772 0209 52       		.byte	0x52
 4773 020a 0B       		.uleb128 0xb
 4774 020b C2100000 		.4byte	.LASF61
 4775 020f 53       		.byte	0x53
 4776 0210 0B       		.uleb128 0xb
 4777 0211 AD120000 		.4byte	.LASF62
 4778 0215 54       		.byte	0x54
 4779 0216 0B       		.uleb128 0xb
 4780 0217 5A010000 		.4byte	.LASF63
 4781 021b 55       		.byte	0x55
 4782 021c 0B       		.uleb128 0xb
 4783 021d 5C060000 		.4byte	.LASF64
 4784 0221 56       		.byte	0x56
 4785 0222 0B       		.uleb128 0xb
 4786 0223 8D0A0000 		.4byte	.LASF65
 4787 0227 57       		.byte	0x57
 4788 0228 0B       		.uleb128 0xb
 4789 0229 50110000 		.4byte	.LASF66
 4790 022d 70       		.byte	0x70
 4791 022e 0B       		.uleb128 0xb
 4792 022f AB070000 		.4byte	.LASF67
 4793 0233 71       		.byte	0x71
ARM GAS  C:\Users\Administrator\AppData\Local\Temp\ccexfbaX.s 			page 132


 4794 0234 0B       		.uleb128 0xb
 4795 0235 77030000 		.4byte	.LASF68
 4796 0239 72       		.byte	0x72
 4797 023a 0B       		.uleb128 0xb
 4798 023b E70F0000 		.4byte	.LASF69
 4799 023f 73       		.byte	0x73
 4800 0240 0B       		.uleb128 0xb
 4801 0241 860C0000 		.4byte	.LASF70
 4802 0245 74       		.byte	0x74
 4803 0246 0B       		.uleb128 0xb
 4804 0247 87090000 		.4byte	.LASF71
 4805 024b 75       		.byte	0x75
 4806 024c 0B       		.uleb128 0xb
 4807 024d FC040000 		.4byte	.LASF72
 4808 0251 76       		.byte	0x76
 4809 0252 0B       		.uleb128 0xb
 4810 0253 AB0D0000 		.4byte	.LASF73
 4811 0257 77       		.byte	0x77
 4812 0258 0B       		.uleb128 0xb
 4813 0259 7E010000 		.4byte	.LASF74
 4814 025d 78       		.byte	0x78
 4815 025e 0B       		.uleb128 0xb
 4816 025f D9040000 		.4byte	.LASF75
 4817 0263 79       		.byte	0x79
 4818 0264 0B       		.uleb128 0xb
 4819 0265 35120000 		.4byte	.LASF76
 4820 0269 7A       		.byte	0x7a
 4821 026a 0B       		.uleb128 0xb
 4822 026b 270A0000 		.4byte	.LASF77
 4823 026f FA       		.byte	0xfa
 4824 0270 0B       		.uleb128 0xb
 4825 0271 92100000 		.4byte	.LASF78
 4826 0275 FB       		.byte	0xfb
 4827 0276 0B       		.uleb128 0xb
 4828 0277 BA0B0000 		.4byte	.LASF79
 4829 027b FF       		.byte	0xff
 4830 027c 00       		.byte	0
 4831 027d 0A       		.uleb128 0xa
 4832 027e 01       		.byte	0x1
 4833 027f 3E000000 		.4byte	0x3e
 4834 0283 05       		.byte	0x5
 4835 0284 3905     		.2byte	0x539
 4836 0286 C7020000 		.4byte	0x2c7
 4837 028a 0B       		.uleb128 0xb
 4838 028b 390D0000 		.4byte	.LASF80
 4839 028f 00       		.byte	0
 4840 0290 0B       		.uleb128 0xb
 4841 0291 BC060000 		.4byte	.LASF81
 4842 0295 01       		.byte	0x1
 4843 0296 0B       		.uleb128 0xb
 4844 0297 23090000 		.4byte	.LASF82
 4845 029b 02       		.byte	0x2
 4846 029c 0B       		.uleb128 0xb
 4847 029d 12030000 		.4byte	.LASF83
 4848 02a1 03       		.byte	0x3
 4849 02a2 0B       		.uleb128 0xb
 4850 02a3 E1010000 		.4byte	.LASF84
ARM GAS  C:\Users\Administrator\AppData\Local\Temp\ccexfbaX.s 			page 133


 4851 02a7 04       		.byte	0x4
 4852 02a8 0B       		.uleb128 0xb
 4853 02a9 45060000 		.4byte	.LASF85
 4854 02ad 05       		.byte	0x5
 4855 02ae 0B       		.uleb128 0xb
 4856 02af D8060000 		.4byte	.LASF86
 4857 02b3 06       		.byte	0x6
 4858 02b4 0B       		.uleb128 0xb
 4859 02b5 4C0B0000 		.4byte	.LASF87
 4860 02b9 07       		.byte	0x7
 4861 02ba 0B       		.uleb128 0xb
 4862 02bb 020A0000 		.4byte	.LASF88
 4863 02bf 08       		.byte	0x8
 4864 02c0 0B       		.uleb128 0xb
 4865 02c1 12000000 		.4byte	.LASF89
 4866 02c5 09       		.byte	0x9
 4867 02c6 00       		.byte	0
 4868 02c7 0C       		.uleb128 0xc
 4869 02c8 7C0C0000 		.4byte	.LASF93
 4870 02cc 0C       		.byte	0xc
 4871 02cd 06       		.byte	0x6
 4872 02ce 1C       		.byte	0x1c
 4873 02cf EC020000 		.4byte	0x2ec
 4874 02d3 0D       		.uleb128 0xd
 4875 02d4 3E080000 		.4byte	.LASF90
 4876 02d8 06       		.byte	0x6
 4877 02d9 1E       		.byte	0x1e
 4878 02da EC020000 		.4byte	0x2ec
 4879 02de 00       		.byte	0
 4880 02df 0D       		.uleb128 0xd
 4881 02e0 8C0B0000 		.4byte	.LASF91
 4882 02e4 06       		.byte	0x6
 4883 02e5 1F       		.byte	0x1f
 4884 02e6 FC020000 		.4byte	0x2fc
 4885 02ea 08       		.byte	0x8
 4886 02eb 00       		.byte	0
 4887 02ec 08       		.uleb128 0x8
 4888 02ed AD000000 		.4byte	0xad
 4889 02f1 FC020000 		.4byte	0x2fc
 4890 02f5 09       		.uleb128 0x9
 4891 02f6 FC000000 		.4byte	0xfc
 4892 02fa 07       		.byte	0x7
 4893 02fb 00       		.byte	0
 4894 02fc 08       		.uleb128 0x8
 4895 02fd AD000000 		.4byte	0xad
 4896 0301 0C030000 		.4byte	0x30c
 4897 0305 09       		.uleb128 0x9
 4898 0306 FC000000 		.4byte	0xfc
 4899 030a 03       		.byte	0x3
 4900 030b 00       		.byte	0
 4901 030c 03       		.uleb128 0x3
 4902 030d FE0C0000 		.4byte	.LASF92
 4903 0311 06       		.byte	0x6
 4904 0312 20       		.byte	0x20
 4905 0313 C7020000 		.4byte	0x2c7
 4906 0317 0C       		.uleb128 0xc
 4907 0318 740B0000 		.4byte	.LASF94
ARM GAS  C:\Users\Administrator\AppData\Local\Temp\ccexfbaX.s 			page 134


 4908 031c 10       		.byte	0x10
 4909 031d 06       		.byte	0x6
 4910 031e 22       		.byte	0x22
 4911 031f 48030000 		.4byte	0x348
 4912 0323 0D       		.uleb128 0xd
 4913 0324 3E080000 		.4byte	.LASF90
 4914 0328 06       		.byte	0x6
 4915 0329 24       		.byte	0x24
 4916 032a EC020000 		.4byte	0x2ec
 4917 032e 00       		.byte	0
 4918 032f 0D       		.uleb128 0xd
 4919 0330 E6070000 		.4byte	.LASF95
 4920 0334 06       		.byte	0x6
 4921 0335 25       		.byte	0x25
 4922 0336 FC020000 		.4byte	0x2fc
 4923 033a 08       		.byte	0x8
 4924 033b 0D       		.uleb128 0xd
 4925 033c 77050000 		.4byte	.LASF96
 4926 0340 06       		.byte	0x6
 4927 0341 26       		.byte	0x26
 4928 0342 FC020000 		.4byte	0x2fc
 4929 0346 0C       		.byte	0xc
 4930 0347 00       		.byte	0
 4931 0348 03       		.uleb128 0x3
 4932 0349 70080000 		.4byte	.LASF97
 4933 034d 06       		.byte	0x6
 4934 034e 27       		.byte	0x27
 4935 034f 17030000 		.4byte	0x317
 4936 0353 0E       		.uleb128 0xe
 4937 0354 7E060000 		.4byte	.LASF100
 4938 0358 01       		.byte	0x1
 4939 0359 A902     		.2byte	0x2a9
 4940 035b 01       		.byte	0x1
 4941 035c 85030000 		.4byte	0x385
 4942 0360 0F       		.uleb128 0xf
 4943 0361 54020000 		.4byte	.LASF102
 4944 0365 01       		.byte	0x1
 4945 0366 A902     		.2byte	0x2a9
 4946 0368 03010000 		.4byte	0x103
 4947 036c 10       		.uleb128 0x10
 4948 036d 81070000 		.4byte	.LASF98
 4949 0371 01       		.byte	0x1
 4950 0372 AB02     		.2byte	0x2ab
 4951 0374 09010000 		.4byte	0x109
 4952 0378 10       		.uleb128 0x10
 4953 0379 280D0000 		.4byte	.LASF99
 4954 037d 01       		.byte	0x1
 4955 037e AC02     		.2byte	0x2ac
 4956 0380 03010000 		.4byte	0x103
 4957 0384 00       		.byte	0
 4958 0385 0E       		.uleb128 0xe
 4959 0386 920D0000 		.4byte	.LASF101
 4960 038a 01       		.byte	0x1
 4961 038b 9C04     		.2byte	0x49c
 4962 038d 01       		.byte	0x1
 4963 038e B7030000 		.4byte	0x3b7
 4964 0392 0F       		.uleb128 0xf
ARM GAS  C:\Users\Administrator\AppData\Local\Temp\ccexfbaX.s 			page 135


 4965 0393 54020000 		.4byte	.LASF102
 4966 0397 01       		.byte	0x1
 4967 0398 9C04     		.2byte	0x49c
 4968 039a 03010000 		.4byte	0x103
 4969 039e 10       		.uleb128 0x10
 4970 039f 280D0000 		.4byte	.LASF99
 4971 03a3 01       		.byte	0x1
 4972 03a4 9E04     		.2byte	0x49e
 4973 03a6 03010000 		.4byte	0x103
 4974 03aa 10       		.uleb128 0x10
 4975 03ab E8000000 		.4byte	.LASF103
 4976 03af 01       		.byte	0x1
 4977 03b0 9F04     		.2byte	0x49f
 4978 03b2 AD000000 		.4byte	0xad
 4979 03b6 00       		.byte	0
 4980 03b7 11       		.uleb128 0x11
 4981 03b8 7C080000 		.4byte	.LASF107
 4982 03bc 01       		.byte	0x1
 4983 03bd 6502     		.2byte	0x265
 4984 03bf 00000000 		.4byte	.LFB73
 4985 03c3 30010000 		.4byte	.LFE73-.LFB73
 4986 03c7 01       		.uleb128 0x1
 4987 03c8 9C       		.byte	0x9c
 4988 03c9 62040000 		.4byte	0x462
 4989 03cd 12       		.uleb128 0x12
 4990 03ce 54020000 		.4byte	.LASF102
 4991 03d2 01       		.byte	0x1
 4992 03d3 6502     		.2byte	0x265
 4993 03d5 03010000 		.4byte	0x103
 4994 03d9 00000000 		.4byte	.LLST0
 4995 03dd 13       		.uleb128 0x13
 4996 03de 280D0000 		.4byte	.LASF99
 4997 03e2 01       		.byte	0x1
 4998 03e3 6702     		.2byte	0x267
 4999 03e5 03010000 		.4byte	0x103
 5000 03e9 3A000000 		.4byte	.LLST1
 5001 03ed 13       		.uleb128 0x13
 5002 03ee 0F0F0000 		.4byte	.LASF104
 5003 03f2 01       		.byte	0x1
 5004 03f3 6802     		.2byte	0x268
 5005 03f5 62040000 		.4byte	0x462
 5006 03f9 93000000 		.4byte	.LLST2
 5007 03fd 13       		.uleb128 0x13
 5008 03fe 820F0000 		.4byte	.LASF105
 5009 0402 01       		.byte	0x1
 5010 0403 6902     		.2byte	0x269
 5011 0405 09010000 		.4byte	0x109
 5012 0409 FC000000 		.4byte	.LLST3
 5013 040d 13       		.uleb128 0x13
 5014 040e 5B020000 		.4byte	.LASF106
 5015 0412 01       		.byte	0x1
 5016 0413 6A02     		.2byte	0x26a
 5017 0415 B9000000 		.4byte	0xb9
 5018 0419 E9010000 		.4byte	.LLST4
 5019 041d 14       		.uleb128 0x14
 5020 041e 12000000 		.4byte	.LVL3
 5021 0422 E4270000 		.4byte	0x27e4
ARM GAS  C:\Users\Administrator\AppData\Local\Temp\ccexfbaX.s 			page 136


 5022 0426 3D040000 		.4byte	0x43d
 5023 042a 15       		.uleb128 0x15
 5024 042b 01       		.uleb128 0x1
 5025 042c 50       		.byte	0x50
 5026 042d 02       		.uleb128 0x2
 5027 042e 77       		.byte	0x77
 5028 042f 00       		.sleb128 0
 5029 0430 15       		.uleb128 0x15
 5030 0431 01       		.uleb128 0x1
 5031 0432 51       		.byte	0x51
 5032 0433 02       		.uleb128 0x2
 5033 0434 75       		.byte	0x75
 5034 0435 0D       		.sleb128 13
 5035 0436 15       		.uleb128 0x15
 5036 0437 01       		.uleb128 0x1
 5037 0438 52       		.byte	0x52
 5038 0439 02       		.uleb128 0x2
 5039 043a 08       		.byte	0x8
 5040 043b C8       		.byte	0xc8
 5041 043c 00       		.byte	0
 5042 043d 14       		.uleb128 0x14
 5043 043e EE000000 		.4byte	.LVL33
 5044 0442 ED270000 		.4byte	0x27ed
 5045 0446 51040000 		.4byte	0x451
 5046 044a 15       		.uleb128 0x15
 5047 044b 01       		.uleb128 0x1
 5048 044c 50       		.byte	0x50
 5049 044d 02       		.uleb128 0x2
 5050 044e 77       		.byte	0x77
 5051 044f 00       		.sleb128 0
 5052 0450 00       		.byte	0
 5053 0451 16       		.uleb128 0x16
 5054 0452 F8000000 		.4byte	.LVL34
 5055 0456 E4270000 		.4byte	0x27e4
 5056 045a 15       		.uleb128 0x15
 5057 045b 01       		.uleb128 0x1
 5058 045c 51       		.byte	0x51
 5059 045d 02       		.uleb128 0x2
 5060 045e 77       		.byte	0x77
 5061 045f 00       		.sleb128 0
 5062 0460 00       		.byte	0
 5063 0461 00       		.byte	0
 5064 0462 08       		.uleb128 0x8
 5065 0463 AD000000 		.4byte	0xad
 5066 0467 72040000 		.4byte	0x472
 5067 046b 09       		.uleb128 0x9
 5068 046c FC000000 		.4byte	0xfc
 5069 0470 01       		.byte	0x1
 5070 0471 00       		.byte	0
 5071 0472 17       		.uleb128 0x17
 5072 0473 22010000 		.4byte	.LASF108
 5073 0477 01       		.byte	0x1
 5074 0478 1304     		.2byte	0x413
 5075 047a 00000000 		.4byte	.LFB79
 5076 047e 38000000 		.4byte	.LFE79-.LFB79
 5077 0482 01       		.uleb128 0x1
 5078 0483 9C       		.byte	0x9c
ARM GAS  C:\Users\Administrator\AppData\Local\Temp\ccexfbaX.s 			page 137


 5079 0484 28050000 		.4byte	0x528
 5080 0488 12       		.uleb128 0x12
 5081 0489 54020000 		.4byte	.LASF102
 5082 048d 01       		.byte	0x1
 5083 048e 1304     		.2byte	0x413
 5084 0490 03010000 		.4byte	0x103
 5085 0494 FC010000 		.4byte	.LLST5
 5086 0498 18       		.uleb128 0x18
 5087 0499 EC100000 		.4byte	.LASF109
 5088 049d 01       		.byte	0x1
 5089 049e 1604     		.2byte	0x416
 5090 04a0 FC020000 		.4byte	0x2fc
 5091 04a4 02       		.uleb128 0x2
 5092 04a5 91       		.byte	0x91
 5093 04a6 70       		.sleb128 -16
 5094 04a7 18       		.uleb128 0x18
 5095 04a8 DD080000 		.4byte	.LASF110
 5096 04ac 01       		.byte	0x1
 5097 04ad 1704     		.2byte	0x417
 5098 04af FC020000 		.4byte	0x2fc
 5099 04b3 02       		.uleb128 0x2
 5100 04b4 91       		.byte	0x91
 5101 04b5 74       		.sleb128 -12
 5102 04b6 13       		.uleb128 0x13
 5103 04b7 9D0E0000 		.4byte	.LASF111
 5104 04bb 01       		.byte	0x1
 5105 04bc 1804     		.2byte	0x418
 5106 04be AD000000 		.4byte	0xad
 5107 04c2 28020000 		.4byte	.LLST6
 5108 04c6 14       		.uleb128 0x14
 5109 04c7 10000000 		.4byte	.LVL38
 5110 04cb E4270000 		.4byte	0x27e4
 5111 04cf E5040000 		.4byte	0x4e5
 5112 04d3 15       		.uleb128 0x15
 5113 04d4 01       		.uleb128 0x1
 5114 04d5 50       		.byte	0x50
 5115 04d6 02       		.uleb128 0x2
 5116 04d7 7D       		.byte	0x7d
 5117 04d8 00       		.sleb128 0
 5118 04d9 15       		.uleb128 0x15
 5119 04da 01       		.uleb128 0x1
 5120 04db 51       		.byte	0x51
 5121 04dc 02       		.uleb128 0x2
 5122 04dd 74       		.byte	0x74
 5123 04de 16       		.sleb128 22
 5124 04df 15       		.uleb128 0x15
 5125 04e0 01       		.uleb128 0x1
 5126 04e1 52       		.byte	0x52
 5127 04e2 01       		.uleb128 0x1
 5128 04e3 34       		.byte	0x34
 5129 04e4 00       		.byte	0
 5130 04e5 14       		.uleb128 0x14
 5131 04e6 1C000000 		.4byte	.LVL39
 5132 04ea E4270000 		.4byte	0x27e4
 5133 04ee 04050000 		.4byte	0x504
 5134 04f2 15       		.uleb128 0x15
 5135 04f3 01       		.uleb128 0x1
ARM GAS  C:\Users\Administrator\AppData\Local\Temp\ccexfbaX.s 			page 138


 5136 04f4 50       		.byte	0x50
 5137 04f5 02       		.uleb128 0x2
 5138 04f6 91       		.byte	0x91
 5139 04f7 74       		.sleb128 -12
 5140 04f8 15       		.uleb128 0x15
 5141 04f9 01       		.uleb128 0x1
 5142 04fa 51       		.byte	0x51
 5143 04fb 02       		.uleb128 0x2
 5144 04fc 74       		.byte	0x74
 5145 04fd 1A       		.sleb128 26
 5146 04fe 15       		.uleb128 0x15
 5147 04ff 01       		.uleb128 0x1
 5148 0500 52       		.byte	0x52
 5149 0501 01       		.uleb128 0x1
 5150 0502 34       		.byte	0x34
 5151 0503 00       		.byte	0
 5152 0504 14       		.uleb128 0x14
 5153 0505 2A000000 		.4byte	.LVL40
 5154 0509 F8270000 		.4byte	0x27f8
 5155 050d 1E050000 		.4byte	0x51e
 5156 0511 15       		.uleb128 0x15
 5157 0512 01       		.uleb128 0x1
 5158 0513 50       		.byte	0x50
 5159 0514 02       		.uleb128 0x2
 5160 0515 7D       		.byte	0x7d
 5161 0516 00       		.sleb128 0
 5162 0517 15       		.uleb128 0x15
 5163 0518 01       		.uleb128 0x1
 5164 0519 51       		.byte	0x51
 5165 051a 02       		.uleb128 0x2
 5166 051b 91       		.byte	0x91
 5167 051c 74       		.sleb128 -12
 5168 051d 00       		.byte	0
 5169 051e 19       		.uleb128 0x19
 5170 051f 2E000000 		.4byte	.LVL41
 5171 0523 03280000 		.4byte	0x2803
 5172 0527 00       		.byte	0
 5173 0528 17       		.uleb128 0x17
 5174 0529 FC0D0000 		.4byte	.LASF112
 5175 052d 01       		.byte	0x1
 5176 052e 8504     		.2byte	0x485
 5177 0530 00000000 		.4byte	.LFB82
 5178 0534 24000000 		.4byte	.LFE82-.LFB82
 5179 0538 01       		.uleb128 0x1
 5180 0539 9C       		.byte	0x9c
 5181 053a AD050000 		.4byte	0x5ad
 5182 053e 12       		.uleb128 0x12
 5183 053f 54020000 		.4byte	.LASF102
 5184 0543 01       		.byte	0x1
 5185 0544 8504     		.2byte	0x485
 5186 0546 03010000 		.4byte	0x103
 5187 054a 48020000 		.4byte	.LLST7
 5188 054e 13       		.uleb128 0x13
 5189 054f 280D0000 		.4byte	.LASF99
 5190 0553 01       		.byte	0x1
 5191 0554 8704     		.2byte	0x487
 5192 0556 03010000 		.4byte	0x103
ARM GAS  C:\Users\Administrator\AppData\Local\Temp\ccexfbaX.s 			page 139


 5193 055a 76020000 		.4byte	.LLST8
 5194 055e 18       		.uleb128 0x18
 5195 055f 3D0E0000 		.4byte	.LASF113
 5196 0563 01       		.byte	0x1
 5197 0564 8804     		.2byte	0x488
 5198 0566 FC020000 		.4byte	0x2fc
 5199 056a 02       		.uleb128 0x2
 5200 056b 91       		.byte	0x91
 5201 056c 74       		.sleb128 -12
 5202 056d 14       		.uleb128 0x14
 5203 056e 0E000000 		.4byte	.LVL46
 5204 0572 E4270000 		.4byte	0x27e4
 5205 0576 8F050000 		.4byte	0x58f
 5206 057a 15       		.uleb128 0x15
 5207 057b 01       		.uleb128 0x1
 5208 057c 50       		.byte	0x50
 5209 057d 02       		.uleb128 0x2
 5210 057e 91       		.byte	0x91
 5211 057f 74       		.sleb128 -12
 5212 0580 15       		.uleb128 0x15
 5213 0581 01       		.uleb128 0x1
 5214 0582 51       		.byte	0x51
 5215 0583 05       		.uleb128 0x5
 5216 0584 F3       		.byte	0xf3
 5217 0585 01       		.uleb128 0x1
 5218 0586 50       		.byte	0x50
 5219 0587 23       		.byte	0x23
 5220 0588 11       		.uleb128 0x11
 5221 0589 15       		.uleb128 0x15
 5222 058a 01       		.uleb128 0x1
 5223 058b 52       		.byte	0x52
 5224 058c 01       		.uleb128 0x1
 5225 058d 34       		.byte	0x34
 5226 058e 00       		.byte	0
 5227 058f 14       		.uleb128 0x14
 5228 0590 14000000 		.4byte	.LVL47
 5229 0594 0F280000 		.4byte	0x280f
 5230 0598 A3050000 		.4byte	0x5a3
 5231 059c 15       		.uleb128 0x15
 5232 059d 01       		.uleb128 0x1
 5233 059e 50       		.byte	0x50
 5234 059f 02       		.uleb128 0x2
 5235 05a0 91       		.byte	0x91
 5236 05a1 74       		.sleb128 -12
 5237 05a2 00       		.byte	0
 5238 05a3 19       		.uleb128 0x19
 5239 05a4 18000000 		.4byte	.LVL48
 5240 05a8 03280000 		.4byte	0x2803
 5241 05ac 00       		.byte	0
 5242 05ad 17       		.uleb128 0x17
 5243 05ae 42000000 		.4byte	.LASF114
 5244 05b2 01       		.byte	0x1
 5245 05b3 3904     		.2byte	0x439
 5246 05b5 00000000 		.4byte	.LFB80
 5247 05b9 54000000 		.4byte	.LFE80-.LFB80
 5248 05bd 01       		.uleb128 0x1
 5249 05be 9C       		.byte	0x9c
ARM GAS  C:\Users\Administrator\AppData\Local\Temp\ccexfbaX.s 			page 140


 5250 05bf 57060000 		.4byte	0x657
 5251 05c3 12       		.uleb128 0x12
 5252 05c4 54020000 		.4byte	.LASF102
 5253 05c8 01       		.byte	0x1
 5254 05c9 3904     		.2byte	0x439
 5255 05cb 03010000 		.4byte	0x103
 5256 05cf A6020000 		.4byte	.LLST9
 5257 05d3 1A       		.uleb128 0x1a
 5258 05d4 72657400 		.ascii	"ret\000"
 5259 05d8 01       		.byte	0x1
 5260 05d9 3B04     		.2byte	0x43b
 5261 05db AD000000 		.4byte	0xad
 5262 05df 13       		.uleb128 0x13
 5263 05e0 280D0000 		.4byte	.LASF99
 5264 05e4 01       		.byte	0x1
 5265 05e5 3C04     		.2byte	0x43c
 5266 05e7 03010000 		.4byte	0x103
 5267 05eb D4020000 		.4byte	.LLST10
 5268 05ef 18       		.uleb128 0x18
 5269 05f0 3D0E0000 		.4byte	.LASF113
 5270 05f4 01       		.byte	0x1
 5271 05f5 3D04     		.2byte	0x43d
 5272 05f7 FC020000 		.4byte	0x2fc
 5273 05fb 02       		.uleb128 0x2
 5274 05fc 91       		.byte	0x91
 5275 05fd 74       		.sleb128 -12
 5276 05fe 13       		.uleb128 0x13
 5277 05ff E8000000 		.4byte	.LASF103
 5278 0603 01       		.byte	0x1
 5279 0604 3E04     		.2byte	0x43e
 5280 0606 B9000000 		.4byte	0xb9
 5281 060a 0F030000 		.4byte	.LLST11
 5282 060e 14       		.uleb128 0x14
 5283 060f 2C000000 		.4byte	.LVL56
 5284 0613 E4270000 		.4byte	0x27e4
 5285 0617 30060000 		.4byte	0x630
 5286 061b 15       		.uleb128 0x15
 5287 061c 01       		.uleb128 0x1
 5288 061d 50       		.byte	0x50
 5289 061e 02       		.uleb128 0x2
 5290 061f 91       		.byte	0x91
 5291 0620 74       		.sleb128 -12
 5292 0621 15       		.uleb128 0x15
 5293 0622 01       		.uleb128 0x1
 5294 0623 51       		.byte	0x51
 5295 0624 05       		.uleb128 0x5
 5296 0625 F3       		.byte	0xf3
 5297 0626 01       		.uleb128 0x1
 5298 0627 50       		.byte	0x50
 5299 0628 23       		.byte	0x23
 5300 0629 11       		.uleb128 0x11
 5301 062a 15       		.uleb128 0x15
 5302 062b 01       		.uleb128 0x1
 5303 062c 52       		.byte	0x52
 5304 062d 01       		.uleb128 0x1
 5305 062e 34       		.byte	0x34
 5306 062f 00       		.byte	0
ARM GAS  C:\Users\Administrator\AppData\Local\Temp\ccexfbaX.s 			page 141


 5307 0630 14       		.uleb128 0x14
 5308 0631 32000000 		.4byte	.LVL57
 5309 0635 0F280000 		.4byte	0x280f
 5310 0639 44060000 		.4byte	0x644
 5311 063d 15       		.uleb128 0x15
 5312 063e 01       		.uleb128 0x1
 5313 063f 50       		.byte	0x50
 5314 0640 02       		.uleb128 0x2
 5315 0641 91       		.byte	0x91
 5316 0642 74       		.sleb128 -12
 5317 0643 00       		.byte	0
 5318 0644 19       		.uleb128 0x19
 5319 0645 36000000 		.4byte	.LVL58
 5320 0649 03280000 		.4byte	0x2803
 5321 064d 19       		.uleb128 0x19
 5322 064e 46000000 		.4byte	.LVL60
 5323 0652 1A280000 		.4byte	0x281a
 5324 0656 00       		.byte	0
 5325 0657 17       		.uleb128 0x17
 5326 0658 6B100000 		.4byte	.LASF115
 5327 065c 01       		.byte	0x1
 5328 065d 2806     		.2byte	0x628
 5329 065f 00000000 		.4byte	.LFB89
 5330 0663 6C000000 		.4byte	.LFE89-.LFB89
 5331 0667 01       		.uleb128 0x1
 5332 0668 9C       		.byte	0x9c
 5333 0669 64070000 		.4byte	0x764
 5334 066d 12       		.uleb128 0x12
 5335 066e 54020000 		.4byte	.LASF102
 5336 0672 01       		.byte	0x1
 5337 0673 2806     		.2byte	0x628
 5338 0675 03010000 		.4byte	0x103
 5339 0679 5E030000 		.4byte	.LLST12
 5340 067d 18       		.uleb128 0x18
 5341 067e 6F020000 		.4byte	.LASF116
 5342 0682 01       		.byte	0x1
 5343 0683 2A06     		.2byte	0x62a
 5344 0685 09010000 		.4byte	0x109
 5345 0689 02       		.uleb128 0x2
 5346 068a 91       		.byte	0x91
 5347 068b 60       		.sleb128 -32
 5348 068c 18       		.uleb128 0x18
 5349 068d 7E0B0000 		.4byte	.LASF117
 5350 0691 01       		.byte	0x1
 5351 0692 2D06     		.2byte	0x62d
 5352 0694 AD000000 		.4byte	0xad
 5353 0698 02       		.uleb128 0x2
 5354 0699 91       		.byte	0x91
 5355 069a 5F       		.sleb128 -33
 5356 069b 14       		.uleb128 0x14
 5357 069c 14000000 		.4byte	.LVL63
 5358 06a0 E4270000 		.4byte	0x27e4
 5359 06a4 BE060000 		.4byte	0x6be
 5360 06a8 15       		.uleb128 0x15
 5361 06a9 01       		.uleb128 0x1
 5362 06aa 50       		.byte	0x50
 5363 06ab 02       		.uleb128 0x2
ARM GAS  C:\Users\Administrator\AppData\Local\Temp\ccexfbaX.s 			page 142


 5364 06ac 74       		.byte	0x74
 5365 06ad 00       		.sleb128 0
 5366 06ae 15       		.uleb128 0x15
 5367 06af 01       		.uleb128 0x1
 5368 06b0 51       		.byte	0x51
 5369 06b1 05       		.uleb128 0x5
 5370 06b2 F3       		.byte	0xf3
 5371 06b3 01       		.uleb128 0x1
 5372 06b4 50       		.byte	0x50
 5373 06b5 23       		.byte	0x23
 5374 06b6 0D       		.uleb128 0xd
 5375 06b7 15       		.uleb128 0x15
 5376 06b8 01       		.uleb128 0x1
 5377 06b9 52       		.byte	0x52
 5378 06ba 02       		.uleb128 0x2
 5379 06bb 76       		.byte	0x76
 5380 06bc 00       		.sleb128 0
 5381 06bd 00       		.byte	0
 5382 06be 14       		.uleb128 0x14
 5383 06bf 26000000 		.4byte	.LVL64
 5384 06c3 25280000 		.4byte	0x2825
 5385 06c7 E0060000 		.4byte	0x6e0
 5386 06cb 15       		.uleb128 0x15
 5387 06cc 01       		.uleb128 0x1
 5388 06cd 50       		.byte	0x50
 5389 06ce 02       		.uleb128 0x2
 5390 06cf 77       		.byte	0x77
 5391 06d0 00       		.sleb128 0
 5392 06d1 15       		.uleb128 0x15
 5393 06d2 01       		.uleb128 0x1
 5394 06d3 51       		.byte	0x51
 5395 06d4 05       		.uleb128 0x5
 5396 06d5 0C       		.byte	0xc
 5397 06d6 06920100 		.4byte	0x19206
 5398 06da 15       		.uleb128 0x15
 5399 06db 01       		.uleb128 0x1
 5400 06dc 52       		.byte	0x52
 5401 06dd 01       		.uleb128 0x1
 5402 06de 31       		.byte	0x31
 5403 06df 00       		.byte	0
 5404 06e0 14       		.uleb128 0x14
 5405 06e1 3A000000 		.4byte	.LVL65
 5406 06e5 30280000 		.4byte	0x2830
 5407 06e9 02070000 		.4byte	0x702
 5408 06ed 15       		.uleb128 0x15
 5409 06ee 01       		.uleb128 0x1
 5410 06ef 50       		.byte	0x50
 5411 06f0 02       		.uleb128 0x2
 5412 06f1 74       		.byte	0x74
 5413 06f2 00       		.sleb128 0
 5414 06f3 15       		.uleb128 0x15
 5415 06f4 01       		.uleb128 0x1
 5416 06f5 51       		.byte	0x51
 5417 06f6 04       		.uleb128 0x4
 5418 06f7 08       		.byte	0x8
 5419 06f8 C9       		.byte	0xc9
 5420 06f9 39       		.byte	0x39
ARM GAS  C:\Users\Administrator\AppData\Local\Temp\ccexfbaX.s 			page 143


 5421 06fa 24       		.byte	0x24
 5422 06fb 15       		.uleb128 0x15
 5423 06fc 01       		.uleb128 0x1
 5424 06fd 52       		.byte	0x52
 5425 06fe 02       		.uleb128 0x2
 5426 06ff 76       		.byte	0x76
 5427 0700 00       		.sleb128 0
 5428 0701 00       		.byte	0
 5429 0702 14       		.uleb128 0x14
 5430 0703 44000000 		.4byte	.LVL66
 5431 0707 30280000 		.4byte	0x2830
 5432 070b 25070000 		.4byte	0x725
 5433 070f 15       		.uleb128 0x15
 5434 0710 01       		.uleb128 0x1
 5435 0711 50       		.byte	0x50
 5436 0712 02       		.uleb128 0x2
 5437 0713 77       		.byte	0x77
 5438 0714 00       		.sleb128 0
 5439 0715 15       		.uleb128 0x15
 5440 0716 01       		.uleb128 0x1
 5441 0717 51       		.byte	0x51
 5442 0718 05       		.uleb128 0x5
 5443 0719 0C       		.byte	0xc
 5444 071a 06920100 		.4byte	0x19206
 5445 071e 15       		.uleb128 0x15
 5446 071f 01       		.uleb128 0x1
 5447 0720 52       		.byte	0x52
 5448 0721 02       		.uleb128 0x2
 5449 0722 75       		.byte	0x75
 5450 0723 00       		.sleb128 0
 5451 0724 00       		.byte	0
 5452 0725 14       		.uleb128 0x14
 5453 0726 4A000000 		.4byte	.LVL67
 5454 072a 3B280000 		.4byte	0x283b
 5455 072e 38070000 		.4byte	0x738
 5456 0732 15       		.uleb128 0x15
 5457 0733 01       		.uleb128 0x1
 5458 0734 50       		.byte	0x50
 5459 0735 01       		.uleb128 0x1
 5460 0736 34       		.byte	0x34
 5461 0737 00       		.byte	0
 5462 0738 14       		.uleb128 0x14
 5463 0739 52000000 		.4byte	.LVL68
 5464 073d 46280000 		.4byte	0x2846
 5465 0741 52070000 		.4byte	0x752
 5466 0745 15       		.uleb128 0x15
 5467 0746 01       		.uleb128 0x1
 5468 0747 50       		.byte	0x50
 5469 0748 02       		.uleb128 0x2
 5470 0749 74       		.byte	0x74
 5471 074a 00       		.sleb128 0
 5472 074b 15       		.uleb128 0x15
 5473 074c 01       		.uleb128 0x1
 5474 074d 51       		.byte	0x51
 5475 074e 02       		.uleb128 0x2
 5476 074f 76       		.byte	0x76
 5477 0750 00       		.sleb128 0
ARM GAS  C:\Users\Administrator\AppData\Local\Temp\ccexfbaX.s 			page 144


 5478 0751 00       		.byte	0
 5479 0752 16       		.uleb128 0x16
 5480 0753 5A000000 		.4byte	.LVL69
 5481 0757 51280000 		.4byte	0x2851
 5482 075b 15       		.uleb128 0x15
 5483 075c 01       		.uleb128 0x1
 5484 075d 50       		.byte	0x50
 5485 075e 03       		.uleb128 0x3
 5486 075f 0A       		.byte	0xa
 5487 0760 E803     		.2byte	0x3e8
 5488 0762 00       		.byte	0
 5489 0763 00       		.byte	0
 5490 0764 1B       		.uleb128 0x1b
 5491 0765 00000000 		.4byte	.LASF120
 5492 0769 01       		.byte	0x1
 5493 076a 58       		.byte	0x58
 5494 076b 7E000000 		.4byte	0x7e
 5495 076f 00000000 		.4byte	.LFB63
 5496 0773 60000000 		.4byte	.LFE63-.LFB63
 5497 0777 01       		.uleb128 0x1
 5498 0778 9C       		.byte	0x9c
 5499 0779 12080000 		.4byte	0x812
 5500 077d 1C       		.uleb128 0x1c
 5501 077e 970B0000 		.4byte	.LASF118
 5502 0782 01       		.byte	0x1
 5503 0783 58       		.byte	0x58
 5504 0784 03010000 		.4byte	0x103
 5505 0788 8C030000 		.4byte	.LLST13
 5506 078c 1D       		.uleb128 0x1d
 5507 078d 4C020000 		.4byte	.LASF119
 5508 0791 01       		.byte	0x1
 5509 0792 5A       		.byte	0x5a
 5510 0793 EC020000 		.4byte	0x2ec
 5511 0797 02       		.uleb128 0x2
 5512 0798 91       		.byte	0x91
 5513 0799 70       		.sleb128 -16
 5514 079a 14       		.uleb128 0x14
 5515 079b 0E000000 		.4byte	.LVL72
 5516 079f 5C280000 		.4byte	0x285c
 5517 07a3 B8070000 		.4byte	0x7b8
 5518 07a7 15       		.uleb128 0x15
 5519 07a8 01       		.uleb128 0x1
 5520 07a9 50       		.byte	0x50
 5521 07aa 02       		.uleb128 0x2
 5522 07ab 7D       		.byte	0x7d
 5523 07ac 00       		.sleb128 0
 5524 07ad 15       		.uleb128 0x15
 5525 07ae 01       		.uleb128 0x1
 5526 07af 51       		.byte	0x51
 5527 07b0 01       		.uleb128 0x1
 5528 07b1 30       		.byte	0x30
 5529 07b2 15       		.uleb128 0x15
 5530 07b3 01       		.uleb128 0x1
 5531 07b4 52       		.byte	0x52
 5532 07b5 01       		.uleb128 0x1
 5533 07b6 38       		.byte	0x38
 5534 07b7 00       		.byte	0
ARM GAS  C:\Users\Administrator\AppData\Local\Temp\ccexfbaX.s 			page 145


 5535 07b8 14       		.uleb128 0x14
 5536 07b9 48000000 		.4byte	.LVL73
 5537 07bd E4270000 		.4byte	0x27e4
 5538 07c1 D7070000 		.4byte	0x7d7
 5539 07c5 15       		.uleb128 0x15
 5540 07c6 01       		.uleb128 0x1
 5541 07c7 50       		.byte	0x50
 5542 07c8 02       		.uleb128 0x2
 5543 07c9 91       		.byte	0x91
 5544 07ca 74       		.sleb128 -12
 5545 07cb 15       		.uleb128 0x15
 5546 07cc 01       		.uleb128 0x1
 5547 07cd 51       		.byte	0x51
 5548 07ce 02       		.uleb128 0x2
 5549 07cf 74       		.byte	0x74
 5550 07d0 00       		.sleb128 0
 5551 07d1 15       		.uleb128 0x15
 5552 07d2 01       		.uleb128 0x1
 5553 07d3 52       		.byte	0x52
 5554 07d4 01       		.uleb128 0x1
 5555 07d5 34       		.byte	0x34
 5556 07d6 00       		.byte	0
 5557 07d7 14       		.uleb128 0x14
 5558 07d8 52000000 		.4byte	.LVL74
 5559 07dc E4270000 		.4byte	0x27e4
 5560 07e0 F6070000 		.4byte	0x7f6
 5561 07e4 15       		.uleb128 0x15
 5562 07e5 01       		.uleb128 0x1
 5563 07e6 50       		.byte	0x50
 5564 07e7 02       		.uleb128 0x2
 5565 07e8 7D       		.byte	0x7d
 5566 07e9 00       		.sleb128 0
 5567 07ea 15       		.uleb128 0x15
 5568 07eb 01       		.uleb128 0x1
 5569 07ec 51       		.byte	0x51
 5570 07ed 02       		.uleb128 0x2
 5571 07ee 74       		.byte	0x74
 5572 07ef 04       		.sleb128 4
 5573 07f0 15       		.uleb128 0x15
 5574 07f1 01       		.uleb128 0x1
 5575 07f2 52       		.byte	0x52
 5576 07f3 01       		.uleb128 0x1
 5577 07f4 34       		.byte	0x34
 5578 07f5 00       		.byte	0
 5579 07f6 16       		.uleb128 0x16
 5580 07f7 5C000000 		.4byte	.LVL75
 5581 07fb E4270000 		.4byte	0x27e4
 5582 07ff 15       		.uleb128 0x15
 5583 0800 01       		.uleb128 0x1
 5584 0801 50       		.byte	0x50
 5585 0802 02       		.uleb128 0x2
 5586 0803 74       		.byte	0x74
 5587 0804 00       		.sleb128 0
 5588 0805 15       		.uleb128 0x15
 5589 0806 01       		.uleb128 0x1
 5590 0807 51       		.byte	0x51
 5591 0808 02       		.uleb128 0x2
ARM GAS  C:\Users\Administrator\AppData\Local\Temp\ccexfbaX.s 			page 146


 5592 0809 7D       		.byte	0x7d
 5593 080a 00       		.sleb128 0
 5594 080b 15       		.uleb128 0x15
 5595 080c 01       		.uleb128 0x1
 5596 080d 52       		.byte	0x52
 5597 080e 01       		.uleb128 0x1
 5598 080f 38       		.byte	0x38
 5599 0810 00       		.byte	0
 5600 0811 00       		.byte	0
 5601 0812 1E       		.uleb128 0x1e
 5602 0813 770A0000 		.4byte	.LASF144
 5603 0817 01       		.byte	0x1
 5604 0818 79       		.byte	0x79
 5605 0819 00000000 		.4byte	.LFB64
 5606 081d 68000000 		.4byte	.LFE64-.LFB64
 5607 0821 01       		.uleb128 0x1
 5608 0822 9C       		.byte	0x9c
 5609 0823 72080000 		.4byte	0x872
 5610 0827 14       		.uleb128 0x14
 5611 0828 28000000 		.4byte	.LVL77
 5612 082c 5C280000 		.4byte	0x285c
 5613 0830 41080000 		.4byte	0x841
 5614 0834 15       		.uleb128 0x15
 5615 0835 01       		.uleb128 0x1
 5616 0836 51       		.byte	0x51
 5617 0837 02       		.uleb128 0x2
 5618 0838 74       		.byte	0x74
 5619 0839 00       		.sleb128 0
 5620 083a 15       		.uleb128 0x15
 5621 083b 01       		.uleb128 0x1
 5622 083c 52       		.byte	0x52
 5623 083d 02       		.uleb128 0x2
 5624 083e 75       		.byte	0x75
 5625 083f 00       		.sleb128 0
 5626 0840 00       		.byte	0
 5627 0841 14       		.uleb128 0x14
 5628 0842 32000000 		.4byte	.LVL78
 5629 0846 5C280000 		.4byte	0x285c
 5630 084a 5B080000 		.4byte	0x85b
 5631 084e 15       		.uleb128 0x15
 5632 084f 01       		.uleb128 0x1
 5633 0850 51       		.byte	0x51
 5634 0851 02       		.uleb128 0x2
 5635 0852 74       		.byte	0x74
 5636 0853 00       		.sleb128 0
 5637 0854 15       		.uleb128 0x15
 5638 0855 01       		.uleb128 0x1
 5639 0856 52       		.byte	0x52
 5640 0857 02       		.uleb128 0x2
 5641 0858 75       		.byte	0x75
 5642 0859 00       		.sleb128 0
 5643 085a 00       		.byte	0
 5644 085b 16       		.uleb128 0x16
 5645 085c 3C000000 		.4byte	.LVL79
 5646 0860 5C280000 		.4byte	0x285c
 5647 0864 15       		.uleb128 0x15
 5648 0865 01       		.uleb128 0x1
ARM GAS  C:\Users\Administrator\AppData\Local\Temp\ccexfbaX.s 			page 147


 5649 0866 51       		.byte	0x51
 5650 0867 02       		.uleb128 0x2
 5651 0868 74       		.byte	0x74
 5652 0869 00       		.sleb128 0
 5653 086a 15       		.uleb128 0x15
 5654 086b 01       		.uleb128 0x1
 5655 086c 52       		.byte	0x52
 5656 086d 02       		.uleb128 0x2
 5657 086e 75       		.byte	0x75
 5658 086f 00       		.sleb128 0
 5659 0870 00       		.byte	0
 5660 0871 00       		.byte	0
 5661 0872 1B       		.uleb128 0x1b
 5662 0873 E70A0000 		.4byte	.LASF121
 5663 0877 01       		.byte	0x1
 5664 0878 90       		.byte	0x90
 5665 0879 8C000000 		.4byte	0x8c
 5666 087d 00000000 		.4byte	.LFB65
 5667 0881 70000000 		.4byte	.LFE65-.LFB65
 5668 0885 01       		.uleb128 0x1
 5669 0886 9C       		.byte	0x9c
 5670 0887 22090000 		.4byte	0x922
 5671 088b 1D       		.uleb128 0x1d
 5672 088c 830B0000 		.4byte	.LASF122
 5673 0890 01       		.byte	0x1
 5674 0891 92       		.byte	0x92
 5675 0892 22090000 		.4byte	0x922
 5676 0896 03       		.uleb128 0x3
 5677 0897 91       		.byte	0x91
 5678 0898 987F     		.sleb128 -104
 5679 089a 1F       		.uleb128 0x1f
 5680 089b 6F120000 		.4byte	.LASF123
 5681 089f 01       		.byte	0x1
 5682 08a0 93       		.byte	0x93
 5683 08a1 FC020000 		.4byte	0x2fc
 5684 08a5 B8030000 		.4byte	.LLST14
 5685 08a9 1F       		.uleb128 0x1f
 5686 08aa A40C0000 		.4byte	.LASF124
 5687 08ae 01       		.byte	0x1
 5688 08af 94       		.byte	0x94
 5689 08b0 A2000000 		.4byte	0xa2
 5690 08b4 F2030000 		.4byte	.LLST15
 5691 08b8 1F       		.uleb128 0x1f
 5692 08b9 CC010000 		.4byte	.LASF125
 5693 08bd 01       		.byte	0x1
 5694 08be 95       		.byte	0x95
 5695 08bf 97000000 		.4byte	0x97
 5696 08c3 05040000 		.4byte	.LLST16
 5697 08c7 20       		.uleb128 0x20
 5698 08c8 636E7400 		.ascii	"cnt\000"
 5699 08cc 01       		.byte	0x1
 5700 08cd 96       		.byte	0x96
 5701 08ce 97000000 		.4byte	0x97
 5702 08d2 24040000 		.4byte	.LLST17
 5703 08d6 20       		.uleb128 0x20
 5704 08d7 6900     		.ascii	"i\000"
 5705 08d9 01       		.byte	0x1
ARM GAS  C:\Users\Administrator\AppData\Local\Temp\ccexfbaX.s 			page 148


 5706 08da 97       		.byte	0x97
 5707 08db 97000000 		.4byte	0x97
 5708 08df D5040000 		.4byte	.LLST18
 5709 08e3 21       		.uleb128 0x21
 5710 08e4 EE080000 		.4byte	.LASF126
 5711 08e8 01       		.byte	0x1
 5712 08e9 98       		.byte	0x98
 5713 08ea 97000000 		.4byte	0x97
 5714 08ee 0F       		.byte	0xf
 5715 08ef 19       		.uleb128 0x19
 5716 08f0 34000000 		.4byte	.LVL89
 5717 08f4 03280000 		.4byte	0x2803
 5718 08f8 14       		.uleb128 0x14
 5719 08f9 4C000000 		.4byte	.LVL94
 5720 08fd 65280000 		.4byte	0x2865
 5721 0901 11090000 		.4byte	0x911
 5722 0905 15       		.uleb128 0x15
 5723 0906 01       		.uleb128 0x1
 5724 0907 50       		.byte	0x50
 5725 0908 02       		.uleb128 0x2
 5726 0909 7D       		.byte	0x7d
 5727 090a 00       		.sleb128 0
 5728 090b 15       		.uleb128 0x15
 5729 090c 01       		.uleb128 0x1
 5730 090d 51       		.byte	0x51
 5731 090e 01       		.uleb128 0x1
 5732 090f 41       		.byte	0x41
 5733 0910 00       		.byte	0
 5734 0911 16       		.uleb128 0x16
 5735 0912 66000000 		.4byte	.LVL97
 5736 0916 70280000 		.4byte	0x2870
 5737 091a 15       		.uleb128 0x15
 5738 091b 01       		.uleb128 0x1
 5739 091c 50       		.byte	0x50
 5740 091d 02       		.uleb128 0x2
 5741 091e 7D       		.byte	0x7d
 5742 091f 00       		.sleb128 0
 5743 0920 00       		.byte	0
 5744 0921 00       		.byte	0
 5745 0922 08       		.uleb128 0x8
 5746 0923 AD000000 		.4byte	0xad
 5747 0927 32090000 		.4byte	0x932
 5748 092b 09       		.uleb128 0x9
 5749 092c FC000000 		.4byte	0xfc
 5750 0930 5F       		.byte	0x5f
 5751 0931 00       		.byte	0
 5752 0932 1B       		.uleb128 0x1b
 5753 0933 44050000 		.4byte	.LASF127
 5754 0937 01       		.byte	0x1
 5755 0938 BE       		.byte	0xbe
 5756 0939 8C000000 		.4byte	0x8c
 5757 093d 00000000 		.4byte	.LFB66
 5758 0941 84000000 		.4byte	.LFE66-.LFB66
 5759 0945 01       		.uleb128 0x1
 5760 0946 9C       		.byte	0x9c
 5761 0947 F1090000 		.4byte	0x9f1
 5762 094b 20       		.uleb128 0x20
ARM GAS  C:\Users\Administrator\AppData\Local\Temp\ccexfbaX.s 			page 149


 5763 094c 76657200 		.ascii	"ver\000"
 5764 0950 01       		.byte	0x1
 5765 0951 C0       		.byte	0xc0
 5766 0952 AD000000 		.4byte	0xad
 5767 0956 F4040000 		.4byte	.LLST19
 5768 095a 1D       		.uleb128 0x1d
 5769 095b 830B0000 		.4byte	.LASF122
 5770 095f 01       		.byte	0x1
 5771 0960 C1       		.byte	0xc1
 5772 0961 22090000 		.4byte	0x922
 5773 0965 03       		.uleb128 0x3
 5774 0966 91       		.byte	0x91
 5775 0967 987F     		.sleb128 -104
 5776 0969 1F       		.uleb128 0x1f
 5777 096a 6F120000 		.4byte	.LASF123
 5778 096e 01       		.byte	0x1
 5779 096f C2       		.byte	0xc2
 5780 0970 FC020000 		.4byte	0x2fc
 5781 0974 07050000 		.4byte	.LLST20
 5782 0978 1F       		.uleb128 0x1f
 5783 0979 A40C0000 		.4byte	.LASF124
 5784 097d 01       		.byte	0x1
 5785 097e C3       		.byte	0xc3
 5786 097f A2000000 		.4byte	0xa2
 5787 0983 41050000 		.4byte	.LLST21
 5788 0987 1F       		.uleb128 0x1f
 5789 0988 CC010000 		.4byte	.LASF125
 5790 098c 01       		.byte	0x1
 5791 098d C4       		.byte	0xc4
 5792 098e 97000000 		.4byte	0x97
 5793 0992 54050000 		.4byte	.LLST22
 5794 0996 20       		.uleb128 0x20
 5795 0997 636E7400 		.ascii	"cnt\000"
 5796 099b 01       		.byte	0x1
 5797 099c C5       		.byte	0xc5
 5798 099d 97000000 		.4byte	0x97
 5799 09a1 73050000 		.4byte	.LLST23
 5800 09a5 20       		.uleb128 0x20
 5801 09a6 6900     		.ascii	"i\000"
 5802 09a8 01       		.byte	0x1
 5803 09a9 C6       		.byte	0xc6
 5804 09aa 97000000 		.4byte	0x97
 5805 09ae 30060000 		.4byte	.LLST24
 5806 09b2 21       		.uleb128 0x21
 5807 09b3 EE080000 		.4byte	.LASF126
 5808 09b7 01       		.byte	0x1
 5809 09b8 C7       		.byte	0xc7
 5810 09b9 97000000 		.4byte	0x97
 5811 09bd 11       		.byte	0x11
 5812 09be 19       		.uleb128 0x19
 5813 09bf 42000000 		.4byte	.LVL108
 5814 09c3 03280000 		.4byte	0x2803
 5815 09c7 14       		.uleb128 0x14
 5816 09c8 5A000000 		.4byte	.LVL113
 5817 09cc 65280000 		.4byte	0x2865
 5818 09d0 E0090000 		.4byte	0x9e0
 5819 09d4 15       		.uleb128 0x15
ARM GAS  C:\Users\Administrator\AppData\Local\Temp\ccexfbaX.s 			page 150


 5820 09d5 01       		.uleb128 0x1
 5821 09d6 50       		.byte	0x50
 5822 09d7 02       		.uleb128 0x2
 5823 09d8 7D       		.byte	0x7d
 5824 09d9 00       		.sleb128 0
 5825 09da 15       		.uleb128 0x15
 5826 09db 01       		.uleb128 0x1
 5827 09dc 51       		.byte	0x51
 5828 09dd 01       		.uleb128 0x1
 5829 09de 43       		.byte	0x43
 5830 09df 00       		.byte	0
 5831 09e0 16       		.uleb128 0x16
 5832 09e1 74000000 		.4byte	.LVL116
 5833 09e5 70280000 		.4byte	0x2870
 5834 09e9 15       		.uleb128 0x15
 5835 09ea 01       		.uleb128 0x1
 5836 09eb 50       		.byte	0x50
 5837 09ec 02       		.uleb128 0x2
 5838 09ed 7D       		.byte	0x7d
 5839 09ee 00       		.sleb128 0
 5840 09ef 00       		.byte	0
 5841 09f0 00       		.byte	0
 5842 09f1 1B       		.uleb128 0x1b
 5843 09f2 59120000 		.4byte	.LASF128
 5844 09f6 01       		.byte	0x1
 5845 09f7 F4       		.byte	0xf4
 5846 09f8 8C000000 		.4byte	0x8c
 5847 09fc 00000000 		.4byte	.LFB67
 5848 0a00 00010000 		.4byte	.LFE67-.LFB67
 5849 0a04 01       		.uleb128 0x1
 5850 0a05 9C       		.byte	0x9c
 5851 0a06 FA0A0000 		.4byte	0xafa
 5852 0a0a 1C       		.uleb128 0x1c
 5853 0a0b F10B0000 		.4byte	.LASF129
 5854 0a0f 01       		.byte	0x1
 5855 0a10 F4       		.byte	0xf4
 5856 0a11 FA0A0000 		.4byte	0xafa
 5857 0a15 4F060000 		.4byte	.LLST25
 5858 0a19 1C       		.uleb128 0x1c
 5859 0a1a 0B010000 		.4byte	.LASF130
 5860 0a1e 01       		.byte	0x1
 5861 0a1f F4       		.byte	0xf4
 5862 0a20 8C000000 		.4byte	0x8c
 5863 0a24 7B060000 		.4byte	.LLST26
 5864 0a28 1C       		.uleb128 0x1c
 5865 0a29 490E0000 		.4byte	.LASF131
 5866 0a2d 01       		.byte	0x1
 5867 0a2e F4       		.byte	0xf4
 5868 0a2f 8C000000 		.4byte	0x8c
 5869 0a33 9C060000 		.4byte	.LLST27
 5870 0a37 1D       		.uleb128 0x1d
 5871 0a38 830B0000 		.4byte	.LASF122
 5872 0a3c 01       		.byte	0x1
 5873 0a3d F6       		.byte	0xf6
 5874 0a3e 22090000 		.4byte	0x922
 5875 0a42 03       		.uleb128 0x3
 5876 0a43 91       		.byte	0x91
ARM GAS  C:\Users\Administrator\AppData\Local\Temp\ccexfbaX.s 			page 151


 5877 0a44 907F     		.sleb128 -112
 5878 0a46 1F       		.uleb128 0x1f
 5879 0a47 6F120000 		.4byte	.LASF123
 5880 0a4b 01       		.byte	0x1
 5881 0a4c F7       		.byte	0xf7
 5882 0a4d FC020000 		.4byte	0x2fc
 5883 0a51 BD060000 		.4byte	.LLST28
 5884 0a55 1F       		.uleb128 0x1f
 5885 0a56 A40C0000 		.4byte	.LASF124
 5886 0a5a 01       		.byte	0x1
 5887 0a5b F8       		.byte	0xf8
 5888 0a5c A2000000 		.4byte	0xa2
 5889 0a60 FA060000 		.4byte	.LLST29
 5890 0a64 1F       		.uleb128 0x1f
 5891 0a65 CC010000 		.4byte	.LASF125
 5892 0a69 01       		.byte	0x1
 5893 0a6a F9       		.byte	0xf9
 5894 0a6b 97000000 		.4byte	0x97
 5895 0a6f 0D070000 		.4byte	.LLST30
 5896 0a73 20       		.uleb128 0x20
 5897 0a74 636E7400 		.ascii	"cnt\000"
 5898 0a78 01       		.byte	0x1
 5899 0a79 FA       		.byte	0xfa
 5900 0a7a 97000000 		.4byte	0x97
 5901 0a7e 2C070000 		.4byte	.LLST31
 5902 0a82 20       		.uleb128 0x20
 5903 0a83 6900     		.ascii	"i\000"
 5904 0a85 01       		.byte	0x1
 5905 0a86 FB       		.byte	0xfb
 5906 0a87 97000000 		.4byte	0x97
 5907 0a8b 01080000 		.4byte	.LLST32
 5908 0a8f 1F       		.uleb128 0x1f
 5909 0a90 280D0000 		.4byte	.LASF99
 5910 0a94 01       		.byte	0x1
 5911 0a95 FC       		.byte	0xfc
 5912 0a96 FA0A0000 		.4byte	0xafa
 5913 0a9a 5A080000 		.4byte	.LLST33
 5914 0a9e 21       		.uleb128 0x21
 5915 0a9f EE080000 		.4byte	.LASF126
 5916 0aa3 01       		.byte	0x1
 5917 0aa4 FD       		.byte	0xfd
 5918 0aa5 97000000 		.4byte	0x97
 5919 0aa9 1C       		.byte	0x1c
 5920 0aaa 14       		.uleb128 0x14
 5921 0aab 3E000000 		.4byte	.LVL126
 5922 0aaf 64070000 		.4byte	0x764
 5923 0ab3 BE0A0000 		.4byte	0xabe
 5924 0ab7 15       		.uleb128 0x15
 5925 0ab8 01       		.uleb128 0x1
 5926 0ab9 50       		.byte	0x50
 5927 0aba 02       		.uleb128 0x2
 5928 0abb 75       		.byte	0x75
 5929 0abc 00       		.sleb128 0
 5930 0abd 00       		.byte	0
 5931 0abe 19       		.uleb128 0x19
 5932 0abf 7A000000 		.4byte	.LVL138
 5933 0ac3 03280000 		.4byte	0x2803
ARM GAS  C:\Users\Administrator\AppData\Local\Temp\ccexfbaX.s 			page 152


 5934 0ac7 14       		.uleb128 0x14
 5935 0ac8 9C000000 		.4byte	.LVL143
 5936 0acc 65280000 		.4byte	0x2865
 5937 0ad0 E00A0000 		.4byte	0xae0
 5938 0ad4 15       		.uleb128 0x15
 5939 0ad5 01       		.uleb128 0x1
 5940 0ad6 50       		.byte	0x50
 5941 0ad7 02       		.uleb128 0x2
 5942 0ad8 7D       		.byte	0x7d
 5943 0ad9 00       		.sleb128 0
 5944 0ada 15       		.uleb128 0x15
 5945 0adb 01       		.uleb128 0x1
 5946 0adc 51       		.byte	0x51
 5947 0add 01       		.uleb128 0x1
 5948 0ade 4E       		.byte	0x4e
 5949 0adf 00       		.byte	0
 5950 0ae0 19       		.uleb128 0x19
 5951 0ae1 AE000000 		.4byte	.LVL145
 5952 0ae5 03280000 		.4byte	0x2803
 5953 0ae9 16       		.uleb128 0x16
 5954 0aea E2000000 		.4byte	.LVL146
 5955 0aee 70280000 		.4byte	0x2870
 5956 0af2 15       		.uleb128 0x15
 5957 0af3 01       		.uleb128 0x1
 5958 0af4 50       		.byte	0x50
 5959 0af5 02       		.uleb128 0x2
 5960 0af6 7D       		.byte	0x7d
 5961 0af7 00       		.sleb128 0
 5962 0af8 00       		.byte	0
 5963 0af9 00       		.byte	0
 5964 0afa 07       		.uleb128 0x7
 5965 0afb 04       		.byte	0x4
 5966 0afc 48030000 		.4byte	0x348
 5967 0b00 22       		.uleb128 0x22
 5968 0b01 86000000 		.4byte	.LASF132
 5969 0b05 01       		.byte	0x1
 5970 0b06 4401     		.2byte	0x144
 5971 0b08 8C000000 		.4byte	0x8c
 5972 0b0c 00000000 		.4byte	.LFB68
 5973 0b10 78000000 		.4byte	.LFE68-.LFB68
 5974 0b14 01       		.uleb128 0x1
 5975 0b15 9C       		.byte	0x9c
 5976 0b16 C80B0000 		.4byte	0xbc8
 5977 0b1a 12       		.uleb128 0x12
 5978 0b1b D60C0000 		.4byte	.LASF133
 5979 0b1f 01       		.byte	0x1
 5980 0b20 4401     		.2byte	0x144
 5981 0b22 8C000000 		.4byte	0x8c
 5982 0b26 86080000 		.4byte	.LLST34
 5983 0b2a 18       		.uleb128 0x18
 5984 0b2b 830B0000 		.4byte	.LASF122
 5985 0b2f 01       		.byte	0x1
 5986 0b30 4601     		.2byte	0x146
 5987 0b32 22090000 		.4byte	0x922
 5988 0b36 03       		.uleb128 0x3
 5989 0b37 91       		.byte	0x91
 5990 0b38 987F     		.sleb128 -104
ARM GAS  C:\Users\Administrator\AppData\Local\Temp\ccexfbaX.s 			page 153


 5991 0b3a 13       		.uleb128 0x13
 5992 0b3b 6F120000 		.4byte	.LASF123
 5993 0b3f 01       		.byte	0x1
 5994 0b40 4701     		.2byte	0x147
 5995 0b42 FC020000 		.4byte	0x2fc
 5996 0b46 A7080000 		.4byte	.LLST35
 5997 0b4a 13       		.uleb128 0x13
 5998 0b4b A40C0000 		.4byte	.LASF124
 5999 0b4f 01       		.byte	0x1
 6000 0b50 4801     		.2byte	0x148
 6001 0b52 A2000000 		.4byte	0xa2
 6002 0b56 E1080000 		.4byte	.LLST36
 6003 0b5a 13       		.uleb128 0x13
 6004 0b5b CC010000 		.4byte	.LASF125
 6005 0b5f 01       		.byte	0x1
 6006 0b60 4901     		.2byte	0x149
 6007 0b62 97000000 		.4byte	0x97
 6008 0b66 F4080000 		.4byte	.LLST37
 6009 0b6a 23       		.uleb128 0x23
 6010 0b6b 636E7400 		.ascii	"cnt\000"
 6011 0b6f 01       		.byte	0x1
 6012 0b70 4A01     		.2byte	0x14a
 6013 0b72 97000000 		.4byte	0x97
 6014 0b76 13090000 		.4byte	.LLST38
 6015 0b7a 23       		.uleb128 0x23
 6016 0b7b 6900     		.ascii	"i\000"
 6017 0b7d 01       		.byte	0x1
 6018 0b7e 4B01     		.2byte	0x14b
 6019 0b80 97000000 		.4byte	0x97
 6020 0b84 D0090000 		.4byte	.LLST39
 6021 0b88 24       		.uleb128 0x24
 6022 0b89 EE080000 		.4byte	.LASF126
 6023 0b8d 01       		.byte	0x1
 6024 0b8e 4C01     		.2byte	0x14c
 6025 0b90 97000000 		.4byte	0x97
 6026 0b94 10       		.byte	0x10
 6027 0b95 19       		.uleb128 0x19
 6028 0b96 3A000000 		.4byte	.LVL158
 6029 0b9a 03280000 		.4byte	0x2803
 6030 0b9e 14       		.uleb128 0x14
 6031 0b9f 52000000 		.4byte	.LVL163
 6032 0ba3 65280000 		.4byte	0x2865
 6033 0ba7 B70B0000 		.4byte	0xbb7
 6034 0bab 15       		.uleb128 0x15
 6035 0bac 01       		.uleb128 0x1
 6036 0bad 50       		.byte	0x50
 6037 0bae 02       		.uleb128 0x2
 6038 0baf 7D       		.byte	0x7d
 6039 0bb0 00       		.sleb128 0
 6040 0bb1 15       		.uleb128 0x15
 6041 0bb2 01       		.uleb128 0x1
 6042 0bb3 51       		.byte	0x51
 6043 0bb4 01       		.uleb128 0x1
 6044 0bb5 42       		.byte	0x42
 6045 0bb6 00       		.byte	0
 6046 0bb7 16       		.uleb128 0x16
 6047 0bb8 6C000000 		.4byte	.LVL166
ARM GAS  C:\Users\Administrator\AppData\Local\Temp\ccexfbaX.s 			page 154


 6048 0bbc 70280000 		.4byte	0x2870
 6049 0bc0 15       		.uleb128 0x15
 6050 0bc1 01       		.uleb128 0x1
 6051 0bc2 50       		.byte	0x50
 6052 0bc3 02       		.uleb128 0x2
 6053 0bc4 7D       		.byte	0x7d
 6054 0bc5 00       		.sleb128 0
 6055 0bc6 00       		.byte	0
 6056 0bc7 00       		.byte	0
 6057 0bc8 22       		.uleb128 0x22
 6058 0bc9 D7110000 		.4byte	.LASF134
 6059 0bcd 01       		.byte	0x1
 6060 0bce 7B01     		.2byte	0x17b
 6061 0bd0 8C000000 		.4byte	0x8c
 6062 0bd4 00000000 		.4byte	.LFB69
 6063 0bd8 8C000000 		.4byte	.LFE69-.LFB69
 6064 0bdc 01       		.uleb128 0x1
 6065 0bdd 9C       		.byte	0x9c
 6066 0bde 600C0000 		.4byte	0xc60
 6067 0be2 18       		.uleb128 0x18
 6068 0be3 830B0000 		.4byte	.LASF122
 6069 0be7 01       		.byte	0x1
 6070 0be8 7D01     		.2byte	0x17d
 6071 0bea 22090000 		.4byte	0x922
 6072 0bee 03       		.uleb128 0x3
 6073 0bef 91       		.byte	0x91
 6074 0bf0 987F     		.sleb128 -104
 6075 0bf2 13       		.uleb128 0x13
 6076 0bf3 CC010000 		.4byte	.LASF125
 6077 0bf7 01       		.byte	0x1
 6078 0bf8 7E01     		.2byte	0x17e
 6079 0bfa 97000000 		.4byte	0x97
 6080 0bfe EF090000 		.4byte	.LLST40
 6081 0c02 23       		.uleb128 0x23
 6082 0c03 636E7400 		.ascii	"cnt\000"
 6083 0c07 01       		.byte	0x1
 6084 0c08 7F01     		.2byte	0x17f
 6085 0c0a 97000000 		.4byte	0x97
 6086 0c0e 0E0A0000 		.4byte	.LLST41
 6087 0c12 23       		.uleb128 0x23
 6088 0c13 6900     		.ascii	"i\000"
 6089 0c15 01       		.byte	0x1
 6090 0c16 8001     		.2byte	0x180
 6091 0c18 97000000 		.4byte	0x97
 6092 0c1c BF0A0000 		.4byte	.LLST42
 6093 0c20 24       		.uleb128 0x24
 6094 0c21 EE080000 		.4byte	.LASF126
 6095 0c25 01       		.byte	0x1
 6096 0c26 8101     		.2byte	0x181
 6097 0c28 97000000 		.4byte	0x97
 6098 0c2c 0D       		.byte	0xd
 6099 0c2d 14       		.uleb128 0x14
 6100 0c2e 46000000 		.4byte	.LVL180
 6101 0c32 65280000 		.4byte	0x2865
 6102 0c36 460C0000 		.4byte	0xc46
 6103 0c3a 15       		.uleb128 0x15
 6104 0c3b 01       		.uleb128 0x1
ARM GAS  C:\Users\Administrator\AppData\Local\Temp\ccexfbaX.s 			page 155


 6105 0c3c 50       		.byte	0x50
 6106 0c3d 02       		.uleb128 0x2
 6107 0c3e 7D       		.byte	0x7d
 6108 0c3f 00       		.sleb128 0
 6109 0c40 15       		.uleb128 0x15
 6110 0c41 01       		.uleb128 0x1
 6111 0c42 51       		.byte	0x51
 6112 0c43 01       		.uleb128 0x1
 6113 0c44 3F       		.byte	0x3f
 6114 0c45 00       		.byte	0
 6115 0c46 19       		.uleb128 0x19
 6116 0c47 52000000 		.4byte	.LVL182
 6117 0c4b 03280000 		.4byte	0x2803
 6118 0c4f 16       		.uleb128 0x16
 6119 0c50 78000000 		.4byte	.LVL183
 6120 0c54 70280000 		.4byte	0x2870
 6121 0c58 15       		.uleb128 0x15
 6122 0c59 01       		.uleb128 0x1
 6123 0c5a 50       		.byte	0x50
 6124 0c5b 02       		.uleb128 0x2
 6125 0c5c 7D       		.byte	0x7d
 6126 0c5d 00       		.sleb128 0
 6127 0c5e 00       		.byte	0
 6128 0c5f 00       		.byte	0
 6129 0c60 22       		.uleb128 0x22
 6130 0c61 A10B0000 		.4byte	.LASF135
 6131 0c65 01       		.byte	0x1
 6132 0c66 AA01     		.2byte	0x1aa
 6133 0c68 8C000000 		.4byte	0x8c
 6134 0c6c 00000000 		.4byte	.LFB70
 6135 0c70 98000000 		.4byte	.LFE70-.LFB70
 6136 0c74 01       		.uleb128 0x1
 6137 0c75 9C       		.byte	0x9c
 6138 0c76 310D0000 		.4byte	0xd31
 6139 0c7a 12       		.uleb128 0x12
 6140 0c7b A8090000 		.4byte	.LASF136
 6141 0c7f 01       		.byte	0x1
 6142 0c80 AA01     		.2byte	0x1aa
 6143 0c82 8C000000 		.4byte	0x8c
 6144 0c86 DE0A0000 		.4byte	.LLST43
 6145 0c8a 18       		.uleb128 0x18
 6146 0c8b 830B0000 		.4byte	.LASF122
 6147 0c8f 01       		.byte	0x1
 6148 0c90 AC01     		.2byte	0x1ac
 6149 0c92 22090000 		.4byte	0x922
 6150 0c96 03       		.uleb128 0x3
 6151 0c97 91       		.byte	0x91
 6152 0c98 987F     		.sleb128 -104
 6153 0c9a 13       		.uleb128 0x13
 6154 0c9b 6F120000 		.4byte	.LASF123
 6155 0c9f 01       		.byte	0x1
 6156 0ca0 AD01     		.2byte	0x1ad
 6157 0ca2 FC020000 		.4byte	0x2fc
 6158 0ca6 FF0A0000 		.4byte	.LLST44
 6159 0caa 13       		.uleb128 0x13
 6160 0cab A40C0000 		.4byte	.LASF124
 6161 0caf 01       		.byte	0x1
ARM GAS  C:\Users\Administrator\AppData\Local\Temp\ccexfbaX.s 			page 156


 6162 0cb0 AE01     		.2byte	0x1ae
 6163 0cb2 A2000000 		.4byte	0xa2
 6164 0cb6 390B0000 		.4byte	.LLST45
 6165 0cba 13       		.uleb128 0x13
 6166 0cbb CC010000 		.4byte	.LASF125
 6167 0cbf 01       		.byte	0x1
 6168 0cc0 AF01     		.2byte	0x1af
 6169 0cc2 97000000 		.4byte	0x97
 6170 0cc6 4C0B0000 		.4byte	.LLST46
 6171 0cca 23       		.uleb128 0x23
 6172 0ccb 636E7400 		.ascii	"cnt\000"
 6173 0ccf 01       		.byte	0x1
 6174 0cd0 B001     		.2byte	0x1b0
 6175 0cd2 97000000 		.4byte	0x97
 6176 0cd6 6B0B0000 		.4byte	.LLST47
 6177 0cda 23       		.uleb128 0x23
 6178 0cdb 6900     		.ascii	"i\000"
 6179 0cdd 01       		.byte	0x1
 6180 0cde B101     		.2byte	0x1b1
 6181 0ce0 97000000 		.4byte	0x97
 6182 0ce4 280C0000 		.4byte	.LLST48
 6183 0ce8 24       		.uleb128 0x24
 6184 0ce9 EE080000 		.4byte	.LASF126
 6185 0ced 01       		.byte	0x1
 6186 0cee B201     		.2byte	0x1b2
 6187 0cf0 97000000 		.4byte	0x97
 6188 0cf4 10       		.byte	0x10
 6189 0cf5 19       		.uleb128 0x19
 6190 0cf6 3A000000 		.4byte	.LVL194
 6191 0cfa 03280000 		.4byte	0x2803
 6192 0cfe 14       		.uleb128 0x14
 6193 0cff 52000000 		.4byte	.LVL199
 6194 0d03 65280000 		.4byte	0x2865
 6195 0d07 170D0000 		.4byte	0xd17
 6196 0d0b 15       		.uleb128 0x15
 6197 0d0c 01       		.uleb128 0x1
 6198 0d0d 50       		.byte	0x50
 6199 0d0e 02       		.uleb128 0x2
 6200 0d0f 7D       		.byte	0x7d
 6201 0d10 00       		.sleb128 0
 6202 0d11 15       		.uleb128 0x15
 6203 0d12 01       		.uleb128 0x1
 6204 0d13 51       		.byte	0x51
 6205 0d14 01       		.uleb128 0x1
 6206 0d15 42       		.byte	0x42
 6207 0d16 00       		.byte	0
 6208 0d17 19       		.uleb128 0x19
 6209 0d18 5E000000 		.4byte	.LVL201
 6210 0d1c 03280000 		.4byte	0x2803
 6211 0d20 16       		.uleb128 0x16
 6212 0d21 84000000 		.4byte	.LVL202
 6213 0d25 70280000 		.4byte	0x2870
 6214 0d29 15       		.uleb128 0x15
 6215 0d2a 01       		.uleb128 0x1
 6216 0d2b 50       		.byte	0x50
 6217 0d2c 02       		.uleb128 0x2
 6218 0d2d 7D       		.byte	0x7d
ARM GAS  C:\Users\Administrator\AppData\Local\Temp\ccexfbaX.s 			page 157


 6219 0d2e 00       		.sleb128 0
 6220 0d2f 00       		.byte	0
 6221 0d30 00       		.byte	0
 6222 0d31 22       		.uleb128 0x22
 6223 0d32 FB000000 		.4byte	.LASF137
 6224 0d36 01       		.byte	0x1
 6225 0d37 E001     		.2byte	0x1e0
 6226 0d39 8C000000 		.4byte	0x8c
 6227 0d3d 00000000 		.4byte	.LFB71
 6228 0d41 8C000000 		.4byte	.LFE71-.LFB71
 6229 0d45 01       		.uleb128 0x1
 6230 0d46 9C       		.byte	0x9c
 6231 0d47 F90D0000 		.4byte	0xdf9
 6232 0d4b 12       		.uleb128 0x12
 6233 0d4c 6D030000 		.4byte	.LASF138
 6234 0d50 01       		.byte	0x1
 6235 0d51 E001     		.2byte	0x1e0
 6236 0d53 B9000000 		.4byte	0xb9
 6237 0d57 470C0000 		.4byte	.LLST49
 6238 0d5b 18       		.uleb128 0x18
 6239 0d5c 830B0000 		.4byte	.LASF122
 6240 0d60 01       		.byte	0x1
 6241 0d61 E201     		.2byte	0x1e2
 6242 0d63 22090000 		.4byte	0x922
 6243 0d67 03       		.uleb128 0x3
 6244 0d68 91       		.byte	0x91
 6245 0d69 987F     		.sleb128 -104
 6246 0d6b 13       		.uleb128 0x13
 6247 0d6c 6F120000 		.4byte	.LASF123
 6248 0d70 01       		.byte	0x1
 6249 0d71 E301     		.2byte	0x1e3
 6250 0d73 FC020000 		.4byte	0x2fc
 6251 0d77 680C0000 		.4byte	.LLST50
 6252 0d7b 13       		.uleb128 0x13
 6253 0d7c A40C0000 		.4byte	.LASF124
 6254 0d80 01       		.byte	0x1
 6255 0d81 E401     		.2byte	0x1e4
 6256 0d83 A2000000 		.4byte	0xa2
 6257 0d87 A20C0000 		.4byte	.LLST51
 6258 0d8b 13       		.uleb128 0x13
 6259 0d8c CC010000 		.4byte	.LASF125
 6260 0d90 01       		.byte	0x1
 6261 0d91 E501     		.2byte	0x1e5
 6262 0d93 97000000 		.4byte	0x97
 6263 0d97 B50C0000 		.4byte	.LLST52
 6264 0d9b 23       		.uleb128 0x23
 6265 0d9c 636E7400 		.ascii	"cnt\000"
 6266 0da0 01       		.byte	0x1
 6267 0da1 E601     		.2byte	0x1e6
 6268 0da3 97000000 		.4byte	0x97
 6269 0da7 D40C0000 		.4byte	.LLST53
 6270 0dab 23       		.uleb128 0x23
 6271 0dac 6900     		.ascii	"i\000"
 6272 0dae 01       		.byte	0x1
 6273 0daf E701     		.2byte	0x1e7
 6274 0db1 97000000 		.4byte	0x97
 6275 0db5 B50D0000 		.4byte	.LLST54
ARM GAS  C:\Users\Administrator\AppData\Local\Temp\ccexfbaX.s 			page 158


 6276 0db9 24       		.uleb128 0x24
 6277 0dba EE080000 		.4byte	.LASF126
 6278 0dbe 01       		.byte	0x1
 6279 0dbf E801     		.2byte	0x1e8
 6280 0dc1 97000000 		.4byte	0x97
 6281 0dc5 13       		.byte	0x13
 6282 0dc6 19       		.uleb128 0x19
 6283 0dc7 4A000000 		.4byte	.LVL216
 6284 0dcb 03280000 		.4byte	0x2803
 6285 0dcf 14       		.uleb128 0x14
 6286 0dd0 62000000 		.4byte	.LVL221
 6287 0dd4 65280000 		.4byte	0x2865
 6288 0dd8 E80D0000 		.4byte	0xde8
 6289 0ddc 15       		.uleb128 0x15
 6290 0ddd 01       		.uleb128 0x1
 6291 0dde 50       		.byte	0x50
 6292 0ddf 02       		.uleb128 0x2
 6293 0de0 7D       		.byte	0x7d
 6294 0de1 00       		.sleb128 0
 6295 0de2 15       		.uleb128 0x15
 6296 0de3 01       		.uleb128 0x1
 6297 0de4 51       		.byte	0x51
 6298 0de5 01       		.uleb128 0x1
 6299 0de6 45       		.byte	0x45
 6300 0de7 00       		.byte	0
 6301 0de8 16       		.uleb128 0x16
 6302 0de9 7C000000 		.4byte	.LVL224
 6303 0ded 70280000 		.4byte	0x2870
 6304 0df1 15       		.uleb128 0x15
 6305 0df2 01       		.uleb128 0x1
 6306 0df3 50       		.byte	0x50
 6307 0df4 02       		.uleb128 0x2
 6308 0df5 7D       		.byte	0x7d
 6309 0df6 00       		.sleb128 0
 6310 0df7 00       		.byte	0
 6311 0df8 00       		.byte	0
 6312 0df9 17       		.uleb128 0x17
 6313 0dfa AE080000 		.4byte	.LASF139
 6314 0dfe 01       		.byte	0x1
 6315 0dff 8505     		.2byte	0x585
 6316 0e01 00000000 		.4byte	.LFB87
 6317 0e05 1C010000 		.4byte	.LFE87-.LFB87
 6318 0e09 01       		.uleb128 0x1
 6319 0e0a 9C       		.byte	0x9c
 6320 0e0b 0B0F0000 		.4byte	0xf0b
 6321 0e0f 12       		.uleb128 0x12
 6322 0e10 54020000 		.4byte	.LASF102
 6323 0e14 01       		.byte	0x1
 6324 0e15 8505     		.2byte	0x585
 6325 0e17 03010000 		.4byte	0x103
 6326 0e1b D40D0000 		.4byte	.LLST55
 6327 0e1f 18       		.uleb128 0x18
 6328 0e20 31030000 		.4byte	.LASF140
 6329 0e24 01       		.byte	0x1
 6330 0e25 8705     		.2byte	0x587
 6331 0e27 0B0F0000 		.4byte	0xf0b
 6332 0e2b 03       		.uleb128 0x3
ARM GAS  C:\Users\Administrator\AppData\Local\Temp\ccexfbaX.s 			page 159


 6333 0e2c 91       		.byte	0x91
 6334 0e2d CC77     		.sleb128 -1076
 6335 0e2f 18       		.uleb128 0x18
 6336 0e30 19090000 		.4byte	.LASF141
 6337 0e34 01       		.byte	0x1
 6338 0e35 8805     		.2byte	0x588
 6339 0e37 FC020000 		.4byte	0x2fc
 6340 0e3b 03       		.uleb128 0x3
 6341 0e3c 91       		.byte	0x91
 6342 0e3d C877     		.sleb128 -1080
 6343 0e3f 13       		.uleb128 0x13
 6344 0e40 77070000 		.4byte	.LASF142
 6345 0e44 01       		.byte	0x1
 6346 0e45 8905     		.2byte	0x589
 6347 0e47 B9000000 		.4byte	0xb9
 6348 0e4b 280E0000 		.4byte	.LLST56
 6349 0e4f 13       		.uleb128 0x13
 6350 0e50 E8000000 		.4byte	.LASF103
 6351 0e54 01       		.byte	0x1
 6352 0e55 8A05     		.2byte	0x58a
 6353 0e57 B9000000 		.4byte	0xb9
 6354 0e5b 3B0E0000 		.4byte	.LLST57
 6355 0e5f 13       		.uleb128 0x13
 6356 0e60 40110000 		.4byte	.LASF143
 6357 0e64 01       		.byte	0x1
 6358 0e65 8B05     		.2byte	0x58b
 6359 0e67 B9000000 		.4byte	0xb9
 6360 0e6b 970E0000 		.4byte	.LLST58
 6361 0e6f 14       		.uleb128 0x14
 6362 0e70 3A000000 		.4byte	.LVL228
 6363 0e74 30280000 		.4byte	0x2830
 6364 0e78 890E0000 		.4byte	0xe89
 6365 0e7c 15       		.uleb128 0x15
 6366 0e7d 01       		.uleb128 0x1
 6367 0e7e 50       		.byte	0x50
 6368 0e7f 02       		.uleb128 0x2
 6369 0e80 76       		.byte	0x76
 6370 0e81 00       		.sleb128 0
 6371 0e82 15       		.uleb128 0x15
 6372 0e83 01       		.uleb128 0x1
 6373 0e84 52       		.byte	0x52
 6374 0e85 02       		.uleb128 0x2
 6375 0e86 74       		.byte	0x74
 6376 0e87 00       		.sleb128 0
 6377 0e88 00       		.byte	0
 6378 0e89 14       		.uleb128 0x14
 6379 0e8a 48000000 		.4byte	.LVL229
 6380 0e8e 25280000 		.4byte	0x2825
 6381 0e92 A40E0000 		.4byte	0xea4
 6382 0e96 15       		.uleb128 0x15
 6383 0e97 01       		.uleb128 0x1
 6384 0e98 50       		.byte	0x50
 6385 0e99 03       		.uleb128 0x3
 6386 0e9a 91       		.byte	0x91
 6387 0e9b CC77     		.sleb128 -1076
 6388 0e9d 15       		.uleb128 0x15
 6389 0e9e 01       		.uleb128 0x1
ARM GAS  C:\Users\Administrator\AppData\Local\Temp\ccexfbaX.s 			page 160


 6390 0e9f 52       		.byte	0x52
 6391 0ea0 02       		.uleb128 0x2
 6392 0ea1 74       		.byte	0x74
 6393 0ea2 00       		.sleb128 0
 6394 0ea3 00       		.byte	0
 6395 0ea4 14       		.uleb128 0x14
 6396 0ea5 52000000 		.4byte	.LVL230
 6397 0ea9 7B280000 		.4byte	0x287b
 6398 0ead C50E0000 		.4byte	0xec5
 6399 0eb1 15       		.uleb128 0x15
 6400 0eb2 01       		.uleb128 0x1
 6401 0eb3 50       		.byte	0x50
 6402 0eb4 02       		.uleb128 0x2
 6403 0eb5 76       		.byte	0x76
 6404 0eb6 00       		.sleb128 0
 6405 0eb7 15       		.uleb128 0x15
 6406 0eb8 01       		.uleb128 0x1
 6407 0eb9 51       		.byte	0x51
 6408 0eba 03       		.uleb128 0x3
 6409 0ebb 91       		.byte	0x91
 6410 0ebc CC77     		.sleb128 -1076
 6411 0ebe 15       		.uleb128 0x15
 6412 0ebf 01       		.uleb128 0x1
 6413 0ec0 52       		.byte	0x52
 6414 0ec1 02       		.uleb128 0x2
 6415 0ec2 74       		.byte	0x74
 6416 0ec3 00       		.sleb128 0
 6417 0ec4 00       		.byte	0
 6418 0ec5 19       		.uleb128 0x19
 6419 0ec6 76000000 		.4byte	.LVL232
 6420 0eca 310D0000 		.4byte	0xd31
 6421 0ece 14       		.uleb128 0x14
 6422 0ecf A4000000 		.4byte	.LVL233
 6423 0ed3 30280000 		.4byte	0x2830
 6424 0ed7 EF0E0000 		.4byte	0xeef
 6425 0edb 15       		.uleb128 0x15
 6426 0edc 01       		.uleb128 0x1
 6427 0edd 50       		.byte	0x50
 6428 0ede 03       		.uleb128 0x3
 6429 0edf 91       		.byte	0x91
 6430 0ee0 C877     		.sleb128 -1080
 6431 0ee2 15       		.uleb128 0x15
 6432 0ee3 01       		.uleb128 0x1
 6433 0ee4 51       		.byte	0x51
 6434 0ee5 03       		.uleb128 0x3
 6435 0ee6 49       		.byte	0x49
 6436 0ee7 3D       		.byte	0x3d
 6437 0ee8 24       		.byte	0x24
 6438 0ee9 15       		.uleb128 0x15
 6439 0eea 01       		.uleb128 0x1
 6440 0eeb 52       		.byte	0x52
 6441 0eec 01       		.uleb128 0x1
 6442 0eed 34       		.byte	0x34
 6443 0eee 00       		.byte	0
 6444 0eef 19       		.uleb128 0x19
 6445 0ef0 C8000000 		.4byte	.LVL234
 6446 0ef4 12080000 		.4byte	0x812
ARM GAS  C:\Users\Administrator\AppData\Local\Temp\ccexfbaX.s 			page 161


 6447 0ef8 19       		.uleb128 0x19
 6448 0ef9 E0000000 		.4byte	.LVL236
 6449 0efd 12080000 		.4byte	0x812
 6450 0f01 19       		.uleb128 0x19
 6451 0f02 E6000000 		.4byte	.LVL237
 6452 0f06 310D0000 		.4byte	0xd31
 6453 0f0a 00       		.byte	0
 6454 0f0b 08       		.uleb128 0x8
 6455 0f0c AD000000 		.4byte	0xad
 6456 0f10 1C0F0000 		.4byte	0xf1c
 6457 0f14 25       		.uleb128 0x25
 6458 0f15 FC000000 		.4byte	0xfc
 6459 0f19 1904     		.2byte	0x419
 6460 0f1b 00       		.byte	0
 6461 0f1c 26       		.uleb128 0x26
 6462 0f1d EC060000 		.4byte	.LASF145
 6463 0f21 01       		.byte	0x1
 6464 0f22 1802     		.2byte	0x218
 6465 0f24 00000000 		.4byte	.LFB72
 6466 0f28 BC000000 		.4byte	.LFE72-.LFB72
 6467 0f2c 01       		.uleb128 0x1
 6468 0f2d 9C       		.byte	0x9c
 6469 0f2e 48100000 		.4byte	0x1048
 6470 0f32 12       		.uleb128 0x12
 6471 0f33 E3080000 		.4byte	.LASF146
 6472 0f37 01       		.byte	0x1
 6473 0f38 1802     		.2byte	0x218
 6474 0f3a AD000000 		.4byte	0xad
 6475 0f3e F90E0000 		.4byte	.LLST59
 6476 0f42 12       		.uleb128 0x12
 6477 0f43 30020000 		.4byte	.LASF147
 6478 0f47 01       		.byte	0x1
 6479 0f48 1802     		.2byte	0x218
 6480 0f4a AD000000 		.4byte	0xad
 6481 0f4e 1A0F0000 		.4byte	.LLST60
 6482 0f52 12       		.uleb128 0x12
 6483 0f53 72030000 		.4byte	.LASF148
 6484 0f57 01       		.byte	0x1
 6485 0f58 1802     		.2byte	0x218
 6486 0f5a AD000000 		.4byte	0xad
 6487 0f5e 3B0F0000 		.4byte	.LLST61
 6488 0f62 12       		.uleb128 0x12
 6489 0f63 B10B0000 		.4byte	.LASF149
 6490 0f67 01       		.byte	0x1
 6491 0f68 1802     		.2byte	0x218
 6492 0f6a 03010000 		.4byte	0x103
 6493 0f6e 5C0F0000 		.4byte	.LLST62
 6494 0f72 12       		.uleb128 0x12
 6495 0f73 61030000 		.4byte	.LASF150
 6496 0f77 01       		.byte	0x1
 6497 0f78 1802     		.2byte	0x218
 6498 0f7a B9000000 		.4byte	0xb9
 6499 0f7e 890F0000 		.4byte	.LLST63
 6500 0f82 18       		.uleb128 0x18
 6501 0f83 CA0D0000 		.4byte	.LASF151
 6502 0f87 01       		.byte	0x1
 6503 0f88 1A02     		.2byte	0x21a
ARM GAS  C:\Users\Administrator\AppData\Local\Temp\ccexfbaX.s 			page 162


 6504 0f8a 48100000 		.4byte	0x1048
 6505 0f8e 03       		.uleb128 0x3
 6506 0f8f 91       		.byte	0x91
 6507 0f90 E87D     		.sleb128 -280
 6508 0f92 23       		.uleb128 0x23
 6509 0f93 6900     		.ascii	"i\000"
 6510 0f95 01       		.byte	0x1
 6511 0f96 1B02     		.2byte	0x21b
 6512 0f98 AD000000 		.4byte	0xad
 6513 0f9c B50F0000 		.4byte	.LLST64
 6514 0fa0 13       		.uleb128 0x13
 6515 0fa1 6B0A0000 		.4byte	.LASF152
 6516 0fa5 01       		.byte	0x1
 6517 0fa6 1C02     		.2byte	0x21c
 6518 0fa8 B9000000 		.4byte	0xb9
 6519 0fac D30F0000 		.4byte	.LLST65
 6520 0fb0 13       		.uleb128 0x13
 6521 0fb1 CC010000 		.4byte	.LASF125
 6522 0fb5 01       		.byte	0x1
 6523 0fb6 1D02     		.2byte	0x21d
 6524 0fb8 B9000000 		.4byte	0xb9
 6525 0fbc 52100000 		.4byte	.LLST66
 6526 0fc0 13       		.uleb128 0x13
 6527 0fc1 330B0000 		.4byte	.LASF153
 6528 0fc5 01       		.byte	0x1
 6529 0fc6 1E02     		.2byte	0x21e
 6530 0fc8 B9000000 		.4byte	0xb9
 6531 0fcc 70100000 		.4byte	.LLST67
 6532 0fd0 14       		.uleb128 0x14
 6533 0fd1 1C000000 		.4byte	.LVL244
 6534 0fd5 5C280000 		.4byte	0x285c
 6535 0fd9 F10F0000 		.4byte	0xff1
 6536 0fdd 15       		.uleb128 0x15
 6537 0fde 01       		.uleb128 0x1
 6538 0fdf 50       		.byte	0x50
 6539 0fe0 03       		.uleb128 0x3
 6540 0fe1 91       		.byte	0x91
 6541 0fe2 E87D     		.sleb128 -280
 6542 0fe4 15       		.uleb128 0x15
 6543 0fe5 01       		.uleb128 0x1
 6544 0fe6 51       		.byte	0x51
 6545 0fe7 01       		.uleb128 0x1
 6546 0fe8 30       		.byte	0x30
 6547 0fe9 15       		.uleb128 0x15
 6548 0fea 01       		.uleb128 0x1
 6549 0feb 52       		.byte	0x52
 6550 0fec 03       		.uleb128 0x3
 6551 0fed 0A       		.byte	0xa
 6552 0fee 0001     		.2byte	0x100
 6553 0ff0 00       		.byte	0
 6554 0ff1 14       		.uleb128 0x14
 6555 0ff2 70000000 		.4byte	.LVL255
 6556 0ff6 65280000 		.4byte	0x2865
 6557 0ffa 0C100000 		.4byte	0x100c
 6558 0ffe 15       		.uleb128 0x15
 6559 0fff 01       		.uleb128 0x1
 6560 1000 50       		.byte	0x50
ARM GAS  C:\Users\Administrator\AppData\Local\Temp\ccexfbaX.s 			page 163


 6561 1001 03       		.uleb128 0x3
 6562 1002 91       		.byte	0x91
 6563 1003 E87D     		.sleb128 -280
 6564 1005 15       		.uleb128 0x15
 6565 1006 01       		.uleb128 0x1
 6566 1007 51       		.byte	0x51
 6567 1008 02       		.uleb128 0x2
 6568 1009 74       		.byte	0x74
 6569 100a 00       		.sleb128 0
 6570 100b 00       		.byte	0
 6571 100c 14       		.uleb128 0x14
 6572 100d 8C000000 		.4byte	.LVL260
 6573 1011 46280000 		.4byte	0x2846
 6574 1015 27100000 		.4byte	0x1027
 6575 1019 15       		.uleb128 0x15
 6576 101a 01       		.uleb128 0x1
 6577 101b 50       		.byte	0x50
 6578 101c 03       		.uleb128 0x3
 6579 101d 91       		.byte	0x91
 6580 101e E87D     		.sleb128 -280
 6581 1020 15       		.uleb128 0x15
 6582 1021 01       		.uleb128 0x1
 6583 1022 51       		.byte	0x51
 6584 1023 02       		.uleb128 0x2
 6585 1024 75       		.byte	0x75
 6586 1025 00       		.sleb128 0
 6587 1026 00       		.byte	0
 6588 1027 19       		.uleb128 0x19
 6589 1028 96000000 		.4byte	.LVL262
 6590 102c 03280000 		.4byte	0x2803
 6591 1030 16       		.uleb128 0x16
 6592 1031 B0000000 		.4byte	.LVL263
 6593 1035 70280000 		.4byte	0x2870
 6594 1039 15       		.uleb128 0x15
 6595 103a 01       		.uleb128 0x1
 6596 103b 50       		.byte	0x50
 6597 103c 03       		.uleb128 0x3
 6598 103d 91       		.byte	0x91
 6599 103e E87D     		.sleb128 -280
 6600 1040 15       		.uleb128 0x15
 6601 1041 01       		.uleb128 0x1
 6602 1042 51       		.byte	0x51
 6603 1043 02       		.uleb128 0x2
 6604 1044 75       		.byte	0x75
 6605 1045 00       		.sleb128 0
 6606 1046 00       		.byte	0
 6607 1047 00       		.byte	0
 6608 1048 08       		.uleb128 0x8
 6609 1049 AD000000 		.4byte	0xad
 6610 104d 58100000 		.4byte	0x1058
 6611 1051 09       		.uleb128 0x9
 6612 1052 FC000000 		.4byte	0xfc
 6613 1056 FF       		.byte	0xff
 6614 1057 00       		.byte	0
 6615 1058 17       		.uleb128 0x17
 6616 1059 C9080000 		.4byte	.LASF154
 6617 105d 01       		.byte	0x1
ARM GAS  C:\Users\Administrator\AppData\Local\Temp\ccexfbaX.s 			page 164


 6618 105e CD02     		.2byte	0x2cd
 6619 1060 00000000 		.4byte	.LFB75
 6620 1064 E4000000 		.4byte	.LFE75-.LFB75
 6621 1068 01       		.uleb128 0x1
 6622 1069 9C       		.byte	0x9c
 6623 106a 2E120000 		.4byte	0x122e
 6624 106e 12       		.uleb128 0x12
 6625 106f 54020000 		.4byte	.LASF102
 6626 1073 01       		.byte	0x1
 6627 1074 CD02     		.2byte	0x2cd
 6628 1076 03010000 		.4byte	0x103
 6629 107a A5100000 		.4byte	.LLST68
 6630 107e 23       		.uleb128 0x23
 6631 107f 72657400 		.ascii	"ret\000"
 6632 1083 01       		.byte	0x1
 6633 1084 CF02     		.2byte	0x2cf
 6634 1086 AD000000 		.4byte	0xad
 6635 108a D1100000 		.4byte	.LLST69
 6636 108e 18       		.uleb128 0x18
 6637 108f A6080000 		.4byte	.LASF155
 6638 1093 01       		.byte	0x1
 6639 1094 D002     		.2byte	0x2d0
 6640 1096 2E120000 		.4byte	0x122e
 6641 109a 03       		.uleb128 0x3
 6642 109b 91       		.byte	0x91
 6643 109c A87F     		.sleb128 -88
 6644 109e 23       		.uleb128 0x23
 6645 109f 705400   		.ascii	"pT\000"
 6646 10a2 01       		.byte	0x1
 6647 10a3 D102     		.2byte	0x2d1
 6648 10a5 03010000 		.4byte	0x103
 6649 10a9 EF100000 		.4byte	.LLST70
 6650 10ad 18       		.uleb128 0x18
 6651 10ae 5C030000 		.4byte	.LASF156
 6652 10b2 01       		.byte	0x1
 6653 10b3 D202     		.2byte	0x2d2
 6654 10b5 EC020000 		.4byte	0x2ec
 6655 10b9 03       		.uleb128 0x3
 6656 10ba 91       		.byte	0x91
 6657 10bb A07F     		.sleb128 -96
 6658 10bd 13       		.uleb128 0x13
 6659 10be 2D0D0000 		.4byte	.LASF157
 6660 10c2 01       		.byte	0x1
 6661 10c3 D302     		.2byte	0x2d3
 6662 10c5 AD000000 		.4byte	0xad
 6663 10c9 61110000 		.4byte	.LLST71
 6664 10cd 18       		.uleb128 0x18
 6665 10ce E8000000 		.4byte	.LASF103
 6666 10d2 01       		.byte	0x1
 6667 10d3 D402     		.2byte	0x2d4
 6668 10d5 B9000000 		.4byte	0xb9
 6669 10d9 03       		.uleb128 0x3
 6670 10da 91       		.byte	0x91
 6671 10db 9C7F     		.sleb128 -100
 6672 10dd 14       		.uleb128 0x14
 6673 10de 14000000 		.4byte	.LVL269
 6674 10e2 5C280000 		.4byte	0x285c
ARM GAS  C:\Users\Administrator\AppData\Local\Temp\ccexfbaX.s 			page 165


 6675 10e6 FC100000 		.4byte	0x10fc
 6676 10ea 15       		.uleb128 0x15
 6677 10eb 01       		.uleb128 0x1
 6678 10ec 50       		.byte	0x50
 6679 10ed 02       		.uleb128 0x2
 6680 10ee 74       		.byte	0x74
 6681 10ef 00       		.sleb128 0
 6682 10f0 15       		.uleb128 0x15
 6683 10f1 01       		.uleb128 0x1
 6684 10f2 51       		.byte	0x51
 6685 10f3 02       		.uleb128 0x2
 6686 10f4 77       		.byte	0x77
 6687 10f5 00       		.sleb128 0
 6688 10f6 15       		.uleb128 0x15
 6689 10f7 01       		.uleb128 0x1
 6690 10f8 52       		.byte	0x52
 6691 10f9 01       		.uleb128 0x1
 6692 10fa 38       		.byte	0x38
 6693 10fb 00       		.byte	0
 6694 10fc 14       		.uleb128 0x14
 6695 10fd 30000000 		.4byte	.LVL273
 6696 1101 5C280000 		.4byte	0x285c
 6697 1105 1D110000 		.4byte	0x111d
 6698 1109 15       		.uleb128 0x15
 6699 110a 01       		.uleb128 0x1
 6700 110b 50       		.byte	0x50
 6701 110c 03       		.uleb128 0x3
 6702 110d 91       		.byte	0x91
 6703 110e A87F     		.sleb128 -88
 6704 1110 15       		.uleb128 0x15
 6705 1111 01       		.uleb128 0x1
 6706 1112 51       		.byte	0x51
 6707 1113 02       		.uleb128 0x2
 6708 1114 77       		.byte	0x77
 6709 1115 00       		.sleb128 0
 6710 1116 15       		.uleb128 0x15
 6711 1117 01       		.uleb128 0x1
 6712 1118 52       		.byte	0x52
 6713 1119 02       		.uleb128 0x2
 6714 111a 08       		.byte	0x8
 6715 111b 40       		.byte	0x40
 6716 111c 00       		.byte	0
 6717 111d 14       		.uleb128 0x14
 6718 111e 3A000000 		.4byte	.LVL275
 6719 1122 E4270000 		.4byte	0x27e4
 6720 1126 3D110000 		.4byte	0x113d
 6721 112a 15       		.uleb128 0x15
 6722 112b 01       		.uleb128 0x1
 6723 112c 50       		.byte	0x50
 6724 112d 03       		.uleb128 0x3
 6725 112e 91       		.byte	0x91
 6726 112f A87F     		.sleb128 -88
 6727 1131 15       		.uleb128 0x15
 6728 1132 01       		.uleb128 0x1
 6729 1133 51       		.byte	0x51
 6730 1134 02       		.uleb128 0x2
 6731 1135 75       		.byte	0x75
ARM GAS  C:\Users\Administrator\AppData\Local\Temp\ccexfbaX.s 			page 166


 6732 1136 07       		.sleb128 7
 6733 1137 15       		.uleb128 0x15
 6734 1138 01       		.uleb128 0x1
 6735 1139 52       		.byte	0x52
 6736 113a 01       		.uleb128 0x1
 6737 113b 36       		.byte	0x36
 6738 113c 00       		.byte	0
 6739 113d 14       		.uleb128 0x14
 6740 113e 40000000 		.4byte	.LVL276
 6741 1142 3B280000 		.4byte	0x283b
 6742 1146 50110000 		.4byte	0x1150
 6743 114a 15       		.uleb128 0x15
 6744 114b 01       		.uleb128 0x1
 6745 114c 50       		.byte	0x50
 6746 114d 01       		.uleb128 0x1
 6747 114e 3D       		.byte	0x3d
 6748 114f 00       		.byte	0
 6749 1150 14       		.uleb128 0x14
 6750 1151 54000000 		.4byte	.LVL278
 6751 1155 86280000 		.4byte	0x2886
 6752 1159 69110000 		.4byte	0x1169
 6753 115d 15       		.uleb128 0x15
 6754 115e 01       		.uleb128 0x1
 6755 115f 50       		.byte	0x50
 6756 1160 02       		.uleb128 0x2
 6757 1161 74       		.byte	0x74
 6758 1162 00       		.sleb128 0
 6759 1163 15       		.uleb128 0x15
 6760 1164 01       		.uleb128 0x1
 6761 1165 51       		.byte	0x51
 6762 1166 01       		.uleb128 0x1
 6763 1167 38       		.byte	0x38
 6764 1168 00       		.byte	0
 6765 1169 14       		.uleb128 0x14
 6766 116a 7A000000 		.4byte	.LVL280
 6767 116e 3B280000 		.4byte	0x283b
 6768 1172 7C110000 		.4byte	0x117c
 6769 1176 15       		.uleb128 0x15
 6770 1177 01       		.uleb128 0x1
 6771 1178 50       		.byte	0x50
 6772 1179 01       		.uleb128 0x1
 6773 117a 3E       		.byte	0x3e
 6774 117b 00       		.byte	0
 6775 117c 14       		.uleb128 0x14
 6776 117d 8A000000 		.4byte	.LVL281
 6777 1181 91280000 		.4byte	0x2891
 6778 1185 9B110000 		.4byte	0x119b
 6779 1189 15       		.uleb128 0x15
 6780 118a 01       		.uleb128 0x1
 6781 118b 50       		.byte	0x50
 6782 118c 02       		.uleb128 0x2
 6783 118d 74       		.byte	0x74
 6784 118e 00       		.sleb128 0
 6785 118f 15       		.uleb128 0x15
 6786 1190 01       		.uleb128 0x1
 6787 1191 51       		.byte	0x51
 6788 1192 02       		.uleb128 0x2
ARM GAS  C:\Users\Administrator\AppData\Local\Temp\ccexfbaX.s 			page 167


 6789 1193 08       		.byte	0x8
 6790 1194 FF       		.byte	0xff
 6791 1195 15       		.uleb128 0x15
 6792 1196 01       		.uleb128 0x1
 6793 1197 52       		.byte	0x52
 6794 1198 01       		.uleb128 0x1
 6795 1199 37       		.byte	0x37
 6796 119a 00       		.byte	0
 6797 119b 14       		.uleb128 0x14
 6798 119c 94000000 		.4byte	.LVL282
 6799 11a0 3B280000 		.4byte	0x283b
 6800 11a4 AE110000 		.4byte	0x11ae
 6801 11a8 15       		.uleb128 0x15
 6802 11a9 01       		.uleb128 0x1
 6803 11aa 50       		.byte	0x50
 6804 11ab 01       		.uleb128 0x1
 6805 11ac 42       		.byte	0x42
 6806 11ad 00       		.byte	0
 6807 11ae 14       		.uleb128 0x14
 6808 11af 9A000000 		.4byte	.LVL283
 6809 11b3 64070000 		.4byte	0x764
 6810 11b7 C2110000 		.4byte	0x11c2
 6811 11bb 15       		.uleb128 0x15
 6812 11bc 01       		.uleb128 0x1
 6813 11bd 50       		.byte	0x50
 6814 11be 02       		.uleb128 0x2
 6815 11bf 74       		.byte	0x74
 6816 11c0 00       		.sleb128 0
 6817 11c1 00       		.byte	0
 6818 11c2 14       		.uleb128 0x14
 6819 11c3 A8000000 		.4byte	.LVL285
 6820 11c7 E4270000 		.4byte	0x27e4
 6821 11cb E2110000 		.4byte	0x11e2
 6822 11cf 15       		.uleb128 0x15
 6823 11d0 01       		.uleb128 0x1
 6824 11d1 50       		.byte	0x50
 6825 11d2 03       		.uleb128 0x3
 6826 11d3 91       		.byte	0x91
 6827 11d4 AE7F     		.sleb128 -82
 6828 11d6 15       		.uleb128 0x15
 6829 11d7 01       		.uleb128 0x1
 6830 11d8 51       		.byte	0x51
 6831 11d9 02       		.uleb128 0x2
 6832 11da 74       		.byte	0x74
 6833 11db 00       		.sleb128 0
 6834 11dc 15       		.uleb128 0x15
 6835 11dd 01       		.uleb128 0x1
 6836 11de 52       		.byte	0x52
 6837 11df 01       		.uleb128 0x1
 6838 11e0 38       		.byte	0x38
 6839 11e1 00       		.byte	0
 6840 11e2 14       		.uleb128 0x14
 6841 11e3 BA000000 		.4byte	.LVL287
 6842 11e7 E4270000 		.4byte	0x27e4
 6843 11eb 09120000 		.4byte	0x1209
 6844 11ef 15       		.uleb128 0x15
 6845 11f0 01       		.uleb128 0x1
ARM GAS  C:\Users\Administrator\AppData\Local\Temp\ccexfbaX.s 			page 168


 6846 11f1 50       		.byte	0x50
 6847 11f2 03       		.uleb128 0x3
 6848 11f3 91       		.byte	0x91
 6849 11f4 B67F     		.sleb128 -74
 6850 11f6 15       		.uleb128 0x15
 6851 11f7 01       		.uleb128 0x1
 6852 11f8 51       		.byte	0x51
 6853 11f9 09       		.uleb128 0x9
 6854 11fa 75       		.byte	0x75
 6855 11fb 00       		.sleb128 0
 6856 11fc 91       		.byte	0x91
 6857 11fd 9C7F     		.sleb128 -100
 6858 11ff 06       		.byte	0x6
 6859 1200 22       		.byte	0x22
 6860 1201 36       		.byte	0x36
 6861 1202 1C       		.byte	0x1c
 6862 1203 15       		.uleb128 0x15
 6863 1204 01       		.uleb128 0x1
 6864 1205 52       		.byte	0x52
 6865 1206 01       		.uleb128 0x1
 6866 1207 34       		.byte	0x34
 6867 1208 00       		.byte	0
 6868 1209 16       		.uleb128 0x16
 6869 120a D6000000 		.4byte	.LVL288
 6870 120e 1C0F0000 		.4byte	0xf1c
 6871 1212 15       		.uleb128 0x15
 6872 1213 01       		.uleb128 0x1
 6873 1214 50       		.byte	0x50
 6874 1215 05       		.uleb128 0x5
 6875 1216 91       		.byte	0x91
 6876 1217 987F     		.sleb128 -104
 6877 1219 94       		.byte	0x94
 6878 121a 01       		.byte	0x1
 6879 121b 15       		.uleb128 0x15
 6880 121c 01       		.uleb128 0x1
 6881 121d 51       		.byte	0x51
 6882 121e 01       		.uleb128 0x1
 6883 121f 31       		.byte	0x31
 6884 1220 15       		.uleb128 0x15
 6885 1221 01       		.uleb128 0x1
 6886 1222 53       		.byte	0x53
 6887 1223 02       		.uleb128 0x2
 6888 1224 76       		.byte	0x76
 6889 1225 00       		.sleb128 0
 6890 1226 15       		.uleb128 0x15
 6891 1227 02       		.uleb128 0x2
 6892 1228 7D       		.byte	0x7d
 6893 1229 00       		.sleb128 0
 6894 122a 01       		.uleb128 0x1
 6895 122b 43       		.byte	0x43
 6896 122c 00       		.byte	0
 6897 122d 00       		.byte	0
 6898 122e 08       		.uleb128 0x8
 6899 122f AD000000 		.4byte	0xad
 6900 1233 3E120000 		.4byte	0x123e
 6901 1237 09       		.uleb128 0x9
 6902 1238 FC000000 		.4byte	0xfc
ARM GAS  C:\Users\Administrator\AppData\Local\Temp\ccexfbaX.s 			page 169


 6903 123c 3F       		.byte	0x3f
 6904 123d 00       		.byte	0
 6905 123e 17       		.uleb128 0x17
 6906 123f A1010000 		.4byte	.LASF158
 6907 1243 01       		.byte	0x1
 6908 1244 1903     		.2byte	0x319
 6909 1246 00000000 		.4byte	.LFB76
 6910 124a BC000000 		.4byte	.LFE76-.LFB76
 6911 124e 01       		.uleb128 0x1
 6912 124f 9C       		.byte	0x9c
 6913 1250 2B140000 		.4byte	0x142b
 6914 1254 12       		.uleb128 0x12
 6915 1255 54020000 		.4byte	.LASF102
 6916 1259 01       		.byte	0x1
 6917 125a 1903     		.2byte	0x319
 6918 125c 03010000 		.4byte	0x103
 6919 1260 A8110000 		.4byte	.LLST72
 6920 1264 18       		.uleb128 0x18
 6921 1265 A6080000 		.4byte	.LASF155
 6922 1269 01       		.byte	0x1
 6923 126a 1B03     		.2byte	0x31b
 6924 126c 2E120000 		.4byte	0x122e
 6925 1270 03       		.uleb128 0x3
 6926 1271 91       		.byte	0x91
 6927 1272 A87F     		.sleb128 -88
 6928 1274 23       		.uleb128 0x23
 6929 1275 705400   		.ascii	"pT\000"
 6930 1278 01       		.byte	0x1
 6931 1279 1C03     		.2byte	0x31c
 6932 127b 03010000 		.4byte	0x103
 6933 127f E1110000 		.4byte	.LLST73
 6934 1283 18       		.uleb128 0x18
 6935 1284 5C030000 		.4byte	.LASF156
 6936 1288 01       		.byte	0x1
 6937 1289 1D03     		.2byte	0x31d
 6938 128b EC020000 		.4byte	0x2ec
 6939 128f 03       		.uleb128 0x3
 6940 1290 91       		.byte	0x91
 6941 1291 947F     		.sleb128 -108
 6942 1293 18       		.uleb128 0x18
 6943 1294 DD080000 		.4byte	.LASF110
 6944 1298 01       		.byte	0x1
 6945 1299 1E03     		.2byte	0x31e
 6946 129b FC020000 		.4byte	0x2fc
 6947 129f 03       		.uleb128 0x3
 6948 12a0 91       		.byte	0x91
 6949 12a1 907F     		.sleb128 -112
 6950 12a3 13       		.uleb128 0x13
 6951 12a4 2D0D0000 		.4byte	.LASF157
 6952 12a8 01       		.byte	0x1
 6953 12a9 1F03     		.2byte	0x31f
 6954 12ab AD000000 		.4byte	0xad
 6955 12af 3A120000 		.4byte	.LLST74
 6956 12b3 18       		.uleb128 0x18
 6957 12b4 7C0C0000 		.4byte	.LASF93
 6958 12b8 01       		.byte	0x1
 6959 12b9 2003     		.2byte	0x320
ARM GAS  C:\Users\Administrator\AppData\Local\Temp\ccexfbaX.s 			page 170


 6960 12bb 0C030000 		.4byte	0x30c
 6961 12bf 03       		.uleb128 0x3
 6962 12c0 91       		.byte	0x91
 6963 12c1 9C7F     		.sleb128 -100
 6964 12c3 18       		.uleb128 0x18
 6965 12c4 E8000000 		.4byte	.LASF103
 6966 12c8 01       		.byte	0x1
 6967 12c9 2103     		.2byte	0x321
 6968 12cb B9000000 		.4byte	0xb9
 6969 12cf 03       		.uleb128 0x3
 6970 12d0 91       		.byte	0x91
 6971 12d1 8C7F     		.sleb128 -116
 6972 12d3 14       		.uleb128 0x14
 6973 12d4 26000000 		.4byte	.LVL297
 6974 12d8 5C280000 		.4byte	0x285c
 6975 12dc F2120000 		.4byte	0x12f2
 6976 12e0 15       		.uleb128 0x15
 6977 12e1 01       		.uleb128 0x1
 6978 12e2 50       		.byte	0x50
 6979 12e3 02       		.uleb128 0x2
 6980 12e4 76       		.byte	0x76
 6981 12e5 00       		.sleb128 0
 6982 12e6 15       		.uleb128 0x15
 6983 12e7 01       		.uleb128 0x1
 6984 12e8 51       		.byte	0x51
 6985 12e9 01       		.uleb128 0x1
 6986 12ea 30       		.byte	0x30
 6987 12eb 15       		.uleb128 0x15
 6988 12ec 01       		.uleb128 0x1
 6989 12ed 52       		.byte	0x52
 6990 12ee 02       		.uleb128 0x2
 6991 12ef 08       		.byte	0x8
 6992 12f0 40       		.byte	0x40
 6993 12f1 00       		.byte	0
 6994 12f2 14       		.uleb128 0x14
 6995 12f3 30000000 		.4byte	.LVL298
 6996 12f7 E4270000 		.4byte	0x27e4
 6997 12fb 11130000 		.4byte	0x1311
 6998 12ff 15       		.uleb128 0x15
 6999 1300 01       		.uleb128 0x1
 7000 1301 50       		.byte	0x50
 7001 1302 02       		.uleb128 0x2
 7002 1303 76       		.byte	0x76
 7003 1304 00       		.sleb128 0
 7004 1305 15       		.uleb128 0x15
 7005 1306 01       		.uleb128 0x1
 7006 1307 51       		.byte	0x51
 7007 1308 02       		.uleb128 0x2
 7008 1309 74       		.byte	0x74
 7009 130a 07       		.sleb128 7
 7010 130b 15       		.uleb128 0x15
 7011 130c 01       		.uleb128 0x1
 7012 130d 52       		.byte	0x52
 7013 130e 01       		.uleb128 0x1
 7014 130f 36       		.byte	0x36
 7015 1310 00       		.byte	0
 7016 1311 14       		.uleb128 0x14
ARM GAS  C:\Users\Administrator\AppData\Local\Temp\ccexfbaX.s 			page 171


 7017 1312 42000000 		.4byte	.LVL300
 7018 1316 E4270000 		.4byte	0x27e4
 7019 131a 31130000 		.4byte	0x1331
 7020 131e 15       		.uleb128 0x15
 7021 131f 01       		.uleb128 0x1
 7022 1320 50       		.byte	0x50
 7023 1321 03       		.uleb128 0x3
 7024 1322 91       		.byte	0x91
 7025 1323 AE7F     		.sleb128 -82
 7026 1325 15       		.uleb128 0x15
 7027 1326 01       		.uleb128 0x1
 7028 1327 51       		.byte	0x51
 7029 1328 02       		.uleb128 0x2
 7030 1329 77       		.byte	0x77
 7031 132a 00       		.sleb128 0
 7032 132b 15       		.uleb128 0x15
 7033 132c 01       		.uleb128 0x1
 7034 132d 52       		.byte	0x52
 7035 132e 01       		.uleb128 0x1
 7036 132f 38       		.byte	0x38
 7037 1330 00       		.byte	0
 7038 1331 14       		.uleb128 0x14
 7039 1332 4C000000 		.4byte	.LVL301
 7040 1336 E4270000 		.4byte	0x27e4
 7041 133a 50130000 		.4byte	0x1350
 7042 133e 15       		.uleb128 0x15
 7043 133f 01       		.uleb128 0x1
 7044 1340 50       		.byte	0x50
 7045 1341 02       		.uleb128 0x2
 7046 1342 75       		.byte	0x75
 7047 1343 00       		.sleb128 0
 7048 1344 15       		.uleb128 0x15
 7049 1345 01       		.uleb128 0x1
 7050 1346 51       		.byte	0x51
 7051 1347 02       		.uleb128 0x2
 7052 1348 77       		.byte	0x77
 7053 1349 00       		.sleb128 0
 7054 134a 15       		.uleb128 0x15
 7055 134b 01       		.uleb128 0x1
 7056 134c 52       		.byte	0x52
 7057 134d 01       		.uleb128 0x1
 7058 134e 38       		.byte	0x38
 7059 134f 00       		.byte	0
 7060 1350 14       		.uleb128 0x14
 7061 1351 5C000000 		.4byte	.LVL303
 7062 1355 E4270000 		.4byte	0x27e4
 7063 1359 70130000 		.4byte	0x1370
 7064 135d 15       		.uleb128 0x15
 7065 135e 01       		.uleb128 0x1
 7066 135f 50       		.byte	0x50
 7067 1360 03       		.uleb128 0x3
 7068 1361 91       		.byte	0x91
 7069 1362 B67F     		.sleb128 -74
 7070 1364 15       		.uleb128 0x15
 7071 1365 01       		.uleb128 0x1
 7072 1366 51       		.byte	0x51
 7073 1367 02       		.uleb128 0x2
ARM GAS  C:\Users\Administrator\AppData\Local\Temp\ccexfbaX.s 			page 172


 7074 1368 77       		.byte	0x77
 7075 1369 00       		.sleb128 0
 7076 136a 15       		.uleb128 0x15
 7077 136b 01       		.uleb128 0x1
 7078 136c 52       		.byte	0x52
 7079 136d 01       		.uleb128 0x1
 7080 136e 34       		.byte	0x34
 7081 136f 00       		.byte	0
 7082 1370 14       		.uleb128 0x14
 7083 1371 66000000 		.4byte	.LVL304
 7084 1375 E4270000 		.4byte	0x27e4
 7085 1379 90130000 		.4byte	0x1390
 7086 137d 15       		.uleb128 0x15
 7087 137e 01       		.uleb128 0x1
 7088 137f 50       		.byte	0x50
 7089 1380 03       		.uleb128 0x3
 7090 1381 91       		.byte	0x91
 7091 1382 907F     		.sleb128 -112
 7092 1384 15       		.uleb128 0x15
 7093 1385 01       		.uleb128 0x1
 7094 1386 51       		.byte	0x51
 7095 1387 02       		.uleb128 0x2
 7096 1388 77       		.byte	0x77
 7097 1389 00       		.sleb128 0
 7098 138a 15       		.uleb128 0x15
 7099 138b 01       		.uleb128 0x1
 7100 138c 52       		.byte	0x52
 7101 138d 01       		.uleb128 0x1
 7102 138e 34       		.byte	0x34
 7103 138f 00       		.byte	0
 7104 1390 14       		.uleb128 0x14
 7105 1391 78000000 		.4byte	.LVL306
 7106 1395 E4270000 		.4byte	0x27e4
 7107 1399 B7130000 		.4byte	0x13b7
 7108 139d 15       		.uleb128 0x15
 7109 139e 01       		.uleb128 0x1
 7110 139f 50       		.byte	0x50
 7111 13a0 03       		.uleb128 0x3
 7112 13a1 91       		.byte	0x91
 7113 13a2 BA7F     		.sleb128 -70
 7114 13a4 15       		.uleb128 0x15
 7115 13a5 01       		.uleb128 0x1
 7116 13a6 51       		.byte	0x51
 7117 13a7 09       		.uleb128 0x9
 7118 13a8 74       		.byte	0x74
 7119 13a9 00       		.sleb128 0
 7120 13aa 91       		.byte	0x91
 7121 13ab 8C7F     		.sleb128 -116
 7122 13ad 06       		.byte	0x6
 7123 13ae 22       		.byte	0x22
 7124 13af 36       		.byte	0x36
 7125 13b0 1C       		.byte	0x1c
 7126 13b1 15       		.uleb128 0x15
 7127 13b2 01       		.uleb128 0x1
 7128 13b3 52       		.byte	0x52
 7129 13b4 01       		.uleb128 0x1
 7130 13b5 34       		.byte	0x34
ARM GAS  C:\Users\Administrator\AppData\Local\Temp\ccexfbaX.s 			page 173


 7131 13b6 00       		.byte	0
 7132 13b7 14       		.uleb128 0x14
 7133 13b8 7E000000 		.4byte	.LVL307
 7134 13bc 64070000 		.4byte	0x764
 7135 13c0 CB130000 		.4byte	0x13cb
 7136 13c4 15       		.uleb128 0x15
 7137 13c5 01       		.uleb128 0x1
 7138 13c6 50       		.byte	0x50
 7139 13c7 02       		.uleb128 0x2
 7140 13c8 75       		.byte	0x75
 7141 13c9 00       		.sleb128 0
 7142 13ca 00       		.byte	0
 7143 13cb 14       		.uleb128 0x14
 7144 13cc 8E000000 		.4byte	.LVL308
 7145 13d0 9C280000 		.4byte	0x289c
 7146 13d4 E0130000 		.4byte	0x13e0
 7147 13d8 15       		.uleb128 0x15
 7148 13d9 01       		.uleb128 0x1
 7149 13da 50       		.byte	0x50
 7150 13db 03       		.uleb128 0x3
 7151 13dc 91       		.byte	0x91
 7152 13dd 9C7F     		.sleb128 -100
 7153 13df 00       		.byte	0
 7154 13e0 14       		.uleb128 0x14
 7155 13e1 9A000000 		.4byte	.LVL309
 7156 13e5 3B280000 		.4byte	0x283b
 7157 13e9 F3130000 		.4byte	0x13f3
 7158 13ed 15       		.uleb128 0x15
 7159 13ee 01       		.uleb128 0x1
 7160 13ef 50       		.byte	0x50
 7161 13f0 01       		.uleb128 0x1
 7162 13f1 34       		.byte	0x34
 7163 13f2 00       		.byte	0
 7164 13f3 14       		.uleb128 0x14
 7165 13f4 A4000000 		.4byte	.LVL310
 7166 13f8 3B280000 		.4byte	0x283b
 7167 13fc 06140000 		.4byte	0x1406
 7168 1400 15       		.uleb128 0x15
 7169 1401 01       		.uleb128 0x1
 7170 1402 50       		.byte	0x50
 7171 1403 01       		.uleb128 0x1
 7172 1404 35       		.byte	0x35
 7173 1405 00       		.byte	0
 7174 1406 16       		.uleb128 0x16
 7175 1407 B8000000 		.4byte	.LVL311
 7176 140b 1C0F0000 		.4byte	0xf1c
 7177 140f 15       		.uleb128 0x15
 7178 1410 01       		.uleb128 0x1
 7179 1411 50       		.byte	0x50
 7180 1412 05       		.uleb128 0x5
 7181 1413 91       		.byte	0x91
 7182 1414 887F     		.sleb128 -120
 7183 1416 94       		.byte	0x94
 7184 1417 01       		.byte	0x1
 7185 1418 15       		.uleb128 0x15
 7186 1419 01       		.uleb128 0x1
 7187 141a 51       		.byte	0x51
ARM GAS  C:\Users\Administrator\AppData\Local\Temp\ccexfbaX.s 			page 174


 7188 141b 01       		.uleb128 0x1
 7189 141c 31       		.byte	0x31
 7190 141d 15       		.uleb128 0x15
 7191 141e 01       		.uleb128 0x1
 7192 141f 53       		.byte	0x53
 7193 1420 02       		.uleb128 0x2
 7194 1421 76       		.byte	0x76
 7195 1422 00       		.sleb128 0
 7196 1423 15       		.uleb128 0x15
 7197 1424 02       		.uleb128 0x2
 7198 1425 7D       		.byte	0x7d
 7199 1426 00       		.sleb128 0
 7200 1427 01       		.uleb128 0x1
 7201 1428 47       		.byte	0x47
 7202 1429 00       		.byte	0
 7203 142a 00       		.byte	0
 7204 142b 17       		.uleb128 0x17
 7205 142c 05080000 		.4byte	.LASF159
 7206 1430 01       		.byte	0x1
 7207 1431 5503     		.2byte	0x355
 7208 1433 00000000 		.4byte	.LFB77
 7209 1437 9E000000 		.4byte	.LFE77-.LFB77
 7210 143b 01       		.uleb128 0x1
 7211 143c 9C       		.byte	0x9c
 7212 143d BD150000 		.4byte	0x15bd
 7213 1441 12       		.uleb128 0x12
 7214 1442 54020000 		.4byte	.LASF102
 7215 1446 01       		.byte	0x1
 7216 1447 5503     		.2byte	0x355
 7217 1449 03010000 		.4byte	0x103
 7218 144d 9A120000 		.4byte	.LLST75
 7219 1451 23       		.uleb128 0x23
 7220 1452 72657400 		.ascii	"ret\000"
 7221 1456 01       		.byte	0x1
 7222 1457 5703     		.2byte	0x357
 7223 1459 AD000000 		.4byte	0xad
 7224 145d C6120000 		.4byte	.LLST76
 7225 1461 18       		.uleb128 0x18
 7226 1462 A6080000 		.4byte	.LASF155
 7227 1466 01       		.byte	0x1
 7228 1467 5803     		.2byte	0x358
 7229 1469 2E120000 		.4byte	0x122e
 7230 146d 03       		.uleb128 0x3
 7231 146e 91       		.byte	0x91
 7232 146f A87F     		.sleb128 -88
 7233 1471 23       		.uleb128 0x23
 7234 1472 705400   		.ascii	"pT\000"
 7235 1475 01       		.byte	0x1
 7236 1476 5903     		.2byte	0x359
 7237 1478 03010000 		.4byte	0x103
 7238 147c E5120000 		.4byte	.LLST77
 7239 1480 18       		.uleb128 0x18
 7240 1481 5C030000 		.4byte	.LASF156
 7241 1485 01       		.byte	0x1
 7242 1486 5A03     		.2byte	0x35a
 7243 1488 EC020000 		.4byte	0x2ec
 7244 148c 03       		.uleb128 0x3
ARM GAS  C:\Users\Administrator\AppData\Local\Temp\ccexfbaX.s 			page 175


 7245 148d 91       		.byte	0x91
 7246 148e A07F     		.sleb128 -96
 7247 1490 13       		.uleb128 0x13
 7248 1491 2D0D0000 		.4byte	.LASF157
 7249 1495 01       		.byte	0x1
 7250 1496 5B03     		.2byte	0x35b
 7251 1498 AD000000 		.4byte	0xad
 7252 149c 30130000 		.4byte	.LLST78
 7253 14a0 18       		.uleb128 0x18
 7254 14a1 E8000000 		.4byte	.LASF103
 7255 14a5 01       		.byte	0x1
 7256 14a6 5C03     		.2byte	0x35c
 7257 14a8 B9000000 		.4byte	0xb9
 7258 14ac 03       		.uleb128 0x3
 7259 14ad 91       		.byte	0x91
 7260 14ae 9C7F     		.sleb128 -100
 7261 14b0 14       		.uleb128 0x14
 7262 14b1 24000000 		.4byte	.LVL320
 7263 14b5 5C280000 		.4byte	0x285c
 7264 14b9 CF140000 		.4byte	0x14cf
 7265 14bd 15       		.uleb128 0x15
 7266 14be 01       		.uleb128 0x1
 7267 14bf 50       		.byte	0x50
 7268 14c0 02       		.uleb128 0x2
 7269 14c1 75       		.byte	0x75
 7270 14c2 00       		.sleb128 0
 7271 14c3 15       		.uleb128 0x15
 7272 14c4 01       		.uleb128 0x1
 7273 14c5 51       		.byte	0x51
 7274 14c6 01       		.uleb128 0x1
 7275 14c7 30       		.byte	0x30
 7276 14c8 15       		.uleb128 0x15
 7277 14c9 01       		.uleb128 0x1
 7278 14ca 52       		.byte	0x52
 7279 14cb 02       		.uleb128 0x2
 7280 14cc 08       		.byte	0x8
 7281 14cd 40       		.byte	0x40
 7282 14ce 00       		.byte	0
 7283 14cf 14       		.uleb128 0x14
 7284 14d0 2E000000 		.4byte	.LVL321
 7285 14d4 E4270000 		.4byte	0x27e4
 7286 14d8 EE140000 		.4byte	0x14ee
 7287 14dc 15       		.uleb128 0x15
 7288 14dd 01       		.uleb128 0x1
 7289 14de 50       		.byte	0x50
 7290 14df 02       		.uleb128 0x2
 7291 14e0 75       		.byte	0x75
 7292 14e1 00       		.sleb128 0
 7293 14e2 15       		.uleb128 0x15
 7294 14e3 01       		.uleb128 0x1
 7295 14e4 51       		.byte	0x51
 7296 14e5 02       		.uleb128 0x2
 7297 14e6 74       		.byte	0x74
 7298 14e7 07       		.sleb128 7
 7299 14e8 15       		.uleb128 0x15
 7300 14e9 01       		.uleb128 0x1
 7301 14ea 52       		.byte	0x52
ARM GAS  C:\Users\Administrator\AppData\Local\Temp\ccexfbaX.s 			page 176


 7302 14eb 01       		.uleb128 0x1
 7303 14ec 36       		.byte	0x36
 7304 14ed 00       		.byte	0
 7305 14ee 14       		.uleb128 0x14
 7306 14ef 3E000000 		.4byte	.LVL322
 7307 14f3 E4270000 		.4byte	0x27e4
 7308 14f7 0E150000 		.4byte	0x150e
 7309 14fb 15       		.uleb128 0x15
 7310 14fc 01       		.uleb128 0x1
 7311 14fd 50       		.byte	0x50
 7312 14fe 03       		.uleb128 0x3
 7313 14ff 91       		.byte	0x91
 7314 1500 AE7F     		.sleb128 -82
 7315 1502 15       		.uleb128 0x15
 7316 1503 01       		.uleb128 0x1
 7317 1504 51       		.byte	0x51
 7318 1505 02       		.uleb128 0x2
 7319 1506 76       		.byte	0x76
 7320 1507 00       		.sleb128 0
 7321 1508 15       		.uleb128 0x15
 7322 1509 01       		.uleb128 0x1
 7323 150a 52       		.byte	0x52
 7324 150b 01       		.uleb128 0x1
 7325 150c 38       		.byte	0x38
 7326 150d 00       		.byte	0
 7327 150e 14       		.uleb128 0x14
 7328 150f 48000000 		.4byte	.LVL323
 7329 1513 E4270000 		.4byte	0x27e4
 7330 1517 2E150000 		.4byte	0x152e
 7331 151b 15       		.uleb128 0x15
 7332 151c 01       		.uleb128 0x1
 7333 151d 50       		.byte	0x50
 7334 151e 03       		.uleb128 0x3
 7335 151f 91       		.byte	0x91
 7336 1520 A07F     		.sleb128 -96
 7337 1522 15       		.uleb128 0x15
 7338 1523 01       		.uleb128 0x1
 7339 1524 51       		.byte	0x51
 7340 1525 02       		.uleb128 0x2
 7341 1526 76       		.byte	0x76
 7342 1527 00       		.sleb128 0
 7343 1528 15       		.uleb128 0x15
 7344 1529 01       		.uleb128 0x1
 7345 152a 52       		.byte	0x52
 7346 152b 01       		.uleb128 0x1
 7347 152c 38       		.byte	0x38
 7348 152d 00       		.byte	0
 7349 152e 14       		.uleb128 0x14
 7350 152f 5A000000 		.4byte	.LVL324
 7351 1533 E4270000 		.4byte	0x27e4
 7352 1537 55150000 		.4byte	0x1555
 7353 153b 15       		.uleb128 0x15
 7354 153c 01       		.uleb128 0x1
 7355 153d 50       		.byte	0x50
 7356 153e 03       		.uleb128 0x3
 7357 153f 91       		.byte	0x91
 7358 1540 B67F     		.sleb128 -74
ARM GAS  C:\Users\Administrator\AppData\Local\Temp\ccexfbaX.s 			page 177


 7359 1542 15       		.uleb128 0x15
 7360 1543 01       		.uleb128 0x1
 7361 1544 51       		.byte	0x51
 7362 1545 09       		.uleb128 0x9
 7363 1546 74       		.byte	0x74
 7364 1547 00       		.sleb128 0
 7365 1548 91       		.byte	0x91
 7366 1549 9C7F     		.sleb128 -100
 7367 154b 06       		.byte	0x6
 7368 154c 22       		.byte	0x22
 7369 154d 36       		.byte	0x36
 7370 154e 1C       		.byte	0x1c
 7371 154f 15       		.uleb128 0x15
 7372 1550 01       		.uleb128 0x1
 7373 1551 52       		.byte	0x52
 7374 1552 01       		.uleb128 0x1
 7375 1553 34       		.byte	0x34
 7376 1554 00       		.byte	0
 7377 1555 14       		.uleb128 0x14
 7378 1556 60000000 		.4byte	.LVL325
 7379 155a 64070000 		.4byte	0x764
 7380 155e 6A150000 		.4byte	0x156a
 7381 1562 15       		.uleb128 0x15
 7382 1563 01       		.uleb128 0x1
 7383 1564 50       		.byte	0x50
 7384 1565 03       		.uleb128 0x3
 7385 1566 91       		.byte	0x91
 7386 1567 A07F     		.sleb128 -96
 7387 1569 00       		.byte	0
 7388 156a 14       		.uleb128 0x14
 7389 156b 66000000 		.4byte	.LVL326
 7390 156f A7280000 		.4byte	0x28a7
 7391 1573 7F150000 		.4byte	0x157f
 7392 1577 15       		.uleb128 0x15
 7393 1578 01       		.uleb128 0x1
 7394 1579 50       		.byte	0x50
 7395 157a 03       		.uleb128 0x3
 7396 157b 91       		.byte	0x91
 7397 157c A07F     		.sleb128 -96
 7398 157e 00       		.byte	0
 7399 157f 19       		.uleb128 0x19
 7400 1580 78000000 		.4byte	.LVL328
 7401 1584 3B280000 		.4byte	0x283b
 7402 1588 14       		.uleb128 0x14
 7403 1589 86000000 		.4byte	.LVL329
 7404 158d 3B280000 		.4byte	0x283b
 7405 1591 9B150000 		.4byte	0x159b
 7406 1595 15       		.uleb128 0x15
 7407 1596 01       		.uleb128 0x1
 7408 1597 50       		.byte	0x50
 7409 1598 01       		.uleb128 0x1
 7410 1599 37       		.byte	0x37
 7411 159a 00       		.byte	0
 7412 159b 16       		.uleb128 0x16
 7413 159c 9A000000 		.4byte	.LVL330
 7414 15a0 1C0F0000 		.4byte	0xf1c
 7415 15a4 15       		.uleb128 0x15
ARM GAS  C:\Users\Administrator\AppData\Local\Temp\ccexfbaX.s 			page 178


 7416 15a5 01       		.uleb128 0x1
 7417 15a6 50       		.byte	0x50
 7418 15a7 02       		.uleb128 0x2
 7419 15a8 77       		.byte	0x77
 7420 15a9 00       		.sleb128 0
 7421 15aa 15       		.uleb128 0x15
 7422 15ab 01       		.uleb128 0x1
 7423 15ac 51       		.byte	0x51
 7424 15ad 01       		.uleb128 0x1
 7425 15ae 31       		.byte	0x31
 7426 15af 15       		.uleb128 0x15
 7427 15b0 01       		.uleb128 0x1
 7428 15b1 53       		.byte	0x53
 7429 15b2 02       		.uleb128 0x2
 7430 15b3 75       		.byte	0x75
 7431 15b4 00       		.sleb128 0
 7432 15b5 15       		.uleb128 0x15
 7433 15b6 02       		.uleb128 0x2
 7434 15b7 7D       		.byte	0x7d
 7435 15b8 00       		.sleb128 0
 7436 15b9 01       		.uleb128 0x1
 7437 15ba 43       		.byte	0x43
 7438 15bb 00       		.byte	0
 7439 15bc 00       		.byte	0
 7440 15bd 17       		.uleb128 0x17
 7441 15be C50A0000 		.4byte	.LASF160
 7442 15c2 01       		.byte	0x1
 7443 15c3 9303     		.2byte	0x393
 7444 15c5 00000000 		.4byte	.LFB78
 7445 15c9 8C010000 		.4byte	.LFE78-.LFB78
 7446 15cd 01       		.uleb128 0x1
 7447 15ce 9C       		.byte	0x9c
 7448 15cf D8180000 		.4byte	0x18d8
 7449 15d3 12       		.uleb128 0x12
 7450 15d4 54020000 		.4byte	.LASF102
 7451 15d8 01       		.byte	0x1
 7452 15d9 9303     		.2byte	0x393
 7453 15db 03010000 		.4byte	0x103
 7454 15df 43130000 		.4byte	.LLST79
 7455 15e3 23       		.uleb128 0x23
 7456 15e4 72657400 		.ascii	"ret\000"
 7457 15e8 01       		.byte	0x1
 7458 15e9 9503     		.2byte	0x395
 7459 15eb AD000000 		.4byte	0xad
 7460 15ef 88130000 		.4byte	.LLST80
 7461 15f3 13       		.uleb128 0x13
 7462 15f4 29030000 		.4byte	.LASF161
 7463 15f8 01       		.byte	0x1
 7464 15f9 9603     		.2byte	0x396
 7465 15fb AD000000 		.4byte	0xad
 7466 15ff A7130000 		.4byte	.LLST81
 7467 1603 18       		.uleb128 0x18
 7468 1604 A6080000 		.4byte	.LASF155
 7469 1608 01       		.byte	0x1
 7470 1609 9703     		.2byte	0x397
 7471 160b 48100000 		.4byte	0x1048
 7472 160f 03       		.uleb128 0x3
ARM GAS  C:\Users\Administrator\AppData\Local\Temp\ccexfbaX.s 			page 179


 7473 1610 91       		.byte	0x91
 7474 1611 E87D     		.sleb128 -280
 7475 1613 18       		.uleb128 0x18
 7476 1614 5C030000 		.4byte	.LASF156
 7477 1618 01       		.byte	0x1
 7478 1619 9803     		.2byte	0x398
 7479 161b EC020000 		.4byte	0x2ec
 7480 161f 03       		.uleb128 0x3
 7481 1620 91       		.byte	0x91
 7482 1621 C47D     		.sleb128 -316
 7483 1623 18       		.uleb128 0x18
 7484 1624 D3060000 		.4byte	.LASF162
 7485 1628 01       		.byte	0x1
 7486 1629 9903     		.2byte	0x399
 7487 162b 09010000 		.4byte	0x109
 7488 162f 03       		.uleb128 0x3
 7489 1630 91       		.byte	0x91
 7490 1631 BC7D     		.sleb128 -324
 7491 1633 18       		.uleb128 0x18
 7492 1634 DD080000 		.4byte	.LASF110
 7493 1638 01       		.byte	0x1
 7494 1639 9A03     		.2byte	0x39a
 7495 163b FC020000 		.4byte	0x2fc
 7496 163f 03       		.uleb128 0x3
 7497 1640 91       		.byte	0x91
 7498 1641 B87D     		.sleb128 -328
 7499 1643 13       		.uleb128 0x13
 7500 1644 F30D0000 		.4byte	.LASF163
 7501 1648 01       		.byte	0x1
 7502 1649 9B03     		.2byte	0x39b
 7503 164b AD000000 		.4byte	0xad
 7504 164f C7130000 		.4byte	.LLST82
 7505 1653 23       		.uleb128 0x23
 7506 1654 705400   		.ascii	"pT\000"
 7507 1657 01       		.byte	0x1
 7508 1658 9C03     		.2byte	0x39c
 7509 165a 03010000 		.4byte	0x103
 7510 165e 1B140000 		.4byte	.LLST83
 7511 1662 18       		.uleb128 0x18
 7512 1663 2D0D0000 		.4byte	.LASF157
 7513 1667 01       		.byte	0x1
 7514 1668 9D03     		.2byte	0x39d
 7515 166a AD000000 		.4byte	0xad
 7516 166e 03       		.uleb128 0x3
 7517 166f 91       		.byte	0x91
 7518 1670 B47D     		.sleb128 -332
 7519 1672 13       		.uleb128 0x13
 7520 1673 E8000000 		.4byte	.LASF103
 7521 1677 01       		.byte	0x1
 7522 1678 9E03     		.2byte	0x39e
 7523 167a B9000000 		.4byte	0xb9
 7524 167e 8D140000 		.4byte	.LLST84
 7525 1682 18       		.uleb128 0x18
 7526 1683 7C0C0000 		.4byte	.LASF93
 7527 1687 01       		.byte	0x1
 7528 1688 9F03     		.2byte	0x39f
 7529 168a 0C030000 		.4byte	0x30c
ARM GAS  C:\Users\Administrator\AppData\Local\Temp\ccexfbaX.s 			page 180


 7530 168e 03       		.uleb128 0x3
 7531 168f 91       		.byte	0x91
 7532 1690 CC7D     		.sleb128 -308
 7533 1692 18       		.uleb128 0x18
 7534 1693 B3060000 		.4byte	.LASF164
 7535 1697 01       		.byte	0x1
 7536 1698 A003     		.2byte	0x3a0
 7537 169a 48030000 		.4byte	0x348
 7538 169e 03       		.uleb128 0x3
 7539 169f 91       		.byte	0x91
 7540 16a0 D87D     		.sleb128 -296
 7541 16a2 14       		.uleb128 0x14
 7542 16a3 20000000 		.4byte	.LVL338
 7543 16a7 5C280000 		.4byte	0x285c
 7544 16ab C0160000 		.4byte	0x16c0
 7545 16af 15       		.uleb128 0x15
 7546 16b0 01       		.uleb128 0x1
 7547 16b1 50       		.byte	0x50
 7548 16b2 02       		.uleb128 0x2
 7549 16b3 74       		.byte	0x74
 7550 16b4 00       		.sleb128 0
 7551 16b5 15       		.uleb128 0x15
 7552 16b6 01       		.uleb128 0x1
 7553 16b7 51       		.byte	0x51
 7554 16b8 01       		.uleb128 0x1
 7555 16b9 30       		.byte	0x30
 7556 16ba 15       		.uleb128 0x15
 7557 16bb 01       		.uleb128 0x1
 7558 16bc 52       		.byte	0x52
 7559 16bd 01       		.uleb128 0x1
 7560 16be 40       		.byte	0x40
 7561 16bf 00       		.byte	0
 7562 16c0 14       		.uleb128 0x14
 7563 16c1 2E000000 		.4byte	.LVL340
 7564 16c5 5C280000 		.4byte	0x285c
 7565 16c9 E1160000 		.4byte	0x16e1
 7566 16cd 15       		.uleb128 0x15
 7567 16ce 01       		.uleb128 0x1
 7568 16cf 50       		.byte	0x50
 7569 16d0 03       		.uleb128 0x3
 7570 16d1 91       		.byte	0x91
 7571 16d2 E87D     		.sleb128 -280
 7572 16d4 15       		.uleb128 0x15
 7573 16d5 01       		.uleb128 0x1
 7574 16d6 51       		.byte	0x51
 7575 16d7 01       		.uleb128 0x1
 7576 16d8 30       		.byte	0x30
 7577 16d9 15       		.uleb128 0x15
 7578 16da 01       		.uleb128 0x1
 7579 16db 52       		.byte	0x52
 7580 16dc 03       		.uleb128 0x3
 7581 16dd 0A       		.byte	0xa
 7582 16de 0001     		.2byte	0x100
 7583 16e0 00       		.byte	0
 7584 16e1 14       		.uleb128 0x14
 7585 16e2 38000000 		.4byte	.LVL342
 7586 16e6 E4270000 		.4byte	0x27e4
ARM GAS  C:\Users\Administrator\AppData\Local\Temp\ccexfbaX.s 			page 181


 7587 16ea 01170000 		.4byte	0x1701
 7588 16ee 15       		.uleb128 0x15
 7589 16ef 01       		.uleb128 0x1
 7590 16f0 50       		.byte	0x50
 7591 16f1 03       		.uleb128 0x3
 7592 16f2 91       		.byte	0x91
 7593 16f3 E87D     		.sleb128 -280
 7594 16f5 15       		.uleb128 0x15
 7595 16f6 01       		.uleb128 0x1
 7596 16f7 51       		.byte	0x51
 7597 16f8 02       		.uleb128 0x2
 7598 16f9 75       		.byte	0x75
 7599 16fa 00       		.sleb128 0
 7600 16fb 15       		.uleb128 0x15
 7601 16fc 01       		.uleb128 0x1
 7602 16fd 52       		.byte	0x52
 7603 16fe 01       		.uleb128 0x1
 7604 16ff 36       		.byte	0x36
 7605 1700 00       		.byte	0
 7606 1701 14       		.uleb128 0x14
 7607 1702 42000000 		.4byte	.LVL343
 7608 1706 E4270000 		.4byte	0x27e4
 7609 170a 21170000 		.4byte	0x1721
 7610 170e 15       		.uleb128 0x15
 7611 170f 01       		.uleb128 0x1
 7612 1710 50       		.byte	0x50
 7613 1711 03       		.uleb128 0x3
 7614 1712 91       		.byte	0x91
 7615 1713 BC7D     		.sleb128 -324
 7616 1715 15       		.uleb128 0x15
 7617 1716 01       		.uleb128 0x1
 7618 1717 51       		.byte	0x51
 7619 1718 02       		.uleb128 0x2
 7620 1719 75       		.byte	0x75
 7621 171a 00       		.sleb128 0
 7622 171b 15       		.uleb128 0x15
 7623 171c 01       		.uleb128 0x1
 7624 171d 52       		.byte	0x52
 7625 171e 01       		.uleb128 0x1
 7626 171f 36       		.byte	0x36
 7627 1720 00       		.byte	0
 7628 1721 14       		.uleb128 0x14
 7629 1722 52000000 		.4byte	.LVL344
 7630 1726 E4270000 		.4byte	0x27e4
 7631 172a 41170000 		.4byte	0x1741
 7632 172e 15       		.uleb128 0x15
 7633 172f 01       		.uleb128 0x1
 7634 1730 50       		.byte	0x50
 7635 1731 03       		.uleb128 0x3
 7636 1732 91       		.byte	0x91
 7637 1733 EE7D     		.sleb128 -274
 7638 1735 15       		.uleb128 0x15
 7639 1736 01       		.uleb128 0x1
 7640 1737 51       		.byte	0x51
 7641 1738 02       		.uleb128 0x2
 7642 1739 75       		.byte	0x75
 7643 173a 00       		.sleb128 0
ARM GAS  C:\Users\Administrator\AppData\Local\Temp\ccexfbaX.s 			page 182


 7644 173b 15       		.uleb128 0x15
 7645 173c 01       		.uleb128 0x1
 7646 173d 52       		.byte	0x52
 7647 173e 01       		.uleb128 0x1
 7648 173f 38       		.byte	0x38
 7649 1740 00       		.byte	0
 7650 1741 14       		.uleb128 0x14
 7651 1742 5C000000 		.4byte	.LVL345
 7652 1746 E4270000 		.4byte	0x27e4
 7653 174a 61170000 		.4byte	0x1761
 7654 174e 15       		.uleb128 0x15
 7655 174f 01       		.uleb128 0x1
 7656 1750 50       		.byte	0x50
 7657 1751 03       		.uleb128 0x3
 7658 1752 91       		.byte	0x91
 7659 1753 C47D     		.sleb128 -316
 7660 1755 15       		.uleb128 0x15
 7661 1756 01       		.uleb128 0x1
 7662 1757 51       		.byte	0x51
 7663 1758 02       		.uleb128 0x2
 7664 1759 75       		.byte	0x75
 7665 175a 00       		.sleb128 0
 7666 175b 15       		.uleb128 0x15
 7667 175c 01       		.uleb128 0x1
 7668 175d 52       		.byte	0x52
 7669 175e 01       		.uleb128 0x1
 7670 175f 38       		.byte	0x38
 7671 1760 00       		.byte	0
 7672 1761 14       		.uleb128 0x14
 7673 1762 80000000 		.4byte	.LVL349
 7674 1766 E4270000 		.4byte	0x27e4
 7675 176a 81170000 		.4byte	0x1781
 7676 176e 15       		.uleb128 0x15
 7677 176f 01       		.uleb128 0x1
 7678 1770 50       		.byte	0x50
 7679 1771 03       		.uleb128 0x3
 7680 1772 91       		.byte	0x91
 7681 1773 F77D     		.sleb128 -265
 7682 1775 15       		.uleb128 0x15
 7683 1776 01       		.uleb128 0x1
 7684 1777 51       		.byte	0x51
 7685 1778 02       		.uleb128 0x2
 7686 1779 75       		.byte	0x75
 7687 177a 00       		.sleb128 0
 7688 177b 15       		.uleb128 0x15
 7689 177c 01       		.uleb128 0x1
 7690 177d 52       		.byte	0x52
 7691 177e 01       		.uleb128 0x1
 7692 177f 34       		.byte	0x34
 7693 1780 00       		.byte	0
 7694 1781 14       		.uleb128 0x14
 7695 1782 8A000000 		.4byte	.LVL350
 7696 1786 E4270000 		.4byte	0x27e4
 7697 178a A1170000 		.4byte	0x17a1
 7698 178e 15       		.uleb128 0x15
 7699 178f 01       		.uleb128 0x1
 7700 1790 50       		.byte	0x50
ARM GAS  C:\Users\Administrator\AppData\Local\Temp\ccexfbaX.s 			page 183


 7701 1791 03       		.uleb128 0x3
 7702 1792 91       		.byte	0x91
 7703 1793 B87D     		.sleb128 -328
 7704 1795 15       		.uleb128 0x15
 7705 1796 01       		.uleb128 0x1
 7706 1797 51       		.byte	0x51
 7707 1798 02       		.uleb128 0x2
 7708 1799 75       		.byte	0x75
 7709 179a 00       		.sleb128 0
 7710 179b 15       		.uleb128 0x15
 7711 179c 01       		.uleb128 0x1
 7712 179d 52       		.byte	0x52
 7713 179e 01       		.uleb128 0x1
 7714 179f 34       		.byte	0x34
 7715 17a0 00       		.byte	0
 7716 17a1 14       		.uleb128 0x14
 7717 17a2 92000000 		.4byte	.LVL352
 7718 17a6 64070000 		.4byte	0x764
 7719 17aa B6170000 		.4byte	0x17b6
 7720 17ae 15       		.uleb128 0x15
 7721 17af 01       		.uleb128 0x1
 7722 17b0 50       		.byte	0x50
 7723 17b1 03       		.uleb128 0x3
 7724 17b2 91       		.byte	0x91
 7725 17b3 C47D     		.sleb128 -316
 7726 17b5 00       		.byte	0
 7727 17b6 14       		.uleb128 0x14
 7728 17b7 A8000000 		.4byte	.LVL353
 7729 17bb 7B280000 		.4byte	0x287b
 7730 17bf D0170000 		.4byte	0x17d0
 7731 17c3 15       		.uleb128 0x15
 7732 17c4 01       		.uleb128 0x1
 7733 17c5 51       		.byte	0x51
 7734 17c6 03       		.uleb128 0x3
 7735 17c7 91       		.byte	0x91
 7736 17c8 BC7D     		.sleb128 -324
 7737 17ca 15       		.uleb128 0x15
 7738 17cb 01       		.uleb128 0x1
 7739 17cc 52       		.byte	0x52
 7740 17cd 01       		.uleb128 0x1
 7741 17ce 36       		.byte	0x36
 7742 17cf 00       		.byte	0
 7743 17d0 14       		.uleb128 0x14
 7744 17d1 B4000000 		.4byte	.LVL354
 7745 17d5 B2280000 		.4byte	0x28b2
 7746 17d9 E4170000 		.4byte	0x17e4
 7747 17dd 15       		.uleb128 0x15
 7748 17de 01       		.uleb128 0x1
 7749 17df 50       		.byte	0x50
 7750 17e0 02       		.uleb128 0x2
 7751 17e1 77       		.byte	0x77
 7752 17e2 00       		.sleb128 0
 7753 17e3 00       		.byte	0
 7754 17e4 14       		.uleb128 0x14
 7755 17e5 D8000000 		.4byte	.LVL359
 7756 17e9 1C0F0000 		.4byte	0xf1c
 7757 17ed 0D180000 		.4byte	0x180d
ARM GAS  C:\Users\Administrator\AppData\Local\Temp\ccexfbaX.s 			page 184


 7758 17f1 15       		.uleb128 0x15
 7759 17f2 01       		.uleb128 0x1
 7760 17f3 50       		.byte	0x50
 7761 17f4 05       		.uleb128 0x5
 7762 17f5 91       		.byte	0x91
 7763 17f6 B47D     		.sleb128 -332
 7764 17f8 94       		.byte	0x94
 7765 17f9 01       		.byte	0x1
 7766 17fa 15       		.uleb128 0x15
 7767 17fb 01       		.uleb128 0x1
 7768 17fc 51       		.byte	0x51
 7769 17fd 01       		.uleb128 0x1
 7770 17fe 31       		.byte	0x31
 7771 17ff 15       		.uleb128 0x15
 7772 1800 01       		.uleb128 0x1
 7773 1801 53       		.byte	0x53
 7774 1802 03       		.uleb128 0x3
 7775 1803 91       		.byte	0x91
 7776 1804 E87D     		.sleb128 -280
 7777 1806 15       		.uleb128 0x15
 7778 1807 02       		.uleb128 0x2
 7779 1808 7D       		.byte	0x7d
 7780 1809 00       		.sleb128 0
 7781 180a 01       		.uleb128 0x1
 7782 180b 44       		.byte	0x44
 7783 180c 00       		.byte	0
 7784 180d 19       		.uleb128 0x19
 7785 180e E0000000 		.4byte	.LVL361
 7786 1812 BD280000 		.4byte	0x28bd
 7787 1816 19       		.uleb128 0x19
 7788 1817 E4000000 		.4byte	.LVL362
 7789 181b C8280000 		.4byte	0x28c8
 7790 181f 14       		.uleb128 0x14
 7791 1820 EA000000 		.4byte	.LVL363
 7792 1824 3B280000 		.4byte	0x283b
 7793 1828 32180000 		.4byte	0x1832
 7794 182c 15       		.uleb128 0x15
 7795 182d 01       		.uleb128 0x1
 7796 182e 50       		.byte	0x50
 7797 182f 01       		.uleb128 0x1
 7798 1830 3A       		.byte	0x3a
 7799 1831 00       		.byte	0
 7800 1832 19       		.uleb128 0x19
 7801 1833 EE000000 		.4byte	.LVL364
 7802 1837 03280000 		.4byte	0x2803
 7803 183b 14       		.uleb128 0x14
 7804 183c 12010000 		.4byte	.LVL366
 7805 1840 D3280000 		.4byte	0x28d3
 7806 1844 58180000 		.4byte	0x1858
 7807 1848 15       		.uleb128 0x15
 7808 1849 01       		.uleb128 0x1
 7809 184a 50       		.byte	0x50
 7810 184b 02       		.uleb128 0x2
 7811 184c 74       		.byte	0x74
 7812 184d 00       		.sleb128 0
 7813 184e 15       		.uleb128 0x15
 7814 184f 01       		.uleb128 0x1
ARM GAS  C:\Users\Administrator\AppData\Local\Temp\ccexfbaX.s 			page 185


 7815 1850 51       		.byte	0x51
 7816 1851 05       		.uleb128 0x5
 7817 1852 91       		.byte	0x91
 7818 1853 B07D     		.sleb128 -336
 7819 1855 94       		.byte	0x94
 7820 1856 01       		.byte	0x1
 7821 1857 00       		.byte	0
 7822 1858 14       		.uleb128 0x14
 7823 1859 1A010000 		.4byte	.LVL367
 7824 185d DE280000 		.4byte	0x28de
 7825 1861 6D180000 		.4byte	0x186d
 7826 1865 15       		.uleb128 0x15
 7827 1866 01       		.uleb128 0x1
 7828 1867 50       		.byte	0x50
 7829 1868 03       		.uleb128 0x3
 7830 1869 0A       		.byte	0xa
 7831 186a E803     		.2byte	0x3e8
 7832 186c 00       		.byte	0
 7833 186d 19       		.uleb128 0x19
 7834 186e 1E010000 		.4byte	.LVL368
 7835 1872 E9280000 		.4byte	0x28e9
 7836 1876 19       		.uleb128 0x19
 7837 1877 26010000 		.4byte	.LVL369
 7838 187b F4280000 		.4byte	0x28f4
 7839 187f 19       		.uleb128 0x19
 7840 1880 38010000 		.4byte	.LVL370
 7841 1884 03280000 		.4byte	0x2803
 7842 1888 14       		.uleb128 0x14
 7843 1889 50010000 		.4byte	.LVL371
 7844 188d F1090000 		.4byte	0x9f1
 7845 1891 AA180000 		.4byte	0x18aa
 7846 1895 15       		.uleb128 0x15
 7847 1896 01       		.uleb128 0x1
 7848 1897 50       		.byte	0x50
 7849 1898 02       		.uleb128 0x2
 7850 1899 74       		.byte	0x74
 7851 189a 00       		.sleb128 0
 7852 189b 15       		.uleb128 0x15
 7853 189c 01       		.uleb128 0x1
 7854 189d 51       		.byte	0x51
 7855 189e 01       		.uleb128 0x1
 7856 189f 38       		.byte	0x38
 7857 18a0 15       		.uleb128 0x15
 7858 18a1 01       		.uleb128 0x1
 7859 18a2 52       		.byte	0x52
 7860 18a3 05       		.uleb128 0x5
 7861 18a4 91       		.byte	0x91
 7862 18a5 B07D     		.sleb128 -336
 7863 18a7 94       		.byte	0x94
 7864 18a8 01       		.byte	0x1
 7865 18a9 00       		.byte	0
 7866 18aa 19       		.uleb128 0x19
 7867 18ab 5E010000 		.4byte	.LVL373
 7868 18af FF280000 		.4byte	0x28ff
 7869 18b3 14       		.uleb128 0x14
 7870 18b4 64010000 		.4byte	.LVL374
 7871 18b8 3B280000 		.4byte	0x283b
ARM GAS  C:\Users\Administrator\AppData\Local\Temp\ccexfbaX.s 			page 186


 7872 18bc C6180000 		.4byte	0x18c6
 7873 18c0 15       		.uleb128 0x15
 7874 18c1 01       		.uleb128 0x1
 7875 18c2 50       		.byte	0x50
 7876 18c3 01       		.uleb128 0x1
 7877 18c4 3B       		.byte	0x3b
 7878 18c5 00       		.byte	0
 7879 18c6 16       		.uleb128 0x16
 7880 18c7 6C010000 		.4byte	.LVL375
 7881 18cb DE280000 		.4byte	0x28de
 7882 18cf 15       		.uleb128 0x15
 7883 18d0 01       		.uleb128 0x1
 7884 18d1 50       		.byte	0x50
 7885 18d2 03       		.uleb128 0x3
 7886 18d3 0A       		.byte	0xa
 7887 18d4 E803     		.2byte	0x3e8
 7888 18d6 00       		.byte	0
 7889 18d7 00       		.byte	0
 7890 18d8 17       		.uleb128 0x17
 7891 18d9 4C0F0000 		.4byte	.LASF165
 7892 18dd 01       		.byte	0x1
 7893 18de 5B04     		.2byte	0x45b
 7894 18e0 00000000 		.4byte	.LFB81
 7895 18e4 4E000000 		.4byte	.LFE81-.LFB81
 7896 18e8 01       		.uleb128 0x1
 7897 18e9 9C       		.byte	0x9c
 7898 18ea CC190000 		.4byte	0x19cc
 7899 18ee 12       		.uleb128 0x12
 7900 18ef 54020000 		.4byte	.LASF102
 7901 18f3 01       		.byte	0x1
 7902 18f4 5B04     		.2byte	0x45b
 7903 18f6 03010000 		.4byte	0x103
 7904 18fa A0140000 		.4byte	.LLST85
 7905 18fe 13       		.uleb128 0x13
 7906 18ff 29030000 		.4byte	.LASF161
 7907 1903 01       		.byte	0x1
 7908 1904 5D04     		.2byte	0x45d
 7909 1906 AD000000 		.4byte	0xad
 7910 190a CC140000 		.4byte	.LLST86
 7911 190e 18       		.uleb128 0x18
 7912 190f A6080000 		.4byte	.LASF155
 7913 1913 01       		.byte	0x1
 7914 1914 5E04     		.2byte	0x45e
 7915 1916 2E120000 		.4byte	0x122e
 7916 191a 03       		.uleb128 0x3
 7917 191b 91       		.byte	0x91
 7918 191c A87F     		.sleb128 -88
 7919 191e 23       		.uleb128 0x23
 7920 191f 705400   		.ascii	"pT\000"
 7921 1922 01       		.byte	0x1
 7922 1923 5F04     		.2byte	0x45f
 7923 1925 03010000 		.4byte	0x103
 7924 1929 F7140000 		.4byte	.LLST87
 7925 192d 13       		.uleb128 0x13
 7926 192e 2D0D0000 		.4byte	.LASF157
 7927 1932 01       		.byte	0x1
 7928 1933 6004     		.2byte	0x460
ARM GAS  C:\Users\Administrator\AppData\Local\Temp\ccexfbaX.s 			page 187


 7929 1935 AD000000 		.4byte	0xad
 7930 1939 26150000 		.4byte	.LLST88
 7931 193d 14       		.uleb128 0x14
 7932 193e 14000000 		.4byte	.LVL381
 7933 1942 5C280000 		.4byte	0x285c
 7934 1946 5C190000 		.4byte	0x195c
 7935 194a 15       		.uleb128 0x15
 7936 194b 01       		.uleb128 0x1
 7937 194c 50       		.byte	0x50
 7938 194d 02       		.uleb128 0x2
 7939 194e 75       		.byte	0x75
 7940 194f 00       		.sleb128 0
 7941 1950 15       		.uleb128 0x15
 7942 1951 01       		.uleb128 0x1
 7943 1952 51       		.byte	0x51
 7944 1953 01       		.uleb128 0x1
 7945 1954 30       		.byte	0x30
 7946 1955 15       		.uleb128 0x15
 7947 1956 01       		.uleb128 0x1
 7948 1957 52       		.byte	0x52
 7949 1958 02       		.uleb128 0x2
 7950 1959 08       		.byte	0x8
 7951 195a 40       		.byte	0x40
 7952 195b 00       		.byte	0
 7953 195c 14       		.uleb128 0x14
 7954 195d 1E000000 		.4byte	.LVL382
 7955 1961 E4270000 		.4byte	0x27e4
 7956 1965 7B190000 		.4byte	0x197b
 7957 1969 15       		.uleb128 0x15
 7958 196a 01       		.uleb128 0x1
 7959 196b 50       		.byte	0x50
 7960 196c 02       		.uleb128 0x2
 7961 196d 75       		.byte	0x75
 7962 196e 00       		.sleb128 0
 7963 196f 15       		.uleb128 0x15
 7964 1970 01       		.uleb128 0x1
 7965 1971 51       		.byte	0x51
 7966 1972 02       		.uleb128 0x2
 7967 1973 76       		.byte	0x76
 7968 1974 07       		.sleb128 7
 7969 1975 15       		.uleb128 0x15
 7970 1976 01       		.uleb128 0x1
 7971 1977 52       		.byte	0x52
 7972 1978 01       		.uleb128 0x1
 7973 1979 3A       		.byte	0x3a
 7974 197a 00       		.byte	0
 7975 197b 19       		.uleb128 0x19
 7976 197c 22000000 		.4byte	.LVL383
 7977 1980 0A290000 		.4byte	0x290a
 7978 1984 14       		.uleb128 0x14
 7979 1985 2E000000 		.4byte	.LVL384
 7980 1989 3B280000 		.4byte	0x283b
 7981 198d 97190000 		.4byte	0x1997
 7982 1991 15       		.uleb128 0x15
 7983 1992 01       		.uleb128 0x1
 7984 1993 50       		.byte	0x50
 7985 1994 01       		.uleb128 0x1
ARM GAS  C:\Users\Administrator\AppData\Local\Temp\ccexfbaX.s 			page 188


 7986 1995 38       		.byte	0x38
 7987 1996 00       		.byte	0
 7988 1997 14       		.uleb128 0x14
 7989 1998 36000000 		.4byte	.LVL386
 7990 199c 3B280000 		.4byte	0x283b
 7991 19a0 AA190000 		.4byte	0x19aa
 7992 19a4 15       		.uleb128 0x15
 7993 19a5 01       		.uleb128 0x1
 7994 19a6 50       		.byte	0x50
 7995 19a7 01       		.uleb128 0x1
 7996 19a8 39       		.byte	0x39
 7997 19a9 00       		.byte	0
 7998 19aa 16       		.uleb128 0x16
 7999 19ab 4A000000 		.4byte	.LVL388
 8000 19af 1C0F0000 		.4byte	0xf1c
 8001 19b3 15       		.uleb128 0x15
 8002 19b4 01       		.uleb128 0x1
 8003 19b5 50       		.byte	0x50
 8004 19b6 02       		.uleb128 0x2
 8005 19b7 77       		.byte	0x77
 8006 19b8 00       		.sleb128 0
 8007 19b9 15       		.uleb128 0x15
 8008 19ba 01       		.uleb128 0x1
 8009 19bb 51       		.byte	0x51
 8010 19bc 01       		.uleb128 0x1
 8011 19bd 31       		.byte	0x31
 8012 19be 15       		.uleb128 0x15
 8013 19bf 01       		.uleb128 0x1
 8014 19c0 53       		.byte	0x53
 8015 19c1 02       		.uleb128 0x2
 8016 19c2 75       		.byte	0x75
 8017 19c3 00       		.sleb128 0
 8018 19c4 15       		.uleb128 0x15
 8019 19c5 02       		.uleb128 0x2
 8020 19c6 7D       		.byte	0x7d
 8021 19c7 00       		.sleb128 0
 8022 19c8 01       		.uleb128 0x1
 8023 19c9 3B       		.byte	0x3b
 8024 19ca 00       		.byte	0
 8025 19cb 00       		.byte	0
 8026 19cc 17       		.uleb128 0x17
 8027 19cd D1070000 		.4byte	.LASF166
 8028 19d1 01       		.byte	0x1
 8029 19d2 B404     		.2byte	0x4b4
 8030 19d4 00000000 		.4byte	.LFB84
 8031 19d8 A4010000 		.4byte	.LFE84-.LFB84
 8032 19dc 01       		.uleb128 0x1
 8033 19dd 9C       		.byte	0x9c
 8034 19de 0B1C0000 		.4byte	0x1c0b
 8035 19e2 12       		.uleb128 0x12
 8036 19e3 54020000 		.4byte	.LASF102
 8037 19e7 01       		.byte	0x1
 8038 19e8 B404     		.2byte	0x4b4
 8039 19ea 03010000 		.4byte	0x103
 8040 19ee 39150000 		.4byte	.LLST89
 8041 19f2 23       		.uleb128 0x23
 8042 19f3 6900     		.ascii	"i\000"
ARM GAS  C:\Users\Administrator\AppData\Local\Temp\ccexfbaX.s 			page 189


 8043 19f5 01       		.byte	0x1
 8044 19f6 B604     		.2byte	0x4b6
 8045 19f8 AD000000 		.4byte	0xad
 8046 19fc 65150000 		.4byte	.LLST90
 8047 1a00 13       		.uleb128 0x13
 8048 1a01 29030000 		.4byte	.LASF161
 8049 1a05 01       		.byte	0x1
 8050 1a06 B704     		.2byte	0x4b7
 8051 1a08 AD000000 		.4byte	0xad
 8052 1a0c 9D150000 		.4byte	.LLST91
 8053 1a10 18       		.uleb128 0x18
 8054 1a11 A6080000 		.4byte	.LASF155
 8055 1a15 01       		.byte	0x1
 8056 1a16 B804     		.2byte	0x4b8
 8057 1a18 48100000 		.4byte	0x1048
 8058 1a1c 03       		.uleb128 0x3
 8059 1a1d 91       		.byte	0x91
 8060 1a1e E87B     		.sleb128 -536
 8061 1a20 23       		.uleb128 0x23
 8062 1a21 705400   		.ascii	"pT\000"
 8063 1a24 01       		.byte	0x1
 8064 1a25 B904     		.2byte	0x4b9
 8065 1a27 03010000 		.4byte	0x103
 8066 1a2b BE150000 		.4byte	.LLST92
 8067 1a2f 18       		.uleb128 0x18
 8068 1a30 2D0D0000 		.4byte	.LASF157
 8069 1a34 01       		.byte	0x1
 8070 1a35 BA04     		.2byte	0x4ba
 8071 1a37 AD000000 		.4byte	0xad
 8072 1a3b 03       		.uleb128 0x3
 8073 1a3c 91       		.byte	0x91
 8074 1a3d D47B     		.sleb128 -556
 8075 1a3f 18       		.uleb128 0x18
 8076 1a40 C1110000 		.4byte	.LASF167
 8077 1a44 01       		.byte	0x1
 8078 1a45 BB04     		.2byte	0x4bb
 8079 1a47 48100000 		.4byte	0x1048
 8080 1a4b 03       		.uleb128 0x3
 8081 1a4c 91       		.byte	0x91
 8082 1a4d E87D     		.sleb128 -280
 8083 1a4f 13       		.uleb128 0x13
 8084 1a50 CF110000 		.4byte	.LASF168
 8085 1a54 01       		.byte	0x1
 8086 1a55 BC04     		.2byte	0x4bc
 8087 1a57 FC020000 		.4byte	0x2fc
 8088 1a5b 9F160000 		.4byte	.LLST93
 8089 1a5f 13       		.uleb128 0x13
 8090 1a60 460F0000 		.4byte	.LASF169
 8091 1a64 01       		.byte	0x1
 8092 1a65 BD04     		.2byte	0x4bd
 8093 1a67 FC020000 		.4byte	0x2fc
 8094 1a6b C1160000 		.4byte	.LLST94
 8095 1a6f 13       		.uleb128 0x13
 8096 1a70 76110000 		.4byte	.LASF170
 8097 1a74 01       		.byte	0x1
 8098 1a75 BE04     		.2byte	0x4be
 8099 1a77 C5000000 		.4byte	0xc5
ARM GAS  C:\Users\Administrator\AppData\Local\Temp\ccexfbaX.s 			page 190


 8100 1a7b E3160000 		.4byte	.LLST95
 8101 1a7f 13       		.uleb128 0x13
 8102 1a80 89070000 		.4byte	.LASF171
 8103 1a84 01       		.byte	0x1
 8104 1a85 BF04     		.2byte	0x4bf
 8105 1a87 C5000000 		.4byte	0xc5
 8106 1a8b F6160000 		.4byte	.LLST96
 8107 1a8f 13       		.uleb128 0x13
 8108 1a90 610A0000 		.4byte	.LASF172
 8109 1a94 01       		.byte	0x1
 8110 1a95 C004     		.2byte	0x4c0
 8111 1a97 B9000000 		.4byte	0xb9
 8112 1a9b 09170000 		.4byte	.LLST97
 8113 1a9f 13       		.uleb128 0x13
 8114 1aa0 E8000000 		.4byte	.LASF103
 8115 1aa4 01       		.byte	0x1
 8116 1aa5 C104     		.2byte	0x4c1
 8117 1aa7 B9000000 		.4byte	0xb9
 8118 1aab 39170000 		.4byte	.LLST98
 8119 1aaf 18       		.uleb128 0x18
 8120 1ab0 3B010000 		.4byte	.LASF173
 8121 1ab4 01       		.byte	0x1
 8122 1ab5 C204     		.2byte	0x4c2
 8123 1ab7 B9000000 		.4byte	0xb9
 8124 1abb 03       		.uleb128 0x3
 8125 1abc 91       		.byte	0x91
 8126 1abd E67B     		.sleb128 -538
 8127 1abf 27       		.uleb128 0x27
 8128 1ac0 636D6400 		.ascii	"cmd\000"
 8129 1ac4 01       		.byte	0x1
 8130 1ac5 C304     		.2byte	0x4c3
 8131 1ac7 AD000000 		.4byte	0xad
 8132 1acb 03       		.uleb128 0x3
 8133 1acc 91       		.byte	0x91
 8134 1acd DC7B     		.sleb128 -548
 8135 1acf 14       		.uleb128 0x14
 8136 1ad0 28000000 		.4byte	.LVL398
 8137 1ad4 5C280000 		.4byte	0x285c
 8138 1ad8 EF1A0000 		.4byte	0x1aef
 8139 1adc 15       		.uleb128 0x15
 8140 1add 01       		.uleb128 0x1
 8141 1ade 50       		.byte	0x50
 8142 1adf 02       		.uleb128 0x2
 8143 1ae0 75       		.byte	0x75
 8144 1ae1 00       		.sleb128 0
 8145 1ae2 15       		.uleb128 0x15
 8146 1ae3 01       		.uleb128 0x1
 8147 1ae4 51       		.byte	0x51
 8148 1ae5 01       		.uleb128 0x1
 8149 1ae6 30       		.byte	0x30
 8150 1ae7 15       		.uleb128 0x15
 8151 1ae8 01       		.uleb128 0x1
 8152 1ae9 52       		.byte	0x52
 8153 1aea 03       		.uleb128 0x3
 8154 1aeb 0A       		.byte	0xa
 8155 1aec 0001     		.2byte	0x100
 8156 1aee 00       		.byte	0
ARM GAS  C:\Users\Administrator\AppData\Local\Temp\ccexfbaX.s 			page 191


 8157 1aef 14       		.uleb128 0x14
 8158 1af0 36000000 		.4byte	.LVL400
 8159 1af4 E4270000 		.4byte	0x27e4
 8160 1af8 0E1B0000 		.4byte	0x1b0e
 8161 1afc 15       		.uleb128 0x15
 8162 1afd 01       		.uleb128 0x1
 8163 1afe 50       		.byte	0x50
 8164 1aff 02       		.uleb128 0x2
 8165 1b00 75       		.byte	0x75
 8166 1b01 00       		.sleb128 0
 8167 1b02 15       		.uleb128 0x15
 8168 1b03 01       		.uleb128 0x1
 8169 1b04 51       		.byte	0x51
 8170 1b05 02       		.uleb128 0x2
 8171 1b06 74       		.byte	0x74
 8172 1b07 07       		.sleb128 7
 8173 1b08 15       		.uleb128 0x15
 8174 1b09 01       		.uleb128 0x1
 8175 1b0a 52       		.byte	0x52
 8176 1b0b 01       		.uleb128 0x1
 8177 1b0c 36       		.byte	0x36
 8178 1b0d 00       		.byte	0
 8179 1b0e 14       		.uleb128 0x14
 8180 1b0f 7E000000 		.4byte	.LVL405
 8181 1b13 15290000 		.4byte	0x2915
 8182 1b17 221B0000 		.4byte	0x1b22
 8183 1b1b 15       		.uleb128 0x15
 8184 1b1c 01       		.uleb128 0x1
 8185 1b1d 50       		.byte	0x50
 8186 1b1e 02       		.uleb128 0x2
 8187 1b1f 76       		.byte	0x76
 8188 1b20 00       		.sleb128 0
 8189 1b21 00       		.byte	0
 8190 1b22 14       		.uleb128 0x14
 8191 1b23 8C000000 		.4byte	.LVL406
 8192 1b27 20290000 		.4byte	0x2920
 8193 1b2b 361B0000 		.4byte	0x1b36
 8194 1b2f 15       		.uleb128 0x15
 8195 1b30 01       		.uleb128 0x1
 8196 1b31 50       		.byte	0x50
 8197 1b32 02       		.uleb128 0x2
 8198 1b33 76       		.byte	0x76
 8199 1b34 00       		.sleb128 0
 8200 1b35 00       		.byte	0
 8201 1b36 14       		.uleb128 0x14
 8202 1b37 CC000000 		.4byte	.LVL414
 8203 1b3b 2B290000 		.4byte	0x292b
 8204 1b3f 501B0000 		.4byte	0x1b50
 8205 1b43 15       		.uleb128 0x15
 8206 1b44 01       		.uleb128 0x1
 8207 1b45 51       		.byte	0x51
 8208 1b46 01       		.uleb128 0x1
 8209 1b47 31       		.byte	0x31
 8210 1b48 15       		.uleb128 0x15
 8211 1b49 01       		.uleb128 0x1
 8212 1b4a 52       		.byte	0x52
 8213 1b4b 03       		.uleb128 0x3
ARM GAS  C:\Users\Administrator\AppData\Local\Temp\ccexfbaX.s 			page 192


 8214 1b4c 91       		.byte	0x91
 8215 1b4d E87D     		.sleb128 -280
 8216 1b4f 00       		.byte	0
 8217 1b50 14       		.uleb128 0x14
 8218 1b51 D6000000 		.4byte	.LVL415
 8219 1b55 E4270000 		.4byte	0x27e4
 8220 1b59 701B0000 		.4byte	0x1b70
 8221 1b5d 15       		.uleb128 0x15
 8222 1b5e 01       		.uleb128 0x1
 8223 1b5f 50       		.byte	0x50
 8224 1b60 02       		.uleb128 0x2
 8225 1b61 75       		.byte	0x75
 8226 1b62 00       		.sleb128 0
 8227 1b63 15       		.uleb128 0x15
 8228 1b64 01       		.uleb128 0x1
 8229 1b65 51       		.byte	0x51
 8230 1b66 03       		.uleb128 0x3
 8231 1b67 91       		.byte	0x91
 8232 1b68 E87D     		.sleb128 -280
 8233 1b6a 15       		.uleb128 0x15
 8234 1b6b 01       		.uleb128 0x1
 8235 1b6c 52       		.byte	0x52
 8236 1b6d 01       		.uleb128 0x1
 8237 1b6e 40       		.byte	0x40
 8238 1b6f 00       		.byte	0
 8239 1b70 19       		.uleb128 0x19
 8240 1b71 E4000000 		.4byte	.LVL416
 8241 1b75 36290000 		.4byte	0x2936
 8242 1b79 14       		.uleb128 0x14
 8243 1b7a 2A010000 		.4byte	.LVL425
 8244 1b7e 2B290000 		.4byte	0x292b
 8245 1b82 931B0000 		.4byte	0x1b93
 8246 1b86 15       		.uleb128 0x15
 8247 1b87 01       		.uleb128 0x1
 8248 1b88 51       		.byte	0x51
 8249 1b89 01       		.uleb128 0x1
 8250 1b8a 31       		.byte	0x31
 8251 1b8b 15       		.uleb128 0x15
 8252 1b8c 01       		.uleb128 0x1
 8253 1b8d 52       		.byte	0x52
 8254 1b8e 03       		.uleb128 0x3
 8255 1b8f 91       		.byte	0x91
 8256 1b90 E87D     		.sleb128 -280
 8257 1b92 00       		.byte	0
 8258 1b93 14       		.uleb128 0x14
 8259 1b94 34010000 		.4byte	.LVL426
 8260 1b98 E4270000 		.4byte	0x27e4
 8261 1b9c B31B0000 		.4byte	0x1bb3
 8262 1ba0 15       		.uleb128 0x15
 8263 1ba1 01       		.uleb128 0x1
 8264 1ba2 50       		.byte	0x50
 8265 1ba3 02       		.uleb128 0x2
 8266 1ba4 77       		.byte	0x77
 8267 1ba5 00       		.sleb128 0
 8268 1ba6 15       		.uleb128 0x15
 8269 1ba7 01       		.uleb128 0x1
 8270 1ba8 51       		.byte	0x51
ARM GAS  C:\Users\Administrator\AppData\Local\Temp\ccexfbaX.s 			page 193


 8271 1ba9 03       		.uleb128 0x3
 8272 1baa 91       		.byte	0x91
 8273 1bab E87D     		.sleb128 -280
 8274 1bad 15       		.uleb128 0x15
 8275 1bae 01       		.uleb128 0x1
 8276 1baf 52       		.byte	0x52
 8277 1bb0 01       		.uleb128 0x1
 8278 1bb1 40       		.byte	0x40
 8279 1bb2 00       		.byte	0
 8280 1bb3 19       		.uleb128 0x19
 8281 1bb4 40010000 		.4byte	.LVL427
 8282 1bb8 36290000 		.4byte	0x2936
 8283 1bbc 14       		.uleb128 0x14
 8284 1bbd 6C010000 		.4byte	.LVL433
 8285 1bc1 E4270000 		.4byte	0x27e4
 8286 1bc5 E21B0000 		.4byte	0x1be2
 8287 1bc9 15       		.uleb128 0x15
 8288 1bca 01       		.uleb128 0x1
 8289 1bcb 50       		.byte	0x50
 8290 1bcc 02       		.uleb128 0x2
 8291 1bcd 77       		.byte	0x77
 8292 1bce 00       		.sleb128 0
 8293 1bcf 15       		.uleb128 0x15
 8294 1bd0 01       		.uleb128 0x1
 8295 1bd1 51       		.byte	0x51
 8296 1bd2 09       		.uleb128 0x9
 8297 1bd3 74       		.byte	0x74
 8298 1bd4 00       		.sleb128 0
 8299 1bd5 91       		.byte	0x91
 8300 1bd6 D87B     		.sleb128 -552
 8301 1bd8 06       		.byte	0x6
 8302 1bd9 22       		.byte	0x22
 8303 1bda 36       		.byte	0x36
 8304 1bdb 1C       		.byte	0x1c
 8305 1bdc 15       		.uleb128 0x15
 8306 1bdd 01       		.uleb128 0x1
 8307 1bde 52       		.byte	0x52
 8308 1bdf 01       		.uleb128 0x1
 8309 1be0 34       		.byte	0x34
 8310 1be1 00       		.byte	0
 8311 1be2 16       		.uleb128 0x16
 8312 1be3 90010000 		.4byte	.LVL436
 8313 1be7 1C0F0000 		.4byte	0xf1c
 8314 1beb 15       		.uleb128 0x15
 8315 1bec 01       		.uleb128 0x1
 8316 1bed 50       		.byte	0x50
 8317 1bee 05       		.uleb128 0x5
 8318 1bef 91       		.byte	0x91
 8319 1bf0 D47B     		.sleb128 -556
 8320 1bf2 94       		.byte	0x94
 8321 1bf3 01       		.byte	0x1
 8322 1bf4 15       		.uleb128 0x15
 8323 1bf5 01       		.uleb128 0x1
 8324 1bf6 51       		.byte	0x51
 8325 1bf7 01       		.uleb128 0x1
 8326 1bf8 31       		.byte	0x31
 8327 1bf9 15       		.uleb128 0x15
ARM GAS  C:\Users\Administrator\AppData\Local\Temp\ccexfbaX.s 			page 194


 8328 1bfa 01       		.uleb128 0x1
 8329 1bfb 52       		.byte	0x52
 8330 1bfc 05       		.uleb128 0x5
 8331 1bfd 91       		.byte	0x91
 8332 1bfe DC7B     		.sleb128 -548
 8333 1c00 94       		.byte	0x94
 8334 1c01 01       		.byte	0x1
 8335 1c02 15       		.uleb128 0x15
 8336 1c03 01       		.uleb128 0x1
 8337 1c04 53       		.byte	0x53
 8338 1c05 03       		.uleb128 0x3
 8339 1c06 91       		.byte	0x91
 8340 1c07 E87B     		.sleb128 -536
 8341 1c09 00       		.byte	0
 8342 1c0a 00       		.byte	0
 8343 1c0b 11       		.uleb128 0x11
 8344 1c0c CF000000 		.4byte	.LASF174
 8345 1c10 01       		.byte	0x1
 8346 1c11 1C05     		.2byte	0x51c
 8347 1c13 00000000 		.4byte	.LFB85
 8348 1c17 00010000 		.4byte	.LFE85-.LFB85
 8349 1c1b 01       		.uleb128 0x1
 8350 1c1c 9C       		.byte	0x9c
 8351 1c1d 571D0000 		.4byte	0x1d57
 8352 1c21 12       		.uleb128 0x12
 8353 1c22 54020000 		.4byte	.LASF102
 8354 1c26 01       		.byte	0x1
 8355 1c27 1C05     		.2byte	0x51c
 8356 1c29 03010000 		.4byte	0x103
 8357 1c2d B2170000 		.4byte	.LLST99
 8358 1c31 13       		.uleb128 0x13
 8359 1c32 29030000 		.4byte	.LASF161
 8360 1c36 01       		.byte	0x1
 8361 1c37 1E05     		.2byte	0x51e
 8362 1c39 AD000000 		.4byte	0xad
 8363 1c3d DE170000 		.4byte	.LLST100
 8364 1c41 18       		.uleb128 0x18
 8365 1c42 A6080000 		.4byte	.LASF155
 8366 1c46 01       		.byte	0x1
 8367 1c47 1F05     		.2byte	0x51f
 8368 1c49 2E120000 		.4byte	0x122e
 8369 1c4d 03       		.uleb128 0x3
 8370 1c4e 91       		.byte	0x91
 8371 1c4f A87F     		.sleb128 -88
 8372 1c51 23       		.uleb128 0x23
 8373 1c52 705400   		.ascii	"pT\000"
 8374 1c55 01       		.byte	0x1
 8375 1c56 2005     		.2byte	0x520
 8376 1c58 03010000 		.4byte	0x103
 8377 1c5c FD170000 		.4byte	.LLST101
 8378 1c60 18       		.uleb128 0x18
 8379 1c61 2D0D0000 		.4byte	.LASF157
 8380 1c65 01       		.byte	0x1
 8381 1c66 2105     		.2byte	0x521
 8382 1c68 AD000000 		.4byte	0xad
 8383 1c6c 03       		.uleb128 0x3
 8384 1c6d 91       		.byte	0x91
ARM GAS  C:\Users\Administrator\AppData\Local\Temp\ccexfbaX.s 			page 195


 8385 1c6e A47F     		.sleb128 -92
 8386 1c70 13       		.uleb128 0x13
 8387 1c71 820F0000 		.4byte	.LASF105
 8388 1c75 01       		.byte	0x1
 8389 1c76 2205     		.2byte	0x522
 8390 1c78 FC020000 		.4byte	0x2fc
 8391 1c7c 7D180000 		.4byte	.LLST102
 8392 1c80 13       		.uleb128 0x13
 8393 1c81 5B020000 		.4byte	.LASF106
 8394 1c85 01       		.byte	0x1
 8395 1c86 2305     		.2byte	0x523
 8396 1c88 B9000000 		.4byte	0xb9
 8397 1c8c CF180000 		.4byte	.LLST103
 8398 1c90 14       		.uleb128 0x14
 8399 1c91 16000000 		.4byte	.LVL444
 8400 1c95 E4270000 		.4byte	0x27e4
 8401 1c99 AF1C0000 		.4byte	0x1caf
 8402 1c9d 15       		.uleb128 0x15
 8403 1c9e 01       		.uleb128 0x1
 8404 1c9f 50       		.byte	0x50
 8405 1ca0 02       		.uleb128 0x2
 8406 1ca1 76       		.byte	0x76
 8407 1ca2 00       		.sleb128 0
 8408 1ca3 15       		.uleb128 0x15
 8409 1ca4 01       		.uleb128 0x1
 8410 1ca5 51       		.byte	0x51
 8411 1ca6 02       		.uleb128 0x2
 8412 1ca7 75       		.byte	0x75
 8413 1ca8 07       		.sleb128 7
 8414 1ca9 15       		.uleb128 0x15
 8415 1caa 01       		.uleb128 0x1
 8416 1cab 52       		.byte	0x52
 8417 1cac 01       		.uleb128 0x1
 8418 1cad 36       		.byte	0x36
 8419 1cae 00       		.byte	0
 8420 1caf 14       		.uleb128 0x14
 8421 1cb0 24000000 		.4byte	.LVL445
 8422 1cb4 E4270000 		.4byte	0x27e4
 8423 1cb8 CF1C0000 		.4byte	0x1ccf
 8424 1cbc 15       		.uleb128 0x15
 8425 1cbd 01       		.uleb128 0x1
 8426 1cbe 50       		.byte	0x50
 8427 1cbf 02       		.uleb128 0x2
 8428 1cc0 74       		.byte	0x74
 8429 1cc1 00       		.sleb128 0
 8430 1cc2 15       		.uleb128 0x15
 8431 1cc3 01       		.uleb128 0x1
 8432 1cc4 51       		.byte	0x51
 8433 1cc5 02       		.uleb128 0x2
 8434 1cc6 75       		.byte	0x75
 8435 1cc7 0D       		.sleb128 13
 8436 1cc8 15       		.uleb128 0x15
 8437 1cc9 01       		.uleb128 0x1
 8438 1cca 52       		.byte	0x52
 8439 1ccb 02       		.uleb128 0x2
 8440 1ccc 08       		.byte	0x8
 8441 1ccd C8       		.byte	0xc8
ARM GAS  C:\Users\Administrator\AppData\Local\Temp\ccexfbaX.s 			page 196


 8442 1cce 00       		.byte	0
 8443 1ccf 14       		.uleb128 0x14
 8444 1cd0 2A000000 		.4byte	.LVL446
 8445 1cd4 ED270000 		.4byte	0x27ed
 8446 1cd8 E31C0000 		.4byte	0x1ce3
 8447 1cdc 15       		.uleb128 0x15
 8448 1cdd 01       		.uleb128 0x1
 8449 1cde 50       		.byte	0x50
 8450 1cdf 02       		.uleb128 0x2
 8451 1ce0 74       		.byte	0x74
 8452 1ce1 00       		.sleb128 0
 8453 1ce2 00       		.byte	0
 8454 1ce3 14       		.uleb128 0x14
 8455 1ce4 34000000 		.4byte	.LVL447
 8456 1ce8 E4270000 		.4byte	0x27e4
 8457 1cec F71C0000 		.4byte	0x1cf7
 8458 1cf0 15       		.uleb128 0x15
 8459 1cf1 01       		.uleb128 0x1
 8460 1cf2 51       		.byte	0x51
 8461 1cf3 02       		.uleb128 0x2
 8462 1cf4 74       		.byte	0x74
 8463 1cf5 00       		.sleb128 0
 8464 1cf6 00       		.byte	0
 8465 1cf7 14       		.uleb128 0x14
 8466 1cf8 AE000000 		.4byte	.LVL459
 8467 1cfc E4270000 		.4byte	0x27e4
 8468 1d00 181D0000 		.4byte	0x1d18
 8469 1d04 15       		.uleb128 0x15
 8470 1d05 01       		.uleb128 0x1
 8471 1d06 50       		.byte	0x50
 8472 1d07 03       		.uleb128 0x3
 8473 1d08 91       		.byte	0x91
 8474 1d09 B07F     		.sleb128 -80
 8475 1d0b 15       		.uleb128 0x15
 8476 1d0c 01       		.uleb128 0x1
 8477 1d0d 51       		.byte	0x51
 8478 1d0e 03       		.uleb128 0x3
 8479 1d0f 75       		.byte	0x75
 8480 1d10 DB01     		.sleb128 219
 8481 1d12 15       		.uleb128 0x15
 8482 1d13 01       		.uleb128 0x1
 8483 1d14 52       		.byte	0x52
 8484 1d15 01       		.uleb128 0x1
 8485 1d16 34       		.byte	0x34
 8486 1d17 00       		.byte	0
 8487 1d18 14       		.uleb128 0x14
 8488 1d19 D0000000 		.4byte	.LVL460
 8489 1d1d 41290000 		.4byte	0x2941
 8490 1d21 321D0000 		.4byte	0x1d32
 8491 1d25 15       		.uleb128 0x15
 8492 1d26 01       		.uleb128 0x1
 8493 1d27 50       		.byte	0x50
 8494 1d28 02       		.uleb128 0x2
 8495 1d29 77       		.byte	0x77
 8496 1d2a 00       		.sleb128 0
 8497 1d2b 15       		.uleb128 0x15
 8498 1d2c 01       		.uleb128 0x1
ARM GAS  C:\Users\Administrator\AppData\Local\Temp\ccexfbaX.s 			page 197


 8499 1d2d 51       		.byte	0x51
 8500 1d2e 02       		.uleb128 0x2
 8501 1d2f 74       		.byte	0x74
 8502 1d30 00       		.sleb128 0
 8503 1d31 00       		.byte	0
 8504 1d32 16       		.uleb128 0x16
 8505 1d33 E2000000 		.4byte	.LVL461
 8506 1d37 1C0F0000 		.4byte	0xf1c
 8507 1d3b 15       		.uleb128 0x15
 8508 1d3c 01       		.uleb128 0x1
 8509 1d3d 50       		.byte	0x50
 8510 1d3e 05       		.uleb128 0x5
 8511 1d3f 91       		.byte	0x91
 8512 1d40 A47F     		.sleb128 -92
 8513 1d42 94       		.byte	0x94
 8514 1d43 01       		.byte	0x1
 8515 1d44 15       		.uleb128 0x15
 8516 1d45 01       		.uleb128 0x1
 8517 1d46 51       		.byte	0x51
 8518 1d47 01       		.uleb128 0x1
 8519 1d48 31       		.byte	0x31
 8520 1d49 15       		.uleb128 0x15
 8521 1d4a 01       		.uleb128 0x1
 8522 1d4b 53       		.byte	0x53
 8523 1d4c 02       		.uleb128 0x2
 8524 1d4d 76       		.byte	0x76
 8525 1d4e 00       		.sleb128 0
 8526 1d4f 15       		.uleb128 0x15
 8527 1d50 02       		.uleb128 0x2
 8528 1d51 7D       		.byte	0x7d
 8529 1d52 00       		.sleb128 0
 8530 1d53 01       		.uleb128 0x1
 8531 1d54 3D       		.byte	0x3d
 8532 1d55 00       		.byte	0
 8533 1d56 00       		.byte	0
 8534 1d57 17       		.uleb128 0x17
 8535 1d58 54000000 		.4byte	.LASF175
 8536 1d5c 01       		.byte	0x1
 8537 1d5d 5F05     		.2byte	0x55f
 8538 1d5f 00000000 		.4byte	.LFB86
 8539 1d63 58000000 		.4byte	.LFE86-.LFB86
 8540 1d67 01       		.uleb128 0x1
 8541 1d68 9C       		.byte	0x9c
 8542 1d69 4E1E0000 		.4byte	0x1e4e
 8543 1d6d 12       		.uleb128 0x12
 8544 1d6e 54020000 		.4byte	.LASF102
 8545 1d72 01       		.byte	0x1
 8546 1d73 5F05     		.2byte	0x55f
 8547 1d75 03010000 		.4byte	0x103
 8548 1d79 E2180000 		.4byte	.LLST104
 8549 1d7d 24       		.uleb128 0x24
 8550 1d7e 29030000 		.4byte	.LASF161
 8551 1d82 01       		.byte	0x1
 8552 1d83 6105     		.2byte	0x561
 8553 1d85 AD000000 		.4byte	0xad
 8554 1d89 01       		.byte	0x1
 8555 1d8a 18       		.uleb128 0x18
ARM GAS  C:\Users\Administrator\AppData\Local\Temp\ccexfbaX.s 			page 198


 8556 1d8b A6080000 		.4byte	.LASF155
 8557 1d8f 01       		.byte	0x1
 8558 1d90 6205     		.2byte	0x562
 8559 1d92 2E120000 		.4byte	0x122e
 8560 1d96 03       		.uleb128 0x3
 8561 1d97 91       		.byte	0x91
 8562 1d98 A87F     		.sleb128 -88
 8563 1d9a 23       		.uleb128 0x23
 8564 1d9b 705400   		.ascii	"pT\000"
 8565 1d9e 01       		.byte	0x1
 8566 1d9f 6305     		.2byte	0x563
 8567 1da1 03010000 		.4byte	0x103
 8568 1da5 0E190000 		.4byte	.LLST105
 8569 1da9 13       		.uleb128 0x13
 8570 1daa 2D0D0000 		.4byte	.LASF157
 8571 1dae 01       		.byte	0x1
 8572 1daf 6405     		.2byte	0x564
 8573 1db1 AD000000 		.4byte	0xad
 8574 1db5 4B190000 		.4byte	.LLST106
 8575 1db9 13       		.uleb128 0x13
 8576 1dba E8000000 		.4byte	.LASF103
 8577 1dbe 01       		.byte	0x1
 8578 1dbf 6505     		.2byte	0x565
 8579 1dc1 B9000000 		.4byte	0xb9
 8580 1dc5 5E190000 		.4byte	.LLST107
 8581 1dc9 14       		.uleb128 0x14
 8582 1dca 1E000000 		.4byte	.LVL469
 8583 1dce 5C280000 		.4byte	0x285c
 8584 1dd2 E81D0000 		.4byte	0x1de8
 8585 1dd6 15       		.uleb128 0x15
 8586 1dd7 01       		.uleb128 0x1
 8587 1dd8 50       		.byte	0x50
 8588 1dd9 02       		.uleb128 0x2
 8589 1dda 76       		.byte	0x76
 8590 1ddb 00       		.sleb128 0
 8591 1ddc 15       		.uleb128 0x15
 8592 1ddd 01       		.uleb128 0x1
 8593 1dde 51       		.byte	0x51
 8594 1ddf 01       		.uleb128 0x1
 8595 1de0 30       		.byte	0x30
 8596 1de1 15       		.uleb128 0x15
 8597 1de2 01       		.uleb128 0x1
 8598 1de3 52       		.byte	0x52
 8599 1de4 02       		.uleb128 0x2
 8600 1de5 08       		.byte	0x8
 8601 1de6 40       		.byte	0x40
 8602 1de7 00       		.byte	0
 8603 1de8 14       		.uleb128 0x14
 8604 1de9 28000000 		.4byte	.LVL470
 8605 1ded E4270000 		.4byte	0x27e4
 8606 1df1 071E0000 		.4byte	0x1e07
 8607 1df5 15       		.uleb128 0x15
 8608 1df6 01       		.uleb128 0x1
 8609 1df7 50       		.byte	0x50
 8610 1df8 02       		.uleb128 0x2
 8611 1df9 76       		.byte	0x76
 8612 1dfa 00       		.sleb128 0
ARM GAS  C:\Users\Administrator\AppData\Local\Temp\ccexfbaX.s 			page 199


 8613 1dfb 15       		.uleb128 0x15
 8614 1dfc 01       		.uleb128 0x1
 8615 1dfd 51       		.byte	0x51
 8616 1dfe 02       		.uleb128 0x2
 8617 1dff 75       		.byte	0x75
 8618 1e00 07       		.sleb128 7
 8619 1e01 15       		.uleb128 0x15
 8620 1e02 01       		.uleb128 0x1
 8621 1e03 52       		.byte	0x52
 8622 1e04 01       		.uleb128 0x1
 8623 1e05 36       		.byte	0x36
 8624 1e06 00       		.byte	0
 8625 1e07 14       		.uleb128 0x14
 8626 1e08 38000000 		.4byte	.LVL472
 8627 1e0c E4270000 		.4byte	0x27e4
 8628 1e10 2C1E0000 		.4byte	0x1e2c
 8629 1e14 15       		.uleb128 0x15
 8630 1e15 01       		.uleb128 0x1
 8631 1e16 50       		.byte	0x50
 8632 1e17 03       		.uleb128 0x3
 8633 1e18 91       		.byte	0x91
 8634 1e19 AE7F     		.sleb128 -82
 8635 1e1b 15       		.uleb128 0x15
 8636 1e1c 01       		.uleb128 0x1
 8637 1e1d 51       		.byte	0x51
 8638 1e1e 07       		.uleb128 0x7
 8639 1e1f 75       		.byte	0x75
 8640 1e20 00       		.sleb128 0
 8641 1e21 74       		.byte	0x74
 8642 1e22 00       		.sleb128 0
 8643 1e23 22       		.byte	0x22
 8644 1e24 36       		.byte	0x36
 8645 1e25 1C       		.byte	0x1c
 8646 1e26 15       		.uleb128 0x15
 8647 1e27 01       		.uleb128 0x1
 8648 1e28 52       		.byte	0x52
 8649 1e29 01       		.uleb128 0x1
 8650 1e2a 34       		.byte	0x34
 8651 1e2b 00       		.byte	0
 8652 1e2c 16       		.uleb128 0x16
 8653 1e2d 4E000000 		.4byte	.LVL473
 8654 1e31 1C0F0000 		.4byte	0xf1c
 8655 1e35 15       		.uleb128 0x15
 8656 1e36 01       		.uleb128 0x1
 8657 1e37 50       		.byte	0x50
 8658 1e38 02       		.uleb128 0x2
 8659 1e39 77       		.byte	0x77
 8660 1e3a 00       		.sleb128 0
 8661 1e3b 15       		.uleb128 0x15
 8662 1e3c 01       		.uleb128 0x1
 8663 1e3d 51       		.byte	0x51
 8664 1e3e 01       		.uleb128 0x1
 8665 1e3f 31       		.byte	0x31
 8666 1e40 15       		.uleb128 0x15
 8667 1e41 01       		.uleb128 0x1
 8668 1e42 53       		.byte	0x53
 8669 1e43 02       		.uleb128 0x2
ARM GAS  C:\Users\Administrator\AppData\Local\Temp\ccexfbaX.s 			page 200


 8670 1e44 76       		.byte	0x76
 8671 1e45 00       		.sleb128 0
 8672 1e46 15       		.uleb128 0x15
 8673 1e47 02       		.uleb128 0x2
 8674 1e48 7D       		.byte	0x7d
 8675 1e49 00       		.sleb128 0
 8676 1e4a 01       		.uleb128 0x1
 8677 1e4b 3B       		.byte	0x3b
 8678 1e4c 00       		.byte	0
 8679 1e4d 00       		.byte	0
 8680 1e4e 17       		.uleb128 0x17
 8681 1e4f F0070000 		.4byte	.LASF176
 8682 1e53 01       		.byte	0x1
 8683 1e54 DB05     		.2byte	0x5db
 8684 1e56 00000000 		.4byte	.LFB88
 8685 1e5a B8000000 		.4byte	.LFE88-.LFB88
 8686 1e5e 01       		.uleb128 0x1
 8687 1e5f 9C       		.byte	0x9c
 8688 1e60 D81F0000 		.4byte	0x1fd8
 8689 1e64 12       		.uleb128 0x12
 8690 1e65 54020000 		.4byte	.LASF102
 8691 1e69 01       		.byte	0x1
 8692 1e6a DB05     		.2byte	0x5db
 8693 1e6c 03010000 		.4byte	0x103
 8694 1e70 71190000 		.4byte	.LLST108
 8695 1e74 13       		.uleb128 0x13
 8696 1e75 29030000 		.4byte	.LASF161
 8697 1e79 01       		.byte	0x1
 8698 1e7a DD05     		.2byte	0x5dd
 8699 1e7c AD000000 		.4byte	0xad
 8700 1e80 9D190000 		.4byte	.LLST109
 8701 1e84 18       		.uleb128 0x18
 8702 1e85 A6080000 		.4byte	.LASF155
 8703 1e89 01       		.byte	0x1
 8704 1e8a DE05     		.2byte	0x5de
 8705 1e8c 2E120000 		.4byte	0x122e
 8706 1e90 03       		.uleb128 0x3
 8707 1e91 91       		.byte	0x91
 8708 1e92 A87F     		.sleb128 -88
 8709 1e94 23       		.uleb128 0x23
 8710 1e95 705400   		.ascii	"pT\000"
 8711 1e98 01       		.byte	0x1
 8712 1e99 DF05     		.2byte	0x5df
 8713 1e9b 03010000 		.4byte	0x103
 8714 1e9f B1190000 		.4byte	.LLST110
 8715 1ea3 13       		.uleb128 0x13
 8716 1ea4 2D0D0000 		.4byte	.LASF157
 8717 1ea8 01       		.byte	0x1
 8718 1ea9 E005     		.2byte	0x5e0
 8719 1eab AD000000 		.4byte	0xad
 8720 1eaf EE190000 		.4byte	.LLST111
 8721 1eb3 18       		.uleb128 0x18
 8722 1eb4 E8000000 		.4byte	.LASF103
 8723 1eb8 01       		.byte	0x1
 8724 1eb9 E105     		.2byte	0x5e1
 8725 1ebb B9000000 		.4byte	0xb9
 8726 1ebf 03       		.uleb128 0x3
ARM GAS  C:\Users\Administrator\AppData\Local\Temp\ccexfbaX.s 			page 201


 8727 1ec0 91       		.byte	0x91
 8728 1ec1 A47F     		.sleb128 -92
 8729 1ec3 13       		.uleb128 0x13
 8730 1ec4 13090000 		.4byte	.LASF177
 8731 1ec8 01       		.byte	0x1
 8732 1ec9 E205     		.2byte	0x5e2
 8733 1ecb AD000000 		.4byte	0xad
 8734 1ecf 1C1A0000 		.4byte	.LLST112
 8735 1ed3 14       		.uleb128 0x14
 8736 1ed4 24000000 		.4byte	.LVL483
 8737 1ed8 5C280000 		.4byte	0x285c
 8738 1edc F21E0000 		.4byte	0x1ef2
 8739 1ee0 15       		.uleb128 0x15
 8740 1ee1 01       		.uleb128 0x1
 8741 1ee2 50       		.byte	0x50
 8742 1ee3 02       		.uleb128 0x2
 8743 1ee4 76       		.byte	0x76
 8744 1ee5 00       		.sleb128 0
 8745 1ee6 15       		.uleb128 0x15
 8746 1ee7 01       		.uleb128 0x1
 8747 1ee8 51       		.byte	0x51
 8748 1ee9 01       		.uleb128 0x1
 8749 1eea 30       		.byte	0x30
 8750 1eeb 15       		.uleb128 0x15
 8751 1eec 01       		.uleb128 0x1
 8752 1eed 52       		.byte	0x52
 8753 1eee 02       		.uleb128 0x2
 8754 1eef 08       		.byte	0x8
 8755 1ef0 40       		.byte	0x40
 8756 1ef1 00       		.byte	0
 8757 1ef2 14       		.uleb128 0x14
 8758 1ef3 2E000000 		.4byte	.LVL484
 8759 1ef7 E4270000 		.4byte	0x27e4
 8760 1efb 111F0000 		.4byte	0x1f11
 8761 1eff 15       		.uleb128 0x15
 8762 1f00 01       		.uleb128 0x1
 8763 1f01 50       		.byte	0x50
 8764 1f02 02       		.uleb128 0x2
 8765 1f03 76       		.byte	0x76
 8766 1f04 00       		.sleb128 0
 8767 1f05 15       		.uleb128 0x15
 8768 1f06 01       		.uleb128 0x1
 8769 1f07 51       		.byte	0x51
 8770 1f08 02       		.uleb128 0x2
 8771 1f09 75       		.byte	0x75
 8772 1f0a 07       		.sleb128 7
 8773 1f0b 15       		.uleb128 0x15
 8774 1f0c 01       		.uleb128 0x1
 8775 1f0d 52       		.byte	0x52
 8776 1f0e 01       		.uleb128 0x1
 8777 1f0f 36       		.byte	0x36
 8778 1f10 00       		.byte	0
 8779 1f11 14       		.uleb128 0x14
 8780 1f12 4E000000 		.4byte	.LVL488
 8781 1f16 E4270000 		.4byte	0x27e4
 8782 1f1a 381F0000 		.4byte	0x1f38
 8783 1f1e 15       		.uleb128 0x15
ARM GAS  C:\Users\Administrator\AppData\Local\Temp\ccexfbaX.s 			page 202


 8784 1f1f 01       		.uleb128 0x1
 8785 1f20 50       		.byte	0x50
 8786 1f21 03       		.uleb128 0x3
 8787 1f22 91       		.byte	0x91
 8788 1f23 AF7F     		.sleb128 -81
 8789 1f25 15       		.uleb128 0x15
 8790 1f26 01       		.uleb128 0x1
 8791 1f27 51       		.byte	0x51
 8792 1f28 09       		.uleb128 0x9
 8793 1f29 75       		.byte	0x75
 8794 1f2a 00       		.sleb128 0
 8795 1f2b 91       		.byte	0x91
 8796 1f2c A47F     		.sleb128 -92
 8797 1f2e 06       		.byte	0x6
 8798 1f2f 22       		.byte	0x22
 8799 1f30 36       		.byte	0x36
 8800 1f31 1C       		.byte	0x1c
 8801 1f32 15       		.uleb128 0x15
 8802 1f33 01       		.uleb128 0x1
 8803 1f34 52       		.byte	0x52
 8804 1f35 01       		.uleb128 0x1
 8805 1f36 34       		.byte	0x34
 8806 1f37 00       		.byte	0
 8807 1f38 14       		.uleb128 0x14
 8808 1f39 60000000 		.4byte	.LVL489
 8809 1f3d 1C0F0000 		.4byte	0xf1c
 8810 1f41 601F0000 		.4byte	0x1f60
 8811 1f45 15       		.uleb128 0x15
 8812 1f46 01       		.uleb128 0x1
 8813 1f47 50       		.byte	0x50
 8814 1f48 05       		.uleb128 0x5
 8815 1f49 91       		.byte	0x91
 8816 1f4a A07F     		.sleb128 -96
 8817 1f4c 94       		.byte	0x94
 8818 1f4d 01       		.byte	0x1
 8819 1f4e 15       		.uleb128 0x15
 8820 1f4f 01       		.uleb128 0x1
 8821 1f50 51       		.byte	0x51
 8822 1f51 01       		.uleb128 0x1
 8823 1f52 31       		.byte	0x31
 8824 1f53 15       		.uleb128 0x15
 8825 1f54 01       		.uleb128 0x1
 8826 1f55 53       		.byte	0x53
 8827 1f56 02       		.uleb128 0x2
 8828 1f57 76       		.byte	0x76
 8829 1f58 00       		.sleb128 0
 8830 1f59 15       		.uleb128 0x15
 8831 1f5a 02       		.uleb128 0x2
 8832 1f5b 7D       		.byte	0x7d
 8833 1f5c 00       		.sleb128 0
 8834 1f5d 01       		.uleb128 0x1
 8835 1f5e 3C       		.byte	0x3c
 8836 1f5f 00       		.byte	0
 8837 1f60 14       		.uleb128 0x14
 8838 1f61 6A000000 		.4byte	.LVL490
 8839 1f65 4C290000 		.4byte	0x294c
 8840 1f69 741F0000 		.4byte	0x1f74
ARM GAS  C:\Users\Administrator\AppData\Local\Temp\ccexfbaX.s 			page 203


 8841 1f6d 15       		.uleb128 0x15
 8842 1f6e 01       		.uleb128 0x1
 8843 1f6f 50       		.byte	0x50
 8844 1f70 02       		.uleb128 0x2
 8845 1f71 74       		.byte	0x74
 8846 1f72 00       		.sleb128 0
 8847 1f73 00       		.byte	0
 8848 1f74 14       		.uleb128 0x14
 8849 1f75 7A000000 		.4byte	.LVL491
 8850 1f79 3B280000 		.4byte	0x283b
 8851 1f7d 871F0000 		.4byte	0x1f87
 8852 1f81 15       		.uleb128 0x15
 8853 1f82 01       		.uleb128 0x1
 8854 1f83 50       		.byte	0x50
 8855 1f84 01       		.uleb128 0x1
 8856 1f85 3F       		.byte	0x3f
 8857 1f86 00       		.byte	0
 8858 1f87 14       		.uleb128 0x14
 8859 1f88 82000000 		.4byte	.LVL492
 8860 1f8c 51280000 		.4byte	0x2851
 8861 1f90 9C1F0000 		.4byte	0x1f9c
 8862 1f94 15       		.uleb128 0x15
 8863 1f95 01       		.uleb128 0x1
 8864 1f96 50       		.byte	0x50
 8865 1f97 03       		.uleb128 0x3
 8866 1f98 0A       		.byte	0xa
 8867 1f99 2C01     		.2byte	0x12c
 8868 1f9b 00       		.byte	0
 8869 1f9c 14       		.uleb128 0x14
 8870 1f9d 96000000 		.4byte	.LVL493
 8871 1fa1 4C290000 		.4byte	0x294c
 8872 1fa5 B01F0000 		.4byte	0x1fb0
 8873 1fa9 15       		.uleb128 0x15
 8874 1faa 01       		.uleb128 0x1
 8875 1fab 50       		.byte	0x50
 8876 1fac 02       		.uleb128 0x2
 8877 1fad 74       		.byte	0x74
 8878 1fae 00       		.sleb128 0
 8879 1faf 00       		.byte	0
 8880 1fb0 19       		.uleb128 0x19
 8881 1fb1 9C000000 		.4byte	.LVL494
 8882 1fb5 3B280000 		.4byte	0x283b
 8883 1fb9 14       		.uleb128 0x14
 8884 1fba A4000000 		.4byte	.LVL495
 8885 1fbe 51280000 		.4byte	0x2851
 8886 1fc2 CE1F0000 		.4byte	0x1fce
 8887 1fc6 15       		.uleb128 0x15
 8888 1fc7 01       		.uleb128 0x1
 8889 1fc8 50       		.byte	0x50
 8890 1fc9 03       		.uleb128 0x3
 8891 1fca 0A       		.byte	0xa
 8892 1fcb 2C01     		.2byte	0x12c
 8893 1fcd 00       		.byte	0
 8894 1fce 19       		.uleb128 0x19
 8895 1fcf AA000000 		.4byte	.LVL496
 8896 1fd3 3B280000 		.4byte	0x283b
 8897 1fd7 00       		.byte	0
ARM GAS  C:\Users\Administrator\AppData\Local\Temp\ccexfbaX.s 			page 204


 8898 1fd8 26       		.uleb128 0x26
 8899 1fd9 52100000 		.4byte	.LASF178
 8900 1fdd 01       		.byte	0x1
 8901 1fde 8506     		.2byte	0x685
 8902 1fe0 00000000 		.4byte	.LFB91
 8903 1fe4 70010000 		.4byte	.LFE91-.LFB91
 8904 1fe8 01       		.uleb128 0x1
 8905 1fe9 9C       		.byte	0x9c
 8906 1fea D8210000 		.4byte	0x21d8
 8907 1fee 18       		.uleb128 0x18
 8908 1fef F4020000 		.4byte	.LASF179
 8909 1ff3 01       		.byte	0x1
 8910 1ff4 8706     		.2byte	0x687
 8911 1ff6 0B0F0000 		.4byte	0xf0b
 8912 1ffa 03       		.uleb128 0x3
 8913 1ffb 91       		.byte	0x91
 8914 1ffc D477     		.sleb128 -1068
 8915 1ffe 13       		.uleb128 0x13
 8916 1fff 30040000 		.4byte	.LASF180
 8917 2003 01       		.byte	0x1
 8918 2004 8806     		.2byte	0x688
 8919 2006 B9000000 		.4byte	0xb9
 8920 200a 2F1A0000 		.4byte	.LLST113
 8921 200e 13       		.uleb128 0x13
 8922 200f CC010000 		.4byte	.LASF125
 8923 2013 01       		.byte	0x1
 8924 2014 8906     		.2byte	0x689
 8925 2016 B9000000 		.4byte	0xb9
 8926 201a 571A0000 		.4byte	.LLST114
 8927 201e 28       		.uleb128 0x28
 8928 201f 53030000 		.4byte	0x353
 8929 2023 C2000000 		.4byte	.LBB8
 8930 2027 1C000000 		.4byte	.LBE8-.LBB8
 8931 202b 01       		.byte	0x1
 8932 202c BA06     		.2byte	0x6ba
 8933 202e 54200000 		.4byte	0x2054
 8934 2032 29       		.uleb128 0x29
 8935 2033 60030000 		.4byte	0x360
 8936 2037 041B0000 		.4byte	.LLST115
 8937 203b 2A       		.uleb128 0x2a
 8938 203c C2000000 		.4byte	.LBB9
 8939 2040 1C000000 		.4byte	.LBE9-.LBB9
 8940 2044 2B       		.uleb128 0x2b
 8941 2045 6C030000 		.4byte	0x36c
 8942 2049 2C       		.uleb128 0x2c
 8943 204a 78030000 		.4byte	0x378
 8944 204e 171B0000 		.4byte	.LLST116
 8945 2052 00       		.byte	0
 8946 2053 00       		.byte	0
 8947 2054 14       		.uleb128 0x14
 8948 2055 30000000 		.4byte	.LVL499
 8949 2059 E4270000 		.4byte	0x27e4
 8950 205d 75200000 		.4byte	0x2075
 8951 2061 15       		.uleb128 0x15
 8952 2062 01       		.uleb128 0x1
 8953 2063 50       		.byte	0x50
 8954 2064 02       		.uleb128 0x2
ARM GAS  C:\Users\Administrator\AppData\Local\Temp\ccexfbaX.s 			page 205


 8955 2065 75       		.byte	0x75
 8956 2066 00       		.sleb128 0
 8957 2067 15       		.uleb128 0x15
 8958 2068 01       		.uleb128 0x1
 8959 2069 51       		.byte	0x51
 8960 206a 02       		.uleb128 0x2
 8961 206b 76       		.byte	0x76
 8962 206c 00       		.sleb128 0
 8963 206d 15       		.uleb128 0x15
 8964 206e 01       		.uleb128 0x1
 8965 206f 52       		.byte	0x52
 8966 2070 03       		.uleb128 0x3
 8967 2071 0A       		.byte	0xa
 8968 2072 1A04     		.2byte	0x41a
 8969 2074 00       		.byte	0
 8970 2075 14       		.uleb128 0x14
 8971 2076 3A000000 		.4byte	.LVL500
 8972 207a 5C280000 		.4byte	0x285c
 8973 207e 95200000 		.4byte	0x2095
 8974 2082 15       		.uleb128 0x15
 8975 2083 01       		.uleb128 0x1
 8976 2084 50       		.byte	0x50
 8977 2085 02       		.uleb128 0x2
 8978 2086 76       		.byte	0x76
 8979 2087 00       		.sleb128 0
 8980 2088 15       		.uleb128 0x15
 8981 2089 01       		.uleb128 0x1
 8982 208a 51       		.byte	0x51
 8983 208b 01       		.uleb128 0x1
 8984 208c 30       		.byte	0x30
 8985 208d 15       		.uleb128 0x15
 8986 208e 01       		.uleb128 0x1
 8987 208f 52       		.byte	0x52
 8988 2090 03       		.uleb128 0x3
 8989 2091 0A       		.byte	0xa
 8990 2092 1A04     		.2byte	0x41a
 8991 2094 00       		.byte	0
 8992 2095 14       		.uleb128 0x14
 8993 2096 54000000 		.4byte	.LVL502
 8994 209a 65280000 		.4byte	0x2865
 8995 209e AF200000 		.4byte	0x20af
 8996 20a2 15       		.uleb128 0x15
 8997 20a3 01       		.uleb128 0x1
 8998 20a4 50       		.byte	0x50
 8999 20a5 02       		.uleb128 0x2
 9000 20a6 75       		.byte	0x75
 9001 20a7 00       		.sleb128 0
 9002 20a8 15       		.uleb128 0x15
 9003 20a9 01       		.uleb128 0x1
 9004 20aa 51       		.byte	0x51
 9005 20ab 02       		.uleb128 0x2
 9006 20ac 76       		.byte	0x76
 9007 20ad 00       		.sleb128 0
 9008 20ae 00       		.byte	0
 9009 20af 14       		.uleb128 0x14
 9010 20b0 84000000 		.4byte	.LVL504
 9011 20b4 B7030000 		.4byte	0x3b7
ARM GAS  C:\Users\Administrator\AppData\Local\Temp\ccexfbaX.s 			page 206


 9012 20b8 C3200000 		.4byte	0x20c3
 9013 20bc 15       		.uleb128 0x15
 9014 20bd 01       		.uleb128 0x1
 9015 20be 50       		.byte	0x50
 9016 20bf 02       		.uleb128 0x2
 9017 20c0 75       		.byte	0x75
 9018 20c1 00       		.sleb128 0
 9019 20c2 00       		.byte	0
 9020 20c3 14       		.uleb128 0x14
 9021 20c4 92000000 		.4byte	.LVL507
 9022 20c8 2B140000 		.4byte	0x142b
 9023 20cc D7200000 		.4byte	0x20d7
 9024 20d0 15       		.uleb128 0x15
 9025 20d1 01       		.uleb128 0x1
 9026 20d2 50       		.byte	0x50
 9027 20d3 02       		.uleb128 0x2
 9028 20d4 75       		.byte	0x75
 9029 20d5 00       		.sleb128 0
 9030 20d6 00       		.byte	0
 9031 20d7 14       		.uleb128 0x14
 9032 20d8 AA000000 		.4byte	.LVL510
 9033 20dc CC190000 		.4byte	0x19cc
 9034 20e0 EB200000 		.4byte	0x20eb
 9035 20e4 15       		.uleb128 0x15
 9036 20e5 01       		.uleb128 0x1
 9037 20e6 50       		.byte	0x50
 9038 20e7 02       		.uleb128 0x2
 9039 20e8 75       		.byte	0x75
 9040 20e9 00       		.sleb128 0
 9041 20ea 00       		.byte	0
 9042 20eb 14       		.uleb128 0x14
 9043 20ec C0000000 		.4byte	.LVL513
 9044 20f0 57060000 		.4byte	0x657
 9045 20f4 FF200000 		.4byte	0x20ff
 9046 20f8 15       		.uleb128 0x15
 9047 20f9 01       		.uleb128 0x1
 9048 20fa 50       		.byte	0x50
 9049 20fb 02       		.uleb128 0x2
 9050 20fc 75       		.byte	0x75
 9051 20fd 00       		.sleb128 0
 9052 20fe 00       		.byte	0
 9053 20ff 14       		.uleb128 0x14
 9054 2100 E4000000 		.4byte	.LVL517
 9055 2104 58100000 		.4byte	0x1058
 9056 2108 13210000 		.4byte	0x2113
 9057 210c 15       		.uleb128 0x15
 9058 210d 01       		.uleb128 0x1
 9059 210e 50       		.byte	0x50
 9060 210f 02       		.uleb128 0x2
 9061 2110 75       		.byte	0x75
 9062 2111 00       		.sleb128 0
 9063 2112 00       		.byte	0
 9064 2113 14       		.uleb128 0x14
 9065 2114 EC000000 		.4byte	.LVL520
 9066 2118 3E120000 		.4byte	0x123e
 9067 211c 27210000 		.4byte	0x2127
 9068 2120 15       		.uleb128 0x15
ARM GAS  C:\Users\Administrator\AppData\Local\Temp\ccexfbaX.s 			page 207


 9069 2121 01       		.uleb128 0x1
 9070 2122 50       		.byte	0x50
 9071 2123 02       		.uleb128 0x2
 9072 2124 75       		.byte	0x75
 9073 2125 00       		.sleb128 0
 9074 2126 00       		.byte	0
 9075 2127 14       		.uleb128 0x14
 9076 2128 F4000000 		.4byte	.LVL523
 9077 212c BD150000 		.4byte	0x15bd
 9078 2130 3B210000 		.4byte	0x213b
 9079 2134 15       		.uleb128 0x15
 9080 2135 01       		.uleb128 0x1
 9081 2136 50       		.byte	0x50
 9082 2137 02       		.uleb128 0x2
 9083 2138 75       		.byte	0x75
 9084 2139 00       		.sleb128 0
 9085 213a 00       		.byte	0
 9086 213b 14       		.uleb128 0x14
 9087 213c FC000000 		.4byte	.LVL526
 9088 2140 72040000 		.4byte	0x472
 9089 2144 4F210000 		.4byte	0x214f
 9090 2148 15       		.uleb128 0x15
 9091 2149 01       		.uleb128 0x1
 9092 214a 50       		.byte	0x50
 9093 214b 02       		.uleb128 0x2
 9094 214c 75       		.byte	0x75
 9095 214d 00       		.sleb128 0
 9096 214e 00       		.byte	0
 9097 214f 14       		.uleb128 0x14
 9098 2150 04010000 		.4byte	.LVL529
 9099 2154 AD050000 		.4byte	0x5ad
 9100 2158 63210000 		.4byte	0x2163
 9101 215c 15       		.uleb128 0x15
 9102 215d 01       		.uleb128 0x1
 9103 215e 50       		.byte	0x50
 9104 215f 02       		.uleb128 0x2
 9105 2160 75       		.byte	0x75
 9106 2161 00       		.sleb128 0
 9107 2162 00       		.byte	0
 9108 2163 14       		.uleb128 0x14
 9109 2164 0C010000 		.4byte	.LVL532
 9110 2168 D8180000 		.4byte	0x18d8
 9111 216c 77210000 		.4byte	0x2177
 9112 2170 15       		.uleb128 0x15
 9113 2171 01       		.uleb128 0x1
 9114 2172 50       		.byte	0x50
 9115 2173 02       		.uleb128 0x2
 9116 2174 75       		.byte	0x75
 9117 2175 00       		.sleb128 0
 9118 2176 00       		.byte	0
 9119 2177 14       		.uleb128 0x14
 9120 2178 14010000 		.4byte	.LVL535
 9121 217c 28050000 		.4byte	0x528
 9122 2180 8B210000 		.4byte	0x218b
 9123 2184 15       		.uleb128 0x15
 9124 2185 01       		.uleb128 0x1
 9125 2186 50       		.byte	0x50
ARM GAS  C:\Users\Administrator\AppData\Local\Temp\ccexfbaX.s 			page 208


 9126 2187 02       		.uleb128 0x2
 9127 2188 75       		.byte	0x75
 9128 2189 00       		.sleb128 0
 9129 218a 00       		.byte	0
 9130 218b 14       		.uleb128 0x14
 9131 218c 1C010000 		.4byte	.LVL538
 9132 2190 0B1C0000 		.4byte	0x1c0b
 9133 2194 9F210000 		.4byte	0x219f
 9134 2198 15       		.uleb128 0x15
 9135 2199 01       		.uleb128 0x1
 9136 219a 50       		.byte	0x50
 9137 219b 02       		.uleb128 0x2
 9138 219c 75       		.byte	0x75
 9139 219d 00       		.sleb128 0
 9140 219e 00       		.byte	0
 9141 219f 14       		.uleb128 0x14
 9142 21a0 24010000 		.4byte	.LVL541
 9143 21a4 571D0000 		.4byte	0x1d57
 9144 21a8 B3210000 		.4byte	0x21b3
 9145 21ac 15       		.uleb128 0x15
 9146 21ad 01       		.uleb128 0x1
 9147 21ae 50       		.byte	0x50
 9148 21af 02       		.uleb128 0x2
 9149 21b0 75       		.byte	0x75
 9150 21b1 00       		.sleb128 0
 9151 21b2 00       		.byte	0
 9152 21b3 14       		.uleb128 0x14
 9153 21b4 2C010000 		.4byte	.LVL544
 9154 21b8 F90D0000 		.4byte	0xdf9
 9155 21bc C7210000 		.4byte	0x21c7
 9156 21c0 15       		.uleb128 0x15
 9157 21c1 01       		.uleb128 0x1
 9158 21c2 50       		.byte	0x50
 9159 21c3 02       		.uleb128 0x2
 9160 21c4 75       		.byte	0x75
 9161 21c5 00       		.sleb128 0
 9162 21c6 00       		.byte	0
 9163 21c7 16       		.uleb128 0x16
 9164 21c8 34010000 		.4byte	.LVL547
 9165 21cc 4E1E0000 		.4byte	0x1e4e
 9166 21d0 15       		.uleb128 0x15
 9167 21d1 01       		.uleb128 0x1
 9168 21d2 50       		.byte	0x50
 9169 21d3 02       		.uleb128 0x2
 9170 21d4 75       		.byte	0x75
 9171 21d5 00       		.sleb128 0
 9172 21d6 00       		.byte	0
 9173 21d7 00       		.byte	0
 9174 21d8 0E       		.uleb128 0xe
 9175 21d9 6E090000 		.4byte	.LASF181
 9176 21dd 01       		.byte	0x1
 9177 21de 6106     		.2byte	0x661
 9178 21e0 01       		.byte	0x1
 9179 21e1 39220000 		.4byte	0x2239
 9180 21e5 0F       		.uleb128 0xf
 9181 21e6 54020000 		.4byte	.LASF102
 9182 21ea 01       		.byte	0x1
ARM GAS  C:\Users\Administrator\AppData\Local\Temp\ccexfbaX.s 			page 209


 9183 21eb 6106     		.2byte	0x661
 9184 21ed 03010000 		.4byte	0x103
 9185 21f1 10       		.uleb128 0x10
 9186 21f2 A8020000 		.4byte	.LASF182
 9187 21f6 01       		.byte	0x1
 9188 21f7 6306     		.2byte	0x663
 9189 21f9 09010000 		.4byte	0x109
 9190 21fd 10       		.uleb128 0x10
 9191 21fe 29030000 		.4byte	.LASF161
 9192 2202 01       		.byte	0x1
 9193 2203 6406     		.2byte	0x664
 9194 2205 AD000000 		.4byte	0xad
 9195 2209 10       		.uleb128 0x10
 9196 220a A6080000 		.4byte	.LASF155
 9197 220e 01       		.byte	0x1
 9198 220f 6506     		.2byte	0x665
 9199 2211 2E120000 		.4byte	0x122e
 9200 2215 1A       		.uleb128 0x1a
 9201 2216 705400   		.ascii	"pT\000"
 9202 2219 01       		.byte	0x1
 9203 221a 6606     		.2byte	0x666
 9204 221c 03010000 		.4byte	0x103
 9205 2220 10       		.uleb128 0x10
 9206 2221 2D0D0000 		.4byte	.LASF157
 9207 2225 01       		.byte	0x1
 9208 2226 6706     		.2byte	0x667
 9209 2228 AD000000 		.4byte	0xad
 9210 222c 10       		.uleb128 0x10
 9211 222d E8000000 		.4byte	.LASF103
 9212 2231 01       		.byte	0x1
 9213 2232 6806     		.2byte	0x668
 9214 2234 B9000000 		.4byte	0xb9
 9215 2238 00       		.byte	0
 9216 2239 26       		.uleb128 0x26
 9217 223a 61050000 		.4byte	.LASF183
 9218 223e 01       		.byte	0x1
 9219 223f FA06     		.2byte	0x6fa
 9220 2241 00000000 		.4byte	.LFB92
 9221 2245 C8010000 		.4byte	.LFE92-.LFB92
 9222 2249 01       		.uleb128 0x1
 9223 224a 9C       		.byte	0x9c
 9224 224b 79250000 		.4byte	0x2579
 9225 224f 18       		.uleb128 0x18
 9226 2250 F4020000 		.4byte	.LASF179
 9227 2254 01       		.byte	0x1
 9228 2255 FC06     		.2byte	0x6fc
 9229 2257 0B0F0000 		.4byte	0xf0b
 9230 225b 03       		.uleb128 0x3
 9231 225c 91       		.byte	0x91
 9232 225d CC77     		.sleb128 -1076
 9233 225f 13       		.uleb128 0x13
 9234 2260 30040000 		.4byte	.LASF180
 9235 2264 01       		.byte	0x1
 9236 2265 FD06     		.2byte	0x6fd
 9237 2267 B9000000 		.4byte	0xb9
 9238 226b 2C1B0000 		.4byte	.LLST117
 9239 226f 13       		.uleb128 0x13
ARM GAS  C:\Users\Administrator\AppData\Local\Temp\ccexfbaX.s 			page 210


 9240 2270 CC010000 		.4byte	.LASF125
 9241 2274 01       		.byte	0x1
 9242 2275 FE06     		.2byte	0x6fe
 9243 2277 B9000000 		.4byte	0xb9
 9244 227b 541B0000 		.4byte	.LLST118
 9245 227f 28       		.uleb128 0x28
 9246 2280 D8210000 		.4byte	0x21d8
 9247 2284 B6000000 		.4byte	.LBB14
 9248 2288 6A000000 		.4byte	.LBE14-.LBB14
 9249 228c 01       		.byte	0x1
 9250 228d 4D07     		.2byte	0x74d
 9251 228f BF230000 		.4byte	0x23bf
 9252 2293 29       		.uleb128 0x29
 9253 2294 E5210000 		.4byte	0x21e5
 9254 2298 0C1C0000 		.4byte	.LLST119
 9255 229c 2A       		.uleb128 0x2a
 9256 229d B6000000 		.4byte	.LBB15
 9257 22a1 6A000000 		.4byte	.LBE15-.LBB15
 9258 22a5 2D       		.uleb128 0x2d
 9259 22a6 F1210000 		.4byte	0x21f1
 9260 22aa 03       		.uleb128 0x3
 9261 22ab 91       		.byte	0x91
 9262 22ac 8477     		.sleb128 -1148
 9263 22ae 2C       		.uleb128 0x2c
 9264 22af FD210000 		.4byte	0x21fd
 9265 22b3 1F1C0000 		.4byte	.LLST120
 9266 22b7 2D       		.uleb128 0x2d
 9267 22b8 09220000 		.4byte	0x2209
 9268 22bc 03       		.uleb128 0x3
 9269 22bd 91       		.byte	0x91
 9270 22be 8C77     		.sleb128 -1140
 9271 22c0 2C       		.uleb128 0x2c
 9272 22c1 15220000 		.4byte	0x2215
 9273 22c5 331C0000 		.4byte	.LLST121
 9274 22c9 2C       		.uleb128 0x2c
 9275 22ca 20220000 		.4byte	0x2220
 9276 22ce 701C0000 		.4byte	.LLST122
 9277 22d2 2C       		.uleb128 0x2c
 9278 22d3 2C220000 		.4byte	0x222c
 9279 22d7 831C0000 		.4byte	.LLST123
 9280 22db 14       		.uleb128 0x14
 9281 22dc C0000000 		.4byte	.LVL563
 9282 22e0 5C280000 		.4byte	0x285c
 9283 22e4 FA220000 		.4byte	0x22fa
 9284 22e8 15       		.uleb128 0x15
 9285 22e9 01       		.uleb128 0x1
 9286 22ea 50       		.byte	0x50
 9287 22eb 03       		.uleb128 0x3
 9288 22ec 91       		.byte	0x91
 9289 22ed 8477     		.sleb128 -1148
 9290 22ef 15       		.uleb128 0x15
 9291 22f0 01       		.uleb128 0x1
 9292 22f1 51       		.byte	0x51
 9293 22f2 01       		.uleb128 0x1
 9294 22f3 30       		.byte	0x30
 9295 22f4 15       		.uleb128 0x15
 9296 22f5 01       		.uleb128 0x1
ARM GAS  C:\Users\Administrator\AppData\Local\Temp\ccexfbaX.s 			page 211


 9297 22f6 52       		.byte	0x52
 9298 22f7 01       		.uleb128 0x1
 9299 22f8 36       		.byte	0x36
 9300 22f9 00       		.byte	0
 9301 22fa 14       		.uleb128 0x14
 9302 22fb CE000000 		.4byte	.LVL565
 9303 22ff 25280000 		.4byte	0x2825
 9304 2303 1C230000 		.4byte	0x231c
 9305 2307 15       		.uleb128 0x15
 9306 2308 01       		.uleb128 0x1
 9307 2309 50       		.byte	0x50
 9308 230a 03       		.uleb128 0x3
 9309 230b 91       		.byte	0x91
 9310 230c 8477     		.sleb128 -1148
 9311 230e 15       		.uleb128 0x15
 9312 230f 01       		.uleb128 0x1
 9313 2310 51       		.byte	0x51
 9314 2311 04       		.uleb128 0x4
 9315 2312 08       		.byte	0x8
 9316 2313 C9       		.byte	0xc9
 9317 2314 39       		.byte	0x39
 9318 2315 24       		.byte	0x24
 9319 2316 15       		.uleb128 0x15
 9320 2317 01       		.uleb128 0x1
 9321 2318 52       		.byte	0x52
 9322 2319 01       		.uleb128 0x1
 9323 231a 36       		.byte	0x36
 9324 231b 00       		.byte	0
 9325 231c 14       		.uleb128 0x14
 9326 231d E4000000 		.4byte	.LVL567
 9327 2321 5C280000 		.4byte	0x285c
 9328 2325 3B230000 		.4byte	0x233b
 9329 2329 15       		.uleb128 0x15
 9330 232a 01       		.uleb128 0x1
 9331 232b 50       		.byte	0x50
 9332 232c 02       		.uleb128 0x2
 9333 232d 76       		.byte	0x76
 9334 232e 00       		.sleb128 0
 9335 232f 15       		.uleb128 0x15
 9336 2330 01       		.uleb128 0x1
 9337 2331 51       		.byte	0x51
 9338 2332 01       		.uleb128 0x1
 9339 2333 30       		.byte	0x30
 9340 2334 15       		.uleb128 0x15
 9341 2335 01       		.uleb128 0x1
 9342 2336 52       		.byte	0x52
 9343 2337 02       		.uleb128 0x2
 9344 2338 08       		.byte	0x8
 9345 2339 40       		.byte	0x40
 9346 233a 00       		.byte	0
 9347 233b 14       		.uleb128 0x14
 9348 233c F0000000 		.4byte	.LVL568
 9349 2340 E4270000 		.4byte	0x27e4
 9350 2344 5B230000 		.4byte	0x235b
 9351 2348 15       		.uleb128 0x15
 9352 2349 01       		.uleb128 0x1
 9353 234a 50       		.byte	0x50
ARM GAS  C:\Users\Administrator\AppData\Local\Temp\ccexfbaX.s 			page 212


 9354 234b 02       		.uleb128 0x2
 9355 234c 76       		.byte	0x76
 9356 234d 00       		.sleb128 0
 9357 234e 15       		.uleb128 0x15
 9358 234f 01       		.uleb128 0x1
 9359 2350 51       		.byte	0x51
 9360 2351 03       		.uleb128 0x3
 9361 2352 91       		.byte	0x91
 9362 2353 D377     		.sleb128 -1069
 9363 2355 15       		.uleb128 0x15
 9364 2356 01       		.uleb128 0x1
 9365 2357 52       		.byte	0x52
 9366 2358 01       		.uleb128 0x1
 9367 2359 36       		.byte	0x36
 9368 235a 00       		.byte	0
 9369 235b 14       		.uleb128 0x14
 9370 235c 02010000 		.4byte	.LVL570
 9371 2360 E4270000 		.4byte	0x27e4
 9372 2364 80230000 		.4byte	0x2380
 9373 2368 15       		.uleb128 0x15
 9374 2369 01       		.uleb128 0x1
 9375 236a 50       		.byte	0x50
 9376 236b 03       		.uleb128 0x3
 9377 236c 91       		.byte	0x91
 9378 236d 9277     		.sleb128 -1134
 9379 236f 15       		.uleb128 0x15
 9380 2370 01       		.uleb128 0x1
 9381 2371 51       		.byte	0x51
 9382 2372 07       		.uleb128 0x7
 9383 2373 75       		.byte	0x75
 9384 2374 00       		.sleb128 0
 9385 2375 74       		.byte	0x74
 9386 2376 00       		.sleb128 0
 9387 2377 22       		.byte	0x22
 9388 2378 36       		.byte	0x36
 9389 2379 1C       		.byte	0x1c
 9390 237a 15       		.uleb128 0x15
 9391 237b 01       		.uleb128 0x1
 9392 237c 52       		.byte	0x52
 9393 237d 01       		.uleb128 0x1
 9394 237e 34       		.byte	0x34
 9395 237f 00       		.byte	0
 9396 2380 14       		.uleb128 0x14
 9397 2381 14010000 		.4byte	.LVL571
 9398 2385 1C0F0000 		.4byte	0xf1c
 9399 2389 A5230000 		.4byte	0x23a5
 9400 238d 15       		.uleb128 0x15
 9401 238e 01       		.uleb128 0x1
 9402 238f 50       		.byte	0x50
 9403 2390 02       		.uleb128 0x2
 9404 2391 77       		.byte	0x77
 9405 2392 00       		.sleb128 0
 9406 2393 15       		.uleb128 0x15
 9407 2394 01       		.uleb128 0x1
 9408 2395 51       		.byte	0x51
 9409 2396 01       		.uleb128 0x1
 9410 2397 31       		.byte	0x31
ARM GAS  C:\Users\Administrator\AppData\Local\Temp\ccexfbaX.s 			page 213


 9411 2398 15       		.uleb128 0x15
 9412 2399 01       		.uleb128 0x1
 9413 239a 53       		.byte	0x53
 9414 239b 02       		.uleb128 0x2
 9415 239c 76       		.byte	0x76
 9416 239d 00       		.sleb128 0
 9417 239e 15       		.uleb128 0x15
 9418 239f 02       		.uleb128 0x2
 9419 23a0 7D       		.byte	0x7d
 9420 23a1 00       		.sleb128 0
 9421 23a2 01       		.uleb128 0x1
 9422 23a3 3B       		.byte	0x3b
 9423 23a4 00       		.byte	0
 9424 23a5 19       		.uleb128 0x19
 9425 23a6 18010000 		.4byte	.LVL572
 9426 23aa 57290000 		.4byte	0x2957
 9427 23ae 16       		.uleb128 0x16
 9428 23af 1E010000 		.4byte	.LVL573
 9429 23b3 3B280000 		.4byte	0x283b
 9430 23b7 15       		.uleb128 0x15
 9431 23b8 01       		.uleb128 0x1
 9432 23b9 50       		.byte	0x50
 9433 23ba 01       		.uleb128 0x1
 9434 23bb 34       		.byte	0x34
 9435 23bc 00       		.byte	0
 9436 23bd 00       		.byte	0
 9437 23be 00       		.byte	0
 9438 23bf 28       		.uleb128 0x28
 9439 23c0 53030000 		.4byte	0x353
 9440 23c4 20010000 		.4byte	.LBB16
 9441 23c8 1C000000 		.4byte	.LBE16-.LBB16
 9442 23cc 01       		.byte	0x1
 9443 23cd 1B07     		.2byte	0x71b
 9444 23cf F5230000 		.4byte	0x23f5
 9445 23d3 29       		.uleb128 0x29
 9446 23d4 60030000 		.4byte	0x360
 9447 23d8 961C0000 		.4byte	.LLST124
 9448 23dc 2A       		.uleb128 0x2a
 9449 23dd 20010000 		.4byte	.LBB17
 9450 23e1 1C000000 		.4byte	.LBE17-.LBB17
 9451 23e5 2B       		.uleb128 0x2b
 9452 23e6 6C030000 		.4byte	0x36c
 9453 23ea 2C       		.uleb128 0x2c
 9454 23eb 78030000 		.4byte	0x378
 9455 23ef A91C0000 		.4byte	.LLST125
 9456 23f3 00       		.byte	0
 9457 23f4 00       		.byte	0
 9458 23f5 14       		.uleb128 0x14
 9459 23f6 1C000000 		.4byte	.LVL548
 9460 23fa E4270000 		.4byte	0x27e4
 9461 23fe 16240000 		.4byte	0x2416
 9462 2402 15       		.uleb128 0x15
 9463 2403 01       		.uleb128 0x1
 9464 2404 50       		.byte	0x50
 9465 2405 02       		.uleb128 0x2
 9466 2406 75       		.byte	0x75
 9467 2407 00       		.sleb128 0
ARM GAS  C:\Users\Administrator\AppData\Local\Temp\ccexfbaX.s 			page 214


 9468 2408 15       		.uleb128 0x15
 9469 2409 01       		.uleb128 0x1
 9470 240a 51       		.byte	0x51
 9471 240b 02       		.uleb128 0x2
 9472 240c 76       		.byte	0x76
 9473 240d 00       		.sleb128 0
 9474 240e 15       		.uleb128 0x15
 9475 240f 01       		.uleb128 0x1
 9476 2410 52       		.byte	0x52
 9477 2411 03       		.uleb128 0x3
 9478 2412 0A       		.byte	0xa
 9479 2413 1A04     		.2byte	0x41a
 9480 2415 00       		.byte	0
 9481 2416 14       		.uleb128 0x14
 9482 2417 26000000 		.4byte	.LVL549
 9483 241b 5C280000 		.4byte	0x285c
 9484 241f 36240000 		.4byte	0x2436
 9485 2423 15       		.uleb128 0x15
 9486 2424 01       		.uleb128 0x1
 9487 2425 50       		.byte	0x50
 9488 2426 02       		.uleb128 0x2
 9489 2427 76       		.byte	0x76
 9490 2428 00       		.sleb128 0
 9491 2429 15       		.uleb128 0x15
 9492 242a 01       		.uleb128 0x1
 9493 242b 51       		.byte	0x51
 9494 242c 01       		.uleb128 0x1
 9495 242d 30       		.byte	0x30
 9496 242e 15       		.uleb128 0x15
 9497 242f 01       		.uleb128 0x1
 9498 2430 52       		.byte	0x52
 9499 2431 03       		.uleb128 0x3
 9500 2432 0A       		.byte	0xa
 9501 2433 1A04     		.2byte	0x41a
 9502 2435 00       		.byte	0
 9503 2436 14       		.uleb128 0x14
 9504 2437 40000000 		.4byte	.LVL551
 9505 243b 65280000 		.4byte	0x2865
 9506 243f 50240000 		.4byte	0x2450
 9507 2443 15       		.uleb128 0x15
 9508 2444 01       		.uleb128 0x1
 9509 2445 50       		.byte	0x50
 9510 2446 02       		.uleb128 0x2
 9511 2447 75       		.byte	0x75
 9512 2448 00       		.sleb128 0
 9513 2449 15       		.uleb128 0x15
 9514 244a 01       		.uleb128 0x1
 9515 244b 51       		.byte	0x51
 9516 244c 02       		.uleb128 0x2
 9517 244d 76       		.byte	0x76
 9518 244e 00       		.sleb128 0
 9519 244f 00       		.byte	0
 9520 2450 14       		.uleb128 0x14
 9521 2451 76000000 		.4byte	.LVL553
 9522 2455 B7030000 		.4byte	0x3b7
 9523 2459 64240000 		.4byte	0x2464
 9524 245d 15       		.uleb128 0x15
ARM GAS  C:\Users\Administrator\AppData\Local\Temp\ccexfbaX.s 			page 215


 9525 245e 01       		.uleb128 0x1
 9526 245f 50       		.byte	0x50
 9527 2460 02       		.uleb128 0x2
 9528 2461 75       		.byte	0x75
 9529 2462 00       		.sleb128 0
 9530 2463 00       		.byte	0
 9531 2464 14       		.uleb128 0x14
 9532 2465 8E000000 		.4byte	.LVL556
 9533 2469 AD050000 		.4byte	0x5ad
 9534 246d 78240000 		.4byte	0x2478
 9535 2471 15       		.uleb128 0x15
 9536 2472 01       		.uleb128 0x1
 9537 2473 50       		.byte	0x50
 9538 2474 02       		.uleb128 0x2
 9539 2475 75       		.byte	0x75
 9540 2476 00       		.sleb128 0
 9541 2477 00       		.byte	0
 9542 2478 14       		.uleb128 0x14
 9543 2479 A6000000 		.4byte	.LVL559
 9544 247d 28050000 		.4byte	0x528
 9545 2481 8C240000 		.4byte	0x248c
 9546 2485 15       		.uleb128 0x15
 9547 2486 01       		.uleb128 0x1
 9548 2487 50       		.byte	0x50
 9549 2488 02       		.uleb128 0x2
 9550 2489 75       		.byte	0x75
 9551 248a 00       		.sleb128 0
 9552 248b 00       		.byte	0
 9553 248c 14       		.uleb128 0x14
 9554 248d 42010000 		.4byte	.LVL577
 9555 2491 58100000 		.4byte	0x1058
 9556 2495 A0240000 		.4byte	0x24a0
 9557 2499 15       		.uleb128 0x15
 9558 249a 01       		.uleb128 0x1
 9559 249b 50       		.byte	0x50
 9560 249c 02       		.uleb128 0x2
 9561 249d 75       		.byte	0x75
 9562 249e 00       		.sleb128 0
 9563 249f 00       		.byte	0
 9564 24a0 14       		.uleb128 0x14
 9565 24a1 4A010000 		.4byte	.LVL580
 9566 24a5 3E120000 		.4byte	0x123e
 9567 24a9 B4240000 		.4byte	0x24b4
 9568 24ad 15       		.uleb128 0x15
 9569 24ae 01       		.uleb128 0x1
 9570 24af 50       		.byte	0x50
 9571 24b0 02       		.uleb128 0x2
 9572 24b1 75       		.byte	0x75
 9573 24b2 00       		.sleb128 0
 9574 24b3 00       		.byte	0
 9575 24b4 14       		.uleb128 0x14
 9576 24b5 52010000 		.4byte	.LVL583
 9577 24b9 2B140000 		.4byte	0x142b
 9578 24bd C8240000 		.4byte	0x24c8
 9579 24c1 15       		.uleb128 0x15
 9580 24c2 01       		.uleb128 0x1
 9581 24c3 50       		.byte	0x50
ARM GAS  C:\Users\Administrator\AppData\Local\Temp\ccexfbaX.s 			page 216


 9582 24c4 02       		.uleb128 0x2
 9583 24c5 75       		.byte	0x75
 9584 24c6 00       		.sleb128 0
 9585 24c7 00       		.byte	0
 9586 24c8 14       		.uleb128 0x14
 9587 24c9 5A010000 		.4byte	.LVL586
 9588 24cd BD150000 		.4byte	0x15bd
 9589 24d1 DC240000 		.4byte	0x24dc
 9590 24d5 15       		.uleb128 0x15
 9591 24d6 01       		.uleb128 0x1
 9592 24d7 50       		.byte	0x50
 9593 24d8 02       		.uleb128 0x2
 9594 24d9 75       		.byte	0x75
 9595 24da 00       		.sleb128 0
 9596 24db 00       		.byte	0
 9597 24dc 14       		.uleb128 0x14
 9598 24dd 62010000 		.4byte	.LVL589
 9599 24e1 72040000 		.4byte	0x472
 9600 24e5 F0240000 		.4byte	0x24f0
 9601 24e9 15       		.uleb128 0x15
 9602 24ea 01       		.uleb128 0x1
 9603 24eb 50       		.byte	0x50
 9604 24ec 02       		.uleb128 0x2
 9605 24ed 75       		.byte	0x75
 9606 24ee 00       		.sleb128 0
 9607 24ef 00       		.byte	0
 9608 24f0 14       		.uleb128 0x14
 9609 24f1 6A010000 		.4byte	.LVL592
 9610 24f5 D8180000 		.4byte	0x18d8
 9611 24f9 04250000 		.4byte	0x2504
 9612 24fd 15       		.uleb128 0x15
 9613 24fe 01       		.uleb128 0x1
 9614 24ff 50       		.byte	0x50
 9615 2500 02       		.uleb128 0x2
 9616 2501 75       		.byte	0x75
 9617 2502 00       		.sleb128 0
 9618 2503 00       		.byte	0
 9619 2504 14       		.uleb128 0x14
 9620 2505 72010000 		.4byte	.LVL595
 9621 2509 CC190000 		.4byte	0x19cc
 9622 250d 18250000 		.4byte	0x2518
 9623 2511 15       		.uleb128 0x15
 9624 2512 01       		.uleb128 0x1
 9625 2513 50       		.byte	0x50
 9626 2514 02       		.uleb128 0x2
 9627 2515 75       		.byte	0x75
 9628 2516 00       		.sleb128 0
 9629 2517 00       		.byte	0
 9630 2518 14       		.uleb128 0x14
 9631 2519 7A010000 		.4byte	.LVL598
 9632 251d 0B1C0000 		.4byte	0x1c0b
 9633 2521 2C250000 		.4byte	0x252c
 9634 2525 15       		.uleb128 0x15
 9635 2526 01       		.uleb128 0x1
 9636 2527 50       		.byte	0x50
 9637 2528 02       		.uleb128 0x2
 9638 2529 75       		.byte	0x75
ARM GAS  C:\Users\Administrator\AppData\Local\Temp\ccexfbaX.s 			page 217


 9639 252a 00       		.sleb128 0
 9640 252b 00       		.byte	0
 9641 252c 14       		.uleb128 0x14
 9642 252d 82010000 		.4byte	.LVL601
 9643 2531 571D0000 		.4byte	0x1d57
 9644 2535 40250000 		.4byte	0x2540
 9645 2539 15       		.uleb128 0x15
 9646 253a 01       		.uleb128 0x1
 9647 253b 50       		.byte	0x50
 9648 253c 02       		.uleb128 0x2
 9649 253d 75       		.byte	0x75
 9650 253e 00       		.sleb128 0
 9651 253f 00       		.byte	0
 9652 2540 14       		.uleb128 0x14
 9653 2541 8A010000 		.4byte	.LVL604
 9654 2545 F90D0000 		.4byte	0xdf9
 9655 2549 54250000 		.4byte	0x2554
 9656 254d 15       		.uleb128 0x15
 9657 254e 01       		.uleb128 0x1
 9658 254f 50       		.byte	0x50
 9659 2550 02       		.uleb128 0x2
 9660 2551 75       		.byte	0x75
 9661 2552 00       		.sleb128 0
 9662 2553 00       		.byte	0
 9663 2554 14       		.uleb128 0x14
 9664 2555 92010000 		.4byte	.LVL607
 9665 2559 4E1E0000 		.4byte	0x1e4e
 9666 255d 68250000 		.4byte	0x2568
 9667 2561 15       		.uleb128 0x15
 9668 2562 01       		.uleb128 0x1
 9669 2563 50       		.byte	0x50
 9670 2564 02       		.uleb128 0x2
 9671 2565 75       		.byte	0x75
 9672 2566 00       		.sleb128 0
 9673 2567 00       		.byte	0
 9674 2568 16       		.uleb128 0x16
 9675 2569 9A010000 		.4byte	.LVL610
 9676 256d 57060000 		.4byte	0x657
 9677 2571 15       		.uleb128 0x15
 9678 2572 01       		.uleb128 0x1
 9679 2573 50       		.byte	0x50
 9680 2574 02       		.uleb128 0x2
 9681 2575 75       		.byte	0x75
 9682 2576 00       		.sleb128 0
 9683 2577 00       		.byte	0
 9684 2578 00       		.byte	0
 9685 2579 08       		.uleb128 0x8
 9686 257a 89250000 		.4byte	0x2589
 9687 257e 89250000 		.4byte	0x2589
 9688 2582 09       		.uleb128 0x9
 9689 2583 FC000000 		.4byte	0xfc
 9690 2587 0B       		.byte	0xb
 9691 2588 00       		.byte	0
 9692 2589 2E       		.uleb128 0x2e
 9693 258a B9000000 		.4byte	0xb9
 9694 258e 2F       		.uleb128 0x2f
 9695 258f C70F0000 		.4byte	.LASF184
ARM GAS  C:\Users\Administrator\AppData\Local\Temp\ccexfbaX.s 			page 218


 9696 2593 07       		.byte	0x7
 9697 2594 E001     		.2byte	0x1e0
 9698 2596 9A250000 		.4byte	0x259a
 9699 259a 2E       		.uleb128 0x2e
 9700 259b 79250000 		.4byte	0x2579
 9701 259f 30       		.uleb128 0x30
 9702 25a0 6E000000 		.4byte	.LASF185
 9703 25a4 08       		.byte	0x8
 9704 25a5 1C       		.byte	0x1c
 9705 25a6 0B0F0000 		.4byte	0xf0b
 9706 25aa 30       		.uleb128 0x30
 9707 25ab 12010000 		.4byte	.LASF186
 9708 25af 08       		.byte	0x8
 9709 25b0 1D       		.byte	0x1d
 9710 25b1 AD000000 		.4byte	0xad
 9711 25b5 31       		.uleb128 0x31
 9712 25b6 640B0000 		.4byte	.LASF187
 9713 25ba 09       		.byte	0x9
 9714 25bb 0A       		.byte	0xa
 9715 25bc 8C000000 		.4byte	0x8c
 9716 25c0 05       		.uleb128 0x5
 9717 25c1 03       		.byte	0x3
 9718 25c2 00000000 		.4byte	ADCResultCenter
 9719 25c6 30       		.uleb128 0x30
 9720 25c7 F5100000 		.4byte	.LASF188
 9721 25cb 01       		.byte	0x1
 9722 25cc 0F       		.byte	0xf
 9723 25cd AD000000 		.4byte	0xad
 9724 25d1 08       		.uleb128 0x8
 9725 25d2 E6000000 		.4byte	0xe6
 9726 25d6 E1250000 		.4byte	0x25e1
 9727 25da 09       		.uleb128 0x9
 9728 25db FC000000 		.4byte	0xfc
 9729 25df 05       		.byte	0x5
 9730 25e0 00       		.byte	0
 9731 25e1 30       		.uleb128 0x30
 9732 25e2 94110000 		.4byte	.LASF189
 9733 25e6 01       		.byte	0x1
 9734 25e7 11       		.byte	0x11
 9735 25e8 EC250000 		.4byte	0x25ec
 9736 25ec 06       		.uleb128 0x6
 9737 25ed D1250000 		.4byte	0x25d1
 9738 25f1 08       		.uleb128 0x8
 9739 25f2 AD000000 		.4byte	0xad
 9740 25f6 01260000 		.4byte	0x2601
 9741 25fa 09       		.uleb128 0x9
 9742 25fb FC000000 		.4byte	0xfc
 9743 25ff C7       		.byte	0xc7
 9744 2600 00       		.byte	0
 9745 2601 30       		.uleb128 0x30
 9746 2602 3D030000 		.4byte	.LASF190
 9747 2606 01       		.byte	0x1
 9748 2607 13       		.byte	0x13
 9749 2608 F1250000 		.4byte	0x25f1
 9750 260c 30       		.uleb128 0x30
 9751 260d FB110000 		.4byte	.LASF191
 9752 2611 01       		.byte	0x1
ARM GAS  C:\Users\Administrator\AppData\Local\Temp\ccexfbaX.s 			page 219


 9753 2612 14       		.byte	0x14
 9754 2613 F1250000 		.4byte	0x25f1
 9755 2617 30       		.uleb128 0x30
 9756 2618 B90C0000 		.4byte	.LASF192
 9757 261c 01       		.byte	0x1
 9758 261d 15       		.byte	0x15
 9759 261e 09010000 		.4byte	0x109
 9760 2622 08       		.uleb128 0x8
 9761 2623 AD000000 		.4byte	0xad
 9762 2627 32260000 		.4byte	0x2632
 9763 262b 09       		.uleb128 0x9
 9764 262c FC000000 		.4byte	0xfc
 9765 2630 0F       		.byte	0xf
 9766 2631 00       		.byte	0
 9767 2632 30       		.uleb128 0x30
 9768 2633 18080000 		.4byte	.LASF193
 9769 2637 01       		.byte	0x1
 9770 2638 16       		.byte	0x16
 9771 2639 22260000 		.4byte	0x2622
 9772 263d 08       		.uleb128 0x8
 9773 263e AD000000 		.4byte	0xad
 9774 2642 4D260000 		.4byte	0x264d
 9775 2646 09       		.uleb128 0x9
 9776 2647 FC000000 		.4byte	0xfc
 9777 264b 04       		.byte	0x4
 9778 264c 00       		.byte	0
 9779 264d 30       		.uleb128 0x30
 9780 264e 80020000 		.4byte	.LASF194
 9781 2652 01       		.byte	0x1
 9782 2653 17       		.byte	0x17
 9783 2654 3D260000 		.4byte	0x263d
 9784 2658 30       		.uleb128 0x30
 9785 2659 86100000 		.4byte	.LASF195
 9786 265d 01       		.byte	0x1
 9787 265e 18       		.byte	0x18
 9788 265f AD000000 		.4byte	0xad
 9789 2663 30       		.uleb128 0x30
 9790 2664 520A0000 		.4byte	.LASF196
 9791 2668 01       		.byte	0x1
 9792 2669 19       		.byte	0x19
 9793 266a B9000000 		.4byte	0xb9
 9794 266e 30       		.uleb128 0x30
 9795 266f 34110000 		.4byte	.LASF197
 9796 2673 01       		.byte	0x1
 9797 2674 1A       		.byte	0x1a
 9798 2675 B9000000 		.4byte	0xb9
 9799 2679 30       		.uleb128 0x30
 9800 267a 9F0F0000 		.4byte	.LASF198
 9801 267e 01       		.byte	0x1
 9802 267f 20       		.byte	0x20
 9803 2680 C5000000 		.4byte	0xc5
 9804 2684 30       		.uleb128 0x30
 9805 2685 920E0000 		.4byte	.LASF199
 9806 2689 01       		.byte	0x1
 9807 268a 21       		.byte	0x21
 9808 268b C5000000 		.4byte	0xc5
 9809 268f 30       		.uleb128 0x30
ARM GAS  C:\Users\Administrator\AppData\Local\Temp\ccexfbaX.s 			page 220


 9810 2690 B4050000 		.4byte	.LASF200
 9811 2694 01       		.byte	0x1
 9812 2695 23       		.byte	0x23
 9813 2696 AD000000 		.4byte	0xad
 9814 269a 30       		.uleb128 0x30
 9815 269b 6C0D0000 		.4byte	.LASF201
 9816 269f 01       		.byte	0x1
 9817 26a0 24       		.byte	0x24
 9818 26a1 AD000000 		.4byte	0xad
 9819 26a5 30       		.uleb128 0x30
 9820 26a6 30000000 		.4byte	.LASF202
 9821 26aa 01       		.byte	0x1
 9822 26ab 26       		.byte	0x26
 9823 26ac AD000000 		.4byte	0xad
 9824 26b0 30       		.uleb128 0x30
 9825 26b1 F0090000 		.4byte	.LASF203
 9826 26b5 01       		.byte	0x1
 9827 26b6 27       		.byte	0x27
 9828 26b7 AD000000 		.4byte	0xad
 9829 26bb 08       		.uleb128 0x8
 9830 26bc E6000000 		.4byte	0xe6
 9831 26c0 CC260000 		.4byte	0x26cc
 9832 26c4 25       		.uleb128 0x25
 9833 26c5 FC000000 		.4byte	0xfc
 9834 26c9 1904     		.2byte	0x419
 9835 26cb 00       		.byte	0
 9836 26cc 30       		.uleb128 0x30
 9837 26cd D90D0000 		.4byte	.LASF204
 9838 26d1 01       		.byte	0x1
 9839 26d2 28       		.byte	0x28
 9840 26d3 D7260000 		.4byte	0x26d7
 9841 26d7 06       		.uleb128 0x6
 9842 26d8 BB260000 		.4byte	0x26bb
 9843 26dc 30       		.uleb128 0x30
 9844 26dd E60D0000 		.4byte	.LASF205
 9845 26e1 01       		.byte	0x1
 9846 26e2 29       		.byte	0x29
 9847 26e3 E7260000 		.4byte	0x26e7
 9848 26e7 06       		.uleb128 0x6
 9849 26e8 BB260000 		.4byte	0x26bb
 9850 26ec 30       		.uleb128 0x30
 9851 26ed 210C0000 		.4byte	.LASF206
 9852 26f1 01       		.byte	0x1
 9853 26f2 2B       		.byte	0x2b
 9854 26f3 E6000000 		.4byte	0xe6
 9855 26f7 30       		.uleb128 0x30
 9856 26f8 CE020000 		.4byte	.LASF207
 9857 26fc 01       		.byte	0x1
 9858 26fd 2C       		.byte	0x2c
 9859 26fe 02270000 		.4byte	0x2702
 9860 2702 06       		.uleb128 0x6
 9861 2703 BB260000 		.4byte	0x26bb
 9862 2707 30       		.uleb128 0x30
 9863 2708 040F0000 		.4byte	.LASF208
 9864 270c 01       		.byte	0x1
 9865 270d 2D       		.byte	0x2d
 9866 270e EB000000 		.4byte	0xeb
ARM GAS  C:\Users\Administrator\AppData\Local\Temp\ccexfbaX.s 			page 221


 9867 2712 30       		.uleb128 0x30
 9868 2713 64020000 		.4byte	.LASF209
 9869 2717 01       		.byte	0x1
 9870 2718 2E       		.byte	0x2e
 9871 2719 E6000000 		.4byte	0xe6
 9872 271d 30       		.uleb128 0x30
 9873 271e F1120000 		.4byte	.LASF210
 9874 2722 01       		.byte	0x1
 9875 2723 2F       		.byte	0x2f
 9876 2724 EB000000 		.4byte	0xeb
 9877 2728 30       		.uleb128 0x30
 9878 2729 790F0000 		.4byte	.LASF211
 9879 272d 01       		.byte	0x1
 9880 272e 31       		.byte	0x31
 9881 272f C5000000 		.4byte	0xc5
 9882 2733 30       		.uleb128 0x30
 9883 2734 120E0000 		.4byte	.LASF212
 9884 2738 01       		.byte	0x1
 9885 2739 33       		.byte	0x33
 9886 273a C5000000 		.4byte	0xc5
 9887 273e 30       		.uleb128 0x30
 9888 273f C70E0000 		.4byte	.LASF213
 9889 2743 01       		.byte	0x1
 9890 2744 34       		.byte	0x34
 9891 2745 C5000000 		.4byte	0xc5
 9892 2749 30       		.uleb128 0x30
 9893 274a B6010000 		.4byte	.LASF214
 9894 274e 01       		.byte	0x1
 9895 274f 35       		.byte	0x35
 9896 2750 C5000000 		.4byte	0xc5
 9897 2754 30       		.uleb128 0x30
 9898 2755 46010000 		.4byte	.LASF215
 9899 2759 01       		.byte	0x1
 9900 275a 36       		.byte	0x36
 9901 275b C5000000 		.4byte	0xc5
 9902 275f 30       		.uleb128 0x30
 9903 2760 E8110000 		.4byte	.LASF216
 9904 2764 01       		.byte	0x1
 9905 2765 37       		.byte	0x37
 9906 2766 AD000000 		.4byte	0xad
 9907 276a 30       		.uleb128 0x30
 9908 276b 1E0B0000 		.4byte	.LASF217
 9909 276f 01       		.byte	0x1
 9910 2770 3A       		.byte	0x3a
 9911 2771 AD000000 		.4byte	0xad
 9912 2775 30       		.uleb128 0x30
 9913 2776 8B0F0000 		.4byte	.LASF218
 9914 277a 01       		.byte	0x1
 9915 277b 3B       		.byte	0x3b
 9916 277c F0000000 		.4byte	0xf0
 9917 2780 30       		.uleb128 0x30
 9918 2781 450A0000 		.4byte	.LASF219
 9919 2785 01       		.byte	0x1
 9920 2786 3C       		.byte	0x3c
 9921 2787 F0000000 		.4byte	0xf0
 9922 278b 30       		.uleb128 0x30
 9923 278c 44030000 		.4byte	.LASF220
ARM GAS  C:\Users\Administrator\AppData\Local\Temp\ccexfbaX.s 			page 222


 9924 2790 01       		.byte	0x1
 9925 2791 3D       		.byte	0x3d
 9926 2792 AD000000 		.4byte	0xad
 9927 2796 30       		.uleb128 0x30
 9928 2797 C20C0000 		.4byte	.LASF221
 9929 279b 01       		.byte	0x1
 9930 279c 3E       		.byte	0x3e
 9931 279d AD000000 		.4byte	0xad
 9932 27a1 30       		.uleb128 0x30
 9933 27a2 78000000 		.4byte	.LASF222
 9934 27a6 01       		.byte	0x1
 9935 27a7 40       		.byte	0x40
 9936 27a8 AD000000 		.4byte	0xad
 9937 27ac 30       		.uleb128 0x30
 9938 27ad 04110000 		.4byte	.LASF223
 9939 27b1 01       		.byte	0x1
 9940 27b2 41       		.byte	0x41
 9941 27b3 AD000000 		.4byte	0xad
 9942 27b7 30       		.uleb128 0x30
 9943 27b8 D5120000 		.4byte	.LASF224
 9944 27bc 01       		.byte	0x1
 9945 27bd 44       		.byte	0x44
 9946 27be AD000000 		.4byte	0xad
 9947 27c2 31       		.uleb128 0x31
 9948 27c3 E70B0000 		.4byte	.LASF225
 9949 27c7 01       		.byte	0x1
 9950 27c8 48       		.byte	0x48
 9951 27c9 B9000000 		.4byte	0xb9
 9952 27cd 05       		.uleb128 0x5
 9953 27ce 03       		.byte	0x3
 9954 27cf 00000000 		.4byte	UploadQty
 9955 27d3 31       		.uleb128 0x31
 9956 27d4 36060000 		.4byte	.LASF226
 9957 27d8 01       		.byte	0x1
 9958 27d9 49       		.byte	0x49
 9959 27da B9000000 		.4byte	0xb9
 9960 27de 05       		.uleb128 0x5
 9961 27df 03       		.byte	0x3
 9962 27e0 00000000 		.4byte	UploadStartnum
 9963 27e4 32       		.uleb128 0x32
 9964 27e5 7F100000 		.4byte	.LASF237
 9965 27e9 7F100000 		.4byte	.LASF237
 9966 27ed 33       		.uleb128 0x33
 9967 27ee 64100000 		.4byte	.LASF227
 9968 27f2 64100000 		.4byte	.LASF227
 9969 27f6 0A       		.byte	0xa
 9970 27f7 21       		.byte	0x21
 9971 27f8 33       		.uleb128 0x33
 9972 27f9 03070000 		.4byte	.LASF228
 9973 27fd 03070000 		.4byte	.LASF228
 9974 2801 06       		.byte	0x6
 9975 2802 6F       		.byte	0x6f
 9976 2803 34       		.uleb128 0x34
 9977 2804 2D0E0000 		.4byte	.LASF229
 9978 2808 2D0E0000 		.4byte	.LASF229
 9979 280c 07       		.byte	0x7
 9980 280d EF01     		.2byte	0x1ef
ARM GAS  C:\Users\Administrator\AppData\Local\Temp\ccexfbaX.s 			page 223


 9981 280f 33       		.uleb128 0x33
 9982 2810 610F0000 		.4byte	.LASF230
 9983 2814 610F0000 		.4byte	.LASF230
 9984 2818 0B       		.byte	0xb
 9985 2819 12       		.byte	0x12
 9986 281a 33       		.uleb128 0x33
 9987 281b DF120000 		.4byte	.LASF231
 9988 281f DF120000 		.4byte	.LASF231
 9989 2823 01       		.byte	0x1
 9990 2824 55       		.byte	0x55
 9991 2825 33       		.uleb128 0x33
 9992 2826 150C0000 		.4byte	.LASF232
 9993 282a 150C0000 		.4byte	.LASF232
 9994 282e 0C       		.byte	0xc
 9995 282f 53       		.byte	0x53
 9996 2830 33       		.uleb128 0x33
 9997 2831 D4010000 		.4byte	.LASF233
 9998 2835 D4010000 		.4byte	.LASF233
 9999 2839 0C       		.byte	0xc
 10000 283a 54       		.byte	0x54
 10001 283b 33       		.uleb128 0x33
 10002 283c 3B090000 		.4byte	.LASF234
 10003 2840 3B090000 		.4byte	.LASF234
 10004 2844 0D       		.byte	0xd
 10005 2845 2A       		.byte	0x2a
 10006 2846 33       		.uleb128 0x33
 10007 2847 43040000 		.4byte	.LASF235
 10008 284b 43040000 		.4byte	.LASF235
 10009 284f 08       		.byte	0x8
 10010 2850 22       		.byte	0x22
 10011 2851 33       		.uleb128 0x33
 10012 2852 B60A0000 		.4byte	.LASF236
 10013 2856 B60A0000 		.4byte	.LASF236
 10014 285a 0D       		.byte	0xd
 10015 285b 29       		.byte	0x29
 10016 285c 32       		.uleb128 0x32
 10017 285d 260E0000 		.4byte	.LASF238
 10018 2861 260E0000 		.4byte	.LASF238
 10019 2865 33       		.uleb128 0x33
 10020 2866 130A0000 		.4byte	.LASF239
 10021 286a 130A0000 		.4byte	.LASF239
 10022 286e 0E       		.byte	0xe
 10023 286f 0B       		.byte	0xb
 10024 2870 33       		.uleb128 0x33
 10025 2871 92070000 		.4byte	.LASF240
 10026 2875 92070000 		.4byte	.LASF240
 10027 2879 0F       		.byte	0xf
 10028 287a 4A       		.byte	0x4a
 10029 287b 33       		.uleb128 0x33
 10030 287c A60E0000 		.4byte	.LASF241
 10031 2880 A60E0000 		.4byte	.LASF241
 10032 2884 0A       		.byte	0xa
 10033 2885 16       		.byte	0x16
 10034 2886 33       		.uleb128 0x33
 10035 2887 A3060000 		.4byte	.LASF242
 10036 288b A3060000 		.4byte	.LASF242
 10037 288f 10       		.byte	0x10
ARM GAS  C:\Users\Administrator\AppData\Local\Temp\ccexfbaX.s 			page 224


 10038 2890 18       		.byte	0x18
 10039 2891 33       		.uleb128 0x33
 10040 2892 260E0000 		.4byte	.LASF238
 10041 2896 260E0000 		.4byte	.LASF238
 10042 289a 0A       		.byte	0xa
 10043 289b 19       		.byte	0x19
 10044 289c 33       		.uleb128 0x33
 10045 289d F20E0000 		.4byte	.LASF243
 10046 28a1 F20E0000 		.4byte	.LASF243
 10047 28a5 06       		.byte	0x6
 10048 28a6 5B       		.byte	0x5b
 10049 28a7 33       		.uleb128 0x33
 10050 28a8 E00E0000 		.4byte	.LASF244
 10051 28ac E00E0000 		.4byte	.LASF244
 10052 28b0 06       		.byte	0x6
 10053 28b1 5C       		.byte	0x5c
 10054 28b2 33       		.uleb128 0x33
 10055 28b3 C0050000 		.4byte	.LASF245
 10056 28b7 C0050000 		.4byte	.LASF245
 10057 28bb 06       		.byte	0x6
 10058 28bc 60       		.byte	0x60
 10059 28bd 33       		.uleb128 0x33
 10060 28be 97060000 		.4byte	.LASF246
 10061 28c2 97060000 		.4byte	.LASF246
 10062 28c6 01       		.byte	0x1
 10063 28c7 51       		.byte	0x51
 10064 28c8 33       		.uleb128 0x33
 10065 28c9 DE0F0000 		.4byte	.LASF247
 10066 28cd DE0F0000 		.4byte	.LASF247
 10067 28d1 01       		.byte	0x1
 10068 28d2 53       		.byte	0x53
 10069 28d3 33       		.uleb128 0x33
 10070 28d4 86050000 		.4byte	.LASF248
 10071 28d8 86050000 		.4byte	.LASF248
 10072 28dc 06       		.byte	0x6
 10073 28dd 69       		.byte	0x69
 10074 28de 33       		.uleb128 0x33
 10075 28df 8C020000 		.4byte	.LASF249
 10076 28e3 8C020000 		.4byte	.LASF249
 10077 28e7 01       		.byte	0x1
 10078 28e8 4E       		.byte	0x4e
 10079 28e9 33       		.uleb128 0x33
 10080 28ea 26040000 		.4byte	.LASF250
 10081 28ee 26040000 		.4byte	.LASF250
 10082 28f2 01       		.byte	0x1
 10083 28f3 54       		.byte	0x54
 10084 28f4 33       		.uleb128 0x33
 10085 28f5 9B020000 		.4byte	.LASF251
 10086 28f9 9B020000 		.4byte	.LASF251
 10087 28fd 01       		.byte	0x1
 10088 28fe 52       		.byte	0x52
 10089 28ff 33       		.uleb128 0x33
 10090 2900 48100000 		.4byte	.LASF252
 10091 2904 48100000 		.4byte	.LASF252
 10092 2908 01       		.byte	0x1
 10093 2909 50       		.byte	0x50
 10094 290a 33       		.uleb128 0x33
ARM GAS  C:\Users\Administrator\AppData\Local\Temp\ccexfbaX.s 			page 225


 10095 290b 3A020000 		.4byte	.LASF253
 10096 290f 3A020000 		.4byte	.LASF253
 10097 2913 06       		.byte	0x6
 10098 2914 5D       		.byte	0x5d
 10099 2915 33       		.uleb128 0x33
 10100 2916 C0030000 		.4byte	.LASF254
 10101 291a C0030000 		.4byte	.LASF254
 10102 291e 06       		.byte	0x6
 10103 291f 6D       		.byte	0x6d
 10104 2920 33       		.uleb128 0x33
 10105 2921 500C0000 		.4byte	.LASF255
 10106 2925 500C0000 		.4byte	.LASF255
 10107 2929 06       		.byte	0x6
 10108 292a 6B       		.byte	0x6b
 10109 292b 33       		.uleb128 0x33
 10110 292c 3E0B0000 		.4byte	.LASF256
 10111 2930 3E0B0000 		.4byte	.LASF256
 10112 2934 06       		.byte	0x6
 10113 2935 6E       		.byte	0x6e
 10114 2936 33       		.uleb128 0x33
 10115 2937 61080000 		.4byte	.LASF257
 10116 293b 61080000 		.4byte	.LASF257
 10117 293f 06       		.byte	0x6
 10118 2940 66       		.byte	0x66
 10119 2941 33       		.uleb128 0x33
 10120 2942 B1100000 		.4byte	.LASF258
 10121 2946 B1100000 		.4byte	.LASF258
 10122 294a 06       		.byte	0x6
 10123 294b 7A       		.byte	0x7a
 10124 294c 33       		.uleb128 0x33
 10125 294d 9A120000 		.4byte	.LASF259
 10126 2951 9A120000 		.4byte	.LASF259
 10127 2955 06       		.byte	0x6
 10128 2956 77       		.byte	0x77
 10129 2957 33       		.uleb128 0x33
 10130 2958 D9020000 		.4byte	.LASF260
 10131 295c D9020000 		.4byte	.LASF260
 10132 2960 06       		.byte	0x6
 10133 2961 71       		.byte	0x71
 10134 2962 00       		.byte	0
 10135              		.section	.debug_abbrev,"",%progbits
 10136              	.Ldebug_abbrev0:
 10137 0000 01       		.uleb128 0x1
 10138 0001 11       		.uleb128 0x11
 10139 0002 01       		.byte	0x1
 10140 0003 25       		.uleb128 0x25
 10141 0004 0E       		.uleb128 0xe
 10142 0005 13       		.uleb128 0x13
 10143 0006 0B       		.uleb128 0xb
 10144 0007 03       		.uleb128 0x3
 10145 0008 0E       		.uleb128 0xe
 10146 0009 1B       		.uleb128 0x1b
 10147 000a 0E       		.uleb128 0xe
 10148 000b 55       		.uleb128 0x55
 10149 000c 17       		.uleb128 0x17
 10150 000d 11       		.uleb128 0x11
 10151 000e 01       		.uleb128 0x1
ARM GAS  C:\Users\Administrator\AppData\Local\Temp\ccexfbaX.s 			page 226


 10152 000f 10       		.uleb128 0x10
 10153 0010 17       		.uleb128 0x17
 10154 0011 00       		.byte	0
 10155 0012 00       		.byte	0
 10156 0013 02       		.uleb128 0x2
 10157 0014 24       		.uleb128 0x24
 10158 0015 00       		.byte	0
 10159 0016 0B       		.uleb128 0xb
 10160 0017 0B       		.uleb128 0xb
 10161 0018 3E       		.uleb128 0x3e
 10162 0019 0B       		.uleb128 0xb
 10163 001a 03       		.uleb128 0x3
 10164 001b 0E       		.uleb128 0xe
 10165 001c 00       		.byte	0
 10166 001d 00       		.byte	0
 10167 001e 03       		.uleb128 0x3
 10168 001f 16       		.uleb128 0x16
 10169 0020 00       		.byte	0
 10170 0021 03       		.uleb128 0x3
 10171 0022 0E       		.uleb128 0xe
 10172 0023 3A       		.uleb128 0x3a
 10173 0024 0B       		.uleb128 0xb
 10174 0025 3B       		.uleb128 0x3b
 10175 0026 0B       		.uleb128 0xb
 10176 0027 49       		.uleb128 0x49
 10177 0028 13       		.uleb128 0x13
 10178 0029 00       		.byte	0
 10179 002a 00       		.byte	0
 10180 002b 04       		.uleb128 0x4
 10181 002c 24       		.uleb128 0x24
 10182 002d 00       		.byte	0
 10183 002e 0B       		.uleb128 0xb
 10184 002f 0B       		.uleb128 0xb
 10185 0030 3E       		.uleb128 0x3e
 10186 0031 0B       		.uleb128 0xb
 10187 0032 03       		.uleb128 0x3
 10188 0033 08       		.uleb128 0x8
 10189 0034 00       		.byte	0
 10190 0035 00       		.byte	0
 10191 0036 05       		.uleb128 0x5
 10192 0037 16       		.uleb128 0x16
 10193 0038 00       		.byte	0
 10194 0039 03       		.uleb128 0x3
 10195 003a 0E       		.uleb128 0xe
 10196 003b 3A       		.uleb128 0x3a
 10197 003c 0B       		.uleb128 0xb
 10198 003d 3B       		.uleb128 0x3b
 10199 003e 05       		.uleb128 0x5
 10200 003f 49       		.uleb128 0x49
 10201 0040 13       		.uleb128 0x13
 10202 0041 00       		.byte	0
 10203 0042 00       		.byte	0
 10204 0043 06       		.uleb128 0x6
 10205 0044 35       		.uleb128 0x35
 10206 0045 00       		.byte	0
 10207 0046 49       		.uleb128 0x49
 10208 0047 13       		.uleb128 0x13
ARM GAS  C:\Users\Administrator\AppData\Local\Temp\ccexfbaX.s 			page 227


 10209 0048 00       		.byte	0
 10210 0049 00       		.byte	0
 10211 004a 07       		.uleb128 0x7
 10212 004b 0F       		.uleb128 0xf
 10213 004c 00       		.byte	0
 10214 004d 0B       		.uleb128 0xb
 10215 004e 0B       		.uleb128 0xb
 10216 004f 49       		.uleb128 0x49
 10217 0050 13       		.uleb128 0x13
 10218 0051 00       		.byte	0
 10219 0052 00       		.byte	0
 10220 0053 08       		.uleb128 0x8
 10221 0054 01       		.uleb128 0x1
 10222 0055 01       		.byte	0x1
 10223 0056 49       		.uleb128 0x49
 10224 0057 13       		.uleb128 0x13
 10225 0058 01       		.uleb128 0x1
 10226 0059 13       		.uleb128 0x13
 10227 005a 00       		.byte	0
 10228 005b 00       		.byte	0
 10229 005c 09       		.uleb128 0x9
 10230 005d 21       		.uleb128 0x21
 10231 005e 00       		.byte	0
 10232 005f 49       		.uleb128 0x49
 10233 0060 13       		.uleb128 0x13
 10234 0061 2F       		.uleb128 0x2f
 10235 0062 0B       		.uleb128 0xb
 10236 0063 00       		.byte	0
 10237 0064 00       		.byte	0
 10238 0065 0A       		.uleb128 0xa
 10239 0066 04       		.uleb128 0x4
 10240 0067 01       		.byte	0x1
 10241 0068 0B       		.uleb128 0xb
 10242 0069 0B       		.uleb128 0xb
 10243 006a 49       		.uleb128 0x49
 10244 006b 13       		.uleb128 0x13
 10245 006c 3A       		.uleb128 0x3a
 10246 006d 0B       		.uleb128 0xb
 10247 006e 3B       		.uleb128 0x3b
 10248 006f 05       		.uleb128 0x5
 10249 0070 01       		.uleb128 0x1
 10250 0071 13       		.uleb128 0x13
 10251 0072 00       		.byte	0
 10252 0073 00       		.byte	0
 10253 0074 0B       		.uleb128 0xb
 10254 0075 28       		.uleb128 0x28
 10255 0076 00       		.byte	0
 10256 0077 03       		.uleb128 0x3
 10257 0078 0E       		.uleb128 0xe
 10258 0079 1C       		.uleb128 0x1c
 10259 007a 0B       		.uleb128 0xb
 10260 007b 00       		.byte	0
 10261 007c 00       		.byte	0
 10262 007d 0C       		.uleb128 0xc
 10263 007e 13       		.uleb128 0x13
 10264 007f 01       		.byte	0x1
 10265 0080 03       		.uleb128 0x3
ARM GAS  C:\Users\Administrator\AppData\Local\Temp\ccexfbaX.s 			page 228


 10266 0081 0E       		.uleb128 0xe
 10267 0082 0B       		.uleb128 0xb
 10268 0083 0B       		.uleb128 0xb
 10269 0084 3A       		.uleb128 0x3a
 10270 0085 0B       		.uleb128 0xb
 10271 0086 3B       		.uleb128 0x3b
 10272 0087 0B       		.uleb128 0xb
 10273 0088 01       		.uleb128 0x1
 10274 0089 13       		.uleb128 0x13
 10275 008a 00       		.byte	0
 10276 008b 00       		.byte	0
 10277 008c 0D       		.uleb128 0xd
 10278 008d 0D       		.uleb128 0xd
 10279 008e 00       		.byte	0
 10280 008f 03       		.uleb128 0x3
 10281 0090 0E       		.uleb128 0xe
 10282 0091 3A       		.uleb128 0x3a
 10283 0092 0B       		.uleb128 0xb
 10284 0093 3B       		.uleb128 0x3b
 10285 0094 0B       		.uleb128 0xb
 10286 0095 49       		.uleb128 0x49
 10287 0096 13       		.uleb128 0x13
 10288 0097 38       		.uleb128 0x38
 10289 0098 0B       		.uleb128 0xb
 10290 0099 00       		.byte	0
 10291 009a 00       		.byte	0
 10292 009b 0E       		.uleb128 0xe
 10293 009c 2E       		.uleb128 0x2e
 10294 009d 01       		.byte	0x1
 10295 009e 03       		.uleb128 0x3
 10296 009f 0E       		.uleb128 0xe
 10297 00a0 3A       		.uleb128 0x3a
 10298 00a1 0B       		.uleb128 0xb
 10299 00a2 3B       		.uleb128 0x3b
 10300 00a3 05       		.uleb128 0x5
 10301 00a4 27       		.uleb128 0x27
 10302 00a5 19       		.uleb128 0x19
 10303 00a6 20       		.uleb128 0x20
 10304 00a7 0B       		.uleb128 0xb
 10305 00a8 01       		.uleb128 0x1
 10306 00a9 13       		.uleb128 0x13
 10307 00aa 00       		.byte	0
 10308 00ab 00       		.byte	0
 10309 00ac 0F       		.uleb128 0xf
 10310 00ad 05       		.uleb128 0x5
 10311 00ae 00       		.byte	0
 10312 00af 03       		.uleb128 0x3
 10313 00b0 0E       		.uleb128 0xe
 10314 00b1 3A       		.uleb128 0x3a
 10315 00b2 0B       		.uleb128 0xb
 10316 00b3 3B       		.uleb128 0x3b
 10317 00b4 05       		.uleb128 0x5
 10318 00b5 49       		.uleb128 0x49
 10319 00b6 13       		.uleb128 0x13
 10320 00b7 00       		.byte	0
 10321 00b8 00       		.byte	0
 10322 00b9 10       		.uleb128 0x10
ARM GAS  C:\Users\Administrator\AppData\Local\Temp\ccexfbaX.s 			page 229


 10323 00ba 34       		.uleb128 0x34
 10324 00bb 00       		.byte	0
 10325 00bc 03       		.uleb128 0x3
 10326 00bd 0E       		.uleb128 0xe
 10327 00be 3A       		.uleb128 0x3a
 10328 00bf 0B       		.uleb128 0xb
 10329 00c0 3B       		.uleb128 0x3b
 10330 00c1 05       		.uleb128 0x5
 10331 00c2 49       		.uleb128 0x49
 10332 00c3 13       		.uleb128 0x13
 10333 00c4 00       		.byte	0
 10334 00c5 00       		.byte	0
 10335 00c6 11       		.uleb128 0x11
 10336 00c7 2E       		.uleb128 0x2e
 10337 00c8 01       		.byte	0x1
 10338 00c9 03       		.uleb128 0x3
 10339 00ca 0E       		.uleb128 0xe
 10340 00cb 3A       		.uleb128 0x3a
 10341 00cc 0B       		.uleb128 0xb
 10342 00cd 3B       		.uleb128 0x3b
 10343 00ce 05       		.uleb128 0x5
 10344 00cf 27       		.uleb128 0x27
 10345 00d0 19       		.uleb128 0x19
 10346 00d1 11       		.uleb128 0x11
 10347 00d2 01       		.uleb128 0x1
 10348 00d3 12       		.uleb128 0x12
 10349 00d4 06       		.uleb128 0x6
 10350 00d5 40       		.uleb128 0x40
 10351 00d6 18       		.uleb128 0x18
 10352 00d7 9642     		.uleb128 0x2116
 10353 00d9 19       		.uleb128 0x19
 10354 00da 01       		.uleb128 0x1
 10355 00db 13       		.uleb128 0x13
 10356 00dc 00       		.byte	0
 10357 00dd 00       		.byte	0
 10358 00de 12       		.uleb128 0x12
 10359 00df 05       		.uleb128 0x5
 10360 00e0 00       		.byte	0
 10361 00e1 03       		.uleb128 0x3
 10362 00e2 0E       		.uleb128 0xe
 10363 00e3 3A       		.uleb128 0x3a
 10364 00e4 0B       		.uleb128 0xb
 10365 00e5 3B       		.uleb128 0x3b
 10366 00e6 05       		.uleb128 0x5
 10367 00e7 49       		.uleb128 0x49
 10368 00e8 13       		.uleb128 0x13
 10369 00e9 02       		.uleb128 0x2
 10370 00ea 17       		.uleb128 0x17
 10371 00eb 00       		.byte	0
 10372 00ec 00       		.byte	0
 10373 00ed 13       		.uleb128 0x13
 10374 00ee 34       		.uleb128 0x34
 10375 00ef 00       		.byte	0
 10376 00f0 03       		.uleb128 0x3
 10377 00f1 0E       		.uleb128 0xe
 10378 00f2 3A       		.uleb128 0x3a
 10379 00f3 0B       		.uleb128 0xb
ARM GAS  C:\Users\Administrator\AppData\Local\Temp\ccexfbaX.s 			page 230


 10380 00f4 3B       		.uleb128 0x3b
 10381 00f5 05       		.uleb128 0x5
 10382 00f6 49       		.uleb128 0x49
 10383 00f7 13       		.uleb128 0x13
 10384 00f8 02       		.uleb128 0x2
 10385 00f9 17       		.uleb128 0x17
 10386 00fa 00       		.byte	0
 10387 00fb 00       		.byte	0
 10388 00fc 14       		.uleb128 0x14
 10389 00fd 898201   		.uleb128 0x4109
 10390 0100 01       		.byte	0x1
 10391 0101 11       		.uleb128 0x11
 10392 0102 01       		.uleb128 0x1
 10393 0103 31       		.uleb128 0x31
 10394 0104 13       		.uleb128 0x13
 10395 0105 01       		.uleb128 0x1
 10396 0106 13       		.uleb128 0x13
 10397 0107 00       		.byte	0
 10398 0108 00       		.byte	0
 10399 0109 15       		.uleb128 0x15
 10400 010a 8A8201   		.uleb128 0x410a
 10401 010d 00       		.byte	0
 10402 010e 02       		.uleb128 0x2
 10403 010f 18       		.uleb128 0x18
 10404 0110 9142     		.uleb128 0x2111
 10405 0112 18       		.uleb128 0x18
 10406 0113 00       		.byte	0
 10407 0114 00       		.byte	0
 10408 0115 16       		.uleb128 0x16
 10409 0116 898201   		.uleb128 0x4109
 10410 0119 01       		.byte	0x1
 10411 011a 11       		.uleb128 0x11
 10412 011b 01       		.uleb128 0x1
 10413 011c 31       		.uleb128 0x31
 10414 011d 13       		.uleb128 0x13
 10415 011e 00       		.byte	0
 10416 011f 00       		.byte	0
 10417 0120 17       		.uleb128 0x17
 10418 0121 2E       		.uleb128 0x2e
 10419 0122 01       		.byte	0x1
 10420 0123 03       		.uleb128 0x3
 10421 0124 0E       		.uleb128 0xe
 10422 0125 3A       		.uleb128 0x3a
 10423 0126 0B       		.uleb128 0xb
 10424 0127 3B       		.uleb128 0x3b
 10425 0128 05       		.uleb128 0x5
 10426 0129 27       		.uleb128 0x27
 10427 012a 19       		.uleb128 0x19
 10428 012b 11       		.uleb128 0x11
 10429 012c 01       		.uleb128 0x1
 10430 012d 12       		.uleb128 0x12
 10431 012e 06       		.uleb128 0x6
 10432 012f 40       		.uleb128 0x40
 10433 0130 18       		.uleb128 0x18
 10434 0131 9742     		.uleb128 0x2117
 10435 0133 19       		.uleb128 0x19
 10436 0134 01       		.uleb128 0x1
ARM GAS  C:\Users\Administrator\AppData\Local\Temp\ccexfbaX.s 			page 231


 10437 0135 13       		.uleb128 0x13
 10438 0136 00       		.byte	0
 10439 0137 00       		.byte	0
 10440 0138 18       		.uleb128 0x18
 10441 0139 34       		.uleb128 0x34
 10442 013a 00       		.byte	0
 10443 013b 03       		.uleb128 0x3
 10444 013c 0E       		.uleb128 0xe
 10445 013d 3A       		.uleb128 0x3a
 10446 013e 0B       		.uleb128 0xb
 10447 013f 3B       		.uleb128 0x3b
 10448 0140 05       		.uleb128 0x5
 10449 0141 49       		.uleb128 0x49
 10450 0142 13       		.uleb128 0x13
 10451 0143 02       		.uleb128 0x2
 10452 0144 18       		.uleb128 0x18
 10453 0145 00       		.byte	0
 10454 0146 00       		.byte	0
 10455 0147 19       		.uleb128 0x19
 10456 0148 898201   		.uleb128 0x4109
 10457 014b 00       		.byte	0
 10458 014c 11       		.uleb128 0x11
 10459 014d 01       		.uleb128 0x1
 10460 014e 31       		.uleb128 0x31
 10461 014f 13       		.uleb128 0x13
 10462 0150 00       		.byte	0
 10463 0151 00       		.byte	0
 10464 0152 1A       		.uleb128 0x1a
 10465 0153 34       		.uleb128 0x34
 10466 0154 00       		.byte	0
 10467 0155 03       		.uleb128 0x3
 10468 0156 08       		.uleb128 0x8
 10469 0157 3A       		.uleb128 0x3a
 10470 0158 0B       		.uleb128 0xb
 10471 0159 3B       		.uleb128 0x3b
 10472 015a 05       		.uleb128 0x5
 10473 015b 49       		.uleb128 0x49
 10474 015c 13       		.uleb128 0x13
 10475 015d 00       		.byte	0
 10476 015e 00       		.byte	0
 10477 015f 1B       		.uleb128 0x1b
 10478 0160 2E       		.uleb128 0x2e
 10479 0161 01       		.byte	0x1
 10480 0162 3F       		.uleb128 0x3f
 10481 0163 19       		.uleb128 0x19
 10482 0164 03       		.uleb128 0x3
 10483 0165 0E       		.uleb128 0xe
 10484 0166 3A       		.uleb128 0x3a
 10485 0167 0B       		.uleb128 0xb
 10486 0168 3B       		.uleb128 0x3b
 10487 0169 0B       		.uleb128 0xb
 10488 016a 27       		.uleb128 0x27
 10489 016b 19       		.uleb128 0x19
 10490 016c 49       		.uleb128 0x49
 10491 016d 13       		.uleb128 0x13
 10492 016e 11       		.uleb128 0x11
 10493 016f 01       		.uleb128 0x1
ARM GAS  C:\Users\Administrator\AppData\Local\Temp\ccexfbaX.s 			page 232


 10494 0170 12       		.uleb128 0x12
 10495 0171 06       		.uleb128 0x6
 10496 0172 40       		.uleb128 0x40
 10497 0173 18       		.uleb128 0x18
 10498 0174 9742     		.uleb128 0x2117
 10499 0176 19       		.uleb128 0x19
 10500 0177 01       		.uleb128 0x1
 10501 0178 13       		.uleb128 0x13
 10502 0179 00       		.byte	0
 10503 017a 00       		.byte	0
 10504 017b 1C       		.uleb128 0x1c
 10505 017c 05       		.uleb128 0x5
 10506 017d 00       		.byte	0
 10507 017e 03       		.uleb128 0x3
 10508 017f 0E       		.uleb128 0xe
 10509 0180 3A       		.uleb128 0x3a
 10510 0181 0B       		.uleb128 0xb
 10511 0182 3B       		.uleb128 0x3b
 10512 0183 0B       		.uleb128 0xb
 10513 0184 49       		.uleb128 0x49
 10514 0185 13       		.uleb128 0x13
 10515 0186 02       		.uleb128 0x2
 10516 0187 17       		.uleb128 0x17
 10517 0188 00       		.byte	0
 10518 0189 00       		.byte	0
 10519 018a 1D       		.uleb128 0x1d
 10520 018b 34       		.uleb128 0x34
 10521 018c 00       		.byte	0
 10522 018d 03       		.uleb128 0x3
 10523 018e 0E       		.uleb128 0xe
 10524 018f 3A       		.uleb128 0x3a
 10525 0190 0B       		.uleb128 0xb
 10526 0191 3B       		.uleb128 0x3b
 10527 0192 0B       		.uleb128 0xb
 10528 0193 49       		.uleb128 0x49
 10529 0194 13       		.uleb128 0x13
 10530 0195 02       		.uleb128 0x2
 10531 0196 18       		.uleb128 0x18
 10532 0197 00       		.byte	0
 10533 0198 00       		.byte	0
 10534 0199 1E       		.uleb128 0x1e
 10535 019a 2E       		.uleb128 0x2e
 10536 019b 01       		.byte	0x1
 10537 019c 3F       		.uleb128 0x3f
 10538 019d 19       		.uleb128 0x19
 10539 019e 03       		.uleb128 0x3
 10540 019f 0E       		.uleb128 0xe
 10541 01a0 3A       		.uleb128 0x3a
 10542 01a1 0B       		.uleb128 0xb
 10543 01a2 3B       		.uleb128 0x3b
 10544 01a3 0B       		.uleb128 0xb
 10545 01a4 27       		.uleb128 0x27
 10546 01a5 19       		.uleb128 0x19
 10547 01a6 11       		.uleb128 0x11
 10548 01a7 01       		.uleb128 0x1
 10549 01a8 12       		.uleb128 0x12
 10550 01a9 06       		.uleb128 0x6
ARM GAS  C:\Users\Administrator\AppData\Local\Temp\ccexfbaX.s 			page 233


 10551 01aa 40       		.uleb128 0x40
 10552 01ab 18       		.uleb128 0x18
 10553 01ac 9742     		.uleb128 0x2117
 10554 01ae 19       		.uleb128 0x19
 10555 01af 01       		.uleb128 0x1
 10556 01b0 13       		.uleb128 0x13
 10557 01b1 00       		.byte	0
 10558 01b2 00       		.byte	0
 10559 01b3 1F       		.uleb128 0x1f
 10560 01b4 34       		.uleb128 0x34
 10561 01b5 00       		.byte	0
 10562 01b6 03       		.uleb128 0x3
 10563 01b7 0E       		.uleb128 0xe
 10564 01b8 3A       		.uleb128 0x3a
 10565 01b9 0B       		.uleb128 0xb
 10566 01ba 3B       		.uleb128 0x3b
 10567 01bb 0B       		.uleb128 0xb
 10568 01bc 49       		.uleb128 0x49
 10569 01bd 13       		.uleb128 0x13
 10570 01be 02       		.uleb128 0x2
 10571 01bf 17       		.uleb128 0x17
 10572 01c0 00       		.byte	0
 10573 01c1 00       		.byte	0
 10574 01c2 20       		.uleb128 0x20
 10575 01c3 34       		.uleb128 0x34
 10576 01c4 00       		.byte	0
 10577 01c5 03       		.uleb128 0x3
 10578 01c6 08       		.uleb128 0x8
 10579 01c7 3A       		.uleb128 0x3a
 10580 01c8 0B       		.uleb128 0xb
 10581 01c9 3B       		.uleb128 0x3b
 10582 01ca 0B       		.uleb128 0xb
 10583 01cb 49       		.uleb128 0x49
 10584 01cc 13       		.uleb128 0x13
 10585 01cd 02       		.uleb128 0x2
 10586 01ce 17       		.uleb128 0x17
 10587 01cf 00       		.byte	0
 10588 01d0 00       		.byte	0
 10589 01d1 21       		.uleb128 0x21
 10590 01d2 34       		.uleb128 0x34
 10591 01d3 00       		.byte	0
 10592 01d4 03       		.uleb128 0x3
 10593 01d5 0E       		.uleb128 0xe
 10594 01d6 3A       		.uleb128 0x3a
 10595 01d7 0B       		.uleb128 0xb
 10596 01d8 3B       		.uleb128 0x3b
 10597 01d9 0B       		.uleb128 0xb
 10598 01da 49       		.uleb128 0x49
 10599 01db 13       		.uleb128 0x13
 10600 01dc 1C       		.uleb128 0x1c
 10601 01dd 0B       		.uleb128 0xb
 10602 01de 00       		.byte	0
 10603 01df 00       		.byte	0
 10604 01e0 22       		.uleb128 0x22
 10605 01e1 2E       		.uleb128 0x2e
 10606 01e2 01       		.byte	0x1
 10607 01e3 3F       		.uleb128 0x3f
ARM GAS  C:\Users\Administrator\AppData\Local\Temp\ccexfbaX.s 			page 234


 10608 01e4 19       		.uleb128 0x19
 10609 01e5 03       		.uleb128 0x3
 10610 01e6 0E       		.uleb128 0xe
 10611 01e7 3A       		.uleb128 0x3a
 10612 01e8 0B       		.uleb128 0xb
 10613 01e9 3B       		.uleb128 0x3b
 10614 01ea 05       		.uleb128 0x5
 10615 01eb 27       		.uleb128 0x27
 10616 01ec 19       		.uleb128 0x19
 10617 01ed 49       		.uleb128 0x49
 10618 01ee 13       		.uleb128 0x13
 10619 01ef 11       		.uleb128 0x11
 10620 01f0 01       		.uleb128 0x1
 10621 01f1 12       		.uleb128 0x12
 10622 01f2 06       		.uleb128 0x6
 10623 01f3 40       		.uleb128 0x40
 10624 01f4 18       		.uleb128 0x18
 10625 01f5 9742     		.uleb128 0x2117
 10626 01f7 19       		.uleb128 0x19
 10627 01f8 01       		.uleb128 0x1
 10628 01f9 13       		.uleb128 0x13
 10629 01fa 00       		.byte	0
 10630 01fb 00       		.byte	0
 10631 01fc 23       		.uleb128 0x23
 10632 01fd 34       		.uleb128 0x34
 10633 01fe 00       		.byte	0
 10634 01ff 03       		.uleb128 0x3
 10635 0200 08       		.uleb128 0x8
 10636 0201 3A       		.uleb128 0x3a
 10637 0202 0B       		.uleb128 0xb
 10638 0203 3B       		.uleb128 0x3b
 10639 0204 05       		.uleb128 0x5
 10640 0205 49       		.uleb128 0x49
 10641 0206 13       		.uleb128 0x13
 10642 0207 02       		.uleb128 0x2
 10643 0208 17       		.uleb128 0x17
 10644 0209 00       		.byte	0
 10645 020a 00       		.byte	0
 10646 020b 24       		.uleb128 0x24
 10647 020c 34       		.uleb128 0x34
 10648 020d 00       		.byte	0
 10649 020e 03       		.uleb128 0x3
 10650 020f 0E       		.uleb128 0xe
 10651 0210 3A       		.uleb128 0x3a
 10652 0211 0B       		.uleb128 0xb
 10653 0212 3B       		.uleb128 0x3b
 10654 0213 05       		.uleb128 0x5
 10655 0214 49       		.uleb128 0x49
 10656 0215 13       		.uleb128 0x13
 10657 0216 1C       		.uleb128 0x1c
 10658 0217 0B       		.uleb128 0xb
 10659 0218 00       		.byte	0
 10660 0219 00       		.byte	0
 10661 021a 25       		.uleb128 0x25
 10662 021b 21       		.uleb128 0x21
 10663 021c 00       		.byte	0
 10664 021d 49       		.uleb128 0x49
ARM GAS  C:\Users\Administrator\AppData\Local\Temp\ccexfbaX.s 			page 235


 10665 021e 13       		.uleb128 0x13
 10666 021f 2F       		.uleb128 0x2f
 10667 0220 05       		.uleb128 0x5
 10668 0221 00       		.byte	0
 10669 0222 00       		.byte	0
 10670 0223 26       		.uleb128 0x26
 10671 0224 2E       		.uleb128 0x2e
 10672 0225 01       		.byte	0x1
 10673 0226 3F       		.uleb128 0x3f
 10674 0227 19       		.uleb128 0x19
 10675 0228 03       		.uleb128 0x3
 10676 0229 0E       		.uleb128 0xe
 10677 022a 3A       		.uleb128 0x3a
 10678 022b 0B       		.uleb128 0xb
 10679 022c 3B       		.uleb128 0x3b
 10680 022d 05       		.uleb128 0x5
 10681 022e 27       		.uleb128 0x27
 10682 022f 19       		.uleb128 0x19
 10683 0230 11       		.uleb128 0x11
 10684 0231 01       		.uleb128 0x1
 10685 0232 12       		.uleb128 0x12
 10686 0233 06       		.uleb128 0x6
 10687 0234 40       		.uleb128 0x40
 10688 0235 18       		.uleb128 0x18
 10689 0236 9742     		.uleb128 0x2117
 10690 0238 19       		.uleb128 0x19
 10691 0239 01       		.uleb128 0x1
 10692 023a 13       		.uleb128 0x13
 10693 023b 00       		.byte	0
 10694 023c 00       		.byte	0
 10695 023d 27       		.uleb128 0x27
 10696 023e 34       		.uleb128 0x34
 10697 023f 00       		.byte	0
 10698 0240 03       		.uleb128 0x3
 10699 0241 08       		.uleb128 0x8
 10700 0242 3A       		.uleb128 0x3a
 10701 0243 0B       		.uleb128 0xb
 10702 0244 3B       		.uleb128 0x3b
 10703 0245 05       		.uleb128 0x5
 10704 0246 49       		.uleb128 0x49
 10705 0247 13       		.uleb128 0x13
 10706 0248 02       		.uleb128 0x2
 10707 0249 18       		.uleb128 0x18
 10708 024a 00       		.byte	0
 10709 024b 00       		.byte	0
 10710 024c 28       		.uleb128 0x28
 10711 024d 1D       		.uleb128 0x1d
 10712 024e 01       		.byte	0x1
 10713 024f 31       		.uleb128 0x31
 10714 0250 13       		.uleb128 0x13
 10715 0251 11       		.uleb128 0x11
 10716 0252 01       		.uleb128 0x1
 10717 0253 12       		.uleb128 0x12
 10718 0254 06       		.uleb128 0x6
 10719 0255 58       		.uleb128 0x58
 10720 0256 0B       		.uleb128 0xb
 10721 0257 59       		.uleb128 0x59
ARM GAS  C:\Users\Administrator\AppData\Local\Temp\ccexfbaX.s 			page 236


 10722 0258 05       		.uleb128 0x5
 10723 0259 01       		.uleb128 0x1
 10724 025a 13       		.uleb128 0x13
 10725 025b 00       		.byte	0
 10726 025c 00       		.byte	0
 10727 025d 29       		.uleb128 0x29
 10728 025e 05       		.uleb128 0x5
 10729 025f 00       		.byte	0
 10730 0260 31       		.uleb128 0x31
 10731 0261 13       		.uleb128 0x13
 10732 0262 02       		.uleb128 0x2
 10733 0263 17       		.uleb128 0x17
 10734 0264 00       		.byte	0
 10735 0265 00       		.byte	0
 10736 0266 2A       		.uleb128 0x2a
 10737 0267 0B       		.uleb128 0xb
 10738 0268 01       		.byte	0x1
 10739 0269 11       		.uleb128 0x11
 10740 026a 01       		.uleb128 0x1
 10741 026b 12       		.uleb128 0x12
 10742 026c 06       		.uleb128 0x6
 10743 026d 00       		.byte	0
 10744 026e 00       		.byte	0
 10745 026f 2B       		.uleb128 0x2b
 10746 0270 34       		.uleb128 0x34
 10747 0271 00       		.byte	0
 10748 0272 31       		.uleb128 0x31
 10749 0273 13       		.uleb128 0x13
 10750 0274 00       		.byte	0
 10751 0275 00       		.byte	0
 10752 0276 2C       		.uleb128 0x2c
 10753 0277 34       		.uleb128 0x34
 10754 0278 00       		.byte	0
 10755 0279 31       		.uleb128 0x31
 10756 027a 13       		.uleb128 0x13
 10757 027b 02       		.uleb128 0x2
 10758 027c 17       		.uleb128 0x17
 10759 027d 00       		.byte	0
 10760 027e 00       		.byte	0
 10761 027f 2D       		.uleb128 0x2d
 10762 0280 34       		.uleb128 0x34
 10763 0281 00       		.byte	0
 10764 0282 31       		.uleb128 0x31
 10765 0283 13       		.uleb128 0x13
 10766 0284 02       		.uleb128 0x2
 10767 0285 18       		.uleb128 0x18
 10768 0286 00       		.byte	0
 10769 0287 00       		.byte	0
 10770 0288 2E       		.uleb128 0x2e
 10771 0289 26       		.uleb128 0x26
 10772 028a 00       		.byte	0
 10773 028b 49       		.uleb128 0x49
 10774 028c 13       		.uleb128 0x13
 10775 028d 00       		.byte	0
 10776 028e 00       		.byte	0
 10777 028f 2F       		.uleb128 0x2f
 10778 0290 34       		.uleb128 0x34
ARM GAS  C:\Users\Administrator\AppData\Local\Temp\ccexfbaX.s 			page 237


 10779 0291 00       		.byte	0
 10780 0292 03       		.uleb128 0x3
 10781 0293 0E       		.uleb128 0xe
 10782 0294 3A       		.uleb128 0x3a
 10783 0295 0B       		.uleb128 0xb
 10784 0296 3B       		.uleb128 0x3b
 10785 0297 05       		.uleb128 0x5
 10786 0298 49       		.uleb128 0x49
 10787 0299 13       		.uleb128 0x13
 10788 029a 3F       		.uleb128 0x3f
 10789 029b 19       		.uleb128 0x19
 10790 029c 3C       		.uleb128 0x3c
 10791 029d 19       		.uleb128 0x19
 10792 029e 00       		.byte	0
 10793 029f 00       		.byte	0
 10794 02a0 30       		.uleb128 0x30
 10795 02a1 34       		.uleb128 0x34
 10796 02a2 00       		.byte	0
 10797 02a3 03       		.uleb128 0x3
 10798 02a4 0E       		.uleb128 0xe
 10799 02a5 3A       		.uleb128 0x3a
 10800 02a6 0B       		.uleb128 0xb
 10801 02a7 3B       		.uleb128 0x3b
 10802 02a8 0B       		.uleb128 0xb
 10803 02a9 49       		.uleb128 0x49
 10804 02aa 13       		.uleb128 0x13
 10805 02ab 3F       		.uleb128 0x3f
 10806 02ac 19       		.uleb128 0x19
 10807 02ad 3C       		.uleb128 0x3c
 10808 02ae 19       		.uleb128 0x19
 10809 02af 00       		.byte	0
 10810 02b0 00       		.byte	0
 10811 02b1 31       		.uleb128 0x31
 10812 02b2 34       		.uleb128 0x34
 10813 02b3 00       		.byte	0
 10814 02b4 03       		.uleb128 0x3
 10815 02b5 0E       		.uleb128 0xe
 10816 02b6 3A       		.uleb128 0x3a
 10817 02b7 0B       		.uleb128 0xb
 10818 02b8 3B       		.uleb128 0x3b
 10819 02b9 0B       		.uleb128 0xb
 10820 02ba 49       		.uleb128 0x49
 10821 02bb 13       		.uleb128 0x13
 10822 02bc 3F       		.uleb128 0x3f
 10823 02bd 19       		.uleb128 0x19
 10824 02be 02       		.uleb128 0x2
 10825 02bf 18       		.uleb128 0x18
 10826 02c0 00       		.byte	0
 10827 02c1 00       		.byte	0
 10828 02c2 32       		.uleb128 0x32
 10829 02c3 2E       		.uleb128 0x2e
 10830 02c4 00       		.byte	0
 10831 02c5 3F       		.uleb128 0x3f
 10832 02c6 19       		.uleb128 0x19
 10833 02c7 3C       		.uleb128 0x3c
 10834 02c8 19       		.uleb128 0x19
 10835 02c9 6E       		.uleb128 0x6e
ARM GAS  C:\Users\Administrator\AppData\Local\Temp\ccexfbaX.s 			page 238


 10836 02ca 0E       		.uleb128 0xe
 10837 02cb 03       		.uleb128 0x3
 10838 02cc 0E       		.uleb128 0xe
 10839 02cd 00       		.byte	0
 10840 02ce 00       		.byte	0
 10841 02cf 33       		.uleb128 0x33
 10842 02d0 2E       		.uleb128 0x2e
 10843 02d1 00       		.byte	0
 10844 02d2 3F       		.uleb128 0x3f
 10845 02d3 19       		.uleb128 0x19
 10846 02d4 3C       		.uleb128 0x3c
 10847 02d5 19       		.uleb128 0x19
 10848 02d6 6E       		.uleb128 0x6e
 10849 02d7 0E       		.uleb128 0xe
 10850 02d8 03       		.uleb128 0x3
 10851 02d9 0E       		.uleb128 0xe
 10852 02da 3A       		.uleb128 0x3a
 10853 02db 0B       		.uleb128 0xb
 10854 02dc 3B       		.uleb128 0x3b
 10855 02dd 0B       		.uleb128 0xb
 10856 02de 00       		.byte	0
 10857 02df 00       		.byte	0
 10858 02e0 34       		.uleb128 0x34
 10859 02e1 2E       		.uleb128 0x2e
 10860 02e2 00       		.byte	0
 10861 02e3 3F       		.uleb128 0x3f
 10862 02e4 19       		.uleb128 0x19
 10863 02e5 3C       		.uleb128 0x3c
 10864 02e6 19       		.uleb128 0x19
 10865 02e7 6E       		.uleb128 0x6e
 10866 02e8 0E       		.uleb128 0xe
 10867 02e9 03       		.uleb128 0x3
 10868 02ea 0E       		.uleb128 0xe
 10869 02eb 3A       		.uleb128 0x3a
 10870 02ec 0B       		.uleb128 0xb
 10871 02ed 3B       		.uleb128 0x3b
 10872 02ee 05       		.uleb128 0x5
 10873 02ef 00       		.byte	0
 10874 02f0 00       		.byte	0
 10875 02f1 00       		.byte	0
 10876              		.section	.debug_loc,"",%progbits
 10877              	.Ldebug_loc0:
 10878              	.LLST0:
 10879 0000 00000000 		.4byte	.LVL0
 10880 0004 0E000000 		.4byte	.LVL2
 10881 0008 0100     		.2byte	0x1
 10882 000a 50       		.byte	0x50
 10883 000b 0E000000 		.4byte	.LVL2
 10884 000f 1A000000 		.4byte	.LVL5
 10885 0013 0100     		.2byte	0x1
 10886 0015 55       		.byte	0x55
 10887 0016 1A000000 		.4byte	.LVL5
 10888 001a 4C000000 		.4byte	.LVL12
 10889 001e 0400     		.2byte	0x4
 10890 0020 75       		.byte	0x75
 10891 0021 AA7E     		.sleb128 -214
 10892 0023 9F       		.byte	0x9f
ARM GAS  C:\Users\Administrator\AppData\Local\Temp\ccexfbaX.s 			page 239


 10893 0024 4C000000 		.4byte	.LVL12
 10894 0028 30010000 		.4byte	.LFE73
 10895 002c 0400     		.2byte	0x4
 10896 002e F3       		.byte	0xf3
 10897 002f 01       		.uleb128 0x1
 10898 0030 50       		.byte	0x50
 10899 0031 9F       		.byte	0x9f
 10900 0032 00000000 		.4byte	0
 10901 0036 00000000 		.4byte	0
 10902              	.LLST1:
 10903 003a 00000000 		.4byte	.LVL0
 10904 003e 0A000000 		.4byte	.LVL1
 10905 0042 0300     		.2byte	0x3
 10906 0044 70       		.byte	0x70
 10907 0045 0D       		.sleb128 13
 10908 0046 9F       		.byte	0x9f
 10909 0047 0A000000 		.4byte	.LVL1
 10910 004b 11000000 		.4byte	.LVL3-1
 10911 004f 0100     		.2byte	0x1
 10912 0051 51       		.byte	0x51
 10913 0052 11000000 		.4byte	.LVL3-1
 10914 0056 12000000 		.4byte	.LVL3
 10915 005a 0300     		.2byte	0x3
 10916 005c 75       		.byte	0x75
 10917 005d 0D       		.sleb128 13
 10918 005e 9F       		.byte	0x9f
 10919 005f 12000000 		.4byte	.LVL3
 10920 0063 1A000000 		.4byte	.LVL5
 10921 0067 0400     		.2byte	0x4
 10922 0069 75       		.byte	0x75
 10923 006a D501     		.sleb128 213
 10924 006c 9F       		.byte	0x9f
 10925 006d 1A000000 		.4byte	.LVL5
 10926 0071 4C000000 		.4byte	.LVL12
 10927 0075 0300     		.2byte	0x3
 10928 0077 75       		.byte	0x75
 10929 0078 7F       		.sleb128 -1
 10930 0079 9F       		.byte	0x9f
 10931 007a 4C000000 		.4byte	.LVL12
 10932 007e 30010000 		.4byte	.LFE73
 10933 0082 0700     		.2byte	0x7
 10934 0084 F3       		.byte	0xf3
 10935 0085 01       		.uleb128 0x1
 10936 0086 50       		.byte	0x50
 10937 0087 23       		.byte	0x23
 10938 0088 D501     		.uleb128 0xd5
 10939 008a 9F       		.byte	0x9f
 10940 008b 00000000 		.4byte	0
 10941 008f 00000000 		.4byte	0
 10942              	.LLST2:
 10943 0093 12000000 		.4byte	.LVL3
 10944 0097 16000000 		.4byte	.LVL4
 10945 009b 0A00     		.2byte	0xa
 10946 009d 75       		.byte	0x75
 10947 009e D501     		.sleb128 213
 10948 00a0 93       		.byte	0x93
 10949 00a1 01       		.uleb128 0x1
ARM GAS  C:\Users\Administrator\AppData\Local\Temp\ccexfbaX.s 			page 240


 10950 00a2 75       		.byte	0x75
 10951 00a3 D601     		.sleb128 214
 10952 00a5 93       		.byte	0x93
 10953 00a6 01       		.uleb128 0x1
 10954 00a7 16000000 		.4byte	.LVL4
 10955 00ab 1A000000 		.4byte	.LVL5
 10956 00af 0900     		.2byte	0x9
 10957 00b1 73       		.byte	0x73
 10958 00b2 00       		.sleb128 0
 10959 00b3 93       		.byte	0x93
 10960 00b4 01       		.uleb128 0x1
 10961 00b5 75       		.byte	0x75
 10962 00b6 D601     		.sleb128 214
 10963 00b8 93       		.byte	0x93
 10964 00b9 01       		.uleb128 0x1
 10965 00ba 1A000000 		.4byte	.LVL5
 10966 00be 1C000000 		.4byte	.LVL6
 10967 00c2 0800     		.2byte	0x8
 10968 00c4 73       		.byte	0x73
 10969 00c5 00       		.sleb128 0
 10970 00c6 93       		.byte	0x93
 10971 00c7 01       		.uleb128 0x1
 10972 00c8 75       		.byte	0x75
 10973 00c9 00       		.sleb128 0
 10974 00ca 93       		.byte	0x93
 10975 00cb 01       		.uleb128 0x1
 10976 00cc 1C000000 		.4byte	.LVL6
 10977 00d0 31000000 		.4byte	.LVL8-1
 10978 00d4 0800     		.2byte	0x8
 10979 00d6 75       		.byte	0x75
 10980 00d7 7F       		.sleb128 -1
 10981 00d8 93       		.byte	0x93
 10982 00d9 01       		.uleb128 0x1
 10983 00da 75       		.byte	0x75
 10984 00db 00       		.sleb128 0
 10985 00dc 93       		.byte	0x93
 10986 00dd 01       		.uleb128 0x1
 10987 00de 74000000 		.4byte	.LVL18
 10988 00e2 7B000000 		.4byte	.LVL19-1
 10989 00e6 0C00     		.2byte	0xc
 10990 00e8 F3       		.byte	0xf3
 10991 00e9 01       		.uleb128 0x1
 10992 00ea 50       		.byte	0x50
 10993 00eb 23       		.byte	0x23
 10994 00ec D501     		.uleb128 0xd5
 10995 00ee 93       		.byte	0x93
 10996 00ef 01       		.uleb128 0x1
 10997 00f0 75       		.byte	0x75
 10998 00f1 00       		.sleb128 0
 10999 00f2 93       		.byte	0x93
 11000 00f3 01       		.uleb128 0x1
 11001 00f4 00000000 		.4byte	0
 11002 00f8 00000000 		.4byte	0
 11003              	.LLST3:
 11004 00fc 38000000 		.4byte	.LVL9
 11005 0100 4C000000 		.4byte	.LVL12
 11006 0104 0500     		.2byte	0x5
ARM GAS  C:\Users\Administrator\AppData\Local\Temp\ccexfbaX.s 			page 241


 11007 0106 56       		.byte	0x56
 11008 0107 93       		.byte	0x93
 11009 0108 01       		.uleb128 0x1
 11010 0109 93       		.byte	0x93
 11011 010a 05       		.uleb128 0x5
 11012 010b 4C000000 		.4byte	.LVL12
 11013 010f 66000000 		.4byte	.LVL15
 11014 0113 0800     		.2byte	0x8
 11015 0115 56       		.byte	0x56
 11016 0116 93       		.byte	0x93
 11017 0117 01       		.uleb128 0x1
 11018 0118 55       		.byte	0x55
 11019 0119 93       		.byte	0x93
 11020 011a 01       		.uleb128 0x1
 11021 011b 93       		.byte	0x93
 11022 011c 04       		.uleb128 0x4
 11023 011d 66000000 		.4byte	.LVL15
 11024 0121 70000000 		.4byte	.LVL17
 11025 0125 0C00     		.2byte	0xc
 11026 0127 56       		.byte	0x56
 11027 0128 93       		.byte	0x93
 11028 0129 01       		.uleb128 0x1
 11029 012a 55       		.byte	0x55
 11030 012b 93       		.byte	0x93
 11031 012c 01       		.uleb128 0x1
 11032 012d 91       		.byte	0x91
 11033 012e 64       		.sleb128 -28
 11034 012f 93       		.byte	0x93
 11035 0130 01       		.uleb128 0x1
 11036 0131 93       		.byte	0x93
 11037 0132 03       		.uleb128 0x3
 11038 0133 70000000 		.4byte	.LVL17
 11039 0137 74000000 		.4byte	.LVL18
 11040 013b 1600     		.2byte	0x16
 11041 013d 56       		.byte	0x56
 11042 013e 93       		.byte	0x93
 11043 013f 01       		.uleb128 0x1
 11044 0140 55       		.byte	0x55
 11045 0141 93       		.byte	0x93
 11046 0142 01       		.uleb128 0x1
 11047 0143 91       		.byte	0x91
 11048 0144 64       		.sleb128 -28
 11049 0145 93       		.byte	0x93
 11050 0146 01       		.uleb128 0x1
 11051 0147 7D       		.byte	0x7d
 11052 0148 00       		.sleb128 0
 11053 0149 93       		.byte	0x93
 11054 014a 01       		.uleb128 0x1
 11055 014b 30       		.byte	0x30
 11056 014c 9F       		.byte	0x9f
 11057 014d 93       		.byte	0x93
 11058 014e 01       		.uleb128 0x1
 11059 014f 30       		.byte	0x30
 11060 0150 9F       		.byte	0x9f
 11061 0151 93       		.byte	0x93
 11062 0152 01       		.uleb128 0x1
 11063 0153 80000000 		.4byte	.LVL20
ARM GAS  C:\Users\Administrator\AppData\Local\Temp\ccexfbaX.s 			page 242


 11064 0157 98000000 		.4byte	.LVL23
 11065 015b 0500     		.2byte	0x5
 11066 015d 56       		.byte	0x56
 11067 015e 93       		.byte	0x93
 11068 015f 01       		.uleb128 0x1
 11069 0160 93       		.byte	0x93
 11070 0161 05       		.uleb128 0x5
 11071 0162 98000000 		.4byte	.LVL23
 11072 0166 B2000000 		.4byte	.LVL26
 11073 016a 0800     		.2byte	0x8
 11074 016c 56       		.byte	0x56
 11075 016d 93       		.byte	0x93
 11076 016e 01       		.uleb128 0x1
 11077 016f 55       		.byte	0x55
 11078 0170 93       		.byte	0x93
 11079 0171 01       		.uleb128 0x1
 11080 0172 93       		.byte	0x93
 11081 0173 04       		.uleb128 0x4
 11082 0174 B2000000 		.4byte	.LVL26
 11083 0178 C8000000 		.4byte	.LVL29
 11084 017c 0C00     		.2byte	0xc
 11085 017e 56       		.byte	0x56
 11086 017f 93       		.byte	0x93
 11087 0180 01       		.uleb128 0x1
 11088 0181 55       		.byte	0x55
 11089 0182 93       		.byte	0x93
 11090 0183 01       		.uleb128 0x1
 11091 0184 91       		.byte	0x91
 11092 0185 64       		.sleb128 -28
 11093 0186 93       		.byte	0x93
 11094 0187 01       		.uleb128 0x1
 11095 0188 93       		.byte	0x93
 11096 0189 03       		.uleb128 0x3
 11097 018a C8000000 		.4byte	.LVL29
 11098 018e D0000000 		.4byte	.LVL31
 11099 0192 1000     		.2byte	0x10
 11100 0194 56       		.byte	0x56
 11101 0195 93       		.byte	0x93
 11102 0196 01       		.uleb128 0x1
 11103 0197 55       		.byte	0x55
 11104 0198 93       		.byte	0x93
 11105 0199 01       		.uleb128 0x1
 11106 019a 91       		.byte	0x91
 11107 019b 64       		.sleb128 -28
 11108 019c 93       		.byte	0x93
 11109 019d 01       		.uleb128 0x1
 11110 019e 7D       		.byte	0x7d
 11111 019f 00       		.sleb128 0
 11112 01a0 93       		.byte	0x93
 11113 01a1 01       		.uleb128 0x1
 11114 01a2 93       		.byte	0x93
 11115 01a3 02       		.uleb128 0x2
 11116 01a4 D0000000 		.4byte	.LVL31
 11117 01a8 ED000000 		.4byte	.LVL33-1
 11118 01ac 1500     		.2byte	0x15
 11119 01ae 56       		.byte	0x56
 11120 01af 93       		.byte	0x93
ARM GAS  C:\Users\Administrator\AppData\Local\Temp\ccexfbaX.s 			page 243


 11121 01b0 01       		.uleb128 0x1
 11122 01b1 55       		.byte	0x55
 11123 01b2 93       		.byte	0x93
 11124 01b3 01       		.uleb128 0x1
 11125 01b4 91       		.byte	0x91
 11126 01b5 64       		.sleb128 -28
 11127 01b6 93       		.byte	0x93
 11128 01b7 01       		.uleb128 0x1
 11129 01b8 7D       		.byte	0x7d
 11130 01b9 00       		.sleb128 0
 11131 01ba 93       		.byte	0x93
 11132 01bb 01       		.uleb128 0x1
 11133 01bc 51       		.byte	0x51
 11134 01bd 93       		.byte	0x93
 11135 01be 01       		.uleb128 0x1
 11136 01bf 30       		.byte	0x30
 11137 01c0 9F       		.byte	0x9f
 11138 01c1 93       		.byte	0x93
 11139 01c2 01       		.uleb128 0x1
 11140 01c3 ED000000 		.4byte	.LVL33-1
 11141 01c7 0A010000 		.4byte	.LVL35
 11142 01cb 1400     		.2byte	0x14
 11143 01cd 56       		.byte	0x56
 11144 01ce 93       		.byte	0x93
 11145 01cf 01       		.uleb128 0x1
 11146 01d0 55       		.byte	0x55
 11147 01d1 93       		.byte	0x93
 11148 01d2 01       		.uleb128 0x1
 11149 01d3 91       		.byte	0x91
 11150 01d4 64       		.sleb128 -28
 11151 01d5 93       		.byte	0x93
 11152 01d6 01       		.uleb128 0x1
 11153 01d7 7D       		.byte	0x7d
 11154 01d8 00       		.sleb128 0
 11155 01d9 93       		.byte	0x93
 11156 01da 01       		.uleb128 0x1
 11157 01db 93       		.byte	0x93
 11158 01dc 01       		.uleb128 0x1
 11159 01dd 30       		.byte	0x30
 11160 01de 9F       		.byte	0x9f
 11161 01df 93       		.byte	0x93
 11162 01e0 01       		.uleb128 0x1
 11163 01e1 00000000 		.4byte	0
 11164 01e5 00000000 		.4byte	0
 11165              	.LLST4:
 11166 01e9 24000000 		.4byte	.LVL7
 11167 01ed D8000000 		.4byte	.LVL32
 11168 01f1 0100     		.2byte	0x1
 11169 01f3 54       		.byte	0x54
 11170 01f4 00000000 		.4byte	0
 11171 01f8 00000000 		.4byte	0
 11172              	.LLST5:
 11173 01fc 00000000 		.4byte	.LVL36
 11174 0200 0C000000 		.4byte	.LVL37
 11175 0204 0100     		.2byte	0x1
 11176 0206 50       		.byte	0x50
 11177 0207 0C000000 		.4byte	.LVL37
ARM GAS  C:\Users\Administrator\AppData\Local\Temp\ccexfbaX.s 			page 244


 11178 020b 32000000 		.4byte	.LVL42
 11179 020f 0100     		.2byte	0x1
 11180 0211 54       		.byte	0x54
 11181 0212 32000000 		.4byte	.LVL42
 11182 0216 38000000 		.4byte	.LFE79
 11183 021a 0400     		.2byte	0x4
 11184 021c F3       		.byte	0xf3
 11185 021d 01       		.uleb128 0x1
 11186 021e 50       		.byte	0x50
 11187 021f 9F       		.byte	0x9f
 11188 0220 00000000 		.4byte	0
 11189 0224 00000000 		.4byte	0
 11190              	.LLST6:
 11191 0228 00000000 		.4byte	.LVL36
 11192 022c 1C000000 		.4byte	.LVL39
 11193 0230 0200     		.2byte	0x2
 11194 0232 30       		.byte	0x30
 11195 0233 9F       		.byte	0x9f
 11196 0234 1C000000 		.4byte	.LVL39
 11197 0238 29000000 		.4byte	.LVL40-1
 11198 023c 0200     		.2byte	0x2
 11199 023e 74       		.byte	0x74
 11200 023f 1E       		.sleb128 30
 11201 0240 00000000 		.4byte	0
 11202 0244 00000000 		.4byte	0
 11203              	.LLST7:
 11204 0248 00000000 		.4byte	.LVL43
 11205 024c 0A000000 		.4byte	.LVL45
 11206 0250 0100     		.2byte	0x1
 11207 0252 50       		.byte	0x50
 11208 0253 0A000000 		.4byte	.LVL45
 11209 0257 0D000000 		.4byte	.LVL46-1
 11210 025b 0300     		.2byte	0x3
 11211 025d 71       		.byte	0x71
 11212 025e 6F       		.sleb128 -17
 11213 025f 9F       		.byte	0x9f
 11214 0260 0D000000 		.4byte	.LVL46-1
 11215 0264 24000000 		.4byte	.LFE82
 11216 0268 0400     		.2byte	0x4
 11217 026a F3       		.byte	0xf3
 11218 026b 01       		.uleb128 0x1
 11219 026c 50       		.byte	0x50
 11220 026d 9F       		.byte	0x9f
 11221 026e 00000000 		.4byte	0
 11222 0272 00000000 		.4byte	0
 11223              	.LLST8:
 11224 0276 00000000 		.4byte	.LVL43
 11225 027a 08000000 		.4byte	.LVL44
 11226 027e 0300     		.2byte	0x3
 11227 0280 70       		.byte	0x70
 11228 0281 11       		.sleb128 17
 11229 0282 9F       		.byte	0x9f
 11230 0283 08000000 		.4byte	.LVL44
 11231 0287 0D000000 		.4byte	.LVL46-1
 11232 028b 0100     		.2byte	0x1
 11233 028d 51       		.byte	0x51
 11234 028e 0D000000 		.4byte	.LVL46-1
ARM GAS  C:\Users\Administrator\AppData\Local\Temp\ccexfbaX.s 			page 245


 11235 0292 24000000 		.4byte	.LFE82
 11236 0296 0600     		.2byte	0x6
 11237 0298 F3       		.byte	0xf3
 11238 0299 01       		.uleb128 0x1
 11239 029a 50       		.byte	0x50
 11240 029b 23       		.byte	0x23
 11241 029c 11       		.uleb128 0x11
 11242 029d 9F       		.byte	0x9f
 11243 029e 00000000 		.4byte	0
 11244 02a2 00000000 		.4byte	0
 11245              	.LLST9:
 11246 02a6 00000000 		.4byte	.LVL49
 11247 02aa 28000000 		.4byte	.LVL55
 11248 02ae 0100     		.2byte	0x1
 11249 02b0 50       		.byte	0x50
 11250 02b1 28000000 		.4byte	.LVL55
 11251 02b5 2B000000 		.4byte	.LVL56-1
 11252 02b9 0300     		.2byte	0x3
 11253 02bb 71       		.byte	0x71
 11254 02bc 6F       		.sleb128 -17
 11255 02bd 9F       		.byte	0x9f
 11256 02be 2B000000 		.4byte	.LVL56-1
 11257 02c2 54000000 		.4byte	.LFE80
 11258 02c6 0400     		.2byte	0x4
 11259 02c8 F3       		.byte	0xf3
 11260 02c9 01       		.uleb128 0x1
 11261 02ca 50       		.byte	0x50
 11262 02cb 9F       		.byte	0x9f
 11263 02cc 00000000 		.4byte	0
 11264 02d0 00000000 		.4byte	0
 11265              	.LLST10:
 11266 02d4 00000000 		.4byte	.LVL49
 11267 02d8 20000000 		.4byte	.LVL53
 11268 02dc 0100     		.2byte	0x1
 11269 02de 50       		.byte	0x50
 11270 02df 20000000 		.4byte	.LVL53
 11271 02e3 26000000 		.4byte	.LVL54
 11272 02e7 0300     		.2byte	0x3
 11273 02e9 70       		.byte	0x70
 11274 02ea 11       		.sleb128 17
 11275 02eb 9F       		.byte	0x9f
 11276 02ec 26000000 		.4byte	.LVL54
 11277 02f0 2B000000 		.4byte	.LVL56-1
 11278 02f4 0100     		.2byte	0x1
 11279 02f6 51       		.byte	0x51
 11280 02f7 2B000000 		.4byte	.LVL56-1
 11281 02fb 42000000 		.4byte	.LVL59
 11282 02ff 0600     		.2byte	0x6
 11283 0301 F3       		.byte	0xf3
 11284 0302 01       		.uleb128 0x1
 11285 0303 50       		.byte	0x50
 11286 0304 23       		.byte	0x23
 11287 0305 11       		.uleb128 0x11
 11288 0306 9F       		.byte	0x9f
 11289 0307 00000000 		.4byte	0
 11290 030b 00000000 		.4byte	0
 11291              	.LLST11:
ARM GAS  C:\Users\Administrator\AppData\Local\Temp\ccexfbaX.s 			page 246


 11292 030f 10000000 		.4byte	.LVL50
 11293 0313 14000000 		.4byte	.LVL51
 11294 0317 0100     		.2byte	0x1
 11295 0319 53       		.byte	0x53
 11296 031a 14000000 		.4byte	.LVL51
 11297 031e 28000000 		.4byte	.LVL55
 11298 0322 1400     		.2byte	0x14
 11299 0324 70       		.byte	0x70
 11300 0325 02       		.sleb128 2
 11301 0326 94       		.byte	0x94
 11302 0327 01       		.byte	0x1
 11303 0328 08       		.byte	0x8
 11304 0329 FF       		.byte	0xff
 11305 032a 1A       		.byte	0x1a
 11306 032b 38       		.byte	0x38
 11307 032c 24       		.byte	0x24
 11308 032d 70       		.byte	0x70
 11309 032e 03       		.sleb128 3
 11310 032f 94       		.byte	0x94
 11311 0330 01       		.byte	0x1
 11312 0331 08       		.byte	0x8
 11313 0332 FF       		.byte	0xff
 11314 0333 1A       		.byte	0x1a
 11315 0334 22       		.byte	0x22
 11316 0335 23       		.byte	0x23
 11317 0336 04       		.uleb128 0x4
 11318 0337 9F       		.byte	0x9f
 11319 0338 28000000 		.4byte	.LVL55
 11320 033c 2B000000 		.4byte	.LVL56-1
 11321 0340 1400     		.2byte	0x14
 11322 0342 71       		.byte	0x71
 11323 0343 71       		.sleb128 -15
 11324 0344 94       		.byte	0x94
 11325 0345 01       		.byte	0x1
 11326 0346 08       		.byte	0x8
 11327 0347 FF       		.byte	0xff
 11328 0348 1A       		.byte	0x1a
 11329 0349 38       		.byte	0x38
 11330 034a 24       		.byte	0x24
 11331 034b 71       		.byte	0x71
 11332 034c 72       		.sleb128 -14
 11333 034d 94       		.byte	0x94
 11334 034e 01       		.byte	0x1
 11335 034f 08       		.byte	0x8
 11336 0350 FF       		.byte	0xff
 11337 0351 1A       		.byte	0x1a
 11338 0352 22       		.byte	0x22
 11339 0353 23       		.byte	0x23
 11340 0354 04       		.uleb128 0x4
 11341 0355 9F       		.byte	0x9f
 11342 0356 00000000 		.4byte	0
 11343 035a 00000000 		.4byte	0
 11344              	.LLST12:
 11345 035e 00000000 		.4byte	.LVL61
 11346 0362 10000000 		.4byte	.LVL62
 11347 0366 0100     		.2byte	0x1
 11348 0368 50       		.byte	0x50
ARM GAS  C:\Users\Administrator\AppData\Local\Temp\ccexfbaX.s 			page 247


 11349 0369 10000000 		.4byte	.LVL62
 11350 036d 13000000 		.4byte	.LVL63-1
 11351 0371 0300     		.2byte	0x3
 11352 0373 71       		.byte	0x71
 11353 0374 73       		.sleb128 -13
 11354 0375 9F       		.byte	0x9f
 11355 0376 13000000 		.4byte	.LVL63-1
 11356 037a 6C000000 		.4byte	.LFE89
 11357 037e 0400     		.2byte	0x4
 11358 0380 F3       		.byte	0xf3
 11359 0381 01       		.uleb128 0x1
 11360 0382 50       		.byte	0x50
 11361 0383 9F       		.byte	0x9f
 11362 0384 00000000 		.4byte	0
 11363 0388 00000000 		.4byte	0
 11364              	.LLST13:
 11365 038c 00000000 		.4byte	.LVL70
 11366 0390 0A000000 		.4byte	.LVL71
 11367 0394 0100     		.2byte	0x1
 11368 0396 50       		.byte	0x50
 11369 0397 0A000000 		.4byte	.LVL71
 11370 039b 5E000000 		.4byte	.LVL76
 11371 039f 0100     		.2byte	0x1
 11372 03a1 54       		.byte	0x54
 11373 03a2 5E000000 		.4byte	.LVL76
 11374 03a6 60000000 		.4byte	.LFE63
 11375 03aa 0400     		.2byte	0x4
 11376 03ac F3       		.byte	0xf3
 11377 03ad 01       		.uleb128 0x1
 11378 03ae 50       		.byte	0x50
 11379 03af 9F       		.byte	0x9f
 11380 03b0 00000000 		.4byte	0
 11381 03b4 00000000 		.4byte	0
 11382              	.LLST14:
 11383 03b8 34000000 		.4byte	.LVL89
 11384 03bc 46000000 		.4byte	.LVL92
 11385 03c0 1800     		.2byte	0x18
 11386 03c2 70       		.byte	0x70
 11387 03c3 00       		.sleb128 0
 11388 03c4 48       		.byte	0x48
 11389 03c5 25       		.byte	0x25
 11390 03c6 9F       		.byte	0x9f
 11391 03c7 93       		.byte	0x93
 11392 03c8 01       		.uleb128 0x1
 11393 03c9 70       		.byte	0x70
 11394 03ca 00       		.sleb128 0
 11395 03cb 40       		.byte	0x40
 11396 03cc 25       		.byte	0x25
 11397 03cd 9F       		.byte	0x9f
 11398 03ce 93       		.byte	0x93
 11399 03cf 01       		.uleb128 0x1
 11400 03d0 70       		.byte	0x70
 11401 03d1 00       		.sleb128 0
 11402 03d2 38       		.byte	0x38
 11403 03d3 25       		.byte	0x25
 11404 03d4 9F       		.byte	0x9f
 11405 03d5 93       		.byte	0x93
ARM GAS  C:\Users\Administrator\AppData\Local\Temp\ccexfbaX.s 			page 248


 11406 03d6 01       		.uleb128 0x1
 11407 03d7 50       		.byte	0x50
 11408 03d8 93       		.byte	0x93
 11409 03d9 01       		.uleb128 0x1
 11410 03da 46000000 		.4byte	.LVL92
 11411 03de 4B000000 		.4byte	.LVL94-1
 11412 03e2 0600     		.2byte	0x6
 11413 03e4 93       		.byte	0x93
 11414 03e5 03       		.uleb128 0x3
 11415 03e6 70       		.byte	0x70
 11416 03e7 10       		.sleb128 16
 11417 03e8 93       		.byte	0x93
 11418 03e9 01       		.uleb128 0x1
 11419 03ea 00000000 		.4byte	0
 11420 03ee 00000000 		.4byte	0
 11421              	.LLST15:
 11422 03f2 34000000 		.4byte	.LVL89
 11423 03f6 46000000 		.4byte	.LVL92
 11424 03fa 0100     		.2byte	0x1
 11425 03fc 50       		.byte	0x50
 11426 03fd 00000000 		.4byte	0
 11427 0401 00000000 		.4byte	0
 11428              	.LLST16:
 11429 0405 00000000 		.4byte	.LVL80
 11430 0409 4C000000 		.4byte	.LVL94
 11431 040d 0200     		.2byte	0x2
 11432 040f 30       		.byte	0x30
 11433 0410 9F       		.byte	0x9f
 11434 0411 4C000000 		.4byte	.LVL94
 11435 0415 62000000 		.4byte	.LVL96
 11436 0419 0100     		.2byte	0x1
 11437 041b 50       		.byte	0x50
 11438 041c 00000000 		.4byte	0
 11439 0420 00000000 		.4byte	0
 11440              	.LLST17:
 11441 0424 00000000 		.4byte	.LVL80
 11442 0428 0A000000 		.4byte	.LVL81
 11443 042c 0200     		.2byte	0x2
 11444 042e 31       		.byte	0x31
 11445 042f 9F       		.byte	0x9f
 11446 0430 0A000000 		.4byte	.LVL81
 11447 0434 0E000000 		.4byte	.LVL82
 11448 0438 0200     		.2byte	0x2
 11449 043a 32       		.byte	0x32
 11450 043b 9F       		.byte	0x9f
 11451 043c 0E000000 		.4byte	.LVL82
 11452 0440 14000000 		.4byte	.LVL83
 11453 0444 0200     		.2byte	0x2
 11454 0446 33       		.byte	0x33
 11455 0447 9F       		.byte	0x9f
 11456 0448 14000000 		.4byte	.LVL83
 11457 044c 1A000000 		.4byte	.LVL84
 11458 0450 0200     		.2byte	0x2
 11459 0452 34       		.byte	0x34
 11460 0453 9F       		.byte	0x9f
 11461 0454 1A000000 		.4byte	.LVL84
 11462 0458 1E000000 		.4byte	.LVL85
ARM GAS  C:\Users\Administrator\AppData\Local\Temp\ccexfbaX.s 			page 249


 11463 045c 0200     		.2byte	0x2
 11464 045e 35       		.byte	0x35
 11465 045f 9F       		.byte	0x9f
 11466 0460 1E000000 		.4byte	.LVL85
 11467 0464 20000000 		.4byte	.LVL86
 11468 0468 0200     		.2byte	0x2
 11469 046a 36       		.byte	0x36
 11470 046b 9F       		.byte	0x9f
 11471 046c 20000000 		.4byte	.LVL86
 11472 0470 22000000 		.4byte	.LVL87
 11473 0474 0200     		.2byte	0x2
 11474 0476 37       		.byte	0x37
 11475 0477 9F       		.byte	0x9f
 11476 0478 22000000 		.4byte	.LVL87
 11477 047c 2A000000 		.4byte	.LVL88
 11478 0480 0300     		.2byte	0x3
 11479 0482 73       		.byte	0x73
 11480 0483 08       		.sleb128 8
 11481 0484 9F       		.byte	0x9f
 11482 0485 34000000 		.4byte	.LVL89
 11483 0489 3A000000 		.4byte	.LVL90
 11484 048d 0200     		.2byte	0x2
 11485 048f 3E       		.byte	0x3e
 11486 0490 9F       		.byte	0x9f
 11487 0491 3A000000 		.4byte	.LVL90
 11488 0495 3E000000 		.4byte	.LVL91
 11489 0499 0200     		.2byte	0x2
 11490 049b 3F       		.byte	0x3f
 11491 049c 9F       		.byte	0x9f
 11492 049d 3E000000 		.4byte	.LVL91
 11493 04a1 48000000 		.4byte	.LVL93
 11494 04a5 0200     		.2byte	0x2
 11495 04a7 40       		.byte	0x40
 11496 04a8 9F       		.byte	0x9f
 11497 04a9 48000000 		.4byte	.LVL93
 11498 04ad 4C000000 		.4byte	.LVL94
 11499 04b1 0200     		.2byte	0x2
 11500 04b3 41       		.byte	0x41
 11501 04b4 9F       		.byte	0x9f
 11502 04b5 4C000000 		.4byte	.LVL94
 11503 04b9 52000000 		.4byte	.LVL95
 11504 04bd 0200     		.2byte	0x2
 11505 04bf 42       		.byte	0x42
 11506 04c0 9F       		.byte	0x9f
 11507 04c1 52000000 		.4byte	.LVL95
 11508 04c5 70000000 		.4byte	.LFE65
 11509 04c9 0200     		.2byte	0x2
 11510 04cb 43       		.byte	0x43
 11511 04cc 9F       		.byte	0x9f
 11512 04cd 00000000 		.4byte	0
 11513 04d1 00000000 		.4byte	0
 11514              	.LLST18:
 11515 04d5 00000000 		.4byte	.LVL80
 11516 04d9 22000000 		.4byte	.LVL87
 11517 04dd 0200     		.2byte	0x2
 11518 04df 30       		.byte	0x30
 11519 04e0 9F       		.byte	0x9f
ARM GAS  C:\Users\Administrator\AppData\Local\Temp\ccexfbaX.s 			page 250


 11520 04e1 22000000 		.4byte	.LVL87
 11521 04e5 2A000000 		.4byte	.LVL88
 11522 04e9 0100     		.2byte	0x1
 11523 04eb 53       		.byte	0x53
 11524 04ec 00000000 		.4byte	0
 11525 04f0 00000000 		.4byte	0
 11526              	.LLST19:
 11527 04f4 3C000000 		.4byte	.LVL107
 11528 04f8 41000000 		.4byte	.LVL108-1
 11529 04fc 0100     		.2byte	0x1
 11530 04fe 53       		.byte	0x53
 11531 04ff 00000000 		.4byte	0
 11532 0503 00000000 		.4byte	0
 11533              	.LLST20:
 11534 0507 42000000 		.4byte	.LVL108
 11535 050b 54000000 		.4byte	.LVL111
 11536 050f 1800     		.2byte	0x18
 11537 0511 70       		.byte	0x70
 11538 0512 00       		.sleb128 0
 11539 0513 48       		.byte	0x48
 11540 0514 25       		.byte	0x25
 11541 0515 9F       		.byte	0x9f
 11542 0516 93       		.byte	0x93
 11543 0517 01       		.uleb128 0x1
 11544 0518 70       		.byte	0x70
 11545 0519 00       		.sleb128 0
 11546 051a 40       		.byte	0x40
 11547 051b 25       		.byte	0x25
 11548 051c 9F       		.byte	0x9f
 11549 051d 93       		.byte	0x93
 11550 051e 01       		.uleb128 0x1
 11551 051f 70       		.byte	0x70
 11552 0520 00       		.sleb128 0
 11553 0521 38       		.byte	0x38
 11554 0522 25       		.byte	0x25
 11555 0523 9F       		.byte	0x9f
 11556 0524 93       		.byte	0x93
 11557 0525 01       		.uleb128 0x1
 11558 0526 50       		.byte	0x50
 11559 0527 93       		.byte	0x93
 11560 0528 01       		.uleb128 0x1
 11561 0529 54000000 		.4byte	.LVL111
 11562 052d 59000000 		.4byte	.LVL113-1
 11563 0531 0600     		.2byte	0x6
 11564 0533 93       		.byte	0x93
 11565 0534 03       		.uleb128 0x3
 11566 0535 70       		.byte	0x70
 11567 0536 12       		.sleb128 18
 11568 0537 93       		.byte	0x93
 11569 0538 01       		.uleb128 0x1
 11570 0539 00000000 		.4byte	0
 11571 053d 00000000 		.4byte	0
 11572              	.LLST21:
 11573 0541 42000000 		.4byte	.LVL108
 11574 0545 54000000 		.4byte	.LVL111
 11575 0549 0100     		.2byte	0x1
 11576 054b 50       		.byte	0x50
ARM GAS  C:\Users\Administrator\AppData\Local\Temp\ccexfbaX.s 			page 251


 11577 054c 00000000 		.4byte	0
 11578 0550 00000000 		.4byte	0
 11579              	.LLST22:
 11580 0554 00000000 		.4byte	.LVL98
 11581 0558 5A000000 		.4byte	.LVL113
 11582 055c 0200     		.2byte	0x2
 11583 055e 30       		.byte	0x30
 11584 055f 9F       		.byte	0x9f
 11585 0560 5A000000 		.4byte	.LVL113
 11586 0564 70000000 		.4byte	.LVL115
 11587 0568 0100     		.2byte	0x1
 11588 056a 50       		.byte	0x50
 11589 056b 00000000 		.4byte	0
 11590 056f 00000000 		.4byte	0
 11591              	.LLST23:
 11592 0573 00000000 		.4byte	.LVL98
 11593 0577 0A000000 		.4byte	.LVL99
 11594 057b 0200     		.2byte	0x2
 11595 057d 31       		.byte	0x31
 11596 057e 9F       		.byte	0x9f
 11597 057f 0A000000 		.4byte	.LVL99
 11598 0583 0E000000 		.4byte	.LVL100
 11599 0587 0200     		.2byte	0x2
 11600 0589 32       		.byte	0x32
 11601 058a 9F       		.byte	0x9f
 11602 058b 0E000000 		.4byte	.LVL100
 11603 058f 14000000 		.4byte	.LVL101
 11604 0593 0200     		.2byte	0x2
 11605 0595 33       		.byte	0x33
 11606 0596 9F       		.byte	0x9f
 11607 0597 14000000 		.4byte	.LVL101
 11608 059b 18000000 		.4byte	.LVL102
 11609 059f 0200     		.2byte	0x2
 11610 05a1 34       		.byte	0x34
 11611 05a2 9F       		.byte	0x9f
 11612 05a3 18000000 		.4byte	.LVL102
 11613 05a7 1C000000 		.4byte	.LVL103
 11614 05ab 0200     		.2byte	0x2
 11615 05ad 35       		.byte	0x35
 11616 05ae 9F       		.byte	0x9f
 11617 05af 1C000000 		.4byte	.LVL103
 11618 05b3 1E000000 		.4byte	.LVL104
 11619 05b7 0200     		.2byte	0x2
 11620 05b9 36       		.byte	0x36
 11621 05ba 9F       		.byte	0x9f
 11622 05bb 1E000000 		.4byte	.LVL104
 11623 05bf 24000000 		.4byte	.LVL105
 11624 05c3 0200     		.2byte	0x2
 11625 05c5 37       		.byte	0x37
 11626 05c6 9F       		.byte	0x9f
 11627 05c7 24000000 		.4byte	.LVL105
 11628 05cb 2C000000 		.4byte	.LVL106
 11629 05cf 0300     		.2byte	0x3
 11630 05d1 73       		.byte	0x73
 11631 05d2 08       		.sleb128 8
 11632 05d3 9F       		.byte	0x9f
 11633 05d4 3C000000 		.4byte	.LVL107
ARM GAS  C:\Users\Administrator\AppData\Local\Temp\ccexfbaX.s 			page 252


 11634 05d8 42000000 		.4byte	.LVL108
 11635 05dc 0200     		.2byte	0x2
 11636 05de 3F       		.byte	0x3f
 11637 05df 9F       		.byte	0x9f
 11638 05e0 42000000 		.4byte	.LVL108
 11639 05e4 48000000 		.4byte	.LVL109
 11640 05e8 0200     		.2byte	0x2
 11641 05ea 40       		.byte	0x40
 11642 05eb 9F       		.byte	0x9f
 11643 05ec 48000000 		.4byte	.LVL109
 11644 05f0 4C000000 		.4byte	.LVL110
 11645 05f4 0200     		.2byte	0x2
 11646 05f6 41       		.byte	0x41
 11647 05f7 9F       		.byte	0x9f
 11648 05f8 4C000000 		.4byte	.LVL110
 11649 05fc 56000000 		.4byte	.LVL112
 11650 0600 0200     		.2byte	0x2
 11651 0602 42       		.byte	0x42
 11652 0603 9F       		.byte	0x9f
 11653 0604 56000000 		.4byte	.LVL112
 11654 0608 5A000000 		.4byte	.LVL113
 11655 060c 0200     		.2byte	0x2
 11656 060e 43       		.byte	0x43
 11657 060f 9F       		.byte	0x9f
 11658 0610 5A000000 		.4byte	.LVL113
 11659 0614 60000000 		.4byte	.LVL114
 11660 0618 0200     		.2byte	0x2
 11661 061a 44       		.byte	0x44
 11662 061b 9F       		.byte	0x9f
 11663 061c 60000000 		.4byte	.LVL114
 11664 0620 84000000 		.4byte	.LFE66
 11665 0624 0200     		.2byte	0x2
 11666 0626 45       		.byte	0x45
 11667 0627 9F       		.byte	0x9f
 11668 0628 00000000 		.4byte	0
 11669 062c 00000000 		.4byte	0
 11670              	.LLST24:
 11671 0630 00000000 		.4byte	.LVL98
 11672 0634 24000000 		.4byte	.LVL105
 11673 0638 0200     		.2byte	0x2
 11674 063a 30       		.byte	0x30
 11675 063b 9F       		.byte	0x9f
 11676 063c 24000000 		.4byte	.LVL105
 11677 0640 2C000000 		.4byte	.LVL106
 11678 0644 0100     		.2byte	0x1
 11679 0646 53       		.byte	0x53
 11680 0647 00000000 		.4byte	0
 11681 064b 00000000 		.4byte	0
 11682              	.LLST25:
 11683 064f 00000000 		.4byte	.LVL117
 11684 0653 26000000 		.4byte	.LVL123
 11685 0657 0100     		.2byte	0x1
 11686 0659 50       		.byte	0x50
 11687 065a 26000000 		.4byte	.LVL123
 11688 065e EA000000 		.4byte	.LVL147
 11689 0662 0100     		.2byte	0x1
 11690 0664 55       		.byte	0x55
ARM GAS  C:\Users\Administrator\AppData\Local\Temp\ccexfbaX.s 			page 253


 11691 0665 EA000000 		.4byte	.LVL147
 11692 0669 00010000 		.4byte	.LFE67
 11693 066d 0400     		.2byte	0x4
 11694 066f F3       		.byte	0xf3
 11695 0670 01       		.uleb128 0x1
 11696 0671 50       		.byte	0x50
 11697 0672 9F       		.byte	0x9f
 11698 0673 00000000 		.4byte	0
 11699 0677 00000000 		.4byte	0
 11700              	.LLST26:
 11701 067b 00000000 		.4byte	.LVL117
 11702 067f 18000000 		.4byte	.LVL119
 11703 0683 0100     		.2byte	0x1
 11704 0685 51       		.byte	0x51
 11705 0686 18000000 		.4byte	.LVL119
 11706 068a 00010000 		.4byte	.LFE67
 11707 068e 0400     		.2byte	0x4
 11708 0690 F3       		.byte	0xf3
 11709 0691 01       		.uleb128 0x1
 11710 0692 51       		.byte	0x51
 11711 0693 9F       		.byte	0x9f
 11712 0694 00000000 		.4byte	0
 11713 0698 00000000 		.4byte	0
 11714              	.LLST27:
 11715 069c 00000000 		.4byte	.LVL117
 11716 06a0 0A000000 		.4byte	.LVL118
 11717 06a4 0100     		.2byte	0x1
 11718 06a6 52       		.byte	0x52
 11719 06a7 0A000000 		.4byte	.LVL118
 11720 06ab 00010000 		.4byte	.LFE67
 11721 06af 0400     		.2byte	0x4
 11722 06b1 F3       		.byte	0xf3
 11723 06b2 01       		.uleb128 0x1
 11724 06b3 52       		.byte	0x52
 11725 06b4 9F       		.byte	0x9f
 11726 06b5 00000000 		.4byte	0
 11727 06b9 00000000 		.4byte	0
 11728              	.LLST28:
 11729 06bd 7A000000 		.4byte	.LVL138
 11730 06c1 98000000 		.4byte	.LVL142
 11731 06c5 1800     		.2byte	0x18
 11732 06c7 70       		.byte	0x70
 11733 06c8 00       		.sleb128 0
 11734 06c9 48       		.byte	0x48
 11735 06ca 25       		.byte	0x25
 11736 06cb 9F       		.byte	0x9f
 11737 06cc 93       		.byte	0x93
 11738 06cd 01       		.uleb128 0x1
 11739 06ce 70       		.byte	0x70
 11740 06cf 00       		.sleb128 0
 11741 06d0 40       		.byte	0x40
 11742 06d1 25       		.byte	0x25
 11743 06d2 9F       		.byte	0x9f
 11744 06d3 93       		.byte	0x93
 11745 06d4 01       		.uleb128 0x1
 11746 06d5 70       		.byte	0x70
 11747 06d6 00       		.sleb128 0
ARM GAS  C:\Users\Administrator\AppData\Local\Temp\ccexfbaX.s 			page 254


 11748 06d7 38       		.byte	0x38
 11749 06d8 25       		.byte	0x25
 11750 06d9 9F       		.byte	0x9f
 11751 06da 93       		.byte	0x93
 11752 06db 01       		.uleb128 0x1
 11753 06dc 50       		.byte	0x50
 11754 06dd 93       		.byte	0x93
 11755 06de 01       		.uleb128 0x1
 11756 06df 98000000 		.4byte	.LVL142
 11757 06e3 9B000000 		.4byte	.LVL143-1
 11758 06e7 0900     		.2byte	0x9
 11759 06e9 93       		.byte	0x93
 11760 06ea 03       		.uleb128 0x3
 11761 06eb 70       		.byte	0x70
 11762 06ec 00       		.sleb128 0
 11763 06ed 73       		.byte	0x73
 11764 06ee 00       		.sleb128 0
 11765 06ef 22       		.byte	0x22
 11766 06f0 93       		.byte	0x93
 11767 06f1 01       		.uleb128 0x1
 11768 06f2 00000000 		.4byte	0
 11769 06f6 00000000 		.4byte	0
 11770              	.LLST29:
 11771 06fa 7A000000 		.4byte	.LVL138
 11772 06fe 98000000 		.4byte	.LVL142
 11773 0702 0100     		.2byte	0x1
 11774 0704 50       		.byte	0x50
 11775 0705 00000000 		.4byte	0
 11776 0709 00000000 		.4byte	0
 11777              	.LLST30:
 11778 070d 00000000 		.4byte	.LVL117
 11779 0711 9C000000 		.4byte	.LVL143
 11780 0715 0200     		.2byte	0x2
 11781 0717 30       		.byte	0x30
 11782 0718 9F       		.byte	0x9f
 11783 0719 9C000000 		.4byte	.LVL143
 11784 071d AD000000 		.4byte	.LVL145-1
 11785 0721 0100     		.2byte	0x1
 11786 0723 50       		.byte	0x50
 11787 0724 00000000 		.4byte	0
 11788 0728 00000000 		.4byte	0
 11789              	.LLST31:
 11790 072c 20000000 		.4byte	.LVL120
 11791 0730 22000000 		.4byte	.LVL121
 11792 0734 0200     		.2byte	0x2
 11793 0736 35       		.byte	0x35
 11794 0737 9F       		.byte	0x9f
 11795 0738 22000000 		.4byte	.LVL121
 11796 073c 24000000 		.4byte	.LVL122
 11797 0740 0200     		.2byte	0x2
 11798 0742 36       		.byte	0x36
 11799 0743 9F       		.byte	0x9f
 11800 0744 24000000 		.4byte	.LVL122
 11801 0748 2A000000 		.4byte	.LVL124
 11802 074c 0200     		.2byte	0x2
 11803 074e 37       		.byte	0x37
 11804 074f 9F       		.byte	0x9f
ARM GAS  C:\Users\Administrator\AppData\Local\Temp\ccexfbaX.s 			page 255


 11805 0750 2A000000 		.4byte	.LVL124
 11806 0754 32000000 		.4byte	.LVL125
 11807 0758 0300     		.2byte	0x3
 11808 075a 73       		.byte	0x73
 11809 075b 08       		.sleb128 8
 11810 075c 9F       		.byte	0x9f
 11811 075d 42000000 		.4byte	.LVL127
 11812 0761 48000000 		.4byte	.LVL128
 11813 0765 0300     		.2byte	0x3
 11814 0767 73       		.byte	0x73
 11815 0768 0D       		.sleb128 13
 11816 0769 9F       		.byte	0x9f
 11817 076a 48000000 		.4byte	.LVL128
 11818 076e 52000000 		.4byte	.LVL130
 11819 0772 0300     		.2byte	0x3
 11820 0774 73       		.byte	0x73
 11821 0775 0E       		.sleb128 14
 11822 0776 9F       		.byte	0x9f
 11823 0777 54000000 		.4byte	.LVL131
 11824 077b 5E000000 		.4byte	.LVL134
 11825 077f 0300     		.2byte	0x3
 11826 0781 74       		.byte	0x74
 11827 0782 0E       		.sleb128 14
 11828 0783 9F       		.byte	0x9f
 11829 0784 5E000000 		.4byte	.LVL134
 11830 0788 64000000 		.4byte	.LVL135
 11831 078c 0300     		.2byte	0x3
 11832 078e 74       		.byte	0x74
 11833 078f 0F       		.sleb128 15
 11834 0790 9F       		.byte	0x9f
 11835 0791 64000000 		.4byte	.LVL135
 11836 0795 6A000000 		.4byte	.LVL136
 11837 0799 0300     		.2byte	0x3
 11838 079b 74       		.byte	0x74
 11839 079c 10       		.sleb128 16
 11840 079d 9F       		.byte	0x9f
 11841 079e 6A000000 		.4byte	.LVL136
 11842 07a2 70000000 		.4byte	.LVL137
 11843 07a6 0300     		.2byte	0x3
 11844 07a8 74       		.byte	0x74
 11845 07a9 11       		.sleb128 17
 11846 07aa 9F       		.byte	0x9f
 11847 07ab 70000000 		.4byte	.LVL137
 11848 07af 7A000000 		.4byte	.LVL138
 11849 07b3 0300     		.2byte	0x3
 11850 07b5 74       		.byte	0x74
 11851 07b6 12       		.sleb128 18
 11852 07b7 9F       		.byte	0x9f
 11853 07b8 7A000000 		.4byte	.LVL138
 11854 07bc 84000000 		.4byte	.LVL139
 11855 07c0 0300     		.2byte	0x3
 11856 07c2 74       		.byte	0x74
 11857 07c3 13       		.sleb128 19
 11858 07c4 9F       		.byte	0x9f
 11859 07c5 84000000 		.4byte	.LVL139
 11860 07c9 8A000000 		.4byte	.LVL140
 11861 07cd 0300     		.2byte	0x3
ARM GAS  C:\Users\Administrator\AppData\Local\Temp\ccexfbaX.s 			page 256


 11862 07cf 74       		.byte	0x74
 11863 07d0 14       		.sleb128 20
 11864 07d1 9F       		.byte	0x9f
 11865 07d2 8A000000 		.4byte	.LVL140
 11866 07d6 90000000 		.4byte	.LVL141
 11867 07da 0300     		.2byte	0x3
 11868 07dc 74       		.byte	0x74
 11869 07dd 15       		.sleb128 21
 11870 07de 9F       		.byte	0x9f
 11871 07df 90000000 		.4byte	.LVL141
 11872 07e3 9C000000 		.4byte	.LVL143
 11873 07e7 0300     		.2byte	0x3
 11874 07e9 74       		.byte	0x74
 11875 07ea 16       		.sleb128 22
 11876 07eb 9F       		.byte	0x9f
 11877 07ec 9C000000 		.4byte	.LVL143
 11878 07f0 A6000000 		.4byte	.LVL144
 11879 07f4 0300     		.2byte	0x3
 11880 07f6 74       		.byte	0x74
 11881 07f7 17       		.sleb128 23
 11882 07f8 9F       		.byte	0x9f
 11883 07f9 00000000 		.4byte	0
 11884 07fd 00000000 		.4byte	0
 11885              	.LLST32:
 11886 0801 00000000 		.4byte	.LVL117
 11887 0805 2A000000 		.4byte	.LVL124
 11888 0809 0200     		.2byte	0x2
 11889 080b 30       		.byte	0x30
 11890 080c 9F       		.byte	0x9f
 11891 080d 2A000000 		.4byte	.LVL124
 11892 0811 32000000 		.4byte	.LVL125
 11893 0815 0100     		.2byte	0x1
 11894 0817 53       		.byte	0x53
 11895 0818 3E000000 		.4byte	.LVL126
 11896 081c 42000000 		.4byte	.LVL127
 11897 0820 0200     		.2byte	0x2
 11898 0822 30       		.byte	0x30
 11899 0823 9F       		.byte	0x9f
 11900 0824 42000000 		.4byte	.LVL127
 11901 0828 50000000 		.4byte	.LVL129
 11902 082c 0100     		.2byte	0x1
 11903 082e 53       		.byte	0x53
 11904 082f 50000000 		.4byte	.LVL129
 11905 0833 52000000 		.4byte	.LVL130
 11906 0837 0300     		.2byte	0x3
 11907 0839 73       		.byte	0x73
 11908 083a 01       		.sleb128 1
 11909 083b 9F       		.byte	0x9f
 11910 083c 54000000 		.4byte	.LVL131
 11911 0840 56000000 		.4byte	.LVL132
 11912 0844 0100     		.2byte	0x1
 11913 0846 53       		.byte	0x53
 11914 0847 56000000 		.4byte	.LVL132
 11915 084b 58000000 		.4byte	.LVL133
 11916 084f 0100     		.2byte	0x1
 11917 0851 52       		.byte	0x52
 11918 0852 00000000 		.4byte	0
ARM GAS  C:\Users\Administrator\AppData\Local\Temp\ccexfbaX.s 			page 257


 11919 0856 00000000 		.4byte	0
 11920              	.LLST33:
 11921 085a 20000000 		.4byte	.LVL120
 11922 085e 26000000 		.4byte	.LVL123
 11923 0862 0100     		.2byte	0x1
 11924 0864 50       		.byte	0x50
 11925 0865 26000000 		.4byte	.LVL123
 11926 0869 EA000000 		.4byte	.LVL147
 11927 086d 0100     		.2byte	0x1
 11928 086f 55       		.byte	0x55
 11929 0870 EA000000 		.4byte	.LVL147
 11930 0874 00010000 		.4byte	.LFE67
 11931 0878 0400     		.2byte	0x4
 11932 087a F3       		.byte	0xf3
 11933 087b 01       		.uleb128 0x1
 11934 087c 50       		.byte	0x50
 11935 087d 9F       		.byte	0x9f
 11936 087e 00000000 		.4byte	0
 11937 0882 00000000 		.4byte	0
 11938              	.LLST34:
 11939 0886 00000000 		.4byte	.LVL148
 11940 088a 39000000 		.4byte	.LVL158-1
 11941 088e 0100     		.2byte	0x1
 11942 0890 50       		.byte	0x50
 11943 0891 39000000 		.4byte	.LVL158-1
 11944 0895 78000000 		.4byte	.LFE68
 11945 0899 0400     		.2byte	0x4
 11946 089b F3       		.byte	0xf3
 11947 089c 01       		.uleb128 0x1
 11948 089d 50       		.byte	0x50
 11949 089e 9F       		.byte	0x9f
 11950 089f 00000000 		.4byte	0
 11951 08a3 00000000 		.4byte	0
 11952              	.LLST35:
 11953 08a7 3A000000 		.4byte	.LVL158
 11954 08ab 4C000000 		.4byte	.LVL161
 11955 08af 1800     		.2byte	0x18
 11956 08b1 70       		.byte	0x70
 11957 08b2 00       		.sleb128 0
 11958 08b3 48       		.byte	0x48
 11959 08b4 25       		.byte	0x25
 11960 08b5 9F       		.byte	0x9f
 11961 08b6 93       		.byte	0x93
 11962 08b7 01       		.uleb128 0x1
 11963 08b8 70       		.byte	0x70
 11964 08b9 00       		.sleb128 0
 11965 08ba 40       		.byte	0x40
 11966 08bb 25       		.byte	0x25
 11967 08bc 9F       		.byte	0x9f
 11968 08bd 93       		.byte	0x93
 11969 08be 01       		.uleb128 0x1
 11970 08bf 70       		.byte	0x70
 11971 08c0 00       		.sleb128 0
 11972 08c1 38       		.byte	0x38
 11973 08c2 25       		.byte	0x25
 11974 08c3 9F       		.byte	0x9f
 11975 08c4 93       		.byte	0x93
ARM GAS  C:\Users\Administrator\AppData\Local\Temp\ccexfbaX.s 			page 258


 11976 08c5 01       		.uleb128 0x1
 11977 08c6 50       		.byte	0x50
 11978 08c7 93       		.byte	0x93
 11979 08c8 01       		.uleb128 0x1
 11980 08c9 4C000000 		.4byte	.LVL161
 11981 08cd 51000000 		.4byte	.LVL163-1
 11982 08d1 0600     		.2byte	0x6
 11983 08d3 93       		.byte	0x93
 11984 08d4 03       		.uleb128 0x3
 11985 08d5 70       		.byte	0x70
 11986 08d6 11       		.sleb128 17
 11987 08d7 93       		.byte	0x93
 11988 08d8 01       		.uleb128 0x1
 11989 08d9 00000000 		.4byte	0
 11990 08dd 00000000 		.4byte	0
 11991              	.LLST36:
 11992 08e1 3A000000 		.4byte	.LVL158
 11993 08e5 4C000000 		.4byte	.LVL161
 11994 08e9 0100     		.2byte	0x1
 11995 08eb 50       		.byte	0x50
 11996 08ec 00000000 		.4byte	0
 11997 08f0 00000000 		.4byte	0
 11998              	.LLST37:
 11999 08f4 00000000 		.4byte	.LVL148
 12000 08f8 52000000 		.4byte	.LVL163
 12001 08fc 0200     		.2byte	0x2
 12002 08fe 30       		.byte	0x30
 12003 08ff 9F       		.byte	0x9f
 12004 0900 52000000 		.4byte	.LVL163
 12005 0904 68000000 		.4byte	.LVL165
 12006 0908 0100     		.2byte	0x1
 12007 090a 50       		.byte	0x50
 12008 090b 00000000 		.4byte	0
 12009 090f 00000000 		.4byte	0
 12010              	.LLST38:
 12011 0913 00000000 		.4byte	.LVL148
 12012 0917 0A000000 		.4byte	.LVL149
 12013 091b 0200     		.2byte	0x2
 12014 091d 31       		.byte	0x31
 12015 091e 9F       		.byte	0x9f
 12016 091f 0A000000 		.4byte	.LVL149
 12017 0923 0E000000 		.4byte	.LVL150
 12018 0927 0200     		.2byte	0x2
 12019 0929 32       		.byte	0x32
 12020 092a 9F       		.byte	0x9f
 12021 092b 0E000000 		.4byte	.LVL150
 12022 092f 14000000 		.4byte	.LVL151
 12023 0933 0200     		.2byte	0x2
 12024 0935 33       		.byte	0x33
 12025 0936 9F       		.byte	0x9f
 12026 0937 14000000 		.4byte	.LVL151
 12027 093b 18000000 		.4byte	.LVL152
 12028 093f 0200     		.2byte	0x2
 12029 0941 34       		.byte	0x34
 12030 0942 9F       		.byte	0x9f
 12031 0943 18000000 		.4byte	.LVL152
 12032 0947 1C000000 		.4byte	.LVL153
ARM GAS  C:\Users\Administrator\AppData\Local\Temp\ccexfbaX.s 			page 259


 12033 094b 0200     		.2byte	0x2
 12034 094d 35       		.byte	0x35
 12035 094e 9F       		.byte	0x9f
 12036 094f 1C000000 		.4byte	.LVL153
 12037 0953 1E000000 		.4byte	.LVL154
 12038 0957 0200     		.2byte	0x2
 12039 0959 36       		.byte	0x36
 12040 095a 9F       		.byte	0x9f
 12041 095b 1E000000 		.4byte	.LVL154
 12042 095f 24000000 		.4byte	.LVL155
 12043 0963 0200     		.2byte	0x2
 12044 0965 37       		.byte	0x37
 12045 0966 9F       		.byte	0x9f
 12046 0967 24000000 		.4byte	.LVL155
 12047 096b 2C000000 		.4byte	.LVL156
 12048 096f 0300     		.2byte	0x3
 12049 0971 73       		.byte	0x73
 12050 0972 08       		.sleb128 8
 12051 0973 9F       		.byte	0x9f
 12052 0974 32000000 		.4byte	.LVL157
 12053 0978 3A000000 		.4byte	.LVL158
 12054 097c 0200     		.2byte	0x2
 12055 097e 3E       		.byte	0x3e
 12056 097f 9F       		.byte	0x9f
 12057 0980 3A000000 		.4byte	.LVL158
 12058 0984 40000000 		.4byte	.LVL159
 12059 0988 0200     		.2byte	0x2
 12060 098a 3F       		.byte	0x3f
 12061 098b 9F       		.byte	0x9f
 12062 098c 40000000 		.4byte	.LVL159
 12063 0990 44000000 		.4byte	.LVL160
 12064 0994 0200     		.2byte	0x2
 12065 0996 40       		.byte	0x40
 12066 0997 9F       		.byte	0x9f
 12067 0998 44000000 		.4byte	.LVL160
 12068 099c 4E000000 		.4byte	.LVL162
 12069 09a0 0200     		.2byte	0x2
 12070 09a2 41       		.byte	0x41
 12071 09a3 9F       		.byte	0x9f
 12072 09a4 4E000000 		.4byte	.LVL162
 12073 09a8 52000000 		.4byte	.LVL163
 12074 09ac 0200     		.2byte	0x2
 12075 09ae 42       		.byte	0x42
 12076 09af 9F       		.byte	0x9f
 12077 09b0 52000000 		.4byte	.LVL163
 12078 09b4 58000000 		.4byte	.LVL164
 12079 09b8 0200     		.2byte	0x2
 12080 09ba 43       		.byte	0x43
 12081 09bb 9F       		.byte	0x9f
 12082 09bc 58000000 		.4byte	.LVL164
 12083 09c0 78000000 		.4byte	.LFE68
 12084 09c4 0200     		.2byte	0x2
 12085 09c6 44       		.byte	0x44
 12086 09c7 9F       		.byte	0x9f
 12087 09c8 00000000 		.4byte	0
 12088 09cc 00000000 		.4byte	0
 12089              	.LLST39:
ARM GAS  C:\Users\Administrator\AppData\Local\Temp\ccexfbaX.s 			page 260


 12090 09d0 00000000 		.4byte	.LVL148
 12091 09d4 24000000 		.4byte	.LVL155
 12092 09d8 0200     		.2byte	0x2
 12093 09da 30       		.byte	0x30
 12094 09db 9F       		.byte	0x9f
 12095 09dc 24000000 		.4byte	.LVL155
 12096 09e0 2C000000 		.4byte	.LVL156
 12097 09e4 0100     		.2byte	0x1
 12098 09e6 53       		.byte	0x53
 12099 09e7 00000000 		.4byte	0
 12100 09eb 00000000 		.4byte	0
 12101              	.LLST40:
 12102 09ef 00000000 		.4byte	.LVL167
 12103 09f3 46000000 		.4byte	.LVL180
 12104 09f7 0200     		.2byte	0x2
 12105 09f9 30       		.byte	0x30
 12106 09fa 9F       		.byte	0x9f
 12107 09fb 46000000 		.4byte	.LVL180
 12108 09ff 51000000 		.4byte	.LVL182-1
 12109 0a03 0100     		.2byte	0x1
 12110 0a05 50       		.byte	0x50
 12111 0a06 00000000 		.4byte	0
 12112 0a0a 00000000 		.4byte	0
 12113              	.LLST41:
 12114 0a0e 00000000 		.4byte	.LVL167
 12115 0a12 0A000000 		.4byte	.LVL168
 12116 0a16 0200     		.2byte	0x2
 12117 0a18 31       		.byte	0x31
 12118 0a19 9F       		.byte	0x9f
 12119 0a1a 0A000000 		.4byte	.LVL168
 12120 0a1e 0E000000 		.4byte	.LVL169
 12121 0a22 0200     		.2byte	0x2
 12122 0a24 32       		.byte	0x32
 12123 0a25 9F       		.byte	0x9f
 12124 0a26 0E000000 		.4byte	.LVL169
 12125 0a2a 14000000 		.4byte	.LVL170
 12126 0a2e 0200     		.2byte	0x2
 12127 0a30 33       		.byte	0x33
 12128 0a31 9F       		.byte	0x9f
 12129 0a32 14000000 		.4byte	.LVL170
 12130 0a36 18000000 		.4byte	.LVL171
 12131 0a3a 0200     		.2byte	0x2
 12132 0a3c 34       		.byte	0x34
 12133 0a3d 9F       		.byte	0x9f
 12134 0a3e 18000000 		.4byte	.LVL171
 12135 0a42 1C000000 		.4byte	.LVL172
 12136 0a46 0200     		.2byte	0x2
 12137 0a48 35       		.byte	0x35
 12138 0a49 9F       		.byte	0x9f
 12139 0a4a 1C000000 		.4byte	.LVL172
 12140 0a4e 1E000000 		.4byte	.LVL173
 12141 0a52 0200     		.2byte	0x2
 12142 0a54 36       		.byte	0x36
 12143 0a55 9F       		.byte	0x9f
 12144 0a56 1E000000 		.4byte	.LVL173
 12145 0a5a 24000000 		.4byte	.LVL174
 12146 0a5e 0200     		.2byte	0x2
ARM GAS  C:\Users\Administrator\AppData\Local\Temp\ccexfbaX.s 			page 261


 12147 0a60 37       		.byte	0x37
 12148 0a61 9F       		.byte	0x9f
 12149 0a62 24000000 		.4byte	.LVL174
 12150 0a66 2C000000 		.4byte	.LVL175
 12151 0a6a 0300     		.2byte	0x3
 12152 0a6c 73       		.byte	0x73
 12153 0a6d 08       		.sleb128 8
 12154 0a6e 9F       		.byte	0x9f
 12155 0a6f 32000000 		.4byte	.LVL176
 12156 0a73 3C000000 		.4byte	.LVL177
 12157 0a77 0200     		.2byte	0x2
 12158 0a79 3E       		.byte	0x3e
 12159 0a7a 9F       		.byte	0x9f
 12160 0a7b 3C000000 		.4byte	.LVL177
 12161 0a7f 3E000000 		.4byte	.LVL178
 12162 0a83 0200     		.2byte	0x2
 12163 0a85 3F       		.byte	0x3f
 12164 0a86 9F       		.byte	0x9f
 12165 0a87 3E000000 		.4byte	.LVL178
 12166 0a8b 40000000 		.4byte	.LVL179
 12167 0a8f 0200     		.2byte	0x2
 12168 0a91 40       		.byte	0x40
 12169 0a92 9F       		.byte	0x9f
 12170 0a93 40000000 		.4byte	.LVL179
 12171 0a97 46000000 		.4byte	.LVL180
 12172 0a9b 0200     		.2byte	0x2
 12173 0a9d 41       		.byte	0x41
 12174 0a9e 9F       		.byte	0x9f
 12175 0a9f 46000000 		.4byte	.LVL180
 12176 0aa3 4C000000 		.4byte	.LVL181
 12177 0aa7 0200     		.2byte	0x2
 12178 0aa9 42       		.byte	0x42
 12179 0aaa 9F       		.byte	0x9f
 12180 0aab 4C000000 		.4byte	.LVL181
 12181 0aaf 8C000000 		.4byte	.LFE69
 12182 0ab3 0200     		.2byte	0x2
 12183 0ab5 43       		.byte	0x43
 12184 0ab6 9F       		.byte	0x9f
 12185 0ab7 00000000 		.4byte	0
 12186 0abb 00000000 		.4byte	0
 12187              	.LLST42:
 12188 0abf 00000000 		.4byte	.LVL167
 12189 0ac3 24000000 		.4byte	.LVL174
 12190 0ac7 0200     		.2byte	0x2
 12191 0ac9 30       		.byte	0x30
 12192 0aca 9F       		.byte	0x9f
 12193 0acb 24000000 		.4byte	.LVL174
 12194 0acf 2C000000 		.4byte	.LVL175
 12195 0ad3 0100     		.2byte	0x1
 12196 0ad5 53       		.byte	0x53
 12197 0ad6 00000000 		.4byte	0
 12198 0ada 00000000 		.4byte	0
 12199              	.LLST43:
 12200 0ade 00000000 		.4byte	.LVL184
 12201 0ae2 39000000 		.4byte	.LVL194-1
 12202 0ae6 0100     		.2byte	0x1
 12203 0ae8 50       		.byte	0x50
ARM GAS  C:\Users\Administrator\AppData\Local\Temp\ccexfbaX.s 			page 262


 12204 0ae9 39000000 		.4byte	.LVL194-1
 12205 0aed 98000000 		.4byte	.LFE70
 12206 0af1 0400     		.2byte	0x4
 12207 0af3 F3       		.byte	0xf3
 12208 0af4 01       		.uleb128 0x1
 12209 0af5 50       		.byte	0x50
 12210 0af6 9F       		.byte	0x9f
 12211 0af7 00000000 		.4byte	0
 12212 0afb 00000000 		.4byte	0
 12213              	.LLST44:
 12214 0aff 3A000000 		.4byte	.LVL194
 12215 0b03 4C000000 		.4byte	.LVL197
 12216 0b07 1800     		.2byte	0x18
 12217 0b09 70       		.byte	0x70
 12218 0b0a 00       		.sleb128 0
 12219 0b0b 48       		.byte	0x48
 12220 0b0c 25       		.byte	0x25
 12221 0b0d 9F       		.byte	0x9f
 12222 0b0e 93       		.byte	0x93
 12223 0b0f 01       		.uleb128 0x1
 12224 0b10 70       		.byte	0x70
 12225 0b11 00       		.sleb128 0
 12226 0b12 40       		.byte	0x40
 12227 0b13 25       		.byte	0x25
 12228 0b14 9F       		.byte	0x9f
 12229 0b15 93       		.byte	0x93
 12230 0b16 01       		.uleb128 0x1
 12231 0b17 70       		.byte	0x70
 12232 0b18 00       		.sleb128 0
 12233 0b19 38       		.byte	0x38
 12234 0b1a 25       		.byte	0x25
 12235 0b1b 9F       		.byte	0x9f
 12236 0b1c 93       		.byte	0x93
 12237 0b1d 01       		.uleb128 0x1
 12238 0b1e 50       		.byte	0x50
 12239 0b1f 93       		.byte	0x93
 12240 0b20 01       		.uleb128 0x1
 12241 0b21 4C000000 		.4byte	.LVL197
 12242 0b25 51000000 		.4byte	.LVL199-1
 12243 0b29 0600     		.2byte	0x6
 12244 0b2b 93       		.byte	0x93
 12245 0b2c 03       		.uleb128 0x3
 12246 0b2d 70       		.byte	0x70
 12247 0b2e 11       		.sleb128 17
 12248 0b2f 93       		.byte	0x93
 12249 0b30 01       		.uleb128 0x1
 12250 0b31 00000000 		.4byte	0
 12251 0b35 00000000 		.4byte	0
 12252              	.LLST45:
 12253 0b39 3A000000 		.4byte	.LVL194
 12254 0b3d 4C000000 		.4byte	.LVL197
 12255 0b41 0100     		.2byte	0x1
 12256 0b43 50       		.byte	0x50
 12257 0b44 00000000 		.4byte	0
 12258 0b48 00000000 		.4byte	0
 12259              	.LLST46:
 12260 0b4c 00000000 		.4byte	.LVL184
ARM GAS  C:\Users\Administrator\AppData\Local\Temp\ccexfbaX.s 			page 263


 12261 0b50 52000000 		.4byte	.LVL199
 12262 0b54 0200     		.2byte	0x2
 12263 0b56 30       		.byte	0x30
 12264 0b57 9F       		.byte	0x9f
 12265 0b58 52000000 		.4byte	.LVL199
 12266 0b5c 5D000000 		.4byte	.LVL201-1
 12267 0b60 0100     		.2byte	0x1
 12268 0b62 50       		.byte	0x50
 12269 0b63 00000000 		.4byte	0
 12270 0b67 00000000 		.4byte	0
 12271              	.LLST47:
 12272 0b6b 00000000 		.4byte	.LVL184
 12273 0b6f 0A000000 		.4byte	.LVL185
 12274 0b73 0200     		.2byte	0x2
 12275 0b75 31       		.byte	0x31
 12276 0b76 9F       		.byte	0x9f
 12277 0b77 0A000000 		.4byte	.LVL185
 12278 0b7b 0E000000 		.4byte	.LVL186
 12279 0b7f 0200     		.2byte	0x2
 12280 0b81 32       		.byte	0x32
 12281 0b82 9F       		.byte	0x9f
 12282 0b83 0E000000 		.4byte	.LVL186
 12283 0b87 14000000 		.4byte	.LVL187
 12284 0b8b 0200     		.2byte	0x2
 12285 0b8d 33       		.byte	0x33
 12286 0b8e 9F       		.byte	0x9f
 12287 0b8f 14000000 		.4byte	.LVL187
 12288 0b93 18000000 		.4byte	.LVL188
 12289 0b97 0200     		.2byte	0x2
 12290 0b99 34       		.byte	0x34
 12291 0b9a 9F       		.byte	0x9f
 12292 0b9b 18000000 		.4byte	.LVL188
 12293 0b9f 1C000000 		.4byte	.LVL189
 12294 0ba3 0200     		.2byte	0x2
 12295 0ba5 35       		.byte	0x35
 12296 0ba6 9F       		.byte	0x9f
 12297 0ba7 1C000000 		.4byte	.LVL189
 12298 0bab 1E000000 		.4byte	.LVL190
 12299 0baf 0200     		.2byte	0x2
 12300 0bb1 36       		.byte	0x36
 12301 0bb2 9F       		.byte	0x9f
 12302 0bb3 1E000000 		.4byte	.LVL190
 12303 0bb7 24000000 		.4byte	.LVL191
 12304 0bbb 0200     		.2byte	0x2
 12305 0bbd 37       		.byte	0x37
 12306 0bbe 9F       		.byte	0x9f
 12307 0bbf 24000000 		.4byte	.LVL191
 12308 0bc3 2C000000 		.4byte	.LVL192
 12309 0bc7 0300     		.2byte	0x3
 12310 0bc9 73       		.byte	0x73
 12311 0bca 08       		.sleb128 8
 12312 0bcb 9F       		.byte	0x9f
 12313 0bcc 32000000 		.4byte	.LVL193
 12314 0bd0 3A000000 		.4byte	.LVL194
 12315 0bd4 0200     		.2byte	0x2
 12316 0bd6 3E       		.byte	0x3e
 12317 0bd7 9F       		.byte	0x9f
ARM GAS  C:\Users\Administrator\AppData\Local\Temp\ccexfbaX.s 			page 264


 12318 0bd8 3A000000 		.4byte	.LVL194
 12319 0bdc 40000000 		.4byte	.LVL195
 12320 0be0 0200     		.2byte	0x2
 12321 0be2 3F       		.byte	0x3f
 12322 0be3 9F       		.byte	0x9f
 12323 0be4 40000000 		.4byte	.LVL195
 12324 0be8 44000000 		.4byte	.LVL196
 12325 0bec 0200     		.2byte	0x2
 12326 0bee 40       		.byte	0x40
 12327 0bef 9F       		.byte	0x9f
 12328 0bf0 44000000 		.4byte	.LVL196
 12329 0bf4 4E000000 		.4byte	.LVL198
 12330 0bf8 0200     		.2byte	0x2
 12331 0bfa 41       		.byte	0x41
 12332 0bfb 9F       		.byte	0x9f
 12333 0bfc 4E000000 		.4byte	.LVL198
 12334 0c00 52000000 		.4byte	.LVL199
 12335 0c04 0200     		.2byte	0x2
 12336 0c06 42       		.byte	0x42
 12337 0c07 9F       		.byte	0x9f
 12338 0c08 52000000 		.4byte	.LVL199
 12339 0c0c 58000000 		.4byte	.LVL200
 12340 0c10 0200     		.2byte	0x2
 12341 0c12 43       		.byte	0x43
 12342 0c13 9F       		.byte	0x9f
 12343 0c14 58000000 		.4byte	.LVL200
 12344 0c18 98000000 		.4byte	.LFE70
 12345 0c1c 0200     		.2byte	0x2
 12346 0c1e 44       		.byte	0x44
 12347 0c1f 9F       		.byte	0x9f
 12348 0c20 00000000 		.4byte	0
 12349 0c24 00000000 		.4byte	0
 12350              	.LLST48:
 12351 0c28 00000000 		.4byte	.LVL184
 12352 0c2c 24000000 		.4byte	.LVL191
 12353 0c30 0200     		.2byte	0x2
 12354 0c32 30       		.byte	0x30
 12355 0c33 9F       		.byte	0x9f
 12356 0c34 24000000 		.4byte	.LVL191
 12357 0c38 2C000000 		.4byte	.LVL192
 12358 0c3c 0100     		.2byte	0x1
 12359 0c3e 53       		.byte	0x53
 12360 0c3f 00000000 		.4byte	0
 12361 0c43 00000000 		.4byte	0
 12362              	.LLST49:
 12363 0c47 00000000 		.4byte	.LVL203
 12364 0c4b 49000000 		.4byte	.LVL216-1
 12365 0c4f 0100     		.2byte	0x1
 12366 0c51 50       		.byte	0x50
 12367 0c52 49000000 		.4byte	.LVL216-1
 12368 0c56 8C000000 		.4byte	.LFE71
 12369 0c5a 0400     		.2byte	0x4
 12370 0c5c F3       		.byte	0xf3
 12371 0c5d 01       		.uleb128 0x1
 12372 0c5e 50       		.byte	0x50
 12373 0c5f 9F       		.byte	0x9f
 12374 0c60 00000000 		.4byte	0
ARM GAS  C:\Users\Administrator\AppData\Local\Temp\ccexfbaX.s 			page 265


 12375 0c64 00000000 		.4byte	0
 12376              	.LLST50:
 12377 0c68 4A000000 		.4byte	.LVL216
 12378 0c6c 5C000000 		.4byte	.LVL219
 12379 0c70 1800     		.2byte	0x18
 12380 0c72 70       		.byte	0x70
 12381 0c73 00       		.sleb128 0
 12382 0c74 48       		.byte	0x48
 12383 0c75 25       		.byte	0x25
 12384 0c76 9F       		.byte	0x9f
 12385 0c77 93       		.byte	0x93
 12386 0c78 01       		.uleb128 0x1
 12387 0c79 70       		.byte	0x70
 12388 0c7a 00       		.sleb128 0
 12389 0c7b 40       		.byte	0x40
 12390 0c7c 25       		.byte	0x25
 12391 0c7d 9F       		.byte	0x9f
 12392 0c7e 93       		.byte	0x93
 12393 0c7f 01       		.uleb128 0x1
 12394 0c80 70       		.byte	0x70
 12395 0c81 00       		.sleb128 0
 12396 0c82 38       		.byte	0x38
 12397 0c83 25       		.byte	0x25
 12398 0c84 9F       		.byte	0x9f
 12399 0c85 93       		.byte	0x93
 12400 0c86 01       		.uleb128 0x1
 12401 0c87 50       		.byte	0x50
 12402 0c88 93       		.byte	0x93
 12403 0c89 01       		.uleb128 0x1
 12404 0c8a 5C000000 		.4byte	.LVL219
 12405 0c8e 61000000 		.4byte	.LVL221-1
 12406 0c92 0600     		.2byte	0x6
 12407 0c94 93       		.byte	0x93
 12408 0c95 03       		.uleb128 0x3
 12409 0c96 70       		.byte	0x70
 12410 0c97 14       		.sleb128 20
 12411 0c98 93       		.byte	0x93
 12412 0c99 01       		.uleb128 0x1
 12413 0c9a 00000000 		.4byte	0
 12414 0c9e 00000000 		.4byte	0
 12415              	.LLST51:
 12416 0ca2 4A000000 		.4byte	.LVL216
 12417 0ca6 5C000000 		.4byte	.LVL219
 12418 0caa 0100     		.2byte	0x1
 12419 0cac 50       		.byte	0x50
 12420 0cad 00000000 		.4byte	0
 12421 0cb1 00000000 		.4byte	0
 12422              	.LLST52:
 12423 0cb5 00000000 		.4byte	.LVL203
 12424 0cb9 62000000 		.4byte	.LVL221
 12425 0cbd 0200     		.2byte	0x2
 12426 0cbf 30       		.byte	0x30
 12427 0cc0 9F       		.byte	0x9f
 12428 0cc1 62000000 		.4byte	.LVL221
 12429 0cc5 78000000 		.4byte	.LVL223
 12430 0cc9 0100     		.2byte	0x1
 12431 0ccb 50       		.byte	0x50
ARM GAS  C:\Users\Administrator\AppData\Local\Temp\ccexfbaX.s 			page 266


 12432 0ccc 00000000 		.4byte	0
 12433 0cd0 00000000 		.4byte	0
 12434              	.LLST53:
 12435 0cd4 00000000 		.4byte	.LVL203
 12436 0cd8 0A000000 		.4byte	.LVL204
 12437 0cdc 0200     		.2byte	0x2
 12438 0cde 31       		.byte	0x31
 12439 0cdf 9F       		.byte	0x9f
 12440 0ce0 0A000000 		.4byte	.LVL204
 12441 0ce4 0E000000 		.4byte	.LVL205
 12442 0ce8 0200     		.2byte	0x2
 12443 0cea 32       		.byte	0x32
 12444 0ceb 9F       		.byte	0x9f
 12445 0cec 0E000000 		.4byte	.LVL205
 12446 0cf0 14000000 		.4byte	.LVL206
 12447 0cf4 0200     		.2byte	0x2
 12448 0cf6 33       		.byte	0x33
 12449 0cf7 9F       		.byte	0x9f
 12450 0cf8 14000000 		.4byte	.LVL206
 12451 0cfc 18000000 		.4byte	.LVL207
 12452 0d00 0200     		.2byte	0x2
 12453 0d02 34       		.byte	0x34
 12454 0d03 9F       		.byte	0x9f
 12455 0d04 18000000 		.4byte	.LVL207
 12456 0d08 1C000000 		.4byte	.LVL208
 12457 0d0c 0200     		.2byte	0x2
 12458 0d0e 35       		.byte	0x35
 12459 0d0f 9F       		.byte	0x9f
 12460 0d10 1C000000 		.4byte	.LVL208
 12461 0d14 1E000000 		.4byte	.LVL209
 12462 0d18 0200     		.2byte	0x2
 12463 0d1a 36       		.byte	0x36
 12464 0d1b 9F       		.byte	0x9f
 12465 0d1c 1E000000 		.4byte	.LVL209
 12466 0d20 24000000 		.4byte	.LVL210
 12467 0d24 0200     		.2byte	0x2
 12468 0d26 37       		.byte	0x37
 12469 0d27 9F       		.byte	0x9f
 12470 0d28 24000000 		.4byte	.LVL210
 12471 0d2c 2C000000 		.4byte	.LVL211
 12472 0d30 0300     		.2byte	0x3
 12473 0d32 73       		.byte	0x73
 12474 0d33 08       		.sleb128 8
 12475 0d34 9F       		.byte	0x9f
 12476 0d35 32000000 		.4byte	.LVL212
 12477 0d39 3A000000 		.4byte	.LVL213
 12478 0d3d 0200     		.2byte	0x2
 12479 0d3f 3E       		.byte	0x3e
 12480 0d40 9F       		.byte	0x9f
 12481 0d41 3A000000 		.4byte	.LVL213
 12482 0d45 3E000000 		.4byte	.LVL214
 12483 0d49 0200     		.2byte	0x2
 12484 0d4b 3F       		.byte	0x3f
 12485 0d4c 9F       		.byte	0x9f
 12486 0d4d 3E000000 		.4byte	.LVL214
 12487 0d51 44000000 		.4byte	.LVL215
 12488 0d55 0200     		.2byte	0x2
ARM GAS  C:\Users\Administrator\AppData\Local\Temp\ccexfbaX.s 			page 267


 12489 0d57 40       		.byte	0x40
 12490 0d58 9F       		.byte	0x9f
 12491 0d59 44000000 		.4byte	.LVL215
 12492 0d5d 4A000000 		.4byte	.LVL216
 12493 0d61 0200     		.2byte	0x2
 12494 0d63 41       		.byte	0x41
 12495 0d64 9F       		.byte	0x9f
 12496 0d65 4A000000 		.4byte	.LVL216
 12497 0d69 50000000 		.4byte	.LVL217
 12498 0d6d 0200     		.2byte	0x2
 12499 0d6f 42       		.byte	0x42
 12500 0d70 9F       		.byte	0x9f
 12501 0d71 50000000 		.4byte	.LVL217
 12502 0d75 54000000 		.4byte	.LVL218
 12503 0d79 0200     		.2byte	0x2
 12504 0d7b 43       		.byte	0x43
 12505 0d7c 9F       		.byte	0x9f
 12506 0d7d 54000000 		.4byte	.LVL218
 12507 0d81 5E000000 		.4byte	.LVL220
 12508 0d85 0200     		.2byte	0x2
 12509 0d87 44       		.byte	0x44
 12510 0d88 9F       		.byte	0x9f
 12511 0d89 5E000000 		.4byte	.LVL220
 12512 0d8d 62000000 		.4byte	.LVL221
 12513 0d91 0200     		.2byte	0x2
 12514 0d93 45       		.byte	0x45
 12515 0d94 9F       		.byte	0x9f
 12516 0d95 62000000 		.4byte	.LVL221
 12517 0d99 68000000 		.4byte	.LVL222
 12518 0d9d 0200     		.2byte	0x2
 12519 0d9f 46       		.byte	0x46
 12520 0da0 9F       		.byte	0x9f
 12521 0da1 68000000 		.4byte	.LVL222
 12522 0da5 8C000000 		.4byte	.LFE71
 12523 0da9 0200     		.2byte	0x2
 12524 0dab 47       		.byte	0x47
 12525 0dac 9F       		.byte	0x9f
 12526 0dad 00000000 		.4byte	0
 12527 0db1 00000000 		.4byte	0
 12528              	.LLST54:
 12529 0db5 00000000 		.4byte	.LVL203
 12530 0db9 24000000 		.4byte	.LVL210
 12531 0dbd 0200     		.2byte	0x2
 12532 0dbf 30       		.byte	0x30
 12533 0dc0 9F       		.byte	0x9f
 12534 0dc1 24000000 		.4byte	.LVL210
 12535 0dc5 2C000000 		.4byte	.LVL211
 12536 0dc9 0100     		.2byte	0x1
 12537 0dcb 53       		.byte	0x53
 12538 0dcc 00000000 		.4byte	0
 12539 0dd0 00000000 		.4byte	0
 12540              	.LLST55:
 12541 0dd4 00000000 		.4byte	.LVL225
 12542 0dd8 22000000 		.4byte	.LVL227
 12543 0ddc 0100     		.2byte	0x1
 12544 0dde 50       		.byte	0x50
 12545 0ddf 22000000 		.4byte	.LVL227
ARM GAS  C:\Users\Administrator\AppData\Local\Temp\ccexfbaX.s 			page 268


 12546 0de3 39000000 		.4byte	.LVL228-1
 12547 0de7 0300     		.2byte	0x3
 12548 0de9 70       		.byte	0x70
 12549 0dea 71       		.sleb128 -15
 12550 0deb 9F       		.byte	0x9f
 12551 0dec 39000000 		.4byte	.LVL228-1
 12552 0df0 54000000 		.4byte	.LVL231
 12553 0df4 0300     		.2byte	0x3
 12554 0df6 76       		.byte	0x76
 12555 0df7 71       		.sleb128 -15
 12556 0df8 9F       		.byte	0x9f
 12557 0df9 54000000 		.4byte	.LVL231
 12558 0dfd CE000000 		.4byte	.LVL235
 12559 0e01 0400     		.2byte	0x4
 12560 0e03 F3       		.byte	0xf3
 12561 0e04 01       		.uleb128 0x1
 12562 0e05 50       		.byte	0x50
 12563 0e06 9F       		.byte	0x9f
 12564 0e07 CE000000 		.4byte	.LVL235
 12565 0e0b DF000000 		.4byte	.LVL236-1
 12566 0e0f 0100     		.2byte	0x1
 12567 0e11 50       		.byte	0x50
 12568 0e12 DF000000 		.4byte	.LVL236-1
 12569 0e16 1C010000 		.4byte	.LFE87
 12570 0e1a 0400     		.2byte	0x4
 12571 0e1c F3       		.byte	0xf3
 12572 0e1d 01       		.uleb128 0x1
 12573 0e1e 50       		.byte	0x50
 12574 0e1f 9F       		.byte	0x9f
 12575 0e20 00000000 		.4byte	0
 12576 0e24 00000000 		.4byte	0
 12577              	.LLST56:
 12578 0e28 14000000 		.4byte	.LVL226
 12579 0e2c F0000000 		.4byte	.LVL238
 12580 0e30 0100     		.2byte	0x1
 12581 0e32 55       		.byte	0x55
 12582 0e33 00000000 		.4byte	0
 12583 0e37 00000000 		.4byte	0
 12584              	.LLST57:
 12585 0e3b 00000000 		.4byte	.LVL225
 12586 0e3f 22000000 		.4byte	.LVL227
 12587 0e43 1200     		.2byte	0x12
 12588 0e45 70       		.byte	0x70
 12589 0e46 02       		.sleb128 2
 12590 0e47 94       		.byte	0x94
 12591 0e48 01       		.byte	0x1
 12592 0e49 08       		.byte	0x8
 12593 0e4a FF       		.byte	0xff
 12594 0e4b 1A       		.byte	0x1a
 12595 0e4c 38       		.byte	0x38
 12596 0e4d 24       		.byte	0x24
 12597 0e4e 70       		.byte	0x70
 12598 0e4f 03       		.sleb128 3
 12599 0e50 94       		.byte	0x94
 12600 0e51 01       		.byte	0x1
 12601 0e52 08       		.byte	0x8
 12602 0e53 FF       		.byte	0xff
ARM GAS  C:\Users\Administrator\AppData\Local\Temp\ccexfbaX.s 			page 269


 12603 0e54 1A       		.byte	0x1a
 12604 0e55 22       		.byte	0x22
 12605 0e56 9F       		.byte	0x9f
 12606 0e57 22000000 		.4byte	.LVL227
 12607 0e5b 39000000 		.4byte	.LVL228-1
 12608 0e5f 1200     		.2byte	0x12
 12609 0e61 70       		.byte	0x70
 12610 0e62 73       		.sleb128 -13
 12611 0e63 94       		.byte	0x94
 12612 0e64 01       		.byte	0x1
 12613 0e65 08       		.byte	0x8
 12614 0e66 FF       		.byte	0xff
 12615 0e67 1A       		.byte	0x1a
 12616 0e68 38       		.byte	0x38
 12617 0e69 24       		.byte	0x24
 12618 0e6a 70       		.byte	0x70
 12619 0e6b 74       		.sleb128 -12
 12620 0e6c 94       		.byte	0x94
 12621 0e6d 01       		.byte	0x1
 12622 0e6e 08       		.byte	0x8
 12623 0e6f FF       		.byte	0xff
 12624 0e70 1A       		.byte	0x1a
 12625 0e71 22       		.byte	0x22
 12626 0e72 9F       		.byte	0x9f
 12627 0e73 CE000000 		.4byte	.LVL235
 12628 0e77 DF000000 		.4byte	.LVL236-1
 12629 0e7b 1200     		.2byte	0x12
 12630 0e7d 70       		.byte	0x70
 12631 0e7e 02       		.sleb128 2
 12632 0e7f 94       		.byte	0x94
 12633 0e80 01       		.byte	0x1
 12634 0e81 08       		.byte	0x8
 12635 0e82 FF       		.byte	0xff
 12636 0e83 1A       		.byte	0x1a
 12637 0e84 38       		.byte	0x38
 12638 0e85 24       		.byte	0x24
 12639 0e86 70       		.byte	0x70
 12640 0e87 03       		.sleb128 3
 12641 0e88 94       		.byte	0x94
 12642 0e89 01       		.byte	0x1
 12643 0e8a 08       		.byte	0x8
 12644 0e8b FF       		.byte	0xff
 12645 0e8c 1A       		.byte	0x1a
 12646 0e8d 22       		.byte	0x22
 12647 0e8e 9F       		.byte	0x9f
 12648 0e8f 00000000 		.4byte	0
 12649 0e93 00000000 		.4byte	0
 12650              	.LLST58:
 12651 0e97 00000000 		.4byte	.LVL225
 12652 0e9b 22000000 		.4byte	.LVL227
 12653 0e9f 1400     		.2byte	0x14
 12654 0ea1 70       		.byte	0x70
 12655 0ea2 02       		.sleb128 2
 12656 0ea3 94       		.byte	0x94
 12657 0ea4 01       		.byte	0x1
 12658 0ea5 08       		.byte	0x8
 12659 0ea6 FF       		.byte	0xff
ARM GAS  C:\Users\Administrator\AppData\Local\Temp\ccexfbaX.s 			page 270


 12660 0ea7 1A       		.byte	0x1a
 12661 0ea8 38       		.byte	0x38
 12662 0ea9 24       		.byte	0x24
 12663 0eaa 70       		.byte	0x70
 12664 0eab 03       		.sleb128 3
 12665 0eac 94       		.byte	0x94
 12666 0ead 01       		.byte	0x1
 12667 0eae 08       		.byte	0x8
 12668 0eaf FF       		.byte	0xff
 12669 0eb0 1A       		.byte	0x1a
 12670 0eb1 22       		.byte	0x22
 12671 0eb2 42       		.byte	0x42
 12672 0eb3 1C       		.byte	0x1c
 12673 0eb4 9F       		.byte	0x9f
 12674 0eb5 22000000 		.4byte	.LVL227
 12675 0eb9 39000000 		.4byte	.LVL228-1
 12676 0ebd 1400     		.2byte	0x14
 12677 0ebf 70       		.byte	0x70
 12678 0ec0 73       		.sleb128 -13
 12679 0ec1 94       		.byte	0x94
 12680 0ec2 01       		.byte	0x1
 12681 0ec3 08       		.byte	0x8
 12682 0ec4 FF       		.byte	0xff
 12683 0ec5 1A       		.byte	0x1a
 12684 0ec6 38       		.byte	0x38
 12685 0ec7 24       		.byte	0x24
 12686 0ec8 70       		.byte	0x70
 12687 0ec9 74       		.sleb128 -12
 12688 0eca 94       		.byte	0x94
 12689 0ecb 01       		.byte	0x1
 12690 0ecc 08       		.byte	0x8
 12691 0ecd FF       		.byte	0xff
 12692 0ece 1A       		.byte	0x1a
 12693 0ecf 22       		.byte	0x22
 12694 0ed0 42       		.byte	0x42
 12695 0ed1 1C       		.byte	0x1c
 12696 0ed2 9F       		.byte	0x9f
 12697 0ed3 CE000000 		.4byte	.LVL235
 12698 0ed7 DF000000 		.4byte	.LVL236-1
 12699 0edb 1400     		.2byte	0x14
 12700 0edd 70       		.byte	0x70
 12701 0ede 02       		.sleb128 2
 12702 0edf 94       		.byte	0x94
 12703 0ee0 01       		.byte	0x1
 12704 0ee1 08       		.byte	0x8
 12705 0ee2 FF       		.byte	0xff
 12706 0ee3 1A       		.byte	0x1a
 12707 0ee4 38       		.byte	0x38
 12708 0ee5 24       		.byte	0x24
 12709 0ee6 70       		.byte	0x70
 12710 0ee7 03       		.sleb128 3
 12711 0ee8 94       		.byte	0x94
 12712 0ee9 01       		.byte	0x1
 12713 0eea 08       		.byte	0x8
 12714 0eeb FF       		.byte	0xff
 12715 0eec 1A       		.byte	0x1a
 12716 0eed 22       		.byte	0x22
ARM GAS  C:\Users\Administrator\AppData\Local\Temp\ccexfbaX.s 			page 271


 12717 0eee 42       		.byte	0x42
 12718 0eef 1C       		.byte	0x1c
 12719 0ef0 9F       		.byte	0x9f
 12720 0ef1 00000000 		.4byte	0
 12721 0ef5 00000000 		.4byte	0
 12722              	.LLST59:
 12723 0ef9 00000000 		.4byte	.LVL239
 12724 0efd 16000000 		.4byte	.LVL243
 12725 0f01 0100     		.2byte	0x1
 12726 0f03 50       		.byte	0x50
 12727 0f04 16000000 		.4byte	.LVL243
 12728 0f08 BC000000 		.4byte	.LFE72
 12729 0f0c 0400     		.2byte	0x4
 12730 0f0e F3       		.byte	0xf3
 12731 0f0f 01       		.uleb128 0x1
 12732 0f10 50       		.byte	0x50
 12733 0f11 9F       		.byte	0x9f
 12734 0f12 00000000 		.4byte	0
 12735 0f16 00000000 		.4byte	0
 12736              	.LLST60:
 12737 0f1a 00000000 		.4byte	.LVL239
 12738 0f1e 14000000 		.4byte	.LVL242
 12739 0f22 0100     		.2byte	0x1
 12740 0f24 51       		.byte	0x51
 12741 0f25 14000000 		.4byte	.LVL242
 12742 0f29 BC000000 		.4byte	.LFE72
 12743 0f2d 0400     		.2byte	0x4
 12744 0f2f F3       		.byte	0xf3
 12745 0f30 01       		.uleb128 0x1
 12746 0f31 51       		.byte	0x51
 12747 0f32 9F       		.byte	0x9f
 12748 0f33 00000000 		.4byte	0
 12749 0f37 00000000 		.4byte	0
 12750              	.LLST61:
 12751 0f3b 00000000 		.4byte	.LVL239
 12752 0f3f 08000000 		.4byte	.LVL240
 12753 0f43 0100     		.2byte	0x1
 12754 0f45 52       		.byte	0x52
 12755 0f46 08000000 		.4byte	.LVL240
 12756 0f4a BC000000 		.4byte	.LFE72
 12757 0f4e 0400     		.2byte	0x4
 12758 0f50 F3       		.byte	0xf3
 12759 0f51 01       		.uleb128 0x1
 12760 0f52 52       		.byte	0x52
 12761 0f53 9F       		.byte	0x9f
 12762 0f54 00000000 		.4byte	0
 12763 0f58 00000000 		.4byte	0
 12764              	.LLST62:
 12765 0f5c 00000000 		.4byte	.LVL239
 12766 0f60 12000000 		.4byte	.LVL241
 12767 0f64 0100     		.2byte	0x1
 12768 0f66 53       		.byte	0x53
 12769 0f67 12000000 		.4byte	.LVL241
 12770 0f6b 1B000000 		.4byte	.LVL244-1
 12771 0f6f 0300     		.2byte	0x3
 12772 0f71 73       		.byte	0x73
 12773 0f72 E47D     		.sleb128 -284
ARM GAS  C:\Users\Administrator\AppData\Local\Temp\ccexfbaX.s 			page 272


 12774 0f74 1B000000 		.4byte	.LVL244-1
 12775 0f78 BC000000 		.4byte	.LFE72
 12776 0f7c 0300     		.2byte	0x3
 12777 0f7e 91       		.byte	0x91
 12778 0f7f E47D     		.sleb128 -284
 12779 0f81 00000000 		.4byte	0
 12780 0f85 00000000 		.4byte	0
 12781              	.LLST63:
 12782 0f89 00000000 		.4byte	.LVL239
 12783 0f8d 12000000 		.4byte	.LVL241
 12784 0f91 0200     		.2byte	0x2
 12785 0f93 91       		.byte	0x91
 12786 0f94 00       		.sleb128 0
 12787 0f95 12000000 		.4byte	.LVL241
 12788 0f99 1B000000 		.4byte	.LVL244-1
 12789 0f9d 0200     		.2byte	0x2
 12790 0f9f 73       		.byte	0x73
 12791 0fa0 00       		.sleb128 0
 12792 0fa1 1B000000 		.4byte	.LVL244-1
 12793 0fa5 BC000000 		.4byte	.LFE72
 12794 0fa9 0200     		.2byte	0x2
 12795 0fab 91       		.byte	0x91
 12796 0fac 00       		.sleb128 0
 12797 0fad 00000000 		.4byte	0
 12798 0fb1 00000000 		.4byte	0
 12799              	.LLST64:
 12800 0fb5 56000000 		.4byte	.LVL250
 12801 0fb9 64000000 		.4byte	.LVL252
 12802 0fbd 0100     		.2byte	0x1
 12803 0fbf 50       		.byte	0x50
 12804 0fc0 66000000 		.4byte	.LVL253
 12805 0fc4 68000000 		.4byte	.LVL254
 12806 0fc8 0100     		.2byte	0x1
 12807 0fca 53       		.byte	0x53
 12808 0fcb 00000000 		.4byte	0
 12809 0fcf 00000000 		.4byte	0
 12810              	.LLST65:
 12811 0fd3 00000000 		.4byte	.LVL239
 12812 0fd7 26000000 		.4byte	.LVL245
 12813 0fdb 0200     		.2byte	0x2
 12814 0fdd 30       		.byte	0x30
 12815 0fde 9F       		.byte	0x9f
 12816 0fdf 26000000 		.4byte	.LVL245
 12817 0fe3 2A000000 		.4byte	.LVL246
 12818 0fe7 0200     		.2byte	0x2
 12819 0fe9 32       		.byte	0x32
 12820 0fea 9F       		.byte	0x9f
 12821 0feb 2A000000 		.4byte	.LVL246
 12822 0fef 2E000000 		.4byte	.LVL247
 12823 0ff3 0200     		.2byte	0x2
 12824 0ff5 33       		.byte	0x33
 12825 0ff6 9F       		.byte	0x9f
 12826 0ff7 2E000000 		.4byte	.LVL247
 12827 0ffb 3A000000 		.4byte	.LVL248
 12828 0fff 0200     		.2byte	0x2
 12829 1001 34       		.byte	0x34
 12830 1002 9F       		.byte	0x9f
ARM GAS  C:\Users\Administrator\AppData\Local\Temp\ccexfbaX.s 			page 273


 12831 1003 3A000000 		.4byte	.LVL248
 12832 1007 4C000000 		.4byte	.LVL249
 12833 100b 0200     		.2byte	0x2
 12834 100d 37       		.byte	0x37
 12835 100e 9F       		.byte	0x9f
 12836 100f 56000000 		.4byte	.LVL250
 12837 1013 5E000000 		.4byte	.LVL251
 12838 1017 0100     		.2byte	0x1
 12839 1019 54       		.byte	0x54
 12840 101a 5E000000 		.4byte	.LVL251
 12841 101e 68000000 		.4byte	.LVL254
 12842 1022 0300     		.2byte	0x3
 12843 1024 73       		.byte	0x73
 12844 1025 07       		.sleb128 7
 12845 1026 9F       		.byte	0x9f
 12846 1027 68000000 		.4byte	.LVL254
 12847 102b 70000000 		.4byte	.LVL255
 12848 102f 0100     		.2byte	0x1
 12849 1031 54       		.byte	0x54
 12850 1032 70000000 		.4byte	.LVL255
 12851 1036 7A000000 		.4byte	.LVL257
 12852 103a 0300     		.2byte	0x3
 12853 103c 74       		.byte	0x74
 12854 103d 01       		.sleb128 1
 12855 103e 9F       		.byte	0x9f
 12856 103f 7E000000 		.4byte	.LVL258
 12857 1043 B2000000 		.4byte	.LVL264
 12858 1047 0100     		.2byte	0x1
 12859 1049 55       		.byte	0x55
 12860 104a 00000000 		.4byte	0
 12861 104e 00000000 		.4byte	0
 12862              	.LLST66:
 12863 1052 70000000 		.4byte	.LVL255
 12864 1056 88000000 		.4byte	.LVL259
 12865 105a 0100     		.2byte	0x1
 12866 105c 50       		.byte	0x50
 12867 105d 8E000000 		.4byte	.LVL261
 12868 1061 95000000 		.4byte	.LVL262-1
 12869 1065 0100     		.2byte	0x1
 12870 1067 50       		.byte	0x50
 12871 1068 00000000 		.4byte	0
 12872 106c 00000000 		.4byte	0
 12873              	.LLST67:
 12874 1070 26000000 		.4byte	.LVL245
 12875 1074 78000000 		.4byte	.LVL256
 12876 1078 0100     		.2byte	0x1
 12877 107a 55       		.byte	0x55
 12878 107b 78000000 		.4byte	.LVL256
 12879 107f B2000000 		.4byte	.LVL265
 12880 1083 0300     		.2byte	0x3
 12881 1085 77       		.byte	0x77
 12882 1086 05       		.sleb128 5
 12883 1087 9F       		.byte	0x9f
 12884 1088 B2000000 		.4byte	.LVL265
 12885 108c BC000000 		.4byte	.LFE72
 12886 1090 0B00     		.2byte	0xb
 12887 1092 91       		.byte	0x91
ARM GAS  C:\Users\Administrator\AppData\Local\Temp\ccexfbaX.s 			page 274


 12888 1093 00       		.sleb128 0
 12889 1094 94       		.byte	0x94
 12890 1095 02       		.byte	0x2
 12891 1096 0A       		.byte	0xa
 12892 1097 FFFF     		.2byte	0xffff
 12893 1099 1A       		.byte	0x1a
 12894 109a 23       		.byte	0x23
 12895 109b 05       		.uleb128 0x5
 12896 109c 9F       		.byte	0x9f
 12897 109d 00000000 		.4byte	0
 12898 10a1 00000000 		.4byte	0
 12899              	.LLST68:
 12900 10a5 00000000 		.4byte	.LVL266
 12901 10a9 10000000 		.4byte	.LVL268
 12902 10ad 0100     		.2byte	0x1
 12903 10af 50       		.byte	0x50
 12904 10b0 10000000 		.4byte	.LVL268
 12905 10b4 D8000000 		.4byte	.LVL289
 12906 10b8 0100     		.2byte	0x1
 12907 10ba 55       		.byte	0x55
 12908 10bb D8000000 		.4byte	.LVL289
 12909 10bf E4000000 		.4byte	.LFE75
 12910 10c3 0400     		.2byte	0x4
 12911 10c5 F3       		.byte	0xf3
 12912 10c6 01       		.uleb128 0x1
 12913 10c7 50       		.byte	0x50
 12914 10c8 9F       		.byte	0x9f
 12915 10c9 00000000 		.4byte	0
 12916 10cd 00000000 		.4byte	0
 12917              	.LLST69:
 12918 10d1 46000000 		.4byte	.LVL277
 12919 10d5 58000000 		.4byte	.LVL279
 12920 10d9 0100     		.2byte	0x1
 12921 10db 57       		.byte	0x57
 12922 10dc 7A000000 		.4byte	.LVL280
 12923 10e0 D8000000 		.4byte	.LVL290
 12924 10e4 0100     		.2byte	0x1
 12925 10e6 57       		.byte	0x57
 12926 10e7 00000000 		.4byte	0
 12927 10eb 00000000 		.4byte	0
 12928              	.LLST70:
 12929 10ef 08000000 		.4byte	.LVL267
 12930 10f3 2A000000 		.4byte	.LVL271
 12931 10f7 0400     		.2byte	0x4
 12932 10f9 91       		.byte	0x91
 12933 10fa A87F     		.sleb128 -88
 12934 10fc 9F       		.byte	0x9f
 12935 10fd 2A000000 		.4byte	.LVL271
 12936 1101 2F000000 		.4byte	.LVL273-1
 12937 1105 0100     		.2byte	0x1
 12938 1107 50       		.byte	0x50
 12939 1108 2F000000 		.4byte	.LVL273-1
 12940 110c 36000000 		.4byte	.LVL274
 12941 1110 0400     		.2byte	0x4
 12942 1112 91       		.byte	0x91
 12943 1113 A87F     		.sleb128 -88
 12944 1115 9F       		.byte	0x9f
ARM GAS  C:\Users\Administrator\AppData\Local\Temp\ccexfbaX.s 			page 275


 12945 1116 36000000 		.4byte	.LVL274
 12946 111a 39000000 		.4byte	.LVL275-1
 12947 111e 0100     		.2byte	0x1
 12948 1120 50       		.byte	0x50
 12949 1121 39000000 		.4byte	.LVL275-1
 12950 1125 3A000000 		.4byte	.LVL275
 12951 1129 0400     		.2byte	0x4
 12952 112b 91       		.byte	0x91
 12953 112c A87F     		.sleb128 -88
 12954 112e 9F       		.byte	0x9f
 12955 112f 3A000000 		.4byte	.LVL275
 12956 1133 A8000000 		.4byte	.LVL285
 12957 1137 0400     		.2byte	0x4
 12958 1139 91       		.byte	0x91
 12959 113a AE7F     		.sleb128 -82
 12960 113c 9F       		.byte	0x9f
 12961 113d A8000000 		.4byte	.LVL285
 12962 1141 BA000000 		.4byte	.LVL287
 12963 1145 0400     		.2byte	0x4
 12964 1147 91       		.byte	0x91
 12965 1148 B67F     		.sleb128 -74
 12966 114a 9F       		.byte	0x9f
 12967 114b BA000000 		.4byte	.LVL287
 12968 114f E4000000 		.4byte	.LFE75
 12969 1153 0400     		.2byte	0x4
 12970 1155 91       		.byte	0x91
 12971 1156 BA7F     		.sleb128 -70
 12972 1158 9F       		.byte	0x9f
 12973 1159 00000000 		.4byte	0
 12974 115d 00000000 		.4byte	0
 12975              	.LLST71:
 12976 1161 1A000000 		.4byte	.LVL270
 12977 1165 9E000000 		.4byte	.LVL284
 12978 1169 0300     		.2byte	0x3
 12979 116b 91       		.byte	0x91
 12980 116c 987F     		.sleb128 -104
 12981 116e 9E000000 		.4byte	.LVL284
 12982 1172 A7000000 		.4byte	.LVL285-1
 12983 1176 0200     		.2byte	0x2
 12984 1178 73       		.byte	0x73
 12985 1179 00       		.sleb128 0
 12986 117a A7000000 		.4byte	.LVL285-1
 12987 117e AE000000 		.4byte	.LVL286
 12988 1182 0300     		.2byte	0x3
 12989 1184 91       		.byte	0x91
 12990 1185 987F     		.sleb128 -104
 12991 1187 AE000000 		.4byte	.LVL286
 12992 118b B9000000 		.4byte	.LVL287-1
 12993 118f 0200     		.2byte	0x2
 12994 1191 73       		.byte	0x73
 12995 1192 00       		.sleb128 0
 12996 1193 B9000000 		.4byte	.LVL287-1
 12997 1197 E4000000 		.4byte	.LFE75
 12998 119b 0300     		.2byte	0x3
 12999 119d 91       		.byte	0x91
 13000 119e 987F     		.sleb128 -104
 13001 11a0 00000000 		.4byte	0
ARM GAS  C:\Users\Administrator\AppData\Local\Temp\ccexfbaX.s 			page 276


 13002 11a4 00000000 		.4byte	0
 13003              	.LLST72:
 13004 11a8 00000000 		.4byte	.LVL291
 13005 11ac 1E000000 		.4byte	.LVL295
 13006 11b0 0100     		.2byte	0x1
 13007 11b2 50       		.byte	0x50
 13008 11b3 1E000000 		.4byte	.LVL295
 13009 11b7 BA000000 		.4byte	.LVL312
 13010 11bb 0100     		.2byte	0x1
 13011 11bd 54       		.byte	0x54
 13012 11be BA000000 		.4byte	.LVL312
 13013 11c2 BA000000 		.4byte	.LVL313
 13014 11c6 0300     		.2byte	0x3
 13015 11c8 77       		.byte	0x77
 13016 11c9 6B       		.sleb128 -21
 13017 11ca 9F       		.byte	0x9f
 13018 11cb BA000000 		.4byte	.LVL313
 13019 11cf BC000000 		.4byte	.LFE76
 13020 11d3 0400     		.2byte	0x4
 13021 11d5 F3       		.byte	0xf3
 13022 11d6 01       		.uleb128 0x1
 13023 11d7 50       		.byte	0x50
 13024 11d8 9F       		.byte	0x9f
 13025 11d9 00000000 		.4byte	0
 13026 11dd 00000000 		.4byte	0
 13027              	.LLST73:
 13028 11e1 08000000 		.4byte	.LVL292
 13029 11e5 16000000 		.4byte	.LVL294
 13030 11e9 0400     		.2byte	0x4
 13031 11eb 91       		.byte	0x91
 13032 11ec A87F     		.sleb128 -88
 13033 11ee 9F       		.byte	0x9f
 13034 11ef 16000000 		.4byte	.LVL294
 13035 11f3 30000000 		.4byte	.LVL298
 13036 11f7 0100     		.2byte	0x1
 13037 11f9 56       		.byte	0x56
 13038 11fa 30000000 		.4byte	.LVL298
 13039 11fe 4C000000 		.4byte	.LVL301
 13040 1202 0400     		.2byte	0x4
 13041 1204 91       		.byte	0x91
 13042 1205 AE7F     		.sleb128 -82
 13043 1207 9F       		.byte	0x9f
 13044 1208 4C000000 		.4byte	.LVL301
 13045 120c 66000000 		.4byte	.LVL304
 13046 1210 0400     		.2byte	0x4
 13047 1212 91       		.byte	0x91
 13048 1213 B67F     		.sleb128 -74
 13049 1215 9F       		.byte	0x9f
 13050 1216 66000000 		.4byte	.LVL304
 13051 121a 78000000 		.4byte	.LVL306
 13052 121e 0400     		.2byte	0x4
 13053 1220 91       		.byte	0x91
 13054 1221 BA7F     		.sleb128 -70
 13055 1223 9F       		.byte	0x9f
 13056 1224 78000000 		.4byte	.LVL306
 13057 1228 BC000000 		.4byte	.LFE76
 13058 122c 0400     		.2byte	0x4
ARM GAS  C:\Users\Administrator\AppData\Local\Temp\ccexfbaX.s 			page 277


 13059 122e 91       		.byte	0x91
 13060 122f BE7F     		.sleb128 -66
 13061 1231 9F       		.byte	0x9f
 13062 1232 00000000 		.4byte	0
 13063 1236 00000000 		.4byte	0
 13064              	.LLST74:
 13065 123a 0C000000 		.4byte	.LVL293
 13066 123e 34000000 		.4byte	.LVL299
 13067 1242 0300     		.2byte	0x3
 13068 1244 91       		.byte	0x91
 13069 1245 887F     		.sleb128 -120
 13070 1247 34000000 		.4byte	.LVL299
 13071 124b 41000000 		.4byte	.LVL300-1
 13072 124f 0200     		.2byte	0x2
 13073 1251 73       		.byte	0x73
 13074 1252 00       		.sleb128 0
 13075 1253 41000000 		.4byte	.LVL300-1
 13076 1257 50000000 		.4byte	.LVL302
 13077 125b 0300     		.2byte	0x3
 13078 125d 91       		.byte	0x91
 13079 125e 887F     		.sleb128 -120
 13080 1260 50000000 		.4byte	.LVL302
 13081 1264 5B000000 		.4byte	.LVL303-1
 13082 1268 0200     		.2byte	0x2
 13083 126a 73       		.byte	0x73
 13084 126b 00       		.sleb128 0
 13085 126c 5B000000 		.4byte	.LVL303-1
 13086 1270 70000000 		.4byte	.LVL305
 13087 1274 0300     		.2byte	0x3
 13088 1276 91       		.byte	0x91
 13089 1277 887F     		.sleb128 -120
 13090 1279 70000000 		.4byte	.LVL305
 13091 127d 77000000 		.4byte	.LVL306-1
 13092 1281 0200     		.2byte	0x2
 13093 1283 73       		.byte	0x73
 13094 1284 00       		.sleb128 0
 13095 1285 77000000 		.4byte	.LVL306-1
 13096 1289 BC000000 		.4byte	.LFE76
 13097 128d 0300     		.2byte	0x3
 13098 128f 91       		.byte	0x91
 13099 1290 887F     		.sleb128 -120
 13100 1292 00000000 		.4byte	0
 13101 1296 00000000 		.4byte	0
 13102              	.LLST75:
 13103 129a 00000000 		.4byte	.LVL314
 13104 129e 1C000000 		.4byte	.LVL318
 13105 12a2 0100     		.2byte	0x1
 13106 12a4 50       		.byte	0x50
 13107 12a5 1C000000 		.4byte	.LVL318
 13108 12a9 9C000000 		.4byte	.LVL331
 13109 12ad 0100     		.2byte	0x1
 13110 12af 54       		.byte	0x54
 13111 12b0 9C000000 		.4byte	.LVL331
 13112 12b4 9E000000 		.4byte	.LFE77
 13113 12b8 0400     		.2byte	0x4
 13114 12ba F3       		.byte	0xf3
 13115 12bb 01       		.uleb128 0x1
ARM GAS  C:\Users\Administrator\AppData\Local\Temp\ccexfbaX.s 			page 278


 13116 12bc 50       		.byte	0x50
 13117 12bd 9F       		.byte	0x9f
 13118 12be 00000000 		.4byte	0
 13119 12c2 00000000 		.4byte	0
 13120              	.LLST76:
 13121 12c6 00000000 		.4byte	.LVL314
 13122 12ca 68000000 		.4byte	.LVL327
 13123 12ce 0200     		.2byte	0x2
 13124 12d0 30       		.byte	0x30
 13125 12d1 9F       		.byte	0x9f
 13126 12d2 68000000 		.4byte	.LVL327
 13127 12d6 9C000000 		.4byte	.LVL332
 13128 12da 0100     		.2byte	0x1
 13129 12dc 56       		.byte	0x56
 13130 12dd 00000000 		.4byte	0
 13131 12e1 00000000 		.4byte	0
 13132              	.LLST77:
 13133 12e5 0A000000 		.4byte	.LVL315
 13134 12e9 12000000 		.4byte	.LVL316
 13135 12ed 0400     		.2byte	0x4
 13136 12ef 91       		.byte	0x91
 13137 12f0 A87F     		.sleb128 -88
 13138 12f2 9F       		.byte	0x9f
 13139 12f3 12000000 		.4byte	.LVL316
 13140 12f7 2E000000 		.4byte	.LVL321
 13141 12fb 0100     		.2byte	0x1
 13142 12fd 55       		.byte	0x55
 13143 12fe 2E000000 		.4byte	.LVL321
 13144 1302 48000000 		.4byte	.LVL323
 13145 1306 0400     		.2byte	0x4
 13146 1308 91       		.byte	0x91
 13147 1309 AE7F     		.sleb128 -82
 13148 130b 9F       		.byte	0x9f
 13149 130c 48000000 		.4byte	.LVL323
 13150 1310 5A000000 		.4byte	.LVL324
 13151 1314 0400     		.2byte	0x4
 13152 1316 91       		.byte	0x91
 13153 1317 B67F     		.sleb128 -74
 13154 1319 9F       		.byte	0x9f
 13155 131a 5A000000 		.4byte	.LVL324
 13156 131e 9E000000 		.4byte	.LFE77
 13157 1322 0400     		.2byte	0x4
 13158 1324 91       		.byte	0x91
 13159 1325 BA7F     		.sleb128 -70
 13160 1327 9F       		.byte	0x9f
 13161 1328 00000000 		.4byte	0
 13162 132c 00000000 		.4byte	0
 13163              	.LLST78:
 13164 1330 16000000 		.4byte	.LVL317
 13165 1334 9C000000 		.4byte	.LVL333
 13166 1338 0100     		.2byte	0x1
 13167 133a 57       		.byte	0x57
 13168 133b 00000000 		.4byte	0
 13169 133f 00000000 		.4byte	0
 13170              	.LLST79:
 13171 1343 00000000 		.4byte	.LVL334
 13172 1347 1A000000 		.4byte	.LVL337
ARM GAS  C:\Users\Administrator\AppData\Local\Temp\ccexfbaX.s 			page 279


 13173 134b 0100     		.2byte	0x1
 13174 134d 50       		.byte	0x50
 13175 134e 1A000000 		.4byte	.LVL337
 13176 1352 F0000000 		.4byte	.LVL365
 13177 1356 0100     		.2byte	0x1
 13178 1358 56       		.byte	0x56
 13179 1359 F0000000 		.4byte	.LVL365
 13180 135d 52010000 		.4byte	.LVL372
 13181 1361 0400     		.2byte	0x4
 13182 1363 F3       		.byte	0xf3
 13183 1364 01       		.uleb128 0x1
 13184 1365 50       		.byte	0x50
 13185 1366 9F       		.byte	0x9f
 13186 1367 52010000 		.4byte	.LVL372
 13187 136b 6C010000 		.4byte	.LVL375
 13188 136f 0100     		.2byte	0x1
 13189 1371 56       		.byte	0x56
 13190 1372 6C010000 		.4byte	.LVL375
 13191 1376 8C010000 		.4byte	.LFE78
 13192 137a 0400     		.2byte	0x4
 13193 137c F3       		.byte	0xf3
 13194 137d 01       		.uleb128 0x1
 13195 137e 50       		.byte	0x50
 13196 137f 9F       		.byte	0x9f
 13197 1380 00000000 		.4byte	0
 13198 1384 00000000 		.4byte	0
 13199              	.LLST80:
 13200 1388 00000000 		.4byte	.LVL334
 13201 138c B4000000 		.4byte	.LVL354
 13202 1390 0200     		.2byte	0x2
 13203 1392 30       		.byte	0x30
 13204 1393 9F       		.byte	0x9f
 13205 1394 B4000000 		.4byte	.LVL354
 13206 1398 C0000000 		.4byte	.LVL355
 13207 139c 0100     		.2byte	0x1
 13208 139e 50       		.byte	0x50
 13209 139f 00000000 		.4byte	0
 13210 13a3 00000000 		.4byte	0
 13211              	.LLST81:
 13212 13a7 00000000 		.4byte	.LVL334
 13213 13ab C0000000 		.4byte	.LVL355
 13214 13af 0200     		.2byte	0x2
 13215 13b1 31       		.byte	0x31
 13216 13b2 9F       		.byte	0x9f
 13217 13b3 DC000000 		.4byte	.LVL360
 13218 13b7 52010000 		.4byte	.LVL372
 13219 13bb 0200     		.2byte	0x2
 13220 13bd 31       		.byte	0x31
 13221 13be 9F       		.byte	0x9f
 13222 13bf 00000000 		.4byte	0
 13223 13c3 00000000 		.4byte	0
 13224              	.LLST82:
 13225 13c7 72000000 		.4byte	.LVL347
 13226 13cb 76000000 		.4byte	.LVL348
 13227 13cf 0300     		.2byte	0x3
 13228 13d1 73       		.byte	0x73
 13229 13d2 BA7F     		.sleb128 -70
ARM GAS  C:\Users\Administrator\AppData\Local\Temp\ccexfbaX.s 			page 280


 13230 13d4 76000000 		.4byte	.LVL348
 13231 13d8 7F000000 		.4byte	.LVL349-1
 13232 13dc 0200     		.2byte	0x2
 13233 13de 73       		.byte	0x73
 13234 13df 00       		.sleb128 0
 13235 13e0 7F000000 		.4byte	.LVL349-1
 13236 13e4 C4000000 		.4byte	.LVL356
 13237 13e8 0300     		.2byte	0x3
 13238 13ea 91       		.byte	0x91
 13239 13eb B07D     		.sleb128 -336
 13240 13ed C4000000 		.4byte	.LVL356
 13241 13f1 C6000000 		.4byte	.LVL357
 13242 13f5 0200     		.2byte	0x2
 13243 13f7 73       		.byte	0x73
 13244 13f8 00       		.sleb128 0
 13245 13f9 C6000000 		.4byte	.LVL357
 13246 13fd CA000000 		.4byte	.LVL358
 13247 1401 0300     		.2byte	0x3
 13248 1403 73       		.byte	0x73
 13249 1404 B57F     		.sleb128 -75
 13250 1406 CA000000 		.4byte	.LVL358
 13251 140a 8C010000 		.4byte	.LFE78
 13252 140e 0300     		.2byte	0x3
 13253 1410 91       		.byte	0x91
 13254 1411 B07D     		.sleb128 -336
 13255 1413 00000000 		.4byte	0
 13256 1417 00000000 		.4byte	0
 13257              	.LLST83:
 13258 141b 06000000 		.4byte	.LVL335
 13259 141f 2A000000 		.4byte	.LVL339
 13260 1423 0400     		.2byte	0x4
 13261 1425 91       		.byte	0x91
 13262 1426 E87D     		.sleb128 -280
 13263 1428 9F       		.byte	0x9f
 13264 1429 2A000000 		.4byte	.LVL339
 13265 142d 2D000000 		.4byte	.LVL340-1
 13266 1431 0100     		.2byte	0x1
 13267 1433 50       		.byte	0x50
 13268 1434 2D000000 		.4byte	.LVL340-1
 13269 1438 34000000 		.4byte	.LVL341
 13270 143c 0400     		.2byte	0x4
 13271 143e 91       		.byte	0x91
 13272 143f E87D     		.sleb128 -280
 13273 1441 9F       		.byte	0x9f
 13274 1442 34000000 		.4byte	.LVL341
 13275 1446 37000000 		.4byte	.LVL342-1
 13276 144a 0100     		.2byte	0x1
 13277 144c 50       		.byte	0x50
 13278 144d 37000000 		.4byte	.LVL342-1
 13279 1451 6C000000 		.4byte	.LVL346
 13280 1455 0400     		.2byte	0x4
 13281 1457 91       		.byte	0x91
 13282 1458 E87D     		.sleb128 -280
 13283 145a 9F       		.byte	0x9f
 13284 145b 6C000000 		.4byte	.LVL346
 13285 145f 72000000 		.4byte	.LVL347
 13286 1463 0400     		.2byte	0x4
ARM GAS  C:\Users\Administrator\AppData\Local\Temp\ccexfbaX.s 			page 281


 13287 1465 91       		.byte	0x91
 13288 1466 F67D     		.sleb128 -266
 13289 1468 9F       		.byte	0x9f
 13290 1469 72000000 		.4byte	.LVL347
 13291 146d 8A000000 		.4byte	.LVL350
 13292 1471 0400     		.2byte	0x4
 13293 1473 91       		.byte	0x91
 13294 1474 F77D     		.sleb128 -265
 13295 1476 9F       		.byte	0x9f
 13296 1477 8A000000 		.4byte	.LVL350
 13297 147b 8C010000 		.4byte	.LFE78
 13298 147f 0400     		.2byte	0x4
 13299 1481 91       		.byte	0x91
 13300 1482 FB7D     		.sleb128 -261
 13301 1484 9F       		.byte	0x9f
 13302 1485 00000000 		.4byte	0
 13303 1489 00000000 		.4byte	0
 13304              	.LLST84:
 13305 148d 6C000000 		.4byte	.LVL346
 13306 1491 8C000000 		.4byte	.LVL351
 13307 1495 0100     		.2byte	0x1
 13308 1497 57       		.byte	0x57
 13309 1498 00000000 		.4byte	0
 13310 149c 00000000 		.4byte	0
 13311              	.LLST85:
 13312 14a0 00000000 		.4byte	.LVL376
 13313 14a4 10000000 		.4byte	.LVL380
 13314 14a8 0100     		.2byte	0x1
 13315 14aa 50       		.byte	0x50
 13316 14ab 10000000 		.4byte	.LVL380
 13317 14af 4C000000 		.4byte	.LVL390
 13318 14b3 0100     		.2byte	0x1
 13319 14b5 56       		.byte	0x56
 13320 14b6 4C000000 		.4byte	.LVL390
 13321 14ba 4E000000 		.4byte	.LFE81
 13322 14be 0400     		.2byte	0x4
 13323 14c0 F3       		.byte	0xf3
 13324 14c1 01       		.uleb128 0x1
 13325 14c2 50       		.byte	0x50
 13326 14c3 9F       		.byte	0x9f
 13327 14c4 00000000 		.4byte	0
 13328 14c8 00000000 		.4byte	0
 13329              	.LLST86:
 13330 14cc 00000000 		.4byte	.LVL376
 13331 14d0 30000000 		.4byte	.LVL385
 13332 14d4 0200     		.2byte	0x2
 13333 14d6 31       		.byte	0x31
 13334 14d7 9F       		.byte	0x9f
 13335 14d8 30000000 		.4byte	.LVL385
 13336 14dc 38000000 		.4byte	.LVL387
 13337 14e0 0200     		.2byte	0x2
 13338 14e2 32       		.byte	0x32
 13339 14e3 9F       		.byte	0x9f
 13340 14e4 38000000 		.4byte	.LVL387
 13341 14e8 4C000000 		.4byte	.LVL389
 13342 14ec 0100     		.2byte	0x1
 13343 14ee 54       		.byte	0x54
ARM GAS  C:\Users\Administrator\AppData\Local\Temp\ccexfbaX.s 			page 282


 13344 14ef 00000000 		.4byte	0
 13345 14f3 00000000 		.4byte	0
 13346              	.LLST87:
 13347 14f7 06000000 		.4byte	.LVL377
 13348 14fb 08000000 		.4byte	.LVL378
 13349 14ff 0400     		.2byte	0x4
 13350 1501 91       		.byte	0x91
 13351 1502 A87F     		.sleb128 -88
 13352 1504 9F       		.byte	0x9f
 13353 1505 08000000 		.4byte	.LVL378
 13354 1509 1E000000 		.4byte	.LVL382
 13355 150d 0100     		.2byte	0x1
 13356 150f 55       		.byte	0x55
 13357 1510 1E000000 		.4byte	.LVL382
 13358 1514 4E000000 		.4byte	.LFE81
 13359 1518 0400     		.2byte	0x4
 13360 151a 91       		.byte	0x91
 13361 151b B27F     		.sleb128 -78
 13362 151d 9F       		.byte	0x9f
 13363 151e 00000000 		.4byte	0
 13364 1522 00000000 		.4byte	0
 13365              	.LLST88:
 13366 1526 0A000000 		.4byte	.LVL379
 13367 152a 4C000000 		.4byte	.LVL391
 13368 152e 0100     		.2byte	0x1
 13369 1530 57       		.byte	0x57
 13370 1531 00000000 		.4byte	0
 13371 1535 00000000 		.4byte	0
 13372              	.LLST89:
 13373 1539 00000000 		.4byte	.LVL392
 13374 153d 22000000 		.4byte	.LVL396
 13375 1541 0100     		.2byte	0x1
 13376 1543 50       		.byte	0x50
 13377 1544 22000000 		.4byte	.LVL396
 13378 1548 96010000 		.4byte	.LVL437
 13379 154c 0100     		.2byte	0x1
 13380 154e 54       		.byte	0x54
 13381 154f 96010000 		.4byte	.LVL437
 13382 1553 A4010000 		.4byte	.LFE84
 13383 1557 0400     		.2byte	0x4
 13384 1559 F3       		.byte	0xf3
 13385 155a 01       		.uleb128 0x1
 13386 155b 50       		.byte	0x50
 13387 155c 9F       		.byte	0x9f
 13388 155d 00000000 		.4byte	0
 13389 1561 00000000 		.4byte	0
 13390              	.LLST90:
 13391 1565 A2000000 		.4byte	.LVL410
 13392 1569 AE000000 		.4byte	.LVL412
 13393 156d 0200     		.2byte	0x2
 13394 156f 30       		.byte	0x30
 13395 1570 9F       		.byte	0x9f
 13396 1571 B4000000 		.4byte	.LVL413
 13397 1575 FE000000 		.4byte	.LVL419
 13398 1579 0300     		.2byte	0x3
 13399 157b 91       		.byte	0x91
 13400 157c C87B     		.sleb128 -568
ARM GAS  C:\Users\Administrator\AppData\Local\Temp\ccexfbaX.s 			page 283


 13401 157e 16010000 		.4byte	.LVL423
 13402 1582 18010000 		.4byte	.LVL424
 13403 1586 0200     		.2byte	0x2
 13404 1588 30       		.byte	0x30
 13405 1589 9F       		.byte	0x9f
 13406 158a 18010000 		.4byte	.LVL424
 13407 158e 42010000 		.4byte	.LVL428
 13408 1592 0100     		.2byte	0x1
 13409 1594 56       		.byte	0x56
 13410 1595 00000000 		.4byte	0
 13411 1599 00000000 		.4byte	0
 13412              	.LLST91:
 13413 159d 00000000 		.4byte	.LVL392
 13414 15a1 78000000 		.4byte	.LVL404
 13415 15a5 0200     		.2byte	0x2
 13416 15a7 31       		.byte	0x31
 13417 15a8 9F       		.byte	0x9f
 13418 15a9 78000000 		.4byte	.LVL404
 13419 15ad A4010000 		.4byte	.LFE84
 13420 15b1 0300     		.2byte	0x3
 13421 15b3 91       		.byte	0x91
 13422 15b4 D07B     		.sleb128 -560
 13423 15b6 00000000 		.4byte	0
 13424 15ba 00000000 		.4byte	0
 13425              	.LLST92:
 13426 15be 08000000 		.4byte	.LVL393
 13427 15c2 1A000000 		.4byte	.LVL395
 13428 15c6 0400     		.2byte	0x4
 13429 15c8 91       		.byte	0x91
 13430 15c9 E87B     		.sleb128 -536
 13431 15cb 9F       		.byte	0x9f
 13432 15cc 1A000000 		.4byte	.LVL395
 13433 15d0 36000000 		.4byte	.LVL400
 13434 15d4 0100     		.2byte	0x1
 13435 15d6 55       		.byte	0x55
 13436 15d7 36000000 		.4byte	.LVL400
 13437 15db 98000000 		.4byte	.LVL408
 13438 15df 0400     		.2byte	0x4
 13439 15e1 91       		.byte	0x91
 13440 15e2 EE7B     		.sleb128 -530
 13441 15e4 9F       		.byte	0x9f
 13442 15e5 98000000 		.4byte	.LVL408
 13443 15e9 9E000000 		.4byte	.LVL409
 13444 15ed 0400     		.2byte	0x4
 13445 15ef 91       		.byte	0x91
 13446 15f0 EF7B     		.sleb128 -529
 13447 15f2 9F       		.byte	0x9f
 13448 15f3 9E000000 		.4byte	.LVL409
 13449 15f7 A2000000 		.4byte	.LVL410
 13450 15fb 0400     		.2byte	0x4
 13451 15fd 91       		.byte	0x91
 13452 15fe F07B     		.sleb128 -528
 13453 1600 9F       		.byte	0x9f
 13454 1601 A2000000 		.4byte	.LVL410
 13455 1605 AE000000 		.4byte	.LVL412
 13456 1609 0400     		.2byte	0x4
 13457 160b 91       		.byte	0x91
ARM GAS  C:\Users\Administrator\AppData\Local\Temp\ccexfbaX.s 			page 284


 13458 160c F17B     		.sleb128 -527
 13459 160e 9F       		.byte	0x9f
 13460 160f B4000000 		.4byte	.LVL413
 13461 1613 D6000000 		.4byte	.LVL415
 13462 1617 0100     		.2byte	0x1
 13463 1619 55       		.byte	0x55
 13464 161a D6000000 		.4byte	.LVL415
 13465 161e F0000000 		.4byte	.LVL418
 13466 1622 0300     		.2byte	0x3
 13467 1624 75       		.byte	0x75
 13468 1625 11       		.sleb128 17
 13469 1626 9F       		.byte	0x9f
 13470 1627 F0000000 		.4byte	.LVL418
 13471 162b FE000000 		.4byte	.LVL419
 13472 162f 0100     		.2byte	0x1
 13473 1631 55       		.byte	0x55
 13474 1632 FE000000 		.4byte	.LVL419
 13475 1636 04010000 		.4byte	.LVL420
 13476 163a 0400     		.2byte	0x4
 13477 163c 91       		.byte	0x91
 13478 163d EF7B     		.sleb128 -529
 13479 163f 9F       		.byte	0x9f
 13480 1640 04010000 		.4byte	.LVL420
 13481 1644 14010000 		.4byte	.LVL422
 13482 1648 0400     		.2byte	0x4
 13483 164a 91       		.byte	0x91
 13484 164b F07B     		.sleb128 -528
 13485 164d 9F       		.byte	0x9f
 13486 164e 14010000 		.4byte	.LVL422
 13487 1652 18010000 		.4byte	.LVL424
 13488 1656 0400     		.2byte	0x4
 13489 1658 91       		.byte	0x91
 13490 1659 F17B     		.sleb128 -527
 13491 165b 9F       		.byte	0x9f
 13492 165c 18010000 		.4byte	.LVL424
 13493 1660 34010000 		.4byte	.LVL426
 13494 1664 0100     		.2byte	0x1
 13495 1666 57       		.byte	0x57
 13496 1667 34010000 		.4byte	.LVL426
 13497 166b 46010000 		.4byte	.LVL429
 13498 166f 0300     		.2byte	0x3
 13499 1671 77       		.byte	0x77
 13500 1672 11       		.sleb128 17
 13501 1673 9F       		.byte	0x9f
 13502 1674 46010000 		.4byte	.LVL429
 13503 1678 4C010000 		.4byte	.LVL430
 13504 167c 0100     		.2byte	0x1
 13505 167e 57       		.byte	0x57
 13506 167f 5E010000 		.4byte	.LVL432
 13507 1683 6C010000 		.4byte	.LVL433
 13508 1687 0100     		.2byte	0x1
 13509 1689 57       		.byte	0x57
 13510 168a 6C010000 		.4byte	.LVL433
 13511 168e 96010000 		.4byte	.LVL438
 13512 1692 0300     		.2byte	0x3
 13513 1694 77       		.byte	0x77
 13514 1695 04       		.sleb128 4
ARM GAS  C:\Users\Administrator\AppData\Local\Temp\ccexfbaX.s 			page 285


 13515 1696 9F       		.byte	0x9f
 13516 1697 00000000 		.4byte	0
 13517 169b 00000000 		.4byte	0
 13518              	.LLST93:
 13519 169f 48000000 		.4byte	.LVL401
 13520 16a3 7D000000 		.4byte	.LVL405-1
 13521 16a7 1000     		.2byte	0x10
 13522 16a9 74       		.byte	0x74
 13523 16aa 0D       		.sleb128 13
 13524 16ab 93       		.byte	0x93
 13525 16ac 01       		.uleb128 0x1
 13526 16ad 74       		.byte	0x74
 13527 16ae 0E       		.sleb128 14
 13528 16af 93       		.byte	0x93
 13529 16b0 01       		.uleb128 0x1
 13530 16b1 74       		.byte	0x74
 13531 16b2 0F       		.sleb128 15
 13532 16b3 93       		.byte	0x93
 13533 16b4 01       		.uleb128 0x1
 13534 16b5 74       		.byte	0x74
 13535 16b6 10       		.sleb128 16
 13536 16b7 93       		.byte	0x93
 13537 16b8 01       		.uleb128 0x1
 13538 16b9 00000000 		.4byte	0
 13539 16bd 00000000 		.4byte	0
 13540              	.LLST94:
 13541 16c1 48000000 		.4byte	.LVL401
 13542 16c5 7D000000 		.4byte	.LVL405-1
 13543 16c9 1000     		.2byte	0x10
 13544 16cb 74       		.byte	0x74
 13545 16cc 11       		.sleb128 17
 13546 16cd 93       		.byte	0x93
 13547 16ce 01       		.uleb128 0x1
 13548 16cf 74       		.byte	0x74
 13549 16d0 12       		.sleb128 18
 13550 16d1 93       		.byte	0x93
 13551 16d2 01       		.uleb128 0x1
 13552 16d3 74       		.byte	0x74
 13553 16d4 13       		.sleb128 19
 13554 16d5 93       		.byte	0x93
 13555 16d6 01       		.uleb128 0x1
 13556 16d7 74       		.byte	0x74
 13557 16d8 14       		.sleb128 20
 13558 16d9 93       		.byte	0x93
 13559 16da 01       		.uleb128 0x1
 13560 16db 00000000 		.4byte	0
 13561 16df 00000000 		.4byte	0
 13562              	.LLST95:
 13563 16e3 60000000 		.4byte	.LVL402
 13564 16e7 90000000 		.4byte	.LVL407
 13565 16eb 0100     		.2byte	0x1
 13566 16ed 56       		.byte	0x56
 13567 16ee 00000000 		.4byte	0
 13568 16f2 00000000 		.4byte	0
 13569              	.LLST96:
 13570 16f6 70000000 		.4byte	.LVL403
 13571 16fa 7D000000 		.4byte	.LVL405-1
ARM GAS  C:\Users\Administrator\AppData\Local\Temp\ccexfbaX.s 			page 286


 13572 16fe 0100     		.2byte	0x1
 13573 1700 51       		.byte	0x51
 13574 1701 00000000 		.4byte	0
 13575 1705 00000000 		.4byte	0
 13576              	.LLST97:
 13577 1709 10000000 		.4byte	.LVL394
 13578 170d 36000000 		.4byte	.LVL400
 13579 1711 0200     		.2byte	0x2
 13580 1713 30       		.byte	0x30
 13581 1714 9F       		.byte	0x9f
 13582 1715 36000000 		.4byte	.LVL400
 13583 1719 7D000000 		.4byte	.LVL405-1
 13584 171d 1200     		.2byte	0x12
 13585 171f 74       		.byte	0x74
 13586 1720 15       		.sleb128 21
 13587 1721 94       		.byte	0x94
 13588 1722 01       		.byte	0x1
 13589 1723 08       		.byte	0x8
 13590 1724 FF       		.byte	0xff
 13591 1725 1A       		.byte	0x1a
 13592 1726 38       		.byte	0x38
 13593 1727 24       		.byte	0x24
 13594 1728 74       		.byte	0x74
 13595 1729 16       		.sleb128 22
 13596 172a 94       		.byte	0x94
 13597 172b 01       		.byte	0x1
 13598 172c 08       		.byte	0x8
 13599 172d FF       		.byte	0xff
 13600 172e 1A       		.byte	0x1a
 13601 172f 22       		.byte	0x22
 13602 1730 9F       		.byte	0x9f
 13603 1731 00000000 		.4byte	0
 13604 1735 00000000 		.4byte	0
 13605              	.LLST98:
 13606 1739 24000000 		.4byte	.LVL397
 13607 173d A6000000 		.4byte	.LVL411
 13608 1741 0300     		.2byte	0x3
 13609 1743 91       		.byte	0x91
 13610 1744 D87B     		.sleb128 -552
 13611 1746 A6000000 		.4byte	.LVL411
 13612 174a AE000000 		.4byte	.LVL412
 13613 174e 0200     		.2byte	0x2
 13614 1750 71       		.byte	0x71
 13615 1751 00       		.sleb128 0
 13616 1752 AE000000 		.4byte	.LVL412
 13617 1756 10010000 		.4byte	.LVL421
 13618 175a 0300     		.2byte	0x3
 13619 175c 91       		.byte	0x91
 13620 175d D87B     		.sleb128 -552
 13621 175f 10010000 		.4byte	.LVL421
 13622 1763 18010000 		.4byte	.LVL424
 13623 1767 0200     		.2byte	0x2
 13624 1769 71       		.byte	0x71
 13625 176a 00       		.sleb128 0
 13626 176b 18010000 		.4byte	.LVL424
 13627 176f 5C010000 		.4byte	.LVL431
 13628 1773 0300     		.2byte	0x3
ARM GAS  C:\Users\Administrator\AppData\Local\Temp\ccexfbaX.s 			page 287


 13629 1775 91       		.byte	0x91
 13630 1776 D87B     		.sleb128 -552
 13631 1778 5C010000 		.4byte	.LVL431
 13632 177c 5E010000 		.4byte	.LVL432
 13633 1780 0200     		.2byte	0x2
 13634 1782 73       		.byte	0x73
 13635 1783 00       		.sleb128 0
 13636 1784 5E010000 		.4byte	.LVL432
 13637 1788 72010000 		.4byte	.LVL434
 13638 178c 0300     		.2byte	0x3
 13639 178e 91       		.byte	0x91
 13640 178f D87B     		.sleb128 -552
 13641 1791 72010000 		.4byte	.LVL434
 13642 1795 7A010000 		.4byte	.LVL435
 13643 1799 0200     		.2byte	0x2
 13644 179b 72       		.byte	0x72
 13645 179c 00       		.sleb128 0
 13646 179d 7A010000 		.4byte	.LVL435
 13647 17a1 A4010000 		.4byte	.LFE84
 13648 17a5 0300     		.2byte	0x3
 13649 17a7 91       		.byte	0x91
 13650 17a8 D87B     		.sleb128 -552
 13651 17aa 00000000 		.4byte	0
 13652 17ae 00000000 		.4byte	0
 13653              	.LLST99:
 13654 17b2 00000000 		.4byte	.LVL439
 13655 17b6 10000000 		.4byte	.LVL442
 13656 17ba 0100     		.2byte	0x1
 13657 17bc 50       		.byte	0x50
 13658 17bd 10000000 		.4byte	.LVL442
 13659 17c1 E4000000 		.4byte	.LVL462
 13660 17c5 0100     		.2byte	0x1
 13661 17c7 55       		.byte	0x55
 13662 17c8 E4000000 		.4byte	.LVL462
 13663 17cc 00010000 		.4byte	.LFE85
 13664 17d0 0400     		.2byte	0x4
 13665 17d2 F3       		.byte	0xf3
 13666 17d3 01       		.uleb128 0x1
 13667 17d4 50       		.byte	0x50
 13668 17d5 9F       		.byte	0x9f
 13669 17d6 00000000 		.4byte	0
 13670 17da 00000000 		.4byte	0
 13671              	.LLST100:
 13672 17de 00000000 		.4byte	.LVL439
 13673 17e2 D0000000 		.4byte	.LVL460
 13674 17e6 0200     		.2byte	0x2
 13675 17e8 31       		.byte	0x31
 13676 17e9 9F       		.byte	0x9f
 13677 17ea D0000000 		.4byte	.LVL460
 13678 17ee E4000000 		.4byte	.LVL463
 13679 17f2 0100     		.2byte	0x1
 13680 17f4 57       		.byte	0x57
 13681 17f5 00000000 		.4byte	0
 13682 17f9 00000000 		.4byte	0
 13683              	.LLST101:
 13684 17fd 06000000 		.4byte	.LVL440
 13685 1801 0A000000 		.4byte	.LVL441
ARM GAS  C:\Users\Administrator\AppData\Local\Temp\ccexfbaX.s 			page 288


 13686 1805 0400     		.2byte	0x4
 13687 1807 91       		.byte	0x91
 13688 1808 A87F     		.sleb128 -88
 13689 180a 9F       		.byte	0x9f
 13690 180b 0A000000 		.4byte	.LVL441
 13691 180f 16000000 		.4byte	.LVL444
 13692 1813 0100     		.2byte	0x1
 13693 1815 56       		.byte	0x56
 13694 1816 16000000 		.4byte	.LVL444
 13695 181a 8C000000 		.4byte	.LVL455
 13696 181e 0400     		.2byte	0x4
 13697 1820 91       		.byte	0x91
 13698 1821 AE7F     		.sleb128 -82
 13699 1823 9F       		.byte	0x9f
 13700 1824 8C000000 		.4byte	.LVL455
 13701 1828 98000000 		.4byte	.LVL457
 13702 182c 0400     		.2byte	0x4
 13703 182e 91       		.byte	0x91
 13704 182f AF7F     		.sleb128 -81
 13705 1831 9F       		.byte	0x9f
 13706 1832 98000000 		.4byte	.LVL457
 13707 1836 A8000000 		.4byte	.LVL458
 13708 183a 0400     		.2byte	0x4
 13709 183c 91       		.byte	0x91
 13710 183d B07F     		.sleb128 -80
 13711 183f 9F       		.byte	0x9f
 13712 1840 A8000000 		.4byte	.LVL458
 13713 1844 AD000000 		.4byte	.LVL459-1
 13714 1848 0100     		.2byte	0x1
 13715 184a 50       		.byte	0x50
 13716 184b AD000000 		.4byte	.LVL459-1
 13717 184f AE000000 		.4byte	.LVL459
 13718 1853 0400     		.2byte	0x4
 13719 1855 91       		.byte	0x91
 13720 1856 B07F     		.sleb128 -80
 13721 1858 9F       		.byte	0x9f
 13722 1859 AE000000 		.4byte	.LVL459
 13723 185d D0000000 		.4byte	.LVL460
 13724 1861 0400     		.2byte	0x4
 13725 1863 91       		.byte	0x91
 13726 1864 B47F     		.sleb128 -76
 13727 1866 9F       		.byte	0x9f
 13728 1867 D0000000 		.4byte	.LVL460
 13729 186b 00010000 		.4byte	.LFE85
 13730 186f 0400     		.2byte	0x4
 13731 1871 91       		.byte	0x91
 13732 1872 B57F     		.sleb128 -75
 13733 1874 9F       		.byte	0x9f
 13734 1875 00000000 		.4byte	0
 13735 1879 00000000 		.4byte	0
 13736              	.LLST102:
 13737 187d 46000000 		.4byte	.LVL448
 13738 1881 92000000 		.4byte	.LVL456
 13739 1885 4000     		.2byte	0x40
 13740 1887 74       		.byte	0x74
 13741 1888 00       		.sleb128 0
 13742 1889 F7       		.byte	0xf7
ARM GAS  C:\Users\Administrator\AppData\Local\Temp\ccexfbaX.s 			page 289


 13743 188a 25       		.uleb128 0x25
 13744 188b 0A       		.byte	0xa
 13745 188c E803     		.2byte	0x3e8
 13746 188e F7       		.byte	0xf7
 13747 188f 25       		.uleb128 0x25
 13748 1890 1B       		.byte	0x1b
 13749 1891 F7       		.byte	0xf7
 13750 1892 00       		.uleb128 0
 13751 1893 23       		.byte	0x23
 13752 1894 30       		.uleb128 0x30
 13753 1895 9F       		.byte	0x9f
 13754 1896 93       		.byte	0x93
 13755 1897 01       		.uleb128 0x1
 13756 1898 74       		.byte	0x74
 13757 1899 00       		.sleb128 0
 13758 189a 0A       		.byte	0xa
 13759 189b E803     		.2byte	0x3e8
 13760 189d 1D       		.byte	0x1d
 13761 189e F7       		.byte	0xf7
 13762 189f 25       		.uleb128 0x25
 13763 18a0 08       		.byte	0x8
 13764 18a1 64       		.byte	0x64
 13765 18a2 F7       		.byte	0xf7
 13766 18a3 25       		.uleb128 0x25
 13767 18a4 1B       		.byte	0x1b
 13768 18a5 F7       		.byte	0xf7
 13769 18a6 00       		.uleb128 0
 13770 18a7 23       		.byte	0x23
 13771 18a8 30       		.uleb128 0x30
 13772 18a9 9F       		.byte	0x9f
 13773 18aa 93       		.byte	0x93
 13774 18ab 01       		.uleb128 0x1
 13775 18ac 74       		.byte	0x74
 13776 18ad 00       		.sleb128 0
 13777 18ae 08       		.byte	0x8
 13778 18af 64       		.byte	0x64
 13779 18b0 1D       		.byte	0x1d
 13780 18b1 F7       		.byte	0xf7
 13781 18b2 25       		.uleb128 0x25
 13782 18b3 3A       		.byte	0x3a
 13783 18b4 F7       		.byte	0xf7
 13784 18b5 25       		.uleb128 0x25
 13785 18b6 1B       		.byte	0x1b
 13786 18b7 F7       		.byte	0xf7
 13787 18b8 00       		.uleb128 0
 13788 18b9 23       		.byte	0x23
 13789 18ba 30       		.uleb128 0x30
 13790 18bb 9F       		.byte	0x9f
 13791 18bc 93       		.byte	0x93
 13792 18bd 01       		.uleb128 0x1
 13793 18be 74       		.byte	0x74
 13794 18bf 00       		.sleb128 0
 13795 18c0 3A       		.byte	0x3a
 13796 18c1 1D       		.byte	0x1d
 13797 18c2 23       		.byte	0x23
 13798 18c3 30       		.uleb128 0x30
 13799 18c4 9F       		.byte	0x9f
ARM GAS  C:\Users\Administrator\AppData\Local\Temp\ccexfbaX.s 			page 290


 13800 18c5 93       		.byte	0x93
 13801 18c6 01       		.uleb128 0x1
 13802 18c7 00000000 		.4byte	0
 13803 18cb 00000000 		.4byte	0
 13804              	.LLST103:
 13805 18cf 46000000 		.4byte	.LVL448
 13806 18d3 92000000 		.4byte	.LVL456
 13807 18d7 0100     		.2byte	0x1
 13808 18d9 54       		.byte	0x54
 13809 18da 00000000 		.4byte	0
 13810 18de 00000000 		.4byte	0
 13811              	.LLST104:
 13812 18e2 00000000 		.4byte	.LVL464
 13813 18e6 16000000 		.4byte	.LVL468
 13814 18ea 0100     		.2byte	0x1
 13815 18ec 50       		.byte	0x50
 13816 18ed 16000000 		.4byte	.LVL468
 13817 18f1 50000000 		.4byte	.LVL475
 13818 18f5 0100     		.2byte	0x1
 13819 18f7 55       		.byte	0x55
 13820 18f8 50000000 		.4byte	.LVL475
 13821 18fc 58000000 		.4byte	.LFE86
 13822 1900 0400     		.2byte	0x4
 13823 1902 F3       		.byte	0xf3
 13824 1903 01       		.uleb128 0x1
 13825 1904 50       		.byte	0x50
 13826 1905 9F       		.byte	0x9f
 13827 1906 00000000 		.4byte	0
 13828 190a 00000000 		.4byte	0
 13829              	.LLST105:
 13830 190e 06000000 		.4byte	.LVL465
 13831 1912 0C000000 		.4byte	.LVL466
 13832 1916 0400     		.2byte	0x4
 13833 1918 91       		.byte	0x91
 13834 1919 A87F     		.sleb128 -88
 13835 191b 9F       		.byte	0x9f
 13836 191c 0C000000 		.4byte	.LVL466
 13837 1920 2C000000 		.4byte	.LVL471
 13838 1924 0100     		.2byte	0x1
 13839 1926 56       		.byte	0x56
 13840 1927 2C000000 		.4byte	.LVL471
 13841 192b 38000000 		.4byte	.LVL472
 13842 192f 0400     		.2byte	0x4
 13843 1931 91       		.byte	0x91
 13844 1932 AE7F     		.sleb128 -82
 13845 1934 9F       		.byte	0x9f
 13846 1935 38000000 		.4byte	.LVL472
 13847 1939 58000000 		.4byte	.LFE86
 13848 193d 0400     		.2byte	0x4
 13849 193f 91       		.byte	0x91
 13850 1940 B27F     		.sleb128 -78
 13851 1942 9F       		.byte	0x9f
 13852 1943 00000000 		.4byte	0
 13853 1947 00000000 		.4byte	0
 13854              	.LLST106:
 13855 194b 10000000 		.4byte	.LVL467
 13856 194f 50000000 		.4byte	.LVL476
ARM GAS  C:\Users\Administrator\AppData\Local\Temp\ccexfbaX.s 			page 291


 13857 1953 0100     		.2byte	0x1
 13858 1955 57       		.byte	0x57
 13859 1956 00000000 		.4byte	0
 13860 195a 00000000 		.4byte	0
 13861              	.LLST107:
 13862 195e 2C000000 		.4byte	.LVL471
 13863 1962 50000000 		.4byte	.LVL474
 13864 1966 0100     		.2byte	0x1
 13865 1968 54       		.byte	0x54
 13866 1969 00000000 		.4byte	0
 13867 196d 00000000 		.4byte	0
 13868              	.LLST108:
 13869 1971 00000000 		.4byte	.LVL477
 13870 1975 1E000000 		.4byte	.LVL481
 13871 1979 0100     		.2byte	0x1
 13872 197b 50       		.byte	0x50
 13873 197c 1E000000 		.4byte	.LVL481
 13874 1980 B2000000 		.4byte	.LVL498
 13875 1984 0100     		.2byte	0x1
 13876 1986 55       		.byte	0x55
 13877 1987 B2000000 		.4byte	.LVL498
 13878 198b B8000000 		.4byte	.LFE88
 13879 198f 0400     		.2byte	0x4
 13880 1991 F3       		.byte	0xf3
 13881 1992 01       		.uleb128 0x1
 13882 1993 50       		.byte	0x50
 13883 1994 9F       		.byte	0x9f
 13884 1995 00000000 		.4byte	0
 13885 1999 00000000 		.4byte	0
 13886              	.LLST109:
 13887 199d 00000000 		.4byte	.LVL477
 13888 19a1 3C000000 		.4byte	.LVL486
 13889 19a5 0200     		.2byte	0x2
 13890 19a7 31       		.byte	0x31
 13891 19a8 9F       		.byte	0x9f
 13892 19a9 00000000 		.4byte	0
 13893 19ad 00000000 		.4byte	0
 13894              	.LLST110:
 13895 19b1 08000000 		.4byte	.LVL478
 13896 19b5 14000000 		.4byte	.LVL480
 13897 19b9 0400     		.2byte	0x4
 13898 19bb 91       		.byte	0x91
 13899 19bc A87F     		.sleb128 -88
 13900 19be 9F       		.byte	0x9f
 13901 19bf 14000000 		.4byte	.LVL480
 13902 19c3 2E000000 		.4byte	.LVL484
 13903 19c7 0100     		.2byte	0x1
 13904 19c9 56       		.byte	0x56
 13905 19ca 2E000000 		.4byte	.LVL484
 13906 19ce 4E000000 		.4byte	.LVL488
 13907 19d2 0400     		.2byte	0x4
 13908 19d4 91       		.byte	0x91
 13909 19d5 AF7F     		.sleb128 -81
 13910 19d7 9F       		.byte	0x9f
 13911 19d8 4E000000 		.4byte	.LVL488
 13912 19dc B8000000 		.4byte	.LFE88
 13913 19e0 0400     		.2byte	0x4
ARM GAS  C:\Users\Administrator\AppData\Local\Temp\ccexfbaX.s 			page 292


 13914 19e2 91       		.byte	0x91
 13915 19e3 B37F     		.sleb128 -77
 13916 19e5 9F       		.byte	0x9f
 13917 19e6 00000000 		.4byte	0
 13918 19ea 00000000 		.4byte	0
 13919              	.LLST111:
 13920 19ee 0C000000 		.4byte	.LVL479
 13921 19f2 42000000 		.4byte	.LVL487
 13922 19f6 0300     		.2byte	0x3
 13923 19f8 91       		.byte	0x91
 13924 19f9 A07F     		.sleb128 -96
 13925 19fb 42000000 		.4byte	.LVL487
 13926 19ff 4D000000 		.4byte	.LVL488-1
 13927 1a03 0200     		.2byte	0x2
 13928 1a05 73       		.byte	0x73
 13929 1a06 00       		.sleb128 0
 13930 1a07 4D000000 		.4byte	.LVL488-1
 13931 1a0b B8000000 		.4byte	.LFE88
 13932 1a0f 0300     		.2byte	0x3
 13933 1a11 91       		.byte	0x91
 13934 1a12 A07F     		.sleb128 -96
 13935 1a14 00000000 		.4byte	0
 13936 1a18 00000000 		.4byte	0
 13937              	.LLST112:
 13938 1a1c 36000000 		.4byte	.LVL485
 13939 1a20 B2000000 		.4byte	.LVL497
 13940 1a24 0100     		.2byte	0x1
 13941 1a26 54       		.byte	0x54
 13942 1a27 00000000 		.4byte	0
 13943 1a2b 00000000 		.4byte	0
 13944              	.LLST113:
 13945 1a2f 3E000000 		.4byte	.LVL501
 13946 1a33 53000000 		.4byte	.LVL502-1
 13947 1a37 1600     		.2byte	0x16
 13948 1a39 91       		.byte	0x91
 13949 1a3a D677     		.sleb128 -1066
 13950 1a3c 94       		.byte	0x94
 13951 1a3d 01       		.byte	0x1
 13952 1a3e 08       		.byte	0x8
 13953 1a3f FF       		.byte	0xff
 13954 1a40 1A       		.byte	0x1a
 13955 1a41 38       		.byte	0x38
 13956 1a42 24       		.byte	0x24
 13957 1a43 91       		.byte	0x91
 13958 1a44 D777     		.sleb128 -1065
 13959 1a46 94       		.byte	0x94
 13960 1a47 01       		.byte	0x1
 13961 1a48 08       		.byte	0x8
 13962 1a49 FF       		.byte	0xff
 13963 1a4a 1A       		.byte	0x1a
 13964 1a4b 22       		.byte	0x22
 13965 1a4c 23       		.byte	0x23
 13966 1a4d 04       		.uleb128 0x4
 13967 1a4e 9F       		.byte	0x9f
 13968 1a4f 00000000 		.4byte	0
 13969 1a53 00000000 		.4byte	0
 13970              	.LLST114:
ARM GAS  C:\Users\Administrator\AppData\Local\Temp\ccexfbaX.s 			page 293


 13971 1a57 54000000 		.4byte	.LVL502
 13972 1a5b 80000000 		.4byte	.LVL503
 13973 1a5f 0100     		.2byte	0x1
 13974 1a61 50       		.byte	0x50
 13975 1a62 86000000 		.4byte	.LVL505
 13976 1a66 8E000000 		.4byte	.LVL506
 13977 1a6a 0100     		.2byte	0x1
 13978 1a6c 50       		.byte	0x50
 13979 1a6d 94000000 		.4byte	.LVL508
 13980 1a71 A6000000 		.4byte	.LVL509
 13981 1a75 0100     		.2byte	0x1
 13982 1a77 50       		.byte	0x50
 13983 1a78 AC000000 		.4byte	.LVL511
 13984 1a7c BC000000 		.4byte	.LVL512
 13985 1a80 0100     		.2byte	0x1
 13986 1a82 50       		.byte	0x50
 13987 1a83 C2000000 		.4byte	.LVL514
 13988 1a87 E0000000 		.4byte	.LVL516
 13989 1a8b 0100     		.2byte	0x1
 13990 1a8d 50       		.byte	0x50
 13991 1a8e E6000000 		.4byte	.LVL518
 13992 1a92 E8000000 		.4byte	.LVL519
 13993 1a96 0100     		.2byte	0x1
 13994 1a98 50       		.byte	0x50
 13995 1a99 EE000000 		.4byte	.LVL521
 13996 1a9d F0000000 		.4byte	.LVL522
 13997 1aa1 0100     		.2byte	0x1
 13998 1aa3 50       		.byte	0x50
 13999 1aa4 F6000000 		.4byte	.LVL524
 14000 1aa8 F8000000 		.4byte	.LVL525
 14001 1aac 0100     		.2byte	0x1
 14002 1aae 50       		.byte	0x50
 14003 1aaf FE000000 		.4byte	.LVL527
 14004 1ab3 00010000 		.4byte	.LVL528
 14005 1ab7 0100     		.2byte	0x1
 14006 1ab9 50       		.byte	0x50
 14007 1aba 06010000 		.4byte	.LVL530
 14008 1abe 08010000 		.4byte	.LVL531
 14009 1ac2 0100     		.2byte	0x1
 14010 1ac4 50       		.byte	0x50
 14011 1ac5 0E010000 		.4byte	.LVL533
 14012 1ac9 10010000 		.4byte	.LVL534
 14013 1acd 0100     		.2byte	0x1
 14014 1acf 50       		.byte	0x50
 14015 1ad0 16010000 		.4byte	.LVL536
 14016 1ad4 18010000 		.4byte	.LVL537
 14017 1ad8 0100     		.2byte	0x1
 14018 1ada 50       		.byte	0x50
 14019 1adb 1E010000 		.4byte	.LVL539
 14020 1adf 20010000 		.4byte	.LVL540
 14021 1ae3 0100     		.2byte	0x1
 14022 1ae5 50       		.byte	0x50
 14023 1ae6 26010000 		.4byte	.LVL542
 14024 1aea 28010000 		.4byte	.LVL543
 14025 1aee 0100     		.2byte	0x1
 14026 1af0 50       		.byte	0x50
 14027 1af1 2E010000 		.4byte	.LVL545
ARM GAS  C:\Users\Administrator\AppData\Local\Temp\ccexfbaX.s 			page 294


 14028 1af5 30010000 		.4byte	.LVL546
 14029 1af9 0100     		.2byte	0x1
 14030 1afb 50       		.byte	0x50
 14031 1afc 00000000 		.4byte	0
 14032 1b00 00000000 		.4byte	0
 14033              	.LLST115:
 14034 1b04 C2000000 		.4byte	.LVL514
 14035 1b08 DE000000 		.4byte	.LVL515
 14036 1b0c 0100     		.2byte	0x1
 14037 1b0e 55       		.byte	0x55
 14038 1b0f 00000000 		.4byte	0
 14039 1b13 00000000 		.4byte	0
 14040              	.LLST116:
 14041 1b17 C2000000 		.4byte	.LVL514
 14042 1b1b DE000000 		.4byte	.LVL515
 14043 1b1f 0300     		.2byte	0x3
 14044 1b21 75       		.byte	0x75
 14045 1b22 11       		.sleb128 17
 14046 1b23 9F       		.byte	0x9f
 14047 1b24 00000000 		.4byte	0
 14048 1b28 00000000 		.4byte	0
 14049              	.LLST117:
 14050 1b2c 2A000000 		.4byte	.LVL550
 14051 1b30 3F000000 		.4byte	.LVL551-1
 14052 1b34 1600     		.2byte	0x16
 14053 1b36 91       		.byte	0x91
 14054 1b37 CE77     		.sleb128 -1074
 14055 1b39 94       		.byte	0x94
 14056 1b3a 01       		.byte	0x1
 14057 1b3b 08       		.byte	0x8
 14058 1b3c FF       		.byte	0xff
 14059 1b3d 1A       		.byte	0x1a
 14060 1b3e 38       		.byte	0x38
 14061 1b3f 24       		.byte	0x24
 14062 1b40 91       		.byte	0x91
 14063 1b41 CF77     		.sleb128 -1073
 14064 1b43 94       		.byte	0x94
 14065 1b44 01       		.byte	0x1
 14066 1b45 08       		.byte	0x8
 14067 1b46 FF       		.byte	0xff
 14068 1b47 1A       		.byte	0x1a
 14069 1b48 22       		.byte	0x22
 14070 1b49 23       		.byte	0x23
 14071 1b4a 04       		.uleb128 0x4
 14072 1b4b 9F       		.byte	0x9f
 14073 1b4c 00000000 		.4byte	0
 14074 1b50 00000000 		.4byte	0
 14075              	.LLST118:
 14076 1b54 40000000 		.4byte	.LVL551
 14077 1b58 72000000 		.4byte	.LVL552
 14078 1b5c 0100     		.2byte	0x1
 14079 1b5e 50       		.byte	0x50
 14080 1b5f 78000000 		.4byte	.LVL554
 14081 1b63 8A000000 		.4byte	.LVL555
 14082 1b67 0100     		.2byte	0x1
 14083 1b69 50       		.byte	0x50
 14084 1b6a 90000000 		.4byte	.LVL557
ARM GAS  C:\Users\Administrator\AppData\Local\Temp\ccexfbaX.s 			page 295


 14085 1b6e A2000000 		.4byte	.LVL558
 14086 1b72 0100     		.2byte	0x1
 14087 1b74 50       		.byte	0x50
 14088 1b75 A8000000 		.4byte	.LVL560
 14089 1b79 BC000000 		.4byte	.LVL562
 14090 1b7d 0100     		.2byte	0x1
 14091 1b7f 50       		.byte	0x50
 14092 1b80 20010000 		.4byte	.LVL574
 14093 1b84 3E010000 		.4byte	.LVL576
 14094 1b88 0100     		.2byte	0x1
 14095 1b8a 50       		.byte	0x50
 14096 1b8b 44010000 		.4byte	.LVL578
 14097 1b8f 46010000 		.4byte	.LVL579
 14098 1b93 0100     		.2byte	0x1
 14099 1b95 50       		.byte	0x50
 14100 1b96 4C010000 		.4byte	.LVL581
 14101 1b9a 4E010000 		.4byte	.LVL582
 14102 1b9e 0100     		.2byte	0x1
 14103 1ba0 50       		.byte	0x50
 14104 1ba1 54010000 		.4byte	.LVL584
 14105 1ba5 56010000 		.4byte	.LVL585
 14106 1ba9 0100     		.2byte	0x1
 14107 1bab 50       		.byte	0x50
 14108 1bac 5C010000 		.4byte	.LVL587
 14109 1bb0 5E010000 		.4byte	.LVL588
 14110 1bb4 0100     		.2byte	0x1
 14111 1bb6 50       		.byte	0x50
 14112 1bb7 64010000 		.4byte	.LVL590
 14113 1bbb 66010000 		.4byte	.LVL591
 14114 1bbf 0100     		.2byte	0x1
 14115 1bc1 50       		.byte	0x50
 14116 1bc2 6C010000 		.4byte	.LVL593
 14117 1bc6 6E010000 		.4byte	.LVL594
 14118 1bca 0100     		.2byte	0x1
 14119 1bcc 50       		.byte	0x50
 14120 1bcd 74010000 		.4byte	.LVL596
 14121 1bd1 76010000 		.4byte	.LVL597
 14122 1bd5 0100     		.2byte	0x1
 14123 1bd7 50       		.byte	0x50
 14124 1bd8 7C010000 		.4byte	.LVL599
 14125 1bdc 7E010000 		.4byte	.LVL600
 14126 1be0 0100     		.2byte	0x1
 14127 1be2 50       		.byte	0x50
 14128 1be3 84010000 		.4byte	.LVL602
 14129 1be7 86010000 		.4byte	.LVL603
 14130 1beb 0100     		.2byte	0x1
 14131 1bed 50       		.byte	0x50
 14132 1bee 8C010000 		.4byte	.LVL605
 14133 1bf2 8E010000 		.4byte	.LVL606
 14134 1bf6 0100     		.2byte	0x1
 14135 1bf8 50       		.byte	0x50
 14136 1bf9 94010000 		.4byte	.LVL608
 14137 1bfd 96010000 		.4byte	.LVL609
 14138 1c01 0100     		.2byte	0x1
 14139 1c03 50       		.byte	0x50
 14140 1c04 00000000 		.4byte	0
 14141 1c08 00000000 		.4byte	0
ARM GAS  C:\Users\Administrator\AppData\Local\Temp\ccexfbaX.s 			page 296


 14142              	.LLST119:
 14143 1c0c B6000000 		.4byte	.LVL561
 14144 1c10 20010000 		.4byte	.LVL574
 14145 1c14 0100     		.2byte	0x1
 14146 1c16 55       		.byte	0x55
 14147 1c17 00000000 		.4byte	0
 14148 1c1b 00000000 		.4byte	0
 14149              	.LLST120:
 14150 1c1f C0000000 		.4byte	.LVL563
 14151 1c23 20010000 		.4byte	.LVL574
 14152 1c27 0200     		.2byte	0x2
 14153 1c29 31       		.byte	0x31
 14154 1c2a 9F       		.byte	0x9f
 14155 1c2b 00000000 		.4byte	0
 14156 1c2f 00000000 		.4byte	0
 14157              	.LLST121:
 14158 1c33 C0000000 		.4byte	.LVL563
 14159 1c37 D4000000 		.4byte	.LVL566
 14160 1c3b 0400     		.2byte	0x4
 14161 1c3d 91       		.byte	0x91
 14162 1c3e 8C77     		.sleb128 -1140
 14163 1c40 9F       		.byte	0x9f
 14164 1c41 D4000000 		.4byte	.LVL566
 14165 1c45 F4000000 		.4byte	.LVL569
 14166 1c49 0100     		.2byte	0x1
 14167 1c4b 56       		.byte	0x56
 14168 1c4c F4000000 		.4byte	.LVL569
 14169 1c50 02010000 		.4byte	.LVL570
 14170 1c54 0400     		.2byte	0x4
 14171 1c56 91       		.byte	0x91
 14172 1c57 9277     		.sleb128 -1134
 14173 1c59 9F       		.byte	0x9f
 14174 1c5a 02010000 		.4byte	.LVL570
 14175 1c5e 20010000 		.4byte	.LVL574
 14176 1c62 0400     		.2byte	0x4
 14177 1c64 91       		.byte	0x91
 14178 1c65 9677     		.sleb128 -1130
 14179 1c67 9F       		.byte	0x9f
 14180 1c68 00000000 		.4byte	0
 14181 1c6c 00000000 		.4byte	0
 14182              	.LLST122:
 14183 1c70 CA000000 		.4byte	.LVL564
 14184 1c74 20010000 		.4byte	.LVL574
 14185 1c78 0100     		.2byte	0x1
 14186 1c7a 57       		.byte	0x57
 14187 1c7b 00000000 		.4byte	0
 14188 1c7f 00000000 		.4byte	0
 14189              	.LLST123:
 14190 1c83 F4000000 		.4byte	.LVL569
 14191 1c87 20010000 		.4byte	.LVL574
 14192 1c8b 0100     		.2byte	0x1
 14193 1c8d 54       		.byte	0x54
 14194 1c8e 00000000 		.4byte	0
 14195 1c92 00000000 		.4byte	0
 14196              	.LLST124:
 14197 1c96 20010000 		.4byte	.LVL574
 14198 1c9a 3C010000 		.4byte	.LVL575
ARM GAS  C:\Users\Administrator\AppData\Local\Temp\ccexfbaX.s 			page 297


 14199 1c9e 0100     		.2byte	0x1
 14200 1ca0 55       		.byte	0x55
 14201 1ca1 00000000 		.4byte	0
 14202 1ca5 00000000 		.4byte	0
 14203              	.LLST125:
 14204 1ca9 20010000 		.4byte	.LVL574
 14205 1cad 3C010000 		.4byte	.LVL575
 14206 1cb1 0300     		.2byte	0x3
 14207 1cb3 75       		.byte	0x75
 14208 1cb4 11       		.sleb128 17
 14209 1cb5 9F       		.byte	0x9f
 14210 1cb6 00000000 		.4byte	0
 14211 1cba 00000000 		.4byte	0
 14212              		.section	.debug_aranges,"",%progbits
 14213 0000 EC000000 		.4byte	0xec
 14214 0004 0200     		.2byte	0x2
 14215 0006 00000000 		.4byte	.Ldebug_info0
 14216 000a 04       		.byte	0x4
 14217 000b 00       		.byte	0
 14218 000c 0000     		.2byte	0
 14219 000e 0000     		.2byte	0
 14220 0010 00000000 		.4byte	.LFB73
 14221 0014 30010000 		.4byte	.LFE73-.LFB73
 14222 0018 00000000 		.4byte	.LFB79
 14223 001c 38000000 		.4byte	.LFE79-.LFB79
 14224 0020 00000000 		.4byte	.LFB82
 14225 0024 24000000 		.4byte	.LFE82-.LFB82
 14226 0028 00000000 		.4byte	.LFB80
 14227 002c 54000000 		.4byte	.LFE80-.LFB80
 14228 0030 00000000 		.4byte	.LFB89
 14229 0034 6C000000 		.4byte	.LFE89-.LFB89
 14230 0038 00000000 		.4byte	.LFB63
 14231 003c 60000000 		.4byte	.LFE63-.LFB63
 14232 0040 00000000 		.4byte	.LFB64
 14233 0044 68000000 		.4byte	.LFE64-.LFB64
 14234 0048 00000000 		.4byte	.LFB65
 14235 004c 70000000 		.4byte	.LFE65-.LFB65
 14236 0050 00000000 		.4byte	.LFB66
 14237 0054 84000000 		.4byte	.LFE66-.LFB66
 14238 0058 00000000 		.4byte	.LFB67
 14239 005c 00010000 		.4byte	.LFE67-.LFB67
 14240 0060 00000000 		.4byte	.LFB68
 14241 0064 78000000 		.4byte	.LFE68-.LFB68
 14242 0068 00000000 		.4byte	.LFB69
 14243 006c 8C000000 		.4byte	.LFE69-.LFB69
 14244 0070 00000000 		.4byte	.LFB70
 14245 0074 98000000 		.4byte	.LFE70-.LFB70
 14246 0078 00000000 		.4byte	.LFB71
 14247 007c 8C000000 		.4byte	.LFE71-.LFB71
 14248 0080 00000000 		.4byte	.LFB87
 14249 0084 1C010000 		.4byte	.LFE87-.LFB87
 14250 0088 00000000 		.4byte	.LFB72
 14251 008c BC000000 		.4byte	.LFE72-.LFB72
 14252 0090 00000000 		.4byte	.LFB75
 14253 0094 E4000000 		.4byte	.LFE75-.LFB75
 14254 0098 00000000 		.4byte	.LFB76
 14255 009c BC000000 		.4byte	.LFE76-.LFB76
ARM GAS  C:\Users\Administrator\AppData\Local\Temp\ccexfbaX.s 			page 298


 14256 00a0 00000000 		.4byte	.LFB77
 14257 00a4 9E000000 		.4byte	.LFE77-.LFB77
 14258 00a8 00000000 		.4byte	.LFB78
 14259 00ac 8C010000 		.4byte	.LFE78-.LFB78
 14260 00b0 00000000 		.4byte	.LFB81
 14261 00b4 4E000000 		.4byte	.LFE81-.LFB81
 14262 00b8 00000000 		.4byte	.LFB84
 14263 00bc A4010000 		.4byte	.LFE84-.LFB84
 14264 00c0 00000000 		.4byte	.LFB85
 14265 00c4 00010000 		.4byte	.LFE85-.LFB85
 14266 00c8 00000000 		.4byte	.LFB86
 14267 00cc 58000000 		.4byte	.LFE86-.LFB86
 14268 00d0 00000000 		.4byte	.LFB88
 14269 00d4 B8000000 		.4byte	.LFE88-.LFB88
 14270 00d8 00000000 		.4byte	.LFB91
 14271 00dc 70010000 		.4byte	.LFE91-.LFB91
 14272 00e0 00000000 		.4byte	.LFB92
 14273 00e4 C8010000 		.4byte	.LFE92-.LFB92
 14274 00e8 00000000 		.4byte	0
 14275 00ec 00000000 		.4byte	0
 14276              		.section	.debug_ranges,"",%progbits
 14277              	.Ldebug_ranges0:
 14278 0000 00000000 		.4byte	.LFB73
 14279 0004 30010000 		.4byte	.LFE73
 14280 0008 00000000 		.4byte	.LFB79
 14281 000c 38000000 		.4byte	.LFE79
 14282 0010 00000000 		.4byte	.LFB82
 14283 0014 24000000 		.4byte	.LFE82
 14284 0018 00000000 		.4byte	.LFB80
 14285 001c 54000000 		.4byte	.LFE80
 14286 0020 00000000 		.4byte	.LFB89
 14287 0024 6C000000 		.4byte	.LFE89
 14288 0028 00000000 		.4byte	.LFB63
 14289 002c 60000000 		.4byte	.LFE63
 14290 0030 00000000 		.4byte	.LFB64
 14291 0034 68000000 		.4byte	.LFE64
 14292 0038 00000000 		.4byte	.LFB65
 14293 003c 70000000 		.4byte	.LFE65
 14294 0040 00000000 		.4byte	.LFB66
 14295 0044 84000000 		.4byte	.LFE66
 14296 0048 00000000 		.4byte	.LFB67
 14297 004c 00010000 		.4byte	.LFE67
 14298 0050 00000000 		.4byte	.LFB68
 14299 0054 78000000 		.4byte	.LFE68
 14300 0058 00000000 		.4byte	.LFB69
 14301 005c 8C000000 		.4byte	.LFE69
 14302 0060 00000000 		.4byte	.LFB70
 14303 0064 98000000 		.4byte	.LFE70
 14304 0068 00000000 		.4byte	.LFB71
 14305 006c 8C000000 		.4byte	.LFE71
 14306 0070 00000000 		.4byte	.LFB87
 14307 0074 1C010000 		.4byte	.LFE87
 14308 0078 00000000 		.4byte	.LFB72
 14309 007c BC000000 		.4byte	.LFE72
 14310 0080 00000000 		.4byte	.LFB75
 14311 0084 E4000000 		.4byte	.LFE75
 14312 0088 00000000 		.4byte	.LFB76
ARM GAS  C:\Users\Administrator\AppData\Local\Temp\ccexfbaX.s 			page 299


 14313 008c BC000000 		.4byte	.LFE76
 14314 0090 00000000 		.4byte	.LFB77
 14315 0094 9E000000 		.4byte	.LFE77
 14316 0098 00000000 		.4byte	.LFB78
 14317 009c 8C010000 		.4byte	.LFE78
 14318 00a0 00000000 		.4byte	.LFB81
 14319 00a4 4E000000 		.4byte	.LFE81
 14320 00a8 00000000 		.4byte	.LFB84
 14321 00ac A4010000 		.4byte	.LFE84
 14322 00b0 00000000 		.4byte	.LFB85
 14323 00b4 00010000 		.4byte	.LFE85
 14324 00b8 00000000 		.4byte	.LFB86
 14325 00bc 58000000 		.4byte	.LFE86
 14326 00c0 00000000 		.4byte	.LFB88
 14327 00c4 B8000000 		.4byte	.LFE88
 14328 00c8 00000000 		.4byte	.LFB91
 14329 00cc 70010000 		.4byte	.LFE91
 14330 00d0 00000000 		.4byte	.LFB92
 14331 00d4 C8010000 		.4byte	.LFE92
 14332 00d8 00000000 		.4byte	0
 14333 00dc 00000000 		.4byte	0
 14334              		.section	.debug_line,"",%progbits
 14335              	.Ldebug_line0:
 14336 0000 7C090000 		.section	.debug_str,"MS",%progbits,1
 14336      02000603 
 14336      00000201 
 14336      FB0E0D00 
 14336      01010101 
 14337              	.LASF120:
 14338 0000 456E6470 		.ascii	"Endpoint_exchange\000"
 14338      6F696E74 
 14338      5F657863 
 14338      68616E67 
 14338      6500
 14339              	.LASF89:
 14340 0012 4359424C 		.ascii	"CYBLE_DIS_CHAR_COUNT\000"
 14340      455F4449 
 14340      535F4348 
 14340      41525F43 
 14340      4F554E54 
 14341              	.LASF22:
 14342 0027 73697A65 		.ascii	"sizetype\000"
 14342      74797065 
 14342      00
 14343              	.LASF202:
 14344 0030 47505253 		.ascii	"GPRSCmdParseFlag1\000"
 14344      436D6450 
 14344      61727365 
 14344      466C6167 
 14344      3100
 14345              	.LASF114:
 14346 0042 50726F74 		.ascii	"Protocol_CmdPluse\000"
 14346      6F636F6C 
 14346      5F436D64 
 14346      506C7573 
 14346      6500
 14347              	.LASF175:
ARM GAS  C:\Users\Administrator\AppData\Local\Temp\ccexfbaX.s 			page 300


 14348 0054 50726F74 		.ascii	"Protocol_CmdRemoteRestart\000"
 14348      6F636F6C 
 14348      5F436D64 
 14348      52656D6F 
 14348      74655265 
 14349              	.LASF185:
 14350 006e 426C6543 		.ascii	"BleCmdBuf\000"
 14350      6D644275 
 14350      6600
 14351              	.LASF222:
 14352 0078 43617264 		.ascii	"Card_ErrCount\000"
 14352      5F457272 
 14352      436F756E 
 14352      7400
 14353              	.LASF132:
 14354 0086 73656E64 		.ascii	"send_heartbeat\000"
 14354      5F686561 
 14354      72746265 
 14354      617400
 14355              	.LASF36:
 14356 0095 4359424C 		.ascii	"CYBLE_EVT_GAP_DEVICE_CONNECTED\000"
 14356      455F4556 
 14356      545F4741 
 14356      505F4445 
 14356      56494345 
 14357              	.LASF43:
 14358 00b4 4359424C 		.ascii	"CYBLE_EVT_GATT_CONNECT_IND\000"
 14358      455F4556 
 14358      545F4741 
 14358      54545F43 
 14358      4F4E4E45 
 14359              	.LASF174:
 14360 00cf 50726F74 		.ascii	"Protocol_CmdRemoteUpdate\000"
 14360      6F636F6C 
 14360      5F436D64 
 14360      52656D6F 
 14360      74655570 
 14361              	.LASF103:
 14362 00e8 6E436D64 		.ascii	"nCmdPackLen\000"
 14362      5061636B 
 14362      4C656E00 
 14363              	.LASF17:
 14364 00f4 75696E74 		.ascii	"uint32\000"
 14364      333200
 14365              	.LASF137:
 14366 00fb 73656E64 		.ascii	"send_update_req\000"
 14366      5F757064 
 14366      6174655F 
 14366      72657100 
 14367              	.LASF130:
 14368 010b 7569646C 		.ascii	"uidlen\000"
 14368      656E00
 14369              	.LASF186:
 14370 0112 426C6543 		.ascii	"BleCmdValidFlag\000"
 14370      6D645661 
 14370      6C696446 
 14370      6C616700 
ARM GAS  C:\Users\Administrator\AppData\Local\Temp\ccexfbaX.s 			page 301


 14371              	.LASF108:
 14372 0122 50726F74 		.ascii	"Protocol_CmdSendOpenInfo\000"
 14372      6F636F6C 
 14372      5F436D64 
 14372      53656E64 
 14372      4F70656E 
 14373              	.LASF173:
 14374 013b 7455706C 		.ascii	"tUploadQty\000"
 14374      6F616451 
 14374      747900
 14375              	.LASF215:
 14376 0146 6E657874 		.ascii	"next_allupload_time\000"
 14376      5F616C6C 
 14376      75706C6F 
 14376      61645F74 
 14376      696D6500 
 14377              	.LASF63:
 14378 015a 4359424C 		.ascii	"CYBLE_EVT_GATTS_DATA_SIGNED_CMD_REQ\000"
 14378      455F4556 
 14378      545F4741 
 14378      5454535F 
 14378      44415441 
 14379              	.LASF74:
 14380 017e 4359424C 		.ascii	"CYBLE_EVT_L2CAP_CBFC_RX_CREDIT_IND\000"
 14380      455F4556 
 14380      545F4C32 
 14380      4341505F 
 14380      43424643 
 14381              	.LASF158:
 14382 01a1 50726F74 		.ascii	"Protocol_CmdWriteUID\000"
 14382      6F636F6C 
 14382      5F436D64 
 14382      57726974 
 14382      65554944 
 14383              	.LASF214:
 14384 01b6 6E657874 		.ascii	"next_gprs_upload_time\000"
 14384      5F677072 
 14384      735F7570 
 14384      6C6F6164 
 14384      5F74696D 
 14385              	.LASF125:
 14386 01cc 54656D70 		.ascii	"TempCrc\000"
 14386      43726300 
 14387              	.LASF233:
 14388 01d4 57323551 		.ascii	"W25QXX_Write\000"
 14388      58585F57 
 14388      72697465 
 14388      00
 14389              	.LASF84:
 14390 01e1 4359424C 		.ascii	"CYBLE_DIS_FIRMWARE_REV\000"
 14390      455F4449 
 14390      535F4649 
 14390      524D5741 
 14390      52455F52 
 14391              	.LASF60:
 14392 01f8 4359424C 		.ascii	"CYBLE_EVT_GATTC_HANDLE_VALUE_NTF\000"
 14392      455F4556 
ARM GAS  C:\Users\Administrator\AppData\Local\Temp\ccexfbaX.s 			page 302


 14392      545F4741 
 14392      5454435F 
 14392      48414E44 
 14393              	.LASF30:
 14394 0219 4359424C 		.ascii	"CYBLE_EVT_GAP_AUTH_REQ\000"
 14394      455F4556 
 14394      545F4741 
 14394      505F4155 
 14394      54485F52 
 14395              	.LASF147:
 14396 0230 63506163 		.ascii	"cPackType\000"
 14396      6B547970 
 14396      6500
 14397              	.LASF253:
 14398 023a 55736572 		.ascii	"UserData_CLR_User\000"
 14398      44617461 
 14398      5F434C52 
 14398      5F557365 
 14398      7200
 14399              	.LASF119:
 14400 024c 64617461 		.ascii	"databuf\000"
 14400      62756600 
 14401              	.LASF102:
 14402 0254 52656342 		.ascii	"RecBuf\000"
 14402      756600
 14403              	.LASF106:
 14404 025b 706F7274 		.ascii	"port_hex\000"
 14404      5F686578 
 14404      00
 14405              	.LASF209:
 14406 0264 436D645F 		.ascii	"Cmd_Revsta\000"
 14406      52657673 
 14406      746100
 14407              	.LASF116:
 14408 026f 4E65776D 		.ascii	"Newmac\000"
 14408      616300
 14409              	.LASF4:
 14410 0276 5F5F7569 		.ascii	"__uint8_t\000"
 14410      6E74385F 
 14410      7400
 14411              	.LASF194:
 14412 0280 75706461 		.ascii	"update_port\000"
 14412      74655F70 
 14412      6F727400 
 14413              	.LASF249:
 14414 028c 64656C61 		.ascii	"delay_with_ble\000"
 14414      795F7769 
 14414      74685F62 
 14414      6C6500
 14415              	.LASF251:
 14416 029b 4C65645F 		.ascii	"Led_SetState\000"
 14416      53657453 
 14416      74617465 
 14416      00
 14417              	.LASF182:
 14418 02a8 6465765F 		.ascii	"dev_mac\000"
 14418      6D616300 
ARM GAS  C:\Users\Administrator\AppData\Local\Temp\ccexfbaX.s 			page 303


 14419              	.LASF56:
 14420 02b0 4359424C 		.ascii	"CYBLE_EVT_GATTS_WRITE_CMD_REQ\000"
 14420      455F4556 
 14420      545F4741 
 14420      5454535F 
 14420      57524954 
 14421              	.LASF207:
 14422 02ce 436D6452 		.ascii	"CmdRev_buf\000"
 14422      65765F62 
 14422      756600
 14423              	.LASF260:
 14424 02d9 436C6561 		.ascii	"Clear_AllOPeninfo\000"
 14424      725F416C 
 14424      6C4F5065 
 14424      6E696E66 
 14424      6F00
 14425              	.LASF6:
 14426 02eb 6C6F6E67 		.ascii	"long int\000"
 14426      20696E74 
 14426      00
 14427              	.LASF179:
 14428 02f4 54656D70 		.ascii	"TempCmdBuf\000"
 14428      436D6442 
 14428      756600
 14429              	.LASF24:
 14430 02ff 4359424C 		.ascii	"CYBLE_EVT_STACK_ON\000"
 14430      455F4556 
 14430      545F5354 
 14430      41434B5F 
 14430      4F4E00
 14431              	.LASF83:
 14432 0312 4359424C 		.ascii	"CYBLE_DIS_HARDWARE_REV\000"
 14432      455F4449 
 14432      535F4841 
 14432      52445741 
 14432      52455F52 
 14433              	.LASF161:
 14434 0329 52657443 		.ascii	"RetCode\000"
 14434      6F646500 
 14435              	.LASF140:
 14436 0331 52656164 		.ascii	"ReadDataBuf\000"
 14436      44617461 
 14436      42756600 
 14437              	.LASF190:
 14438 033d 646F6D61 		.ascii	"domain\000"
 14438      696E00
 14439              	.LASF220:
 14440 0344 67707273 		.ascii	"gprs_operation_ErrCount\000"
 14440      5F6F7065 
 14440      72617469 
 14440      6F6E5F45 
 14440      7272436F 
 14441              	.LASF156:
 14442 035c 70554944 		.ascii	"pUID\000"
 14442      00
 14443              	.LASF150:
 14444 0361 55736572 		.ascii	"UserDataLen\000"
ARM GAS  C:\Users\Administrator\AppData\Local\Temp\ccexfbaX.s 			page 304


 14444      44617461 
 14444      4C656E00 
 14445              	.LASF138:
 14446 036d 70616765 		.ascii	"page\000"
 14446      00
 14447              	.LASF148:
 14448 0372 63436D64 		.ascii	"cCmd\000"
 14448      00
 14449              	.LASF68:
 14450 0377 4359424C 		.ascii	"CYBLE_EVT_L2CAP_COMMAND_REJ\000"
 14450      455F4556 
 14450      545F4C32 
 14450      4341505F 
 14450      434F4D4D 
 14451              	.LASF1:
 14452 0393 7369676E 		.ascii	"signed char\000"
 14452      65642063 
 14452      68617200 
 14453              	.LASF12:
 14454 039f 75696E74 		.ascii	"uint8_t\000"
 14454      385F7400 
 14455              	.LASF26:
 14456 03a7 4359424C 		.ascii	"CYBLE_EVT_HARDWARE_ERROR\000"
 14456      455F4556 
 14456      545F4841 
 14456      52445741 
 14456      52455F45 
 14457              	.LASF254:
 14458 03c0 46696E64 		.ascii	"Find_Open_ValidQty\000"
 14458      5F4F7065 
 14458      6E5F5661 
 14458      6C696451 
 14458      747900
 14459              	.LASF47:
 14460 03d3 4359424C 		.ascii	"CYBLE_EVT_GATTC_READ_BY_GROUP_TYPE_RSP\000"
 14460      455F4556 
 14460      545F4741 
 14460      5454435F 
 14460      52454144 
 14461              	.LASF2:
 14462 03fa 756E7369 		.ascii	"unsigned char\000"
 14462      676E6564 
 14462      20636861 
 14462      7200
 14463              	.LASF46:
 14464 0408 4359424C 		.ascii	"CYBLE_EVT_GATTC_XCHNG_MTU_RSP\000"
 14464      455F4556 
 14464      545F4741 
 14464      5454435F 
 14464      5843484E 
 14465              	.LASF250:
 14466 0426 446F6F72 		.ascii	"DoorClose\000"
 14466      436C6F73 
 14466      6500
 14467              	.LASF180:
 14468 0430 436D6450 		.ascii	"CmdPacketTotalSize\000"
 14468      61636B65 
ARM GAS  C:\Users\Administrator\AppData\Local\Temp\ccexfbaX.s 			page 305


 14468      74546F74 
 14468      616C5369 
 14468      7A6500
 14469              	.LASF235:
 14470 0443 426C6553 		.ascii	"BleSend\000"
 14470      656E6400 
 14471              	.LASF261:
 14472 044b 474E5520 		.ascii	"GNU C11 5.4.1 20160609 (release) [ARM/embedded-5-br"
 14472      43313120 
 14472      352E342E 
 14472      31203230 
 14472      31363036 
 14473 047e 616E6368 		.ascii	"anch revision 237715] -mcpu=cortex-m0 -mthumb -g -O"
 14473      20726576 
 14473      6973696F 
 14473      6E203233 
 14473      37373135 
 14474 04b1 73202D66 		.ascii	"s -ffunction-sections -ffat-lto-objects\000"
 14474      66756E63 
 14474      74696F6E 
 14474      2D736563 
 14474      74696F6E 
 14475              	.LASF75:
 14476 04d9 4359424C 		.ascii	"CYBLE_EVT_L2CAP_CBFC_TX_CREDIT_IND\000"
 14476      455F4556 
 14476      545F4C32 
 14476      4341505F 
 14476      43424643 
 14477              	.LASF72:
 14478 04fc 4359424C 		.ascii	"CYBLE_EVT_L2CAP_CBFC_DISCONN_CNF\000"
 14478      455F4556 
 14478      545F4C32 
 14478      4341505F 
 14478      43424643 
 14479              	.LASF50:
 14480 051d 4359424C 		.ascii	"CYBLE_EVT_GATTC_FIND_BY_TYPE_VALUE_RSP\000"
 14480      455F4556 
 14480      545F4741 
 14480      5454435F 
 14480      46494E44 
 14481              	.LASF127:
 14482 0544 73656E64 		.ascii	"send_send_mac_and_get_blekey\000"
 14482      5F73656E 
 14482      645F6D61 
 14482      635F616E 
 14482      645F6765 
 14483              	.LASF183:
 14484 0561 50726F74 		.ascii	"Protocol_CmdParse_BLE\000"
 14484      6F636F6C 
 14484      5F436D64 
 14484      50617273 
 14484      655F424C 
 14485              	.LASF96:
 14486 0577 73656E64 		.ascii	"send_time\000"
 14486      5F74696D 
 14486      6500
 14487              	.LASF20:
ARM GAS  C:\Users\Administrator\AppData\Local\Temp\ccexfbaX.s 			page 306


 14488 0581 63686172 		.ascii	"char\000"
 14488      00
 14489              	.LASF248:
 14490 0586 57726974 		.ascii	"Write_OpenInfo\000"
 14490      655F4F70 
 14490      656E496E 
 14490      666F00
 14491              	.LASF53:
 14492 0595 4359424C 		.ascii	"CYBLE_EVT_GATTC_READ_MULTI_RSP\000"
 14492      455F4556 
 14492      545F4741 
 14492      5454435F 
 14492      52454144 
 14493              	.LASF200:
 14494 05b4 53656E64 		.ascii	"SendMacFlag\000"
 14494      4D616346 
 14494      6C616700 
 14495              	.LASF245:
 14496 05c0 55736572 		.ascii	"UserData_Judge_If_Open\000"
 14496      44617461 
 14496      5F4A7564 
 14496      67655F49 
 14496      665F4F70 
 14497              	.LASF23:
 14498 05d7 4359424C 		.ascii	"CYBLE_EVT_HOST_INVALID\000"
 14498      455F4556 
 14498      545F484F 
 14498      53545F49 
 14498      4E56414C 
 14499              	.LASF5:
 14500 05ee 5F5F7569 		.ascii	"__uint16_t\000"
 14500      6E743136 
 14500      5F7400
 14501              	.LASF52:
 14502 05f9 4359424C 		.ascii	"CYBLE_EVT_GATTC_READ_BLOB_RSP\000"
 14502      455F4556 
 14502      545F4741 
 14502      5454435F 
 14502      52454144 
 14503              	.LASF59:
 14504 0617 4359424C 		.ascii	"CYBLE_EVT_GATTC_EXEC_WRITE_RSP\000"
 14504      455F4556 
 14504      545F4741 
 14504      5454435F 
 14504      45584543 
 14505              	.LASF226:
 14506 0636 55706C6F 		.ascii	"UploadStartnum\000"
 14506      61645374 
 14506      6172746E 
 14506      756D00
 14507              	.LASF85:
 14508 0645 4359424C 		.ascii	"CYBLE_DIS_SOFTWARE_REV\000"
 14508      455F4449 
 14508      535F534F 
 14508      46545741 
 14508      52455F52 
 14509              	.LASF64:
ARM GAS  C:\Users\Administrator\AppData\Local\Temp\ccexfbaX.s 			page 307


 14510 065c 4359424C 		.ascii	"CYBLE_EVT_GATTC_STOP_CMD_COMPLETE\000"
 14510      455F4556 
 14510      545F4741 
 14510      5454435F 
 14510      53544F50 
 14511              	.LASF100:
 14512 067e 50726F74 		.ascii	"Protocol_CmdGetMacAndKey\000"
 14512      6F636F6C 
 14512      5F436D64 
 14512      4765744D 
 14512      6163416E 
 14513              	.LASF246:
 14514 0697 4C65645F 		.ascii	"Led_GreenON\000"
 14514      47726565 
 14514      6E4F4E00 
 14515              	.LASF242:
 14516 06a3 64657465 		.ascii	"detect_nfc_card\000"
 14516      63745F6E 
 14516      66635F63 
 14516      61726400 
 14517              	.LASF164:
 14518 06b3 6F70656E 		.ascii	"openInfo\000"
 14518      496E666F 
 14518      00
 14519              	.LASF81:
 14520 06bc 4359424C 		.ascii	"CYBLE_DIS_MODEL_NUMBER\000"
 14520      455F4449 
 14520      535F4D4F 
 14520      44454C5F 
 14520      4E554D42 
 14521              	.LASF162:
 14522 06d3 704D4143 		.ascii	"pMAC\000"
 14522      00
 14523              	.LASF86:
 14524 06d8 4359424C 		.ascii	"CYBLE_DIS_SYSTEM_ID\000"
 14524      455F4449 
 14524      535F5359 
 14524      5354454D 
 14524      5F494400 
 14525              	.LASF145:
 14526 06ec 50726F74 		.ascii	"Protocol_SendAckPacket\000"
 14526      6F636F6C 
 14526      5F53656E 
 14526      6441636B 
 14526      5061636B 
 14527              	.LASF228:
 14528 0703 46696E64 		.ascii	"FindAndSet_UploadTime_UploadFlag\000"
 14528      416E6453 
 14528      65745F55 
 14528      706C6F61 
 14528      6454696D 
 14529              	.LASF263:
 14530 0724 473A5C50 		.ascii	"G:\\Psoc4_prj\\7.rental_house\\18-05-03\\EntranceGu"
 14530      736F6334 
 14530      5F70726A 
 14530      5C372E72 
 14530      656E7461 
ARM GAS  C:\Users\Administrator\AppData\Local\Temp\ccexfbaX.s 			page 308


 14531 0753 6172645F 		.ascii	"ard_180512-1624\\EntranceGuard.cydsn\000"
 14531      31383035 
 14531      31322D31 
 14531      3632345C 
 14531      456E7472 
 14532              	.LASF142:
 14533 0777 72656376 		.ascii	"recv_page\000"
 14533      5F706167 
 14533      6500
 14534              	.LASF98:
 14535 0781 626C655F 		.ascii	"ble_key\000"
 14535      6B657900 
 14536              	.LASF171:
 14537 0789 656E645F 		.ascii	"end_time\000"
 14537      74696D65 
 14537      00
 14538              	.LASF240:
 14539 0792 47505253 		.ascii	"GPRS_SendHexDataToServer\000"
 14539      5F53656E 
 14539      64486578 
 14539      44617461 
 14539      546F5365 
 14540              	.LASF67:
 14541 07ab 4359424C 		.ascii	"CYBLE_EVT_L2CAP_CONN_PARAM_UPDATE_RSP\000"
 14541      455F4556 
 14541      545F4C32 
 14541      4341505F 
 14541      434F4E4E 
 14542              	.LASF166:
 14543 07d1 50726F74 		.ascii	"Protocol_CmdReadInfo\000"
 14543      6F636F6C 
 14543      5F436D64 
 14543      52656164 
 14543      496E666F 
 14544              	.LASF95:
 14545 07e6 6F70656E 		.ascii	"open_time\000"
 14545      5F74696D 
 14545      6500
 14546              	.LASF176:
 14547 07f0 50726F74 		.ascii	"Protocol_CmdChangeIP\000"
 14547      6F636F6C 
 14547      5F436D64 
 14547      4368616E 
 14547      67654950 
 14548              	.LASF159:
 14549 0805 50726F74 		.ascii	"Protocol_CmdDelUID\000"
 14549      6F636F6C 
 14549      5F436D64 
 14549      44656C55 
 14549      494400
 14550              	.LASF193:
 14551 0818 75706461 		.ascii	"update_ip\000"
 14551      74655F69 
 14551      7000
 14552              	.LASF33:
 14553 0822 4359424C 		.ascii	"CYBLE_EVT_GAP_AUTH_COMPLETE\000"
 14553      455F4556 
ARM GAS  C:\Users\Administrator\AppData\Local\Temp\ccexfbaX.s 			page 309


 14553      545F4741 
 14553      505F4155 
 14553      54485F43 
 14554              	.LASF90:
 14555 083e 63617264 		.ascii	"card_uid\000"
 14555      5F756964 
 14555      00
 14556              	.LASF34:
 14557 0847 4359424C 		.ascii	"CYBLE_EVT_GAP_AUTH_FAILED\000"
 14557      455F4556 
 14557      545F4741 
 14557      505F4155 
 14557      54485F46 
 14558              	.LASF257:
 14559 0861 52656164 		.ascii	"Read_Open_Type\000"
 14559      5F4F7065 
 14559      6E5F5479 
 14559      706500
 14560              	.LASF97:
 14561 0870 6F70656E 		.ascii	"open_door_t\000"
 14561      5F646F6F 
 14561      725F7400 
 14562              	.LASF107:
 14563 087c 50726F74 		.ascii	"Protocol_CmdGetPreSever\000"
 14563      6F636F6C 
 14563      5F436D64 
 14563      47657450 
 14563      72655365 
 14564              	.LASF8:
 14565 0894 6C6F6E67 		.ascii	"long unsigned int\000"
 14565      20756E73 
 14565      69676E65 
 14565      6420696E 
 14565      7400
 14566              	.LASF155:
 14567 08a6 44617461 		.ascii	"DataBuf\000"
 14567      42756600 
 14568              	.LASF139:
 14569 08ae 50726F74 		.ascii	"Protocol_CmdRemoteDownload\000"
 14569      6F636F6C 
 14569      5F436D64 
 14569      52656D6F 
 14569      7465446F 
 14570              	.LASF154:
 14571 08c9 50726F74 		.ascii	"Protocol_CmdReadUID\000"
 14571      6F636F6C 
 14571      5F436D64 
 14571      52656164 
 14571      55494400 
 14572              	.LASF110:
 14573 08dd 7054696D 		.ascii	"pTime\000"
 14573      6500
 14574              	.LASF146:
 14575 08e3 436F6D6D 		.ascii	"CommChanle\000"
 14575      4368616E 
 14575      6C6500
 14576              	.LASF126:
ARM GAS  C:\Users\Administrator\AppData\Local\Temp\ccexfbaX.s 			page 310


 14577 08ee 7061636B 		.ascii	"pack_len\000"
 14577      5F6C656E 
 14577      00
 14578              	.LASF28:
 14579 08f7 4359424C 		.ascii	"CYBLE_EVT_STACK_BUSY_STATUS\000"
 14579      455F4556 
 14579      545F5354 
 14579      41434B5F 
 14579      42555359 
 14580              	.LASF177:
 14581 0913 49704E75 		.ascii	"IpNum\000"
 14581      6D00
 14582              	.LASF141:
 14583 0919 64617461 		.ascii	"data_size\000"
 14583      5F73697A 
 14583      6500
 14584              	.LASF82:
 14585 0923 4359424C 		.ascii	"CYBLE_DIS_SERIAL_NUMBER\000"
 14585      455F4449 
 14585      535F5345 
 14585      5249414C 
 14585      5F4E554D 
 14586              	.LASF234:
 14587 093b 566F6963 		.ascii	"VoicePlay\000"
 14587      65506C61 
 14587      7900
 14588              	.LASF39:
 14589 0945 4359424C 		.ascii	"CYBLE_EVT_GAP_CONNECTION_UPDATE_COMPLETE\000"
 14589      455F4556 
 14589      545F4741 
 14589      505F434F 
 14589      4E4E4543 
 14590              	.LASF181:
 14591 096e 50726F74 		.ascii	"Protocol_ClrOpenData_Qty\000"
 14591      6F636F6C 
 14591      5F436C72 
 14591      4F70656E 
 14591      44617461 
 14592              	.LASF71:
 14593 0987 4359424C 		.ascii	"CYBLE_EVT_L2CAP_CBFC_DISCONN_IND\000"
 14593      455F4556 
 14593      545F4C32 
 14593      4341505F 
 14593      43424643 
 14594              	.LASF136:
 14595 09a8 616C6172 		.ascii	"alarm_mode\000"
 14595      6D5F6D6F 
 14595      646500
 14596              	.LASF31:
 14597 09b3 4359424C 		.ascii	"CYBLE_EVT_GAP_PASSKEY_ENTRY_REQUEST\000"
 14597      455F4556 
 14597      545F4741 
 14597      505F5041 
 14597      53534B45 
 14598              	.LASF7:
 14599 09d7 5F5F7569 		.ascii	"__uint32_t\000"
 14599      6E743332 
ARM GAS  C:\Users\Administrator\AppData\Local\Temp\ccexfbaX.s 			page 311


 14599      5F7400
 14600              	.LASF9:
 14601 09e2 6C6F6E67 		.ascii	"long long int\000"
 14601      206C6F6E 
 14601      6720696E 
 14601      7400
 14602              	.LASF203:
 14603 09f0 47505253 		.ascii	"GPRSCmdParseFlag2\000"
 14603      436D6450 
 14603      61727365 
 14603      466C6167 
 14603      3200
 14604              	.LASF88:
 14605 0a02 4359424C 		.ascii	"CYBLE_DIS_PNP_ID\000"
 14605      455F4449 
 14605      535F504E 
 14605      505F4944 
 14605      00
 14606              	.LASF239:
 14607 0a13 4D794372 		.ascii	"MyCrc16Check\000"
 14607      63313643 
 14607      6865636B 
 14607      00
 14608              	.LASF19:
 14609 0a20 646F7562 		.ascii	"double\000"
 14609      6C6500
 14610              	.LASF77:
 14611 0a27 4359424C 		.ascii	"CYBLE_EVT_PENDING_FLASH_WRITE\000"
 14611      455F4556 
 14611      545F5045 
 14611      4E44494E 
 14611      475F464C 
 14612              	.LASF219:
 14613 0a45 77616974 		.ascii	"wait_timeout\000"
 14613      5F74696D 
 14613      656F7574 
 14613      00
 14614              	.LASF196:
 14615 0a52 75706461 		.ascii	"update_version\000"
 14615      74655F76 
 14615      65727369 
 14615      6F6E00
 14616              	.LASF172:
 14617 0a61 6170705F 		.ascii	"app_group\000"
 14617      67726F75 
 14617      7000
 14618              	.LASF152:
 14619 0a6b 4E6F5074 		.ascii	"NoPtr\000"
 14619      7200
 14620              	.LASF18:
 14621 0a71 666C6F61 		.ascii	"float\000"
 14621      7400
 14622              	.LASF144:
 14623 0a77 436D645F 		.ascii	"Cmd_Protocol_ParaInit\000"
 14623      50726F74 
 14623      6F636F6C 
 14623      5F506172 
ARM GAS  C:\Users\Administrator\AppData\Local\Temp\ccexfbaX.s 			page 312


 14623      61496E69 
 14624              	.LASF65:
 14625 0a8d 4359424C 		.ascii	"CYBLE_EVT_GATTS_READ_CHAR_VAL_ACCESS_REQ\000"
 14625      455F4556 
 14625      545F4741 
 14625      5454535F 
 14625      52454144 
 14626              	.LASF236:
 14627 0ab6 42656570 		.ascii	"BeepPlay_Delay\000"
 14627      506C6179 
 14627      5F44656C 
 14627      617900
 14628              	.LASF160:
 14629 0ac5 50726F74 		.ascii	"Protocol_CmdOpenDoor\000"
 14629      6F636F6C 
 14629      5F436D64 
 14629      4F70656E 
 14629      446F6F72 
 14630              	.LASF11:
 14631 0ada 756E7369 		.ascii	"unsigned int\000"
 14631      676E6564 
 14631      20696E74 
 14631      00
 14632              	.LASF121:
 14633 0ae7 73656E64 		.ascii	"send_get_pre_service_ip\000"
 14633      5F676574 
 14633      5F707265 
 14633      5F736572 
 14633      76696365 
 14634              	.LASF57:
 14635 0aff 4359424C 		.ascii	"CYBLE_EVT_GATTS_PREP_WRITE_REQ\000"
 14635      455F4556 
 14635      545F4741 
 14635      5454535F 
 14635      50524550 
 14636              	.LASF217:
 14637 0b1e 75706461 		.ascii	"update_timeout_count\000"
 14637      74655F74 
 14637      696D656F 
 14637      75745F63 
 14637      6F756E74 
 14638              	.LASF153:
 14639 0b33 6E506163 		.ascii	"nPacketLen\000"
 14639      6B65744C 
 14639      656E00
 14640              	.LASF256:
 14641 0b3e 4765745F 		.ascii	"Get_Open_Info\000"
 14641      4F70656E 
 14641      5F496E66 
 14641      6F00
 14642              	.LASF87:
 14643 0b4c 4359424C 		.ascii	"CYBLE_DIS_REG_CERT_DATA\000"
 14643      455F4449 
 14643      535F5245 
 14643      475F4345 
 14643      52545F44 
 14644              	.LASF187:
ARM GAS  C:\Users\Administrator\AppData\Local\Temp\ccexfbaX.s 			page 313


 14645 0b64 41444352 		.ascii	"ADCResultCenter\000"
 14645      6573756C 
 14645      7443656E 
 14645      74657200 
 14646              	.LASF94:
 14647 0b74 6F70656E 		.ascii	"open_door\000"
 14647      5F646F6F 
 14647      7200
 14648              	.LASF117:
 14649 0b7e 666C6167 		.ascii	"flag\000"
 14649      00
 14650              	.LASF122:
 14651 0b83 75617274 		.ascii	"uart_buf\000"
 14651      5F627566 
 14651      00
 14652              	.LASF91:
 14653 0b8c 76616C69 		.ascii	"valid_time\000"
 14653      645F7469 
 14653      6D6500
 14654              	.LASF118:
 14655 0b97 63617264 		.ascii	"card_data\000"
 14655      5F646174 
 14655      6100
 14656              	.LASF135:
 14657 0ba1 73656E64 		.ascii	"send_alarm_info\000"
 14657      5F616C61 
 14657      726D5F69 
 14657      6E666F00 
 14658              	.LASF149:
 14659 0bb1 55736572 		.ascii	"UserData\000"
 14659      44617461 
 14659      00
 14660              	.LASF79:
 14661 0bba 4359424C 		.ascii	"CYBLE_EVT_MAX\000"
 14661      455F4556 
 14661      545F4D41 
 14661      5800
 14662              	.LASF40:
 14663 0bc8 4359424C 		.ascii	"CYBLE_EVT_GAPC_SCAN_START_STOP\000"
 14663      455F4556 
 14663      545F4741 
 14663      50435F53 
 14663      43414E5F 
 14664              	.LASF225:
 14665 0be7 55706C6F 		.ascii	"UploadQty\000"
 14665      61645174 
 14665      7900
 14666              	.LASF129:
 14667 0bf1 6F70656E 		.ascii	"open_info\000"
 14667      5F696E66 
 14667      6F00
 14668              	.LASF54:
 14669 0bfb 4359424C 		.ascii	"CYBLE_EVT_GATTS_WRITE_REQ\000"
 14669      455F4556 
 14669      545F4741 
 14669      5454535F 
 14669      57524954 
ARM GAS  C:\Users\Administrator\AppData\Local\Temp\ccexfbaX.s 			page 314


 14670              	.LASF232:
 14671 0c15 57323551 		.ascii	"W25QXX_Read\000"
 14671      58585F52 
 14671      65616400 
 14672              	.LASF206:
 14673 0c21 52656376 		.ascii	"RecvType\000"
 14673      54797065 
 14673      00
 14674              	.LASF32:
 14675 0c2a 4359424C 		.ascii	"CYBLE_EVT_GAP_PASSKEY_DISPLAY_REQUEST\000"
 14675      455F4556 
 14675      545F4741 
 14675      505F5041 
 14675      53534B45 
 14676              	.LASF255:
 14677 0c50 46696E64 		.ascii	"Find_Open_StartNum\000"
 14677      5F4F7065 
 14677      6E5F5374 
 14677      6172744E 
 14677      756D00
 14678              	.LASF51:
 14679 0c63 4359424C 		.ascii	"CYBLE_EVT_GATTC_READ_RSP\000"
 14679      455F4556 
 14679      545F4741 
 14679      5454435F 
 14679      52454144 
 14680              	.LASF93:
 14681 0c7c 75736572 		.ascii	"user_info\000"
 14681      5F696E66 
 14681      6F00
 14682              	.LASF70:
 14683 0c86 4359424C 		.ascii	"CYBLE_EVT_L2CAP_CBFC_CONN_CNF\000"
 14683      455F4556 
 14683      545F4C32 
 14683      4341505F 
 14683      43424643 
 14684              	.LASF124:
 14685 0ca4 74696D65 		.ascii	"time_tmp\000"
 14685      5F746D70 
 14685      00
 14686              	.LASF21:
 14687 0cad 6C6F6E67 		.ascii	"long double\000"
 14687      20646F75 
 14687      626C6500 
 14688              	.LASF192:
 14689 0cb9 7072655F 		.ascii	"pre_port\000"
 14689      706F7274 
 14689      00
 14690              	.LASF221:
 14691 0cc2 68656172 		.ascii	"heartbeat_SendCount\000"
 14691      74626561 
 14691      745F5365 
 14691      6E64436F 
 14691      756E7400 
 14692              	.LASF133:
 14693 0cd6 6C6F636B 		.ascii	"lock_state\000"
 14693      5F737461 
ARM GAS  C:\Users\Administrator\AppData\Local\Temp\ccexfbaX.s 			page 315


 14693      746500
 14694              	.LASF38:
 14695 0ce1 4359424C 		.ascii	"CYBLE_EVT_GAP_ENCRYPT_CHANGE\000"
 14695      455F4556 
 14695      545F4741 
 14695      505F454E 
 14695      43525950 
 14696              	.LASF92:
 14697 0cfe 75736572 		.ascii	"user_info_t\000"
 14697      5F696E66 
 14697      6F5F7400 
 14698              	.LASF45:
 14699 0d0a 4359424C 		.ascii	"CYBLE_EVT_GATTS_XCNHG_MTU_REQ\000"
 14699      455F4556 
 14699      545F4741 
 14699      5454535F 
 14699      58434E48 
 14700              	.LASF99:
 14701 0d28 70737472 		.ascii	"pstr\000"
 14701      00
 14702              	.LASF157:
 14703 0d2d 636F6D6D 		.ascii	"comm_chanle\000"
 14703      5F636861 
 14703      6E6C6500 
 14704              	.LASF80:
 14705 0d39 4359424C 		.ascii	"CYBLE_DIS_MANUFACTURER_NAME\000"
 14705      455F4449 
 14705      535F4D41 
 14705      4E554641 
 14705      43545552 
 14706              	.LASF10:
 14707 0d55 6C6F6E67 		.ascii	"long long unsigned int\000"
 14707      206C6F6E 
 14707      6720756E 
 14707      7369676E 
 14707      65642069 
 14708              	.LASF201:
 14709 0d6c 67707273 		.ascii	"gprs_state\000"
 14709      5F737461 
 14709      746500
 14710              	.LASF25:
 14711 0d77 4359424C 		.ascii	"CYBLE_EVT_TIMEOUT\000"
 14711      455F4556 
 14711      545F5449 
 14711      4D454F55 
 14711      5400
 14712              	.LASF13:
 14713 0d89 75696E74 		.ascii	"uint16_t\000"
 14713      31365F74 
 14713      00
 14714              	.LASF101:
 14715 0d92 50726F74 		.ascii	"Protocol_CmdSendWarnInfo\000"
 14715      6F636F6C 
 14715      5F436D64 
 14715      53656E64 
 14715      5761726E 
 14716              	.LASF73:
ARM GAS  C:\Users\Administrator\AppData\Local\Temp\ccexfbaX.s 			page 316


 14717 0dab 4359424C 		.ascii	"CYBLE_EVT_L2CAP_CBFC_DATA_READ\000"
 14717      455F4556 
 14717      545F4C32 
 14717      4341505F 
 14717      43424643 
 14718              	.LASF151:
 14719 0dca 41707052 		.ascii	"AppResponseBuf\000"
 14719      6573706F 
 14719      6E736542 
 14719      756600
 14720              	.LASF204:
 14721 0dd9 47505253 		.ascii	"GPRSCmd_buf1\000"
 14721      436D645F 
 14721      62756631 
 14721      00
 14722              	.LASF205:
 14723 0de6 47505253 		.ascii	"GPRSCmd_buf2\000"
 14723      436D645F 
 14723      62756632 
 14723      00
 14724              	.LASF163:
 14725 0df3 4F70656E 		.ascii	"OpenType\000"
 14725      54797065 
 14725      00
 14726              	.LASF112:
 14727 0dfc 50726F74 		.ascii	"Protocol_CmdTimeCheck\000"
 14727      6F636F6C 
 14727      5F436D64 
 14727      54696D65 
 14727      43686563 
 14728              	.LASF212:
 14729 0e12 6E657874 		.ascii	"next_heartbeat_time\000"
 14729      5F686561 
 14729      72746265 
 14729      61745F74 
 14729      696D6500 
 14730              	.LASF238:
 14731 0e26 6D656D73 		.ascii	"memset\000"
 14731      657400
 14732              	.LASF229:
 14733 0e2d 5254435F 		.ascii	"RTC_GetUnixTime\000"
 14733      47657455 
 14733      6E697854 
 14733      696D6500 
 14734              	.LASF113:
 14735 0e3d 6172725F 		.ascii	"arr_adjtime\000"
 14735      61646A74 
 14735      696D6500 
 14736              	.LASF131:
 14737 0e49 6F70656E 		.ascii	"open_mode\000"
 14737      5F6D6F64 
 14737      6500
 14738              	.LASF49:
 14739 0e53 4359424C 		.ascii	"CYBLE_EVT_GATTC_FIND_INFO_RSP\000"
 14739      455F4556 
 14739      545F4741 
 14739      5454435F 
ARM GAS  C:\Users\Administrator\AppData\Local\Temp\ccexfbaX.s 			page 317


 14739      46494E44 
 14740              	.LASF48:
 14741 0e71 4359424C 		.ascii	"CYBLE_EVT_GATTC_READ_BY_TYPE_RSP\000"
 14741      455F4556 
 14741      545F4741 
 14741      5454435F 
 14741      52454144 
 14742              	.LASF199:
 14743 0e92 496D6167 		.ascii	"Image_size\000"
 14743      655F7369 
 14743      7A6500
 14744              	.LASF111:
 14745 0e9d 7265745F 		.ascii	"ret_code\000"
 14745      636F6465 
 14745      00
 14746              	.LASF241:
 14747 0ea6 6D656D63 		.ascii	"memcmp\000"
 14747      6D7000
 14748              	.LASF55:
 14749 0ead 4359424C 		.ascii	"CYBLE_EVT_GATTC_WRITE_RSP\000"
 14749      455F4556 
 14749      545F4741 
 14749      5454435F 
 14749      57524954 
 14750              	.LASF213:
 14751 0ec7 6E657874 		.ascii	"next_gprs_operation_time\000"
 14751      5F677072 
 14751      735F6F70 
 14751      65726174 
 14751      696F6E5F 
 14752              	.LASF244:
 14753 0ee0 55736572 		.ascii	"UserData_DEL_User\000"
 14753      44617461 
 14753      5F44454C 
 14753      5F557365 
 14753      7200
 14754              	.LASF243:
 14755 0ef2 55736572 		.ascii	"UserData_Add_User\000"
 14755      44617461 
 14755      5F416464 
 14755      5F557365 
 14755      7200
 14756              	.LASF208:
 14757 0f04 436D645F 		.ascii	"Cmd_Baglen\000"
 14757      4261676C 
 14757      656E00
 14758              	.LASF104:
 14759 0f0f 706F7274 		.ascii	"port_tmp\000"
 14759      5F746D70 
 14759      00
 14760              	.LASF35:
 14761 0f18 4359424C 		.ascii	"CYBLE_EVT_GAPP_ADVERTISEMENT_START_STOP\000"
 14761      455F4556 
 14761      545F4741 
 14761      50505F41 
 14761      44564552 
 14762              	.LASF15:
ARM GAS  C:\Users\Administrator\AppData\Local\Temp\ccexfbaX.s 			page 318


 14763 0f40 75696E74 		.ascii	"uint8\000"
 14763      3800
 14764              	.LASF169:
 14765 0f46 656E645F 		.ascii	"end_t\000"
 14765      7400
 14766              	.LASF165:
 14767 0f4c 50726F74 		.ascii	"Protocol_CmdClearUID\000"
 14767      6F636F6C 
 14767      5F436D64 
 14767      436C6561 
 14767      72554944 
 14768              	.LASF230:
 14769 0f61 53657453 		.ascii	"SetSysRTCTime\000"
 14769      79735254 
 14769      4354696D 
 14769      6500
 14770              	.LASF3:
 14771 0f6f 73686F72 		.ascii	"short int\000"
 14771      7420696E 
 14771      7400
 14772              	.LASF211:
 14773 0f79 6375725F 		.ascii	"cur_time\000"
 14773      74696D65 
 14773      00
 14774              	.LASF105:
 14775 0f82 706F7274 		.ascii	"port_str\000"
 14775      5F737472 
 14775      00
 14776              	.LASF218:
 14777 0f8b 75706461 		.ascii	"update_timeout_time\000"
 14777      74655F74 
 14777      696D656F 
 14777      75745F74 
 14777      696D6500 
 14778              	.LASF198:
 14779 0f9f 75706461 		.ascii	"update_offset\000"
 14779      74655F6F 
 14779      66667365 
 14779      7400
 14780              	.LASF42:
 14781 0fad 4359424C 		.ascii	"CYBLE_EVT_GATTC_ERROR_RSP\000"
 14781      455F4556 
 14781      545F4741 
 14781      5454435F 
 14781      4552524F 
 14782              	.LASF184:
 14783 0fc7 5254435F 		.ascii	"RTC_daysBeforeMonthTbl\000"
 14783      64617973 
 14783      4265666F 
 14783      72654D6F 
 14783      6E746854 
 14784              	.LASF247:
 14785 0fde 446F6F72 		.ascii	"DoorOpen\000"
 14785      4F70656E 
 14785      00
 14786              	.LASF69:
 14787 0fe7 4359424C 		.ascii	"CYBLE_EVT_L2CAP_CBFC_CONN_IND\000"
ARM GAS  C:\Users\Administrator\AppData\Local\Temp\ccexfbaX.s 			page 319


 14787      455F4556 
 14787      545F4C32 
 14787      4341505F 
 14787      43424643 
 14788              	.LASF58:
 14789 1005 4359424C 		.ascii	"CYBLE_EVT_GATTS_EXEC_WRITE_REQ\000"
 14789      455F4556 
 14789      545F4741 
 14789      5454535F 
 14789      45584543 
 14790              	.LASF29:
 14791 1024 4359424C 		.ascii	"CYBLE_EVT_GAPC_SCAN_PROGRESS_RESULT\000"
 14791      455F4556 
 14791      545F4741 
 14791      50435F53 
 14791      43414E5F 
 14792              	.LASF252:
 14793 1048 4C65645F 		.ascii	"Led_RedON\000"
 14793      5265644F 
 14793      4E00
 14794              	.LASF178:
 14795 1052 50726F74 		.ascii	"Protocol_CmdParse\000"
 14795      6F636F6C 
 14795      5F436D64 
 14795      50617273 
 14795      6500
 14796              	.LASF227:
 14797 1064 7374726C 		.ascii	"strlen\000"
 14797      656E00
 14798              	.LASF115:
 14799 106b 50726F74 		.ascii	"Protocol_CmdManufac\000"
 14799      6F636F6C 
 14799      5F436D64 
 14799      4D616E75 
 14799      66616300 
 14800              	.LASF237:
 14801 107f 6D656D63 		.ascii	"memcpy\000"
 14801      707900
 14802              	.LASF195:
 14803 1086 75706461 		.ascii	"update_flag\000"
 14803      74655F66 
 14803      6C616700 
 14804              	.LASF78:
 14805 1092 4359424C 		.ascii	"CYBLE_EVT_LE_PING_AUTH_TIMEOUT\000"
 14805      455F4556 
 14805      545F4C45 
 14805      5F50494E 
 14805      475F4155 
 14806              	.LASF258:
 14807 10b1 57726974 		.ascii	"Write_UpdateInfo\000"
 14807      655F5570 
 14807      64617465 
 14807      496E666F 
 14807      00
 14808              	.LASF61:
 14809 10c2 4359424C 		.ascii	"CYBLE_EVT_GATTC_HANDLE_VALUE_IND\000"
 14809      455F4556 
ARM GAS  C:\Users\Administrator\AppData\Local\Temp\ccexfbaX.s 			page 320


 14809      545F4741 
 14809      5454435F 
 14809      48414E44 
 14810              	.LASF14:
 14811 10e3 75696E74 		.ascii	"uint32_t\000"
 14811      33325F74 
 14811      00
 14812              	.LASF109:
 14813 10ec 6F70656E 		.ascii	"opentime\000"
 14813      74696D65 
 14813      00
 14814              	.LASF188:
 14815 10f5 73797374 		.ascii	"system_version\000"
 14815      656D5F76 
 14815      65727369 
 14815      6F6E00
 14816              	.LASF223:
 14817 1104 666C6167 		.ascii	"flag_reboot\000"
 14817      5F726562 
 14817      6F6F7400 
 14818              	.LASF41:
 14819 1110 4359424C 		.ascii	"CYBLE_EVT_GAP_KEYINFO_EXCHNGE_CMPLT\000"
 14819      455F4556 
 14819      545F4741 
 14819      505F4B45 
 14819      59494E46 
 14820              	.LASF197:
 14821 1134 75706461 		.ascii	"update_page\000"
 14821      74655F70 
 14821      61676500 
 14822              	.LASF143:
 14823 1140 63757272 		.ascii	"curr_packet_len\000"
 14823      5F706163 
 14823      6B65745F 
 14823      6C656E00 
 14824              	.LASF66:
 14825 1150 4359424C 		.ascii	"CYBLE_EVT_L2CAP_CONN_PARAM_UPDATE_REQ\000"
 14825      455F4556 
 14825      545F4C32 
 14825      4341505F 
 14825      434F4E4E 
 14826              	.LASF170:
 14827 1176 73746172 		.ascii	"start_time\000"
 14827      745F7469 
 14827      6D6500
 14828              	.LASF0:
 14829 1181 73686F72 		.ascii	"short unsigned int\000"
 14829      7420756E 
 14829      7369676E 
 14829      65642069 
 14829      6E7400
 14830              	.LASF189:
 14831 1194 4D61635F 		.ascii	"Mac_Addr\000"
 14831      41646472 
 14831      00
 14832              	.LASF262:
 14833 119d 436F6465 		.ascii	"Code\\UserApp\\Protocol\\CmdProtocol.c\000"
ARM GAS  C:\Users\Administrator\AppData\Local\Temp\ccexfbaX.s 			page 321


 14833      5C557365 
 14833      72417070 
 14833      5C50726F 
 14833      746F636F 
 14834              	.LASF167:
 14835 11c1 64617461 		.ascii	"data_openinfo\000"
 14835      5F6F7065 
 14835      6E696E66 
 14835      6F00
 14836              	.LASF168:
 14837 11cf 73746172 		.ascii	"start_t\000"
 14837      745F7400 
 14838              	.LASF134:
 14839 11d7 73656E64 		.ascii	"send_time_adjust\000"
 14839      5F74696D 
 14839      655F6164 
 14839      6A757374 
 14839      00
 14840              	.LASF216:
 14841 11e8 75706C6F 		.ascii	"uploadpolling_stop\000"
 14841      6164706F 
 14841      6C6C696E 
 14841      675F7374 
 14841      6F7000
 14842              	.LASF191:
 14843 11fb 7072655F 		.ascii	"pre_ip\000"
 14843      697000
 14844              	.LASF27:
 14845 1202 4359424C 		.ascii	"CYBLE_EVT_HCI_STATUS\000"
 14845      455F4556 
 14845      545F4843 
 14845      495F5354 
 14845      41545553 
 14846              	.LASF44:
 14847 1217 4359424C 		.ascii	"CYBLE_EVT_GATT_DISCONNECT_IND\000"
 14847      455F4556 
 14847      545F4741 
 14847      54545F44 
 14847      4953434F 
 14848              	.LASF76:
 14849 1235 4359424C 		.ascii	"CYBLE_EVT_L2CAP_CBFC_DATA_WRITE_IND\000"
 14849      455F4556 
 14849      545F4C32 
 14849      4341505F 
 14849      43424643 
 14850              	.LASF128:
 14851 1259 73656E64 		.ascii	"send_upload_open_info\000"
 14851      5F75706C 
 14851      6F61645F 
 14851      6F70656E 
 14851      5F696E66 
 14852              	.LASF123:
 14853 126f 74696D65 		.ascii	"time_arr\000"
 14853      5F617272 
 14853      00
 14854              	.LASF37:
 14855 1278 4359424C 		.ascii	"CYBLE_EVT_GAP_DEVICE_DISCONNECTED\000"
ARM GAS  C:\Users\Administrator\AppData\Local\Temp\ccexfbaX.s 			page 322


 14855      455F4556 
 14855      545F4741 
 14855      505F4445 
 14855      56494345 
 14856              	.LASF259:
 14857 129a 57726974 		.ascii	"Write_CenterIpType\000"
 14857      655F4365 
 14857      6E746572 
 14857      49705479 
 14857      706500
 14858              	.LASF62:
 14859 12ad 4359424C 		.ascii	"CYBLE_EVT_GATTS_HANDLE_VALUE_CNF\000"
 14859      455F4556 
 14859      545F4741 
 14859      5454535F 
 14859      48414E44 
 14860              	.LASF16:
 14861 12ce 75696E74 		.ascii	"uint16\000"
 14861      313600
 14862              	.LASF224:
 14863 12d5 4C45445F 		.ascii	"LED_State\000"
 14863      53746174 
 14863      6500
 14864              	.LASF231:
 14865 12df 55706461 		.ascii	"Updatealarm_check\000"
 14865      7465616C 
 14865      61726D5F 
 14865      63686563 
 14865      6B00
 14866              	.LASF210:
 14867 12f1 436D645F 		.ascii	"Cmd_index\000"
 14867      696E6465 
 14867      7800
 14868              		.ident	"GCC: (GNU Tools for ARM Embedded Processors) 5.4.1 20160609 (release) [ARM/embedded-5-bran
