ARM GAS  C:\Users\Administrator\AppData\Local\Temp\ccexfbaX.s 			page 1


   1              		.syntax unified
   2              		.cpu cortex-m0
   3              		.fpu softvfp
   4              		.eabi_attribute 20, 1
   5              		.eabi_attribute 21, 1
   6              		.eabi_attribute 23, 3
   7              		.eabi_attribute 24, 1
   8              		.eabi_attribute 25, 1
   9              		.eabi_attribute 26, 1
  10              		.eabi_attribute 30, 4
  11              		.eabi_attribute 34, 0
  12              		.eabi_attribute 18, 4
  13              		.thumb
  14              		.syntax unified
  15              		.file	"CmdProtocol.c"
  16              		.text
  17              	.Ltext0:
  18              		.cfi_sections	.debug_frame
  19              		.global	__aeabi_uidiv
  20              		.global	__aeabi_uidivmod
  21              		.section	.text.Protocol_CmdGetPreSever,"ax",%progbits
  22              		.align	1
  23              		.code	16
  24              		.thumb_func
  25              		.type	Protocol_CmdGetPreSever, %function
  26              	Protocol_CmdGetPreSever:
  27              	.LFB73:
  28              		.file 1 "Code\\UserApp\\Protocol\\CmdProtocol.c"
   1:Code\UserApp\Protocol/CmdProtocol.c **** //*************************************************************************************************
   2:Code\UserApp\Protocol/CmdProtocol.c **** // File name		: x33AppProtocol.c
   3:Code\UserApp\Protocol/CmdProtocol.c **** // Description		: è“ç‰™åè®®ç›¸å…³å‡½æ•°
   4:Code\UserApp\Protocol/CmdProtocol.c **** // Author			: Keno
   5:Code\UserApp\Protocol/CmdProtocol.c **** // Date				: 2016.8.8
   6:Code\UserApp\Protocol/CmdProtocol.c **** // Version			: V02
   7:Code\UserApp\Protocol/CmdProtocol.c **** //-------------------------------------------------------------------------------------------------
   8:Code\UserApp\Protocol/CmdProtocol.c **** // Info				: 
   9:Code\UserApp\Protocol/CmdProtocol.c **** //*************************************************************************************************
  10:Code\UserApp\Protocol/CmdProtocol.c **** #include "CmdProtocol.h"
  11:Code\UserApp\Protocol/CmdProtocol.c **** 
  12:Code\UserApp\Protocol/CmdProtocol.c **** 
  13:Code\UserApp\Protocol/CmdProtocol.c **** 
  14:Code\UserApp\Protocol/CmdProtocol.c **** //******************************************* å¤–éƒ¨å˜é‡å£°æ˜ **********************************
  15:Code\UserApp\Protocol/CmdProtocol.c **** extern uint8 system_version;
  16:Code\UserApp\Protocol/CmdProtocol.c **** 
  17:Code\UserApp\Protocol/CmdProtocol.c **** extern volatile uint8 Mac_Addr[6];
  18:Code\UserApp\Protocol/CmdProtocol.c **** 
  19:Code\UserApp\Protocol/CmdProtocol.c **** extern uint8 domain[200];
  20:Code\UserApp\Protocol/CmdProtocol.c **** extern uint8 pre_ip[200];
  21:Code\UserApp\Protocol/CmdProtocol.c **** extern uint8 pre_port[6];
  22:Code\UserApp\Protocol/CmdProtocol.c **** extern uint8 update_ip[16];
  23:Code\UserApp\Protocol/CmdProtocol.c **** extern uint8 update_port[5];
  24:Code\UserApp\Protocol/CmdProtocol.c **** extern uint8 update_flag;
  25:Code\UserApp\Protocol/CmdProtocol.c **** extern uint16 update_version;
  26:Code\UserApp\Protocol/CmdProtocol.c **** extern uint16 update_page;
  27:Code\UserApp\Protocol/CmdProtocol.c **** #if 0
  28:Code\UserApp\Protocol/CmdProtocol.c **** extern uint16 update_offset;
  29:Code\UserApp\Protocol/CmdProtocol.c **** extern uint16 Image_size;
ARM GAS  C:\Users\Administrator\AppData\Local\Temp\ccexfbaX.s 			page 2


  30:Code\UserApp\Protocol/CmdProtocol.c **** #endif
  31:Code\UserApp\Protocol/CmdProtocol.c **** 
  32:Code\UserApp\Protocol/CmdProtocol.c **** extern uint32 update_offset;
  33:Code\UserApp\Protocol/CmdProtocol.c **** extern uint32 Image_size;
  34:Code\UserApp\Protocol/CmdProtocol.c **** 
  35:Code\UserApp\Protocol/CmdProtocol.c **** extern uint8 SendMacFlag;
  36:Code\UserApp\Protocol/CmdProtocol.c **** extern uint8 gprs_state;
  37:Code\UserApp\Protocol/CmdProtocol.c **** 
  38:Code\UserApp\Protocol/CmdProtocol.c **** extern uint8 GPRSCmdParseFlag1;
  39:Code\UserApp\Protocol/CmdProtocol.c **** extern uint8 GPRSCmdParseFlag2;
  40:Code\UserApp\Protocol/CmdProtocol.c **** extern volatile uint8 GPRSCmd_buf1[DATABUF_SIZE];
  41:Code\UserApp\Protocol/CmdProtocol.c **** extern volatile uint8 GPRSCmd_buf2[DATABUF_SIZE];
  42:Code\UserApp\Protocol/CmdProtocol.c **** 
  43:Code\UserApp\Protocol/CmdProtocol.c **** extern volatile uint8  RecvType;
  44:Code\UserApp\Protocol/CmdProtocol.c **** extern volatile uint8  CmdRev_buf[DATABUF_SIZE];
  45:Code\UserApp\Protocol/CmdProtocol.c **** extern volatile uint16 Cmd_Baglen;
  46:Code\UserApp\Protocol/CmdProtocol.c **** extern volatile uint8  Cmd_Revsta;
  47:Code\UserApp\Protocol/CmdProtocol.c **** extern volatile uint16 Cmd_index;
  48:Code\UserApp\Protocol/CmdProtocol.c **** 
  49:Code\UserApp\Protocol/CmdProtocol.c **** extern uint32 cur_time;
  50:Code\UserApp\Protocol/CmdProtocol.c **** extern uint32 next_network_time;
  51:Code\UserApp\Protocol/CmdProtocol.c **** extern uint32 next_heartbeat_time;
  52:Code\UserApp\Protocol/CmdProtocol.c **** extern uint32 next_gprs_operation_time;
  53:Code\UserApp\Protocol/CmdProtocol.c **** extern uint32 next_gprs_upload_time;									// ä¸‹ä¸€æ¬¡GPRSä¸»åŠ¨ä¸ŠæŠ¥æ—¶é—´				//
  54:Code\UserApp\Protocol/CmdProtocol.c **** extern uint32 next_allupload_time;		
  55:Code\UserApp\Protocol/CmdProtocol.c **** extern uint8  uploadpolling_stop;										// è½®è®­ä¸ŠæŠ¥å¼€é—¨ä¿¡æ¯ åœæ­¢ä½				//
  56:Code\UserApp\Protocol/CmdProtocol.c **** 
  57:Code\UserApp\Protocol/CmdProtocol.c **** 
  58:Code\UserApp\Protocol/CmdProtocol.c **** extern uint8  update_timeout_count;
  59:Code\UserApp\Protocol/CmdProtocol.c **** extern volatile uint32 update_timeout_time;
  60:Code\UserApp\Protocol/CmdProtocol.c **** extern volatile uint32 wait_timeout;
  61:Code\UserApp\Protocol/CmdProtocol.c **** extern uint8  gprs_operation_ErrCount;
  62:Code\UserApp\Protocol/CmdProtocol.c **** extern uint8  heartbeat_SendCount;
  63:Code\UserApp\Protocol/CmdProtocol.c **** 
  64:Code\UserApp\Protocol/CmdProtocol.c **** extern uint8  Card_ErrCount;
  65:Code\UserApp\Protocol/CmdProtocol.c **** extern uint8  flag_reboot;
  66:Code\UserApp\Protocol/CmdProtocol.c **** extern uint8  stop_reboot;
  67:Code\UserApp\Protocol/CmdProtocol.c **** 
  68:Code\UserApp\Protocol/CmdProtocol.c **** extern uint8  LED_State;
  69:Code\UserApp\Protocol/CmdProtocol.c **** 
  70:Code\UserApp\Protocol/CmdProtocol.c **** 
  71:Code\UserApp\Protocol/CmdProtocol.c **** //********************************************* å˜é‡å£°æ˜ **************************************
  72:Code\UserApp\Protocol/CmdProtocol.c **** uint16 UploadQty;
  73:Code\UserApp\Protocol/CmdProtocol.c **** uint16 UploadStartnum;
  74:Code\UserApp\Protocol/CmdProtocol.c **** 
  75:Code\UserApp\Protocol/CmdProtocol.c **** 
  76:Code\UserApp\Protocol/CmdProtocol.c **** 
  77:Code\UserApp\Protocol/CmdProtocol.c **** //******************************************* å¤–éƒ¨å‡½æ•°å£°æ˜ **********************************
  78:Code\UserApp\Protocol/CmdProtocol.c **** extern void delay_with_ble(uint32 ms);
  79:Code\UserApp\Protocol/CmdProtocol.c **** extern void ble_heartbeat(void);
  80:Code\UserApp\Protocol/CmdProtocol.c **** extern void Led_RedON(void);
  81:Code\UserApp\Protocol/CmdProtocol.c **** extern void Led_GreenON(void);
  82:Code\UserApp\Protocol/CmdProtocol.c **** extern void Led_SetState(uint8 Sta);
  83:Code\UserApp\Protocol/CmdProtocol.c **** extern void DoorOpen(void);
  84:Code\UserApp\Protocol/CmdProtocol.c **** extern void DoorClose(void);
  85:Code\UserApp\Protocol/CmdProtocol.c **** extern void Updatealarm_check(void);
  86:Code\UserApp\Protocol/CmdProtocol.c **** 
ARM GAS  C:\Users\Administrator\AppData\Local\Temp\ccexfbaX.s 			page 3


  87:Code\UserApp\Protocol/CmdProtocol.c **** 
  88:Code\UserApp\Protocol/CmdProtocol.c **** int Endpoint_exchange(uint8 card_data[])
  89:Code\UserApp\Protocol/CmdProtocol.c **** {
  90:Code\UserApp\Protocol/CmdProtocol.c **** 	uint8 databuf[8] = {0};
  91:Code\UserApp\Protocol/CmdProtocol.c **** 
  92:Code\UserApp\Protocol/CmdProtocol.c **** 	DBG_SOFT_PutStr("Endpoint_exchange1:\n");
  93:Code\UserApp\Protocol/CmdProtocol.c **** 	DBG_SOFT_PrintfHex(card_data,8,16);
  94:Code\UserApp\Protocol/CmdProtocol.c **** 	
  95:Code\UserApp\Protocol/CmdProtocol.c **** 	// å¦‚æœæ˜¯Aå¡ å‰/åé¢4Bæ˜¯0 è½¬æ¢ä½ç½® 
  96:Code\UserApp\Protocol/CmdProtocol.c **** 	if((card_data[4] == 0 && card_data[5] == 0 
  97:Code\UserApp\Protocol/CmdProtocol.c **** 	 && card_data[6] == 0 && card_data[7] == 0) ||
  98:Code\UserApp\Protocol/CmdProtocol.c **** 	   (card_data[0] == 0 && card_data[1] == 0 
  99:Code\UserApp\Protocol/CmdProtocol.c **** 	 && card_data[2] == 0 && card_data[3] == 0))
 100:Code\UserApp\Protocol/CmdProtocol.c **** 	{
 101:Code\UserApp\Protocol/CmdProtocol.c **** 		memcpy(databuf+4, card_data, 4);						// å‰4ä¸ªUIDæ‹·è´åˆ°åå››ä¸ª 
 102:Code\UserApp\Protocol/CmdProtocol.c **** 		memcpy(databuf, card_data+4, 4);						// å4ä¸ªUIDæ‹·è´åˆ°å‰å››ä¸ª 
 103:Code\UserApp\Protocol/CmdProtocol.c **** 		
 104:Code\UserApp\Protocol/CmdProtocol.c **** 		memcpy(card_data,databuf,8);							// å…¨éƒ¨è€ƒå›
 105:Code\UserApp\Protocol/CmdProtocol.c **** 	}
 106:Code\UserApp\Protocol/CmdProtocol.c **** 	DBG_SOFT_PutStr("Endpoint_exchange2:\n");
 107:Code\UserApp\Protocol/CmdProtocol.c **** 	DBG_SOFT_PrintfHex(card_data,8,16);
 108:Code\UserApp\Protocol/CmdProtocol.c **** 	return 0;
 109:Code\UserApp\Protocol/CmdProtocol.c **** }
 110:Code\UserApp\Protocol/CmdProtocol.c **** 
 111:Code\UserApp\Protocol/CmdProtocol.c **** 
 112:Code\UserApp\Protocol/CmdProtocol.c **** 
 113:Code\UserApp\Protocol/CmdProtocol.c **** //*************************************************************************************************
 114:Code\UserApp\Protocol/CmdProtocol.c **** // Function name	: Cmd_Protocol_ParaInit
 115:Code\UserApp\Protocol/CmdProtocol.c **** // Description		: å‘½ä»¤ç›¸å…³å‚æ•°åˆå§‹åŒ–
 116:Code\UserApp\Protocol/CmdProtocol.c **** // Parameter		: none
 117:Code\UserApp\Protocol/CmdProtocol.c **** // Return			: none
 118:Code\UserApp\Protocol/CmdProtocol.c **** //-------------------------------------------------------------------------------------------------
 119:Code\UserApp\Protocol/CmdProtocol.c **** // Info				: 
 120:Code\UserApp\Protocol/CmdProtocol.c **** //*************************************************************************************************
 121:Code\UserApp\Protocol/CmdProtocol.c **** void Cmd_Protocol_ParaInit(void)
 122:Code\UserApp\Protocol/CmdProtocol.c **** {
 123:Code\UserApp\Protocol/CmdProtocol.c **** 	RecvType = 0;
 124:Code\UserApp\Protocol/CmdProtocol.c **** 	Cmd_Baglen = 0;
 125:Code\UserApp\Protocol/CmdProtocol.c **** 	Cmd_Revsta = 0;
 126:Code\UserApp\Protocol/CmdProtocol.c **** 	Cmd_index = 0;
 127:Code\UserApp\Protocol/CmdProtocol.c **** 	GPRSCmdParseFlag1 = RESET;
 128:Code\UserApp\Protocol/CmdProtocol.c **** 	GPRSCmdParseFlag2 = RESET;
 129:Code\UserApp\Protocol/CmdProtocol.c **** 	memset((char *)CmdRev_buf, 0, sizeof(CmdRev_buf));
 130:Code\UserApp\Protocol/CmdProtocol.c **** 	memset((char *)GPRSCmd_buf1, 0, sizeof(GPRSCmd_buf1));
 131:Code\UserApp\Protocol/CmdProtocol.c **** 	memset((char *)GPRSCmd_buf2, 0, sizeof(GPRSCmd_buf2));
 132:Code\UserApp\Protocol/CmdProtocol.c **** }
 133:Code\UserApp\Protocol/CmdProtocol.c **** 
 134:Code\UserApp\Protocol/CmdProtocol.c **** //===ã€å¼€å§‹ã€‘===================== ä¸šåŠ¡å±‚ä¸»åŠ¨ä¸ŠæŠ¥æœåŠ¡å™¨æŒ‡ä»¤ =======================
 135:Code\UserApp\Protocol/CmdProtocol.c **** 
 136:Code\UserApp\Protocol/CmdProtocol.c **** //*************************************************************************************************
 137:Code\UserApp\Protocol/CmdProtocol.c **** // Function name	: send_get_forntserviceip
 138:Code\UserApp\Protocol/CmdProtocol.c **** // Description		: è·å–æœåŠ¡å™¨åœ°å€  0x01
 139:Code\UserApp\Protocol/CmdProtocol.c **** // Parameter		: none
 140:Code\UserApp\Protocol/CmdProtocol.c **** // Return			: none
 141:Code\UserApp\Protocol/CmdProtocol.c **** //-------------------------------------------------------------------------------------------------
 142:Code\UserApp\Protocol/CmdProtocol.c **** // è¯´æ˜				: 
 143:Code\UserApp\Protocol/CmdProtocol.c **** //*************************************************************************************************
ARM GAS  C:\Users\Administrator\AppData\Local\Temp\ccexfbaX.s 			page 4


 144:Code\UserApp\Protocol/CmdProtocol.c **** uint8_t send_get_pre_service_ip(void)
 145:Code\UserApp\Protocol/CmdProtocol.c **** {
 146:Code\UserApp\Protocol/CmdProtocol.c **** 	uint8 uart_buf[96];
 147:Code\UserApp\Protocol/CmdProtocol.c **** 	uint8 time_arr[4];
 148:Code\UserApp\Protocol/CmdProtocol.c **** 	uint32_t time_tmp;
 149:Code\UserApp\Protocol/CmdProtocol.c **** 	uint16_t TempCrc = 0;
 150:Code\UserApp\Protocol/CmdProtocol.c **** 	uint16_t cnt = 0;
 151:Code\UserApp\Protocol/CmdProtocol.c **** 	uint16_t i = 0;
 152:Code\UserApp\Protocol/CmdProtocol.c **** 	uint16_t pack_len = 0x0F;
 153:Code\UserApp\Protocol/CmdProtocol.c **** 	
 154:Code\UserApp\Protocol/CmdProtocol.c **** 	uart_buf[cnt++] = 0xef;
 155:Code\UserApp\Protocol/CmdProtocol.c **** 	uart_buf[cnt++] = 0x3a;
 156:Code\UserApp\Protocol/CmdProtocol.c **** 	uart_buf[cnt++] = (pack_len >> 8) & 0xFF;					// åŒ…é•¿åº¦é«˜å­—èŠ‚							//
 157:Code\UserApp\Protocol/CmdProtocol.c **** 	uart_buf[cnt++] = pack_len & 0xFF;							// åŒ…é•¿åº¦ä½å­—èŠ‚							//
 158:Code\UserApp\Protocol/CmdProtocol.c **** 	uart_buf[cnt++] = 0x01;
 159:Code\UserApp\Protocol/CmdProtocol.c **** 	uart_buf[cnt++] = 0x01;
 160:Code\UserApp\Protocol/CmdProtocol.c **** 	uart_buf[cnt++] = 0x01;
 161:Code\UserApp\Protocol/CmdProtocol.c **** 	
 162:Code\UserApp\Protocol/CmdProtocol.c **** 	for(i = 0; i < 6; i++)										// MACåœ°å€								//
 163:Code\UserApp\Protocol/CmdProtocol.c **** 	{
 164:Code\UserApp\Protocol/CmdProtocol.c **** 		uart_buf[cnt++] = Mac_Addr[i];
 165:Code\UserApp\Protocol/CmdProtocol.c **** 	}
 166:Code\UserApp\Protocol/CmdProtocol.c **** 	
 167:Code\UserApp\Protocol/CmdProtocol.c **** 	time_tmp = (uint32)RTC_GetUnixTime();						// æ—¶é—´æˆ³								//
 168:Code\UserApp\Protocol/CmdProtocol.c **** 	LONG2BYTE(time_tmp, time_arr);
 169:Code\UserApp\Protocol/CmdProtocol.c **** 	uart_buf[cnt++] = time_arr[0];
 170:Code\UserApp\Protocol/CmdProtocol.c **** 	uart_buf[cnt++] = time_arr[1];
 171:Code\UserApp\Protocol/CmdProtocol.c **** 	uart_buf[cnt++] = time_arr[2];
 172:Code\UserApp\Protocol/CmdProtocol.c **** 	uart_buf[cnt++] = time_arr[3];
 173:Code\UserApp\Protocol/CmdProtocol.c **** 	
 174:Code\UserApp\Protocol/CmdProtocol.c **** 	TempCrc = MyCrc16Check(uart_buf, pack_len + 0x02);			// CRCæ ¡éªŒ								//
 175:Code\UserApp\Protocol/CmdProtocol.c **** 	uart_buf[cnt++] = (TempCrc >> 8) & 0xFF;
 176:Code\UserApp\Protocol/CmdProtocol.c **** 	uart_buf[cnt++] = TempCrc & 0xFF;
 177:Code\UserApp\Protocol/CmdProtocol.c **** 	
 178:Code\UserApp\Protocol/CmdProtocol.c **** 	GPRS_SendHexDataToServer((uint8_t *)uart_buf, ((uart_buf[2] << 8) + uart_buf[3] + 4));
 179:Code\UserApp\Protocol/CmdProtocol.c **** 	return 0;
 180:Code\UserApp\Protocol/CmdProtocol.c **** }
 181:Code\UserApp\Protocol/CmdProtocol.c **** 
 182:Code\UserApp\Protocol/CmdProtocol.c **** //*************************************************************************************************
 183:Code\UserApp\Protocol/CmdProtocol.c **** // Function name	: send_send_mac_and_get_blekey
 184:Code\UserApp\Protocol/CmdProtocol.c **** // Description		: ç”³æŠ¥macå’Œè·å–blekey  0x02
 185:Code\UserApp\Protocol/CmdProtocol.c **** // Parameter		: none
 186:Code\UserApp\Protocol/CmdProtocol.c **** // Return			: none
 187:Code\UserApp\Protocol/CmdProtocol.c **** //-------------------------------------------------------------------------------------------------
 188:Code\UserApp\Protocol/CmdProtocol.c **** // è¯´æ˜				: 
 189:Code\UserApp\Protocol/CmdProtocol.c **** //*************************************************************************************************
 190:Code\UserApp\Protocol/CmdProtocol.c **** uint8_t send_send_mac_and_get_blekey(void)
 191:Code\UserApp\Protocol/CmdProtocol.c **** {
 192:Code\UserApp\Protocol/CmdProtocol.c **** 	uint8 ver;
 193:Code\UserApp\Protocol/CmdProtocol.c **** 	uint8 uart_buf[96];
 194:Code\UserApp\Protocol/CmdProtocol.c **** 	uint8 time_arr[4];
 195:Code\UserApp\Protocol/CmdProtocol.c **** 	uint32_t time_tmp;
 196:Code\UserApp\Protocol/CmdProtocol.c **** 	uint16_t TempCrc = 0;
 197:Code\UserApp\Protocol/CmdProtocol.c **** 	uint16_t cnt = 0;
 198:Code\UserApp\Protocol/CmdProtocol.c **** 	uint16_t i = 0;
 199:Code\UserApp\Protocol/CmdProtocol.c **** 	uint16_t pack_len = 0x11;
 200:Code\UserApp\Protocol/CmdProtocol.c ****     
ARM GAS  C:\Users\Administrator\AppData\Local\Temp\ccexfbaX.s 			page 5


 201:Code\UserApp\Protocol/CmdProtocol.c **** 	uart_buf[cnt++] = 0xef;
 202:Code\UserApp\Protocol/CmdProtocol.c **** 	uart_buf[cnt++] = 0x3a;
 203:Code\UserApp\Protocol/CmdProtocol.c **** 	uart_buf[cnt++] = (pack_len >> 8) & 0xFF;					// åŒ…é•¿åº¦é«˜å­—èŠ‚							//
 204:Code\UserApp\Protocol/CmdProtocol.c **** 	uart_buf[cnt++] = pack_len & 0xFF;							// åŒ…é•¿åº¦ä½å­—èŠ‚							//
 205:Code\UserApp\Protocol/CmdProtocol.c **** 	uart_buf[cnt++] = 0x01;
 206:Code\UserApp\Protocol/CmdProtocol.c **** 	uart_buf[cnt++] = 0x01;
 207:Code\UserApp\Protocol/CmdProtocol.c **** 	uart_buf[cnt++] = 0x02;
 208:Code\UserApp\Protocol/CmdProtocol.c **** 	
 209:Code\UserApp\Protocol/CmdProtocol.c **** 	for(i = 0; i < 6; i++)										// MACåœ°å€								//
 210:Code\UserApp\Protocol/CmdProtocol.c **** 	{
 211:Code\UserApp\Protocol/CmdProtocol.c **** 		uart_buf[cnt++] = Mac_Addr[i];
 212:Code\UserApp\Protocol/CmdProtocol.c **** 	}
 213:Code\UserApp\Protocol/CmdProtocol.c **** 
 214:Code\UserApp\Protocol/CmdProtocol.c **** 	ver = system_version;										// å›ºä»¶ç‰ˆæœ¬å·							//
 215:Code\UserApp\Protocol/CmdProtocol.c **** 	uart_buf[cnt++] = (ver >> 8) & 0xFF;
 216:Code\UserApp\Protocol/CmdProtocol.c **** 	uart_buf[cnt++] = ver & 0xFF;
 217:Code\UserApp\Protocol/CmdProtocol.c **** 	    
 218:Code\UserApp\Protocol/CmdProtocol.c **** 	time_tmp = (uint32)RTC_GetUnixTime();						// æ—¶é—´æˆ³								//
 219:Code\UserApp\Protocol/CmdProtocol.c **** 	LONG2BYTE(time_tmp, time_arr);
 220:Code\UserApp\Protocol/CmdProtocol.c **** 	uart_buf[cnt++] = time_arr[0];
 221:Code\UserApp\Protocol/CmdProtocol.c **** 	uart_buf[cnt++] = time_arr[1];
 222:Code\UserApp\Protocol/CmdProtocol.c **** 	uart_buf[cnt++] = time_arr[2];
 223:Code\UserApp\Protocol/CmdProtocol.c **** 	uart_buf[cnt++] = time_arr[3];
 224:Code\UserApp\Protocol/CmdProtocol.c **** 	
 225:Code\UserApp\Protocol/CmdProtocol.c **** 	TempCrc = MyCrc16Check(uart_buf, pack_len + 0x02);			// CRCæ ¡éªŒ								//
 226:Code\UserApp\Protocol/CmdProtocol.c **** 	uart_buf[cnt++] = (TempCrc >> 8) & 0xFF;
 227:Code\UserApp\Protocol/CmdProtocol.c **** 	uart_buf[cnt++] = TempCrc & 0xFF;
 228:Code\UserApp\Protocol/CmdProtocol.c **** 	
 229:Code\UserApp\Protocol/CmdProtocol.c **** 	GPRS_SendHexDataToServer((uint8_t *)uart_buf, ((uart_buf[2] << 8) + uart_buf[3] + 4));
 230:Code\UserApp\Protocol/CmdProtocol.c **** 	return 0;
 231:Code\UserApp\Protocol/CmdProtocol.c **** }
 232:Code\UserApp\Protocol/CmdProtocol.c **** 
 233:Code\UserApp\Protocol/CmdProtocol.c **** 
 234:Code\UserApp\Protocol/CmdProtocol.c **** //*************************************************************************************************
 235:Code\UserApp\Protocol/CmdProtocol.c **** // Function name	: send_upload_open_info
 236:Code\UserApp\Protocol/CmdProtocol.c **** // Description		: å¼€é—¨ä¿¡æ¯ä¸ŠæŠ¥  0x07
 237:Code\UserApp\Protocol/CmdProtocol.c **** // Parameter		: open_info	: å¼€é—¨ä¿¡æ¯
 238:Code\UserApp\Protocol/CmdProtocol.c **** //					: uidlen	: UIDé•¿åº¦
 239:Code\UserApp\Protocol/CmdProtocol.c **** //					: open_mode	: å¼€é—¨æ–¹å¼
 240:Code\UserApp\Protocol/CmdProtocol.c **** // Return			: none
 241:Code\UserApp\Protocol/CmdProtocol.c **** //-------------------------------------------------------------------------------------------------
 242:Code\UserApp\Protocol/CmdProtocol.c **** // è¯´æ˜				: 
 243:Code\UserApp\Protocol/CmdProtocol.c **** //*************************************************************************************************
 244:Code\UserApp\Protocol/CmdProtocol.c **** uint8_t send_upload_open_info(open_door_t* open_info, uint8_t uidlen, uint8_t open_mode)
 245:Code\UserApp\Protocol/CmdProtocol.c **** {
 246:Code\UserApp\Protocol/CmdProtocol.c **** 	uint8 uart_buf[96];
 247:Code\UserApp\Protocol/CmdProtocol.c **** 	uint8 time_arr[4];
 248:Code\UserApp\Protocol/CmdProtocol.c **** 	uint32_t time_tmp;
 249:Code\UserApp\Protocol/CmdProtocol.c **** 	uint16_t TempCrc = 0;
 250:Code\UserApp\Protocol/CmdProtocol.c **** 	uint16_t cnt = 0;
 251:Code\UserApp\Protocol/CmdProtocol.c **** 	uint16_t i = 0;
 252:Code\UserApp\Protocol/CmdProtocol.c **** 	open_door_t *pstr = open_info;
 253:Code\UserApp\Protocol/CmdProtocol.c ****     uint16_t pack_len = 0x1c;
 254:Code\UserApp\Protocol/CmdProtocol.c **** 		
 255:Code\UserApp\Protocol/CmdProtocol.c **** 	uart_buf[cnt++] = 0xef;
 256:Code\UserApp\Protocol/CmdProtocol.c **** 	uart_buf[cnt++] = 0x3a;
 257:Code\UserApp\Protocol/CmdProtocol.c **** 	uart_buf[cnt++] = (pack_len >> 8) & 0xFF;					// åŒ…é•¿åº¦é«˜å­—èŠ‚							//
ARM GAS  C:\Users\Administrator\AppData\Local\Temp\ccexfbaX.s 			page 6


 258:Code\UserApp\Protocol/CmdProtocol.c **** 	uart_buf[cnt++] = pack_len & 0xFF;							// åŒ…é•¿åº¦ä½å­—èŠ‚							//
 259:Code\UserApp\Protocol/CmdProtocol.c **** 	uart_buf[cnt++] = 0x01;
 260:Code\UserApp\Protocol/CmdProtocol.c **** 	uart_buf[cnt++] = 0x01;
 261:Code\UserApp\Protocol/CmdProtocol.c **** 	uart_buf[cnt++] = 0x07;
 262:Code\UserApp\Protocol/CmdProtocol.c **** 	
 263:Code\UserApp\Protocol/CmdProtocol.c **** 	for(i = 0; i < 6; i++)										// MACåœ°å€								//
 264:Code\UserApp\Protocol/CmdProtocol.c **** 	{
 265:Code\UserApp\Protocol/CmdProtocol.c **** 		uart_buf[cnt++] = Mac_Addr[i];
 266:Code\UserApp\Protocol/CmdProtocol.c **** 	}
 267:Code\UserApp\Protocol/CmdProtocol.c **** 	
 268:Code\UserApp\Protocol/CmdProtocol.c **** 	Endpoint_exchange(pstr->card_uid);							// Aå¡æ•°æ®ä½ç½®è½¬æ¢ @ 18-1-17			//
 269:Code\UserApp\Protocol/CmdProtocol.c **** 	{
 270:Code\UserApp\Protocol/CmdProtocol.c **** 		for(i = 0; i < uidlen; i++)								// Bå¡ä¸å˜								//
 271:Code\UserApp\Protocol/CmdProtocol.c **** 		{
 272:Code\UserApp\Protocol/CmdProtocol.c **** 			uart_buf[cnt++] = pstr->card_uid[i];
 273:Code\UserApp\Protocol/CmdProtocol.c **** 		}
 274:Code\UserApp\Protocol/CmdProtocol.c **** 	}
 275:Code\UserApp\Protocol/CmdProtocol.c **** 	
 276:Code\UserApp\Protocol/CmdProtocol.c **** 	uart_buf[cnt++] = open_mode;								// å¼€é—¨æ–¹å¼								//
 277:Code\UserApp\Protocol/CmdProtocol.c **** 	
 278:Code\UserApp\Protocol/CmdProtocol.c **** 	uart_buf[cnt++] = pstr->open_time[0];						// å¼€é—¨æ—¶é—´								//
 279:Code\UserApp\Protocol/CmdProtocol.c **** 	uart_buf[cnt++] = pstr->open_time[1];
 280:Code\UserApp\Protocol/CmdProtocol.c **** 	uart_buf[cnt++] = pstr->open_time[2];
 281:Code\UserApp\Protocol/CmdProtocol.c **** 	uart_buf[cnt++] = pstr->open_time[3];
 282:Code\UserApp\Protocol/CmdProtocol.c **** 	
 283:Code\UserApp\Protocol/CmdProtocol.c **** 	time_tmp = (uint32)RTC_GetUnixTime();						// æ—¶é—´æˆ³								//
 284:Code\UserApp\Protocol/CmdProtocol.c **** 	LONG2BYTE(time_tmp, time_arr);
 285:Code\UserApp\Protocol/CmdProtocol.c **** 	uart_buf[cnt++] = time_arr[0];
 286:Code\UserApp\Protocol/CmdProtocol.c **** 	uart_buf[cnt++] = time_arr[1];
 287:Code\UserApp\Protocol/CmdProtocol.c **** 	uart_buf[cnt++] = time_arr[2];
 288:Code\UserApp\Protocol/CmdProtocol.c **** 	uart_buf[cnt++] = time_arr[3];
 289:Code\UserApp\Protocol/CmdProtocol.c **** 	
 290:Code\UserApp\Protocol/CmdProtocol.c **** 	TempCrc = MyCrc16Check(uart_buf, pack_len + 0x02);			// CRCæ ¡éªŒ								//
 291:Code\UserApp\Protocol/CmdProtocol.c **** 	uart_buf[cnt++] = (TempCrc >> 8) & 0xFF;
 292:Code\UserApp\Protocol/CmdProtocol.c **** 	uart_buf[cnt++] = TempCrc & 0xFF;
 293:Code\UserApp\Protocol/CmdProtocol.c **** 	
 294:Code\UserApp\Protocol/CmdProtocol.c **** 	cur_time = (uint32)RTC_GetUnixTime();
 295:Code\UserApp\Protocol/CmdProtocol.c **** 	if ((cur_time + 300) > next_heartbeat_time)					// ä¸‹ä¸€æ¬¡å¿ƒè·³åœ¨5minä»¥å†…					//
 296:Code\UserApp\Protocol/CmdProtocol.c **** 	{
 297:Code\UserApp\Protocol/CmdProtocol.c **** 		next_heartbeat_time = cur_time + 300;
 298:Code\UserApp\Protocol/CmdProtocol.c **** 	}
 299:Code\UserApp\Protocol/CmdProtocol.c **** 	
 300:Code\UserApp\Protocol/CmdProtocol.c **** 	if ((cur_time + 60) > next_gprs_upload_time)				// ä¸‹æ¬¡è½®è¯¢ä¸ŠæŠ¥çš„æ—¶é—´å»¶é•¿1min æ‰¾ç©ºé—²
 301:Code\UserApp\Protocol/CmdProtocol.c **** 	{
 302:Code\UserApp\Protocol/CmdProtocol.c **** 		next_gprs_upload_time = cur_time + 60;
 303:Code\UserApp\Protocol/CmdProtocol.c **** 	}
 304:Code\UserApp\Protocol/CmdProtocol.c **** 	#if 0
 305:Code\UserApp\Protocol/CmdProtocol.c **** 	if ((cur_time + 15) > next_allupload_time)					// ä¸‹æ¬¡ç«‹å³å¼€é—¨ä¸ŠæŠ¥çš„æ—¶é—´å»¶é•¿15s æ‰¾ç©
 306:Code\UserApp\Protocol/CmdProtocol.c **** 	{
 307:Code\UserApp\Protocol/CmdProtocol.c **** 		next_allupload_time = cur_time + 15;
 308:Code\UserApp\Protocol/CmdProtocol.c **** 	}
 309:Code\UserApp\Protocol/CmdProtocol.c **** 	#endif
 310:Code\UserApp\Protocol/CmdProtocol.c **** 	GPRS_SendHexDataToServer((uint8_t *)uart_buf, ((uart_buf[2] << 8) + uart_buf[3] + 4));
 311:Code\UserApp\Protocol/CmdProtocol.c **** 	
 312:Code\UserApp\Protocol/CmdProtocol.c **** 	uploadpolling_stop = 0;
 313:Code\UserApp\Protocol/CmdProtocol.c **** 	return 0;
 314:Code\UserApp\Protocol/CmdProtocol.c **** }
ARM GAS  C:\Users\Administrator\AppData\Local\Temp\ccexfbaX.s 			page 7


 315:Code\UserApp\Protocol/CmdProtocol.c **** 
 316:Code\UserApp\Protocol/CmdProtocol.c **** //*************************************************************************************************
 317:Code\UserApp\Protocol/CmdProtocol.c **** // Function name	: send_heartbeat
 318:Code\UserApp\Protocol/CmdProtocol.c **** // Description		: å¿ƒè·³åŒ…  0x08
 319:Code\UserApp\Protocol/CmdProtocol.c **** // Parameter		: lock_state	: é”å…·çŠ¶æ€
 320:Code\UserApp\Protocol/CmdProtocol.c **** // Return			: none
 321:Code\UserApp\Protocol/CmdProtocol.c **** //-------------------------------------------------------------------------------------------------
 322:Code\UserApp\Protocol/CmdProtocol.c **** // è¯´æ˜				: 
 323:Code\UserApp\Protocol/CmdProtocol.c **** //*************************************************************************************************
 324:Code\UserApp\Protocol/CmdProtocol.c **** uint8_t send_heartbeat(uint8_t lock_state)
 325:Code\UserApp\Protocol/CmdProtocol.c **** {
 326:Code\UserApp\Protocol/CmdProtocol.c **** 	uint8 uart_buf[96];
 327:Code\UserApp\Protocol/CmdProtocol.c **** 	uint8 time_arr[4];
 328:Code\UserApp\Protocol/CmdProtocol.c **** 	uint32_t time_tmp;
 329:Code\UserApp\Protocol/CmdProtocol.c **** 	uint16_t TempCrc = 0;
 330:Code\UserApp\Protocol/CmdProtocol.c **** 	uint16_t cnt = 0;
 331:Code\UserApp\Protocol/CmdProtocol.c **** 	uint16_t i = 0;
 332:Code\UserApp\Protocol/CmdProtocol.c **** 	uint16_t pack_len = 0x10;
 333:Code\UserApp\Protocol/CmdProtocol.c **** 
 334:Code\UserApp\Protocol/CmdProtocol.c **** 		
 335:Code\UserApp\Protocol/CmdProtocol.c **** 	uart_buf[cnt++] = 0xef;
 336:Code\UserApp\Protocol/CmdProtocol.c **** 	uart_buf[cnt++] = 0x3a;
 337:Code\UserApp\Protocol/CmdProtocol.c **** 	uart_buf[cnt++] = (pack_len >> 8) & 0xFF;					// åŒ…é•¿åº¦é«˜å­—èŠ‚							//
 338:Code\UserApp\Protocol/CmdProtocol.c **** 	uart_buf[cnt++] = pack_len & 0xFF;							// åŒ…é•¿åº¦ä½å­—èŠ‚							//
 339:Code\UserApp\Protocol/CmdProtocol.c **** 	uart_buf[cnt++] = 0x01;
 340:Code\UserApp\Protocol/CmdProtocol.c **** 	uart_buf[cnt++] = 0x01;
 341:Code\UserApp\Protocol/CmdProtocol.c **** 	uart_buf[cnt++] = 0x08;
 342:Code\UserApp\Protocol/CmdProtocol.c **** 	
 343:Code\UserApp\Protocol/CmdProtocol.c **** 	for(i = 0; i < 6; i++)										// MACåœ°å€								//
 344:Code\UserApp\Protocol/CmdProtocol.c **** 	{
 345:Code\UserApp\Protocol/CmdProtocol.c **** 		uart_buf[cnt++] = Mac_Addr[i];
 346:Code\UserApp\Protocol/CmdProtocol.c **** 	}
 347:Code\UserApp\Protocol/CmdProtocol.c **** 	
 348:Code\UserApp\Protocol/CmdProtocol.c **** 	uart_buf[cnt++] = lock_state;								// é”å…·çŠ¶æ€								//
 349:Code\UserApp\Protocol/CmdProtocol.c **** 	#if DEF_RSSI
 350:Code\UserApp\Protocol/CmdProtocol.c **** 	Rssi = GPRS_QueryRssi();
 351:Code\UserApp\Protocol/CmdProtocol.c **** 	uart_buf[cnt++] = Rssi;										// GPRSæ¨¡å—ä¿¡å·å¼ºåº¦	@10.31.9.00			//
 352:Code\UserApp\Protocol/CmdProtocol.c **** 	#endif
 353:Code\UserApp\Protocol/CmdProtocol.c **** 	
 354:Code\UserApp\Protocol/CmdProtocol.c **** 	time_tmp = (uint32)RTC_GetUnixTime();						// æ—¶é—´æˆ³								//
 355:Code\UserApp\Protocol/CmdProtocol.c **** 	LONG2BYTE(time_tmp, time_arr);
 356:Code\UserApp\Protocol/CmdProtocol.c **** 	uart_buf[cnt++] = time_arr[0];
 357:Code\UserApp\Protocol/CmdProtocol.c **** 	uart_buf[cnt++] = time_arr[1];
 358:Code\UserApp\Protocol/CmdProtocol.c **** 	uart_buf[cnt++] = time_arr[2];
 359:Code\UserApp\Protocol/CmdProtocol.c **** 	uart_buf[cnt++] = time_arr[3];
 360:Code\UserApp\Protocol/CmdProtocol.c **** 	
 361:Code\UserApp\Protocol/CmdProtocol.c **** 	TempCrc = MyCrc16Check(uart_buf, pack_len + 0x02);			// CRCæ ¡éªŒ								//
 362:Code\UserApp\Protocol/CmdProtocol.c **** 	uart_buf[cnt++] = (TempCrc >> 8) & 0xFF;
 363:Code\UserApp\Protocol/CmdProtocol.c **** 	uart_buf[cnt++] = TempCrc & 0xFF;
 364:Code\UserApp\Protocol/CmdProtocol.c **** 	//DBG_SOFT_PutStr("\nsend_heartbeat:\n");
 365:Code\UserApp\Protocol/CmdProtocol.c **** 	//DBG_SOFT_PrintfHex(uart_buf,32,16);
 366:Code\UserApp\Protocol/CmdProtocol.c **** 	GPRS_SendHexDataToServer((uint8_t *)uart_buf, ((uart_buf[2] << 8) + uart_buf[3] + 4));
 367:Code\UserApp\Protocol/CmdProtocol.c **** 	
 368:Code\UserApp\Protocol/CmdProtocol.c ****     return 0;
 369:Code\UserApp\Protocol/CmdProtocol.c **** }
 370:Code\UserApp\Protocol/CmdProtocol.c **** 
 371:Code\UserApp\Protocol/CmdProtocol.c **** //*************************************************************************************************
ARM GAS  C:\Users\Administrator\AppData\Local\Temp\ccexfbaX.s 			page 8


 372:Code\UserApp\Protocol/CmdProtocol.c **** // Function name	: send_timeadjust
 373:Code\UserApp\Protocol/CmdProtocol.c **** // Description		: æ—¶é—´æ ¡å‡†  0x0A
 374:Code\UserApp\Protocol/CmdProtocol.c **** // Parameter		: none
 375:Code\UserApp\Protocol/CmdProtocol.c **** // Return			: none
 376:Code\UserApp\Protocol/CmdProtocol.c **** //-------------------------------------------------------------------------------------------------
 377:Code\UserApp\Protocol/CmdProtocol.c **** // è¯´æ˜				: 
 378:Code\UserApp\Protocol/CmdProtocol.c **** //*************************************************************************************************
 379:Code\UserApp\Protocol/CmdProtocol.c **** uint8_t send_time_adjust(void)
 380:Code\UserApp\Protocol/CmdProtocol.c **** {
 381:Code\UserApp\Protocol/CmdProtocol.c **** 	uint8 uart_buf[96];
 382:Code\UserApp\Protocol/CmdProtocol.c **** 	uint16_t TempCrc = 0;
 383:Code\UserApp\Protocol/CmdProtocol.c **** 	uint16_t cnt = 0;
 384:Code\UserApp\Protocol/CmdProtocol.c **** 	uint16_t i = 0;
 385:Code\UserApp\Protocol/CmdProtocol.c **** 	uint16_t pack_len = 0x0D;
 386:Code\UserApp\Protocol/CmdProtocol.c **** 	
 387:Code\UserApp\Protocol/CmdProtocol.c **** 	uart_buf[cnt++] = 0xef;
 388:Code\UserApp\Protocol/CmdProtocol.c **** 	uart_buf[cnt++] = 0x3a;
 389:Code\UserApp\Protocol/CmdProtocol.c **** 	uart_buf[cnt++] = (pack_len >> 8) & 0xFF;					// åŒ…é•¿åº¦é«˜å­—èŠ‚							//
 390:Code\UserApp\Protocol/CmdProtocol.c **** 	uart_buf[cnt++] = pack_len & 0xFF;							// åŒ…é•¿åº¦ä½å­—èŠ‚							//
 391:Code\UserApp\Protocol/CmdProtocol.c **** 	uart_buf[cnt++] = 0x01;
 392:Code\UserApp\Protocol/CmdProtocol.c **** 	uart_buf[cnt++] = 0x01;
 393:Code\UserApp\Protocol/CmdProtocol.c **** 	uart_buf[cnt++] = 0x0A;
 394:Code\UserApp\Protocol/CmdProtocol.c **** 	
 395:Code\UserApp\Protocol/CmdProtocol.c **** 	for(i = 0; i < 6; i++)										// MACåœ°å€								//
 396:Code\UserApp\Protocol/CmdProtocol.c **** 	{
 397:Code\UserApp\Protocol/CmdProtocol.c **** 		uart_buf[cnt++] = Mac_Addr[i];
 398:Code\UserApp\Protocol/CmdProtocol.c **** 	}
 399:Code\UserApp\Protocol/CmdProtocol.c **** 	
 400:Code\UserApp\Protocol/CmdProtocol.c **** 	uart_buf[cnt++] = 0xff;										// æ—¶é—´æˆ³								//
 401:Code\UserApp\Protocol/CmdProtocol.c **** 	uart_buf[cnt++] = 0xff;
 402:Code\UserApp\Protocol/CmdProtocol.c **** 	uart_buf[cnt++] = 0xff;
 403:Code\UserApp\Protocol/CmdProtocol.c **** 	uart_buf[cnt++] = 0xff;
 404:Code\UserApp\Protocol/CmdProtocol.c **** 	
 405:Code\UserApp\Protocol/CmdProtocol.c **** 	TempCrc = MyCrc16Check(uart_buf, pack_len + 0x02);			// CRCæ ¡éªŒ								//
 406:Code\UserApp\Protocol/CmdProtocol.c **** 	uart_buf[cnt++] = (TempCrc >> 8) & 0xFF;
 407:Code\UserApp\Protocol/CmdProtocol.c **** 	uart_buf[cnt++] = TempCrc & 0xFF;
 408:Code\UserApp\Protocol/CmdProtocol.c **** 	
 409:Code\UserApp\Protocol/CmdProtocol.c **** 	cur_time = (uint32)RTC_GetUnixTime();
 410:Code\UserApp\Protocol/CmdProtocol.c **** 	if ((cur_time + 300) > next_heartbeat_time)					// ä¸‹ä¸€æ¬¡å¿ƒè·³åœ¨5minä»¥å†…					//
 411:Code\UserApp\Protocol/CmdProtocol.c **** 	{
 412:Code\UserApp\Protocol/CmdProtocol.c **** 		next_heartbeat_time = cur_time + 300;
 413:Code\UserApp\Protocol/CmdProtocol.c **** 	}
 414:Code\UserApp\Protocol/CmdProtocol.c **** 	GPRS_SendHexDataToServer((uint8_t *)uart_buf, ((uart_buf[2] << 8) + uart_buf[3] + 4));
 415:Code\UserApp\Protocol/CmdProtocol.c **** 	return 0;
 416:Code\UserApp\Protocol/CmdProtocol.c **** }
 417:Code\UserApp\Protocol/CmdProtocol.c **** 
 418:Code\UserApp\Protocol/CmdProtocol.c **** //*************************************************************************************************
 419:Code\UserApp\Protocol/CmdProtocol.c **** // Function name	: send_alarminfo
 420:Code\UserApp\Protocol/CmdProtocol.c **** // Description		: æŠ¥è­¦ä¿¡æ¯ä¸Šä¼   0x0B
 421:Code\UserApp\Protocol/CmdProtocol.c **** // Parameter		: none
 422:Code\UserApp\Protocol/CmdProtocol.c **** // Return			: none
 423:Code\UserApp\Protocol/CmdProtocol.c **** //-------------------------------------------------------------------------------------------------
 424:Code\UserApp\Protocol/CmdProtocol.c **** // è¯´æ˜				: 
 425:Code\UserApp\Protocol/CmdProtocol.c **** //*************************************************************************************************
 426:Code\UserApp\Protocol/CmdProtocol.c **** uint8_t send_alarm_info(uint8_t alarm_mode)
 427:Code\UserApp\Protocol/CmdProtocol.c **** {
 428:Code\UserApp\Protocol/CmdProtocol.c **** 	uint8 uart_buf[96];
ARM GAS  C:\Users\Administrator\AppData\Local\Temp\ccexfbaX.s 			page 9


 429:Code\UserApp\Protocol/CmdProtocol.c **** 	uint8 time_arr[4];
 430:Code\UserApp\Protocol/CmdProtocol.c **** 	uint32_t time_tmp;
 431:Code\UserApp\Protocol/CmdProtocol.c **** 	uint16_t TempCrc = 0;
 432:Code\UserApp\Protocol/CmdProtocol.c **** 	uint16_t cnt = 0;
 433:Code\UserApp\Protocol/CmdProtocol.c **** 	uint16_t i = 0;
 434:Code\UserApp\Protocol/CmdProtocol.c **** 	uint16_t pack_len = 0x10;
 435:Code\UserApp\Protocol/CmdProtocol.c **** 	
 436:Code\UserApp\Protocol/CmdProtocol.c **** 	uart_buf[cnt++] = 0xef;
 437:Code\UserApp\Protocol/CmdProtocol.c **** 	uart_buf[cnt++] = 0x3a;
 438:Code\UserApp\Protocol/CmdProtocol.c **** 	uart_buf[cnt++] = (pack_len >> 8) & 0xFF;					// åŒ…é•¿åº¦é«˜å­—èŠ‚							//
 439:Code\UserApp\Protocol/CmdProtocol.c **** 	uart_buf[cnt++] = pack_len & 0xFF;							// åŒ…é•¿åº¦ä½å­—èŠ‚							//
 440:Code\UserApp\Protocol/CmdProtocol.c **** 	uart_buf[cnt++] = 0x01;
 441:Code\UserApp\Protocol/CmdProtocol.c **** 	uart_buf[cnt++] = 0x01;
 442:Code\UserApp\Protocol/CmdProtocol.c **** 	uart_buf[cnt++] = 0x0B;
 443:Code\UserApp\Protocol/CmdProtocol.c **** 	
 444:Code\UserApp\Protocol/CmdProtocol.c **** 	for(i = 0; i < 6; i++)										// MACåœ°å€								//
 445:Code\UserApp\Protocol/CmdProtocol.c **** 	{
 446:Code\UserApp\Protocol/CmdProtocol.c **** 		uart_buf[cnt++] = Mac_Addr[i];
 447:Code\UserApp\Protocol/CmdProtocol.c **** 	}
 448:Code\UserApp\Protocol/CmdProtocol.c **** 	
 449:Code\UserApp\Protocol/CmdProtocol.c **** 	uart_buf[cnt++] = alarm_mode;								// æŠ¥è­¦ç±»å‹								//
 450:Code\UserApp\Protocol/CmdProtocol.c **** 	
 451:Code\UserApp\Protocol/CmdProtocol.c **** 	time_tmp = (uint32)RTC_GetUnixTime();						// æ—¶é—´æˆ³								//
 452:Code\UserApp\Protocol/CmdProtocol.c **** 	LONG2BYTE(time_tmp, time_arr);
 453:Code\UserApp\Protocol/CmdProtocol.c **** 	uart_buf[cnt++] = time_arr[0];
 454:Code\UserApp\Protocol/CmdProtocol.c **** 	uart_buf[cnt++] = time_arr[1];
 455:Code\UserApp\Protocol/CmdProtocol.c **** 	uart_buf[cnt++] = time_arr[2];
 456:Code\UserApp\Protocol/CmdProtocol.c **** 	uart_buf[cnt++] = time_arr[3];
 457:Code\UserApp\Protocol/CmdProtocol.c **** 	
 458:Code\UserApp\Protocol/CmdProtocol.c **** 	TempCrc = MyCrc16Check(uart_buf, pack_len + 0x02);			// CRCæ ¡éªŒ								//
 459:Code\UserApp\Protocol/CmdProtocol.c **** 	uart_buf[cnt++] = (TempCrc >> 8) & 0xFF;
 460:Code\UserApp\Protocol/CmdProtocol.c **** 	uart_buf[cnt++] = TempCrc & 0xFF;
 461:Code\UserApp\Protocol/CmdProtocol.c **** 	
 462:Code\UserApp\Protocol/CmdProtocol.c **** 	cur_time = (uint32)RTC_GetUnixTime();
 463:Code\UserApp\Protocol/CmdProtocol.c **** 	if ((cur_time + 300) > next_heartbeat_time)					// ä¸‹ä¸€æ¬¡å¿ƒè·³åœ¨5minä»¥å†…					//
 464:Code\UserApp\Protocol/CmdProtocol.c **** 	{
 465:Code\UserApp\Protocol/CmdProtocol.c **** 		next_heartbeat_time = cur_time + 300;
 466:Code\UserApp\Protocol/CmdProtocol.c **** 	}
 467:Code\UserApp\Protocol/CmdProtocol.c **** 	GPRS_SendHexDataToServer((uint8_t *)uart_buf, ((uart_buf[2] << 8) + uart_buf[3] + 4));
 468:Code\UserApp\Protocol/CmdProtocol.c **** 	return 0;
 469:Code\UserApp\Protocol/CmdProtocol.c **** }
 470:Code\UserApp\Protocol/CmdProtocol.c **** 
 471:Code\UserApp\Protocol/CmdProtocol.c **** 
 472:Code\UserApp\Protocol/CmdProtocol.c **** //*************************************************************************************************
 473:Code\UserApp\Protocol/CmdProtocol.c **** // Function name	: send_update_req(uint16 page)
 474:Code\UserApp\Protocol/CmdProtocol.c **** // Description		: è¯·æ±‚ä¸‹å‘å‡çº§åŒ…  0x0F
 475:Code\UserApp\Protocol/CmdProtocol.c **** // Parameter		: none
 476:Code\UserApp\Protocol/CmdProtocol.c **** // Return			: none
 477:Code\UserApp\Protocol/CmdProtocol.c **** //-------------------------------------------------------------------------------------------------
 478:Code\UserApp\Protocol/CmdProtocol.c **** // è¯´æ˜				: 
 479:Code\UserApp\Protocol/CmdProtocol.c **** //*************************************************************************************************
 480:Code\UserApp\Protocol/CmdProtocol.c **** uint8_t send_update_req(uint16 page)
 481:Code\UserApp\Protocol/CmdProtocol.c **** {
 482:Code\UserApp\Protocol/CmdProtocol.c **** 	uint8 uart_buf[96];
 483:Code\UserApp\Protocol/CmdProtocol.c **** 	uint8 time_arr[4];
 484:Code\UserApp\Protocol/CmdProtocol.c **** 	uint32_t time_tmp;
 485:Code\UserApp\Protocol/CmdProtocol.c **** 	uint16_t TempCrc = 0;
ARM GAS  C:\Users\Administrator\AppData\Local\Temp\ccexfbaX.s 			page 10


 486:Code\UserApp\Protocol/CmdProtocol.c **** 	uint16_t cnt = 0;
 487:Code\UserApp\Protocol/CmdProtocol.c **** 	uint16_t i = 0;
 488:Code\UserApp\Protocol/CmdProtocol.c **** 	uint16_t pack_len = 0x13;
 489:Code\UserApp\Protocol/CmdProtocol.c **** 	
 490:Code\UserApp\Protocol/CmdProtocol.c **** 	uart_buf[cnt++] = 0xef;
 491:Code\UserApp\Protocol/CmdProtocol.c **** 	uart_buf[cnt++] = 0x3a;
 492:Code\UserApp\Protocol/CmdProtocol.c **** 	uart_buf[cnt++] = (pack_len >> 8) & 0xFF;					// åŒ…é•¿åº¦é«˜å­—èŠ‚							//
 493:Code\UserApp\Protocol/CmdProtocol.c **** 	uart_buf[cnt++] = pack_len & 0xFF;							// åŒ…é•¿åº¦ä½å­—èŠ‚							//
 494:Code\UserApp\Protocol/CmdProtocol.c **** 	uart_buf[cnt++] = 0x01;
 495:Code\UserApp\Protocol/CmdProtocol.c **** 	uart_buf[cnt++] = 0x01;
 496:Code\UserApp\Protocol/CmdProtocol.c **** 	uart_buf[cnt++] = 0x0F;
 497:Code\UserApp\Protocol/CmdProtocol.c **** 	
 498:Code\UserApp\Protocol/CmdProtocol.c **** 	for(i = 0; i < 6; i++)										// MACåœ°å€								//
 499:Code\UserApp\Protocol/CmdProtocol.c **** 	{
 500:Code\UserApp\Protocol/CmdProtocol.c **** 		uart_buf[cnt++] = Mac_Addr[i];
 501:Code\UserApp\Protocol/CmdProtocol.c **** 	}
 502:Code\UserApp\Protocol/CmdProtocol.c **** 	
 503:Code\UserApp\Protocol/CmdProtocol.c **** 	uart_buf[cnt++] = (page >> 8) & 0xFF;						// ç»„å·
 504:Code\UserApp\Protocol/CmdProtocol.c **** 	uart_buf[cnt++] = page & 0xFF;	
 505:Code\UserApp\Protocol/CmdProtocol.c **** 	
 506:Code\UserApp\Protocol/CmdProtocol.c **** 	uart_buf[cnt++] = (update_version>> 8) & 0xFF;				// å‡çº§ç‰ˆæœ¬
 507:Code\UserApp\Protocol/CmdProtocol.c **** 	uart_buf[cnt++] = update_version & 0xFF;								
 508:Code\UserApp\Protocol/CmdProtocol.c **** 		
 509:Code\UserApp\Protocol/CmdProtocol.c **** 	time_tmp = (uint32)RTC_GetUnixTime();						// æ—¶é—´æˆ³								//
 510:Code\UserApp\Protocol/CmdProtocol.c **** 	LONG2BYTE(time_tmp, time_arr);
 511:Code\UserApp\Protocol/CmdProtocol.c **** 	uart_buf[cnt++] = time_arr[0];
 512:Code\UserApp\Protocol/CmdProtocol.c **** 	uart_buf[cnt++] = time_arr[1];
 513:Code\UserApp\Protocol/CmdProtocol.c **** 	uart_buf[cnt++] = time_arr[2];
 514:Code\UserApp\Protocol/CmdProtocol.c **** 	uart_buf[cnt++] = time_arr[3];
 515:Code\UserApp\Protocol/CmdProtocol.c **** 
 516:Code\UserApp\Protocol/CmdProtocol.c **** 	TempCrc = MyCrc16Check(uart_buf, pack_len + 0x02);			// CRCæ ¡éªŒ								//
 517:Code\UserApp\Protocol/CmdProtocol.c **** 	uart_buf[cnt++] = (TempCrc >> 8) & 0xFF;
 518:Code\UserApp\Protocol/CmdProtocol.c **** 	uart_buf[cnt++] = TempCrc & 0xFF;
 519:Code\UserApp\Protocol/CmdProtocol.c **** 	GPRS_SendHexDataToServer((uint8_t *)uart_buf, ((uart_buf[2] << 8) + uart_buf[3] + 4));
 520:Code\UserApp\Protocol/CmdProtocol.c **** 	
 521:Code\UserApp\Protocol/CmdProtocol.c **** 	return 0;
 522:Code\UserApp\Protocol/CmdProtocol.c **** }
 523:Code\UserApp\Protocol/CmdProtocol.c **** 
 524:Code\UserApp\Protocol/CmdProtocol.c **** //*************************************************************************************************
 525:Code\UserApp\Protocol/CmdProtocol.c **** // Function name	: Protocol_SendAckPacket
 526:Code\UserApp\Protocol/CmdProtocol.c **** // Description		: å‘APP(è“ç‰™)å‘é€æ ‡å‡†åº”ç­”åŒ…
 527:Code\UserApp\Protocol/CmdProtocol.c **** // Parameter		: uint8 CommChanle		ä¿¡é“
 528:Code\UserApp\Protocol/CmdProtocol.c **** //                  : uint8 cPackType       0-å‘é€åŒ…ï¼Œ1-åº”ç­”åŒ…
 529:Code\UserApp\Protocol/CmdProtocol.c **** //                  : uint8 cCmd           	å‘½ä»¤ç 
 530:Code\UserApp\Protocol/CmdProtocol.c **** //				    : uint8 *UserData		å¾…å‘é€çš„ç”¨æˆ·æ•°æ®(å†…å®¹)
 531:Code\UserApp\Protocol/CmdProtocol.c **** //				    : uint16 UserDataLen	å¾…å‘é€çš„ç”¨æˆ·æ•°æ®é•¿åº¦ï¼ˆä¸åŒ…å«åº”ç­”ç ï¼‰
 532:Code\UserApp\Protocol/CmdProtocol.c **** // Return			: none
 533:Code\UserApp\Protocol/CmdProtocol.c **** //-------------------------------------------------------------------------------------------------
 534:Code\UserApp\Protocol/CmdProtocol.c **** // Info				: 
 535:Code\UserApp\Protocol/CmdProtocol.c **** //*************************************************************************************************
 536:Code\UserApp\Protocol/CmdProtocol.c **** void Protocol_SendAckPacket(uint8 CommChanle, uint8 cPackType, uint8 cCmd, uint8 *UserData, uint16 
 537:Code\UserApp\Protocol/CmdProtocol.c **** {
 538:Code\UserApp\Protocol/CmdProtocol.c **** 	uint8 AppResponseBuf[256] = {0};
 539:Code\UserApp\Protocol/CmdProtocol.c **** 	uint8 i;
 540:Code\UserApp\Protocol/CmdProtocol.c **** 	uint16 NoPtr;
 541:Code\UserApp\Protocol/CmdProtocol.c **** 	uint16 TempCrc;
 542:Code\UserApp\Protocol/CmdProtocol.c **** 	uint16 nPacketLen;
ARM GAS  C:\Users\Administrator\AppData\Local\Temp\ccexfbaX.s 			page 11


 543:Code\UserApp\Protocol/CmdProtocol.c **** 	
 544:Code\UserApp\Protocol/CmdProtocol.c **** 	NoPtr = 0;
 545:Code\UserApp\Protocol/CmdProtocol.c **** 	nPacketLen = UserDataLen + 5;
 546:Code\UserApp\Protocol/CmdProtocol.c **** 	memset(AppResponseBuf, 0, sizeof(AppResponseBuf));
 547:Code\UserApp\Protocol/CmdProtocol.c **** 	AppResponseBuf[NoPtr++] = HEAD_BYTE1;
 548:Code\UserApp\Protocol/CmdProtocol.c **** 	AppResponseBuf[NoPtr++] = HEAD_BYTE2;
 549:Code\UserApp\Protocol/CmdProtocol.c **** 	AppResponseBuf[NoPtr++] = (nPacketLen >> 8) & 0xff;
 550:Code\UserApp\Protocol/CmdProtocol.c **** 	AppResponseBuf[NoPtr++] = nPacketLen & 0xff;
 551:Code\UserApp\Protocol/CmdProtocol.c **** 	AppResponseBuf[NoPtr++] = CommChanle | (cPackType << 4);
 552:Code\UserApp\Protocol/CmdProtocol.c **** 	AppResponseBuf[NoPtr++] = PROTOCOL_VER; 
 553:Code\UserApp\Protocol/CmdProtocol.c **** 	AppResponseBuf[NoPtr++] = cCmd;
 554:Code\UserApp\Protocol/CmdProtocol.c **** 
 555:Code\UserApp\Protocol/CmdProtocol.c **** 	#ifdef	AES_ENCRY
 556:Code\UserApp\Protocol/CmdProtocol.c **** 
 557:Code\UserApp\Protocol/CmdProtocol.c **** 	#else
 558:Code\UserApp\Protocol/CmdProtocol.c **** 
 559:Code\UserApp\Protocol/CmdProtocol.c **** 	#endif
 560:Code\UserApp\Protocol/CmdProtocol.c **** 
 561:Code\UserApp\Protocol/CmdProtocol.c **** 	if (UserDataLen)
 562:Code\UserApp\Protocol/CmdProtocol.c **** 	{
 563:Code\UserApp\Protocol/CmdProtocol.c **** 		for (i = 0; i < UserDataLen; i++)
 564:Code\UserApp\Protocol/CmdProtocol.c **** 		{
 565:Code\UserApp\Protocol/CmdProtocol.c **** 			AppResponseBuf[NoPtr++] = *(UserData + i);
 566:Code\UserApp\Protocol/CmdProtocol.c **** 		}
 567:Code\UserApp\Protocol/CmdProtocol.c **** 	}
 568:Code\UserApp\Protocol/CmdProtocol.c **** 	
 569:Code\UserApp\Protocol/CmdProtocol.c **** 	TempCrc = MyCrc16Check(AppResponseBuf, NoPtr);
 570:Code\UserApp\Protocol/CmdProtocol.c **** 
 571:Code\UserApp\Protocol/CmdProtocol.c **** 	AppResponseBuf[NoPtr++] = (TempCrc >> 8) & 0xFF;
 572:Code\UserApp\Protocol/CmdProtocol.c **** 	AppResponseBuf[NoPtr++] = TempCrc & 0xFF;
 573:Code\UserApp\Protocol/CmdProtocol.c **** 	
 574:Code\UserApp\Protocol/CmdProtocol.c **** 	DBG_SOFT_PutStr("\r\n AppResponseBuf:\r\n");
 575:Code\UserApp\Protocol/CmdProtocol.c **** 	DBG_SOFT_PrintfHex(AppResponseBuf,64,16);
 576:Code\UserApp\Protocol/CmdProtocol.c **** 	
 577:Code\UserApp\Protocol/CmdProtocol.c **** 	if (CommChanle == 0x02)                          			// è“ç‰™é€šé“								//
 578:Code\UserApp\Protocol/CmdProtocol.c **** 	{
 579:Code\UserApp\Protocol/CmdProtocol.c **** 		BleSend(AppResponseBuf, NoPtr);
 580:Code\UserApp\Protocol/CmdProtocol.c ****         #if 0
 581:Code\UserApp\Protocol/CmdProtocol.c **** 		for (i = 0; i < 100; i++)
 582:Code\UserApp\Protocol/CmdProtocol.c ****         {
 583:Code\UserApp\Protocol/CmdProtocol.c ****             ble_heartbeat();
 584:Code\UserApp\Protocol/CmdProtocol.c ****         }
 585:Code\UserApp\Protocol/CmdProtocol.c **** 		#endif
 586:Code\UserApp\Protocol/CmdProtocol.c **** 	}
 587:Code\UserApp\Protocol/CmdProtocol.c **** 	else if(CommChanle == 0x01)                     			// GPRSé€šé“								//
 588:Code\UserApp\Protocol/CmdProtocol.c **** 	{
 589:Code\UserApp\Protocol/CmdProtocol.c **** 		cur_time = (uint32)RTC_GetUnixTime();
 590:Code\UserApp\Protocol/CmdProtocol.c **** 		if ((cur_time + 300) > next_heartbeat_time)				// ä¸‹ä¸€æ¬¡å¿ƒè·³åœ¨5minä»¥å†…					//
 591:Code\UserApp\Protocol/CmdProtocol.c **** 		{
 592:Code\UserApp\Protocol/CmdProtocol.c **** 			next_heartbeat_time = cur_time + 300;
 593:Code\UserApp\Protocol/CmdProtocol.c **** 		}
 594:Code\UserApp\Protocol/CmdProtocol.c **** 	    GPRS_SendHexDataToServer(AppResponseBuf, NoPtr);
 595:Code\UserApp\Protocol/CmdProtocol.c **** 	}
 596:Code\UserApp\Protocol/CmdProtocol.c **** }
 597:Code\UserApp\Protocol/CmdProtocol.c **** 
 598:Code\UserApp\Protocol/CmdProtocol.c **** //===ã€ç»“æŸã€‘===================== ä¸šåŠ¡å±‚ä¸»åŠ¨ä¸ŠæŠ¥æœåŠ¡å™¨æŒ‡ä»¤ =======================
 599:Code\UserApp\Protocol/CmdProtocol.c **** 
ARM GAS  C:\Users\Administrator\AppData\Local\Temp\ccexfbaX.s 			page 12


 600:Code\UserApp\Protocol/CmdProtocol.c **** 
 601:Code\UserApp\Protocol/CmdProtocol.c **** 
 602:Code\UserApp\Protocol/CmdProtocol.c **** 
 603:Code\UserApp\Protocol/CmdProtocol.c **** //===ã€å¼€å§‹ã€‘=================== ä¸šåŠ¡å±‚å¤„ç†æ¥æ”¶åˆ°çš„æœåŠ¡å™¨/è“ç‰™æŒ‡ä»¤ ============
 604:Code\UserApp\Protocol/CmdProtocol.c **** 
 605:Code\UserApp\Protocol/CmdProtocol.c **** //*************************************************************************************************
 606:Code\UserApp\Protocol/CmdProtocol.c **** // Function name	: Protocol_CmdGetPreSever
 607:Code\UserApp\Protocol/CmdProtocol.c **** // Description		: ä»ä¸­å¿ƒæœåŠ¡å™¨è·å–å…·ä½“è¦é“¾æ¥çš„å‰ç½®æœåŠ¡å™¨åŸŸåæˆ–IP
 608:Code\UserApp\Protocol/CmdProtocol.c **** // Parameter		: uint8* RecBuf	å‘½ä»¤åŒ…æŒ‡é’ˆ
 609:Code\UserApp\Protocol/CmdProtocol.c **** // Return			: none
 610:Code\UserApp\Protocol/CmdProtocol.c **** //-------------------------------------------------------------------------------------------------
 611:Code\UserApp\Protocol/CmdProtocol.c **** // Info				: 0x01å‘½ä»¤ï¼ŒæœåŠ¡å™¨åº”ç­”
 612:Code\UserApp\Protocol/CmdProtocol.c **** //*************************************************************************************************
 613:Code\UserApp\Protocol/CmdProtocol.c **** static void Protocol_CmdGetPreSever(uint8* RecBuf)
 614:Code\UserApp\Protocol/CmdProtocol.c **** {
  29              		.loc 1 614 0
  30              		.cfi_startproc
  31              		@ args = 0, pretend = 0, frame = 8
  32              		@ frame_needed = 0, uses_anonymous_args = 0
  33              	.LVL0:
  34 0000 F7B5     		push	{r0, r1, r2, r4, r5, r6, r7, lr}
  35              		.cfi_def_cfa_offset 32
  36              		.cfi_offset 0, -32
  37              		.cfi_offset 1, -28
  38              		.cfi_offset 2, -24
  39              		.cfi_offset 4, -20
  40              		.cfi_offset 5, -16
  41              		.cfi_offset 6, -12
  42              		.cfi_offset 7, -8
  43              		.cfi_offset 14, -4
 615:Code\UserApp\Protocol/CmdProtocol.c **** 	uint8 *pstr = RecBuf;
 616:Code\UserApp\Protocol/CmdProtocol.c **** 	uint8 port_tmp[2];
 617:Code\UserApp\Protocol/CmdProtocol.c **** 	uint8 port_str[6];
 618:Code\UserApp\Protocol/CmdProtocol.c **** 	uint16 port_hex;
 619:Code\UserApp\Protocol/CmdProtocol.c **** 
 620:Code\UserApp\Protocol/CmdProtocol.c **** 	// è·å–å‰ç½®æœåŠ¡å™¨åœ°å€å’Œç«¯å£çš„åº”ç­”ä¿¡æ¯																//
 621:Code\UserApp\Protocol/CmdProtocol.c **** 	pstr += 13;
 622:Code\UserApp\Protocol/CmdProtocol.c **** 	memcpy(domain, pstr, 200);									// 200 å­—èŠ‚IPæˆ–åŸŸå						//
  44              		.loc 1 622 0
  45 0002 0100     		movs	r1, r0
 614:Code\UserApp\Protocol/CmdProtocol.c **** 	uint8 *pstr = RecBuf;
  46              		.loc 1 614 0
  47 0004 0500     		movs	r5, r0
  48              		.loc 1 622 0
  49 0006 414F     		ldr	r7, .L5
  50 0008 0D31     		adds	r1, r1, #13
  51              	.LVL1:
  52 000a C822     		movs	r2, #200
  53 000c 3800     		movs	r0, r7
  54              	.LVL2:
  55 000e FFF7FEFF 		bl	memcpy
  56              	.LVL3:
 623:Code\UserApp\Protocol/CmdProtocol.c **** 	pstr += 200;
 624:Code\UserApp\Protocol/CmdProtocol.c **** 	memcpy(port_tmp, pstr, 2);									// ç«¯å£å·								//
  57              		.loc 1 624 0
  58 0012 2B00     		movs	r3, r5
  59 0014 D533     		adds	r3, r3, #213
ARM GAS  C:\Users\Administrator\AppData\Local\Temp\ccexfbaX.s 			page 13


  60              	.LVL4:
 625:Code\UserApp\Protocol/CmdProtocol.c **** 
 626:Code\UserApp\Protocol/CmdProtocol.c **** 	//port_hex = BYTE2WORD(port_tmp[0], port_tmp[1]);
 627:Code\UserApp\Protocol/CmdProtocol.c **** 	#if 0
 628:Code\UserApp\Protocol/CmdProtocol.c **** 	port_str[0]= port_tmp[0]/0x10 + '0';
 629:Code\UserApp\Protocol/CmdProtocol.c **** 	port_str[1]= port_tmp[0]%0x10 + '0';
 630:Code\UserApp\Protocol/CmdProtocol.c **** 	port_str[2]= port_tmp[1]/0x10 + '0';
 631:Code\UserApp\Protocol/CmdProtocol.c **** 	port_str[3]= port_tmp[1]%0x10 + '0';
 632:Code\UserApp\Protocol/CmdProtocol.c **** 	#endif
 633:Code\UserApp\Protocol/CmdProtocol.c **** 
 634:Code\UserApp\Protocol/CmdProtocol.c **** 	port_hex = (port_tmp[0]<<8) + port_tmp[1];
  61              		.loc 1 634 0
  62 0016 1C78     		ldrb	r4, [r3]
 624:Code\UserApp\Protocol/CmdProtocol.c **** 
  63              		.loc 1 624 0
  64 0018 D635     		adds	r5, r5, #214
  65              	.LVL5:
  66              		.loc 1 634 0
  67 001a 2B78     		ldrb	r3, [r5]
  68              	.LVL6:
  69 001c 2402     		lsls	r4, r4, #8
  70 001e 1C19     		adds	r4, r3, r4
 635:Code\UserApp\Protocol/CmdProtocol.c **** 	if (port_hex < 10000)
  71              		.loc 1 635 0
  72 0020 3B4B     		ldr	r3, .L5+4
 634:Code\UserApp\Protocol/CmdProtocol.c **** 	if (port_hex < 10000)
  73              		.loc 1 634 0
  74 0022 A4B2     		uxth	r4, r4
  75              	.LVL7:
  76              		.loc 1 635 0
  77 0024 9C42     		cmp	r4, r3
  78 0026 25D8     		bhi	.L2
 636:Code\UserApp\Protocol/CmdProtocol.c **** 	{
 637:Code\UserApp\Protocol/CmdProtocol.c **** 		port_str[0] = port_hex/1000 + '0';
  79              		.loc 1 637 0
  80 0028 FA21     		movs	r1, #250
  81 002a 2000     		movs	r0, r4
  82 002c 8900     		lsls	r1, r1, #2
  83 002e FFF7FEFF 		bl	__aeabi_uidiv
  84              	.LVL8:
 638:Code\UserApp\Protocol/CmdProtocol.c **** 		port_str[1] = port_hex%1000/100 + '0';	
  85              		.loc 1 638 0
  86 0032 FA21     		movs	r1, #250
 637:Code\UserApp\Protocol/CmdProtocol.c **** 		port_str[1] = port_hex%1000/100 + '0';	
  87              		.loc 1 637 0
  88 0034 3030     		adds	r0, r0, #48
  89 0036 C6B2     		uxtb	r6, r0
  90              	.LVL9:
  91              		.loc 1 638 0
  92 0038 8900     		lsls	r1, r1, #2
  93 003a 2000     		movs	r0, r4
  94 003c FFF7FEFF 		bl	__aeabi_uidivmod
  95              	.LVL10:
  96 0040 88B2     		uxth	r0, r1
  97 0042 6421     		movs	r1, #100
  98 0044 FFF7FEFF 		bl	__aeabi_uidiv
  99              	.LVL11:
ARM GAS  C:\Users\Administrator\AppData\Local\Temp\ccexfbaX.s 			page 14


 100 0048 3030     		adds	r0, r0, #48
 101 004a C5B2     		uxtb	r5, r0
 102              	.LVL12:
 639:Code\UserApp\Protocol/CmdProtocol.c **** 		port_str[2] = port_hex%100/10 + '0';
 103              		.loc 1 639 0
 104 004c 6421     		movs	r1, #100
 105 004e 2000     		movs	r0, r4
 106 0050 FFF7FEFF 		bl	__aeabi_uidivmod
 107              	.LVL13:
 108 0054 88B2     		uxth	r0, r1
 109 0056 0A21     		movs	r1, #10
 110 0058 FFF7FEFF 		bl	__aeabi_uidiv
 111              	.LVL14:
 112 005c 3030     		adds	r0, r0, #48
 113 005e C3B2     		uxtb	r3, r0
 640:Code\UserApp\Protocol/CmdProtocol.c **** 		port_str[3] = port_hex%10 + '0';
 114              		.loc 1 640 0
 115 0060 0A21     		movs	r1, #10
 116 0062 2000     		movs	r0, r4
 639:Code\UserApp\Protocol/CmdProtocol.c **** 		port_str[2] = port_hex%100/10 + '0';
 117              		.loc 1 639 0
 118 0064 0193     		str	r3, [sp, #4]
 119              	.LVL15:
 120              		.loc 1 640 0
 121 0066 FFF7FEFF 		bl	__aeabi_uidivmod
 122              	.LVL16:
 123 006a 3031     		adds	r1, r1, #48
 124 006c CBB2     		uxtb	r3, r1
 125 006e 0093     		str	r3, [sp]
 126              	.LVL17:
 641:Code\UserApp\Protocol/CmdProtocol.c **** 		port_str[4] = '\0';
 127              		.loc 1 641 0
 128 0070 0021     		movs	r1, #0
 129 0072 2DE0     		b	.L3
 130              	.LVL18:
 131              	.L2:
 642:Code\UserApp\Protocol/CmdProtocol.c **** 		port_str[5] = '\0';
 643:Code\UserApp\Protocol/CmdProtocol.c **** 	}
 644:Code\UserApp\Protocol/CmdProtocol.c **** 	else
 645:Code\UserApp\Protocol/CmdProtocol.c **** 	{
 646:Code\UserApp\Protocol/CmdProtocol.c **** 		port_str[0] = port_hex/10000 + '0';
 132              		.loc 1 646 0
 133 0074 2749     		ldr	r1, .L5+8
 134 0076 2000     		movs	r0, r4
 135 0078 FFF7FEFF 		bl	__aeabi_uidiv
 136              	.LVL19:
 137 007c 3030     		adds	r0, r0, #48
 138 007e C6B2     		uxtb	r6, r0
 139              	.LVL20:
 647:Code\UserApp\Protocol/CmdProtocol.c **** 		port_str[1] = port_hex%10000/1000 + '0';	
 140              		.loc 1 647 0
 141 0080 2449     		ldr	r1, .L5+8
 142 0082 2000     		movs	r0, r4
 143 0084 FFF7FEFF 		bl	__aeabi_uidivmod
 144              	.LVL21:
 145 0088 88B2     		uxth	r0, r1
 146 008a FA21     		movs	r1, #250
ARM GAS  C:\Users\Administrator\AppData\Local\Temp\ccexfbaX.s 			page 15


 147 008c 8900     		lsls	r1, r1, #2
 148 008e FFF7FEFF 		bl	__aeabi_uidiv
 149              	.LVL22:
 648:Code\UserApp\Protocol/CmdProtocol.c **** 		port_str[2] = port_hex%1000/100 + '0';
 150              		.loc 1 648 0
 151 0092 FA21     		movs	r1, #250
 647:Code\UserApp\Protocol/CmdProtocol.c **** 		port_str[1] = port_hex%10000/1000 + '0';	
 152              		.loc 1 647 0
 153 0094 3030     		adds	r0, r0, #48
 154 0096 C5B2     		uxtb	r5, r0
 155              	.LVL23:
 156              		.loc 1 648 0
 157 0098 8900     		lsls	r1, r1, #2
 158 009a 2000     		movs	r0, r4
 159 009c FFF7FEFF 		bl	__aeabi_uidivmod
 160              	.LVL24:
 161 00a0 88B2     		uxth	r0, r1
 162 00a2 6421     		movs	r1, #100
 163 00a4 FFF7FEFF 		bl	__aeabi_uidiv
 164              	.LVL25:
 165 00a8 3030     		adds	r0, r0, #48
 166 00aa C3B2     		uxtb	r3, r0
 649:Code\UserApp\Protocol/CmdProtocol.c **** 		port_str[3] = port_hex%100/10 + '0';
 167              		.loc 1 649 0
 168 00ac 6421     		movs	r1, #100
 169 00ae 2000     		movs	r0, r4
 648:Code\UserApp\Protocol/CmdProtocol.c **** 		port_str[2] = port_hex%1000/100 + '0';
 170              		.loc 1 648 0
 171 00b0 0193     		str	r3, [sp, #4]
 172              	.LVL26:
 173              		.loc 1 649 0
 174 00b2 FFF7FEFF 		bl	__aeabi_uidivmod
 175              	.LVL27:
 176 00b6 88B2     		uxth	r0, r1
 177 00b8 0A21     		movs	r1, #10
 178 00ba FFF7FEFF 		bl	__aeabi_uidiv
 179              	.LVL28:
 180 00be 3030     		adds	r0, r0, #48
 181 00c0 C3B2     		uxtb	r3, r0
 650:Code\UserApp\Protocol/CmdProtocol.c **** 		port_str[4] = port_hex%10 + '0';
 182              		.loc 1 650 0
 183 00c2 0A21     		movs	r1, #10
 184 00c4 2000     		movs	r0, r4
 649:Code\UserApp\Protocol/CmdProtocol.c **** 		port_str[3] = port_hex%100/10 + '0';
 185              		.loc 1 649 0
 186 00c6 0093     		str	r3, [sp]
 187              	.LVL29:
 188              		.loc 1 650 0
 189 00c8 FFF7FEFF 		bl	__aeabi_uidivmod
 190              	.LVL30:
 191 00cc 3031     		adds	r1, r1, #48
 192 00ce C9B2     		uxtb	r1, r1
 193              	.LVL31:
 194              	.L3:
 651:Code\UserApp\Protocol/CmdProtocol.c **** 		port_str[5] = '\0';
 652:Code\UserApp\Protocol/CmdProtocol.c **** 	}
 653:Code\UserApp\Protocol/CmdProtocol.c **** 	memcpy(pre_port, port_str, 6);
ARM GAS  C:\Users\Administrator\AppData\Local\Temp\ccexfbaX.s 			page 16


 195              		.loc 1 653 0
 196 00d0 6A46     		mov	r2, sp
 197 00d2 114B     		ldr	r3, .L5+12
 198 00d4 1279     		ldrb	r2, [r2, #4]
 199 00d6 0024     		movs	r4, #0
 200              	.LVL32:
 201 00d8 9A70     		strb	r2, [r3, #2]
 202 00da 6A46     		mov	r2, sp
 203 00dc 1278     		ldrb	r2, [r2]
 204 00de 1E70     		strb	r6, [r3]
 205 00e0 5D70     		strb	r5, [r3, #1]
 206 00e2 DA70     		strb	r2, [r3, #3]
 207 00e4 1971     		strb	r1, [r3, #4]
 208 00e6 5C71     		strb	r4, [r3, #5]
 654:Code\UserApp\Protocol/CmdProtocol.c **** 	memcpy((char *)pre_ip, (char *)domain, strlen((char *)domain));
 209              		.loc 1 654 0
 210 00e8 3800     		movs	r0, r7
 211 00ea FFF7FEFF 		bl	strlen
 212              	.LVL33:
 213 00ee 3900     		movs	r1, r7
 214 00f0 0200     		movs	r2, r0
 215 00f2 0A48     		ldr	r0, .L5+16
 216 00f4 FFF7FEFF 		bl	memcpy
 217              	.LVL34:
 655:Code\UserApp\Protocol/CmdProtocol.c **** 	
 656:Code\UserApp\Protocol/CmdProtocol.c **** 	#if DBG_SOFT_ENNABLE
 657:Code\UserApp\Protocol/CmdProtocol.c **** 	DBG_SOFT_PutString("\nPre_domain:");	
 658:Code\UserApp\Protocol/CmdProtocol.c **** 	DBG_SOFT_PutArray(domain, strlen((char *)domain));
 659:Code\UserApp\Protocol/CmdProtocol.c **** 	DBG_SOFT_PutString("\nPre_PORT:");
 660:Code\UserApp\Protocol/CmdProtocol.c **** 	DBG_SOFT_PutArray(port_str, 4);
 661:Code\UserApp\Protocol/CmdProtocol.c **** 	DBG_SOFT_PutString("\n");
 662:Code\UserApp\Protocol/CmdProtocol.c **** 	#endif
 663:Code\UserApp\Protocol/CmdProtocol.c **** 	
 664:Code\UserApp\Protocol/CmdProtocol.c **** 	//===ã€å¼€å§‹ã€‘=== è®¾å¤‡å±‚çš„å¤„ç† ==========================================================
 665:Code\UserApp\Protocol/CmdProtocol.c **** 	gprs_state = GET_PRE_IP;
 218              		.loc 1 665 0
 219 00f8 0222     		movs	r2, #2
 220 00fa 094B     		ldr	r3, .L5+20
 666:Code\UserApp\Protocol/CmdProtocol.c **** 	gprs_operation_ErrCount = 0;
 667:Code\UserApp\Protocol/CmdProtocol.c **** 	next_gprs_operation_time = cur_time;
 668:Code\UserApp\Protocol/CmdProtocol.c **** 	//===ã€ç»“æŸã€‘=== è®¾å¤‡å±‚çš„å¤„ç† ==========================================================
 669:Code\UserApp\Protocol/CmdProtocol.c **** 
 670:Code\UserApp\Protocol/CmdProtocol.c **** 	DBG_PRINTF("leaving %s\n", __FUNCTION__);
 671:Code\UserApp\Protocol/CmdProtocol.c **** }
 221              		.loc 1 671 0
 222              		@ sp needed
 665:Code\UserApp\Protocol/CmdProtocol.c **** 	gprs_operation_ErrCount = 0;
 223              		.loc 1 665 0
 224 00fc 1A70     		strb	r2, [r3]
 666:Code\UserApp\Protocol/CmdProtocol.c **** 	gprs_operation_ErrCount = 0;
 225              		.loc 1 666 0
 226 00fe 094B     		ldr	r3, .L5+24
 227 0100 1C70     		strb	r4, [r3]
 667:Code\UserApp\Protocol/CmdProtocol.c **** 	//===ã€ç»“æŸã€‘=== è®¾å¤‡å±‚çš„å¤„ç† ==========================================================
 228              		.loc 1 667 0
 229 0102 094B     		ldr	r3, .L5+28
 230 0104 1A68     		ldr	r2, [r3]
ARM GAS  C:\Users\Administrator\AppData\Local\Temp\ccexfbaX.s 			page 17


 231 0106 094B     		ldr	r3, .L5+32
 232 0108 1A60     		str	r2, [r3]
 233              	.LVL35:
 234              		.loc 1 671 0
 235 010a F7BD     		pop	{r0, r1, r2, r4, r5, r6, r7, pc}
 236              	.L6:
 237              		.align	2
 238              	.L5:
 239 010c 00000000 		.word	domain
 240 0110 0F270000 		.word	9999
 241 0114 10270000 		.word	10000
 242 0118 00000000 		.word	pre_port
 243 011c 00000000 		.word	pre_ip
 244 0120 00000000 		.word	gprs_state
 245 0124 00000000 		.word	gprs_operation_ErrCount
 246 0128 00000000 		.word	cur_time
 247 012c 00000000 		.word	next_gprs_operation_time
 248              		.cfi_endproc
 249              	.LFE73:
 250              		.size	Protocol_CmdGetPreSever, .-Protocol_CmdGetPreSever
 251              		.section	.text.Protocol_CmdSendOpenInfo,"ax",%progbits
 252              		.align	1
 253              		.code	16
 254              		.thumb_func
 255              		.type	Protocol_CmdSendOpenInfo, %function
 256              	Protocol_CmdSendOpenInfo:
 257              	.LFB79:
 672:Code\UserApp\Protocol/CmdProtocol.c **** 
 673:Code\UserApp\Protocol/CmdProtocol.c **** //*************************************************************************************************
 674:Code\UserApp\Protocol/CmdProtocol.c **** // Function name	: Protocol_CmdGetMacAndKey
 675:Code\UserApp\Protocol/CmdProtocol.c **** // Description		: æ™ºèƒ½é—¨ç¦å‘æœåŠ¡å™¨ç”³æŠ¥MAC ç å¹¶è·å–è“ç‰™å¯†é’¥æŒ‡ä»¤ï¼ˆæ™ºèƒ½é—¨ç¦â†
 676:Code\UserApp\Protocol/CmdProtocol.c **** // Parameter		: uint8* RecBuf	å‘½ä»¤åŒ…æŒ‡é’ˆ
 677:Code\UserApp\Protocol/CmdProtocol.c **** // Return			: none
 678:Code\UserApp\Protocol/CmdProtocol.c **** //-------------------------------------------------------------------------------------------------
 679:Code\UserApp\Protocol/CmdProtocol.c **** // Info				: 0x02å‘½ä»¤ï¼ŒæœåŠ¡å™¨åº”ç­”
 680:Code\UserApp\Protocol/CmdProtocol.c **** //*************************************************************************************************
 681:Code\UserApp\Protocol/CmdProtocol.c **** static void Protocol_CmdGetMacAndKey(uint8* RecBuf)
 682:Code\UserApp\Protocol/CmdProtocol.c **** {
 683:Code\UserApp\Protocol/CmdProtocol.c **** 	uint8 ble_key[6];
 684:Code\UserApp\Protocol/CmdProtocol.c **** 	uint8 *pstr = RecBuf;
 685:Code\UserApp\Protocol/CmdProtocol.c **** 	
 686:Code\UserApp\Protocol/CmdProtocol.c **** 	// è·å–MACåœ°å€å’Œè“ç‰™é’¥åŒ™å‘½ä»¤çš„åº”ç­”åŒ…																//
 687:Code\UserApp\Protocol/CmdProtocol.c **** 	pstr += 13;
 688:Code\UserApp\Protocol/CmdProtocol.c **** 	#if 0
 689:Code\UserApp\Protocol/CmdProtocol.c **** 	uint8 ptime[4] = {0};
 690:Code\UserApp\Protocol/CmdProtocol.c **** 	memcpy(ptime, pstr, 4);										// æ—¶é—´æˆ³								//
 691:Code\UserApp\Protocol/CmdProtocol.c **** 	cur_time = BYTE2LONG(ptime[0], ptime[1], ptime[2], ptime[3]);
 692:Code\UserApp\Protocol/CmdProtocol.c **** 	RTC_SetUnixTime(cur_time);
 693:Code\UserApp\Protocol/CmdProtocol.c **** 	#endif
 694:Code\UserApp\Protocol/CmdProtocol.c **** 	
 695:Code\UserApp\Protocol/CmdProtocol.c **** 	pstr += 4;
 696:Code\UserApp\Protocol/CmdProtocol.c **** 	memcpy(ble_key, pstr, 6);									// 6å­—èŠ‚è“ç‰™å¯†é’¥						//
 697:Code\UserApp\Protocol/CmdProtocol.c **** 	
 698:Code\UserApp\Protocol/CmdProtocol.c **** 	//===ã€å¼€å§‹ã€‘=== è®¾å¤‡å±‚çš„å¤„ç† ==========================================================
 699:Code\UserApp\Protocol/CmdProtocol.c **** 	SendMacFlag = 1;
 700:Code\UserApp\Protocol/CmdProtocol.c **** 	gprs_state = NORMAL_COMM;
 701:Code\UserApp\Protocol/CmdProtocol.c **** 	gprs_operation_ErrCount = 0;
ARM GAS  C:\Users\Administrator\AppData\Local\Temp\ccexfbaX.s 			page 18


 702:Code\UserApp\Protocol/CmdProtocol.c **** 	next_gprs_operation_time = cur_time;
 703:Code\UserApp\Protocol/CmdProtocol.c **** 	//===ã€ç»“æŸã€‘=== è®¾å¤‡å±‚çš„å¤„ç† ==========================================================
 704:Code\UserApp\Protocol/CmdProtocol.c **** 	
 705:Code\UserApp\Protocol/CmdProtocol.c **** 	DBG_PRINTF("leaving %s\n", __FUNCTION__);
 706:Code\UserApp\Protocol/CmdProtocol.c **** }
 707:Code\UserApp\Protocol/CmdProtocol.c **** 
 708:Code\UserApp\Protocol/CmdProtocol.c **** 
 709:Code\UserApp\Protocol/CmdProtocol.c **** //*************************************************************************************************
 710:Code\UserApp\Protocol/CmdProtocol.c **** // Function name	: Protocol_CmdReadUID
 711:Code\UserApp\Protocol/CmdProtocol.c **** // Description		: å¹³å° --> ä»æ™ºèƒ½é—¨ç¦è¯»å–ä¸€æ¡UID æŒ‡ä»¤ 
 712:Code\UserApp\Protocol/CmdProtocol.c **** // Parameter		: uint8* RecBuf	å‘½ä»¤åŒ…æŒ‡é’ˆ
 713:Code\UserApp\Protocol/CmdProtocol.c **** // Return			: none
 714:Code\UserApp\Protocol/CmdProtocol.c **** //-------------------------------------------------------------------------------------------------
 715:Code\UserApp\Protocol/CmdProtocol.c **** // Info				: 0x03å‘½ä»¤ï¼ŒæœåŠ¡å™¨å‘é€
 716:Code\UserApp\Protocol/CmdProtocol.c **** //*************************************************************************************************
 717:Code\UserApp\Protocol/CmdProtocol.c **** static void Protocol_CmdReadUID(uint8* RecBuf)
 718:Code\UserApp\Protocol/CmdProtocol.c **** {
 719:Code\UserApp\Protocol/CmdProtocol.c **** 	uint8 ret;
 720:Code\UserApp\Protocol/CmdProtocol.c **** 	uint8 DataBuf[64];
 721:Code\UserApp\Protocol/CmdProtocol.c **** 	uint8 *pT = DataBuf;
 722:Code\UserApp\Protocol/CmdProtocol.c **** 	uint8 pUID[8] = {0};
 723:Code\UserApp\Protocol/CmdProtocol.c **** 	uint8 comm_chanle = RecBuf[4];								// å–å‡ºä¿¡é“å€¼							//
 724:Code\UserApp\Protocol/CmdProtocol.c **** 	uint16 nCmdPackLen;
 725:Code\UserApp\Protocol/CmdProtocol.c **** 
 726:Code\UserApp\Protocol/CmdProtocol.c **** 	nCmdPackLen= (RecBuf[2]<<8) + RecBuf[3] + 4;
 727:Code\UserApp\Protocol/CmdProtocol.c **** 	 
 728:Code\UserApp\Protocol/CmdProtocol.c **** 	memset(pT, 0, sizeof(DataBuf));
 729:Code\UserApp\Protocol/CmdProtocol.c **** 	
 730:Code\UserApp\Protocol/CmdProtocol.c **** 	//if (0 != memcmp((uint8 *)Mac_Addr, pMAC, BD_ADDR_LEN))
 731:Code\UserApp\Protocol/CmdProtocol.c **** 	
 732:Code\UserApp\Protocol/CmdProtocol.c **** 	memcpy(pT, RecBuf + 7, 6);			  						// å–å‡ºMACåœ°å€ï¼Œç†è®ºåº”åŠ ä¸ŠMACæ ¡éªŒ		//
 733:Code\UserApp\Protocol/CmdProtocol.c **** 	pT += 6;
 734:Code\UserApp\Protocol/CmdProtocol.c **** 	
 735:Code\UserApp\Protocol/CmdProtocol.c **** 	//===ã€å¼€å§‹ã€‘=== è®¾å¤‡å±‚çš„å¤„ç† ==========================================================
 736:Code\UserApp\Protocol/CmdProtocol.c **** 	VoicePlay((uint8)Sound_PleasePutCard);						// ä»è®¾å¤‡è¯»å–ä¸€å¼ uid == PUID			//
 737:Code\UserApp\Protocol/CmdProtocol.c **** 	wait_timeout = 20000;
 738:Code\UserApp\Protocol/CmdProtocol.c **** 	ret = RET_ERR;
 739:Code\UserApp\Protocol/CmdProtocol.c **** 	DBG_SOFT_PutStr("\nProtocol_CmdReadUID\n");
 740:Code\UserApp\Protocol/CmdProtocol.c **** 	while (wait_timeout > 0)
 741:Code\UserApp\Protocol/CmdProtocol.c **** 	{
 742:Code\UserApp\Protocol/CmdProtocol.c **** 		ret = detect_nfc_card(pUID, CARD_UID_LEN);
 743:Code\UserApp\Protocol/CmdProtocol.c **** 		// æ»¤é™¤ä¸å‡†ç¡®çš„å¡ID
 744:Code\UserApp\Protocol/CmdProtocol.c **** 		if((pUID[0] == 0) && (pUID[1] == 0) &&(pUID[2] == 0) && (pUID[3] == 0))
 745:Code\UserApp\Protocol/CmdProtocol.c **** 		{
 746:Code\UserApp\Protocol/CmdProtocol.c **** 			continue;
 747:Code\UserApp\Protocol/CmdProtocol.c **** 		}
 748:Code\UserApp\Protocol/CmdProtocol.c **** 		if (ret == RET_OK)
 749:Code\UserApp\Protocol/CmdProtocol.c **** 		{
 750:Code\UserApp\Protocol/CmdProtocol.c **** 			VoicePlay((uint8)Sound_ReadCardSuccess);
 751:Code\UserApp\Protocol/CmdProtocol.c **** 			break;
 752:Code\UserApp\Protocol/CmdProtocol.c **** 		}
 753:Code\UserApp\Protocol/CmdProtocol.c **** 	}
 754:Code\UserApp\Protocol/CmdProtocol.c **** 	if(wait_timeout == 0)										// è¶…æ—¶æ’­æŠ¥
 755:Code\UserApp\Protocol/CmdProtocol.c **** 	{	
 756:Code\UserApp\Protocol/CmdProtocol.c **** 		memset(pUID,0xFF,7);									// è¶…æ—¶UID æ›¿ä»£å€¼ FFFFFFFFFFFFFF03
 757:Code\UserApp\Protocol/CmdProtocol.c **** 		pUID[7] = 0x03;
 758:Code\UserApp\Protocol/CmdProtocol.c **** 		VoicePlay((uint8)Sound_TIMEOUT);
ARM GAS  C:\Users\Administrator\AppData\Local\Temp\ccexfbaX.s 			page 19


 759:Code\UserApp\Protocol/CmdProtocol.c **** 	}
 760:Code\UserApp\Protocol/CmdProtocol.c **** 	
 761:Code\UserApp\Protocol/CmdProtocol.c **** 	//===ã€ç»“æŸã€‘=== è®¾å¤‡å±‚çš„å¤„ç† ==========================================================
 762:Code\UserApp\Protocol/CmdProtocol.c **** 	
 763:Code\UserApp\Protocol/CmdProtocol.c **** 	Endpoint_exchange(pUID);									// Aå¡æ•°æ®ä½ç½®è½¬æ¢ @ 18-1-17			//
 764:Code\UserApp\Protocol/CmdProtocol.c **** 	
 765:Code\UserApp\Protocol/CmdProtocol.c **** 	memcpy(pT, pUID, 8);										// å¤åˆ¶è¯»åˆ°çš„å¡UID						//
 766:Code\UserApp\Protocol/CmdProtocol.c **** 	pT += 8;
 767:Code\UserApp\Protocol/CmdProtocol.c **** 
 768:Code\UserApp\Protocol/CmdProtocol.c **** 	memcpy(pT, RecBuf + nCmdPackLen - 6, 4);					// æ‹·è´æ—¶é—´æˆ³							//
 769:Code\UserApp\Protocol/CmdProtocol.c **** 	pT += 4;
 770:Code\UserApp\Protocol/CmdProtocol.c **** 	
 771:Code\UserApp\Protocol/CmdProtocol.c **** 	if (ret == RET_ERR)											// æ²¡è¯»åˆ°å¡ï¼Œå›ä¼ ç»“æœç å¤±è´¥				//
 772:Code\UserApp\Protocol/CmdProtocol.c **** 	{
 773:Code\UserApp\Protocol/CmdProtocol.c **** 		*pT = RT_Timeout_ERR;									// è¶…æ—¶ä¸ŠæŠ¥								//
 774:Code\UserApp\Protocol/CmdProtocol.c **** 	}
 775:Code\UserApp\Protocol/CmdProtocol.c **** 	else
 776:Code\UserApp\Protocol/CmdProtocol.c **** 	{
 777:Code\UserApp\Protocol/CmdProtocol.c **** 		*pT = RT_SUCC;
 778:Code\UserApp\Protocol/CmdProtocol.c **** 	}
 779:Code\UserApp\Protocol/CmdProtocol.c **** 	
 780:Code\UserApp\Protocol/CmdProtocol.c **** 	Protocol_SendAckPacket(comm_chanle, PACK_RESP, RecBuf[6], DataBuf, 19);
 781:Code\UserApp\Protocol/CmdProtocol.c **** 	
 782:Code\UserApp\Protocol/CmdProtocol.c **** 	DBG_PRINTF("leaving %s\n", __FUNCTION__);
 783:Code\UserApp\Protocol/CmdProtocol.c **** }
 784:Code\UserApp\Protocol/CmdProtocol.c **** 
 785:Code\UserApp\Protocol/CmdProtocol.c **** //*************************************************************************************************
 786:Code\UserApp\Protocol/CmdProtocol.c **** // Function name	: Protocol_CmdWriteUID
 787:Code\UserApp\Protocol/CmdProtocol.c **** // Description		: å¹³å° --> å†™ä¸€æ¡UIDå’Œæœ‰æ•ˆæœŸåˆ°æ™ºèƒ½é—¨ç¦æŒ‡ä»¤
 788:Code\UserApp\Protocol/CmdProtocol.c **** // Parameter		: uint8* GPRSCmdBuf	å‘½ä»¤åŒ…æŒ‡é’ˆ
 789:Code\UserApp\Protocol/CmdProtocol.c **** // Return			: none
 790:Code\UserApp\Protocol/CmdProtocol.c **** //-------------------------------------------------------------------------------------------------
 791:Code\UserApp\Protocol/CmdProtocol.c **** // Info				: 0x04å‘½ä»¤ï¼ŒæœåŠ¡å™¨å‘é€
 792:Code\UserApp\Protocol/CmdProtocol.c **** //*************************************************************************************************
 793:Code\UserApp\Protocol/CmdProtocol.c **** static void Protocol_CmdWriteUID(uint8* RecBuf)
 794:Code\UserApp\Protocol/CmdProtocol.c **** {
 795:Code\UserApp\Protocol/CmdProtocol.c **** 	uint8 DataBuf[64];
 796:Code\UserApp\Protocol/CmdProtocol.c **** 	uint8 *pT = DataBuf;
 797:Code\UserApp\Protocol/CmdProtocol.c **** 	uint8 pUID[8];
 798:Code\UserApp\Protocol/CmdProtocol.c **** 	uint8 pTime[4];
 799:Code\UserApp\Protocol/CmdProtocol.c **** 	uint8 comm_chanle = RecBuf[4];								// å–å‡ºä¿¡é“å€¼							//
 800:Code\UserApp\Protocol/CmdProtocol.c **** 	user_info_t user_info;
 801:Code\UserApp\Protocol/CmdProtocol.c **** 	uint16 nCmdPackLen;
 802:Code\UserApp\Protocol/CmdProtocol.c **** 	
 803:Code\UserApp\Protocol/CmdProtocol.c ****     nCmdPackLen= (RecBuf[2] << 8) + RecBuf[3] + 4;
 804:Code\UserApp\Protocol/CmdProtocol.c ****     
 805:Code\UserApp\Protocol/CmdProtocol.c **** 	memset(pT, 0, sizeof(DataBuf));
 806:Code\UserApp\Protocol/CmdProtocol.c **** 	memcpy(pT, RecBuf + 7, 6);									// å–å‡ºMACåœ°å€ï¼Œç†è®ºåº”åŠ ä¸ŠMACæ ¡éªŒ		//
 807:Code\UserApp\Protocol/CmdProtocol.c **** 	pT += 6;
 808:Code\UserApp\Protocol/CmdProtocol.c **** 	
 809:Code\UserApp\Protocol/CmdProtocol.c **** 	memcpy(pT, RecBuf + 13, 8);									// å–å‡ºuid								//
 810:Code\UserApp\Protocol/CmdProtocol.c **** 	memcpy(pUID, RecBuf + 13, 8);
 811:Code\UserApp\Protocol/CmdProtocol.c **** 	pT += 8;
 812:Code\UserApp\Protocol/CmdProtocol.c **** 	
 813:Code\UserApp\Protocol/CmdProtocol.c **** 	memcpy(pT, RecBuf + 21, 4);									// å–å‡ºæœ‰æ•ˆæ—¥æœŸ							//
 814:Code\UserApp\Protocol/CmdProtocol.c **** 	memcpy(pTime, RecBuf + 21, 4);	
 815:Code\UserApp\Protocol/CmdProtocol.c **** 	pT += 4;
ARM GAS  C:\Users\Administrator\AppData\Local\Temp\ccexfbaX.s 			page 20


 816:Code\UserApp\Protocol/CmdProtocol.c **** 	memcpy(pT, RecBuf + nCmdPackLen - 6, 4);					// æ—¶é—´æˆ³								//
 817:Code\UserApp\Protocol/CmdProtocol.c **** 	pT += 4;
 818:Code\UserApp\Protocol/CmdProtocol.c ****     
 819:Code\UserApp\Protocol/CmdProtocol.c **** 	//===ã€å¼€å§‹ã€‘=== è®¾å¤‡å±‚çš„å¤„ç† ==========================================================
 820:Code\UserApp\Protocol/CmdProtocol.c **** 	Endpoint_exchange(pUID);									// Aå¡æ•°æ®ä½ç½®è½¬æ¢ @ 18-1-17			//
 821:Code\UserApp\Protocol/CmdProtocol.c **** 	
 822:Code\UserApp\Protocol/CmdProtocol.c **** 	memcpy(user_info.card_uid, pUID, 8);
 823:Code\UserApp\Protocol/CmdProtocol.c **** 	memcpy(user_info.valid_time, pTime, 4);
 824:Code\UserApp\Protocol/CmdProtocol.c **** 	if (TRUE == UserData_Add_User(&user_info))
 825:Code\UserApp\Protocol/CmdProtocol.c **** 	{
 826:Code\UserApp\Protocol/CmdProtocol.c **** 		VoicePlay((uint8)Sound_REG_SUCCESS);
 827:Code\UserApp\Protocol/CmdProtocol.c **** 		*pT = RT_SUCC;
 828:Code\UserApp\Protocol/CmdProtocol.c **** 	}
 829:Code\UserApp\Protocol/CmdProtocol.c **** 	else
 830:Code\UserApp\Protocol/CmdProtocol.c **** 	{
 831:Code\UserApp\Protocol/CmdProtocol.c **** 		VoicePlay((uint8)Sound_REG_FAILURE);
 832:Code\UserApp\Protocol/CmdProtocol.c **** 		*pT = RT_FAIL;
 833:Code\UserApp\Protocol/CmdProtocol.c **** 	}
 834:Code\UserApp\Protocol/CmdProtocol.c **** 	//===ã€ç»“æŸã€‘=== è®¾å¤‡å±‚çš„å¤„ç† ==========================================================
 835:Code\UserApp\Protocol/CmdProtocol.c **** 	
 836:Code\UserApp\Protocol/CmdProtocol.c **** 	Protocol_SendAckPacket(comm_chanle, PACK_RESP, RecBuf[6], DataBuf, 23);
 837:Code\UserApp\Protocol/CmdProtocol.c **** 	
 838:Code\UserApp\Protocol/CmdProtocol.c **** 	#if DBG_SOFT_ENNABLE
 839:Code\UserApp\Protocol/CmdProtocol.c **** 	test_Flash();
 840:Code\UserApp\Protocol/CmdProtocol.c **** 	#endif
 841:Code\UserApp\Protocol/CmdProtocol.c **** 	
 842:Code\UserApp\Protocol/CmdProtocol.c **** 	DBG_PRINTF("leaving %s\n", __FUNCTION__);
 843:Code\UserApp\Protocol/CmdProtocol.c **** }
 844:Code\UserApp\Protocol/CmdProtocol.c **** 
 845:Code\UserApp\Protocol/CmdProtocol.c **** //*************************************************************************************************
 846:Code\UserApp\Protocol/CmdProtocol.c **** // Function name	: Protocol_CmdDelUID
 847:Code\UserApp\Protocol/CmdProtocol.c **** // Description		: å¹³å° -->ä»æ™ºèƒ½é—¨ç¦åˆ é™¤ä¸€æ¡UID æŒ‡ä»¤
 848:Code\UserApp\Protocol/CmdProtocol.c **** // Parameter		: uint8* RecBuf	å‘½ä»¤åŒ…æŒ‡é’ˆ
 849:Code\UserApp\Protocol/CmdProtocol.c **** // Return			: none
 850:Code\UserApp\Protocol/CmdProtocol.c **** //-------------------------------------------------------------------------------------------------
 851:Code\UserApp\Protocol/CmdProtocol.c **** // Info				: 0x05å‘½ä»¤ï¼ŒæœåŠ¡å™¨å‘é€
 852:Code\UserApp\Protocol/CmdProtocol.c **** //*************************************************************************************************
 853:Code\UserApp\Protocol/CmdProtocol.c **** static void Protocol_CmdDelUID(uint8* RecBuf)
 854:Code\UserApp\Protocol/CmdProtocol.c **** {
 855:Code\UserApp\Protocol/CmdProtocol.c **** 	uint8 ret = 0;
 856:Code\UserApp\Protocol/CmdProtocol.c **** 	uint8 DataBuf[64];
 857:Code\UserApp\Protocol/CmdProtocol.c **** 	uint8 *pT = DataBuf;
 858:Code\UserApp\Protocol/CmdProtocol.c **** 	uint8 pUID[8];
 859:Code\UserApp\Protocol/CmdProtocol.c **** 	uint8 comm_chanle = RecBuf[4];								// å–å‡ºä¿¡é“å€¼							//
 860:Code\UserApp\Protocol/CmdProtocol.c **** 	uint16 nCmdPackLen;
 861:Code\UserApp\Protocol/CmdProtocol.c **** 
 862:Code\UserApp\Protocol/CmdProtocol.c **** 	nCmdPackLen= (RecBuf[2]<<8) + RecBuf[3] + 4;
 863:Code\UserApp\Protocol/CmdProtocol.c **** 	 
 864:Code\UserApp\Protocol/CmdProtocol.c **** 	memset(pT, 0, sizeof(DataBuf));
 865:Code\UserApp\Protocol/CmdProtocol.c **** 	memcpy(pT, RecBuf + 7, 6);									// å–å‡ºMACåœ°å€ï¼Œç†è®ºåº”åŠ ä¸ŠMACæ ¡éªŒ		//
 866:Code\UserApp\Protocol/CmdProtocol.c **** 	pT += 6;
 867:Code\UserApp\Protocol/CmdProtocol.c **** 
 868:Code\UserApp\Protocol/CmdProtocol.c **** 	memcpy(pT, RecBuf + 13, 8);									// å–å‡ºuid								//
 869:Code\UserApp\Protocol/CmdProtocol.c **** 	memcpy(pUID, RecBuf + 13, 8);
 870:Code\UserApp\Protocol/CmdProtocol.c **** 	pT += 8;
 871:Code\UserApp\Protocol/CmdProtocol.c **** 
 872:Code\UserApp\Protocol/CmdProtocol.c **** 	memcpy(pT, RecBuf + nCmdPackLen - 6, 4);					// æ—¶é—´æˆ³								//
ARM GAS  C:\Users\Administrator\AppData\Local\Temp\ccexfbaX.s 			page 21


 873:Code\UserApp\Protocol/CmdProtocol.c **** 	pT += 4;
 874:Code\UserApp\Protocol/CmdProtocol.c ****  	
 875:Code\UserApp\Protocol/CmdProtocol.c **** 	//===ã€å¼€å§‹ã€‘=== è®¾å¤‡å±‚çš„å¤„ç† ==========================================================
 876:Code\UserApp\Protocol/CmdProtocol.c **** 	Endpoint_exchange(pUID);									// Aå¡æ•°æ®ä½ç½®è½¬æ¢ @ 18-1-17			//
 877:Code\UserApp\Protocol/CmdProtocol.c **** 	
 878:Code\UserApp\Protocol/CmdProtocol.c **** 	ret = UserData_DEL_User(pUID);
 879:Code\UserApp\Protocol/CmdProtocol.c **** 	if (TRUE == ret)
 880:Code\UserApp\Protocol/CmdProtocol.c **** 	{
 881:Code\UserApp\Protocol/CmdProtocol.c **** 		VoicePlay((uint8)Sound_DELETE_SUCCESS);
 882:Code\UserApp\Protocol/CmdProtocol.c **** 		*pT = RT_SUCC;
 883:Code\UserApp\Protocol/CmdProtocol.c **** 	}
 884:Code\UserApp\Protocol/CmdProtocol.c **** 	else if(RT_Invalid_ERR == ret)
 885:Code\UserApp\Protocol/CmdProtocol.c **** 	{
 886:Code\UserApp\Protocol/CmdProtocol.c **** 		VoicePlay((uint8)Sound_DELETE_FAILURE);
 887:Code\UserApp\Protocol/CmdProtocol.c **** 		*pT = RT_Invalid_ERR;
 888:Code\UserApp\Protocol/CmdProtocol.c **** 	}
 889:Code\UserApp\Protocol/CmdProtocol.c **** 	else if(FALSE == ret)
 890:Code\UserApp\Protocol/CmdProtocol.c **** 	{
 891:Code\UserApp\Protocol/CmdProtocol.c **** 		VoicePlay((uint8)Sound_DELETE_FAILURE);
 892:Code\UserApp\Protocol/CmdProtocol.c **** 		*pT = RT_FAIL;
 893:Code\UserApp\Protocol/CmdProtocol.c **** 	}
 894:Code\UserApp\Protocol/CmdProtocol.c **** 	
 895:Code\UserApp\Protocol/CmdProtocol.c **** 	
 896:Code\UserApp\Protocol/CmdProtocol.c **** 	//===ã€ç»“æŸã€‘=== è®¾å¤‡å±‚çš„å¤„ç† ==========================================================
 897:Code\UserApp\Protocol/CmdProtocol.c **** 	
 898:Code\UserApp\Protocol/CmdProtocol.c **** 	Protocol_SendAckPacket(comm_chanle, PACK_RESP, RecBuf[6], DataBuf, 19);	
 899:Code\UserApp\Protocol/CmdProtocol.c **** 	
 900:Code\UserApp\Protocol/CmdProtocol.c **** 	#if DBG_SOFT_ENNABLE
 901:Code\UserApp\Protocol/CmdProtocol.c **** 	test_Flash();
 902:Code\UserApp\Protocol/CmdProtocol.c **** 	#endif
 903:Code\UserApp\Protocol/CmdProtocol.c **** 	
 904:Code\UserApp\Protocol/CmdProtocol.c **** 	DBG_PRINTF("leaving %s\n", __FUNCTION__);
 905:Code\UserApp\Protocol/CmdProtocol.c **** }  
 906:Code\UserApp\Protocol/CmdProtocol.c **** 
 907:Code\UserApp\Protocol/CmdProtocol.c **** //*************************************************************************************************
 908:Code\UserApp\Protocol/CmdProtocol.c **** // Function name	: Protocol_CmdOpenDoor
 909:Code\UserApp\Protocol/CmdProtocol.c **** // Description		: APP(æˆ–å¹³å°)é€šè¿‡é¢„å®šçš„ä¿¡é“å‘æ™ºèƒ½é—¨ç¦å‘å‡ºå¼€é—¨å‘½ä»¤ï¼Œæ™ºèƒ½é—¨ç
 910:Code\UserApp\Protocol/CmdProtocol.c **** // Parameter		: uint8* RecBuf	å‘½ä»¤åŒ…æŒ‡é’ˆ
 911:Code\UserApp\Protocol/CmdProtocol.c **** // Return			: none
 912:Code\UserApp\Protocol/CmdProtocol.c **** //-------------------------------------------------------------------------------------------------
 913:Code\UserApp\Protocol/CmdProtocol.c **** // Info				: 0x06å‘½ä»¤ï¼ŒæœåŠ¡å™¨å‘é€
 914:Code\UserApp\Protocol/CmdProtocol.c **** //*************************************************************************************************
 915:Code\UserApp\Protocol/CmdProtocol.c **** static void Protocol_CmdOpenDoor(uint8* RecBuf)
 916:Code\UserApp\Protocol/CmdProtocol.c **** {
 917:Code\UserApp\Protocol/CmdProtocol.c **** 	uint8 ret = 0;
 918:Code\UserApp\Protocol/CmdProtocol.c **** 	uint8 RetCode = RT_SUCC;
 919:Code\UserApp\Protocol/CmdProtocol.c **** 	uint8 DataBuf[256];
 920:Code\UserApp\Protocol/CmdProtocol.c **** 	uint8 pUID[8];
 921:Code\UserApp\Protocol/CmdProtocol.c **** 	uint8 pMAC[6];
 922:Code\UserApp\Protocol/CmdProtocol.c **** 	uint8 pTime[4];
 923:Code\UserApp\Protocol/CmdProtocol.c **** 	uint8 OpenType;  
 924:Code\UserApp\Protocol/CmdProtocol.c **** 	uint8 *pT=DataBuf;
 925:Code\UserApp\Protocol/CmdProtocol.c **** 	uint8 comm_chanle = RecBuf[4];								// å–å‡ºä¿¡é“å€¼							//
 926:Code\UserApp\Protocol/CmdProtocol.c **** 	uint16 nCmdPackLen;
 927:Code\UserApp\Protocol/CmdProtocol.c **** 	user_info_t user_info;
 928:Code\UserApp\Protocol/CmdProtocol.c **** 	open_door_t openInfo;
 929:Code\UserApp\Protocol/CmdProtocol.c **** 
ARM GAS  C:\Users\Administrator\AppData\Local\Temp\ccexfbaX.s 			page 22


 930:Code\UserApp\Protocol/CmdProtocol.c ****     nCmdPackLen= (RecBuf[2] << 8) + RecBuf[3] + 4;
 931:Code\UserApp\Protocol/CmdProtocol.c **** 	
 932:Code\UserApp\Protocol/CmdProtocol.c **** 	memset(&openInfo, 0, sizeof(open_door_t));
 933:Code\UserApp\Protocol/CmdProtocol.c ****     memset(pT, 0, sizeof(DataBuf));
 934:Code\UserApp\Protocol/CmdProtocol.c ****     
 935:Code\UserApp\Protocol/CmdProtocol.c **** 	memcpy(pT, RecBuf + 7, 6);									// å–å‡ºMACåœ°å€ï¼Œç†è®ºåº”åŠ ä¸ŠMACæ ¡éªŒ		//
 936:Code\UserApp\Protocol/CmdProtocol.c ****     memcpy(pMAC, RecBuf + 7, 6);
 937:Code\UserApp\Protocol/CmdProtocol.c **** 	pT += 6;
 938:Code\UserApp\Protocol/CmdProtocol.c **** 	
 939:Code\UserApp\Protocol/CmdProtocol.c **** 	memcpy(pT, RecBuf + 13, 8);									// å–å‡ºuid								//
 940:Code\UserApp\Protocol/CmdProtocol.c **** 	memcpy(pUID, RecBuf + 13,8);
 941:Code\UserApp\Protocol/CmdProtocol.c ****     pT += 8;
 942:Code\UserApp\Protocol/CmdProtocol.c **** 	
 943:Code\UserApp\Protocol/CmdProtocol.c ****     *pT = *(RecBuf + 13 + 8);									// å¼€é—¨æ–¹å¼								//
 944:Code\UserApp\Protocol/CmdProtocol.c **** 	OpenType = *(RecBuf + 13 + 8);
 945:Code\UserApp\Protocol/CmdProtocol.c **** 	pT += 1;
 946:Code\UserApp\Protocol/CmdProtocol.c **** 	
 947:Code\UserApp\Protocol/CmdProtocol.c ****     memcpy(pT, RecBuf + nCmdPackLen - 6, 4);					// æ—¶é—´æˆ³								//
 948:Code\UserApp\Protocol/CmdProtocol.c ****     memcpy(pTime, RecBuf + nCmdPackLen - 6, 4);
 949:Code\UserApp\Protocol/CmdProtocol.c **** 	pT += 4;
 950:Code\UserApp\Protocol/CmdProtocol.c **** 	
 951:Code\UserApp\Protocol/CmdProtocol.c **** 	//===ã€å¼€å§‹ã€‘=== è®¾å¤‡å±‚çš„å¤„ç† ==========================================================
 952:Code\UserApp\Protocol/CmdProtocol.c **** 	Endpoint_exchange(pUID);									// Aå¡æ•°æ®ä½ç½®è½¬æ¢ @ 18-1-17			//
 953:Code\UserApp\Protocol/CmdProtocol.c **** 	
 954:Code\UserApp\Protocol/CmdProtocol.c **** 	memcpy(user_info.card_uid, pUID, 8);
 955:Code\UserApp\Protocol/CmdProtocol.c **** 	memcpy(user_info.valid_time, pTime, 4);
 956:Code\UserApp\Protocol/CmdProtocol.c **** 	
 957:Code\UserApp\Protocol/CmdProtocol.c **** 	if (0 != memcmp((uint8 *)Mac_Addr, pMAC, BD_ADDR_LEN))
 958:Code\UserApp\Protocol/CmdProtocol.c **** 	{
 959:Code\UserApp\Protocol/CmdProtocol.c **** 		RetCode = RT_FAIL;										// ä¸¢å¼ƒï¼Ÿ
 960:Code\UserApp\Protocol/CmdProtocol.c **** 	}
 961:Code\UserApp\Protocol/CmdProtocol.c **** 	else
 962:Code\UserApp\Protocol/CmdProtocol.c **** 	{ 
 963:Code\UserApp\Protocol/CmdProtocol.c **** 		
 964:Code\UserApp\Protocol/CmdProtocol.c **** 		ret = UserData_Judge_If_Open(&user_info);
 965:Code\UserApp\Protocol/CmdProtocol.c **** 		if (RT_UID_ERR == ret)
 966:Code\UserApp\Protocol/CmdProtocol.c **** 		{
 967:Code\UserApp\Protocol/CmdProtocol.c **** 			RetCode = RT_UID_ERR;
 968:Code\UserApp\Protocol/CmdProtocol.c **** 		}
 969:Code\UserApp\Protocol/CmdProtocol.c **** 		else if(RT_ValidTime_ERR == ret)
 970:Code\UserApp\Protocol/CmdProtocol.c **** 		{
 971:Code\UserApp\Protocol/CmdProtocol.c **** 			RetCode = RT_ValidTime_ERR;
 972:Code\UserApp\Protocol/CmdProtocol.c **** 		}
 973:Code\UserApp\Protocol/CmdProtocol.c **** 		else if (TRUE == ret)
 974:Code\UserApp\Protocol/CmdProtocol.c **** 		{
 975:Code\UserApp\Protocol/CmdProtocol.c **** 			RetCode = RT_SUCC;
 976:Code\UserApp\Protocol/CmdProtocol.c **** 		}
 977:Code\UserApp\Protocol/CmdProtocol.c **** 	}
 978:Code\UserApp\Protocol/CmdProtocol.c **** 	*pT = RetCode;
 979:Code\UserApp\Protocol/CmdProtocol.c **** 	//===ã€ç»“æŸã€‘=== è®¾å¤‡å±‚çš„å¤„ç† ==========================================================
 980:Code\UserApp\Protocol/CmdProtocol.c **** 	
 981:Code\UserApp\Protocol/CmdProtocol.c **** 	Protocol_SendAckPacket(comm_chanle, PACK_RESP, RecBuf[6], DataBuf, 20);
 982:Code\UserApp\Protocol/CmdProtocol.c **** 		
 983:Code\UserApp\Protocol/CmdProtocol.c **** 	if (RetCode == RT_SUCC)
 984:Code\UserApp\Protocol/CmdProtocol.c **** 	{
 985:Code\UserApp\Protocol/CmdProtocol.c **** 		//===ã€å¼€å§‹ã€‘=== è®¾å¤‡å±‚çš„å¤„ç† =========================================================
 986:Code\UserApp\Protocol/CmdProtocol.c **** 	    Led_GreenON();
ARM GAS  C:\Users\Administrator\AppData\Local\Temp\ccexfbaX.s 			page 23


 987:Code\UserApp\Protocol/CmdProtocol.c **** 		DoorOpen();
 988:Code\UserApp\Protocol/CmdProtocol.c **** 		VoicePlay((uint8)Sound_VERIFY_SUCCESS);
 989:Code\UserApp\Protocol/CmdProtocol.c ****         cur_time = (uint32)RTC_GetUnixTime();
 990:Code\UserApp\Protocol/CmdProtocol.c **** 		if (cur_time >= 1483203600)
 991:Code\UserApp\Protocol/CmdProtocol.c **** 		{
 992:Code\UserApp\Protocol/CmdProtocol.c **** 			memcpy(openInfo.card_uid, pUID, CARD_UID_LEN);
 993:Code\UserApp\Protocol/CmdProtocol.c **** 			memcpy(openInfo.open_time, pTime, 4);
 994:Code\UserApp\Protocol/CmdProtocol.c **** 			memset(pTime, 0, 4);
 995:Code\UserApp\Protocol/CmdProtocol.c **** 			memcpy(openInfo.send_time, pTime, 4);
 996:Code\UserApp\Protocol/CmdProtocol.c **** 			Write_OpenInfo(&openInfo, OpenType);
 997:Code\UserApp\Protocol/CmdProtocol.c **** 		}
 998:Code\UserApp\Protocol/CmdProtocol.c **** 		delay_with_ble(1000);
 999:Code\UserApp\Protocol/CmdProtocol.c **** 		DoorClose();
1000:Code\UserApp\Protocol/CmdProtocol.c **** 		Led_SetState(LED_State);
1001:Code\UserApp\Protocol/CmdProtocol.c **** 		
1002:Code\UserApp\Protocol/CmdProtocol.c **** 		
1003:Code\UserApp\Protocol/CmdProtocol.c **** 		//===ã€ç»“æŸã€‘=== è®¾å¤‡å±‚çš„å¤„ç† =========================================================
1004:Code\UserApp\Protocol/CmdProtocol.c **** 		#if 0
1005:Code\UserApp\Protocol/CmdProtocol.c **** 		cur_time = (uint32)RTC_GetUnixTime();
1006:Code\UserApp\Protocol/CmdProtocol.c **** 		if ((cur_time + 300) > next_heartbeat_time)					// ä¸‹ä¸€æ¬¡å¿ƒè·³åœ¨30ç§’ä»¥å†…				//
1007:Code\UserApp\Protocol/CmdProtocol.c **** 		{
1008:Code\UserApp\Protocol/CmdProtocol.c **** 			next_heartbeat_time = cur_time + 300;
1009:Code\UserApp\Protocol/CmdProtocol.c **** 		}
1010:Code\UserApp\Protocol/CmdProtocol.c **** 		#endif
1011:Code\UserApp\Protocol/CmdProtocol.c **** 		if (cur_time >= 1483203600)
1012:Code\UserApp\Protocol/CmdProtocol.c **** 		{
1013:Code\UserApp\Protocol/CmdProtocol.c **** 			if (gprs_state == NORMAL_COMM)
1014:Code\UserApp\Protocol/CmdProtocol.c **** 			{
1015:Code\UserApp\Protocol/CmdProtocol.c **** 				cur_time = (uint32)RTC_GetUnixTime();
1016:Code\UserApp\Protocol/CmdProtocol.c **** 				if(cur_time > next_allupload_time)
1017:Code\UserApp\Protocol/CmdProtocol.c **** 				{
1018:Code\UserApp\Protocol/CmdProtocol.c **** 					next_allupload_time = cur_time + 15;
1019:Code\UserApp\Protocol/CmdProtocol.c **** 					send_upload_open_info(&openInfo, CARD_UID_LEN, OpenType);
1020:Code\UserApp\Protocol/CmdProtocol.c **** 				}
1021:Code\UserApp\Protocol/CmdProtocol.c **** 			}
1022:Code\UserApp\Protocol/CmdProtocol.c **** 		}
1023:Code\UserApp\Protocol/CmdProtocol.c **** 	}
1024:Code\UserApp\Protocol/CmdProtocol.c **** 	else
1025:Code\UserApp\Protocol/CmdProtocol.c **** 	{
1026:Code\UserApp\Protocol/CmdProtocol.c **** 		Card_ErrCount++;
1027:Code\UserApp\Protocol/CmdProtocol.c **** 		Led_RedON();
1028:Code\UserApp\Protocol/CmdProtocol.c **** 		VoicePlay(Sound_VERIFY_FAILURE);
1029:Code\UserApp\Protocol/CmdProtocol.c **** 		delay_with_ble(1000);
1030:Code\UserApp\Protocol/CmdProtocol.c **** 	}
1031:Code\UserApp\Protocol/CmdProtocol.c **** 		
1032:Code\UserApp\Protocol/CmdProtocol.c **** 	DBG_PRINTF("leaving %s\n", __FUNCTION__);
1033:Code\UserApp\Protocol/CmdProtocol.c **** }
1034:Code\UserApp\Protocol/CmdProtocol.c **** 
1035:Code\UserApp\Protocol/CmdProtocol.c **** //*************************************************************************************************
1036:Code\UserApp\Protocol/CmdProtocol.c **** // Function name	: Protocol_CmdSendOpenInfo
1037:Code\UserApp\Protocol/CmdProtocol.c **** // Description		: å¼€é—¨ä¿¡æ¯ä¸ŠæŠ¥åˆ°æœåŠ¡å™¨æŒ‡ä»¤ï¼ˆæ™ºèƒ½é—¨ç¦â†’æœåŠ¡å™¨ï¼‰
1038:Code\UserApp\Protocol/CmdProtocol.c **** // Parameter		: uint8* RecBuf	å‘½ä»¤åŒ…æŒ‡é’ˆ
1039:Code\UserApp\Protocol/CmdProtocol.c **** // Return			: none
1040:Code\UserApp\Protocol/CmdProtocol.c **** //-------------------------------------------------------------------------------------------------
1041:Code\UserApp\Protocol/CmdProtocol.c **** // Info				: 0x07å‘½ä»¤ï¼ŒæœåŠ¡å™¨åº”ç­”
1042:Code\UserApp\Protocol/CmdProtocol.c **** //*************************************************************************************************
1043:Code\UserApp\Protocol/CmdProtocol.c **** static void Protocol_CmdSendOpenInfo(uint8* RecBuf)
ARM GAS  C:\Users\Administrator\AppData\Local\Temp\ccexfbaX.s 			page 24


1044:Code\UserApp\Protocol/CmdProtocol.c **** {
 258              		.loc 1 1044 0
 259              		.cfi_startproc
 260              		@ args = 0, pretend = 0, frame = 8
 261              		@ frame_needed = 0, uses_anonymous_args = 0
 262              	.LVL36:
 263 0000 13B5     		push	{r0, r1, r4, lr}
 264              		.cfi_def_cfa_offset 16
 265              		.cfi_offset 0, -16
 266              		.cfi_offset 1, -12
 267              		.cfi_offset 4, -8
 268              		.cfi_offset 14, -4
1045:Code\UserApp\Protocol/CmdProtocol.c **** 	//===ã€å¼€å§‹ã€‘=== è®¾å¤‡å±‚çš„å¤„ç† ==========================================================
1046:Code\UserApp\Protocol/CmdProtocol.c **** 	uint8 opentime[4] = {0};
1047:Code\UserApp\Protocol/CmdProtocol.c **** 	uint8 pTime[4] = {0};
1048:Code\UserApp\Protocol/CmdProtocol.c **** 	uint8 ret_code = 0;
1049:Code\UserApp\Protocol/CmdProtocol.c **** 	
1050:Code\UserApp\Protocol/CmdProtocol.c **** 	memcpy(opentime, RecBuf + 22, 4);								// å¼€é—¨æ—¶é—´							//
 269              		.loc 1 1050 0
 270 0002 0100     		movs	r1, r0
1044:Code\UserApp\Protocol/CmdProtocol.c **** 	//===ã€å¼€å§‹ã€‘=== è®¾å¤‡å±‚çš„å¤„ç† ==========================================================
 271              		.loc 1 1044 0
 272 0004 0400     		movs	r4, r0
 273              		.loc 1 1050 0
 274 0006 1631     		adds	r1, r1, #22
 275 0008 0422     		movs	r2, #4
 276 000a 6846     		mov	r0, sp
 277              	.LVL37:
 278 000c FFF7FEFF 		bl	memcpy
 279              	.LVL38:
1051:Code\UserApp\Protocol/CmdProtocol.c **** 	memcpy(pTime, RecBuf + 26, 4);									// æ—¶é—´æˆ³ -- è®°ä½œå‘é€æ—¶é—´ 			//
 280              		.loc 1 1051 0
 281 0010 2100     		movs	r1, r4
 282 0012 0422     		movs	r2, #4
 283 0014 1A31     		adds	r1, r1, #26
 284 0016 01A8     		add	r0, sp, #4
 285 0018 FFF7FEFF 		bl	memcpy
 286              	.LVL39:
1052:Code\UserApp\Protocol/CmdProtocol.c **** 	ret_code =  RecBuf[30];											// ç»“æœç 							//
1053:Code\UserApp\Protocol/CmdProtocol.c **** 	
1054:Code\UserApp\Protocol/CmdProtocol.c **** 	if(ret_code == 0x01)
 287              		.loc 1 1054 0
 288 001c A37F     		ldrb	r3, [r4, #30]
 289 001e 012B     		cmp	r3, #1
 290 0020 03D1     		bne	.L8
1055:Code\UserApp\Protocol/CmdProtocol.c **** 		FindAndSet_UploadTime_UploadFlag(opentime, pTime);
 291              		.loc 1 1055 0
 292 0022 01A9     		add	r1, sp, #4
 293 0024 6846     		mov	r0, sp
 294 0026 FFF7FEFF 		bl	FindAndSet_UploadTime_UploadFlag
 295              	.LVL40:
 296              	.L8:
1056:Code\UserApp\Protocol/CmdProtocol.c **** 	else
1057:Code\UserApp\Protocol/CmdProtocol.c **** 	{	
1058:Code\UserApp\Protocol/CmdProtocol.c **** 		//Fail_openinfo
1059:Code\UserApp\Protocol/CmdProtocol.c **** 		DBG_SOFT_PutStr("\r\n 07 reponse err:\r\n");
1060:Code\UserApp\Protocol/CmdProtocol.c **** 		DBG_SOFT_PrintfHex(&ret_code,1,16);		
ARM GAS  C:\Users\Administrator\AppData\Local\Temp\ccexfbaX.s 			page 25


1061:Code\UserApp\Protocol/CmdProtocol.c **** 	}	
1062:Code\UserApp\Protocol/CmdProtocol.c **** 	//===ã€ç»“æŸã€‘=== è®¾å¤‡å±‚çš„å¤„ç† ==========================================================
1063:Code\UserApp\Protocol/CmdProtocol.c **** 	
1064:Code\UserApp\Protocol/CmdProtocol.c **** 	#if DBG_SOFT_ENNABLE
1065:Code\UserApp\Protocol/CmdProtocol.c **** 	test_Flash();
1066:Code\UserApp\Protocol/CmdProtocol.c **** 	#endif
1067:Code\UserApp\Protocol/CmdProtocol.c **** 	
1068:Code\UserApp\Protocol/CmdProtocol.c **** 	next_allupload_time = (uint32)RTC_GetUnixTime(); 				// æ¢å¤å»¶æ—¶ä¸ŠæŠ¥çš„æ—¶å»¶				//
 297              		.loc 1 1068 0
 298 002a FFF7FEFF 		bl	RTC_GetUnixTime
 299              	.LVL41:
 300 002e 014B     		ldr	r3, .L9
1069:Code\UserApp\Protocol/CmdProtocol.c **** 	
1070:Code\UserApp\Protocol/CmdProtocol.c **** 	DBG_PRINTF("leaving %s\n", __FUNCTION__);
1071:Code\UserApp\Protocol/CmdProtocol.c **** } 
 301              		.loc 1 1071 0
 302              		@ sp needed
1068:Code\UserApp\Protocol/CmdProtocol.c **** 	
 303              		.loc 1 1068 0
 304 0030 1860     		str	r0, [r3]
 305              	.LVL42:
 306              		.loc 1 1071 0
 307 0032 13BD     		pop	{r0, r1, r4, pc}
 308              	.L10:
 309              		.align	2
 310              	.L9:
 311 0034 00000000 		.word	next_allupload_time
 312              		.cfi_endproc
 313              	.LFE79:
 314              		.size	Protocol_CmdSendOpenInfo, .-Protocol_CmdSendOpenInfo
 315              		.section	.text.Protocol_CmdTimeCheck,"ax",%progbits
 316              		.align	1
 317              		.code	16
 318              		.thumb_func
 319              		.type	Protocol_CmdTimeCheck, %function
 320              	Protocol_CmdTimeCheck:
 321              	.LFB82:
1072:Code\UserApp\Protocol/CmdProtocol.c **** 
1073:Code\UserApp\Protocol/CmdProtocol.c **** //*************************************************************************************************
1074:Code\UserApp\Protocol/CmdProtocol.c **** // Function name	: Protocol_CmdPluse
1075:Code\UserApp\Protocol/CmdProtocol.c **** // Description		: å¿ƒè·³åŒ…ç»™æœåŠ¡å™¨ï¼ˆæ™ºèƒ½é—¨ç¦â†’æœåŠ¡å™¨ï¼‰
1076:Code\UserApp\Protocol/CmdProtocol.c **** // Parameter		: uint8* RecBuf	å‘½ä»¤åŒ…æŒ‡é’ˆ
1077:Code\UserApp\Protocol/CmdProtocol.c **** // Return			: none
1078:Code\UserApp\Protocol/CmdProtocol.c **** //-------------------------------------------------------------------------------------------------
1079:Code\UserApp\Protocol/CmdProtocol.c **** // Info				: 0x08å‘½ä»¤ï¼ŒæœåŠ¡å™¨åº”ç­”
1080:Code\UserApp\Protocol/CmdProtocol.c **** //*************************************************************************************************
1081:Code\UserApp\Protocol/CmdProtocol.c **** static void Protocol_CmdPluse(uint8* RecBuf)
1082:Code\UserApp\Protocol/CmdProtocol.c **** {
1083:Code\UserApp\Protocol/CmdProtocol.c **** 	uint8 ret;
1084:Code\UserApp\Protocol/CmdProtocol.c **** 	uint8 *pstr = RecBuf;
1085:Code\UserApp\Protocol/CmdProtocol.c **** 	uint8 arr_adjtime[4] = {0};
1086:Code\UserApp\Protocol/CmdProtocol.c **** 	uint16 nCmdPackLen = (RecBuf[2] << 8) + RecBuf[3] + 4;
1087:Code\UserApp\Protocol/CmdProtocol.c **** 	
1088:Code\UserApp\Protocol/CmdProtocol.c **** 	//===ã€å¼€å§‹ã€‘=== è®¾å¤‡å±‚çš„å¤„ç† ==========================================================
1089:Code\UserApp\Protocol/CmdProtocol.c **** 	heartbeat_SendCount = 0;										// æ”¶åˆ°ï¼Œé”™è¯¯æ¬¡æ•°æ¸…é›¶				//
1090:Code\UserApp\Protocol/CmdProtocol.c **** 	ret = *(pstr + nCmdPackLen - 3);
1091:Code\UserApp\Protocol/CmdProtocol.c **** 	if (ret == RT_SUCC)
ARM GAS  C:\Users\Administrator\AppData\Local\Temp\ccexfbaX.s 			page 26


1092:Code\UserApp\Protocol/CmdProtocol.c **** 	{
1093:Code\UserApp\Protocol/CmdProtocol.c **** 		pstr += 17;
1094:Code\UserApp\Protocol/CmdProtocol.c **** 		memcpy(arr_adjtime, pstr, 4);
1095:Code\UserApp\Protocol/CmdProtocol.c **** 		SetSysRTCTime(arr_adjtime);
1096:Code\UserApp\Protocol/CmdProtocol.c **** 		cur_time = (uint32)RTC_GetUnixTime();						// æ›´æ–°æ—¶é—´							//
1097:Code\UserApp\Protocol/CmdProtocol.c **** 		next_heartbeat_time = cur_time + 300;
1098:Code\UserApp\Protocol/CmdProtocol.c **** 	}
1099:Code\UserApp\Protocol/CmdProtocol.c **** 	Updatealarm_check();											// ä¸ŠæŠ¥æ˜¯å¦å‡çº§æˆåŠŸ										
1100:Code\UserApp\Protocol/CmdProtocol.c **** 	
1101:Code\UserApp\Protocol/CmdProtocol.c **** 	//===ã€ç»“æŸã€‘=== è®¾å¤‡å±‚çš„å¤„ç† ==========================================================
1102:Code\UserApp\Protocol/CmdProtocol.c **** 	
1103:Code\UserApp\Protocol/CmdProtocol.c **** 	
1104:Code\UserApp\Protocol/CmdProtocol.c **** 	DBG_PRINTF("leaving %s\n", __FUNCTION__);
1105:Code\UserApp\Protocol/CmdProtocol.c **** }  
1106:Code\UserApp\Protocol/CmdProtocol.c **** 
1107:Code\UserApp\Protocol/CmdProtocol.c **** //*************************************************************************************************
1108:Code\UserApp\Protocol/CmdProtocol.c **** // Function name	: Protocol_CmdClearUID
1109:Code\UserApp\Protocol/CmdProtocol.c **** // Description		: æ¸…ç©ºæ™ºèƒ½é—¨ç¦æ‰€æœ‰UID å’Œæœ‰æ•ˆæœŸæŒ‡ä»¤
1110:Code\UserApp\Protocol/CmdProtocol.c **** // Parameter		: uint8* RecBuf	å‘½ä»¤åŒ…æŒ‡é’ˆ
1111:Code\UserApp\Protocol/CmdProtocol.c **** // Return			: none
1112:Code\UserApp\Protocol/CmdProtocol.c **** //-------------------------------------------------------------------------------------------------
1113:Code\UserApp\Protocol/CmdProtocol.c **** // Info				: 0x09å‘½ä»¤ï¼ŒæœåŠ¡å™¨å‘é€
1114:Code\UserApp\Protocol/CmdProtocol.c **** //*************************************************************************************************
1115:Code\UserApp\Protocol/CmdProtocol.c **** static void Protocol_CmdClearUID(uint8* RecBuf)
1116:Code\UserApp\Protocol/CmdProtocol.c **** {
1117:Code\UserApp\Protocol/CmdProtocol.c **** 	uint8 RetCode = RT_SUCC;
1118:Code\UserApp\Protocol/CmdProtocol.c **** 	uint8 DataBuf[64];
1119:Code\UserApp\Protocol/CmdProtocol.c **** 	uint8 *pT = DataBuf;
1120:Code\UserApp\Protocol/CmdProtocol.c **** 	uint8 comm_chanle = RecBuf[4];								// å–å‡ºä¿¡é“å€¼							//
1121:Code\UserApp\Protocol/CmdProtocol.c **** 		 
1122:Code\UserApp\Protocol/CmdProtocol.c **** 	memset(pT, 0, sizeof(DataBuf));
1123:Code\UserApp\Protocol/CmdProtocol.c **** 	memcpy(pT, RecBuf + 7, 10);									// å–å‡ºMACåœ°å€å’Œæ—¶é—´æˆ³					//
1124:Code\UserApp\Protocol/CmdProtocol.c **** 	pT += 10;
1125:Code\UserApp\Protocol/CmdProtocol.c **** 
1126:Code\UserApp\Protocol/CmdProtocol.c **** 	//===ã€å¼€å§‹ã€‘=== è®¾å¤‡å±‚çš„å¤„ç† ==========================================================
1127:Code\UserApp\Protocol/CmdProtocol.c **** 	if (TRUE == UserData_CLR_User())
1128:Code\UserApp\Protocol/CmdProtocol.c **** 	{
1129:Code\UserApp\Protocol/CmdProtocol.c **** 		RetCode = RT_SUCC;
1130:Code\UserApp\Protocol/CmdProtocol.c **** 		VoicePlay((uint8)Sound_EMPTY_SUCCESS);
1131:Code\UserApp\Protocol/CmdProtocol.c **** 	}
1132:Code\UserApp\Protocol/CmdProtocol.c **** 	else
1133:Code\UserApp\Protocol/CmdProtocol.c **** 	{
1134:Code\UserApp\Protocol/CmdProtocol.c **** 		RetCode = RT_FAIL;
1135:Code\UserApp\Protocol/CmdProtocol.c **** 		VoicePlay((uint8)Sound_EMPTY_FAILURE);
1136:Code\UserApp\Protocol/CmdProtocol.c **** 	}
1137:Code\UserApp\Protocol/CmdProtocol.c **** 	//===ã€ç»“æŸã€‘=== è®¾å¤‡å±‚çš„å¤„ç† ==========================================================
1138:Code\UserApp\Protocol/CmdProtocol.c **** 
1139:Code\UserApp\Protocol/CmdProtocol.c **** 	*pT = RetCode;
1140:Code\UserApp\Protocol/CmdProtocol.c **** 	Protocol_SendAckPacket(comm_chanle, PACK_RESP, RecBuf[6], DataBuf, 11);
1141:Code\UserApp\Protocol/CmdProtocol.c **** 	
1142:Code\UserApp\Protocol/CmdProtocol.c **** 	#if DBG_SOFT_ENNABLE
1143:Code\UserApp\Protocol/CmdProtocol.c **** 	Clear_AllOPeninfo();
1144:Code\UserApp\Protocol/CmdProtocol.c **** 	#endif
1145:Code\UserApp\Protocol/CmdProtocol.c **** 	
1146:Code\UserApp\Protocol/CmdProtocol.c **** 	DBG_PRINTF("leaving %s\n", __FUNCTION__);
1147:Code\UserApp\Protocol/CmdProtocol.c **** }  
1148:Code\UserApp\Protocol/CmdProtocol.c **** 
ARM GAS  C:\Users\Administrator\AppData\Local\Temp\ccexfbaX.s 			page 27


1149:Code\UserApp\Protocol/CmdProtocol.c **** //*************************************************************************************************
1150:Code\UserApp\Protocol/CmdProtocol.c **** // Function name	: Protocol_CmdTimeCheck
1151:Code\UserApp\Protocol/CmdProtocol.c **** // Description		: æ—¶é—´æ ¡å‡†è¯·æ±‚ï¼ˆæ™ºèƒ½é—¨ç¦â†’æœåŠ¡å™¨ï¼‰
1152:Code\UserApp\Protocol/CmdProtocol.c **** // Parameter		: uint8* RecBuf	å‘½ä»¤åŒ…æŒ‡é’ˆ
1153:Code\UserApp\Protocol/CmdProtocol.c **** // Return			: none
1154:Code\UserApp\Protocol/CmdProtocol.c **** //-------------------------------------------------------------------------------------------------
1155:Code\UserApp\Protocol/CmdProtocol.c **** // Info				: 0x0Aå‘½ä»¤ï¼ŒæœåŠ¡å™¨åº”ç­”
1156:Code\UserApp\Protocol/CmdProtocol.c **** //*************************************************************************************************
1157:Code\UserApp\Protocol/CmdProtocol.c **** static void Protocol_CmdTimeCheck(uint8* RecBuf)
1158:Code\UserApp\Protocol/CmdProtocol.c **** {	
 322              		.loc 1 1158 0
 323              		.cfi_startproc
 324              		@ args = 0, pretend = 0, frame = 8
 325              		@ frame_needed = 0, uses_anonymous_args = 0
 326              	.LVL43:
 327 0000 07B5     		push	{r0, r1, r2, lr}
 328              		.cfi_def_cfa_offset 16
 329              		.cfi_offset 0, -16
 330              		.cfi_offset 1, -12
 331              		.cfi_offset 2, -8
 332              		.cfi_offset 14, -4
1159:Code\UserApp\Protocol/CmdProtocol.c **** 	uint8 *pstr = RecBuf;
1160:Code\UserApp\Protocol/CmdProtocol.c **** 	uint8 arr_adjtime[4] = {0};
1161:Code\UserApp\Protocol/CmdProtocol.c **** 	
1162:Code\UserApp\Protocol/CmdProtocol.c **** 	//===ã€å¼€å§‹ã€‘=== è®¾å¤‡å±‚çš„å¤„ç† ==========================================================
1163:Code\UserApp\Protocol/CmdProtocol.c **** 	pstr += 17;
1164:Code\UserApp\Protocol/CmdProtocol.c **** 	memcpy(arr_adjtime, pstr, 4);
 333              		.loc 1 1164 0
 334 0002 0100     		movs	r1, r0
 335 0004 0422     		movs	r2, #4
 336 0006 1131     		adds	r1, r1, #17
 337              	.LVL44:
 338 0008 01A8     		add	r0, sp, #4
 339              	.LVL45:
 340 000a FFF7FEFF 		bl	memcpy
 341              	.LVL46:
1165:Code\UserApp\Protocol/CmdProtocol.c **** 	SetSysRTCTime(arr_adjtime);
 342              		.loc 1 1165 0
 343 000e 01A8     		add	r0, sp, #4
 344 0010 FFF7FEFF 		bl	SetSysRTCTime
 345              	.LVL47:
1166:Code\UserApp\Protocol/CmdProtocol.c **** 	cur_time = (uint32)RTC_GetUnixTime();
 346              		.loc 1 1166 0
 347 0014 FFF7FEFF 		bl	RTC_GetUnixTime
 348              	.LVL48:
 349 0018 014B     		ldr	r3, .L12
1167:Code\UserApp\Protocol/CmdProtocol.c **** 	//===ã€ç»“æŸã€‘=== è®¾å¤‡å±‚çš„å¤„ç† ==========================================================
1168:Code\UserApp\Protocol/CmdProtocol.c ****  
1169:Code\UserApp\Protocol/CmdProtocol.c **** 	DBG_PRINTF("leaving %s\n", __FUNCTION__);
1170:Code\UserApp\Protocol/CmdProtocol.c **** }  
 350              		.loc 1 1170 0
 351              		@ sp needed
1166:Code\UserApp\Protocol/CmdProtocol.c **** 	cur_time = (uint32)RTC_GetUnixTime();
 352              		.loc 1 1166 0
 353 001a 1860     		str	r0, [r3]
 354              		.loc 1 1170 0
 355 001c 07BD     		pop	{r0, r1, r2, pc}
ARM GAS  C:\Users\Administrator\AppData\Local\Temp\ccexfbaX.s 			page 28


 356              	.L13:
 357 001e C046     		.align	2
 358              	.L12:
 359 0020 00000000 		.word	cur_time
 360              		.cfi_endproc
 361              	.LFE82:
 362              		.size	Protocol_CmdTimeCheck, .-Protocol_CmdTimeCheck
 363              		.section	.text.Protocol_CmdPluse,"ax",%progbits
 364              		.align	1
 365              		.code	16
 366              		.thumb_func
 367              		.type	Protocol_CmdPluse, %function
 368              	Protocol_CmdPluse:
 369              	.LFB80:
1082:Code\UserApp\Protocol/CmdProtocol.c **** 	uint8 ret;
 370              		.loc 1 1082 0
 371              		.cfi_startproc
 372              		@ args = 0, pretend = 0, frame = 8
 373              		@ frame_needed = 0, uses_anonymous_args = 0
 374              	.LVL49:
 375 0000 07B5     		push	{r0, r1, r2, lr}
 376              		.cfi_def_cfa_offset 16
 377              		.cfi_offset 0, -16
 378              		.cfi_offset 1, -12
 379              		.cfi_offset 2, -8
 380              		.cfi_offset 14, -4
1085:Code\UserApp\Protocol/CmdProtocol.c **** 	uint16 nCmdPackLen = (RecBuf[2] << 8) + RecBuf[3] + 4;
 381              		.loc 1 1085 0
 382 0002 0021     		movs	r1, #0
1086:Code\UserApp\Protocol/CmdProtocol.c **** 	
 383              		.loc 1 1086 0
 384 0004 8378     		ldrb	r3, [r0, #2]
 385 0006 C278     		ldrb	r2, [r0, #3]
 386 0008 1B02     		lsls	r3, r3, #8
 387 000a 0432     		adds	r2, r2, #4
 388 000c 9B18     		adds	r3, r3, r2
 389 000e 9BB2     		uxth	r3, r3
 390              	.LVL50:
1089:Code\UserApp\Protocol/CmdProtocol.c **** 	ret = *(pstr + nCmdPackLen - 3);
 391              		.loc 1 1089 0
 392 0010 0D4A     		ldr	r2, .L16
1090:Code\UserApp\Protocol/CmdProtocol.c **** 	if (ret == RT_SUCC)
 393              		.loc 1 1090 0
 394 0012 C318     		adds	r3, r0, r3
 395              	.LVL51:
1089:Code\UserApp\Protocol/CmdProtocol.c **** 	ret = *(pstr + nCmdPackLen - 3);
 396              		.loc 1 1089 0
 397 0014 1170     		strb	r1, [r2]
 398              	.LVL52:
1090:Code\UserApp\Protocol/CmdProtocol.c **** 	if (ret == RT_SUCC)
 399              		.loc 1 1090 0
 400 0016 033B     		subs	r3, r3, #3
1091:Code\UserApp\Protocol/CmdProtocol.c **** 	{
 401              		.loc 1 1091 0
 402 0018 1B78     		ldrb	r3, [r3]
1085:Code\UserApp\Protocol/CmdProtocol.c **** 	uint16 nCmdPackLen = (RecBuf[2] << 8) + RecBuf[3] + 4;
 403              		.loc 1 1085 0
ARM GAS  C:\Users\Administrator\AppData\Local\Temp\ccexfbaX.s 			page 29


 404 001a 0191     		str	r1, [sp, #4]
1091:Code\UserApp\Protocol/CmdProtocol.c **** 	{
 405              		.loc 1 1091 0
 406 001c 012B     		cmp	r3, #1
 407 001e 10D1     		bne	.L15
 408              	.LVL53:
1094:Code\UserApp\Protocol/CmdProtocol.c **** 		SetSysRTCTime(arr_adjtime);
 409              		.loc 1 1094 0
 410 0020 0100     		movs	r1, r0
 411 0022 0422     		movs	r2, #4
 412 0024 1131     		adds	r1, r1, #17
 413              	.LVL54:
 414 0026 01A8     		add	r0, sp, #4
 415              	.LVL55:
 416 0028 FFF7FEFF 		bl	memcpy
 417              	.LVL56:
1095:Code\UserApp\Protocol/CmdProtocol.c **** 		cur_time = (uint32)RTC_GetUnixTime();						// æ›´æ–°æ—¶é—´							//
 418              		.loc 1 1095 0
 419 002c 01A8     		add	r0, sp, #4
 420 002e FFF7FEFF 		bl	SetSysRTCTime
 421              	.LVL57:
1096:Code\UserApp\Protocol/CmdProtocol.c **** 		next_heartbeat_time = cur_time + 300;
 422              		.loc 1 1096 0
 423 0032 FFF7FEFF 		bl	RTC_GetUnixTime
 424              	.LVL58:
 425 0036 054B     		ldr	r3, .L16+4
 426 0038 1860     		str	r0, [r3]
1097:Code\UserApp\Protocol/CmdProtocol.c **** 	}
 427              		.loc 1 1097 0
 428 003a 2D30     		adds	r0, r0, #45
 429 003c 044B     		ldr	r3, .L16+8
 430 003e FF30     		adds	r0, r0, #255
 431 0040 1860     		str	r0, [r3]
 432              	.LVL59:
 433              	.L15:
1099:Code\UserApp\Protocol/CmdProtocol.c **** 	
 434              		.loc 1 1099 0
 435 0042 FFF7FEFF 		bl	Updatealarm_check
 436              	.LVL60:
1105:Code\UserApp\Protocol/CmdProtocol.c **** 
 437              		.loc 1 1105 0
 438              		@ sp needed
 439 0046 07BD     		pop	{r0, r1, r2, pc}
 440              	.L17:
 441              		.align	2
 442              	.L16:
 443 0048 00000000 		.word	heartbeat_SendCount
 444 004c 00000000 		.word	cur_time
 445 0050 00000000 		.word	next_heartbeat_time
 446              		.cfi_endproc
 447              	.LFE80:
 448              		.size	Protocol_CmdPluse, .-Protocol_CmdPluse
 449              		.section	.text.Protocol_CmdManufac,"ax",%progbits
 450              		.align	1
 451              		.code	16
 452              		.thumb_func
 453              		.type	Protocol_CmdManufac, %function
ARM GAS  C:\Users\Administrator\AppData\Local\Temp\ccexfbaX.s 			page 30


 454              	Protocol_CmdManufac:
 455              	.LFB89:
1171:Code\UserApp\Protocol/CmdProtocol.c **** 
1172:Code\UserApp\Protocol/CmdProtocol.c **** //*************************************************************************************************
1173:Code\UserApp\Protocol/CmdProtocol.c **** // Function name	: Protocol_CmdSendWarnInfo
1174:Code\UserApp\Protocol/CmdProtocol.c **** // Description		: æŠ¥è­¦ä¿¡æ¯ä¸ŠæŠ¥åˆ°æœåŠ¡å™¨æŒ‡ä»¤ï¼ˆæ™ºèƒ½é—¨ç¦â†’æœåŠ¡å™¨ï¼‰
1175:Code\UserApp\Protocol/CmdProtocol.c **** // Parameter		: uint8* RecBuf	å‘½ä»¤åŒ…æŒ‡é’ˆ
1176:Code\UserApp\Protocol/CmdProtocol.c **** // Return			: none
1177:Code\UserApp\Protocol/CmdProtocol.c **** //-------------------------------------------------------------------------------------------------
1178:Code\UserApp\Protocol/CmdProtocol.c **** // Info				: 0x0Bå‘½ä»¤ï¼ŒæœåŠ¡å™¨åº”ç­”
1179:Code\UserApp\Protocol/CmdProtocol.c **** //*************************************************************************************************
1180:Code\UserApp\Protocol/CmdProtocol.c **** static void Protocol_CmdSendWarnInfo(uint8* RecBuf)
1181:Code\UserApp\Protocol/CmdProtocol.c **** {
1182:Code\UserApp\Protocol/CmdProtocol.c **** 	uint8 *pstr = RecBuf;
1183:Code\UserApp\Protocol/CmdProtocol.c **** 	uint8 nCmdPackLen= (RecBuf[2] << 8) + RecBuf[3] + 4;
1184:Code\UserApp\Protocol/CmdProtocol.c **** 
1185:Code\UserApp\Protocol/CmdProtocol.c **** 	//===ã€å¼€å§‹ã€‘=== è®¾å¤‡å±‚çš„å¤„ç† ==========================================================
1186:Code\UserApp\Protocol/CmdProtocol.c **** 	//
1187:Code\UserApp\Protocol/CmdProtocol.c **** 	//æ£€æŸ¥æŠ¥è­¦çš„åº”ç­”åŒ…æ˜¯å¦æˆåŠŸ,å¦‚å¤±è´¥éœ€é‡æ–°ä¸ŠæŠ¥ï¼Œæš‚æ—¶ä¸åš
1188:Code\UserApp\Protocol/CmdProtocol.c **** 	//
1189:Code\UserApp\Protocol/CmdProtocol.c **** 	//===ã€å¼€å§‹ã€‘=== è®¾å¤‡å±‚çš„å¤„ç† ==========================================================
1190:Code\UserApp\Protocol/CmdProtocol.c **** 		
1191:Code\UserApp\Protocol/CmdProtocol.c **** 	DBG_PRINTF("leaving %s\n", __FUNCTION__);
1192:Code\UserApp\Protocol/CmdProtocol.c **** }  
1193:Code\UserApp\Protocol/CmdProtocol.c **** 
1194:Code\UserApp\Protocol/CmdProtocol.c **** //*************************************************************************************************
1195:Code\UserApp\Protocol/CmdProtocol.c **** // Function name	: Protocol_CmdReadInfo
1196:Code\UserApp\Protocol/CmdProtocol.c **** // Description		: è¯»å–ç»™å®šæ—¶é—´èŒƒå›´å†…å¼€é—¨æ—¥å¿—æŒ‡ä»¤
1197:Code\UserApp\Protocol/CmdProtocol.c **** // Parameter		: uint8* RecBuf	å‘½ä»¤åŒ…æŒ‡é’ˆ
1198:Code\UserApp\Protocol/CmdProtocol.c **** // Return			: none
1199:Code\UserApp\Protocol/CmdProtocol.c **** //-------------------------------------------------------------------------------------------------
1200:Code\UserApp\Protocol/CmdProtocol.c **** // Info				: 0x0Cå‘½ä»¤ï¼ŒæœåŠ¡å™¨å‘é€
1201:Code\UserApp\Protocol/CmdProtocol.c **** //uint16 UploadQty;
1202:Code\UserApp\Protocol/CmdProtocol.c **** //uint16 UploadStartnum;
1203:Code\UserApp\Protocol/CmdProtocol.c **** //*************************************************************************************************
1204:Code\UserApp\Protocol/CmdProtocol.c **** static void Protocol_CmdReadInfo(uint8* RecBuf)
1205:Code\UserApp\Protocol/CmdProtocol.c **** {
1206:Code\UserApp\Protocol/CmdProtocol.c **** 	uint8 i;
1207:Code\UserApp\Protocol/CmdProtocol.c **** 	uint8 RetCode = RT_SUCC;
1208:Code\UserApp\Protocol/CmdProtocol.c **** 	uint8 DataBuf[256];
1209:Code\UserApp\Protocol/CmdProtocol.c **** 	uint8 *pT = DataBuf;
1210:Code\UserApp\Protocol/CmdProtocol.c **** 	uint8 comm_chanle = RecBuf[4];								// å–å‡ºä¿¡é“å€¼							//
1211:Code\UserApp\Protocol/CmdProtocol.c **** 	uint8 data_openinfo[256];
1212:Code\UserApp\Protocol/CmdProtocol.c **** 	uint8  start_t[4];
1213:Code\UserApp\Protocol/CmdProtocol.c **** 	uint8  end_t[4];
1214:Code\UserApp\Protocol/CmdProtocol.c **** 	uint32 start_time;
1215:Code\UserApp\Protocol/CmdProtocol.c **** 	uint32 end_time;
1216:Code\UserApp\Protocol/CmdProtocol.c **** 	uint16 app_group = 0;
1217:Code\UserApp\Protocol/CmdProtocol.c **** 	uint16 nCmdPackLen = (RecBuf[2] << 8) + RecBuf[3] + 4;
1218:Code\UserApp\Protocol/CmdProtocol.c **** 	uint16 tUploadQty;											// å­˜æ”¾æœ¬æ¬¡å‘é€çš„é•¿åº¦					//
1219:Code\UserApp\Protocol/CmdProtocol.c **** 	uint8 cmd;
1220:Code\UserApp\Protocol/CmdProtocol.c **** 	
1221:Code\UserApp\Protocol/CmdProtocol.c ****     memset(pT, 0, sizeof(DataBuf));
1222:Code\UserApp\Protocol/CmdProtocol.c **** 	cmd = RecBuf[6];
1223:Code\UserApp\Protocol/CmdProtocol.c **** 	memcpy(pT, RecBuf + 7, 6);								// å–å‡ºMACåœ°å€å’Œæ—¶é—´æˆ³					//
1224:Code\UserApp\Protocol/CmdProtocol.c ****     pT += 6;
1225:Code\UserApp\Protocol/CmdProtocol.c **** 	
ARM GAS  C:\Users\Administrator\AppData\Local\Temp\ccexfbaX.s 			page 31


1226:Code\UserApp\Protocol/CmdProtocol.c **** 	//===ã€å¼€å§‹ã€‘=== è®¾å¤‡å±‚çš„å¤„ç† ==========================================================
1227:Code\UserApp\Protocol/CmdProtocol.c **** 	app_group = (RecBuf[21] << 8) + RecBuf[22];					// ç»„å·									//
1228:Code\UserApp\Protocol/CmdProtocol.c **** 	
1229:Code\UserApp\Protocol/CmdProtocol.c **** 	if (app_group == 1)
1230:Code\UserApp\Protocol/CmdProtocol.c **** 	{
1231:Code\UserApp\Protocol/CmdProtocol.c **** 		memcpy(start_t, RecBuf + 13, 4);           				// å–å§‹æœ«æ—¶é—´							//
1232:Code\UserApp\Protocol/CmdProtocol.c **** 		memcpy(end_t, RecBuf + 13 + 4, 4);
1233:Code\UserApp\Protocol/CmdProtocol.c **** 		start_time = BYTE2LONG(start_t[0], start_t[1], start_t[2], start_t[3]);
1234:Code\UserApp\Protocol/CmdProtocol.c **** 		end_time = BYTE2LONG(end_t[0], end_t[1], end_t[2], end_t[3]);
1235:Code\UserApp\Protocol/CmdProtocol.c **** 		
1236:Code\UserApp\Protocol/CmdProtocol.c **** 		if(start_time > end_time)
1237:Code\UserApp\Protocol/CmdProtocol.c **** 		{
1238:Code\UserApp\Protocol/CmdProtocol.c **** 			RetCode = RT_StartOrEnd_ERR;
1239:Code\UserApp\Protocol/CmdProtocol.c **** 		}
1240:Code\UserApp\Protocol/CmdProtocol.c **** 		
1241:Code\UserApp\Protocol/CmdProtocol.c **** 		UploadQty = Find_Open_ValidQty(start_time, end_time);
1242:Code\UserApp\Protocol/CmdProtocol.c **** 		if (UploadQty > 0)
1243:Code\UserApp\Protocol/CmdProtocol.c **** 		{
1244:Code\UserApp\Protocol/CmdProtocol.c **** 			UploadStartnum = Find_Open_StartNum(start_time);
1245:Code\UserApp\Protocol/CmdProtocol.c **** 		}
1246:Code\UserApp\Protocol/CmdProtocol.c **** 	}
1247:Code\UserApp\Protocol/CmdProtocol.c **** 	
1248:Code\UserApp\Protocol/CmdProtocol.c **** 	if (UploadQty <= OPENDATA_UPPAGE_LEN)
1249:Code\UserApp\Protocol/CmdProtocol.c **** 	{
1250:Code\UserApp\Protocol/CmdProtocol.c **** 		*pT++ = 0;												// ç»„å·									//
1251:Code\UserApp\Protocol/CmdProtocol.c **** 		*pT++ = 0;
1252:Code\UserApp\Protocol/CmdProtocol.c **** 		
1253:Code\UserApp\Protocol/CmdProtocol.c **** 		tUploadQty = UploadQty;
1254:Code\UserApp\Protocol/CmdProtocol.c **** 		memcpy(pT, &tUploadQty, 1);								// æœ¬æ¬¡å‘é€æ•°é‡							//
1255:Code\UserApp\Protocol/CmdProtocol.c **** 		pT += 1;
1256:Code\UserApp\Protocol/CmdProtocol.c **** 		
1257:Code\UserApp\Protocol/CmdProtocol.c **** 		for (i = 0; i < tUploadQty; i++)
1258:Code\UserApp\Protocol/CmdProtocol.c **** 		{
1259:Code\UserApp\Protocol/CmdProtocol.c **** 		    Get_Open_Info(UploadStartnum + i, 1, data_openinfo);
1260:Code\UserApp\Protocol/CmdProtocol.c **** 		    memcpy(pT, data_openinfo, 16);
1261:Code\UserApp\Protocol/CmdProtocol.c **** 		    pT += 16;
1262:Code\UserApp\Protocol/CmdProtocol.c **** 			*pT++ = Read_Open_Type(UploadStartnum + i);			// å¼€é—¨æ–¹å¼								//
1263:Code\UserApp\Protocol/CmdProtocol.c **** 		}
1264:Code\UserApp\Protocol/CmdProtocol.c **** 		UploadQty = 0;
1265:Code\UserApp\Protocol/CmdProtocol.c **** 		UploadStartnum = 0;
1266:Code\UserApp\Protocol/CmdProtocol.c **** 	}
1267:Code\UserApp\Protocol/CmdProtocol.c **** 	else
1268:Code\UserApp\Protocol/CmdProtocol.c **** 	{
1269:Code\UserApp\Protocol/CmdProtocol.c **** 		*pT++ = RecBuf[21];										// ç»„å·									//
1270:Code\UserApp\Protocol/CmdProtocol.c **** 		*pT++ = RecBuf[22];
1271:Code\UserApp\Protocol/CmdProtocol.c **** 		
1272:Code\UserApp\Protocol/CmdProtocol.c **** 		tUploadQty = OPENDATA_UPPAGE_LEN;
1273:Code\UserApp\Protocol/CmdProtocol.c **** 		*pT++ = OPENDATA_UPPAGE_LEN;							// æœ¬æ¬¡å‘é€æ•°é‡							//
1274:Code\UserApp\Protocol/CmdProtocol.c **** 		
1275:Code\UserApp\Protocol/CmdProtocol.c **** 		for (i = 0; i < OPENDATA_UPPAGE_LEN; i++)
1276:Code\UserApp\Protocol/CmdProtocol.c **** 		{
1277:Code\UserApp\Protocol/CmdProtocol.c **** 		    Get_Open_Info(UploadStartnum + i, 1, data_openinfo);
1278:Code\UserApp\Protocol/CmdProtocol.c **** 		    memcpy(pT, data_openinfo, 16);
1279:Code\UserApp\Protocol/CmdProtocol.c **** 		    pT += 16;
1280:Code\UserApp\Protocol/CmdProtocol.c **** 			*pT++ = Read_Open_Type(UploadStartnum + i);			// å¼€é—¨æ–¹å¼								//
1281:Code\UserApp\Protocol/CmdProtocol.c **** 		}
1282:Code\UserApp\Protocol/CmdProtocol.c **** 		UploadQty -= tUploadQty;
ARM GAS  C:\Users\Administrator\AppData\Local\Temp\ccexfbaX.s 			page 32


1283:Code\UserApp\Protocol/CmdProtocol.c **** 		UploadStartnum += tUploadQty;
1284:Code\UserApp\Protocol/CmdProtocol.c **** 	}
1285:Code\UserApp\Protocol/CmdProtocol.c **** 	
1286:Code\UserApp\Protocol/CmdProtocol.c **** 	memcpy(pT, RecBuf + nCmdPackLen - 6, 4);					// æ—¶é—´æˆ³								//
1287:Code\UserApp\Protocol/CmdProtocol.c **** 	pT += 4;        
1288:Code\UserApp\Protocol/CmdProtocol.c **** 
1289:Code\UserApp\Protocol/CmdProtocol.c **** 	*pT = RetCode;												// ç»“æœç 								//
1290:Code\UserApp\Protocol/CmdProtocol.c **** 	
1291:Code\UserApp\Protocol/CmdProtocol.c **** 	Protocol_SendAckPacket(comm_chanle, PACK_RESP, cmd, DataBuf, 14 + (tUploadQty * (1 + sizeof(open_d
1292:Code\UserApp\Protocol/CmdProtocol.c **** 	
1293:Code\UserApp\Protocol/CmdProtocol.c **** 	#if DBG_SOFT_ENNABLE
1294:Code\UserApp\Protocol/CmdProtocol.c **** 	test_Flash();
1295:Code\UserApp\Protocol/CmdProtocol.c **** 	#endif
1296:Code\UserApp\Protocol/CmdProtocol.c **** 	
1297:Code\UserApp\Protocol/CmdProtocol.c **** 	DBG_PRINTF("leaving %s\n", __FUNCTION__);
1298:Code\UserApp\Protocol/CmdProtocol.c **** }
1299:Code\UserApp\Protocol/CmdProtocol.c **** 
1300:Code\UserApp\Protocol/CmdProtocol.c **** //*************************************************************************************************
1301:Code\UserApp\Protocol/CmdProtocol.c **** // Function name	: Protocol_CmdRemoteUpdate
1302:Code\UserApp\Protocol/CmdProtocol.c **** // Description		: æœåŠ¡å™¨å‘æ™ºèƒ½é—¨ç¦å‘é€è¿œç¨‹å‡çº§æŒ‡ä»¤ï¼ˆæœåŠ¡å™¨â†’æ™ºèƒ½é—¨ç¦ï¼‰
1303:Code\UserApp\Protocol/CmdProtocol.c **** // Parameter		: uint8* RecBuf	å‘½ä»¤åŒ…æŒ‡é’ˆ
1304:Code\UserApp\Protocol/CmdProtocol.c **** // Return			: none
1305:Code\UserApp\Protocol/CmdProtocol.c **** //-------------------------------------------------------------------------------------------------
1306:Code\UserApp\Protocol/CmdProtocol.c **** // Info				: 0x0Då‘½ä»¤ï¼ŒæœåŠ¡å™¨å‘é€
1307:Code\UserApp\Protocol/CmdProtocol.c **** //*************************************************************************************************
1308:Code\UserApp\Protocol/CmdProtocol.c **** static void Protocol_CmdRemoteUpdate(uint8* RecBuf)
1309:Code\UserApp\Protocol/CmdProtocol.c **** {
1310:Code\UserApp\Protocol/CmdProtocol.c **** 	uint8 RetCode = RT_SUCC;
1311:Code\UserApp\Protocol/CmdProtocol.c **** 	uint8 DataBuf[64];
1312:Code\UserApp\Protocol/CmdProtocol.c **** 	uint8 *pT = DataBuf;
1313:Code\UserApp\Protocol/CmdProtocol.c **** 	uint8 comm_chanle = RecBuf[4];								// å–å‡ºä¿¡é“å€¼							//
1314:Code\UserApp\Protocol/CmdProtocol.c **** 	uint8 port_str[4];
1315:Code\UserApp\Protocol/CmdProtocol.c **** 	uint16 port_hex;
1316:Code\UserApp\Protocol/CmdProtocol.c **** 	
1317:Code\UserApp\Protocol/CmdProtocol.c **** 	memcpy(pT, RecBuf + 7, 6);									// å–å‡ºMACåœ°å€ï¼Œç†è®ºåº”åŠ ä¸ŠMACæ ¡éªŒ		//
1318:Code\UserApp\Protocol/CmdProtocol.c **** 	pT += 6;
1319:Code\UserApp\Protocol/CmdProtocol.c **** 	
1320:Code\UserApp\Protocol/CmdProtocol.c **** 	memcpy(domain, RecBuf + 13, 200);							// 200å­—èŠ‚IPæˆ–åŸŸå						//
1321:Code\UserApp\Protocol/CmdProtocol.c **** 	memcpy((char *)update_ip, (char *)domain, strlen((char *)domain));
1322:Code\UserApp\Protocol/CmdProtocol.c **** 	
1323:Code\UserApp\Protocol/CmdProtocol.c **** 	port_hex = (RecBuf[213] << 8) + RecBuf[214];				// ç«¯å£å·								//
1324:Code\UserApp\Protocol/CmdProtocol.c **** 	port_str[0]= port_hex/1000 + '0';
1325:Code\UserApp\Protocol/CmdProtocol.c **** 	port_str[1]= port_hex%1000/100 + '0';
1326:Code\UserApp\Protocol/CmdProtocol.c **** 	port_str[2]= port_hex%100/10 + '0';
1327:Code\UserApp\Protocol/CmdProtocol.c **** 	port_str[3]= port_hex%10 + '0';
1328:Code\UserApp\Protocol/CmdProtocol.c **** 	memcpy(update_port, port_str, 4);
1329:Code\UserApp\Protocol/CmdProtocol.c **** 	
1330:Code\UserApp\Protocol/CmdProtocol.c **** 	*pT++ = RecBuf[215];										// å‡çº§ç‰ˆæœ¬								//
1331:Code\UserApp\Protocol/CmdProtocol.c **** 	*pT++ = RecBuf[216];
1332:Code\UserApp\Protocol/CmdProtocol.c **** 	update_version = (RecBuf[215] << 8) + RecBuf[216];
1333:Code\UserApp\Protocol/CmdProtocol.c **** 	
1334:Code\UserApp\Protocol/CmdProtocol.c **** 	memcpy(pT, RecBuf + 219, 4);								// æ—¶é—´æˆ³								//
1335:Code\UserApp\Protocol/CmdProtocol.c **** 	pT += 4;
1336:Code\UserApp\Protocol/CmdProtocol.c **** 	
1337:Code\UserApp\Protocol/CmdProtocol.c **** 	if (update_version <= system_version)
1338:Code\UserApp\Protocol/CmdProtocol.c **** 	{
1339:Code\UserApp\Protocol/CmdProtocol.c **** 		RetCode = RT_NEWEST;
ARM GAS  C:\Users\Administrator\AppData\Local\Temp\ccexfbaX.s 			page 33


1340:Code\UserApp\Protocol/CmdProtocol.c **** 	}
1341:Code\UserApp\Protocol/CmdProtocol.c **** 	else
1342:Code\UserApp\Protocol/CmdProtocol.c **** 	{
1343:Code\UserApp\Protocol/CmdProtocol.c **** 		if (0 == strlen((char *)update_ip))
1344:Code\UserApp\Protocol/CmdProtocol.c **** 		{
1345:Code\UserApp\Protocol/CmdProtocol.c **** 			RetCode = RT_IPorPort_ERR;
1346:Code\UserApp\Protocol/CmdProtocol.c **** 		}
1347:Code\UserApp\Protocol/CmdProtocol.c **** 		else
1348:Code\UserApp\Protocol/CmdProtocol.c **** 		{
1349:Code\UserApp\Protocol/CmdProtocol.c **** 			//å­˜ä¸‹å¾…å‡çº§ç‰ˆæœ¬å·å’Œå‡çº§æ ‡å¿—ä½ é‡å¯çš„æ—¶å€™åˆ¤æ–­falg==1å’Œç³»ç»Ÿç‰ˆæœ¬å·å’Œå®
1350:Code\UserApp\Protocol/CmdProtocol.c **** 			update_flag = 1;
1351:Code\UserApp\Protocol/CmdProtocol.c **** 			Write_UpdateInfo(update_flag,update_version);
1352:Code\UserApp\Protocol/CmdProtocol.c **** 			RetCode = RT_SUCC;
1353:Code\UserApp\Protocol/CmdProtocol.c **** 		}
1354:Code\UserApp\Protocol/CmdProtocol.c **** 	}
1355:Code\UserApp\Protocol/CmdProtocol.c **** 	
1356:Code\UserApp\Protocol/CmdProtocol.c **** 	*pT++ = RetCode;
1357:Code\UserApp\Protocol/CmdProtocol.c **** 	Protocol_SendAckPacket(comm_chanle, PACK_RESP, RecBuf[6], DataBuf, 13);
1358:Code\UserApp\Protocol/CmdProtocol.c **** 	
1359:Code\UserApp\Protocol/CmdProtocol.c **** 	//===ã€å¼€å§‹ã€‘=== è®¾å¤‡å±‚çš„å¤„ç† ==========================================================
1360:Code\UserApp\Protocol/CmdProtocol.c **** 	
1361:Code\UserApp\Protocol/CmdProtocol.c **** 	//===ã€ç»“æŸã€‘=== è®¾å¤‡å±‚çš„å¤„ç† ==========================================================
1362:Code\UserApp\Protocol/CmdProtocol.c **** 
1363:Code\UserApp\Protocol/CmdProtocol.c **** 	
1364:Code\UserApp\Protocol/CmdProtocol.c **** 	DBG_PRINTF("leaving %s\n", __FUNCTION__);
1365:Code\UserApp\Protocol/CmdProtocol.c **** }  
1366:Code\UserApp\Protocol/CmdProtocol.c **** 
1367:Code\UserApp\Protocol/CmdProtocol.c **** //*************************************************************************************************
1368:Code\UserApp\Protocol/CmdProtocol.c **** // Function name	: Protocol_CmdRemoteRestart
1369:Code\UserApp\Protocol/CmdProtocol.c **** // Description		: æœåŠ¡å™¨å‘æ™ºèƒ½é—¨ç¦å‘é€è¿œç¨‹é‡å¯æŒ‡ä»¤ï¼ˆæœåŠ¡å™¨â†’æ™ºèƒ½é—¨ç¦ï¼‰
1370:Code\UserApp\Protocol/CmdProtocol.c **** // Parameter		: uint8* RecBuf	å‘½ä»¤åŒ…æŒ‡é’ˆ
1371:Code\UserApp\Protocol/CmdProtocol.c **** // Return			: none
1372:Code\UserApp\Protocol/CmdProtocol.c **** //-------------------------------------------------------------------------------------------------
1373:Code\UserApp\Protocol/CmdProtocol.c **** // Info				: 0x0Eå‘½ä»¤ï¼ŒæœåŠ¡å™¨å‘é€
1374:Code\UserApp\Protocol/CmdProtocol.c **** //*************************************************************************************************
1375:Code\UserApp\Protocol/CmdProtocol.c **** static void Protocol_CmdRemoteRestart(uint8* RecBuf)
1376:Code\UserApp\Protocol/CmdProtocol.c **** {
1377:Code\UserApp\Protocol/CmdProtocol.c ****     uint8 RetCode = RT_SUCC;
1378:Code\UserApp\Protocol/CmdProtocol.c ****     uint8 DataBuf[64];
1379:Code\UserApp\Protocol/CmdProtocol.c **** 	uint8 *pT = DataBuf;
1380:Code\UserApp\Protocol/CmdProtocol.c ****     uint8 comm_chanle = RecBuf[4];								// å–å‡ºä¿¡é“å€¼							//
1381:Code\UserApp\Protocol/CmdProtocol.c ****     uint16 nCmdPackLen;
1382:Code\UserApp\Protocol/CmdProtocol.c ****     
1383:Code\UserApp\Protocol/CmdProtocol.c ****     nCmdPackLen= (RecBuf[2] << 8) + RecBuf[3] + 4;
1384:Code\UserApp\Protocol/CmdProtocol.c **** 	 
1385:Code\UserApp\Protocol/CmdProtocol.c ****     memset(pT, 0, sizeof(DataBuf));
1386:Code\UserApp\Protocol/CmdProtocol.c ****     memcpy(pT, RecBuf + 7, 6);									// å–å‡ºMACåœ°å€ï¼Œç†è®ºåº”åŠ ä¸ŠMACæ ¡éªŒ		//
1387:Code\UserApp\Protocol/CmdProtocol.c ****     pT += 6; 
1388:Code\UserApp\Protocol/CmdProtocol.c ****     
1389:Code\UserApp\Protocol/CmdProtocol.c **** 	memcpy(pT, RecBuf + nCmdPackLen - 6, 4);					// æ—¶é—´æˆ³								//
1390:Code\UserApp\Protocol/CmdProtocol.c ****     pT += 4; 
1391:Code\UserApp\Protocol/CmdProtocol.c ****     
1392:Code\UserApp\Protocol/CmdProtocol.c **** 	*pT = RetCode;
1393:Code\UserApp\Protocol/CmdProtocol.c ****  
1394:Code\UserApp\Protocol/CmdProtocol.c **** 	//===ã€å¼€å§‹ã€‘=== è®¾å¤‡å±‚çš„å¤„ç† ==========================================================
1395:Code\UserApp\Protocol/CmdProtocol.c **** 	flag_reboot = 1;
1396:Code\UserApp\Protocol/CmdProtocol.c **** 	//===ã€ç»“æŸã€‘=== è®¾å¤‡å±‚çš„å¤„ç† ==========================================================
ARM GAS  C:\Users\Administrator\AppData\Local\Temp\ccexfbaX.s 			page 34


1397:Code\UserApp\Protocol/CmdProtocol.c **** 	
1398:Code\UserApp\Protocol/CmdProtocol.c **** 	Protocol_SendAckPacket(comm_chanle, PACK_RESP, RecBuf[6], DataBuf, 11);
1399:Code\UserApp\Protocol/CmdProtocol.c **** 	
1400:Code\UserApp\Protocol/CmdProtocol.c **** 	DBG_PRINTF("leaving %s\n", __FUNCTION__);
1401:Code\UserApp\Protocol/CmdProtocol.c **** } 
1402:Code\UserApp\Protocol/CmdProtocol.c **** 
1403:Code\UserApp\Protocol/CmdProtocol.c **** //*************************************************************************************************
1404:Code\UserApp\Protocol/CmdProtocol.c **** // Function name	: Protocol_CmdRemoteDownload
1405:Code\UserApp\Protocol/CmdProtocol.c **** // Description		: å¤–éƒ¨äº‘æœåŠ¡å™¨ä¸‹è½½å‡çº§åŒ…ï¼ˆæ™ºèƒ½é—¨ç¦ - æœåŠ¡å™¨ä»¶ï¼‰
1406:Code\UserApp\Protocol/CmdProtocol.c **** // Parameter		: uint8* RecBuf	å‘½ä»¤åŒ…æŒ‡é’ˆ
1407:Code\UserApp\Protocol/CmdProtocol.c **** // Return			: none
1408:Code\UserApp\Protocol/CmdProtocol.c **** //-------------------------------------------------------------------------------------------------
1409:Code\UserApp\Protocol/CmdProtocol.c **** // Info				: 0x0Få‘½ä»¤ï¼ŒæœåŠ¡å™¨åº”ç­”
1410:Code\UserApp\Protocol/CmdProtocol.c **** //-------------------------------------------------------------------------------------------------
1411:Code\UserApp\Protocol/CmdProtocol.c **** //					: 
1412:Code\UserApp\Protocol/CmdProtocol.c **** //*************************************************************************************************
1413:Code\UserApp\Protocol/CmdProtocol.c **** static void Protocol_CmdRemoteDownload(uint8* RecBuf)
1414:Code\UserApp\Protocol/CmdProtocol.c **** {
1415:Code\UserApp\Protocol/CmdProtocol.c **** 	uint8 ReadDataBuf[DATABUF_SIZE];
1416:Code\UserApp\Protocol/CmdProtocol.c **** 	uint8 data_size[4];
1417:Code\UserApp\Protocol/CmdProtocol.c **** 	uint16 recv_page;
1418:Code\UserApp\Protocol/CmdProtocol.c **** 	uint16 nCmdPackLen= (RecBuf[2] << 8) + RecBuf[3];
1419:Code\UserApp\Protocol/CmdProtocol.c **** 	uint16 curr_packet_len = nCmdPackLen - 18;					// å½“å‰å‡çº§æ•°æ®åŒ…å†…å®¹é•¿åº¦				//
1420:Code\UserApp\Protocol/CmdProtocol.c **** 	
1421:Code\UserApp\Protocol/CmdProtocol.c **** 	recv_page = (RecBuf[13] << 8) + RecBuf[14];					// è·å–ç»„å·å€¼							//
1422:Code\UserApp\Protocol/CmdProtocol.c **** 	
1423:Code\UserApp\Protocol/CmdProtocol.c **** 	DBG_SOFT_PutString("Protocol_CmdRemoteDownload-->recv_page:");
1424:Code\UserApp\Protocol/CmdProtocol.c **** 	DBG_SOFT_PutHexInt(recv_page);
1425:Code\UserApp\Protocol/CmdProtocol.c **** 	DBG_SOFT_PutString("\n");
1426:Code\UserApp\Protocol/CmdProtocol.c **** 	
1427:Code\UserApp\Protocol/CmdProtocol.c **** 	//===ã€å¼€å§‹ã€‘=== è®¾å¤‡å±‚çš„å¤„ç† ==========================================================
1428:Code\UserApp\Protocol/CmdProtocol.c **** 	if ((recv_page == update_page) || (recv_page == 0))
1429:Code\UserApp\Protocol/CmdProtocol.c **** 	{
1430:Code\UserApp\Protocol/CmdProtocol.c **** 		W25QXX_Write(RecBuf + 15, W25X_IMAGESTART_ADDR + update_offset, curr_packet_len);
1431:Code\UserApp\Protocol/CmdProtocol.c **** 		W25QXX_Read(ReadDataBuf, W25X_IMAGESTART_ADDR + update_offset, curr_packet_len);
1432:Code\UserApp\Protocol/CmdProtocol.c **** 		if (memcmp(RecBuf + 15, ReadDataBuf, curr_packet_len) == 0)
1433:Code\UserApp\Protocol/CmdProtocol.c **** 		{
1434:Code\UserApp\Protocol/CmdProtocol.c **** 			update_offset +=  curr_packet_len;
1435:Code\UserApp\Protocol/CmdProtocol.c **** 			if (recv_page != 0)
1436:Code\UserApp\Protocol/CmdProtocol.c **** 			{	
1437:Code\UserApp\Protocol/CmdProtocol.c **** 				update_page += 1;
1438:Code\UserApp\Protocol/CmdProtocol.c **** 				Image_size += curr_packet_len;
1439:Code\UserApp\Protocol/CmdProtocol.c **** 				send_update_req(update_page);
1440:Code\UserApp\Protocol/CmdProtocol.c **** 				update_timeout_time = 10000;
1441:Code\UserApp\Protocol/CmdProtocol.c **** 				update_timeout_count = 0;
1442:Code\UserApp\Protocol/CmdProtocol.c **** 			}
1443:Code\UserApp\Protocol/CmdProtocol.c **** 			else
1444:Code\UserApp\Protocol/CmdProtocol.c **** 			{
1445:Code\UserApp\Protocol/CmdProtocol.c **** 				Image_size += curr_packet_len;
1446:Code\UserApp\Protocol/CmdProtocol.c **** 				data_size[2] = (uint8)(update_offset >> 24);
1447:Code\UserApp\Protocol/CmdProtocol.c **** 				data_size[3] = (uint8)(update_offset >> 16);	// é«˜ä½åœ¨å[2-3]
1448:Code\UserApp\Protocol/CmdProtocol.c **** 				data_size[0] = (uint8)(update_offset >> 8);
1449:Code\UserApp\Protocol/CmdProtocol.c **** 				data_size[1] = (uint8)update_offset;
1450:Code\UserApp\Protocol/CmdProtocol.c **** 				
1451:Code\UserApp\Protocol/CmdProtocol.c **** 				W25QXX_Write(data_size, W25X_IMAGE_METDATA_ADDR, 4);
1452:Code\UserApp\Protocol/CmdProtocol.c **** 				gprs_state = UPDATE_FINISH;
1453:Code\UserApp\Protocol/CmdProtocol.c **** 			}
ARM GAS  C:\Users\Administrator\AppData\Local\Temp\ccexfbaX.s 			page 35


1454:Code\UserApp\Protocol/CmdProtocol.c **** 		}
1455:Code\UserApp\Protocol/CmdProtocol.c **** 		else
1456:Code\UserApp\Protocol/CmdProtocol.c **** 		{
1457:Code\UserApp\Protocol/CmdProtocol.c **** 			update_timeout_count++;
1458:Code\UserApp\Protocol/CmdProtocol.c **** 			if (update_timeout_count >= 3)
1459:Code\UserApp\Protocol/CmdProtocol.c **** 			{
1460:Code\UserApp\Protocol/CmdProtocol.c **** 				update_timeout_count = 0;
1461:Code\UserApp\Protocol/CmdProtocol.c **** 				gprs_state = NEED_INIT;
1462:Code\UserApp\Protocol/CmdProtocol.c **** 			}
1463:Code\UserApp\Protocol/CmdProtocol.c **** 			else
1464:Code\UserApp\Protocol/CmdProtocol.c **** 			{
1465:Code\UserApp\Protocol/CmdProtocol.c **** 				Cmd_Protocol_ParaInit();
1466:Code\UserApp\Protocol/CmdProtocol.c **** 				send_update_req(update_page);
1467:Code\UserApp\Protocol/CmdProtocol.c **** 				update_timeout_time = 10000;
1468:Code\UserApp\Protocol/CmdProtocol.c **** 			}
1469:Code\UserApp\Protocol/CmdProtocol.c **** 		}
1470:Code\UserApp\Protocol/CmdProtocol.c **** 	}
1471:Code\UserApp\Protocol/CmdProtocol.c **** 	else
1472:Code\UserApp\Protocol/CmdProtocol.c **** 	{
1473:Code\UserApp\Protocol/CmdProtocol.c **** 		update_timeout_count++;
1474:Code\UserApp\Protocol/CmdProtocol.c **** 		if (update_timeout_count >= 3)
1475:Code\UserApp\Protocol/CmdProtocol.c **** 		{
1476:Code\UserApp\Protocol/CmdProtocol.c **** 			update_timeout_count = 0;
1477:Code\UserApp\Protocol/CmdProtocol.c **** 			gprs_state = NEED_INIT;
1478:Code\UserApp\Protocol/CmdProtocol.c **** 		}
1479:Code\UserApp\Protocol/CmdProtocol.c **** 		else
1480:Code\UserApp\Protocol/CmdProtocol.c **** 		{
1481:Code\UserApp\Protocol/CmdProtocol.c **** 			Cmd_Protocol_ParaInit();
1482:Code\UserApp\Protocol/CmdProtocol.c **** 			send_update_req(update_page);
1483:Code\UserApp\Protocol/CmdProtocol.c **** 			update_timeout_time = 10000;
1484:Code\UserApp\Protocol/CmdProtocol.c **** 		}
1485:Code\UserApp\Protocol/CmdProtocol.c **** 	}
1486:Code\UserApp\Protocol/CmdProtocol.c **** 	//===ã€ç»“æŸã€‘=== è®¾å¤‡å±‚çš„å¤„ç† ==========================================================
1487:Code\UserApp\Protocol/CmdProtocol.c **** 	
1488:Code\UserApp\Protocol/CmdProtocol.c **** 	DBG_PRINTF("leaving %s\n", __FUNCTION__);
1489:Code\UserApp\Protocol/CmdProtocol.c **** }
1490:Code\UserApp\Protocol/CmdProtocol.c **** 
1491:Code\UserApp\Protocol/CmdProtocol.c **** //*************************************************************************************************
1492:Code\UserApp\Protocol/CmdProtocol.c **** // Function name	: Protocol_CmdChangeIP
1493:Code\UserApp\Protocol/CmdProtocol.c **** // Description		: æ›´æ”¹ä¸­å¿ƒæœåŠ¡å™¨åœ°å€ï¼ˆæœåŠ¡å™¨/APP - æ™ºèƒ½é—¨ç¦ï¼‰
1494:Code\UserApp\Protocol/CmdProtocol.c **** // Parameter		: uint8* RecBuf	å‘½ä»¤åŒ…æŒ‡é’ˆ
1495:Code\UserApp\Protocol/CmdProtocol.c **** // Return			: none
1496:Code\UserApp\Protocol/CmdProtocol.c **** //-------------------------------------------------------------------------------------------------
1497:Code\UserApp\Protocol/CmdProtocol.c **** // Info				: 0x10å‘½ä»¤ï¼ŒæœåŠ¡å™¨å‘é€
1498:Code\UserApp\Protocol/CmdProtocol.c **** //*************************************************************************************************
1499:Code\UserApp\Protocol/CmdProtocol.c **** static void Protocol_CmdChangeIP(uint8* RecBuf)
1500:Code\UserApp\Protocol/CmdProtocol.c **** {
1501:Code\UserApp\Protocol/CmdProtocol.c ****     uint8 RetCode = RT_SUCC;
1502:Code\UserApp\Protocol/CmdProtocol.c ****     uint8 DataBuf[64];
1503:Code\UserApp\Protocol/CmdProtocol.c **** 	uint8 *pT = DataBuf;
1504:Code\UserApp\Protocol/CmdProtocol.c ****     uint8 comm_chanle = RecBuf[4];                              // å–å‡ºä¿¡é“å€¼							//
1505:Code\UserApp\Protocol/CmdProtocol.c ****     uint16 nCmdPackLen;
1506:Code\UserApp\Protocol/CmdProtocol.c ****     uint8 IpNum;
1507:Code\UserApp\Protocol/CmdProtocol.c **** 	
1508:Code\UserApp\Protocol/CmdProtocol.c ****     nCmdPackLen= (RecBuf[2] << 8) + RecBuf[3] + 4;
1509:Code\UserApp\Protocol/CmdProtocol.c **** 	 
1510:Code\UserApp\Protocol/CmdProtocol.c ****     memset(pT, 0, sizeof(DataBuf));
ARM GAS  C:\Users\Administrator\AppData\Local\Temp\ccexfbaX.s 			page 36


1511:Code\UserApp\Protocol/CmdProtocol.c ****     memcpy(pT, RecBuf + 7, 6);									// å–å‡ºMACåœ°å€ï¼Œç†è®ºåº”åŠ ä¸ŠMACæ ¡éªŒ		//
1512:Code\UserApp\Protocol/CmdProtocol.c ****     pT += 6; 
1513:Code\UserApp\Protocol/CmdProtocol.c ****     
1514:Code\UserApp\Protocol/CmdProtocol.c **** 	*pT++ = RecBuf[13];
1515:Code\UserApp\Protocol/CmdProtocol.c **** 	IpNum = RecBuf[13];
1516:Code\UserApp\Protocol/CmdProtocol.c **** 	
1517:Code\UserApp\Protocol/CmdProtocol.c **** 	if ((IpNum == 0) || (IpNum > 5))
1518:Code\UserApp\Protocol/CmdProtocol.c **** 	{
1519:Code\UserApp\Protocol/CmdProtocol.c **** 		RetCode = RT_IP_NUM_ERR;
1520:Code\UserApp\Protocol/CmdProtocol.c **** 	}
1521:Code\UserApp\Protocol/CmdProtocol.c **** 	
1522:Code\UserApp\Protocol/CmdProtocol.c **** 	memcpy(pT, RecBuf + nCmdPackLen - 6, 4);					// æ—¶é—´æˆ³								//
1523:Code\UserApp\Protocol/CmdProtocol.c ****     pT += 4; 
1524:Code\UserApp\Protocol/CmdProtocol.c ****     
1525:Code\UserApp\Protocol/CmdProtocol.c **** 	*pT = RetCode;
1526:Code\UserApp\Protocol/CmdProtocol.c **** 	
1527:Code\UserApp\Protocol/CmdProtocol.c **** 	Protocol_SendAckPacket(comm_chanle, PACK_RESP, RecBuf[6], DataBuf, 12);
1528:Code\UserApp\Protocol/CmdProtocol.c **** 	
1529:Code\UserApp\Protocol/CmdProtocol.c **** 	//===ã€å¼€å§‹ã€‘=== è®¾å¤‡å±‚çš„å¤„ç† ==========================================================
1530:Code\UserApp\Protocol/CmdProtocol.c **** 	if (IpNum == 0x01)											 // æµ‹è¯•æœåŸŸå1							//
1531:Code\UserApp\Protocol/CmdProtocol.c **** 	{
1532:Code\UserApp\Protocol/CmdProtocol.c **** 		Write_CenterIpType(IpNum);
1533:Code\UserApp\Protocol/CmdProtocol.c **** 		VoicePlay(Sound_ShortDI);
1534:Code\UserApp\Protocol/CmdProtocol.c **** 	}
1535:Code\UserApp\Protocol/CmdProtocol.c **** 	else if (IpNum == 0x02)
1536:Code\UserApp\Protocol/CmdProtocol.c **** 	{
1537:Code\UserApp\Protocol/CmdProtocol.c **** 		VoicePlay(Sound_ShortDI);
1538:Code\UserApp\Protocol/CmdProtocol.c **** 		BeepPlay_Delay(300);
1539:Code\UserApp\Protocol/CmdProtocol.c **** 		VoicePlay(Sound_ShortDI);
1540:Code\UserApp\Protocol/CmdProtocol.c **** 	}
1541:Code\UserApp\Protocol/CmdProtocol.c **** 	else if (IpNum == 0x03)
1542:Code\UserApp\Protocol/CmdProtocol.c **** 	{
1543:Code\UserApp\Protocol/CmdProtocol.c **** 		VoicePlay(Sound_ShortDI);
1544:Code\UserApp\Protocol/CmdProtocol.c **** 		BeepPlay_Delay(300);
1545:Code\UserApp\Protocol/CmdProtocol.c **** 		VoicePlay(Sound_ShortDI);
1546:Code\UserApp\Protocol/CmdProtocol.c **** 		BeepPlay_Delay(300);
1547:Code\UserApp\Protocol/CmdProtocol.c **** 		VoicePlay(Sound_ShortDI);
1548:Code\UserApp\Protocol/CmdProtocol.c **** 	}
1549:Code\UserApp\Protocol/CmdProtocol.c **** 	else if (IpNum == 0x04)
1550:Code\UserApp\Protocol/CmdProtocol.c **** 	{
1551:Code\UserApp\Protocol/CmdProtocol.c **** 		VoicePlay(Sound_LongDI);
1552:Code\UserApp\Protocol/CmdProtocol.c **** 	}
1553:Code\UserApp\Protocol/CmdProtocol.c **** 	else if (IpNum == 0x05)										// æ­£å¼æœåŸŸå							//
1554:Code\UserApp\Protocol/CmdProtocol.c **** 	{
1555:Code\UserApp\Protocol/CmdProtocol.c **** 		Write_CenterIpType(IpNum);
1556:Code\UserApp\Protocol/CmdProtocol.c **** 		VoicePlay(Sound_LongDI);
1557:Code\UserApp\Protocol/CmdProtocol.c **** 		BeepPlay_Delay(300);
1558:Code\UserApp\Protocol/CmdProtocol.c **** 		VoicePlay(Sound_ShortDI);
1559:Code\UserApp\Protocol/CmdProtocol.c **** 	}
1560:Code\UserApp\Protocol/CmdProtocol.c **** 	
1561:Code\UserApp\Protocol/CmdProtocol.c **** 	flag_reboot = 1;
1562:Code\UserApp\Protocol/CmdProtocol.c **** 	//===ã€ç»“æŸã€‘=== è®¾å¤‡å±‚çš„å¤„ç† ==========================================================
1563:Code\UserApp\Protocol/CmdProtocol.c **** 	
1564:Code\UserApp\Protocol/CmdProtocol.c **** 	DBG_PRINTF("leaving %s\n", __FUNCTION__);
1565:Code\UserApp\Protocol/CmdProtocol.c **** }
1566:Code\UserApp\Protocol/CmdProtocol.c **** 
1567:Code\UserApp\Protocol/CmdProtocol.c **** 
ARM GAS  C:\Users\Administrator\AppData\Local\Temp\ccexfbaX.s 			page 37


1568:Code\UserApp\Protocol/CmdProtocol.c **** //*************************************************************************************************
1569:Code\UserApp\Protocol/CmdProtocol.c **** // Function name	: Protocol_CmdManufac
1570:Code\UserApp\Protocol/CmdProtocol.c **** // Description		: è“ç‰™çƒ§å†™è®¾å¤‡MACåŠŸèƒ½
1571:Code\UserApp\Protocol/CmdProtocol.c **** // Parameter		: uint8* RecBuf	å‘½ä»¤åŒ…æŒ‡é’ˆ
1572:Code\UserApp\Protocol/CmdProtocol.c **** // Return			: none
1573:Code\UserApp\Protocol/CmdProtocol.c **** //-------------------------------------------------------------------------------------------------
1574:Code\UserApp\Protocol/CmdProtocol.c **** // Info				: 0xF1å‘½ä»¤ï¼Œæ‰‹æœºå‘é€
1575:Code\UserApp\Protocol/CmdProtocol.c **** //*************************************************************************************************
1576:Code\UserApp\Protocol/CmdProtocol.c **** static void Protocol_CmdManufac(uint8* RecBuf)
1577:Code\UserApp\Protocol/CmdProtocol.c **** {
 456              		.loc 1 1577 0
 457              		.cfi_startproc
 458              		@ args = 0, pretend = 0, frame = 16
 459              		@ frame_needed = 0, uses_anonymous_args = 0
 460              	.LVL61:
 461 0000 F0B5     		push	{r4, r5, r6, r7, lr}
 462              		.cfi_def_cfa_offset 20
 463              		.cfi_offset 4, -20
 464              		.cfi_offset 5, -16
 465              		.cfi_offset 6, -12
 466              		.cfi_offset 7, -8
 467              		.cfi_offset 14, -4
1578:Code\UserApp\Protocol/CmdProtocol.c **** 	uint8 Newmac[6] = {0};
1579:Code\UserApp\Protocol/CmdProtocol.c **** 		//1.å–å‡ºmac å†™å…¥æœ¬åœ°flash
1580:Code\UserApp\Protocol/CmdProtocol.c **** 	memcpy(Newmac, RecBuf+13, 6);
 468              		.loc 1 1580 0
 469 0002 0100     		movs	r1, r0
 470 0004 0626     		movs	r6, #6
1577:Code\UserApp\Protocol/CmdProtocol.c **** 	uint8 Newmac[6] = {0};
 471              		.loc 1 1577 0
 472 0006 85B0     		sub	sp, sp, #20
 473              		.cfi_def_cfa_offset 40
 474              		.loc 1 1580 0
 475 0008 02AC     		add	r4, sp, #8
 476 000a 3200     		movs	r2, r6
 477 000c 0D31     		adds	r1, r1, #13
 478 000e 2000     		movs	r0, r4
 479              	.LVL62:
 480 0010 FFF7FEFF 		bl	memcpy
 481              	.LVL63:
1581:Code\UserApp\Protocol/CmdProtocol.c **** 	uint8 flag = 0;
 482              		.loc 1 1581 0
 483 0014 6B46     		mov	r3, sp
 484 0016 DF1D     		adds	r7, r3, #7
 485 0018 0023     		movs	r3, #0
1582:Code\UserApp\Protocol/CmdProtocol.c **** 	W25QXX_Read(&flag, MACFLAG_BASE, 1);
 486              		.loc 1 1582 0
 487 001a 3800     		movs	r0, r7
 488 001c 0122     		movs	r2, #1
 489 001e 1149     		ldr	r1, .L19
1581:Code\UserApp\Protocol/CmdProtocol.c **** 	uint8 flag = 0;
 490              		.loc 1 1581 0
 491 0020 3B70     		strb	r3, [r7]
 492              		.loc 1 1582 0
 493 0022 FFF7FEFF 		bl	W25QXX_Read
 494              	.LVL64:
1583:Code\UserApp\Protocol/CmdProtocol.c **** 	
ARM GAS  C:\Users\Administrator\AppData\Local\Temp\ccexfbaX.s 			page 38


1584:Code\UserApp\Protocol/CmdProtocol.c **** 	if(DEBUG_PRJ == 1)
1585:Code\UserApp\Protocol/CmdProtocol.c **** 	{	//2.æµ‹è¯•ç¨‹åº æ­£ç¡®åˆ™æ’­æ”¾é•¿éŸ³ å¯ä»¥é‡å¤å†™
1586:Code\UserApp\Protocol/CmdProtocol.c **** 		if((Newmac[0] = 0x06) && (Newmac[1] = 0x01))
1587:Code\UserApp\Protocol/CmdProtocol.c **** 		{
1588:Code\UserApp\Protocol/CmdProtocol.c **** 			
1589:Code\UserApp\Protocol/CmdProtocol.c **** 			flag = 1;
1590:Code\UserApp\Protocol/CmdProtocol.c **** 			W25QXX_Write(Newmac, MAC_BASE, (uint16)sizeof(Newmac));
 495              		.loc 1 1590 0
 496 0026 C921     		movs	r1, #201
1586:Code\UserApp\Protocol/CmdProtocol.c **** 		{
 497              		.loc 1 1586 0
 498 0028 0125     		movs	r5, #1
 499              		.loc 1 1590 0
 500 002a 3200     		movs	r2, r6
 501 002c 2000     		movs	r0, r4
 502 002e 4902     		lsls	r1, r1, #9
1586:Code\UserApp\Protocol/CmdProtocol.c **** 		{
 503              		.loc 1 1586 0
 504 0030 2670     		strb	r6, [r4]
 505 0032 6570     		strb	r5, [r4, #1]
1589:Code\UserApp\Protocol/CmdProtocol.c **** 			W25QXX_Write(Newmac, MAC_BASE, (uint16)sizeof(Newmac));
 506              		.loc 1 1589 0
 507 0034 3D70     		strb	r5, [r7]
 508              		.loc 1 1590 0
 509 0036 FFF7FEFF 		bl	W25QXX_Write
 510              	.LVL65:
1591:Code\UserApp\Protocol/CmdProtocol.c **** 			W25QXX_Write(&flag, MACFLAG_BASE, 1);
 511              		.loc 1 1591 0
 512 003a 2A00     		movs	r2, r5
 513 003c 0949     		ldr	r1, .L19
 514 003e 3800     		movs	r0, r7
 515 0040 FFF7FEFF 		bl	W25QXX_Write
 516              	.LVL66:
1592:Code\UserApp\Protocol/CmdProtocol.c **** 			VoicePlay((uint8)Sound_REG_SUCCESS);	
 517              		.loc 1 1592 0
 518 0044 0420     		movs	r0, #4
 519 0046 FFF7FEFF 		bl	VoicePlay
 520              	.LVL67:
1593:Code\UserApp\Protocol/CmdProtocol.c **** 		}
1594:Code\UserApp\Protocol/CmdProtocol.c **** 		else
1595:Code\UserApp\Protocol/CmdProtocol.c **** 		{
1596:Code\UserApp\Protocol/CmdProtocol.c **** 			//3.é”™è¯¯åˆ™æ’­æŠ¥çŸ­éŸ³3å£°
1597:Code\UserApp\Protocol/CmdProtocol.c **** 			VoicePlay((uint8)Sound_VERIFY_FAILURE);
1598:Code\UserApp\Protocol/CmdProtocol.c **** 			
1599:Code\UserApp\Protocol/CmdProtocol.c **** 		}
1600:Code\UserApp\Protocol/CmdProtocol.c **** 	
1601:Code\UserApp\Protocol/CmdProtocol.c **** 	}
1602:Code\UserApp\Protocol/CmdProtocol.c **** 	
1603:Code\UserApp\Protocol/CmdProtocol.c **** 	else if(DEBUG_PRJ == 0)
1604:Code\UserApp\Protocol/CmdProtocol.c **** 	{	//2.å‡ºå‚ç¨‹åº åªèƒ½å†™ä¸€æ¬¡		
1605:Code\UserApp\Protocol/CmdProtocol.c **** 		if((Newmac[0] = 0x06) && (Newmac[1] = 0x01) && (flag != 1))
1606:Code\UserApp\Protocol/CmdProtocol.c **** 		{
1607:Code\UserApp\Protocol/CmdProtocol.c **** 			
1608:Code\UserApp\Protocol/CmdProtocol.c **** 			flag = 1;
1609:Code\UserApp\Protocol/CmdProtocol.c **** 			W25QXX_Write(Newmac, MAC_BASE, (uint16)sizeof(Newmac));
1610:Code\UserApp\Protocol/CmdProtocol.c **** 			W25QXX_Write(&flag, MACFLAG_BASE, 1);
1611:Code\UserApp\Protocol/CmdProtocol.c **** 			VoicePlay((uint8)Sound_REG_SUCCESS);	
ARM GAS  C:\Users\Administrator\AppData\Local\Temp\ccexfbaX.s 			page 39


1612:Code\UserApp\Protocol/CmdProtocol.c **** 		}
1613:Code\UserApp\Protocol/CmdProtocol.c **** 		else
1614:Code\UserApp\Protocol/CmdProtocol.c **** 		{
1615:Code\UserApp\Protocol/CmdProtocol.c **** 			//3.é”™è¯¯åˆ™æ’­æŠ¥çŸ­éŸ³3å£°
1616:Code\UserApp\Protocol/CmdProtocol.c **** 			VoicePlay((uint8)Sound_VERIFY_FAILURE);
1617:Code\UserApp\Protocol/CmdProtocol.c **** 		}
1618:Code\UserApp\Protocol/CmdProtocol.c **** 	}
1619:Code\UserApp\Protocol/CmdProtocol.c **** 	
1620:Code\UserApp\Protocol/CmdProtocol.c **** 	BleSend(Newmac, 6);											// è“ç‰™åº”ç­”
 521              		.loc 1 1620 0
 522 004a 3100     		movs	r1, r6
 523 004c 2000     		movs	r0, r4
 524 004e FFF7FEFF 		bl	BleSend
 525              	.LVL68:
1621:Code\UserApp\Protocol/CmdProtocol.c **** 	BeepPlay_Delay(1000);
 526              		.loc 1 1621 0
 527 0052 FA20     		movs	r0, #250
 528 0054 8000     		lsls	r0, r0, #2
 529 0056 FFF7FEFF 		bl	BeepPlay_Delay
 530              	.LVL69:
1622:Code\UserApp\Protocol/CmdProtocol.c **** 	flag_reboot = 1;	
 531              		.loc 1 1622 0
 532 005a 034B     		ldr	r3, .L19+4
 533 005c 1D70     		strb	r5, [r3]
1623:Code\UserApp\Protocol/CmdProtocol.c **** }
 534              		.loc 1 1623 0
 535 005e 05B0     		add	sp, sp, #20
 536              		@ sp needed
 537 0060 F0BD     		pop	{r4, r5, r6, r7, pc}
 538              	.L20:
 539 0062 C046     		.align	2
 540              	.L19:
 541 0064 06920100 		.word	102918
 542 0068 00000000 		.word	flag_reboot
 543              		.cfi_endproc
 544              	.LFE89:
 545              		.size	Protocol_CmdManufac, .-Protocol_CmdManufac
 546              		.section	.text.Endpoint_exchange,"ax",%progbits
 547              		.align	1
 548              		.global	Endpoint_exchange
 549              		.code	16
 550              		.thumb_func
 551              		.type	Endpoint_exchange, %function
 552              	Endpoint_exchange:
 553              	.LFB63:
  89:Code\UserApp\Protocol/CmdProtocol.c **** 	uint8 databuf[8] = {0};
 554              		.loc 1 89 0
 555              		.cfi_startproc
 556              		@ args = 0, pretend = 0, frame = 8
 557              		@ frame_needed = 0, uses_anonymous_args = 0
 558              	.LVL70:
 559 0000 13B5     		push	{r0, r1, r4, lr}
 560              		.cfi_def_cfa_offset 16
 561              		.cfi_offset 0, -16
 562              		.cfi_offset 1, -12
 563              		.cfi_offset 4, -8
 564              		.cfi_offset 14, -4
ARM GAS  C:\Users\Administrator\AppData\Local\Temp\ccexfbaX.s 			page 40


  89:Code\UserApp\Protocol/CmdProtocol.c **** 	uint8 databuf[8] = {0};
 565              		.loc 1 89 0
 566 0002 0400     		movs	r4, r0
  90:Code\UserApp\Protocol/CmdProtocol.c **** 
 567              		.loc 1 90 0
 568 0004 0822     		movs	r2, #8
 569 0006 0021     		movs	r1, #0
 570 0008 6846     		mov	r0, sp
 571              	.LVL71:
 572 000a FFF7FEFF 		bl	memset
 573              	.LVL72:
  96:Code\UserApp\Protocol/CmdProtocol.c **** 	 && card_data[6] == 0 && card_data[7] == 0) ||
 574              		.loc 1 96 0
 575 000e 2379     		ldrb	r3, [r4, #4]
 576 0010 002B     		cmp	r3, #0
 577 0012 08D1     		bne	.L22
  96:Code\UserApp\Protocol/CmdProtocol.c **** 	 && card_data[6] == 0 && card_data[7] == 0) ||
 578              		.loc 1 96 0 is_stmt 0 discriminator 1
 579 0014 6379     		ldrb	r3, [r4, #5]
 580 0016 002B     		cmp	r3, #0
 581 0018 05D1     		bne	.L22
  97:Code\UserApp\Protocol/CmdProtocol.c **** 	   (card_data[0] == 0 && card_data[1] == 0 
 582              		.loc 1 97 0 is_stmt 1
 583 001a A379     		ldrb	r3, [r4, #6]
 584 001c 002B     		cmp	r3, #0
 585 001e 02D1     		bne	.L22
  97:Code\UserApp\Protocol/CmdProtocol.c **** 	   (card_data[0] == 0 && card_data[1] == 0 
 586              		.loc 1 97 0 is_stmt 0 discriminator 1
 587 0020 E379     		ldrb	r3, [r4, #7]
 588 0022 002B     		cmp	r3, #0
 589 0024 0BD0     		beq	.L23
 590              	.L22:
  97:Code\UserApp\Protocol/CmdProtocol.c **** 	   (card_data[0] == 0 && card_data[1] == 0 
 591              		.loc 1 97 0 discriminator 3
 592 0026 2378     		ldrb	r3, [r4]
 593 0028 002B     		cmp	r3, #0
 594 002a 17D1     		bne	.L24
  98:Code\UserApp\Protocol/CmdProtocol.c **** 	 && card_data[2] == 0 && card_data[3] == 0))
 595              		.loc 1 98 0 is_stmt 1
 596 002c 6378     		ldrb	r3, [r4, #1]
 597 002e 002B     		cmp	r3, #0
 598 0030 14D1     		bne	.L24
  99:Code\UserApp\Protocol/CmdProtocol.c **** 	{
 599              		.loc 1 99 0
 600 0032 A378     		ldrb	r3, [r4, #2]
 601 0034 002B     		cmp	r3, #0
 602 0036 11D1     		bne	.L24
  99:Code\UserApp\Protocol/CmdProtocol.c **** 	{
 603              		.loc 1 99 0 is_stmt 0 discriminator 1
 604 0038 E378     		ldrb	r3, [r4, #3]
 605 003a 002B     		cmp	r3, #0
 606 003c 0ED1     		bne	.L24
 607              	.L23:
 101:Code\UserApp\Protocol/CmdProtocol.c **** 		memcpy(databuf, card_data+4, 4);						// å4ä¸ªUIDæ‹·è´åˆ°å‰å››ä¸ª 
 608              		.loc 1 101 0 is_stmt 1
 609 003e 0422     		movs	r2, #4
 610 0040 2100     		movs	r1, r4
ARM GAS  C:\Users\Administrator\AppData\Local\Temp\ccexfbaX.s 			page 41


 611 0042 01A8     		add	r0, sp, #4
 612 0044 FFF7FEFF 		bl	memcpy
 613              	.LVL73:
 102:Code\UserApp\Protocol/CmdProtocol.c **** 		
 614              		.loc 1 102 0
 615 0048 211D     		adds	r1, r4, #4
 616 004a 0422     		movs	r2, #4
 617 004c 6846     		mov	r0, sp
 618 004e FFF7FEFF 		bl	memcpy
 619              	.LVL74:
 104:Code\UserApp\Protocol/CmdProtocol.c **** 	}
 620              		.loc 1 104 0
 621 0052 0822     		movs	r2, #8
 622 0054 6946     		mov	r1, sp
 623 0056 2000     		movs	r0, r4
 624 0058 FFF7FEFF 		bl	memcpy
 625              	.LVL75:
 626              	.L24:
 109:Code\UserApp\Protocol/CmdProtocol.c **** 
 627              		.loc 1 109 0
 628 005c 0020     		movs	r0, #0
 629              		@ sp needed
 630              	.LVL76:
 631 005e 16BD     		pop	{r1, r2, r4, pc}
 632              		.cfi_endproc
 633              	.LFE63:
 634              		.size	Endpoint_exchange, .-Endpoint_exchange
 635              		.section	.text.Cmd_Protocol_ParaInit,"ax",%progbits
 636              		.align	1
 637              		.global	Cmd_Protocol_ParaInit
 638              		.code	16
 639              		.thumb_func
 640              		.type	Cmd_Protocol_ParaInit, %function
 641              	Cmd_Protocol_ParaInit:
 642              	.LFB64:
 122:Code\UserApp\Protocol/CmdProtocol.c **** 	RecvType = 0;
 643              		.loc 1 122 0
 644              		.cfi_startproc
 645              		@ args = 0, pretend = 0, frame = 0
 646              		@ frame_needed = 0, uses_anonymous_args = 0
 647 0000 70B5     		push	{r4, r5, r6, lr}
 648              		.cfi_def_cfa_offset 16
 649              		.cfi_offset 4, -16
 650              		.cfi_offset 5, -12
 651              		.cfi_offset 6, -8
 652              		.cfi_offset 14, -4
 123:Code\UserApp\Protocol/CmdProtocol.c **** 	Cmd_Baglen = 0;
 653              		.loc 1 123 0
 654 0002 0024     		movs	r4, #0
 655 0004 0E4B     		ldr	r3, .L29
 129:Code\UserApp\Protocol/CmdProtocol.c **** 	memset((char *)GPRSCmd_buf1, 0, sizeof(GPRSCmd_buf1));
 656              		.loc 1 129 0
 657 0006 0F4D     		ldr	r5, .L29+4
 123:Code\UserApp\Protocol/CmdProtocol.c **** 	Cmd_Baglen = 0;
 658              		.loc 1 123 0
 659 0008 1C70     		strb	r4, [r3]
 124:Code\UserApp\Protocol/CmdProtocol.c **** 	Cmd_Revsta = 0;
ARM GAS  C:\Users\Administrator\AppData\Local\Temp\ccexfbaX.s 			page 42


 660              		.loc 1 124 0
 661 000a 0F4B     		ldr	r3, .L29+8
 129:Code\UserApp\Protocol/CmdProtocol.c **** 	memset((char *)GPRSCmd_buf1, 0, sizeof(GPRSCmd_buf1));
 662              		.loc 1 129 0
 663 000c 2A00     		movs	r2, r5
 124:Code\UserApp\Protocol/CmdProtocol.c **** 	Cmd_Revsta = 0;
 664              		.loc 1 124 0
 665 000e 1C80     		strh	r4, [r3]
 125:Code\UserApp\Protocol/CmdProtocol.c **** 	Cmd_index = 0;
 666              		.loc 1 125 0
 667 0010 0E4B     		ldr	r3, .L29+12
 129:Code\UserApp\Protocol/CmdProtocol.c **** 	memset((char *)GPRSCmd_buf1, 0, sizeof(GPRSCmd_buf1));
 668              		.loc 1 129 0
 669 0012 2100     		movs	r1, r4
 125:Code\UserApp\Protocol/CmdProtocol.c **** 	Cmd_index = 0;
 670              		.loc 1 125 0
 671 0014 1C70     		strb	r4, [r3]
 126:Code\UserApp\Protocol/CmdProtocol.c **** 	GPRSCmdParseFlag1 = RESET;
 672              		.loc 1 126 0
 673 0016 0E4B     		ldr	r3, .L29+16
 129:Code\UserApp\Protocol/CmdProtocol.c **** 	memset((char *)GPRSCmd_buf1, 0, sizeof(GPRSCmd_buf1));
 674              		.loc 1 129 0
 675 0018 0E48     		ldr	r0, .L29+20
 126:Code\UserApp\Protocol/CmdProtocol.c **** 	GPRSCmdParseFlag1 = RESET;
 676              		.loc 1 126 0
 677 001a 1C80     		strh	r4, [r3]
 127:Code\UserApp\Protocol/CmdProtocol.c **** 	GPRSCmdParseFlag2 = RESET;
 678              		.loc 1 127 0
 679 001c 0E4B     		ldr	r3, .L29+24
 132:Code\UserApp\Protocol/CmdProtocol.c **** 
 680              		.loc 1 132 0
 681              		@ sp needed
 127:Code\UserApp\Protocol/CmdProtocol.c **** 	GPRSCmdParseFlag2 = RESET;
 682              		.loc 1 127 0
 683 001e 1C70     		strb	r4, [r3]
 128:Code\UserApp\Protocol/CmdProtocol.c **** 	memset((char *)CmdRev_buf, 0, sizeof(CmdRev_buf));
 684              		.loc 1 128 0
 685 0020 0E4B     		ldr	r3, .L29+28
 686 0022 1C70     		strb	r4, [r3]
 129:Code\UserApp\Protocol/CmdProtocol.c **** 	memset((char *)GPRSCmd_buf1, 0, sizeof(GPRSCmd_buf1));
 687              		.loc 1 129 0
 688 0024 FFF7FEFF 		bl	memset
 689              	.LVL77:
 130:Code\UserApp\Protocol/CmdProtocol.c **** 	memset((char *)GPRSCmd_buf2, 0, sizeof(GPRSCmd_buf2));
 690              		.loc 1 130 0
 691 0028 2A00     		movs	r2, r5
 692 002a 2100     		movs	r1, r4
 693 002c 0C48     		ldr	r0, .L29+32
 694 002e FFF7FEFF 		bl	memset
 695              	.LVL78:
 131:Code\UserApp\Protocol/CmdProtocol.c **** }
 696              		.loc 1 131 0
 697 0032 2A00     		movs	r2, r5
 698 0034 2100     		movs	r1, r4
 699 0036 0B48     		ldr	r0, .L29+36
 700 0038 FFF7FEFF 		bl	memset
 701              	.LVL79:
ARM GAS  C:\Users\Administrator\AppData\Local\Temp\ccexfbaX.s 			page 43


 132:Code\UserApp\Protocol/CmdProtocol.c **** 
 702              		.loc 1 132 0
 703 003c 70BD     		pop	{r4, r5, r6, pc}
 704              	.L30:
 705 003e C046     		.align	2
 706              	.L29:
 707 0040 00000000 		.word	RecvType
 708 0044 1A040000 		.word	1050
 709 0048 00000000 		.word	Cmd_Baglen
 710 004c 00000000 		.word	Cmd_Revsta
 711 0050 00000000 		.word	Cmd_index
 712 0054 00000000 		.word	CmdRev_buf
 713 0058 00000000 		.word	GPRSCmdParseFlag1
 714 005c 00000000 		.word	GPRSCmdParseFlag2
 715 0060 00000000 		.word	GPRSCmd_buf1
 716 0064 00000000 		.word	GPRSCmd_buf2
 717              		.cfi_endproc
 718              	.LFE64:
 719              		.size	Cmd_Protocol_ParaInit, .-Cmd_Protocol_ParaInit
 720              		.section	.text.send_get_pre_service_ip,"ax",%progbits
 721              		.align	1
 722              		.global	send_get_pre_service_ip
 723              		.code	16
 724              		.thumb_func
 725              		.type	send_get_pre_service_ip, %function
 726              	send_get_pre_service_ip:
 727              	.LFB65:
 145:Code\UserApp\Protocol/CmdProtocol.c **** 	uint8 uart_buf[96];
 728              		.loc 1 145 0
 729              		.cfi_startproc
 730              		@ args = 0, pretend = 0, frame = 96
 731              		@ frame_needed = 0, uses_anonymous_args = 0
 732              	.LVL80:
 733 0000 00B5     		push	{lr}
 734              		.cfi_def_cfa_offset 4
 735              		.cfi_offset 14, -4
 736 0002 99B0     		sub	sp, sp, #100
 737              		.cfi_def_cfa_offset 104
 154:Code\UserApp\Protocol/CmdProtocol.c **** 	uart_buf[cnt++] = 0x3a;
 738              		.loc 1 154 0
 739 0004 6A46     		mov	r2, sp
 740 0006 EF23     		movs	r3, #239
 741 0008 1370     		strb	r3, [r2]
 742              	.LVL81:
 155:Code\UserApp\Protocol/CmdProtocol.c **** 	uart_buf[cnt++] = (pack_len >> 8) & 0xFF;					// åŒ…é•¿åº¦é«˜å­—èŠ‚							//
 743              		.loc 1 155 0
 744 000a B53B     		subs	r3, r3, #181
 745 000c 5370     		strb	r3, [r2, #1]
 746              	.LVL82:
 156:Code\UserApp\Protocol/CmdProtocol.c **** 	uart_buf[cnt++] = pack_len & 0xFF;							// åŒ…é•¿åº¦ä½å­—èŠ‚							//
 747              		.loc 1 156 0
 748 000e 0023     		movs	r3, #0
 157:Code\UserApp\Protocol/CmdProtocol.c **** 	uart_buf[cnt++] = 0x01;
 749              		.loc 1 157 0
 750 0010 6946     		mov	r1, sp
 156:Code\UserApp\Protocol/CmdProtocol.c **** 	uart_buf[cnt++] = pack_len & 0xFF;							// åŒ…é•¿åº¦ä½å­—èŠ‚							//
 751              		.loc 1 156 0
ARM GAS  C:\Users\Administrator\AppData\Local\Temp\ccexfbaX.s 			page 44


 752 0012 9370     		strb	r3, [r2, #2]
 753              	.LVL83:
 157:Code\UserApp\Protocol/CmdProtocol.c **** 	uart_buf[cnt++] = 0x01;
 754              		.loc 1 157 0
 755 0014 0F22     		movs	r2, #15
 164:Code\UserApp\Protocol/CmdProtocol.c **** 	}
 756              		.loc 1 164 0
 757 0016 1548     		ldr	r0, .L34
 157:Code\UserApp\Protocol/CmdProtocol.c **** 	uart_buf[cnt++] = 0x01;
 758              		.loc 1 157 0
 759 0018 CA70     		strb	r2, [r1, #3]
 760              	.LVL84:
 158:Code\UserApp\Protocol/CmdProtocol.c **** 	uart_buf[cnt++] = 0x01;
 761              		.loc 1 158 0
 762 001a 0E3A     		subs	r2, r2, #14
 763 001c 0A71     		strb	r2, [r1, #4]
 764              	.LVL85:
 159:Code\UserApp\Protocol/CmdProtocol.c **** 	uart_buf[cnt++] = 0x01;
 765              		.loc 1 159 0
 766 001e 4A71     		strb	r2, [r1, #5]
 767              	.LVL86:
 160:Code\UserApp\Protocol/CmdProtocol.c **** 	
 768              		.loc 1 160 0
 769 0020 8A71     		strb	r2, [r1, #6]
 770              	.LVL87:
 771              	.L32:
 164:Code\UserApp\Protocol/CmdProtocol.c **** 	}
 772              		.loc 1 164 0 discriminator 3
 773 0022 1A00     		movs	r2, r3
 774 0024 C15C     		ldrb	r1, [r0, r3]
 775 0026 6A44     		add	r2, r2, sp
 776 0028 0133     		adds	r3, r3, #1
 777              	.LVL88:
 778 002a D171     		strb	r1, [r2, #7]
 162:Code\UserApp\Protocol/CmdProtocol.c **** 	{
 779              		.loc 1 162 0 discriminator 3
 780 002c 062B     		cmp	r3, #6
 781 002e F8D1     		bne	.L32
 167:Code\UserApp\Protocol/CmdProtocol.c **** 	LONG2BYTE(time_tmp, time_arr);
 782              		.loc 1 167 0
 783 0030 FFF7FEFF 		bl	RTC_GetUnixTime
 784              	.LVL89:
 169:Code\UserApp\Protocol/CmdProtocol.c **** 	uart_buf[cnt++] = time_arr[1];
 785              		.loc 1 169 0
 786 0034 6A46     		mov	r2, sp
 787 0036 030E     		lsrs	r3, r0, #24
 788 0038 5373     		strb	r3, [r2, #13]
 789              	.LVL90:
 170:Code\UserApp\Protocol/CmdProtocol.c **** 	uart_buf[cnt++] = time_arr[2];
 790              		.loc 1 170 0
 791 003a 030C     		lsrs	r3, r0, #16
 792 003c 9373     		strb	r3, [r2, #14]
 793              	.LVL91:
 172:Code\UserApp\Protocol/CmdProtocol.c **** 	
 794              		.loc 1 172 0
 795 003e 1074     		strb	r0, [r2, #16]
 171:Code\UserApp\Protocol/CmdProtocol.c **** 	uart_buf[cnt++] = time_arr[3];
ARM GAS  C:\Users\Administrator\AppData\Local\Temp\ccexfbaX.s 			page 45


 796              		.loc 1 171 0
 797 0040 030A     		lsrs	r3, r0, #8
 174:Code\UserApp\Protocol/CmdProtocol.c **** 	uart_buf[cnt++] = (TempCrc >> 8) & 0xFF;
 798              		.loc 1 174 0
 799 0042 1121     		movs	r1, #17
 800 0044 6846     		mov	r0, sp
 801              	.LVL92:
 171:Code\UserApp\Protocol/CmdProtocol.c **** 	uart_buf[cnt++] = time_arr[3];
 802              		.loc 1 171 0
 803 0046 D373     		strb	r3, [r2, #15]
 804              	.LVL93:
 174:Code\UserApp\Protocol/CmdProtocol.c **** 	uart_buf[cnt++] = (TempCrc >> 8) & 0xFF;
 805              		.loc 1 174 0
 806 0048 FFF7FEFF 		bl	MyCrc16Check
 807              	.LVL94:
 175:Code\UserApp\Protocol/CmdProtocol.c **** 	uart_buf[cnt++] = TempCrc & 0xFF;
 808              		.loc 1 175 0
 809 004c 6A46     		mov	r2, sp
 810 004e 030A     		lsrs	r3, r0, #8
 811 0050 5374     		strb	r3, [r2, #17]
 812              	.LVL95:
 178:Code\UserApp\Protocol/CmdProtocol.c **** 	return 0;
 813              		.loc 1 178 0
 814 0052 9178     		ldrb	r1, [r2, #2]
 815 0054 D378     		ldrb	r3, [r2, #3]
 816 0056 0902     		lsls	r1, r1, #8
 817 0058 0433     		adds	r3, r3, #4
 818 005a C918     		adds	r1, r1, r3
 176:Code\UserApp\Protocol/CmdProtocol.c **** 	
 819              		.loc 1 176 0
 820 005c 9074     		strb	r0, [r2, #18]
 178:Code\UserApp\Protocol/CmdProtocol.c **** 	return 0;
 821              		.loc 1 178 0
 822 005e 89B2     		uxth	r1, r1
 823 0060 6846     		mov	r0, sp
 824              	.LVL96:
 825 0062 FFF7FEFF 		bl	GPRS_SendHexDataToServer
 826              	.LVL97:
 180:Code\UserApp\Protocol/CmdProtocol.c **** 
 827              		.loc 1 180 0
 828 0066 0020     		movs	r0, #0
 829 0068 19B0     		add	sp, sp, #100
 830              		@ sp needed
 831 006a 00BD     		pop	{pc}
 832              	.L35:
 833              		.align	2
 834              	.L34:
 835 006c 00000000 		.word	Mac_Addr
 836              		.cfi_endproc
 837              	.LFE65:
 838              		.size	send_get_pre_service_ip, .-send_get_pre_service_ip
 839              		.section	.text.send_send_mac_and_get_blekey,"ax",%progbits
 840              		.align	1
 841              		.global	send_send_mac_and_get_blekey
 842              		.code	16
 843              		.thumb_func
 844              		.type	send_send_mac_and_get_blekey, %function
ARM GAS  C:\Users\Administrator\AppData\Local\Temp\ccexfbaX.s 			page 46


 845              	send_send_mac_and_get_blekey:
 846              	.LFB66:
 191:Code\UserApp\Protocol/CmdProtocol.c **** 	uint8 ver;
 847              		.loc 1 191 0
 848              		.cfi_startproc
 849              		@ args = 0, pretend = 0, frame = 96
 850              		@ frame_needed = 0, uses_anonymous_args = 0
 851              	.LVL98:
 852 0000 10B5     		push	{r4, lr}
 853              		.cfi_def_cfa_offset 8
 854              		.cfi_offset 4, -8
 855              		.cfi_offset 14, -4
 856 0002 98B0     		sub	sp, sp, #96
 857              		.cfi_def_cfa_offset 104
 201:Code\UserApp\Protocol/CmdProtocol.c **** 	uart_buf[cnt++] = 0x3a;
 858              		.loc 1 201 0
 859 0004 6A46     		mov	r2, sp
 860 0006 EF23     		movs	r3, #239
 861 0008 1370     		strb	r3, [r2]
 862              	.LVL99:
 202:Code\UserApp\Protocol/CmdProtocol.c **** 	uart_buf[cnt++] = (pack_len >> 8) & 0xFF;					// åŒ…é•¿åº¦é«˜å­—èŠ‚							//
 863              		.loc 1 202 0
 864 000a B53B     		subs	r3, r3, #181
 865 000c 5370     		strb	r3, [r2, #1]
 866              	.LVL100:
 203:Code\UserApp\Protocol/CmdProtocol.c **** 	uart_buf[cnt++] = pack_len & 0xFF;							// åŒ…é•¿åº¦ä½å­—èŠ‚							//
 867              		.loc 1 203 0
 868 000e 0023     		movs	r3, #0
 204:Code\UserApp\Protocol/CmdProtocol.c **** 	uart_buf[cnt++] = 0x01;
 869              		.loc 1 204 0
 870 0010 6946     		mov	r1, sp
 203:Code\UserApp\Protocol/CmdProtocol.c **** 	uart_buf[cnt++] = pack_len & 0xFF;							// åŒ…é•¿åº¦ä½å­—èŠ‚							//
 871              		.loc 1 203 0
 872 0012 9370     		strb	r3, [r2, #2]
 873              	.LVL101:
 204:Code\UserApp\Protocol/CmdProtocol.c **** 	uart_buf[cnt++] = 0x01;
 874              		.loc 1 204 0
 875 0014 1122     		movs	r2, #17
 876 0016 CA70     		strb	r2, [r1, #3]
 877              	.LVL102:
 205:Code\UserApp\Protocol/CmdProtocol.c **** 	uart_buf[cnt++] = 0x01;
 878              		.loc 1 205 0
 879 0018 103A     		subs	r2, r2, #16
 880 001a 0A71     		strb	r2, [r1, #4]
 881              	.LVL103:
 206:Code\UserApp\Protocol/CmdProtocol.c **** 	uart_buf[cnt++] = 0x02;
 882              		.loc 1 206 0
 883 001c 4A71     		strb	r2, [r1, #5]
 884              	.LVL104:
 211:Code\UserApp\Protocol/CmdProtocol.c **** 	}
 885              		.loc 1 211 0
 886 001e 1748     		ldr	r0, .L39
 207:Code\UserApp\Protocol/CmdProtocol.c **** 	
 887              		.loc 1 207 0
 888 0020 0132     		adds	r2, r2, #1
 889 0022 8A71     		strb	r2, [r1, #6]
 890              	.LVL105:
ARM GAS  C:\Users\Administrator\AppData\Local\Temp\ccexfbaX.s 			page 47


 891              	.L37:
 211:Code\UserApp\Protocol/CmdProtocol.c **** 	}
 892              		.loc 1 211 0 discriminator 3
 893 0024 1A00     		movs	r2, r3
 894 0026 C15C     		ldrb	r1, [r0, r3]
 895 0028 6A44     		add	r2, r2, sp
 896 002a 0133     		adds	r3, r3, #1
 897              	.LVL106:
 898 002c D171     		strb	r1, [r2, #7]
 209:Code\UserApp\Protocol/CmdProtocol.c **** 	{
 899              		.loc 1 209 0 discriminator 3
 900 002e 062B     		cmp	r3, #6
 901 0030 F8D1     		bne	.L37
 215:Code\UserApp\Protocol/CmdProtocol.c **** 	uart_buf[cnt++] = ver & 0xFF;
 902              		.loc 1 215 0
 903 0032 6A46     		mov	r2, sp
 904 0034 0024     		movs	r4, #0
 214:Code\UserApp\Protocol/CmdProtocol.c **** 	uart_buf[cnt++] = (ver >> 8) & 0xFF;
 905              		.loc 1 214 0
 906 0036 124B     		ldr	r3, .L39+4
 215:Code\UserApp\Protocol/CmdProtocol.c **** 	uart_buf[cnt++] = ver & 0xFF;
 907              		.loc 1 215 0
 908 0038 5473     		strb	r4, [r2, #13]
 214:Code\UserApp\Protocol/CmdProtocol.c **** 	uart_buf[cnt++] = (ver >> 8) & 0xFF;
 909              		.loc 1 214 0
 910 003a 1B78     		ldrb	r3, [r3]
 911              	.LVL107:
 216:Code\UserApp\Protocol/CmdProtocol.c **** 	    
 912              		.loc 1 216 0
 913 003c 9373     		strb	r3, [r2, #14]
 218:Code\UserApp\Protocol/CmdProtocol.c **** 	LONG2BYTE(time_tmp, time_arr);
 914              		.loc 1 218 0
 915 003e FFF7FEFF 		bl	RTC_GetUnixTime
 916              	.LVL108:
 220:Code\UserApp\Protocol/CmdProtocol.c **** 	uart_buf[cnt++] = time_arr[1];
 917              		.loc 1 220 0
 918 0042 6A46     		mov	r2, sp
 919 0044 030E     		lsrs	r3, r0, #24
 920 0046 D373     		strb	r3, [r2, #15]
 921              	.LVL109:
 221:Code\UserApp\Protocol/CmdProtocol.c **** 	uart_buf[cnt++] = time_arr[2];
 922              		.loc 1 221 0
 923 0048 030C     		lsrs	r3, r0, #16
 924 004a 1374     		strb	r3, [r2, #16]
 925              	.LVL110:
 223:Code\UserApp\Protocol/CmdProtocol.c **** 	
 926              		.loc 1 223 0
 927 004c 9074     		strb	r0, [r2, #18]
 222:Code\UserApp\Protocol/CmdProtocol.c **** 	uart_buf[cnt++] = time_arr[3];
 928              		.loc 1 222 0
 929 004e 030A     		lsrs	r3, r0, #8
 225:Code\UserApp\Protocol/CmdProtocol.c **** 	uart_buf[cnt++] = (TempCrc >> 8) & 0xFF;
 930              		.loc 1 225 0
 931 0050 1321     		movs	r1, #19
 932 0052 6846     		mov	r0, sp
 933              	.LVL111:
 222:Code\UserApp\Protocol/CmdProtocol.c **** 	uart_buf[cnt++] = time_arr[3];
ARM GAS  C:\Users\Administrator\AppData\Local\Temp\ccexfbaX.s 			page 48


 934              		.loc 1 222 0
 935 0054 5374     		strb	r3, [r2, #17]
 936              	.LVL112:
 225:Code\UserApp\Protocol/CmdProtocol.c **** 	uart_buf[cnt++] = (TempCrc >> 8) & 0xFF;
 937              		.loc 1 225 0
 938 0056 FFF7FEFF 		bl	MyCrc16Check
 939              	.LVL113:
 226:Code\UserApp\Protocol/CmdProtocol.c **** 	uart_buf[cnt++] = TempCrc & 0xFF;
 940              		.loc 1 226 0
 941 005a 6A46     		mov	r2, sp
 942 005c 030A     		lsrs	r3, r0, #8
 943 005e D374     		strb	r3, [r2, #19]
 944              	.LVL114:
 229:Code\UserApp\Protocol/CmdProtocol.c **** 	return 0;
 945              		.loc 1 229 0
 946 0060 9178     		ldrb	r1, [r2, #2]
 947 0062 D378     		ldrb	r3, [r2, #3]
 948 0064 0902     		lsls	r1, r1, #8
 949 0066 0433     		adds	r3, r3, #4
 950 0068 C918     		adds	r1, r1, r3
 227:Code\UserApp\Protocol/CmdProtocol.c **** 	
 951              		.loc 1 227 0
 952 006a 1075     		strb	r0, [r2, #20]
 229:Code\UserApp\Protocol/CmdProtocol.c **** 	return 0;
 953              		.loc 1 229 0
 954 006c 89B2     		uxth	r1, r1
 955 006e 6846     		mov	r0, sp
 956              	.LVL115:
 957 0070 FFF7FEFF 		bl	GPRS_SendHexDataToServer
 958              	.LVL116:
 231:Code\UserApp\Protocol/CmdProtocol.c **** 
 959              		.loc 1 231 0
 960 0074 2000     		movs	r0, r4
 961 0076 18B0     		add	sp, sp, #96
 962              		@ sp needed
 963 0078 10BD     		pop	{r4, pc}
 964              	.L40:
 965 007a C046     		.align	2
 966              	.L39:
 967 007c 00000000 		.word	Mac_Addr
 968 0080 00000000 		.word	system_version
 969              		.cfi_endproc
 970              	.LFE66:
 971              		.size	send_send_mac_and_get_blekey, .-send_send_mac_and_get_blekey
 972              		.section	.text.send_upload_open_info,"ax",%progbits
 973              		.align	1
 974              		.global	send_upload_open_info
 975              		.code	16
 976              		.thumb_func
 977              		.type	send_upload_open_info, %function
 978              	send_upload_open_info:
 979              	.LFB67:
 245:Code\UserApp\Protocol/CmdProtocol.c **** 	uint8 uart_buf[96];
 980              		.loc 1 245 0
 981              		.cfi_startproc
 982              		@ args = 0, pretend = 0, frame = 96
 983              		@ frame_needed = 0, uses_anonymous_args = 0
ARM GAS  C:\Users\Administrator\AppData\Local\Temp\ccexfbaX.s 			page 49


 984              	.LVL117:
 985 0000 70B5     		push	{r4, r5, r6, lr}
 986              		.cfi_def_cfa_offset 16
 987              		.cfi_offset 4, -16
 988              		.cfi_offset 5, -12
 989              		.cfi_offset 6, -8
 990              		.cfi_offset 14, -4
 991 0002 98B0     		sub	sp, sp, #96
 992              		.cfi_def_cfa_offset 112
 255:Code\UserApp\Protocol/CmdProtocol.c **** 	uart_buf[cnt++] = 0x3a;
 993              		.loc 1 255 0
 994 0004 EF23     		movs	r3, #239
 245:Code\UserApp\Protocol/CmdProtocol.c **** 	uint8 uart_buf[96];
 995              		.loc 1 245 0
 996 0006 1600     		movs	r6, r2
 255:Code\UserApp\Protocol/CmdProtocol.c **** 	uart_buf[cnt++] = 0x3a;
 997              		.loc 1 255 0
 998 0008 6A46     		mov	r2, sp
 999              	.LVL118:
 1000 000a 1370     		strb	r3, [r2]
 256:Code\UserApp\Protocol/CmdProtocol.c **** 	uart_buf[cnt++] = (pack_len >> 8) & 0xFF;					// åŒ…é•¿åº¦é«˜å­—èŠ‚							//
 1001              		.loc 1 256 0
 1002 000c B53B     		subs	r3, r3, #181
 1003 000e 5370     		strb	r3, [r2, #1]
 257:Code\UserApp\Protocol/CmdProtocol.c **** 	uart_buf[cnt++] = pack_len & 0xFF;							// åŒ…é•¿åº¦ä½å­—èŠ‚							//
 1004              		.loc 1 257 0
 1005 0010 0023     		movs	r3, #0
 245:Code\UserApp\Protocol/CmdProtocol.c **** 	uint8 uart_buf[96];
 1006              		.loc 1 245 0
 1007 0012 0C00     		movs	r4, r1
 257:Code\UserApp\Protocol/CmdProtocol.c **** 	uart_buf[cnt++] = pack_len & 0xFF;							// åŒ…é•¿åº¦ä½å­—èŠ‚							//
 1008              		.loc 1 257 0
 1009 0014 9370     		strb	r3, [r2, #2]
 258:Code\UserApp\Protocol/CmdProtocol.c **** 	uart_buf[cnt++] = 0x01;
 1010              		.loc 1 258 0
 1011 0016 6946     		mov	r1, sp
 1012              	.LVL119:
 1013 0018 1C22     		movs	r2, #28
 1014 001a CA70     		strb	r2, [r1, #3]
 259:Code\UserApp\Protocol/CmdProtocol.c **** 	uart_buf[cnt++] = 0x01;
 1015              		.loc 1 259 0
 1016 001c 1B3A     		subs	r2, r2, #27
 245:Code\UserApp\Protocol/CmdProtocol.c **** 	uint8 uart_buf[96];
 1017              		.loc 1 245 0
 1018 001e 0500     		movs	r5, r0
 1019              	.LVL120:
 259:Code\UserApp\Protocol/CmdProtocol.c **** 	uart_buf[cnt++] = 0x01;
 1020              		.loc 1 259 0
 1021 0020 0A71     		strb	r2, [r1, #4]
 1022              	.LVL121:
 260:Code\UserApp\Protocol/CmdProtocol.c **** 	uart_buf[cnt++] = 0x07;
 1023              		.loc 1 260 0
 1024 0022 4A71     		strb	r2, [r1, #5]
 1025              	.LVL122:
 265:Code\UserApp\Protocol/CmdProtocol.c **** 	}
 1026              		.loc 1 265 0
 1027 0024 3148     		ldr	r0, .L49
ARM GAS  C:\Users\Administrator\AppData\Local\Temp\ccexfbaX.s 			page 50


 1028              	.LVL123:
 261:Code\UserApp\Protocol/CmdProtocol.c **** 	
 1029              		.loc 1 261 0
 1030 0026 0632     		adds	r2, r2, #6
 1031 0028 8A71     		strb	r2, [r1, #6]
 1032              	.LVL124:
 1033              	.L42:
 265:Code\UserApp\Protocol/CmdProtocol.c **** 	}
 1034              		.loc 1 265 0 discriminator 3
 1035 002a 1A00     		movs	r2, r3
 1036 002c C15C     		ldrb	r1, [r0, r3]
 1037 002e 6A44     		add	r2, r2, sp
 1038 0030 0133     		adds	r3, r3, #1
 1039              	.LVL125:
 1040 0032 D171     		strb	r1, [r2, #7]
 263:Code\UserApp\Protocol/CmdProtocol.c **** 	{
 1041              		.loc 1 263 0 discriminator 3
 1042 0034 062B     		cmp	r3, #6
 1043 0036 F8D1     		bne	.L42
 268:Code\UserApp\Protocol/CmdProtocol.c **** 	{
 1044              		.loc 1 268 0
 1045 0038 2800     		movs	r0, r5
 1046 003a FFF7FEFF 		bl	Endpoint_exchange
 1047              	.LVL126:
 270:Code\UserApp\Protocol/CmdProtocol.c **** 		{
 1048              		.loc 1 270 0
 1049 003e 0023     		movs	r3, #0
 1050 0040 A4B2     		uxth	r4, r4
 1051              	.LVL127:
 1052              	.L43:
 270:Code\UserApp\Protocol/CmdProtocol.c **** 		{
 1053              		.loc 1 270 0 is_stmt 0 discriminator 1
 1054 0042 9AB2     		uxth	r2, r3
 1055 0044 9442     		cmp	r4, r2
 1056 0046 05D9     		bls	.L48
 1057              	.LVL128:
 272:Code\UserApp\Protocol/CmdProtocol.c **** 		}
 1058              		.loc 1 272 0 is_stmt 1 discriminator 3
 1059 0048 1A00     		movs	r2, r3
 1060 004a E95C     		ldrb	r1, [r5, r3]
 1061 004c 6A44     		add	r2, r2, sp
 1062 004e 5173     		strb	r1, [r2, #13]
 1063              	.LVL129:
 1064 0050 0133     		adds	r3, r3, #1
 1065              	.LVL130:
 1066 0052 F6E7     		b	.L43
 1067              	.LVL131:
 1068              	.L48:
 276:Code\UserApp\Protocol/CmdProtocol.c **** 	
 1069              		.loc 1 276 0
 1070 0054 2300     		movs	r3, r4
 1071              	.LVL132:
 1072 0056 6A46     		mov	r2, sp
 1073              	.LVL133:
 278:Code\UserApp\Protocol/CmdProtocol.c **** 	uart_buf[cnt++] = pstr->open_time[1];
 1074              		.loc 1 278 0
 1075 0058 6946     		mov	r1, sp
ARM GAS  C:\Users\Administrator\AppData\Local\Temp\ccexfbaX.s 			page 51


 276:Code\UserApp\Protocol/CmdProtocol.c **** 	
 1076              		.loc 1 276 0
 1077 005a 0D33     		adds	r3, r3, #13
 1078 005c D654     		strb	r6, [r2, r3]
 1079              	.LVL134:
 278:Code\UserApp\Protocol/CmdProtocol.c **** 	uart_buf[cnt++] = pstr->open_time[1];
 1080              		.loc 1 278 0
 1081 005e 2A7A     		ldrb	r2, [r5, #8]
 1082 0060 0133     		adds	r3, r3, #1
 1083 0062 CA54     		strb	r2, [r1, r3]
 1084              	.LVL135:
 279:Code\UserApp\Protocol/CmdProtocol.c **** 	uart_buf[cnt++] = pstr->open_time[2];
 1085              		.loc 1 279 0
 1086 0064 6A7A     		ldrb	r2, [r5, #9]
 1087 0066 0133     		adds	r3, r3, #1
 1088 0068 CA54     		strb	r2, [r1, r3]
 1089              	.LVL136:
 280:Code\UserApp\Protocol/CmdProtocol.c **** 	uart_buf[cnt++] = pstr->open_time[3];
 1090              		.loc 1 280 0
 1091 006a AA7A     		ldrb	r2, [r5, #10]
 1092 006c 0133     		adds	r3, r3, #1
 1093 006e CA54     		strb	r2, [r1, r3]
 1094              	.LVL137:
 281:Code\UserApp\Protocol/CmdProtocol.c **** 	
 1095              		.loc 1 281 0
 1096 0070 EA7A     		ldrb	r2, [r5, #11]
 1097 0072 0133     		adds	r3, r3, #1
 1098 0074 CA54     		strb	r2, [r1, r3]
 283:Code\UserApp\Protocol/CmdProtocol.c **** 	LONG2BYTE(time_tmp, time_arr);
 1099              		.loc 1 283 0
 1100 0076 FFF7FEFF 		bl	RTC_GetUnixTime
 1101              	.LVL138:
 285:Code\UserApp\Protocol/CmdProtocol.c **** 	uart_buf[cnt++] = time_arr[1];
 1102              		.loc 1 285 0
 1103 007a 2300     		movs	r3, r4
 1104 007c 6946     		mov	r1, sp
 1105 007e 020E     		lsrs	r2, r0, #24
 1106 0080 1233     		adds	r3, r3, #18
 1107 0082 CA54     		strb	r2, [r1, r3]
 1108              	.LVL139:
 286:Code\UserApp\Protocol/CmdProtocol.c **** 	uart_buf[cnt++] = time_arr[2];
 1109              		.loc 1 286 0
 1110 0084 020C     		lsrs	r2, r0, #16
 1111 0086 0133     		adds	r3, r3, #1
 1112 0088 CA54     		strb	r2, [r1, r3]
 1113              	.LVL140:
 287:Code\UserApp\Protocol/CmdProtocol.c **** 	uart_buf[cnt++] = time_arr[3];
 1114              		.loc 1 287 0
 1115 008a 020A     		lsrs	r2, r0, #8
 1116 008c 0133     		adds	r3, r3, #1
 1117 008e CA54     		strb	r2, [r1, r3]
 1118              	.LVL141:
 288:Code\UserApp\Protocol/CmdProtocol.c **** 	
 1119              		.loc 1 288 0
 1120 0090 0133     		adds	r3, r3, #1
 1121 0092 C854     		strb	r0, [r1, r3]
 290:Code\UserApp\Protocol/CmdProtocol.c **** 	uart_buf[cnt++] = (TempCrc >> 8) & 0xFF;
ARM GAS  C:\Users\Administrator\AppData\Local\Temp\ccexfbaX.s 			page 52


 1122              		.loc 1 290 0
 1123 0094 1E21     		movs	r1, #30
 1124 0096 6846     		mov	r0, sp
 1125              	.LVL142:
 1126 0098 FFF7FEFF 		bl	MyCrc16Check
 1127              	.LVL143:
 291:Code\UserApp\Protocol/CmdProtocol.c **** 	uart_buf[cnt++] = TempCrc & 0xFF;
 1128              		.loc 1 291 0
 1129 009c 2300     		movs	r3, r4
 1130 009e 6946     		mov	r1, sp
 1131 00a0 1633     		adds	r3, r3, #22
 1132 00a2 020A     		lsrs	r2, r0, #8
 292:Code\UserApp\Protocol/CmdProtocol.c **** 	
 1133              		.loc 1 292 0
 1134 00a4 1734     		adds	r4, r4, #23
 1135              	.LVL144:
 291:Code\UserApp\Protocol/CmdProtocol.c **** 	uart_buf[cnt++] = TempCrc & 0xFF;
 1136              		.loc 1 291 0
 1137 00a6 CA54     		strb	r2, [r1, r3]
 292:Code\UserApp\Protocol/CmdProtocol.c **** 	
 1138              		.loc 1 292 0
 1139 00a8 0855     		strb	r0, [r1, r4]
 294:Code\UserApp\Protocol/CmdProtocol.c **** 	if ((cur_time + 300) > next_heartbeat_time)					// ä¸‹ä¸€æ¬¡å¿ƒè·³åœ¨5minä»¥å†…					//
 1140              		.loc 1 294 0
 1141 00aa FFF7FEFF 		bl	RTC_GetUnixTime
 1142              	.LVL145:
 295:Code\UserApp\Protocol/CmdProtocol.c **** 	{
 1143              		.loc 1 295 0
 1144 00ae 0200     		movs	r2, r0
 294:Code\UserApp\Protocol/CmdProtocol.c **** 	if ((cur_time + 300) > next_heartbeat_time)					// ä¸‹ä¸€æ¬¡å¿ƒè·³åœ¨5minä»¥å†…					//
 1145              		.loc 1 294 0
 1146 00b0 0F4B     		ldr	r3, .L49+4
 295:Code\UserApp\Protocol/CmdProtocol.c **** 	{
 1147              		.loc 1 295 0
 1148 00b2 2D32     		adds	r2, r2, #45
 294:Code\UserApp\Protocol/CmdProtocol.c **** 	if ((cur_time + 300) > next_heartbeat_time)					// ä¸‹ä¸€æ¬¡å¿ƒè·³åœ¨5minä»¥å†…					//
 1149              		.loc 1 294 0
 1150 00b4 1860     		str	r0, [r3]
 295:Code\UserApp\Protocol/CmdProtocol.c **** 	{
 1151              		.loc 1 295 0
 1152 00b6 0F4B     		ldr	r3, .L49+8
 1153 00b8 FF32     		adds	r2, r2, #255
 1154 00ba 1968     		ldr	r1, [r3]
 1155 00bc 8A42     		cmp	r2, r1
 1156 00be 00D9     		bls	.L45
 297:Code\UserApp\Protocol/CmdProtocol.c **** 	}
 1157              		.loc 1 297 0
 1158 00c0 1A60     		str	r2, [r3]
 1159              	.L45:
 300:Code\UserApp\Protocol/CmdProtocol.c **** 	{
 1160              		.loc 1 300 0
 1161 00c2 0D4B     		ldr	r3, .L49+12
 1162 00c4 3C30     		adds	r0, r0, #60
 1163 00c6 1A68     		ldr	r2, [r3]
 1164 00c8 9042     		cmp	r0, r2
 1165 00ca 00D9     		bls	.L46
 302:Code\UserApp\Protocol/CmdProtocol.c **** 	}
ARM GAS  C:\Users\Administrator\AppData\Local\Temp\ccexfbaX.s 			page 53


 1166              		.loc 1 302 0
 1167 00cc 1860     		str	r0, [r3]
 1168              	.L46:
 310:Code\UserApp\Protocol/CmdProtocol.c **** 	
 1169              		.loc 1 310 0
 1170 00ce 6B46     		mov	r3, sp
 1171 00d0 9978     		ldrb	r1, [r3, #2]
 1172 00d2 DB78     		ldrb	r3, [r3, #3]
 1173 00d4 0902     		lsls	r1, r1, #8
 1174 00d6 0433     		adds	r3, r3, #4
 1175 00d8 C918     		adds	r1, r1, r3
 1176 00da 89B2     		uxth	r1, r1
 1177 00dc 6846     		mov	r0, sp
 1178 00de FFF7FEFF 		bl	GPRS_SendHexDataToServer
 1179              	.LVL146:
 312:Code\UserApp\Protocol/CmdProtocol.c **** 	return 0;
 1180              		.loc 1 312 0
 1181 00e2 0020     		movs	r0, #0
 1182 00e4 054B     		ldr	r3, .L49+16
 1183 00e6 1870     		strb	r0, [r3]
 314:Code\UserApp\Protocol/CmdProtocol.c **** 
 1184              		.loc 1 314 0
 1185 00e8 18B0     		add	sp, sp, #96
 1186              		@ sp needed
 1187              	.LVL147:
 1188 00ea 70BD     		pop	{r4, r5, r6, pc}
 1189              	.L50:
 1190              		.align	2
 1191              	.L49:
 1192 00ec 00000000 		.word	Mac_Addr
 1193 00f0 00000000 		.word	cur_time
 1194 00f4 00000000 		.word	next_heartbeat_time
 1195 00f8 00000000 		.word	next_gprs_upload_time
 1196 00fc 00000000 		.word	uploadpolling_stop
 1197              		.cfi_endproc
 1198              	.LFE67:
 1199              		.size	send_upload_open_info, .-send_upload_open_info
 1200              		.section	.text.send_heartbeat,"ax",%progbits
 1201              		.align	1
 1202              		.global	send_heartbeat
 1203              		.code	16
 1204              		.thumb_func
 1205              		.type	send_heartbeat, %function
 1206              	send_heartbeat:
 1207              	.LFB68:
 325:Code\UserApp\Protocol/CmdProtocol.c **** 	uint8 uart_buf[96];
 1208              		.loc 1 325 0
 1209              		.cfi_startproc
 1210              		@ args = 0, pretend = 0, frame = 96
 1211              		@ frame_needed = 0, uses_anonymous_args = 0
 1212              	.LVL148:
 1213 0000 10B5     		push	{r4, lr}
 1214              		.cfi_def_cfa_offset 8
 1215              		.cfi_offset 4, -8
 1216              		.cfi_offset 14, -4
 1217 0002 98B0     		sub	sp, sp, #96
 1218              		.cfi_def_cfa_offset 104
ARM GAS  C:\Users\Administrator\AppData\Local\Temp\ccexfbaX.s 			page 54


 335:Code\UserApp\Protocol/CmdProtocol.c **** 	uart_buf[cnt++] = 0x3a;
 1219              		.loc 1 335 0
 1220 0004 6A46     		mov	r2, sp
 1221 0006 EF23     		movs	r3, #239
 1222 0008 1370     		strb	r3, [r2]
 1223              	.LVL149:
 336:Code\UserApp\Protocol/CmdProtocol.c **** 	uart_buf[cnt++] = (pack_len >> 8) & 0xFF;					// åŒ…é•¿åº¦é«˜å­—èŠ‚							//
 1224              		.loc 1 336 0
 1225 000a B53B     		subs	r3, r3, #181
 1226 000c 5370     		strb	r3, [r2, #1]
 1227              	.LVL150:
 337:Code\UserApp\Protocol/CmdProtocol.c **** 	uart_buf[cnt++] = pack_len & 0xFF;							// åŒ…é•¿åº¦ä½å­—èŠ‚							//
 1228              		.loc 1 337 0
 1229 000e 0023     		movs	r3, #0
 338:Code\UserApp\Protocol/CmdProtocol.c **** 	uart_buf[cnt++] = 0x01;
 1230              		.loc 1 338 0
 1231 0010 6946     		mov	r1, sp
 337:Code\UserApp\Protocol/CmdProtocol.c **** 	uart_buf[cnt++] = pack_len & 0xFF;							// åŒ…é•¿åº¦ä½å­—èŠ‚							//
 1232              		.loc 1 337 0
 1233 0012 9370     		strb	r3, [r2, #2]
 1234              	.LVL151:
 338:Code\UserApp\Protocol/CmdProtocol.c **** 	uart_buf[cnt++] = 0x01;
 1235              		.loc 1 338 0
 1236 0014 1022     		movs	r2, #16
 1237 0016 CA70     		strb	r2, [r1, #3]
 1238              	.LVL152:
 339:Code\UserApp\Protocol/CmdProtocol.c **** 	uart_buf[cnt++] = 0x01;
 1239              		.loc 1 339 0
 1240 0018 0F3A     		subs	r2, r2, #15
 1241 001a 0A71     		strb	r2, [r1, #4]
 1242              	.LVL153:
 340:Code\UserApp\Protocol/CmdProtocol.c **** 	uart_buf[cnt++] = 0x08;
 1243              		.loc 1 340 0
 1244 001c 4A71     		strb	r2, [r1, #5]
 1245              	.LVL154:
 345:Code\UserApp\Protocol/CmdProtocol.c **** 	}
 1246              		.loc 1 345 0
 1247 001e 154C     		ldr	r4, .L54
 341:Code\UserApp\Protocol/CmdProtocol.c **** 	
 1248              		.loc 1 341 0
 1249 0020 0732     		adds	r2, r2, #7
 1250 0022 8A71     		strb	r2, [r1, #6]
 1251              	.LVL155:
 1252              	.L52:
 345:Code\UserApp\Protocol/CmdProtocol.c **** 	}
 1253              		.loc 1 345 0 discriminator 3
 1254 0024 1A00     		movs	r2, r3
 1255 0026 E15C     		ldrb	r1, [r4, r3]
 1256 0028 6A44     		add	r2, r2, sp
 1257 002a 0133     		adds	r3, r3, #1
 1258              	.LVL156:
 1259 002c D171     		strb	r1, [r2, #7]
 343:Code\UserApp\Protocol/CmdProtocol.c **** 	{
 1260              		.loc 1 343 0 discriminator 3
 1261 002e 062B     		cmp	r3, #6
 1262 0030 F8D1     		bne	.L52
 1263              	.LVL157:
ARM GAS  C:\Users\Administrator\AppData\Local\Temp\ccexfbaX.s 			page 55


 348:Code\UserApp\Protocol/CmdProtocol.c **** 	#if DEF_RSSI
 1264              		.loc 1 348 0
 1265 0032 6B46     		mov	r3, sp
 1266 0034 5873     		strb	r0, [r3, #13]
 354:Code\UserApp\Protocol/CmdProtocol.c **** 	LONG2BYTE(time_tmp, time_arr);
 1267              		.loc 1 354 0
 1268 0036 FFF7FEFF 		bl	RTC_GetUnixTime
 1269              	.LVL158:
 356:Code\UserApp\Protocol/CmdProtocol.c **** 	uart_buf[cnt++] = time_arr[1];
 1270              		.loc 1 356 0
 1271 003a 6A46     		mov	r2, sp
 1272 003c 030E     		lsrs	r3, r0, #24
 1273 003e 9373     		strb	r3, [r2, #14]
 1274              	.LVL159:
 357:Code\UserApp\Protocol/CmdProtocol.c **** 	uart_buf[cnt++] = time_arr[2];
 1275              		.loc 1 357 0
 1276 0040 030C     		lsrs	r3, r0, #16
 1277 0042 D373     		strb	r3, [r2, #15]
 1278              	.LVL160:
 359:Code\UserApp\Protocol/CmdProtocol.c **** 	
 1279              		.loc 1 359 0
 1280 0044 5074     		strb	r0, [r2, #17]
 358:Code\UserApp\Protocol/CmdProtocol.c **** 	uart_buf[cnt++] = time_arr[3];
 1281              		.loc 1 358 0
 1282 0046 030A     		lsrs	r3, r0, #8
 361:Code\UserApp\Protocol/CmdProtocol.c **** 	uart_buf[cnt++] = (TempCrc >> 8) & 0xFF;
 1283              		.loc 1 361 0
 1284 0048 1221     		movs	r1, #18
 1285 004a 6846     		mov	r0, sp
 1286              	.LVL161:
 358:Code\UserApp\Protocol/CmdProtocol.c **** 	uart_buf[cnt++] = time_arr[3];
 1287              		.loc 1 358 0
 1288 004c 1374     		strb	r3, [r2, #16]
 1289              	.LVL162:
 361:Code\UserApp\Protocol/CmdProtocol.c **** 	uart_buf[cnt++] = (TempCrc >> 8) & 0xFF;
 1290              		.loc 1 361 0
 1291 004e FFF7FEFF 		bl	MyCrc16Check
 1292              	.LVL163:
 362:Code\UserApp\Protocol/CmdProtocol.c **** 	uart_buf[cnt++] = TempCrc & 0xFF;
 1293              		.loc 1 362 0
 1294 0052 6A46     		mov	r2, sp
 1295 0054 030A     		lsrs	r3, r0, #8
 1296 0056 9374     		strb	r3, [r2, #18]
 1297              	.LVL164:
 366:Code\UserApp\Protocol/CmdProtocol.c **** 	
 1298              		.loc 1 366 0
 1299 0058 9178     		ldrb	r1, [r2, #2]
 1300 005a D378     		ldrb	r3, [r2, #3]
 1301 005c 0902     		lsls	r1, r1, #8
 1302 005e 0433     		adds	r3, r3, #4
 1303 0060 C918     		adds	r1, r1, r3
 363:Code\UserApp\Protocol/CmdProtocol.c **** 	//DBG_SOFT_PutStr("\nsend_heartbeat:\n");
 1304              		.loc 1 363 0
 1305 0062 D074     		strb	r0, [r2, #19]
 366:Code\UserApp\Protocol/CmdProtocol.c **** 	
 1306              		.loc 1 366 0
 1307 0064 89B2     		uxth	r1, r1
ARM GAS  C:\Users\Administrator\AppData\Local\Temp\ccexfbaX.s 			page 56


 1308 0066 6846     		mov	r0, sp
 1309              	.LVL165:
 1310 0068 FFF7FEFF 		bl	GPRS_SendHexDataToServer
 1311              	.LVL166:
 369:Code\UserApp\Protocol/CmdProtocol.c **** 
 1312              		.loc 1 369 0
 1313 006c 0020     		movs	r0, #0
 1314 006e 18B0     		add	sp, sp, #96
 1315              		@ sp needed
 1316 0070 10BD     		pop	{r4, pc}
 1317              	.L55:
 1318 0072 C046     		.align	2
 1319              	.L54:
 1320 0074 00000000 		.word	Mac_Addr
 1321              		.cfi_endproc
 1322              	.LFE68:
 1323              		.size	send_heartbeat, .-send_heartbeat
 1324              		.section	.text.send_time_adjust,"ax",%progbits
 1325              		.align	1
 1326              		.global	send_time_adjust
 1327              		.code	16
 1328              		.thumb_func
 1329              		.type	send_time_adjust, %function
 1330              	send_time_adjust:
 1331              	.LFB69:
 380:Code\UserApp\Protocol/CmdProtocol.c **** 	uint8 uart_buf[96];
 1332              		.loc 1 380 0
 1333              		.cfi_startproc
 1334              		@ args = 0, pretend = 0, frame = 96
 1335              		@ frame_needed = 0, uses_anonymous_args = 0
 1336              	.LVL167:
 1337 0000 00B5     		push	{lr}
 1338              		.cfi_def_cfa_offset 4
 1339              		.cfi_offset 14, -4
 1340 0002 99B0     		sub	sp, sp, #100
 1341              		.cfi_def_cfa_offset 104
 387:Code\UserApp\Protocol/CmdProtocol.c **** 	uart_buf[cnt++] = 0x3a;
 1342              		.loc 1 387 0
 1343 0004 6A46     		mov	r2, sp
 1344 0006 EF23     		movs	r3, #239
 1345 0008 1370     		strb	r3, [r2]
 1346              	.LVL168:
 388:Code\UserApp\Protocol/CmdProtocol.c **** 	uart_buf[cnt++] = (pack_len >> 8) & 0xFF;					// åŒ…é•¿åº¦é«˜å­—èŠ‚							//
 1347              		.loc 1 388 0
 1348 000a B53B     		subs	r3, r3, #181
 1349 000c 5370     		strb	r3, [r2, #1]
 1350              	.LVL169:
 389:Code\UserApp\Protocol/CmdProtocol.c **** 	uart_buf[cnt++] = pack_len & 0xFF;							// åŒ…é•¿åº¦ä½å­—èŠ‚							//
 1351              		.loc 1 389 0
 1352 000e 0023     		movs	r3, #0
 390:Code\UserApp\Protocol/CmdProtocol.c **** 	uart_buf[cnt++] = 0x01;
 1353              		.loc 1 390 0
 1354 0010 6946     		mov	r1, sp
 389:Code\UserApp\Protocol/CmdProtocol.c **** 	uart_buf[cnt++] = pack_len & 0xFF;							// åŒ…é•¿åº¦ä½å­—èŠ‚							//
 1355              		.loc 1 389 0
 1356 0012 9370     		strb	r3, [r2, #2]
 1357              	.LVL170:
ARM GAS  C:\Users\Administrator\AppData\Local\Temp\ccexfbaX.s 			page 57


 390:Code\UserApp\Protocol/CmdProtocol.c **** 	uart_buf[cnt++] = 0x01;
 1358              		.loc 1 390 0
 1359 0014 0D22     		movs	r2, #13
 1360 0016 CA70     		strb	r2, [r1, #3]
 1361              	.LVL171:
 391:Code\UserApp\Protocol/CmdProtocol.c **** 	uart_buf[cnt++] = 0x01;
 1362              		.loc 1 391 0
 1363 0018 0C3A     		subs	r2, r2, #12
 1364 001a 0A71     		strb	r2, [r1, #4]
 1365              	.LVL172:
 392:Code\UserApp\Protocol/CmdProtocol.c **** 	uart_buf[cnt++] = 0x0A;
 1366              		.loc 1 392 0
 1367 001c 4A71     		strb	r2, [r1, #5]
 1368              	.LVL173:
 397:Code\UserApp\Protocol/CmdProtocol.c **** 	}
 1369              		.loc 1 397 0
 1370 001e 1848     		ldr	r0, .L60
 393:Code\UserApp\Protocol/CmdProtocol.c **** 	
 1371              		.loc 1 393 0
 1372 0020 0932     		adds	r2, r2, #9
 1373 0022 8A71     		strb	r2, [r1, #6]
 1374              	.LVL174:
 1375              	.L57:
 397:Code\UserApp\Protocol/CmdProtocol.c **** 	}
 1376              		.loc 1 397 0 discriminator 3
 1377 0024 1A00     		movs	r2, r3
 1378 0026 C15C     		ldrb	r1, [r0, r3]
 1379 0028 6A44     		add	r2, r2, sp
 1380 002a 0133     		adds	r3, r3, #1
 1381              	.LVL175:
 1382 002c D171     		strb	r1, [r2, #7]
 395:Code\UserApp\Protocol/CmdProtocol.c **** 	{
 1383              		.loc 1 395 0 discriminator 3
 1384 002e 062B     		cmp	r3, #6
 1385 0030 F8D1     		bne	.L57
 1386              	.LVL176:
 400:Code\UserApp\Protocol/CmdProtocol.c **** 	uart_buf[cnt++] = 0xff;
 1387              		.loc 1 400 0
 1388 0032 6A46     		mov	r2, sp
 1389 0034 F933     		adds	r3, r3, #249
 405:Code\UserApp\Protocol/CmdProtocol.c **** 	uart_buf[cnt++] = (TempCrc >> 8) & 0xFF;
 1390              		.loc 1 405 0
 1391 0036 0F21     		movs	r1, #15
 1392 0038 6846     		mov	r0, sp
 400:Code\UserApp\Protocol/CmdProtocol.c **** 	uart_buf[cnt++] = 0xff;
 1393              		.loc 1 400 0
 1394 003a 5373     		strb	r3, [r2, #13]
 1395              	.LVL177:
 401:Code\UserApp\Protocol/CmdProtocol.c **** 	uart_buf[cnt++] = 0xff;
 1396              		.loc 1 401 0
 1397 003c 9373     		strb	r3, [r2, #14]
 1398              	.LVL178:
 402:Code\UserApp\Protocol/CmdProtocol.c **** 	uart_buf[cnt++] = 0xff;
 1399              		.loc 1 402 0
 1400 003e D373     		strb	r3, [r2, #15]
 1401              	.LVL179:
 403:Code\UserApp\Protocol/CmdProtocol.c **** 	
ARM GAS  C:\Users\Administrator\AppData\Local\Temp\ccexfbaX.s 			page 58


 1402              		.loc 1 403 0
 1403 0040 1374     		strb	r3, [r2, #16]
 405:Code\UserApp\Protocol/CmdProtocol.c **** 	uart_buf[cnt++] = (TempCrc >> 8) & 0xFF;
 1404              		.loc 1 405 0
 1405 0042 FFF7FEFF 		bl	MyCrc16Check
 1406              	.LVL180:
 406:Code\UserApp\Protocol/CmdProtocol.c **** 	uart_buf[cnt++] = TempCrc & 0xFF;
 1407              		.loc 1 406 0
 1408 0046 6A46     		mov	r2, sp
 1409 0048 030A     		lsrs	r3, r0, #8
 1410 004a 5374     		strb	r3, [r2, #17]
 1411              	.LVL181:
 407:Code\UserApp\Protocol/CmdProtocol.c **** 	
 1412              		.loc 1 407 0
 1413 004c 9074     		strb	r0, [r2, #18]
 409:Code\UserApp\Protocol/CmdProtocol.c **** 	if ((cur_time + 300) > next_heartbeat_time)					// ä¸‹ä¸€æ¬¡å¿ƒè·³åœ¨5minä»¥å†…					//
 1414              		.loc 1 409 0
 1415 004e FFF7FEFF 		bl	RTC_GetUnixTime
 1416              	.LVL182:
 1417 0052 0C4B     		ldr	r3, .L60+4
 1418 0054 1860     		str	r0, [r3]
 410:Code\UserApp\Protocol/CmdProtocol.c **** 	{
 1419              		.loc 1 410 0
 1420 0056 0C4B     		ldr	r3, .L60+8
 1421 0058 2D30     		adds	r0, r0, #45
 1422 005a 1A68     		ldr	r2, [r3]
 1423 005c FF30     		adds	r0, r0, #255
 1424 005e 9042     		cmp	r0, r2
 1425 0060 00D9     		bls	.L58
 412:Code\UserApp\Protocol/CmdProtocol.c **** 	}
 1426              		.loc 1 412 0
 1427 0062 1860     		str	r0, [r3]
 1428              	.L58:
 414:Code\UserApp\Protocol/CmdProtocol.c **** 	return 0;
 1429              		.loc 1 414 0
 1430 0064 6B46     		mov	r3, sp
 1431 0066 9978     		ldrb	r1, [r3, #2]
 1432 0068 DB78     		ldrb	r3, [r3, #3]
 1433 006a 0902     		lsls	r1, r1, #8
 1434 006c 0433     		adds	r3, r3, #4
 1435 006e C918     		adds	r1, r1, r3
 1436 0070 89B2     		uxth	r1, r1
 1437 0072 6846     		mov	r0, sp
 1438 0074 FFF7FEFF 		bl	GPRS_SendHexDataToServer
 1439              	.LVL183:
 416:Code\UserApp\Protocol/CmdProtocol.c **** 
 1440              		.loc 1 416 0
 1441 0078 0020     		movs	r0, #0
 1442 007a 19B0     		add	sp, sp, #100
 1443              		@ sp needed
 1444 007c 00BD     		pop	{pc}
 1445              	.L61:
 1446 007e C046     		.align	2
 1447              	.L60:
 1448 0080 00000000 		.word	Mac_Addr
 1449 0084 00000000 		.word	cur_time
 1450 0088 00000000 		.word	next_heartbeat_time
ARM GAS  C:\Users\Administrator\AppData\Local\Temp\ccexfbaX.s 			page 59


 1451              		.cfi_endproc
 1452              	.LFE69:
 1453              		.size	send_time_adjust, .-send_time_adjust
 1454              		.section	.text.send_alarm_info,"ax",%progbits
 1455              		.align	1
 1456              		.global	send_alarm_info
 1457              		.code	16
 1458              		.thumb_func
 1459              		.type	send_alarm_info, %function
 1460              	send_alarm_info:
 1461              	.LFB70:
 427:Code\UserApp\Protocol/CmdProtocol.c **** 	uint8 uart_buf[96];
 1462              		.loc 1 427 0
 1463              		.cfi_startproc
 1464              		@ args = 0, pretend = 0, frame = 96
 1465              		@ frame_needed = 0, uses_anonymous_args = 0
 1466              	.LVL184:
 1467 0000 10B5     		push	{r4, lr}
 1468              		.cfi_def_cfa_offset 8
 1469              		.cfi_offset 4, -8
 1470              		.cfi_offset 14, -4
 1471 0002 98B0     		sub	sp, sp, #96
 1472              		.cfi_def_cfa_offset 104
 436:Code\UserApp\Protocol/CmdProtocol.c **** 	uart_buf[cnt++] = 0x3a;
 1473              		.loc 1 436 0
 1474 0004 6A46     		mov	r2, sp
 1475 0006 EF23     		movs	r3, #239
 1476 0008 1370     		strb	r3, [r2]
 1477              	.LVL185:
 437:Code\UserApp\Protocol/CmdProtocol.c **** 	uart_buf[cnt++] = (pack_len >> 8) & 0xFF;					// åŒ…é•¿åº¦é«˜å­—èŠ‚							//
 1478              		.loc 1 437 0
 1479 000a B53B     		subs	r3, r3, #181
 1480 000c 5370     		strb	r3, [r2, #1]
 1481              	.LVL186:
 438:Code\UserApp\Protocol/CmdProtocol.c **** 	uart_buf[cnt++] = pack_len & 0xFF;							// åŒ…é•¿åº¦ä½å­—èŠ‚							//
 1482              		.loc 1 438 0
 1483 000e 0023     		movs	r3, #0
 439:Code\UserApp\Protocol/CmdProtocol.c **** 	uart_buf[cnt++] = 0x01;
 1484              		.loc 1 439 0
 1485 0010 6946     		mov	r1, sp
 438:Code\UserApp\Protocol/CmdProtocol.c **** 	uart_buf[cnt++] = pack_len & 0xFF;							// åŒ…é•¿åº¦ä½å­—èŠ‚							//
 1486              		.loc 1 438 0
 1487 0012 9370     		strb	r3, [r2, #2]
 1488              	.LVL187:
 439:Code\UserApp\Protocol/CmdProtocol.c **** 	uart_buf[cnt++] = 0x01;
 1489              		.loc 1 439 0
 1490 0014 1022     		movs	r2, #16
 1491 0016 CA70     		strb	r2, [r1, #3]
 1492              	.LVL188:
 440:Code\UserApp\Protocol/CmdProtocol.c **** 	uart_buf[cnt++] = 0x01;
 1493              		.loc 1 440 0
 1494 0018 0F3A     		subs	r2, r2, #15
 1495 001a 0A71     		strb	r2, [r1, #4]
 1496              	.LVL189:
 441:Code\UserApp\Protocol/CmdProtocol.c **** 	uart_buf[cnt++] = 0x0B;
 1497              		.loc 1 441 0
 1498 001c 4A71     		strb	r2, [r1, #5]
ARM GAS  C:\Users\Administrator\AppData\Local\Temp\ccexfbaX.s 			page 60


 1499              	.LVL190:
 446:Code\UserApp\Protocol/CmdProtocol.c **** 	}
 1500              		.loc 1 446 0
 1501 001e 1B4C     		ldr	r4, .L66
 442:Code\UserApp\Protocol/CmdProtocol.c **** 	
 1502              		.loc 1 442 0
 1503 0020 0A32     		adds	r2, r2, #10
 1504 0022 8A71     		strb	r2, [r1, #6]
 1505              	.LVL191:
 1506              	.L63:
 446:Code\UserApp\Protocol/CmdProtocol.c **** 	}
 1507              		.loc 1 446 0 discriminator 3
 1508 0024 1A00     		movs	r2, r3
 1509 0026 E15C     		ldrb	r1, [r4, r3]
 1510 0028 6A44     		add	r2, r2, sp
 1511 002a 0133     		adds	r3, r3, #1
 1512              	.LVL192:
 1513 002c D171     		strb	r1, [r2, #7]
 444:Code\UserApp\Protocol/CmdProtocol.c **** 	{
 1514              		.loc 1 444 0 discriminator 3
 1515 002e 062B     		cmp	r3, #6
 1516 0030 F8D1     		bne	.L63
 1517              	.LVL193:
 449:Code\UserApp\Protocol/CmdProtocol.c **** 	
 1518              		.loc 1 449 0
 1519 0032 6B46     		mov	r3, sp
 1520 0034 5873     		strb	r0, [r3, #13]
 451:Code\UserApp\Protocol/CmdProtocol.c **** 	LONG2BYTE(time_tmp, time_arr);
 1521              		.loc 1 451 0
 1522 0036 FFF7FEFF 		bl	RTC_GetUnixTime
 1523              	.LVL194:
 453:Code\UserApp\Protocol/CmdProtocol.c **** 	uart_buf[cnt++] = time_arr[1];
 1524              		.loc 1 453 0
 1525 003a 6A46     		mov	r2, sp
 1526 003c 030E     		lsrs	r3, r0, #24
 1527 003e 9373     		strb	r3, [r2, #14]
 1528              	.LVL195:
 454:Code\UserApp\Protocol/CmdProtocol.c **** 	uart_buf[cnt++] = time_arr[2];
 1529              		.loc 1 454 0
 1530 0040 030C     		lsrs	r3, r0, #16
 1531 0042 D373     		strb	r3, [r2, #15]
 1532              	.LVL196:
 456:Code\UserApp\Protocol/CmdProtocol.c **** 	
 1533              		.loc 1 456 0
 1534 0044 5074     		strb	r0, [r2, #17]
 455:Code\UserApp\Protocol/CmdProtocol.c **** 	uart_buf[cnt++] = time_arr[3];
 1535              		.loc 1 455 0
 1536 0046 030A     		lsrs	r3, r0, #8
 458:Code\UserApp\Protocol/CmdProtocol.c **** 	uart_buf[cnt++] = (TempCrc >> 8) & 0xFF;
 1537              		.loc 1 458 0
 1538 0048 1221     		movs	r1, #18
 1539 004a 6846     		mov	r0, sp
 1540              	.LVL197:
 455:Code\UserApp\Protocol/CmdProtocol.c **** 	uart_buf[cnt++] = time_arr[3];
 1541              		.loc 1 455 0
 1542 004c 1374     		strb	r3, [r2, #16]
 1543              	.LVL198:
ARM GAS  C:\Users\Administrator\AppData\Local\Temp\ccexfbaX.s 			page 61


 458:Code\UserApp\Protocol/CmdProtocol.c **** 	uart_buf[cnt++] = (TempCrc >> 8) & 0xFF;
 1544              		.loc 1 458 0
 1545 004e FFF7FEFF 		bl	MyCrc16Check
 1546              	.LVL199:
 459:Code\UserApp\Protocol/CmdProtocol.c **** 	uart_buf[cnt++] = TempCrc & 0xFF;
 1547              		.loc 1 459 0
 1548 0052 6A46     		mov	r2, sp
 1549 0054 030A     		lsrs	r3, r0, #8
 1550 0056 9374     		strb	r3, [r2, #18]
 1551              	.LVL200:
 460:Code\UserApp\Protocol/CmdProtocol.c **** 	
 1552              		.loc 1 460 0
 1553 0058 D074     		strb	r0, [r2, #19]
 462:Code\UserApp\Protocol/CmdProtocol.c **** 	if ((cur_time + 300) > next_heartbeat_time)					// ä¸‹ä¸€æ¬¡å¿ƒè·³åœ¨5minä»¥å†…					//
 1554              		.loc 1 462 0
 1555 005a FFF7FEFF 		bl	RTC_GetUnixTime
 1556              	.LVL201:
 1557 005e 0C4B     		ldr	r3, .L66+4
 1558 0060 1860     		str	r0, [r3]
 463:Code\UserApp\Protocol/CmdProtocol.c **** 	{
 1559              		.loc 1 463 0
 1560 0062 0C4B     		ldr	r3, .L66+8
 1561 0064 2D30     		adds	r0, r0, #45
 1562 0066 1A68     		ldr	r2, [r3]
 1563 0068 FF30     		adds	r0, r0, #255
 1564 006a 9042     		cmp	r0, r2
 1565 006c 00D9     		bls	.L64
 465:Code\UserApp\Protocol/CmdProtocol.c **** 	}
 1566              		.loc 1 465 0
 1567 006e 1860     		str	r0, [r3]
 1568              	.L64:
 467:Code\UserApp\Protocol/CmdProtocol.c **** 	return 0;
 1569              		.loc 1 467 0
 1570 0070 6B46     		mov	r3, sp
 1571 0072 9978     		ldrb	r1, [r3, #2]
 1572 0074 DB78     		ldrb	r3, [r3, #3]
 1573 0076 0902     		lsls	r1, r1, #8
 1574 0078 0433     		adds	r3, r3, #4
 1575 007a C918     		adds	r1, r1, r3
 1576 007c 89B2     		uxth	r1, r1
 1577 007e 6846     		mov	r0, sp
 1578 0080 FFF7FEFF 		bl	GPRS_SendHexDataToServer
 1579              	.LVL202:
 469:Code\UserApp\Protocol/CmdProtocol.c **** 
 1580              		.loc 1 469 0
 1581 0084 0020     		movs	r0, #0
 1582 0086 18B0     		add	sp, sp, #96
 1583              		@ sp needed
 1584 0088 10BD     		pop	{r4, pc}
 1585              	.L67:
 1586 008a C046     		.align	2
 1587              	.L66:
 1588 008c 00000000 		.word	Mac_Addr
 1589 0090 00000000 		.word	cur_time
 1590 0094 00000000 		.word	next_heartbeat_time
 1591              		.cfi_endproc
 1592              	.LFE70:
ARM GAS  C:\Users\Administrator\AppData\Local\Temp\ccexfbaX.s 			page 62


 1593              		.size	send_alarm_info, .-send_alarm_info
 1594              		.section	.text.send_update_req,"ax",%progbits
 1595              		.align	1
 1596              		.global	send_update_req
 1597              		.code	16
 1598              		.thumb_func
 1599              		.type	send_update_req, %function
 1600              	send_update_req:
 1601              	.LFB71:
 481:Code\UserApp\Protocol/CmdProtocol.c **** 	uint8 uart_buf[96];
 1602              		.loc 1 481 0
 1603              		.cfi_startproc
 1604              		@ args = 0, pretend = 0, frame = 96
 1605              		@ frame_needed = 0, uses_anonymous_args = 0
 1606              	.LVL203:
 1607 0000 10B5     		push	{r4, lr}
 1608              		.cfi_def_cfa_offset 8
 1609              		.cfi_offset 4, -8
 1610              		.cfi_offset 14, -4
 1611 0002 98B0     		sub	sp, sp, #96
 1612              		.cfi_def_cfa_offset 104
 490:Code\UserApp\Protocol/CmdProtocol.c **** 	uart_buf[cnt++] = 0x3a;
 1613              		.loc 1 490 0
 1614 0004 6A46     		mov	r2, sp
 1615 0006 EF23     		movs	r3, #239
 1616 0008 1370     		strb	r3, [r2]
 1617              	.LVL204:
 491:Code\UserApp\Protocol/CmdProtocol.c **** 	uart_buf[cnt++] = (pack_len >> 8) & 0xFF;					// åŒ…é•¿åº¦é«˜å­—èŠ‚							//
 1618              		.loc 1 491 0
 1619 000a B53B     		subs	r3, r3, #181
 1620 000c 5370     		strb	r3, [r2, #1]
 1621              	.LVL205:
 492:Code\UserApp\Protocol/CmdProtocol.c **** 	uart_buf[cnt++] = pack_len & 0xFF;							// åŒ…é•¿åº¦ä½å­—èŠ‚							//
 1622              		.loc 1 492 0
 1623 000e 0023     		movs	r3, #0
 493:Code\UserApp\Protocol/CmdProtocol.c **** 	uart_buf[cnt++] = 0x01;
 1624              		.loc 1 493 0
 1625 0010 6946     		mov	r1, sp
 492:Code\UserApp\Protocol/CmdProtocol.c **** 	uart_buf[cnt++] = pack_len & 0xFF;							// åŒ…é•¿åº¦ä½å­—èŠ‚							//
 1626              		.loc 1 492 0
 1627 0012 9370     		strb	r3, [r2, #2]
 1628              	.LVL206:
 493:Code\UserApp\Protocol/CmdProtocol.c **** 	uart_buf[cnt++] = 0x01;
 1629              		.loc 1 493 0
 1630 0014 1322     		movs	r2, #19
 1631 0016 CA70     		strb	r2, [r1, #3]
 1632              	.LVL207:
 494:Code\UserApp\Protocol/CmdProtocol.c **** 	uart_buf[cnt++] = 0x01;
 1633              		.loc 1 494 0
 1634 0018 123A     		subs	r2, r2, #18
 1635 001a 0A71     		strb	r2, [r1, #4]
 1636              	.LVL208:
 495:Code\UserApp\Protocol/CmdProtocol.c **** 	uart_buf[cnt++] = 0x0F;
 1637              		.loc 1 495 0
 1638 001c 4A71     		strb	r2, [r1, #5]
 1639              	.LVL209:
 500:Code\UserApp\Protocol/CmdProtocol.c **** 	}
ARM GAS  C:\Users\Administrator\AppData\Local\Temp\ccexfbaX.s 			page 63


 1640              		.loc 1 500 0
 1641 001e 194C     		ldr	r4, .L71
 496:Code\UserApp\Protocol/CmdProtocol.c **** 	
 1642              		.loc 1 496 0
 1643 0020 0E32     		adds	r2, r2, #14
 1644 0022 8A71     		strb	r2, [r1, #6]
 1645              	.LVL210:
 1646              	.L69:
 500:Code\UserApp\Protocol/CmdProtocol.c **** 	}
 1647              		.loc 1 500 0 discriminator 3
 1648 0024 1A00     		movs	r2, r3
 1649 0026 E15C     		ldrb	r1, [r4, r3]
 1650 0028 6A44     		add	r2, r2, sp
 1651 002a 0133     		adds	r3, r3, #1
 1652              	.LVL211:
 1653 002c D171     		strb	r1, [r2, #7]
 498:Code\UserApp\Protocol/CmdProtocol.c **** 	{
 1654              		.loc 1 498 0 discriminator 3
 1655 002e 062B     		cmp	r3, #6
 1656 0030 F8D1     		bne	.L69
 1657              	.LVL212:
 503:Code\UserApp\Protocol/CmdProtocol.c **** 	uart_buf[cnt++] = page & 0xFF;	
 1658              		.loc 1 503 0
 1659 0032 6A46     		mov	r2, sp
 506:Code\UserApp\Protocol/CmdProtocol.c **** 	uart_buf[cnt++] = update_version & 0xFF;								
 1660              		.loc 1 506 0
 1661 0034 6946     		mov	r1, sp
 503:Code\UserApp\Protocol/CmdProtocol.c **** 	uart_buf[cnt++] = page & 0xFF;	
 1662              		.loc 1 503 0
 1663 0036 030A     		lsrs	r3, r0, #8
 1664 0038 5373     		strb	r3, [r2, #13]
 1665              	.LVL213:
 506:Code\UserApp\Protocol/CmdProtocol.c **** 	uart_buf[cnt++] = update_version & 0xFF;								
 1666              		.loc 1 506 0
 1667 003a 134B     		ldr	r3, .L71+4
 504:Code\UserApp\Protocol/CmdProtocol.c **** 	
 1668              		.loc 1 504 0
 1669 003c 9073     		strb	r0, [r2, #14]
 1670              	.LVL214:
 506:Code\UserApp\Protocol/CmdProtocol.c **** 	uart_buf[cnt++] = update_version & 0xFF;								
 1671              		.loc 1 506 0
 1672 003e 1B88     		ldrh	r3, [r3]
 1673 0040 1A0A     		lsrs	r2, r3, #8
 1674 0042 CA73     		strb	r2, [r1, #15]
 1675              	.LVL215:
 507:Code\UserApp\Protocol/CmdProtocol.c **** 		
 1676              		.loc 1 507 0
 1677 0044 0B74     		strb	r3, [r1, #16]
 509:Code\UserApp\Protocol/CmdProtocol.c **** 	LONG2BYTE(time_tmp, time_arr);
 1678              		.loc 1 509 0
 1679 0046 FFF7FEFF 		bl	RTC_GetUnixTime
 1680              	.LVL216:
 511:Code\UserApp\Protocol/CmdProtocol.c **** 	uart_buf[cnt++] = time_arr[1];
 1681              		.loc 1 511 0
 1682 004a 6A46     		mov	r2, sp
 1683 004c 030E     		lsrs	r3, r0, #24
 1684 004e 5374     		strb	r3, [r2, #17]
ARM GAS  C:\Users\Administrator\AppData\Local\Temp\ccexfbaX.s 			page 64


 1685              	.LVL217:
 512:Code\UserApp\Protocol/CmdProtocol.c **** 	uart_buf[cnt++] = time_arr[2];
 1686              		.loc 1 512 0
 1687 0050 030C     		lsrs	r3, r0, #16
 1688 0052 9374     		strb	r3, [r2, #18]
 1689              	.LVL218:
 514:Code\UserApp\Protocol/CmdProtocol.c **** 
 1690              		.loc 1 514 0
 1691 0054 1075     		strb	r0, [r2, #20]
 513:Code\UserApp\Protocol/CmdProtocol.c **** 	uart_buf[cnt++] = time_arr[3];
 1692              		.loc 1 513 0
 1693 0056 030A     		lsrs	r3, r0, #8
 516:Code\UserApp\Protocol/CmdProtocol.c **** 	uart_buf[cnt++] = (TempCrc >> 8) & 0xFF;
 1694              		.loc 1 516 0
 1695 0058 1521     		movs	r1, #21
 1696 005a 6846     		mov	r0, sp
 1697              	.LVL219:
 513:Code\UserApp\Protocol/CmdProtocol.c **** 	uart_buf[cnt++] = time_arr[3];
 1698              		.loc 1 513 0
 1699 005c D374     		strb	r3, [r2, #19]
 1700              	.LVL220:
 516:Code\UserApp\Protocol/CmdProtocol.c **** 	uart_buf[cnt++] = (TempCrc >> 8) & 0xFF;
 1701              		.loc 1 516 0
 1702 005e FFF7FEFF 		bl	MyCrc16Check
 1703              	.LVL221:
 517:Code\UserApp\Protocol/CmdProtocol.c **** 	uart_buf[cnt++] = TempCrc & 0xFF;
 1704              		.loc 1 517 0
 1705 0062 6A46     		mov	r2, sp
 1706 0064 030A     		lsrs	r3, r0, #8
 1707 0066 5375     		strb	r3, [r2, #21]
 1708              	.LVL222:
 519:Code\UserApp\Protocol/CmdProtocol.c **** 	
 1709              		.loc 1 519 0
 1710 0068 9178     		ldrb	r1, [r2, #2]
 1711 006a D378     		ldrb	r3, [r2, #3]
 1712 006c 0902     		lsls	r1, r1, #8
 1713 006e 0433     		adds	r3, r3, #4
 1714 0070 C918     		adds	r1, r1, r3
 518:Code\UserApp\Protocol/CmdProtocol.c **** 	GPRS_SendHexDataToServer((uint8_t *)uart_buf, ((uart_buf[2] << 8) + uart_buf[3] + 4));
 1715              		.loc 1 518 0
 1716 0072 9075     		strb	r0, [r2, #22]
 519:Code\UserApp\Protocol/CmdProtocol.c **** 	
 1717              		.loc 1 519 0
 1718 0074 89B2     		uxth	r1, r1
 1719 0076 6846     		mov	r0, sp
 1720              	.LVL223:
 1721 0078 FFF7FEFF 		bl	GPRS_SendHexDataToServer
 1722              	.LVL224:
 522:Code\UserApp\Protocol/CmdProtocol.c **** 
 1723              		.loc 1 522 0
 1724 007c 0020     		movs	r0, #0
 1725 007e 18B0     		add	sp, sp, #96
 1726              		@ sp needed
 1727 0080 10BD     		pop	{r4, pc}
 1728              	.L72:
 1729 0082 C046     		.align	2
 1730              	.L71:
ARM GAS  C:\Users\Administrator\AppData\Local\Temp\ccexfbaX.s 			page 65


 1731 0084 00000000 		.word	Mac_Addr
 1732 0088 00000000 		.word	update_version
 1733              		.cfi_endproc
 1734              	.LFE71:
 1735              		.size	send_update_req, .-send_update_req
 1736              		.section	.text.Protocol_CmdRemoteDownload,"ax",%progbits
 1737              		.align	1
 1738              		.code	16
 1739              		.thumb_func
 1740              		.type	Protocol_CmdRemoteDownload, %function
 1741              	Protocol_CmdRemoteDownload:
 1742              	.LFB87:
1414:Code\UserApp\Protocol/CmdProtocol.c **** 	uint8 ReadDataBuf[DATABUF_SIZE];
 1743              		.loc 1 1414 0
 1744              		.cfi_startproc
 1745              		@ args = 0, pretend = 0, frame = 1056
 1746              		@ frame_needed = 0, uses_anonymous_args = 0
 1747              	.LVL225:
 1748 0000 F0B5     		push	{r4, r5, r6, r7, lr}
 1749              		.cfi_def_cfa_offset 20
 1750              		.cfi_offset 4, -20
 1751              		.cfi_offset 5, -16
 1752              		.cfi_offset 6, -12
 1753              		.cfi_offset 7, -8
 1754              		.cfi_offset 14, -4
 1755 0002 3C4C     		ldr	r4, .L83
1421:Code\UserApp\Protocol/CmdProtocol.c **** 	
 1756              		.loc 1 1421 0
 1757 0004 457B     		ldrb	r5, [r0, #13]
 1758 0006 837B     		ldrb	r3, [r0, #14]
1414:Code\UserApp\Protocol/CmdProtocol.c **** 	uint8 ReadDataBuf[DATABUF_SIZE];
 1759              		.loc 1 1414 0
 1760 0008 A544     		add	sp, sp, r4
 1761              		.cfi_def_cfa_offset 1080
1428:Code\UserApp\Protocol/CmdProtocol.c **** 	{
 1762              		.loc 1 1428 0
 1763 000a 3B4C     		ldr	r4, .L83+4
1421:Code\UserApp\Protocol/CmdProtocol.c **** 	
 1764              		.loc 1 1421 0
 1765 000c 2D02     		lsls	r5, r5, #8
 1766 000e 5D19     		adds	r5, r3, r5
1428:Code\UserApp\Protocol/CmdProtocol.c **** 	{
 1767              		.loc 1 1428 0
 1768 0010 2388     		ldrh	r3, [r4]
1421:Code\UserApp\Protocol/CmdProtocol.c **** 	
 1769              		.loc 1 1421 0
 1770 0012 ADB2     		uxth	r5, r5
 1771              	.LVL226:
1428:Code\UserApp\Protocol/CmdProtocol.c **** 	{
 1772              		.loc 1 1428 0
 1773 0014 AB42     		cmp	r3, r5
 1774 0016 01D0     		beq	.L74
1428:Code\UserApp\Protocol/CmdProtocol.c **** 	{
 1775              		.loc 1 1428 0 is_stmt 0 discriminator 1
 1776 0018 002D     		cmp	r5, #0
 1777 001a 58D1     		bne	.L75
 1778              	.L74:
ARM GAS  C:\Users\Administrator\AppData\Local\Temp\ccexfbaX.s 			page 66


1419:Code\UserApp\Protocol/CmdProtocol.c **** 	
 1779              		.loc 1 1419 0 is_stmt 1
 1780 001c 8478     		ldrb	r4, [r0, #2]
 1781 001e C378     		ldrb	r3, [r0, #3]
1430:Code\UserApp\Protocol/CmdProtocol.c **** 		W25QXX_Read(ReadDataBuf, W25X_IMAGESTART_ADDR + update_offset, curr_packet_len);
 1782              		.loc 1 1430 0
 1783 0020 0F30     		adds	r0, r0, #15
 1784              	.LVL227:
 1785 0022 0600     		movs	r6, r0
 1786 0024 354F     		ldr	r7, .L83+8
1419:Code\UserApp\Protocol/CmdProtocol.c **** 	
 1787              		.loc 1 1419 0
 1788 0026 123B     		subs	r3, r3, #18
 1789 0028 2402     		lsls	r4, r4, #8
 1790 002a E418     		adds	r4, r4, r3
1430:Code\UserApp\Protocol/CmdProtocol.c **** 		W25QXX_Read(ReadDataBuf, W25X_IMAGESTART_ADDR + update_offset, curr_packet_len);
 1791              		.loc 1 1430 0
 1792 002c 344A     		ldr	r2, .L83+12
 1793 002e 3B68     		ldr	r3, [r7]
1419:Code\UserApp\Protocol/CmdProtocol.c **** 	
 1794              		.loc 1 1419 0
 1795 0030 A4B2     		uxth	r4, r4
1430:Code\UserApp\Protocol/CmdProtocol.c **** 		W25QXX_Read(ReadDataBuf, W25X_IMAGESTART_ADDR + update_offset, curr_packet_len);
 1796              		.loc 1 1430 0
 1797 0032 9918     		adds	r1, r3, r2
 1798 0034 2200     		movs	r2, r4
 1799 0036 FFF7FEFF 		bl	W25QXX_Write
 1800              	.LVL228:
1431:Code\UserApp\Protocol/CmdProtocol.c **** 		if (memcmp(RecBuf + 15, ReadDataBuf, curr_packet_len) == 0)
 1801              		.loc 1 1431 0
 1802 003a 3B68     		ldr	r3, [r7]
 1803 003c 304A     		ldr	r2, .L83+12
 1804 003e 01A8     		add	r0, sp, #4
 1805 0040 9918     		adds	r1, r3, r2
 1806 0042 2200     		movs	r2, r4
 1807 0044 FFF7FEFF 		bl	W25QXX_Read
 1808              	.LVL229:
1432:Code\UserApp\Protocol/CmdProtocol.c **** 		{
 1809              		.loc 1 1432 0
 1810 0048 3000     		movs	r0, r6
 1811 004a 2200     		movs	r2, r4
 1812 004c 01A9     		add	r1, sp, #4
 1813 004e FFF7FEFF 		bl	memcmp
 1814              	.LVL230:
 1815 0052 061E     		subs	r6, r0, #0
 1816              	.LVL231:
 1817 0054 28D1     		bne	.L76
1434:Code\UserApp\Protocol/CmdProtocol.c **** 			if (recv_page != 0)
 1818              		.loc 1 1434 0
 1819 0056 3B68     		ldr	r3, [r7]
 1820 0058 2A4A     		ldr	r2, .L83+16
 1821 005a E318     		adds	r3, r4, r3
 1822 005c 3B60     		str	r3, [r7]
1435:Code\UserApp\Protocol/CmdProtocol.c **** 			{	
 1823              		.loc 1 1435 0
 1824 005e 002D     		cmp	r5, #0
 1825 0060 0FD0     		beq	.L77
ARM GAS  C:\Users\Administrator\AppData\Local\Temp\ccexfbaX.s 			page 67


1437:Code\UserApp\Protocol/CmdProtocol.c **** 				Image_size += curr_packet_len;
 1826              		.loc 1 1437 0
 1827 0062 254B     		ldr	r3, .L83+4
 1828 0064 1888     		ldrh	r0, [r3]
 1829 0066 0130     		adds	r0, r0, #1
 1830 0068 80B2     		uxth	r0, r0
 1831 006a 1880     		strh	r0, [r3]
1438:Code\UserApp\Protocol/CmdProtocol.c **** 				send_update_req(update_page);
 1832              		.loc 1 1438 0
 1833 006c 1368     		ldr	r3, [r2]
 1834 006e 1C19     		adds	r4, r3, r4
 1835 0070 1460     		str	r4, [r2]
1439:Code\UserApp\Protocol/CmdProtocol.c **** 				update_timeout_time = 10000;
 1836              		.loc 1 1439 0
 1837 0072 FFF7FEFF 		bl	send_update_req
 1838              	.LVL232:
1440:Code\UserApp\Protocol/CmdProtocol.c **** 				update_timeout_count = 0;
 1839              		.loc 1 1440 0
 1840 0076 244B     		ldr	r3, .L83+20
 1841 0078 244A     		ldr	r2, .L83+24
 1842 007a 1A60     		str	r2, [r3]
1441:Code\UserApp\Protocol/CmdProtocol.c **** 			}
 1843              		.loc 1 1441 0
 1844 007c 244B     		ldr	r3, .L83+28
 1845 007e 1E70     		strb	r6, [r3]
 1846 0080 34E0     		b	.L73
 1847              	.L77:
1445:Code\UserApp\Protocol/CmdProtocol.c **** 				data_size[2] = (uint8)(update_offset >> 24);
 1848              		.loc 1 1445 0
 1849 0082 1168     		ldr	r1, [r2]
1451:Code\UserApp\Protocol/CmdProtocol.c **** 				gprs_state = UPDATE_FINISH;
 1850              		.loc 1 1451 0
 1851 0084 6846     		mov	r0, sp
1445:Code\UserApp\Protocol/CmdProtocol.c **** 				data_size[2] = (uint8)(update_offset >> 24);
 1852              		.loc 1 1445 0
 1853 0086 0C19     		adds	r4, r1, r4
1446:Code\UserApp\Protocol/CmdProtocol.c **** 				data_size[3] = (uint8)(update_offset >> 16);	// é«˜ä½åœ¨å[2-3]
 1854              		.loc 1 1446 0
 1855 0088 6946     		mov	r1, sp
1445:Code\UserApp\Protocol/CmdProtocol.c **** 				data_size[2] = (uint8)(update_offset >> 24);
 1856              		.loc 1 1445 0
 1857 008a 1460     		str	r4, [r2]
1446:Code\UserApp\Protocol/CmdProtocol.c **** 				data_size[3] = (uint8)(update_offset >> 16);	// é«˜ä½åœ¨å[2-3]
 1858              		.loc 1 1446 0
 1859 008c 1A0E     		lsrs	r2, r3, #24
 1860 008e 8A70     		strb	r2, [r1, #2]
1447:Code\UserApp\Protocol/CmdProtocol.c **** 				data_size[0] = (uint8)(update_offset >> 8);
 1861              		.loc 1 1447 0
 1862 0090 1A0C     		lsrs	r2, r3, #16
 1863 0092 CA70     		strb	r2, [r1, #3]
1448:Code\UserApp\Protocol/CmdProtocol.c **** 				data_size[1] = (uint8)update_offset;
 1864              		.loc 1 1448 0
 1865 0094 1A0A     		lsrs	r2, r3, #8
 1866 0096 0A70     		strb	r2, [r1]
1449:Code\UserApp\Protocol/CmdProtocol.c **** 				
 1867              		.loc 1 1449 0
 1868 0098 4B70     		strb	r3, [r1, #1]
ARM GAS  C:\Users\Administrator\AppData\Local\Temp\ccexfbaX.s 			page 68


1451:Code\UserApp\Protocol/CmdProtocol.c **** 				gprs_state = UPDATE_FINISH;
 1869              		.loc 1 1451 0
 1870 009a C821     		movs	r1, #200
 1871 009c 0422     		movs	r2, #4
 1872 009e 8902     		lsls	r1, r1, #10
 1873 00a0 FFF7FEFF 		bl	W25QXX_Write
 1874              	.LVL233:
1452:Code\UserApp\Protocol/CmdProtocol.c **** 			}
 1875              		.loc 1 1452 0
 1876 00a4 0B22     		movs	r2, #11
 1877 00a6 0AE0     		b	.L81
 1878              	.L76:
1457:Code\UserApp\Protocol/CmdProtocol.c **** 			if (update_timeout_count >= 3)
 1879              		.loc 1 1457 0
 1880 00a8 194A     		ldr	r2, .L83+28
 1881 00aa 1378     		ldrb	r3, [r2]
 1882 00ac 0133     		adds	r3, r3, #1
 1883 00ae DBB2     		uxtb	r3, r3
 1884 00b0 1370     		strb	r3, [r2]
1458:Code\UserApp\Protocol/CmdProtocol.c **** 			{
 1885              		.loc 1 1458 0
 1886 00b2 022B     		cmp	r3, #2
 1887 00b4 06D9     		bls	.L79
 1888              	.L80:
1460:Code\UserApp\Protocol/CmdProtocol.c **** 				gprs_state = NEED_INIT;
 1889              		.loc 1 1460 0
 1890 00b6 0022     		movs	r2, #0
 1891 00b8 154B     		ldr	r3, .L83+28
 1892 00ba 1A70     		strb	r2, [r3]
1461:Code\UserApp\Protocol/CmdProtocol.c **** 			}
 1893              		.loc 1 1461 0
 1894 00bc 0632     		adds	r2, r2, #6
 1895              	.L81:
 1896 00be 154B     		ldr	r3, .L83+32
 1897 00c0 1A70     		strb	r2, [r3]
 1898 00c2 13E0     		b	.L73
 1899              	.L79:
1465:Code\UserApp\Protocol/CmdProtocol.c **** 				send_update_req(update_page);
 1900              		.loc 1 1465 0
 1901 00c4 FFF7FEFF 		bl	Cmd_Protocol_ParaInit
 1902              	.LVL234:
1466:Code\UserApp\Protocol/CmdProtocol.c **** 				update_timeout_time = 10000;
 1903              		.loc 1 1466 0
 1904 00c8 0B4B     		ldr	r3, .L83+4
 1905 00ca 1888     		ldrh	r0, [r3]
 1906 00cc 09E0     		b	.L82
 1907              	.LVL235:
 1908              	.L75:
1473:Code\UserApp\Protocol/CmdProtocol.c **** 		if (update_timeout_count >= 3)
 1909              		.loc 1 1473 0
 1910 00ce 104A     		ldr	r2, .L83+28
 1911 00d0 1378     		ldrb	r3, [r2]
 1912 00d2 0133     		adds	r3, r3, #1
 1913 00d4 DBB2     		uxtb	r3, r3
 1914 00d6 1370     		strb	r3, [r2]
1474:Code\UserApp\Protocol/CmdProtocol.c **** 		{
 1915              		.loc 1 1474 0
ARM GAS  C:\Users\Administrator\AppData\Local\Temp\ccexfbaX.s 			page 69


 1916 00d8 022B     		cmp	r3, #2
 1917 00da ECD8     		bhi	.L80
1481:Code\UserApp\Protocol/CmdProtocol.c **** 			send_update_req(update_page);
 1918              		.loc 1 1481 0
 1919 00dc FFF7FEFF 		bl	Cmd_Protocol_ParaInit
 1920              	.LVL236:
1482:Code\UserApp\Protocol/CmdProtocol.c **** 			update_timeout_time = 10000;
 1921              		.loc 1 1482 0
 1922 00e0 2088     		ldrh	r0, [r4]
 1923              	.L82:
 1924 00e2 FFF7FEFF 		bl	send_update_req
 1925              	.LVL237:
1483:Code\UserApp\Protocol/CmdProtocol.c **** 		}
 1926              		.loc 1 1483 0
 1927 00e6 094A     		ldr	r2, .L83+24
 1928 00e8 074B     		ldr	r3, .L83+20
 1929 00ea 1A60     		str	r2, [r3]
 1930              	.L73:
1489:Code\UserApp\Protocol/CmdProtocol.c **** 
 1931              		.loc 1 1489 0
 1932 00ec 0A4B     		ldr	r3, .L83+36
 1933 00ee 9D44     		add	sp, sp, r3
 1934              		@ sp needed
 1935              	.LVL238:
 1936 00f0 F0BD     		pop	{r4, r5, r6, r7, pc}
 1937              	.L84:
 1938 00f2 C046     		.align	2
 1939              	.L83:
 1940 00f4 DCFBFFFF 		.word	-1060
 1941 00f8 00000000 		.word	update_page
 1942 00fc 00000000 		.word	update_offset
 1943 0100 00210300 		.word	205056
 1944 0104 00000000 		.word	Image_size
 1945 0108 00000000 		.word	update_timeout_time
 1946 010c 10270000 		.word	10000
 1947 0110 00000000 		.word	update_timeout_count
 1948 0114 00000000 		.word	gprs_state
 1949 0118 24040000 		.word	1060
 1950              		.cfi_endproc
 1951              	.LFE87:
 1952              		.size	Protocol_CmdRemoteDownload, .-Protocol_CmdRemoteDownload
 1953              		.section	.text.Protocol_SendAckPacket,"ax",%progbits
 1954              		.align	1
 1955              		.global	Protocol_SendAckPacket
 1956              		.code	16
 1957              		.thumb_func
 1958              		.type	Protocol_SendAckPacket, %function
 1959              	Protocol_SendAckPacket:
 1960              	.LFB72:
 537:Code\UserApp\Protocol/CmdProtocol.c **** 	uint8 AppResponseBuf[256] = {0};
 1961              		.loc 1 537 0
 1962              		.cfi_startproc
 1963              		@ args = 4, pretend = 0, frame = 264
 1964              		@ frame_needed = 0, uses_anonymous_args = 0
 1965              	.LVL239:
 1966 0000 F0B5     		push	{r4, r5, r6, r7, lr}
 1967              		.cfi_def_cfa_offset 20
ARM GAS  C:\Users\Administrator\AppData\Local\Temp\ccexfbaX.s 			page 70


 1968              		.cfi_offset 4, -20
 1969              		.cfi_offset 5, -16
 1970              		.cfi_offset 6, -12
 1971              		.cfi_offset 7, -8
 1972              		.cfi_offset 14, -4
 1973 0002 C3B0     		sub	sp, sp, #268
 1974              		.cfi_def_cfa_offset 288
 537:Code\UserApp\Protocol/CmdProtocol.c **** 	uint8 AppResponseBuf[256] = {0};
 1975              		.loc 1 537 0
 1976 0004 0092     		str	r2, [sp]
 546:Code\UserApp\Protocol/CmdProtocol.c **** 	AppResponseBuf[NoPtr++] = HEAD_BYTE1;
 1977              		.loc 1 546 0
 1978 0006 8022     		movs	r2, #128
 1979              	.LVL240:
 537:Code\UserApp\Protocol/CmdProtocol.c **** 	uint8 AppResponseBuf[256] = {0};
 1980              		.loc 1 537 0
 1981 0008 0600     		movs	r6, r0
 1982 000a 0C00     		movs	r4, r1
 1983 000c 0193     		str	r3, [sp, #4]
 546:Code\UserApp\Protocol/CmdProtocol.c **** 	AppResponseBuf[NoPtr++] = HEAD_BYTE1;
 1984              		.loc 1 546 0
 1985 000e 5200     		lsls	r2, r2, #1
 537:Code\UserApp\Protocol/CmdProtocol.c **** 	uint8 AppResponseBuf[256] = {0};
 1986              		.loc 1 537 0
 1987 0010 48AB     		add	r3, sp, #288
 1988              	.LVL241:
 546:Code\UserApp\Protocol/CmdProtocol.c **** 	AppResponseBuf[NoPtr++] = HEAD_BYTE1;
 1989              		.loc 1 546 0
 1990 0012 0021     		movs	r1, #0
 1991              	.LVL242:
 1992 0014 02A8     		add	r0, sp, #8
 1993              	.LVL243:
 537:Code\UserApp\Protocol/CmdProtocol.c **** 	uint8 AppResponseBuf[256] = {0};
 1994              		.loc 1 537 0
 1995 0016 1F88     		ldrh	r7, [r3]
 546:Code\UserApp\Protocol/CmdProtocol.c **** 	AppResponseBuf[NoPtr++] = HEAD_BYTE1;
 1996              		.loc 1 546 0
 1997 0018 FFF7FEFF 		bl	memset
 1998              	.LVL244:
 547:Code\UserApp\Protocol/CmdProtocol.c **** 	AppResponseBuf[NoPtr++] = HEAD_BYTE2;
 1999              		.loc 1 547 0
 2000 001c EF23     		movs	r3, #239
 2001 001e 02AA     		add	r2, sp, #8
 545:Code\UserApp\Protocol/CmdProtocol.c **** 	memset(AppResponseBuf, 0, sizeof(AppResponseBuf));
 2002              		.loc 1 545 0
 2003 0020 7D1D     		adds	r5, r7, #5
 547:Code\UserApp\Protocol/CmdProtocol.c **** 	AppResponseBuf[NoPtr++] = HEAD_BYTE2;
 2004              		.loc 1 547 0
 2005 0022 1370     		strb	r3, [r2]
 545:Code\UserApp\Protocol/CmdProtocol.c **** 	memset(AppResponseBuf, 0, sizeof(AppResponseBuf));
 2006              		.loc 1 545 0
 2007 0024 ADB2     		uxth	r5, r5
 2008              	.LVL245:
 548:Code\UserApp\Protocol/CmdProtocol.c **** 	AppResponseBuf[NoPtr++] = (nPacketLen >> 8) & 0xff;
 2009              		.loc 1 548 0
 2010 0026 B53B     		subs	r3, r3, #181
 2011 0028 5370     		strb	r3, [r2, #1]
ARM GAS  C:\Users\Administrator\AppData\Local\Temp\ccexfbaX.s 			page 71


 2012              	.LVL246:
 549:Code\UserApp\Protocol/CmdProtocol.c **** 	AppResponseBuf[NoPtr++] = nPacketLen & 0xff;
 2013              		.loc 1 549 0
 2014 002a 2B0A     		lsrs	r3, r5, #8
 2015 002c 9370     		strb	r3, [r2, #2]
 2016              	.LVL247:
 552:Code\UserApp\Protocol/CmdProtocol.c **** 	AppResponseBuf[NoPtr++] = cCmd;
 2017              		.loc 1 552 0
 2018 002e 0123     		movs	r3, #1
 551:Code\UserApp\Protocol/CmdProtocol.c **** 	AppResponseBuf[NoPtr++] = PROTOCOL_VER; 
 2019              		.loc 1 551 0
 2020 0030 2401     		lsls	r4, r4, #4
 2021 0032 3443     		orrs	r4, r6
 2022 0034 1471     		strb	r4, [r2, #4]
 552:Code\UserApp\Protocol/CmdProtocol.c **** 	AppResponseBuf[NoPtr++] = cCmd;
 2023              		.loc 1 552 0
 2024 0036 5371     		strb	r3, [r2, #5]
 550:Code\UserApp\Protocol/CmdProtocol.c **** 	AppResponseBuf[NoPtr++] = CommChanle | (cPackType << 4);
 2025              		.loc 1 550 0
 2026 0038 D570     		strb	r5, [r2, #3]
 2027              	.LVL248:
 553:Code\UserApp\Protocol/CmdProtocol.c **** 
 2028              		.loc 1 553 0
 2029 003a 1300     		movs	r3, r2
 2030 003c 6A46     		mov	r2, sp
 2031 003e 1278     		ldrb	r2, [r2]
 2032 0040 0724     		movs	r4, #7
 2033 0042 9A71     		strb	r2, [r3, #6]
 561:Code\UserApp\Protocol/CmdProtocol.c **** 	{
 2034              		.loc 1 561 0
 2035 0044 002F     		cmp	r7, #0
 2036 0046 0FD0     		beq	.L86
 2037 0048 0023     		movs	r3, #0
 563:Code\UserApp\Protocol/CmdProtocol.c **** 		{
 2038              		.loc 1 563 0 discriminator 1
 2039 004a FF21     		movs	r1, #255
 2040              	.LVL249:
 2041              	.L87:
 2042 004c 1A00     		movs	r2, r3
 2043 004e DC1D     		adds	r4, r3, #7
 2044 0050 D8B2     		uxtb	r0, r3
 2045 0052 0133     		adds	r3, r3, #1
 2046 0054 A4B2     		uxth	r4, r4
 2047              	.LVL250:
 2048 0056 0A40     		ands	r2, r1
 2049 0058 9BB2     		uxth	r3, r3
 2050 005a 9742     		cmp	r7, r2
 2051 005c 04D9     		bls	.L86
 2052              	.LVL251:
 565:Code\UserApp\Protocol/CmdProtocol.c **** 		}
 2053              		.loc 1 565 0 discriminator 3
 2054 005e 019A     		ldr	r2, [sp, #4]
 2055 0060 125C     		ldrb	r2, [r2, r0]
 2056 0062 02A8     		add	r0, sp, #8
 2057              	.LVL252:
 2058 0064 0255     		strb	r2, [r0, r4]
 2059              	.LVL253:
ARM GAS  C:\Users\Administrator\AppData\Local\Temp\ccexfbaX.s 			page 72


 2060 0066 F1E7     		b	.L87
 2061              	.LVL254:
 2062              	.L86:
 569:Code\UserApp\Protocol/CmdProtocol.c **** 
 2063              		.loc 1 569 0
 2064 0068 2100     		movs	r1, r4
 2065 006a 02A8     		add	r0, sp, #8
 2066 006c FFF7FEFF 		bl	MyCrc16Check
 2067              	.LVL255:
 571:Code\UserApp\Protocol/CmdProtocol.c **** 	AppResponseBuf[NoPtr++] = TempCrc & 0xFF;
 2068              		.loc 1 571 0
 2069 0070 02AA     		add	r2, sp, #8
 2070 0072 030A     		lsrs	r3, r0, #8
 2071 0074 1355     		strb	r3, [r2, r4]
 572:Code\UserApp\Protocol/CmdProtocol.c **** 	
 2072              		.loc 1 572 0
 2073 0076 A51C     		adds	r5, r4, #2
 2074              	.LVL256:
 2075 0078 0134     		adds	r4, r4, #1
 2076              	.LVL257:
 2077 007a A4B2     		uxth	r4, r4
 2078 007c ADB2     		uxth	r5, r5
 2079              	.LVL258:
 2080 007e 1055     		strb	r0, [r2, r4]
 577:Code\UserApp\Protocol/CmdProtocol.c **** 	{
 2081              		.loc 1 577 0
 2082 0080 022E     		cmp	r6, #2
 2083 0082 04D1     		bne	.L89
 579:Code\UserApp\Protocol/CmdProtocol.c ****         #if 0
 2084              		.loc 1 579 0
 2085 0084 2900     		movs	r1, r5
 2086 0086 1000     		movs	r0, r2
 2087              	.LVL259:
 2088 0088 FFF7FEFF 		bl	BleSend
 2089              	.LVL260:
 2090 008c 10E0     		b	.L85
 2091              	.LVL261:
 2092              	.L89:
 587:Code\UserApp\Protocol/CmdProtocol.c **** 	{
 2093              		.loc 1 587 0
 2094 008e 012E     		cmp	r6, #1
 2095 0090 0ED1     		bne	.L85
 589:Code\UserApp\Protocol/CmdProtocol.c **** 		if ((cur_time + 300) > next_heartbeat_time)				// ä¸‹ä¸€æ¬¡å¿ƒè·³åœ¨5minä»¥å†…					//
 2096              		.loc 1 589 0
 2097 0092 FFF7FEFF 		bl	RTC_GetUnixTime
 2098              	.LVL262:
 2099 0096 074B     		ldr	r3, .L94
 2100 0098 1860     		str	r0, [r3]
 590:Code\UserApp\Protocol/CmdProtocol.c **** 		{
 2101              		.loc 1 590 0
 2102 009a 074B     		ldr	r3, .L94+4
 2103 009c 2D30     		adds	r0, r0, #45
 2104 009e 1A68     		ldr	r2, [r3]
 2105 00a0 FF30     		adds	r0, r0, #255
 2106 00a2 9042     		cmp	r0, r2
 2107 00a4 00D9     		bls	.L91
 592:Code\UserApp\Protocol/CmdProtocol.c **** 		}
ARM GAS  C:\Users\Administrator\AppData\Local\Temp\ccexfbaX.s 			page 73


 2108              		.loc 1 592 0
 2109 00a6 1860     		str	r0, [r3]
 2110              	.L91:
 594:Code\UserApp\Protocol/CmdProtocol.c **** 	}
 2111              		.loc 1 594 0
 2112 00a8 2900     		movs	r1, r5
 2113 00aa 02A8     		add	r0, sp, #8
 2114 00ac FFF7FEFF 		bl	GPRS_SendHexDataToServer
 2115              	.LVL263:
 2116              	.L85:
 596:Code\UserApp\Protocol/CmdProtocol.c **** 
 2117              		.loc 1 596 0
 2118 00b0 43B0     		add	sp, sp, #268
 2119              		@ sp needed
 2120              	.LVL264:
 2121              	.LVL265:
 2122 00b2 F0BD     		pop	{r4, r5, r6, r7, pc}
 2123              	.L95:
 2124              		.align	2
 2125              	.L94:
 2126 00b4 00000000 		.word	cur_time
 2127 00b8 00000000 		.word	next_heartbeat_time
 2128              		.cfi_endproc
 2129              	.LFE72:
 2130              		.size	Protocol_SendAckPacket, .-Protocol_SendAckPacket
 2131              		.section	.text.Protocol_CmdReadUID,"ax",%progbits
 2132              		.align	1
 2133              		.code	16
 2134              		.thumb_func
 2135              		.type	Protocol_CmdReadUID, %function
 2136              	Protocol_CmdReadUID:
 2137              	.LFB75:
 718:Code\UserApp\Protocol/CmdProtocol.c **** 	uint8 ret;
 2138              		.loc 1 718 0
 2139              		.cfi_startproc
 2140              		@ args = 0, pretend = 0, frame = 80
 2141              		@ frame_needed = 0, uses_anonymous_args = 0
 2142              	.LVL266:
 2143 0000 F0B5     		push	{r4, r5, r6, r7, lr}
 2144              		.cfi_def_cfa_offset 20
 2145              		.cfi_offset 4, -20
 2146              		.cfi_offset 5, -16
 2147              		.cfi_offset 6, -12
 2148              		.cfi_offset 7, -8
 2149              		.cfi_offset 14, -4
 2150 0002 0500     		movs	r5, r0
 738:Code\UserApp\Protocol/CmdProtocol.c **** 	DBG_SOFT_PutStr("\nProtocol_CmdReadUID\n");
 2151              		.loc 1 738 0
 2152 0004 0027     		movs	r7, #0
 718:Code\UserApp\Protocol/CmdProtocol.c **** 	uint8 ret;
 2153              		.loc 1 718 0
 2154 0006 97B0     		sub	sp, sp, #92
 2155              		.cfi_def_cfa_offset 112
 2156              	.LVL267:
 722:Code\UserApp\Protocol/CmdProtocol.c **** 	uint8 comm_chanle = RecBuf[4];								// å–å‡ºä¿¡é“å€¼							//
 2157              		.loc 1 722 0
 2158 0008 04AC     		add	r4, sp, #16
ARM GAS  C:\Users\Administrator\AppData\Local\Temp\ccexfbaX.s 			page 74


 2159 000a 0822     		movs	r2, #8
 2160 000c 0021     		movs	r1, #0
 2161 000e 2000     		movs	r0, r4
 2162              	.LVL268:
 2163 0010 FFF7FEFF 		bl	memset
 2164              	.LVL269:
 723:Code\UserApp\Protocol/CmdProtocol.c **** 	uint16 nCmdPackLen;
 2165              		.loc 1 723 0
 2166 0014 2B79     		ldrb	r3, [r5, #4]
 726:Code\UserApp\Protocol/CmdProtocol.c **** 	 
 2167              		.loc 1 726 0
 2168 0016 A978     		ldrb	r1, [r5, #2]
 723:Code\UserApp\Protocol/CmdProtocol.c **** 	uint16 nCmdPackLen;
 2169              		.loc 1 723 0
 2170 0018 0293     		str	r3, [sp, #8]
 2171              	.LVL270:
 726:Code\UserApp\Protocol/CmdProtocol.c **** 	 
 2172              		.loc 1 726 0
 2173 001a EB78     		ldrb	r3, [r5, #3]
 2174 001c 0902     		lsls	r1, r1, #8
 2175 001e 0433     		adds	r3, r3, #4
 2176 0020 C918     		adds	r1, r1, r3
 2177 0022 8BB2     		uxth	r3, r1
 728:Code\UserApp\Protocol/CmdProtocol.c **** 	
 2178              		.loc 1 728 0
 2179 0024 4022     		movs	r2, #64
 2180 0026 0021     		movs	r1, #0
 2181 0028 06A8     		add	r0, sp, #24
 2182              	.LVL271:
 726:Code\UserApp\Protocol/CmdProtocol.c **** 	 
 2183              		.loc 1 726 0
 2184 002a 0393     		str	r3, [sp, #12]
 2185              	.LVL272:
 728:Code\UserApp\Protocol/CmdProtocol.c **** 	
 2186              		.loc 1 728 0
 2187 002c FFF7FEFF 		bl	memset
 2188              	.LVL273:
 732:Code\UserApp\Protocol/CmdProtocol.c **** 	pT += 6;
 2189              		.loc 1 732 0
 2190 0030 E91D     		adds	r1, r5, #7
 2191 0032 0622     		movs	r2, #6
 2192 0034 06A8     		add	r0, sp, #24
 2193              	.LVL274:
 2194 0036 FFF7FEFF 		bl	memcpy
 2195              	.LVL275:
 736:Code\UserApp\Protocol/CmdProtocol.c **** 	wait_timeout = 20000;
 2196              		.loc 1 736 0
 2197 003a 0D20     		movs	r0, #13
 2198 003c FFF7FEFF 		bl	VoicePlay
 2199              	.LVL276:
 737:Code\UserApp\Protocol/CmdProtocol.c **** 	ret = RET_ERR;
 2200              		.loc 1 737 0
 2201 0040 264E     		ldr	r6, .L109
 2202 0042 274B     		ldr	r3, .L109+4
 2203 0044 3360     		str	r3, [r6]
 2204              	.LVL277:
 2205              	.L97:
ARM GAS  C:\Users\Administrator\AppData\Local\Temp\ccexfbaX.s 			page 75


 740:Code\UserApp\Protocol/CmdProtocol.c **** 	{
 2206              		.loc 1 740 0
 2207 0046 3368     		ldr	r3, [r6]
 2208 0048 002B     		cmp	r3, #0
 2209 004a 16D0     		beq	.L100
 742:Code\UserApp\Protocol/CmdProtocol.c **** 		// æ»¤é™¤ä¸å‡†ç¡®çš„å¡ID
 2210              		.loc 1 742 0
 2211 004c 0821     		movs	r1, #8
 2212 004e 2000     		movs	r0, r4
 2213 0050 FFF7FEFF 		bl	detect_nfc_card
 2214              	.LVL278:
 744:Code\UserApp\Protocol/CmdProtocol.c **** 		{
 2215              		.loc 1 744 0
 2216 0054 2278     		ldrb	r2, [r4]
 742:Code\UserApp\Protocol/CmdProtocol.c **** 		// æ»¤é™¤ä¸å‡†ç¡®çš„å¡ID
 2217              		.loc 1 742 0
 2218 0056 0700     		movs	r7, r0
 2219              	.LVL279:
 2220 0058 0300     		movs	r3, r0
 744:Code\UserApp\Protocol/CmdProtocol.c **** 		{
 2221              		.loc 1 744 0
 2222 005a 002A     		cmp	r2, #0
 2223 005c 08D1     		bne	.L98
 744:Code\UserApp\Protocol/CmdProtocol.c **** 		{
 2224              		.loc 1 744 0 is_stmt 0 discriminator 1
 2225 005e 6278     		ldrb	r2, [r4, #1]
 2226 0060 002A     		cmp	r2, #0
 2227 0062 05D1     		bne	.L98
 744:Code\UserApp\Protocol/CmdProtocol.c **** 		{
 2228              		.loc 1 744 0 discriminator 2
 2229 0064 A278     		ldrb	r2, [r4, #2]
 2230 0066 002A     		cmp	r2, #0
 2231 0068 02D1     		bne	.L98
 744:Code\UserApp\Protocol/CmdProtocol.c **** 		{
 2232              		.loc 1 744 0 discriminator 3
 2233 006a E278     		ldrb	r2, [r4, #3]
 2234 006c 002A     		cmp	r2, #0
 2235 006e EAD0     		beq	.L97
 2236              	.L98:
 748:Code\UserApp\Protocol/CmdProtocol.c **** 		{
 2237              		.loc 1 748 0 is_stmt 1
 2238 0070 012B     		cmp	r3, #1
 2239 0072 E8D1     		bne	.L97
 750:Code\UserApp\Protocol/CmdProtocol.c **** 			break;
 2240              		.loc 1 750 0
 2241 0074 0E20     		movs	r0, #14
 2242 0076 FFF7FEFF 		bl	VoicePlay
 2243              	.LVL280:
 2244              	.L100:
 754:Code\UserApp\Protocol/CmdProtocol.c **** 	{	
 2245              		.loc 1 754 0
 2246 007a 3368     		ldr	r3, [r6]
 2247 007c 002B     		cmp	r3, #0
 2248 007e 09D1     		bne	.L102
 756:Code\UserApp\Protocol/CmdProtocol.c **** 		pUID[7] = 0x03;
 2249              		.loc 1 756 0
 2250 0080 0722     		movs	r2, #7
ARM GAS  C:\Users\Administrator\AppData\Local\Temp\ccexfbaX.s 			page 76


 2251 0082 FF21     		movs	r1, #255
 2252 0084 2000     		movs	r0, r4
 2253 0086 FFF7FEFF 		bl	memset
 2254              	.LVL281:
 757:Code\UserApp\Protocol/CmdProtocol.c **** 		VoicePlay((uint8)Sound_TIMEOUT);
 2255              		.loc 1 757 0
 2256 008a 0323     		movs	r3, #3
 758:Code\UserApp\Protocol/CmdProtocol.c **** 	}
 2257              		.loc 1 758 0
 2258 008c 1220     		movs	r0, #18
 757:Code\UserApp\Protocol/CmdProtocol.c **** 		VoicePlay((uint8)Sound_TIMEOUT);
 2259              		.loc 1 757 0
 2260 008e E371     		strb	r3, [r4, #7]
 758:Code\UserApp\Protocol/CmdProtocol.c **** 	}
 2261              		.loc 1 758 0
 2262 0090 FFF7FEFF 		bl	VoicePlay
 2263              	.LVL282:
 2264              	.L102:
 763:Code\UserApp\Protocol/CmdProtocol.c **** 	
 2265              		.loc 1 763 0
 2266 0094 2000     		movs	r0, r4
 2267 0096 FFF7FEFF 		bl	Endpoint_exchange
 2268              	.LVL283:
 765:Code\UserApp\Protocol/CmdProtocol.c **** 	pT += 8;
 2269              		.loc 1 765 0
 2270 009a 1620     		movs	r0, #22
 2271 009c 02AB     		add	r3, sp, #8
 2272              	.LVL284:
 2273 009e 0822     		movs	r2, #8
 2274 00a0 2100     		movs	r1, r4
 2275 00a2 C018     		adds	r0, r0, r3
 2276 00a4 FFF7FEFF 		bl	memcpy
 2277              	.LVL285:
 768:Code\UserApp\Protocol/CmdProtocol.c **** 	pT += 4;
 2278              		.loc 1 768 0
 2279 00a8 1E20     		movs	r0, #30
 2280 00aa 0399     		ldr	r1, [sp, #12]
 2281 00ac 02AB     		add	r3, sp, #8
 2282              	.LVL286:
 2283 00ae 0639     		subs	r1, r1, #6
 2284 00b0 C018     		adds	r0, r0, r3
 2285 00b2 6918     		adds	r1, r5, r1
 2286 00b4 0422     		movs	r2, #4
 2287 00b6 FFF7FEFF 		bl	memcpy
 2288              	.LVL287:
 765:Code\UserApp\Protocol/CmdProtocol.c **** 	pT += 8;
 2289              		.loc 1 765 0
 2290 00ba 06AE     		add	r6, sp, #24
 773:Code\UserApp\Protocol/CmdProtocol.c **** 	}
 2291              		.loc 1 773 0
 2292 00bc 0F23     		movs	r3, #15
 771:Code\UserApp\Protocol/CmdProtocol.c **** 	{
 2293              		.loc 1 771 0
 2294 00be 002F     		cmp	r7, #0
 2295 00c0 00D0     		beq	.L108
 777:Code\UserApp\Protocol/CmdProtocol.c **** 	}
 2296              		.loc 1 777 0
ARM GAS  C:\Users\Administrator\AppData\Local\Temp\ccexfbaX.s 			page 77


 2297 00c2 0123     		movs	r3, #1
 2298              	.L108:
 2299 00c4 B374     		strb	r3, [r6, #18]
 780:Code\UserApp\Protocol/CmdProtocol.c **** 	
 2300              		.loc 1 780 0
 2301 00c6 1323     		movs	r3, #19
 2302 00c8 AA79     		ldrb	r2, [r5, #6]
 2303 00ca 0093     		str	r3, [sp]
 2304 00cc 0121     		movs	r1, #1
 2305 00ce 3300     		movs	r3, r6
 2306 00d0 0298     		ldr	r0, [sp, #8]
 2307 00d2 FFF7FEFF 		bl	Protocol_SendAckPacket
 2308              	.LVL288:
 783:Code\UserApp\Protocol/CmdProtocol.c **** 
 2309              		.loc 1 783 0
 2310 00d6 17B0     		add	sp, sp, #92
 2311              		@ sp needed
 2312              	.LVL289:
 2313              	.LVL290:
 2314 00d8 F0BD     		pop	{r4, r5, r6, r7, pc}
 2315              	.L110:
 2316 00da C046     		.align	2
 2317              	.L109:
 2318 00dc 00000000 		.word	wait_timeout
 2319 00e0 204E0000 		.word	20000
 2320              		.cfi_endproc
 2321              	.LFE75:
 2322              		.size	Protocol_CmdReadUID, .-Protocol_CmdReadUID
 2323              		.section	.text.Protocol_CmdWriteUID,"ax",%progbits
 2324              		.align	1
 2325              		.code	16
 2326              		.thumb_func
 2327              		.type	Protocol_CmdWriteUID, %function
 2328              	Protocol_CmdWriteUID:
 2329              	.LFB76:
 794:Code\UserApp\Protocol/CmdProtocol.c **** 	uint8 DataBuf[64];
 2330              		.loc 1 794 0
 2331              		.cfi_startproc
 2332              		@ args = 0, pretend = 0, frame = 96
 2333              		@ frame_needed = 0, uses_anonymous_args = 0
 2334              	.LVL291:
 2335 0000 F0B5     		push	{r4, r5, r6, r7, lr}
 2336              		.cfi_def_cfa_offset 20
 2337              		.cfi_offset 4, -20
 2338              		.cfi_offset 5, -16
 2339              		.cfi_offset 6, -12
 2340              		.cfi_offset 7, -8
 2341              		.cfi_offset 14, -4
 2342 0002 0400     		movs	r4, r0
 799:Code\UserApp\Protocol/CmdProtocol.c **** 	user_info_t user_info;
 2343              		.loc 1 799 0
 2344 0004 0379     		ldrb	r3, [r0, #4]
 794:Code\UserApp\Protocol/CmdProtocol.c **** 	uint8 DataBuf[64];
 2345              		.loc 1 794 0
 2346 0006 9BB0     		sub	sp, sp, #108
 2347              		.cfi_def_cfa_offset 128
 2348              	.LVL292:
ARM GAS  C:\Users\Administrator\AppData\Local\Temp\ccexfbaX.s 			page 78


 803:Code\UserApp\Protocol/CmdProtocol.c ****     
 2349              		.loc 1 803 0
 2350 0008 8178     		ldrb	r1, [r0, #2]
 799:Code\UserApp\Protocol/CmdProtocol.c **** 	user_info_t user_info;
 2351              		.loc 1 799 0
 2352 000a 0293     		str	r3, [sp, #8]
 2353              	.LVL293:
 803:Code\UserApp\Protocol/CmdProtocol.c ****     
 2354              		.loc 1 803 0
 2355 000c C378     		ldrb	r3, [r0, #3]
 2356 000e 0902     		lsls	r1, r1, #8
 2357 0010 0433     		adds	r3, r3, #4
 2358 0012 C918     		adds	r1, r1, r3
 805:Code\UserApp\Protocol/CmdProtocol.c **** 	memcpy(pT, RecBuf + 7, 6);									// å–å‡ºMACåœ°å€ï¼Œç†è®ºåº”åŠ ä¸ŠMACæ ¡éªŒ		//
 2359              		.loc 1 805 0
 2360 0014 0AAE     		add	r6, sp, #40
 2361              	.LVL294:
 803:Code\UserApp\Protocol/CmdProtocol.c ****     
 2362              		.loc 1 803 0
 2363 0016 8BB2     		uxth	r3, r1
 805:Code\UserApp\Protocol/CmdProtocol.c **** 	memcpy(pT, RecBuf + 7, 6);									// å–å‡ºMACåœ°å€ï¼Œç†è®ºåº”åŠ ä¸ŠMACæ ¡éªŒ		//
 2364              		.loc 1 805 0
 2365 0018 4022     		movs	r2, #64
 2366 001a 0021     		movs	r1, #0
 2367 001c 3000     		movs	r0, r6
 2368              	.LVL295:
 803:Code\UserApp\Protocol/CmdProtocol.c ****     
 2369              		.loc 1 803 0
 2370 001e 0393     		str	r3, [sp, #12]
 2371              	.LVL296:
 809:Code\UserApp\Protocol/CmdProtocol.c **** 	memcpy(pUID, RecBuf + 13, 8);
 2372              		.loc 1 809 0
 2373 0020 2700     		movs	r7, r4
 805:Code\UserApp\Protocol/CmdProtocol.c **** 	memcpy(pT, RecBuf + 7, 6);									// å–å‡ºMACåœ°å€ï¼Œç†è®ºåº”åŠ ä¸ŠMACæ ¡éªŒ		//
 2374              		.loc 1 805 0
 2375 0022 FFF7FEFF 		bl	memset
 2376              	.LVL297:
 806:Code\UserApp\Protocol/CmdProtocol.c **** 	pT += 6;
 2377              		.loc 1 806 0
 2378 0026 E11D     		adds	r1, r4, #7
 2379 0028 0622     		movs	r2, #6
 2380 002a 3000     		movs	r0, r6
 2381 002c FFF7FEFF 		bl	memcpy
 2382              	.LVL298:
 809:Code\UserApp\Protocol/CmdProtocol.c **** 	memcpy(pUID, RecBuf + 13, 8);
 2383              		.loc 1 809 0
 2384 0030 2620     		movs	r0, #38
 2385 0032 02AB     		add	r3, sp, #8
 2386              	.LVL299:
 2387 0034 0D37     		adds	r7, r7, #13
 2388 0036 3900     		movs	r1, r7
 2389 0038 C018     		adds	r0, r0, r3
 810:Code\UserApp\Protocol/CmdProtocol.c **** 	pT += 8;
 2390              		.loc 1 810 0
 2391 003a 05AD     		add	r5, sp, #20
 809:Code\UserApp\Protocol/CmdProtocol.c **** 	memcpy(pUID, RecBuf + 13, 8);
 2392              		.loc 1 809 0
ARM GAS  C:\Users\Administrator\AppData\Local\Temp\ccexfbaX.s 			page 79


 2393 003c 0822     		movs	r2, #8
 2394 003e FFF7FEFF 		bl	memcpy
 2395              	.LVL300:
 810:Code\UserApp\Protocol/CmdProtocol.c **** 	pT += 8;
 2396              		.loc 1 810 0
 2397 0042 3900     		movs	r1, r7
 2398 0044 0822     		movs	r2, #8
 2399 0046 2800     		movs	r0, r5
 2400 0048 FFF7FEFF 		bl	memcpy
 2401              	.LVL301:
 813:Code\UserApp\Protocol/CmdProtocol.c **** 	memcpy(pTime, RecBuf + 21, 4);	
 2402              		.loc 1 813 0
 2403 004c 2E20     		movs	r0, #46
 2404 004e 02AB     		add	r3, sp, #8
 2405              	.LVL302:
 2406 0050 0837     		adds	r7, r7, #8
 2407 0052 C018     		adds	r0, r0, r3
 2408 0054 0422     		movs	r2, #4
 2409 0056 3900     		movs	r1, r7
 2410 0058 FFF7FEFF 		bl	memcpy
 2411              	.LVL303:
 814:Code\UserApp\Protocol/CmdProtocol.c **** 	pT += 4;
 2412              		.loc 1 814 0
 2413 005c 0422     		movs	r2, #4
 2414 005e 3900     		movs	r1, r7
 2415 0060 04A8     		add	r0, sp, #16
 2416 0062 FFF7FEFF 		bl	memcpy
 2417              	.LVL304:
 816:Code\UserApp\Protocol/CmdProtocol.c **** 	pT += 4;
 2418              		.loc 1 816 0
 2419 0066 3220     		movs	r0, #50
 2420 0068 039B     		ldr	r3, [sp, #12]
 2421 006a 0422     		movs	r2, #4
 2422 006c 991F     		subs	r1, r3, #6
 2423 006e 02AB     		add	r3, sp, #8
 2424              	.LVL305:
 2425 0070 6118     		adds	r1, r4, r1
