ARM GAS  C:\Users\Administrator\AppData\Local\Temp\ccnF9OZI.s 			page 1


   1              		.syntax unified
   2              		.cpu cortex-m0
   3              		.fpu softvfp
   4              		.eabi_attribute 20, 1
   5              		.eabi_attribute 21, 1
   6              		.eabi_attribute 23, 3
   7              		.eabi_attribute 24, 1
   8              		.eabi_attribute 25, 1
   9              		.eabi_attribute 26, 1
  10              		.eabi_attribute 30, 4
  11              		.eabi_attribute 34, 0
  12              		.eabi_attribute 18, 4
  13              		.thumb
  14              		.syntax unified
  15              		.file	"crc16check.c"
  16              		.text
  17              	.Ltext0:
  18              		.cfi_sections	.debug_frame
  19              		.section	.text.MyCrc16Check,"ax",%progbits
  20              		.align	1
  21              		.global	MyCrc16Check
  22              		.code	16
  23              		.thumb_func
  24              		.type	MyCrc16Check, %function
  25              	MyCrc16Check:
  26              	.LFB62:
  27              		.file 1 "Code\\Common\\crc16check.c"
   1:Code\Common/crc16check.c **** //-----------------------------------------------------------------------------
   2:Code\Common/crc16check.c **** //	file name:		crc16check.h
   3:Code\Common/crc16check.c **** //	function:		Header file of crc16check.c
   4:Code\Common/crc16check.c **** //	author:			
   5:Code\Common/crc16check.c **** //	date:			
   6:Code\Common/crc16check.c **** //					Copyright(c) ZhiAnTech Coporation,2017
   7:Code\Common/crc16check.c **** //-----------------------------------------------------------------------------
   8:Code\Common/crc16check.c **** #include "crc16check.h"
   9:Code\Common/crc16check.c **** 
  10:Code\Common/crc16check.c **** 
  11:Code\Common/crc16check.c **** 
  12:Code\Common/crc16check.c **** //=================================================================================
  13:Code\Common/crc16check.c **** //function:		生产CRC校验
  14:Code\Common/crc16check.c **** //parameters:    	uint8  MyChar 校验数据
  15:Code\Common/crc16check.c **** //                    int Mylen 数据长度
  16:Code\Common/crc16check.c **** //return value:  	CRC校验
  17:Code\Common/crc16check.c **** //=================================================================================
  18:Code\Common/crc16check.c **** const unsigned int A_VALUE = 0xFFFF;
  19:Code\Common/crc16check.c **** const unsigned int DIV_VALUE = 0x4821;
  20:Code\Common/crc16check.c **** uint32 MyCrc16Check(uint8 *MyChar, uint32 Mylen) 
  21:Code\Common/crc16check.c **** {
  28              		.loc 1 21 0
  29              		.cfi_startproc
  30              		@ args = 0, pretend = 0, frame = 0
  31              		@ frame_needed = 0, uses_anonymous_args = 0
  32              	.LVL0:
  33 0000 70B5     		push	{r4, r5, r6, lr}
  34              		.cfi_def_cfa_offset 16
  35              		.cfi_offset 4, -16
  36              		.cfi_offset 5, -12
ARM GAS  C:\Users\Administrator\AppData\Local\Temp\ccnF9OZI.s 			page 2


  37              		.cfi_offset 6, -8
  38              		.cfi_offset 14, -4
  22:Code\Common/crc16check.c ****     uint32 I, J;
  23:Code\Common/crc16check.c ****     uint32 Crc_Value = A_VALUE;
  24:Code\Common/crc16check.c ****     uint32 My_Check;
  25:Code\Common/crc16check.c ****     for (I = 0; I < Mylen; I++)
  26:Code\Common/crc16check.c ****     {
  27:Code\Common/crc16check.c **** 	    Crc_Value = Crc_Value ^ MyChar[I];
  28:Code\Common/crc16check.c **** 	    for (J = 0; J < 8; J++)
  29:Code\Common/crc16check.c **** 	    {
  30:Code\Common/crc16check.c **** 		    My_Check = Crc_Value & 1;
  39              		.loc 1 30 0
  40 0002 0124     		movs	r4, #1
  41 0004 0300     		movs	r3, r0
  42 0006 4118     		adds	r1, r0, r1
  43              	.LVL1:
  31:Code\Common/crc16check.c **** 		    Crc_Value = Crc_Value >> 1;
  32:Code\Common/crc16check.c **** 		    if (My_Check == 1)
  33:Code\Common/crc16check.c **** 		    {
  34:Code\Common/crc16check.c **** 		    	Crc_Value = Crc_Value ^ DIV_VALUE;
  44              		.loc 1 34 0
  45 0008 094D     		ldr	r5, .L9
  23:Code\Common/crc16check.c ****     uint32 My_Check;
  46              		.loc 1 23 0
  47 000a 0A48     		ldr	r0, .L9+4
  48              	.LVL2:
  49              	.L2:
  25:Code\Common/crc16check.c ****     {
  50              		.loc 1 25 0 discriminator 1
  51 000c 8B42     		cmp	r3, r1
  52 000e 0DD0     		beq	.L8
  27:Code\Common/crc16check.c **** 	    for (J = 0; J < 8; J++)
  53              		.loc 1 27 0
  54 0010 1A78     		ldrb	r2, [r3]
  55 0012 5040     		eors	r0, r2
  56              	.LVL3:
  57 0014 0822     		movs	r2, #8
  58              	.LVL4:
  59              	.L4:
  30:Code\Common/crc16check.c **** 		    Crc_Value = Crc_Value >> 1;
  60              		.loc 1 30 0
  61 0016 0600     		movs	r6, r0
  31:Code\Common/crc16check.c **** 		    if (My_Check == 1)
  62              		.loc 1 31 0
  63 0018 4008     		lsrs	r0, r0, #1
  64              	.LVL5:
  30:Code\Common/crc16check.c **** 		    Crc_Value = Crc_Value >> 1;
  65              		.loc 1 30 0
  66 001a 2640     		ands	r6, r4
  67              	.LVL6:
  32:Code\Common/crc16check.c **** 		    {
  68              		.loc 1 32 0
  69 001c 012E     		cmp	r6, #1
  70 001e 00D1     		bne	.L3
  71              		.loc 1 34 0
  72 0020 6840     		eors	r0, r5
  73              	.LVL7:
ARM GAS  C:\Users\Administrator\AppData\Local\Temp\ccnF9OZI.s 			page 3


  74              	.L3:
  75 0022 013A     		subs	r2, r2, #1
  76              	.LVL8:
  28:Code\Common/crc16check.c **** 	    {
  77              		.loc 1 28 0 discriminator 2
  78 0024 002A     		cmp	r2, #0
  79 0026 F6D1     		bne	.L4
  80              	.LVL9:
  81 0028 0133     		adds	r3, r3, #1
  82              	.LVL10:
  83 002a EFE7     		b	.L2
  84              	.LVL11:
  85              	.L8:
  35:Code\Common/crc16check.c **** 		    }
  36:Code\Common/crc16check.c **** 	    }
  37:Code\Common/crc16check.c ****     }
  38:Code\Common/crc16check.c ****     return Crc_Value;
  39:Code\Common/crc16check.c **** }...
  86              		.loc 1 39 0
  87              		@ sp needed
  88 002c 70BD     		pop	{r4, r5, r6, pc}
  89              	.L10:
  90 002e C046     		.align	2
  91              	.L9:
  92 0030 21480000 		.word	18465
  93 0034 FFFF0000 		.word	65535
  94              		.cfi_endproc
  95              	.LFE62:
  96              		.size	MyCrc16Check, .-MyCrc16Check
  97              		.global	DIV_VALUE
  98              		.global	A_VALUE
  99              		.section	.rodata
 100              		.align	2
 101              		.type	DIV_VALUE, %object
 102              		.size	DIV_VALUE, 4
 103              	DIV_VALUE:
 104 0000 21480000 		.word	18465
 105              		.type	A_VALUE, %object
 106              		.size	A_VALUE, 4
 107              	A_VALUE:
 108 0004 FFFF0000 		.word	65535
 109              		.text
 110              	.Letext0:
 111              		.file 2 "Generated_Source\\PSoC4/cytypes.h"
 112              		.file 3 "Generated_Source\\PSoC4/RTC.h"