ARM GAS  C:\Users\Administrator\AppData\Local\Temp\ccxq4IYd.s 			page 1


   1              		.syntax unified
   2              		.cpu cortex-m0
   3              		.fpu softvfp
   4              		.eabi_attribute 20, 1
   5              		.eabi_attribute 21, 1
   6              		.eabi_attribute 23, 3
   7              		.eabi_attribute 24, 1
   8              		.eabi_attribute 25, 1
   9              		.eabi_attribute 26, 1
  10              		.eabi_attribute 30, 4
  11              		.eabi_attribute 34, 0
  12              		.eabi_attribute 18, 4
  13              		.thumb
  14              		.syntax unified
  15              		.file	"crypt.c"
  16              		.text
  17              	.Ltext0:
  18              		.cfi_sections	.debug_frame
  19              		.section	.text.init_crypt,"ax",%progbits
  20              		.align	1
  21              		.global	init_crypt
  22              		.code	16
  23              		.thumb_func
  24              		.type	init_crypt, %function
  25              	init_crypt:
  26              	.LFB63:
  27              		.file 1 "Code\\Common\\crypt\\crypt.c"
   1:Code\Common\crypt/crypt.c **** #include <string.h>
   2:Code\Common\crypt/crypt.c **** #include <project.h>
   3:Code\Common\crypt/crypt.c **** #include "crypt.h"
   4:Code\Common\crypt/crypt.c **** 
   5:Code\Common\crypt/crypt.c **** #if defined CONFIG_AES_ECB
   6:Code\Common\crypt/crypt.c **** #include "Aesecb.h"
   7:Code\Common\crypt/crypt.c **** #elif defined CONFIG_DES_ECB
   8:Code\Common\crypt/crypt.c **** #include "Desecb.h"
   9:Code\Common\crypt/crypt.c **** #endif
  10:Code\Common\crypt/crypt.c **** 
  11:Code\Common\crypt/crypt.c **** 
  12:Code\Common\crypt/crypt.c **** /***************************************************************************************
  13:Code\Common\crypt/crypt.c **** **@func    init encrypt/decrypt engine
  14:Code\Common\crypt/crypt.c **** ****************************************************************************************/
  15:Code\Common\crypt/crypt.c **** void init_crypt(void)
  16:Code\Common\crypt/crypt.c **** {
  28              		.loc 1 16 0
  29              		.cfi_startproc
  30              		@ args = 0, pretend = 0, frame = 0
  31              		@ frame_needed = 0, uses_anonymous_args = 0
  32 0000 10B5     		push	{r4, lr}
  33              		.cfi_def_cfa_offset 8
  34              		.cfi_offset 4, -8
  35              		.cfi_offset 14, -4
  17:Code\Common\crypt/crypt.c **** #if defined CONFIG_AES_ECB
  18:Code\Common\crypt/crypt.c **** 	bt_lock_open_crypto();
  36              		.loc 1 18 0
  37 0002 FFF7FEFF 		bl	bt_lock_open_crypto
  38              	.LVL0:
  19:Code\Common\crypt/crypt.c **** #endif
ARM GAS  C:\Users\Administrator\AppData\Local\Temp\ccxq4IYd.s 			page 2


  20:Code\Common\crypt/crypt.c **** }
  39              		.loc 1 20 0
  40              		@ sp needed
  41 0006 10BD     		pop	{r4, pc}
  42              		.cfi_endproc
  43              	.LFE63:
  44              		.size	init_crypt, .-init_crypt
  45              		.section	.text.do_crypt,"ax",%progbits
  46              		.align	1
  47              		.global	do_crypt
  48              		.code	16
  49              		.thumb_func
  50              		.type	do_crypt, %function
  51              	do_crypt:
  52              	.LFB64:
  21:Code\Common\crypt/crypt.c **** 
  22:Code\Common\crypt/crypt.c **** /**************************************************************************************
  23:Code\Common\crypt/crypt.c **** **@func     encrypt/decrypt
  24:Code\Common\crypt/crypt.c **** **@key      key for encrypt/decrypt
  25:Code\Common\crypt/crypt.c **** **@in       data to be encrypt or decrypt
  26:Code\Common\crypt/crypt.c **** **@out      data has been encrypt or decrypt
  27:Code\Common\crypt/crypt.c **** **@len      len of data, 16bytes-align
  28:Code\Common\crypt/crypt.c **** **@enc_dec  1 - encrypt, 0 - decrypt
  29:Code\Common\crypt/crypt.c **** ****************************************************************************************/
  30:Code\Common\crypt/crypt.c **** int do_crypt(uint8_t *key, uint8_t *in, uint8_t *out, uint32_t len, uint8_t enc_dec)
  31:Code\Common\crypt/crypt.c **** {
  53              		.loc 1 31 0
  54              		.cfi_startproc
  55              		@ args = 4, pretend = 0, frame = 0
  56              		@ frame_needed = 0, uses_anonymous_args = 0
  57              	.LVL1:
  58 0000 13B5     		push	{r0, r1, r4, lr}
  59              		.cfi_def_cfa_offset 16
  60              		.cfi_offset 0, -16
  61              		.cfi_offset 1, -12
  62              		.cfi_offset 4, -8
  63              		.cfi_offset 14, -4
  64              		.loc 1 31 0
  65 0002 04AC     		add	r4, sp, #16
  66              	.LVL2:
  67 0004 2478     		ldrb	r4, [r4]
  68              	.LVL3:
  32:Code\Common\crypt/crypt.c **** #if defined CONFIG_AES_ECB
  33:Code\Common\crypt/crypt.c **** 	return bt_lock_crypto(key, in, out, len, enc_dec);
  34:Code\Common\crypt/crypt.c **** #elif defined CONFIG_DES_ECB
  35:Code\Common\crypt/crypt.c **** 	DES2_ECB_CTX context;
  36:Code\Common\crypt/crypt.c **** 	DES2_ECBInit(&context, key, key+8, enc_dec);
  37:Code\Common\crypt/crypt.c **** 	return DES2_ECBUpdate(&context, in, out, len);
  38:Code\Common\crypt/crypt.c **** #endif
  39:Code\Common\crypt/crypt.c **** 	return 0;
  40:Code\Common\crypt/crypt.c **** }
  69              		.loc 1 40 0
  70              		@ sp needed
  33:Code\Common\crypt/crypt.c **** #elif defined CONFIG_DES_ECB
  71              		.loc 1 33 0
  72 0006 0094     		str	r4, [sp]
  73 0008 FFF7FEFF 		bl	bt_lock_crypto
ARM GAS  C:\Users\Administrator\AppData\Local\Temp\ccxq4IYd.s 			page 3


  74              	.LVL4:
  75              		.loc 1 40 0
  76 000c 16BD     		pop	{r1, r2, r4, pc}
  77              		.cfi_endproc
  78              	.LFE64:
  79              		.size	do_crypt, .-do_crypt
  80              		.text
  81              	.Letext0:
  82              		.file 2 "c:\\program files (x86)\\cypress\\psoc creator\\4.1\\psoc creator\\import\\gnu\\arm\\5.4.
  83              		.file 3 "c:\\program files (x86)\\cypress\\psoc creator\\4.1\\psoc creator\\import\\gnu\\arm\\5.4.
  84              		.file 4 "Generated_Source\\PSoC4/cytypes.h"
  85              		.file 5 "Code\\Common\\crypt\\Aesecb.h"
  86              		.file 6 "Generated_Source\\PSoC4/RTC.h"