ARM GAS  C:\Users\Administrator\AppData\Local\Temp\ccWmfQyR.s 			page 1


   1              		.syntax unified
   2              		.cpu cortex-m0
   3              		.fpu softvfp
   4              		.eabi_attribute 20, 1
   5              		.eabi_attribute 21, 1
   6              		.eabi_attribute 23, 3
   7              		.eabi_attribute 24, 1
   8              		.eabi_attribute 25, 1
   9              		.eabi_attribute 26, 1
  10              		.eabi_attribute 30, 4
  11              		.eabi_attribute 34, 0
  12              		.eabi_attribute 18, 4
  13              		.thumb
  14              		.syntax unified
  15              		.file	"cyfitter_cfg.c"
  16              		.text
  17              	.Ltext0:
  18              		.cfi_sections	.debug_frame
  19              		.section	.psocinit,"ax",%progbits
  20              		.align	1
  21              		.global	cyfitter_cfg
  22              		.code	16
  23              		.thumb_func
  24              		.type	cyfitter_cfg, %function
  25              	cyfitter_cfg:
  26              	.LFB8:
  27              		.file 1 "Generated_Source\\PSoC4\\cyfitter_cfg.c"
   1:Generated_Source\PSoC4/cyfitter_cfg.c **** 
   2:Generated_Source\PSoC4/cyfitter_cfg.c **** /*******************************************************************************
   3:Generated_Source\PSoC4/cyfitter_cfg.c **** * File Name: cyfitter_cfg.c
   4:Generated_Source\PSoC4/cyfitter_cfg.c **** * 
   5:Generated_Source\PSoC4/cyfitter_cfg.c **** * PSoC Creator  4.1 Update 1
   6:Generated_Source\PSoC4/cyfitter_cfg.c **** *
   7:Generated_Source\PSoC4/cyfitter_cfg.c **** * Description:
   8:Generated_Source\PSoC4/cyfitter_cfg.c **** * This file contains device initialization code.
   9:Generated_Source\PSoC4/cyfitter_cfg.c **** * Except for the user defined sections in CyClockStartupError(), this file should not be modified.
  10:Generated_Source\PSoC4/cyfitter_cfg.c **** * This file is automatically generated by PSoC Creator.
  11:Generated_Source\PSoC4/cyfitter_cfg.c **** *
  12:Generated_Source\PSoC4/cyfitter_cfg.c **** ********************************************************************************
  13:Generated_Source\PSoC4/cyfitter_cfg.c **** * Copyright (c) 2007-2017 Cypress Semiconductor.  All rights reserved.
  14:Generated_Source\PSoC4/cyfitter_cfg.c **** * You may use this file only in accordance with the license, terms, conditions, 
  15:Generated_Source\PSoC4/cyfitter_cfg.c **** * disclaimers, and limitations in the end user license agreement accompanying 
  16:Generated_Source\PSoC4/cyfitter_cfg.c **** * the software package with which this file was provided.
  17:Generated_Source\PSoC4/cyfitter_cfg.c **** ********************************************************************************/
  18:Generated_Source\PSoC4/cyfitter_cfg.c **** 
  19:Generated_Source\PSoC4/cyfitter_cfg.c **** #include <string.h>
  20:Generated_Source\PSoC4/cyfitter_cfg.c **** #include "cytypes.h"
  21:Generated_Source\PSoC4/cyfitter_cfg.c **** #include "cydevice_trm.h"
  22:Generated_Source\PSoC4/cyfitter_cfg.c **** #include "cyfitter.h"
  23:Generated_Source\PSoC4/cyfitter_cfg.c **** #include "CyLib.h"
  24:Generated_Source\PSoC4/cyfitter_cfg.c **** #include "cyfitter_cfg.h"
  25:Generated_Source\PSoC4/cyfitter_cfg.c **** 
  26:Generated_Source\PSoC4/cyfitter_cfg.c **** 
  27:Generated_Source\PSoC4/cyfitter_cfg.c **** #if defined(__GNUC__) || defined(__ARMCC_VERSION)
  28:Generated_Source\PSoC4/cyfitter_cfg.c ****     #define CYPACKED 
  29:Generated_Source\PSoC4/cyfitter_cfg.c ****     #define CYPACKED_ATTR __attribute__ ((packed))
  30:Generated_Source\PSoC4/cyfitter_cfg.c ****     #define CYALIGNED __attribute__ ((aligned))
ARM GAS  C:\Users\Administrator\AppData\Local\Temp\ccWmfQyR.s 			page 2


  31:Generated_Source\PSoC4/cyfitter_cfg.c ****     #define CY_CFG_UNUSED __attribute__ ((unused))
  32:Generated_Source\PSoC4/cyfitter_cfg.c ****     #ifndef CY_CFG_SECTION
  33:Generated_Source\PSoC4/cyfitter_cfg.c ****         #define CY_CFG_SECTION __attribute__ ((section(".psocinit")))
  34:Generated_Source\PSoC4/cyfitter_cfg.c ****     #endif
  35:Generated_Source\PSoC4/cyfitter_cfg.c ****     
  36:Generated_Source\PSoC4/cyfitter_cfg.c ****     #if defined(__ARMCC_VERSION)
  37:Generated_Source\PSoC4/cyfitter_cfg.c ****         #define CY_CFG_MEMORY_BARRIER() __memory_changed()
  38:Generated_Source\PSoC4/cyfitter_cfg.c ****     #else
  39:Generated_Source\PSoC4/cyfitter_cfg.c ****         #define CY_CFG_MEMORY_BARRIER() __sync_synchronize()
  40:Generated_Source\PSoC4/cyfitter_cfg.c ****     #endif
  41:Generated_Source\PSoC4/cyfitter_cfg.c ****     
  42:Generated_Source\PSoC4/cyfitter_cfg.c **** #elif defined(__ICCARM__)
  43:Generated_Source\PSoC4/cyfitter_cfg.c ****     #include <intrinsics.h>
  44:Generated_Source\PSoC4/cyfitter_cfg.c **** 
  45:Generated_Source\PSoC4/cyfitter_cfg.c ****     #define CYPACKED __packed
  46:Generated_Source\PSoC4/cyfitter_cfg.c ****     #define CYPACKED_ATTR 
  47:Generated_Source\PSoC4/cyfitter_cfg.c ****     #define CYALIGNED _Pragma("data_alignment=4")
  48:Generated_Source\PSoC4/cyfitter_cfg.c ****     #define CY_CFG_UNUSED _Pragma("diag_suppress=Pe177")
  49:Generated_Source\PSoC4/cyfitter_cfg.c ****     #define CY_CFG_SECTION _Pragma("location=\".psocinit\"")
  50:Generated_Source\PSoC4/cyfitter_cfg.c ****     
  51:Generated_Source\PSoC4/cyfitter_cfg.c ****     #define CY_CFG_MEMORY_BARRIER() __DMB()
  52:Generated_Source\PSoC4/cyfitter_cfg.c ****     
  53:Generated_Source\PSoC4/cyfitter_cfg.c **** #else
  54:Generated_Source\PSoC4/cyfitter_cfg.c ****     #error Unsupported toolchain
  55:Generated_Source\PSoC4/cyfitter_cfg.c **** #endif
  56:Generated_Source\PSoC4/cyfitter_cfg.c **** 
  57:Generated_Source\PSoC4/cyfitter_cfg.c **** #ifndef CYCODE
  58:Generated_Source\PSoC4/cyfitter_cfg.c ****     #define CYCODE
  59:Generated_Source\PSoC4/cyfitter_cfg.c **** #endif
  60:Generated_Source\PSoC4/cyfitter_cfg.c **** #ifndef CYDATA
  61:Generated_Source\PSoC4/cyfitter_cfg.c ****     #define CYDATA
  62:Generated_Source\PSoC4/cyfitter_cfg.c **** #endif
  63:Generated_Source\PSoC4/cyfitter_cfg.c **** #ifndef CYFAR
  64:Generated_Source\PSoC4/cyfitter_cfg.c ****     #define CYFAR
  65:Generated_Source\PSoC4/cyfitter_cfg.c **** #endif
  66:Generated_Source\PSoC4/cyfitter_cfg.c **** #ifndef CYXDATA
  67:Generated_Source\PSoC4/cyfitter_cfg.c ****     #define CYXDATA
  68:Generated_Source\PSoC4/cyfitter_cfg.c **** #endif
  69:Generated_Source\PSoC4/cyfitter_cfg.c **** 
  70:Generated_Source\PSoC4/cyfitter_cfg.c **** 
  71:Generated_Source\PSoC4/cyfitter_cfg.c **** CY_CFG_UNUSED
  72:Generated_Source\PSoC4/cyfitter_cfg.c **** static void CYMEMZERO(void *s, size_t n);
  73:Generated_Source\PSoC4/cyfitter_cfg.c **** CY_CFG_UNUSED
  74:Generated_Source\PSoC4/cyfitter_cfg.c **** static void CYMEMZERO(void *s, size_t n)
  75:Generated_Source\PSoC4/cyfitter_cfg.c **** {
  76:Generated_Source\PSoC4/cyfitter_cfg.c **** 	(void)memset(s, 0, n);
  77:Generated_Source\PSoC4/cyfitter_cfg.c **** }
  78:Generated_Source\PSoC4/cyfitter_cfg.c **** CY_CFG_UNUSED
  79:Generated_Source\PSoC4/cyfitter_cfg.c **** static void CYCONFIGCPY(void *dest, const void *src, size_t n);
  80:Generated_Source\PSoC4/cyfitter_cfg.c **** CY_CFG_UNUSED
  81:Generated_Source\PSoC4/cyfitter_cfg.c **** static void CYCONFIGCPY(void *dest, const void *src, size_t n)
  82:Generated_Source\PSoC4/cyfitter_cfg.c **** {
  83:Generated_Source\PSoC4/cyfitter_cfg.c **** 	(void)memcpy(dest, src, n);
  84:Generated_Source\PSoC4/cyfitter_cfg.c **** }
  85:Generated_Source\PSoC4/cyfitter_cfg.c **** CY_CFG_UNUSED
  86:Generated_Source\PSoC4/cyfitter_cfg.c **** static void CYCONFIGCPYCODE(void *dest, const void *src, size_t n);
  87:Generated_Source\PSoC4/cyfitter_cfg.c **** CY_CFG_UNUSED
ARM GAS  C:\Users\Administrator\AppData\Local\Temp\ccWmfQyR.s 			page 3


  88:Generated_Source\PSoC4/cyfitter_cfg.c **** static void CYCONFIGCPYCODE(void *dest, const void *src, size_t n)
  89:Generated_Source\PSoC4/cyfitter_cfg.c **** {
  90:Generated_Source\PSoC4/cyfitter_cfg.c **** 	(void)memcpy(dest, src, n);
  91:Generated_Source\PSoC4/cyfitter_cfg.c **** }
  92:Generated_Source\PSoC4/cyfitter_cfg.c **** 
  93:Generated_Source\PSoC4/cyfitter_cfg.c **** 
  94:Generated_Source\PSoC4/cyfitter_cfg.c **** 
  95:Generated_Source\PSoC4/cyfitter_cfg.c **** 
  96:Generated_Source\PSoC4/cyfitter_cfg.c **** /* Clock startup error codes                                                   */
  97:Generated_Source\PSoC4/cyfitter_cfg.c **** #define CYCLOCKSTART_NO_ERROR    0u
  98:Generated_Source\PSoC4/cyfitter_cfg.c **** #define CYCLOCKSTART_XTAL_ERROR  1u
  99:Generated_Source\PSoC4/cyfitter_cfg.c **** #define CYCLOCKSTART_32KHZ_ERROR 2u
 100:Generated_Source\PSoC4/cyfitter_cfg.c **** #define CYCLOCKSTART_PLL_ERROR   3u
 101:Generated_Source\PSoC4/cyfitter_cfg.c **** #define CYCLOCKSTART_FLL_ERROR   4u
 102:Generated_Source\PSoC4/cyfitter_cfg.c **** 
 103:Generated_Source\PSoC4/cyfitter_cfg.c **** 
 104:Generated_Source\PSoC4/cyfitter_cfg.c **** #ifdef CY_NEED_CYCLOCKSTARTUPERROR
 105:Generated_Source\PSoC4/cyfitter_cfg.c **** /*******************************************************************************
 106:Generated_Source\PSoC4/cyfitter_cfg.c **** * Function Name: CyClockStartupError
 107:Generated_Source\PSoC4/cyfitter_cfg.c **** ********************************************************************************
 108:Generated_Source\PSoC4/cyfitter_cfg.c **** * Summary:
 109:Generated_Source\PSoC4/cyfitter_cfg.c **** *  If an error is encountered during clock configuration (crystal startup error,
 110:Generated_Source\PSoC4/cyfitter_cfg.c **** *  PLL lock error, etc.), the system will end up here.  Unless reimplemented by
 111:Generated_Source\PSoC4/cyfitter_cfg.c **** *  the customer, this function will stop in an infinite loop.
 112:Generated_Source\PSoC4/cyfitter_cfg.c **** *
 113:Generated_Source\PSoC4/cyfitter_cfg.c **** * Parameters:
 114:Generated_Source\PSoC4/cyfitter_cfg.c **** *   void
 115:Generated_Source\PSoC4/cyfitter_cfg.c **** *
 116:Generated_Source\PSoC4/cyfitter_cfg.c **** * Return:
 117:Generated_Source\PSoC4/cyfitter_cfg.c **** *   void
 118:Generated_Source\PSoC4/cyfitter_cfg.c **** *
 119:Generated_Source\PSoC4/cyfitter_cfg.c **** *******************************************************************************/
 120:Generated_Source\PSoC4/cyfitter_cfg.c **** CY_CFG_UNUSED
 121:Generated_Source\PSoC4/cyfitter_cfg.c **** static void CyClockStartupError(uint8 errorCode);
 122:Generated_Source\PSoC4/cyfitter_cfg.c **** CY_CFG_UNUSED
 123:Generated_Source\PSoC4/cyfitter_cfg.c **** static void CyClockStartupError(uint8 errorCode)
 124:Generated_Source\PSoC4/cyfitter_cfg.c **** {
 125:Generated_Source\PSoC4/cyfitter_cfg.c ****     /* To remove the compiler warning if errorCode not used. */
 126:Generated_Source\PSoC4/cyfitter_cfg.c **** #if defined(CY_PSOC3) && (CY_PSOC3)
 127:Generated_Source\PSoC4/cyfitter_cfg.c ****     errorCode = errorCode;
 128:Generated_Source\PSoC4/cyfitter_cfg.c **** #else
 129:Generated_Source\PSoC4/cyfitter_cfg.c ****     (void)errorCode;
 130:Generated_Source\PSoC4/cyfitter_cfg.c **** #endif /* CY_PSOC3 */
 131:Generated_Source\PSoC4/cyfitter_cfg.c **** 
 132:Generated_Source\PSoC4/cyfitter_cfg.c ****     /* If we have a clock startup error (bad MHz crystal, PLL lock, etc.),  */
 133:Generated_Source\PSoC4/cyfitter_cfg.c ****     /* we will end up here to allow the customer to implement something to  */
 134:Generated_Source\PSoC4/cyfitter_cfg.c ****     /* deal with the clock condition.                                       */
 135:Generated_Source\PSoC4/cyfitter_cfg.c **** 
 136:Generated_Source\PSoC4/cyfitter_cfg.c **** #ifdef CY_CFG_CLOCK_STARTUP_ERROR_CALLBACK
 137:Generated_Source\PSoC4/cyfitter_cfg.c ****     CY_CFG_Clock_Startup_ErrorCallback();
 138:Generated_Source\PSoC4/cyfitter_cfg.c **** #else
 139:Generated_Source\PSoC4/cyfitter_cfg.c ****     /*  If not using CY_CFG_CLOCK_STARTUP_ERROR_CALLBACK, place your clock startup code here. */
 140:Generated_Source\PSoC4/cyfitter_cfg.c ****     /* `#START CyClockStartupError` */
 141:Generated_Source\PSoC4/cyfitter_cfg.c **** 
 142:Generated_Source\PSoC4/cyfitter_cfg.c **** 
 143:Generated_Source\PSoC4/cyfitter_cfg.c **** 
 144:Generated_Source\PSoC4/cyfitter_cfg.c ****     /* `#END` */
ARM GAS  C:\Users\Administrator\AppData\Local\Temp\ccWmfQyR.s 			page 4


 145:Generated_Source\PSoC4/cyfitter_cfg.c **** 
 146:Generated_Source\PSoC4/cyfitter_cfg.c ****     while(1) {}
 147:Generated_Source\PSoC4/cyfitter_cfg.c **** #endif /* CY_CFG_CLOCK_STARTUP_ERROR_CALLBACK */
 148:Generated_Source\PSoC4/cyfitter_cfg.c **** }
 149:Generated_Source\PSoC4/cyfitter_cfg.c **** #endif
 150:Generated_Source\PSoC4/cyfitter_cfg.c **** 
 151:Generated_Source\PSoC4/cyfitter_cfg.c **** #define CY_CFG_BASE_ADDR_COUNT 5u
 152:Generated_Source\PSoC4/cyfitter_cfg.c **** CYPACKED typedef struct
 153:Generated_Source\PSoC4/cyfitter_cfg.c **** {
 154:Generated_Source\PSoC4/cyfitter_cfg.c **** 	uint8 offset;
 155:Generated_Source\PSoC4/cyfitter_cfg.c **** 	uint8 value;
 156:Generated_Source\PSoC4/cyfitter_cfg.c **** } CYPACKED_ATTR cy_cfg_addrvalue_t;
 157:Generated_Source\PSoC4/cyfitter_cfg.c **** 
 158:Generated_Source\PSoC4/cyfitter_cfg.c **** 
 159:Generated_Source\PSoC4/cyfitter_cfg.c **** 
 160:Generated_Source\PSoC4/cyfitter_cfg.c **** /*******************************************************************************
 161:Generated_Source\PSoC4/cyfitter_cfg.c **** * Function Name: cfg_write_bytes32
 162:Generated_Source\PSoC4/cyfitter_cfg.c **** ********************************************************************************
 163:Generated_Source\PSoC4/cyfitter_cfg.c **** * Summary:
 164:Generated_Source\PSoC4/cyfitter_cfg.c **** *  This function is used for setting up the chip configuration areas that
 165:Generated_Source\PSoC4/cyfitter_cfg.c **** *  contain relatively sparse data.
 166:Generated_Source\PSoC4/cyfitter_cfg.c **** *
 167:Generated_Source\PSoC4/cyfitter_cfg.c **** * Parameters:
 168:Generated_Source\PSoC4/cyfitter_cfg.c **** *   void
 169:Generated_Source\PSoC4/cyfitter_cfg.c **** *
 170:Generated_Source\PSoC4/cyfitter_cfg.c **** * Return:
 171:Generated_Source\PSoC4/cyfitter_cfg.c **** *   void
 172:Generated_Source\PSoC4/cyfitter_cfg.c **** *
 173:Generated_Source\PSoC4/cyfitter_cfg.c **** *******************************************************************************/
 174:Generated_Source\PSoC4/cyfitter_cfg.c **** static void cfg_write_bytes32(const uint32 addr_table[], const cy_cfg_addrvalue_t data_table[]);
 175:Generated_Source\PSoC4/cyfitter_cfg.c **** static void cfg_write_bytes32(const uint32 addr_table[], const cy_cfg_addrvalue_t data_table[])
 176:Generated_Source\PSoC4/cyfitter_cfg.c **** {
 177:Generated_Source\PSoC4/cyfitter_cfg.c **** 	/* For 32-bit little-endian architectures */
 178:Generated_Source\PSoC4/cyfitter_cfg.c **** 	uint32 i, j = 0u;
 179:Generated_Source\PSoC4/cyfitter_cfg.c **** 	for (i = 0u; i < CY_CFG_BASE_ADDR_COUNT; i++)
 180:Generated_Source\PSoC4/cyfitter_cfg.c **** 	{
 181:Generated_Source\PSoC4/cyfitter_cfg.c **** 		uint32 baseAddr = addr_table[i];
 182:Generated_Source\PSoC4/cyfitter_cfg.c **** 		uint8 count = (uint8)baseAddr;
 183:Generated_Source\PSoC4/cyfitter_cfg.c **** 		baseAddr &= 0xFFFFFF00u;
 184:Generated_Source\PSoC4/cyfitter_cfg.c **** 		while (count != 0u)
 185:Generated_Source\PSoC4/cyfitter_cfg.c **** 		{
 186:Generated_Source\PSoC4/cyfitter_cfg.c **** 			CY_SET_REG8((void *)(baseAddr + data_table[j].offset), data_table[j].value);
 187:Generated_Source\PSoC4/cyfitter_cfg.c **** 			j++;
 188:Generated_Source\PSoC4/cyfitter_cfg.c **** 			count--;
 189:Generated_Source\PSoC4/cyfitter_cfg.c **** 		}
 190:Generated_Source\PSoC4/cyfitter_cfg.c **** 	}
 191:Generated_Source\PSoC4/cyfitter_cfg.c **** }
 192:Generated_Source\PSoC4/cyfitter_cfg.c **** 
 193:Generated_Source\PSoC4/cyfitter_cfg.c **** 
 194:Generated_Source\PSoC4/cyfitter_cfg.c **** /*******************************************************************************
 195:Generated_Source\PSoC4/cyfitter_cfg.c **** * Function Name: ClockSetup
 196:Generated_Source\PSoC4/cyfitter_cfg.c **** ********************************************************************************
 197:Generated_Source\PSoC4/cyfitter_cfg.c **** *
 198:Generated_Source\PSoC4/cyfitter_cfg.c **** * Summary:
 199:Generated_Source\PSoC4/cyfitter_cfg.c **** *   Performs the initialization of all of the clocks in the device based on the
 200:Generated_Source\PSoC4/cyfitter_cfg.c **** *   settings in the Clock tab of the DWR.  This includes enabling the requested
 201:Generated_Source\PSoC4/cyfitter_cfg.c **** *   clocks and setting the necessary dividers to produce the desired frequency. 
ARM GAS  C:\Users\Administrator\AppData\Local\Temp\ccWmfQyR.s 			page 5


 202:Generated_Source\PSoC4/cyfitter_cfg.c **** *
 203:Generated_Source\PSoC4/cyfitter_cfg.c **** * Parameters:
 204:Generated_Source\PSoC4/cyfitter_cfg.c **** *   void
 205:Generated_Source\PSoC4/cyfitter_cfg.c **** *
 206:Generated_Source\PSoC4/cyfitter_cfg.c **** * Return:
 207:Generated_Source\PSoC4/cyfitter_cfg.c **** *   void
 208:Generated_Source\PSoC4/cyfitter_cfg.c **** *
 209:Generated_Source\PSoC4/cyfitter_cfg.c **** *******************************************************************************/
 210:Generated_Source\PSoC4/cyfitter_cfg.c **** static void ClockSetup(void);
 211:Generated_Source\PSoC4/cyfitter_cfg.c **** CY_CFG_SECTION
 212:Generated_Source\PSoC4/cyfitter_cfg.c **** static void ClockSetup(void)
 213:Generated_Source\PSoC4/cyfitter_cfg.c **** {
 214:Generated_Source\PSoC4/cyfitter_cfg.c **** 
 215:Generated_Source\PSoC4/cyfitter_cfg.c **** 	/* Set Flash Cycles based on max possible frequency in case a glitch occurs during ClockSetup(). *
 216:Generated_Source\PSoC4/cyfitter_cfg.c **** 	CY_SET_REG32((void CYXDATA *)(CYREG_CPUSS_FLASH_CTL), (0x0012u));
 217:Generated_Source\PSoC4/cyfitter_cfg.c **** 
 218:Generated_Source\PSoC4/cyfitter_cfg.c **** 	/* Start the WCO */
 219:Generated_Source\PSoC4/cyfitter_cfg.c **** 	CySysClkWcoStart();
 220:Generated_Source\PSoC4/cyfitter_cfg.c **** 	CyDelayCycles(12000000u); /* WCO may take up to 500ms to start */
 221:Generated_Source\PSoC4/cyfitter_cfg.c **** 	(void)CySysClkWcoSetPowerMode(CY_SYS_CLK_WCO_LPM);    /* Switch to the low power mode */
 222:Generated_Source\PSoC4/cyfitter_cfg.c **** 
 223:Generated_Source\PSoC4/cyfitter_cfg.c **** 	/* Setup and trim IMO based on desired frequency. */
 224:Generated_Source\PSoC4/cyfitter_cfg.c **** 	CySysClkWriteImoFreq(48u);
 225:Generated_Source\PSoC4/cyfitter_cfg.c **** 	/* CYDEV_CLK_ILO_CONFIG Starting address: CYDEV_CLK_ILO_CONFIG */
 226:Generated_Source\PSoC4/cyfitter_cfg.c **** 	CY_SET_REG32((void *)(CYREG_CLK_ILO_CONFIG), 0x80000006u);
 227:Generated_Source\PSoC4/cyfitter_cfg.c **** 
 228:Generated_Source\PSoC4/cyfitter_cfg.c **** 	/* CYDEV_WDT_CONFIG Starting address: CYDEV_WDT_CONFIG */
 229:Generated_Source\PSoC4/cyfitter_cfg.c **** 	CY_SET_REG32((void *)(CYREG_WDT_CONFIG), 0x40000000u);
 230:Generated_Source\PSoC4/cyfitter_cfg.c **** 
 231:Generated_Source\PSoC4/cyfitter_cfg.c **** 
 232:Generated_Source\PSoC4/cyfitter_cfg.c **** 	/* Enable fast start mode for XO */
 233:Generated_Source\PSoC4/cyfitter_cfg.c **** 	CY_SET_REG32((void*)CYREG_BLE_BLERD_BB_XO, CY_GET_REG32((void*)CYREG_BLE_BLERD_BB_XO) | (uint32)0x
 234:Generated_Source\PSoC4/cyfitter_cfg.c **** 	CY_SET_REG32((void *)(CYREG_BLE_BLERD_BB_XO_CAPTRIM), 0x00002D6Au);
 235:Generated_Source\PSoC4/cyfitter_cfg.c **** 	/*Set XTAL(ECO) divider*/
 236:Generated_Source\PSoC4/cyfitter_cfg.c **** 	CY_SET_REG32((void *)(CYREG_BLE_BLESS_XTAL_CLK_DIV_CONFIG), 0x00000000u);
 237:Generated_Source\PSoC4/cyfitter_cfg.c **** 	/* Disable Crystal Stable Interrupt before enabling ECO */
 238:Generated_Source\PSoC4/cyfitter_cfg.c **** 	CY_SET_REG32((void*)CYREG_BLE_BLESS_LL_DSM_CTRL, CY_GET_REG32((void*)CYREG_BLE_BLESS_LL_DSM_CTRL) 
 239:Generated_Source\PSoC4/cyfitter_cfg.c **** 	/* Start the ECO and do not check status since it is not needed for HFCLK */
 240:Generated_Source\PSoC4/cyfitter_cfg.c **** 	(void)CySysClkEcoStart(2000u);
 241:Generated_Source\PSoC4/cyfitter_cfg.c **** 	CyDelayUs(1500u); /* Wait to stabilize */
 242:Generated_Source\PSoC4/cyfitter_cfg.c **** 
 243:Generated_Source\PSoC4/cyfitter_cfg.c **** 	/* Setup phase aligned clocks */
 244:Generated_Source\PSoC4/cyfitter_cfg.c **** 	CY_SET_REG32((void *)CYREG_PERI_DIV_16_CTL2, 0x00002F00u);
 245:Generated_Source\PSoC4/cyfitter_cfg.c **** 	CY_SET_REG32((void *)CYREG_PERI_DIV_CMD, 0x8000FF42u);
 246:Generated_Source\PSoC4/cyfitter_cfg.c **** 	CY_SET_REG32((void *)CYREG_PERI_DIV_16_CTL1, 0x00002F00u);
 247:Generated_Source\PSoC4/cyfitter_cfg.c **** 	CY_SET_REG32((void *)CYREG_PERI_DIV_CMD, 0x8000FF41u);
 248:Generated_Source\PSoC4/cyfitter_cfg.c **** 	CY_SET_REG32((void *)CYREG_PERI_DIV_16_CTL0, 0x00002200u);
 249:Generated_Source\PSoC4/cyfitter_cfg.c **** 	CY_SET_REG32((void *)CYREG_PERI_DIV_CMD, 0x8000FF40u);
 250:Generated_Source\PSoC4/cyfitter_cfg.c **** 
 251:Generated_Source\PSoC4/cyfitter_cfg.c **** 	/* CYDEV_CLK_IMO_CONFIG Starting address: CYDEV_CLK_IMO_CONFIG */
 252:Generated_Source\PSoC4/cyfitter_cfg.c **** 	CY_SET_REG32((void *)(CYREG_CLK_IMO_CONFIG), 0x80000000u);
 253:Generated_Source\PSoC4/cyfitter_cfg.c **** 
 254:Generated_Source\PSoC4/cyfitter_cfg.c **** 	/* CYDEV_CLK_SELECT Starting address: CYDEV_CLK_SELECT */
 255:Generated_Source\PSoC4/cyfitter_cfg.c **** 	CY_SET_REG32((void *)(CYREG_CLK_SELECT), 0x00040000u);
 256:Generated_Source\PSoC4/cyfitter_cfg.c **** 
 257:Generated_Source\PSoC4/cyfitter_cfg.c **** 	/* CYDEV_PERI_PCLK_CTL8 Starting address: CYDEV_PERI_PCLK_CTL8 */
 258:Generated_Source\PSoC4/cyfitter_cfg.c **** 	CY_SET_REG32((void *)(CYREG_PERI_PCLK_CTL8), 0x00000042u);
ARM GAS  C:\Users\Administrator\AppData\Local\Temp\ccWmfQyR.s 			page 6


 259:Generated_Source\PSoC4/cyfitter_cfg.c **** 
 260:Generated_Source\PSoC4/cyfitter_cfg.c **** 	/* CYDEV_PERI_PCLK_CTL7 Starting address: CYDEV_PERI_PCLK_CTL7 */
 261:Generated_Source\PSoC4/cyfitter_cfg.c **** 	CY_SET_REG32((void *)(CYREG_PERI_PCLK_CTL7), 0x00000041u);
 262:Generated_Source\PSoC4/cyfitter_cfg.c **** 
 263:Generated_Source\PSoC4/cyfitter_cfg.c **** 	/* CYDEV_PERI_PCLK_CTL1 Starting address: CYDEV_PERI_PCLK_CTL1 */
 264:Generated_Source\PSoC4/cyfitter_cfg.c **** 	CY_SET_REG32((void *)(CYREG_PERI_PCLK_CTL1), 0x00000040u);
 265:Generated_Source\PSoC4/cyfitter_cfg.c **** 
 266:Generated_Source\PSoC4/cyfitter_cfg.c **** 	CY_SET_REG32((void *)(CYREG_WDT_CONFIG), 0x40000000u);
 267:Generated_Source\PSoC4/cyfitter_cfg.c **** }
 268:Generated_Source\PSoC4/cyfitter_cfg.c **** 
 269:Generated_Source\PSoC4/cyfitter_cfg.c **** 
 270:Generated_Source\PSoC4/cyfitter_cfg.c **** /* Analog API Functions */
 271:Generated_Source\PSoC4/cyfitter_cfg.c **** 
 272:Generated_Source\PSoC4/cyfitter_cfg.c **** 
 273:Generated_Source\PSoC4/cyfitter_cfg.c **** /*******************************************************************************
 274:Generated_Source\PSoC4/cyfitter_cfg.c **** * Function Name: AnalogSetDefault
 275:Generated_Source\PSoC4/cyfitter_cfg.c **** ********************************************************************************
 276:Generated_Source\PSoC4/cyfitter_cfg.c **** *
 277:Generated_Source\PSoC4/cyfitter_cfg.c **** * Summary:
 278:Generated_Source\PSoC4/cyfitter_cfg.c **** *  Sets up the analog portions of the chip to default values based on chip
 279:Generated_Source\PSoC4/cyfitter_cfg.c **** *  configuration options from the project.
 280:Generated_Source\PSoC4/cyfitter_cfg.c **** *
 281:Generated_Source\PSoC4/cyfitter_cfg.c **** * Parameters:
 282:Generated_Source\PSoC4/cyfitter_cfg.c **** *  void
 283:Generated_Source\PSoC4/cyfitter_cfg.c **** *
 284:Generated_Source\PSoC4/cyfitter_cfg.c **** * Return:
 285:Generated_Source\PSoC4/cyfitter_cfg.c **** *  void
 286:Generated_Source\PSoC4/cyfitter_cfg.c **** *
 287:Generated_Source\PSoC4/cyfitter_cfg.c **** *******************************************************************************/
 288:Generated_Source\PSoC4/cyfitter_cfg.c **** static void AnalogSetDefault(void);
 289:Generated_Source\PSoC4/cyfitter_cfg.c **** static void AnalogSetDefault(void)
 290:Generated_Source\PSoC4/cyfitter_cfg.c **** {
 291:Generated_Source\PSoC4/cyfitter_cfg.c **** 	CY_SET_XTND_REG32((void CYFAR *)CYREG_CTBM0_DFT_CTRL, 0x00000003u);
 292:Generated_Source\PSoC4/cyfitter_cfg.c **** 	CY_SET_XTND_REG32((void CYFAR *)CYREG_CTBM1_DFT_CTRL, 0x00000003u);
 293:Generated_Source\PSoC4/cyfitter_cfg.c **** 	CY_SET_XTND_REG32((void CYFAR *)CYREG_PASS_DSAB_DSAB_CTRL, 0x00000000u);
 294:Generated_Source\PSoC4/cyfitter_cfg.c **** }
 295:Generated_Source\PSoC4/cyfitter_cfg.c **** 
 296:Generated_Source\PSoC4/cyfitter_cfg.c **** 
 297:Generated_Source\PSoC4/cyfitter_cfg.c **** 
 298:Generated_Source\PSoC4/cyfitter_cfg.c **** 
 299:Generated_Source\PSoC4/cyfitter_cfg.c **** /*******************************************************************************
 300:Generated_Source\PSoC4/cyfitter_cfg.c **** * Function Name: cyfitter_cfg
 301:Generated_Source\PSoC4/cyfitter_cfg.c **** ********************************************************************************
 302:Generated_Source\PSoC4/cyfitter_cfg.c **** * Summary:
 303:Generated_Source\PSoC4/cyfitter_cfg.c **** *  This function is called by the start-up code for the selected device. It
 304:Generated_Source\PSoC4/cyfitter_cfg.c **** *  performs all of the necessary device configuration based on the design
 305:Generated_Source\PSoC4/cyfitter_cfg.c **** *  settings.  This includes settings from the Design Wide Resources (DWR) such
 306:Generated_Source\PSoC4/cyfitter_cfg.c **** *  as Clocks and Pins as well as any component configuration that is necessary.
 307:Generated_Source\PSoC4/cyfitter_cfg.c **** *
 308:Generated_Source\PSoC4/cyfitter_cfg.c **** * Parameters:
 309:Generated_Source\PSoC4/cyfitter_cfg.c **** *   void
 310:Generated_Source\PSoC4/cyfitter_cfg.c **** *
 311:Generated_Source\PSoC4/cyfitter_cfg.c **** * Return:
 312:Generated_Source\PSoC4/cyfitter_cfg.c **** *   void
 313:Generated_Source\PSoC4/cyfitter_cfg.c **** *
 314:Generated_Source\PSoC4/cyfitter_cfg.c **** *******************************************************************************/
 315:Generated_Source\PSoC4/cyfitter_cfg.c **** CY_CFG_SECTION
ARM GAS  C:\Users\Administrator\AppData\Local\Temp\ccWmfQyR.s 			page 7


 316:Generated_Source\PSoC4/cyfitter_cfg.c **** void cyfitter_cfg(void)
 317:Generated_Source\PSoC4/cyfitter_cfg.c **** {
  28              		.loc 1 317 0
  29              		.cfi_startproc
  30              		@ args = 0, pretend = 0, frame = 16
  31              		@ frame_needed = 0, uses_anonymous_args = 0
  32 0000 F0B5     		push	{r4, r5, r6, r7, lr}
  33              		.cfi_def_cfa_offset 20
  34              		.cfi_offset 4, -20
  35              		.cfi_offset 5, -16
  36              		.cfi_offset 6, -12
  37              		.cfi_offset 7, -8
  38              		.cfi_offset 14, -4
  39 0002 85B0     		sub	sp, sp, #20
  40              		.cfi_def_cfa_offset 40
 318:Generated_Source\PSoC4/cyfitter_cfg.c **** 	/* Disable interrupts by default. Let user enable if/when they want. */
 319:Generated_Source\PSoC4/cyfitter_cfg.c **** 	CyGlobalIntDisable;
  41              		.loc 1 319 0
  42              		.syntax divided
  43              	@ 319 "Generated_Source\PSoC4\cyfitter_cfg.c" 1
  44 0004 72B6     		CPSID   i
  45              	@ 0 "" 2
 320:Generated_Source\PSoC4/cyfitter_cfg.c **** 
 321:Generated_Source\PSoC4/cyfitter_cfg.c **** 	CY_SET_REG32((void *)(CYREG_BLE_BLESS_LL_DSM_CTRL), 0x00000000u);
  46              		.loc 1 321 0
  47              		.thumb
  48              		.syntax unified
  49 0006 0025     		movs	r5, #0
 322:Generated_Source\PSoC4/cyfitter_cfg.c **** 
 323:Generated_Source\PSoC4/cyfitter_cfg.c **** 	/* Enable the clock in the interrupt controller for the routed interrupts */
 324:Generated_Source\PSoC4/cyfitter_cfg.c **** 	CY_SET_REG8((void *)CYREG_UDB_UDBIF_INT_CLK_CTL, 0x01u);
  50              		.loc 1 324 0
  51 0008 0122     		movs	r2, #1
  52 000a 644B     		ldr	r3, .L8
 321:Generated_Source\PSoC4/cyfitter_cfg.c **** 
  53              		.loc 1 321 0
  54 000c 644C     		ldr	r4, .L8+4
  55              	.LBB14:
  56              	.LBB15:
  57              	.LBB16:
  58              	.LBB17:
  76:Generated_Source\PSoC4/cyfitter_cfg.c **** }
  59              		.loc 1 76 0
  60 000e 2900     		movs	r1, r5
  61              	.LBE17:
  62              	.LBE16:
  63              	.LBE15:
  64              	.LBE14:
 321:Generated_Source\PSoC4/cyfitter_cfg.c **** 
  65              		.loc 1 321 0
  66 0010 2560     		str	r5, [r4]
  67              		.loc 1 324 0
  68 0012 1A70     		strb	r2, [r3]
  69              	.LVL0:
  70              	.LBB24:
  71              	.LBB20:
  72              	.LBB19:
ARM GAS  C:\Users\Administrator\AppData\Local\Temp\ccWmfQyR.s 			page 8


  73              	.LBB18:
  76:Generated_Source\PSoC4/cyfitter_cfg.c **** }
  74              		.loc 1 76 0
  75 0014 8022     		movs	r2, #128
  76 0016 6348     		ldr	r0, .L8+8
  77 0018 D200     		lsls	r2, r2, #3
  78 001a FFF7FEFF 		bl	memset
  79              	.LVL1:
  80 001e 8022     		movs	r2, #128
  81 0020 2900     		movs	r1, r5
  82 0022 D200     		lsls	r2, r2, #3
  83 0024 6048     		ldr	r0, .L8+12
  84 0026 FFF7FEFF 		bl	memset
  85              	.LVL2:
  86 002a 2900     		movs	r1, r5
  87 002c 2A00     		movs	r2, r5
  88              	.LBE18:
  89              	.LBE19:
  90              	.LBE20:
  91              	.LBB21:
  92              	.LBB22:
  93              	.LBB23:
 181:Generated_Source\PSoC4/cyfitter_cfg.c **** 		uint8 count = (uint8)baseAddr;
  94              		.loc 1 181 0
  95 002e 5F4D     		ldr	r5, .L8+16
 183:Generated_Source\PSoC4/cyfitter_cfg.c **** 		while (count != 0u)
  96              		.loc 1 183 0
  97 0030 FF26     		movs	r6, #255
  98 0032 2F00     		movs	r7, r5
  99 0034 0194     		str	r4, [sp, #4]
 100 0036 1437     		adds	r7, r7, #20
 101              	.LVL3:
 102              	.L4:
 181:Generated_Source\PSoC4/cyfitter_cfg.c **** 		uint8 count = (uint8)baseAddr;
 103              		.loc 1 181 0
 104 0038 4859     		ldr	r0, [r1, r5]
 105              	.LVL4:
 183:Generated_Source\PSoC4/cyfitter_cfg.c **** 		while (count != 0u)
 106              		.loc 1 183 0
 107 003a 0300     		movs	r3, r0
 108 003c 3040     		ands	r0, r6
 109              	.LVL5:
 110 003e B343     		bics	r3, r6
 111              	.LVL6:
 112 0040 0293     		str	r3, [sp, #8]
 113              	.LVL7:
 114 0042 5300     		lsls	r3, r2, #1
 115              	.LVL8:
 116 0044 1218     		adds	r2, r2, r0
 117              	.LVL9:
 118 0046 5000     		lsls	r0, r2, #1
 119 0048 0130     		adds	r0, r0, #1
 120 004a 0133     		adds	r3, r3, #1
 121 004c 3818     		adds	r0, r7, r0
 122 004e FB18     		adds	r3, r7, r3
 123 0050 0390     		str	r0, [sp, #12]
 124              	.LVL10:
ARM GAS  C:\Users\Administrator\AppData\Local\Temp\ccWmfQyR.s 			page 9


 125              	.L2:
 184:Generated_Source\PSoC4/cyfitter_cfg.c **** 		{
 126              		.loc 1 184 0
 127 0052 0398     		ldr	r0, [sp, #12]
 128 0054 8342     		cmp	r3, r0
 129 0056 07D0     		beq	.L7
 186:Generated_Source\PSoC4/cyfitter_cfg.c **** 			j++;
 130              		.loc 1 186 0
 131 0058 581E     		subs	r0, r3, #1
 132 005a 0078     		ldrb	r0, [r0]
 133 005c 029C     		ldr	r4, [sp, #8]
 134 005e 0019     		adds	r0, r0, r4
 135 0060 1C78     		ldrb	r4, [r3]
 136 0062 0233     		adds	r3, r3, #2
 137 0064 0470     		strb	r4, [r0]
 138 0066 F4E7     		b	.L2
 139              	.L7:
 140              	.LVL11:
 141 0068 0431     		adds	r1, r1, #4
 142              	.LBE23:
 179:Generated_Source\PSoC4/cyfitter_cfg.c **** 	{
 143              		.loc 1 179 0
 144 006a 1429     		cmp	r1, #20
 145 006c E4D1     		bne	.L4
 146              	.LVL12:
 147              	.LBE22:
 148              	.LBE21:
 325:Generated_Source\PSoC4/cyfitter_cfg.c **** 	{
 326:Generated_Source\PSoC4/cyfitter_cfg.c **** 		static const uint32 CYCODE cy_cfg_addr_table[] = {
 327:Generated_Source\PSoC4/cyfitter_cfg.c **** 			0x400F3101u, /* Base address: 0x400F3100 Count: 1 */
 328:Generated_Source\PSoC4/cyfitter_cfg.c **** 			0x400F4004u, /* Base address: 0x400F4000 Count: 4 */
 329:Generated_Source\PSoC4/cyfitter_cfg.c **** 			0x400F4104u, /* Base address: 0x400F4100 Count: 4 */
 330:Generated_Source\PSoC4/cyfitter_cfg.c **** 			0x400F4203u, /* Base address: 0x400F4200 Count: 3 */
 331:Generated_Source\PSoC4/cyfitter_cfg.c **** 			0x400F6002u, /* Base address: 0x400F6000 Count: 2 */
 332:Generated_Source\PSoC4/cyfitter_cfg.c **** 		};
 333:Generated_Source\PSoC4/cyfitter_cfg.c **** 
 334:Generated_Source\PSoC4/cyfitter_cfg.c **** 		static const cy_cfg_addrvalue_t CYCODE cy_cfg_data_table[] = {
 335:Generated_Source\PSoC4/cyfitter_cfg.c **** 			{0xE2u, 0x08u},
 336:Generated_Source\PSoC4/cyfitter_cfg.c **** 			{0x67u, 0x80u},
 337:Generated_Source\PSoC4/cyfitter_cfg.c **** 			{0x87u, 0x40u},
 338:Generated_Source\PSoC4/cyfitter_cfg.c **** 			{0xD8u, 0x80u},
 339:Generated_Source\PSoC4/cyfitter_cfg.c **** 			{0xE2u, 0x10u},
 340:Generated_Source\PSoC4/cyfitter_cfg.c **** 			{0x17u, 0x10u},
 341:Generated_Source\PSoC4/cyfitter_cfg.c **** 			{0x6Fu, 0x10u},
 342:Generated_Source\PSoC4/cyfitter_cfg.c **** 			{0xC4u, 0x80u},
 343:Generated_Source\PSoC4/cyfitter_cfg.c **** 			{0xDAu, 0x80u},
 344:Generated_Source\PSoC4/cyfitter_cfg.c **** 			{0x13u, 0x08u},
 345:Generated_Source\PSoC4/cyfitter_cfg.c **** 			{0x87u, 0x08u},
 346:Generated_Source\PSoC4/cyfitter_cfg.c **** 			{0xC4u, 0x08u},
 347:Generated_Source\PSoC4/cyfitter_cfg.c **** 			{0x02u, 0x01u},
 348:Generated_Source\PSoC4/cyfitter_cfg.c **** 			{0x11u, 0x01u},
 349:Generated_Source\PSoC4/cyfitter_cfg.c **** 		};
 350:Generated_Source\PSoC4/cyfitter_cfg.c **** 
 351:Generated_Source\PSoC4/cyfitter_cfg.c **** 
 352:Generated_Source\PSoC4/cyfitter_cfg.c **** 
 353:Generated_Source\PSoC4/cyfitter_cfg.c **** 		CYPACKED typedef struct {
 354:Generated_Source\PSoC4/cyfitter_cfg.c **** 			void CYFAR *address;
ARM GAS  C:\Users\Administrator\AppData\Local\Temp\ccWmfQyR.s 			page 10


 355:Generated_Source\PSoC4/cyfitter_cfg.c **** 			uint16 size;
 356:Generated_Source\PSoC4/cyfitter_cfg.c **** 		} CYPACKED_ATTR cfg_memset_t;
 357:Generated_Source\PSoC4/cyfitter_cfg.c **** 
 358:Generated_Source\PSoC4/cyfitter_cfg.c **** 		static const cfg_memset_t CYCODE cfg_memset_list[] = {
 359:Generated_Source\PSoC4/cyfitter_cfg.c **** 			/* address, size */
 360:Generated_Source\PSoC4/cyfitter_cfg.c **** 			{(void CYFAR *)(CYDEV_UDB_P0_U0_BASE), 1024u},
 361:Generated_Source\PSoC4/cyfitter_cfg.c **** 			{(void CYFAR *)(CYDEV_UDB_DSI0_BASE), 1024u},
 362:Generated_Source\PSoC4/cyfitter_cfg.c **** 		};
 363:Generated_Source\PSoC4/cyfitter_cfg.c **** 
 364:Generated_Source\PSoC4/cyfitter_cfg.c **** 		uint8 CYDATA i;
 365:Generated_Source\PSoC4/cyfitter_cfg.c **** 
 366:Generated_Source\PSoC4/cyfitter_cfg.c **** 		/* Zero out critical memory blocks before beginning configuration */
 367:Generated_Source\PSoC4/cyfitter_cfg.c **** 		for (i = 0u; i < (sizeof(cfg_memset_list)/sizeof(cfg_memset_list[0])); i++)
 368:Generated_Source\PSoC4/cyfitter_cfg.c **** 		{
 369:Generated_Source\PSoC4/cyfitter_cfg.c **** 			const cfg_memset_t CYCODE * CYDATA ms = &cfg_memset_list[i];
 370:Generated_Source\PSoC4/cyfitter_cfg.c **** 			CYMEMZERO(ms->address, (size_t)(uint32)(ms->size));
 371:Generated_Source\PSoC4/cyfitter_cfg.c **** 		}
 372:Generated_Source\PSoC4/cyfitter_cfg.c **** 
 373:Generated_Source\PSoC4/cyfitter_cfg.c **** 		cfg_write_bytes32(cy_cfg_addr_table, cy_cfg_data_table);
 374:Generated_Source\PSoC4/cyfitter_cfg.c **** 
 375:Generated_Source\PSoC4/cyfitter_cfg.c **** 		/* HSIOM Starting address: CYDEV_HSIOM_BASE */
 376:Generated_Source\PSoC4/cyfitter_cfg.c **** 		CY_SET_REG32((void *)(CYDEV_HSIOM_BASE), 0xEE300000u);
 149              		.loc 1 376 0
 150 006e 504A     		ldr	r2, .L8+20
 151 0070 504B     		ldr	r3, .L8+24
 377:Generated_Source\PSoC4/cyfitter_cfg.c **** 		CY_SET_REG32((void *)(CYREG_HSIOM_PORT_SEL1), 0x00990000u);
 378:Generated_Source\PSoC4/cyfitter_cfg.c **** 
 379:Generated_Source\PSoC4/cyfitter_cfg.c **** 		/* UDB_PA_0 Starting address: CYDEV_UDB_PA0_BASE */
 380:Generated_Source\PSoC4/cyfitter_cfg.c **** 		CY_SET_REG32((void *)(CYDEV_UDB_PA0_BASE), 0x00990000u);
 381:Generated_Source\PSoC4/cyfitter_cfg.c **** 		CY_SET_REG32((void *)(CYREG_UDB_PA0_CFG8), 0x0C000000u);
 152              		.loc 1 381 0
 153 0072 C021     		movs	r1, #192
 376:Generated_Source\PSoC4/cyfitter_cfg.c **** 		CY_SET_REG32((void *)(CYREG_HSIOM_PORT_SEL1), 0x00990000u);
 154              		.loc 1 376 0
 155 0074 1A60     		str	r2, [r3]
 377:Generated_Source\PSoC4/cyfitter_cfg.c **** 		CY_SET_REG32((void *)(CYREG_HSIOM_PORT_SEL1), 0x00990000u);
 156              		.loc 1 377 0
 157 0076 9923     		movs	r3, #153
 382:Generated_Source\PSoC4/cyfitter_cfg.c **** 
 383:Generated_Source\PSoC4/cyfitter_cfg.c **** 		/* UDB_PA_1 Starting address: CYDEV_UDB_PA1_BASE */
 384:Generated_Source\PSoC4/cyfitter_cfg.c **** 		CY_SET_REG32((void *)(CYDEV_UDB_PA1_BASE), 0x00990000u);
 385:Generated_Source\PSoC4/cyfitter_cfg.c **** 
 386:Generated_Source\PSoC4/cyfitter_cfg.c **** 		/* UDB_PA_2 Starting address: CYDEV_UDB_PA2_BASE */
 387:Generated_Source\PSoC4/cyfitter_cfg.c **** 		CY_SET_REG32((void *)(CYDEV_UDB_PA2_BASE), 0x00990000u);
 388:Generated_Source\PSoC4/cyfitter_cfg.c **** 
 389:Generated_Source\PSoC4/cyfitter_cfg.c **** 		/* UDB_PA_3 Starting address: CYDEV_UDB_PA3_BASE */
 390:Generated_Source\PSoC4/cyfitter_cfg.c **** 		CY_SET_REG32((void *)(CYDEV_UDB_PA3_BASE), 0x00990000u);
 391:Generated_Source\PSoC4/cyfitter_cfg.c **** 		CY_SET_REG32((void *)(CYREG_UDB_PA3_CFG4), 0x40000000u);
 158              		.loc 1 391 0
 159 0078 8025     		movs	r5, #128
 377:Generated_Source\PSoC4/cyfitter_cfg.c **** 
 160              		.loc 1 377 0
 161 007a 4F4A     		ldr	r2, .L8+28
 162 007c 1B04     		lsls	r3, r3, #16
 392:Generated_Source\PSoC4/cyfitter_cfg.c **** 
 393:Generated_Source\PSoC4/cyfitter_cfg.c **** 		/* INT_SELECT Starting address: CYDEV_CPUSS_INT_SEL */
 394:Generated_Source\PSoC4/cyfitter_cfg.c **** 		CY_SET_REG32((void *)(CYREG_CPUSS_INT_SEL), 0x00000002u);
ARM GAS  C:\Users\Administrator\AppData\Local\Temp\ccWmfQyR.s 			page 11


 163              		.loc 1 394 0
 164 007e 0226     		movs	r6, #2
 377:Generated_Source\PSoC4/cyfitter_cfg.c **** 
 165              		.loc 1 377 0
 166 0080 1360     		str	r3, [r2]
 380:Generated_Source\PSoC4/cyfitter_cfg.c **** 		CY_SET_REG32((void *)(CYREG_UDB_PA0_CFG8), 0x0C000000u);
 167              		.loc 1 380 0
 168 0082 4E4A     		ldr	r2, .L8+32
 381:Generated_Source\PSoC4/cyfitter_cfg.c **** 
 169              		.loc 1 381 0
 170 0084 0905     		lsls	r1, r1, #20
 380:Generated_Source\PSoC4/cyfitter_cfg.c **** 		CY_SET_REG32((void *)(CYREG_UDB_PA0_CFG8), 0x0C000000u);
 171              		.loc 1 380 0
 172 0086 1360     		str	r3, [r2]
 381:Generated_Source\PSoC4/cyfitter_cfg.c **** 
 173              		.loc 1 381 0
 174 0088 4D4A     		ldr	r2, .L8+36
 391:Generated_Source\PSoC4/cyfitter_cfg.c **** 
 175              		.loc 1 391 0
 176 008a ED05     		lsls	r5, r5, #23
 381:Generated_Source\PSoC4/cyfitter_cfg.c **** 
 177              		.loc 1 381 0
 178 008c 1160     		str	r1, [r2]
 395:Generated_Source\PSoC4/cyfitter_cfg.c **** 
 396:Generated_Source\PSoC4/cyfitter_cfg.c **** 		/* INT_CONFIG Starting address: CYDEV_UDB_INT_CFG */
 397:Generated_Source\PSoC4/cyfitter_cfg.c **** 		CY_SET_REG32((void *)(CYREG_UDB_INT_CFG), 0x00000002u);
 398:Generated_Source\PSoC4/cyfitter_cfg.c **** 
 399:Generated_Source\PSoC4/cyfitter_cfg.c **** 		/* Enable digital routing */
 400:Generated_Source\PSoC4/cyfitter_cfg.c **** 		CY_SET_XTND_REG8((void *)CYREG_UDB_UDBIF_BANK_CTL, (uint8)(CY_GET_XTND_REG8((void *)CYREG_UDB_UDB
 179              		.loc 1 400 0
 180 008e 0621     		movs	r1, #6
 384:Generated_Source\PSoC4/cyfitter_cfg.c **** 
 181              		.loc 1 384 0
 182 0090 4C4A     		ldr	r2, .L8+40
 183              	.LBE24:
 184              	.LBB25:
 185              	.LBB26:
 229:Generated_Source\PSoC4/cyfitter_cfg.c **** 
 186              		.loc 1 229 0
 187 0092 4D4F     		ldr	r7, .L8+44
 188              	.LBE26:
 189              	.LBE25:
 190              	.LBB29:
 384:Generated_Source\PSoC4/cyfitter_cfg.c **** 
 191              		.loc 1 384 0
 192 0094 1360     		str	r3, [r2]
 387:Generated_Source\PSoC4/cyfitter_cfg.c **** 
 193              		.loc 1 387 0
 194 0096 4D4A     		ldr	r2, .L8+48
 195 0098 1360     		str	r3, [r2]
 390:Generated_Source\PSoC4/cyfitter_cfg.c **** 		CY_SET_REG32((void *)(CYREG_UDB_PA3_CFG4), 0x40000000u);
 196              		.loc 1 390 0
 197 009a 4D4A     		ldr	r2, .L8+52
 198 009c 1360     		str	r3, [r2]
 391:Generated_Source\PSoC4/cyfitter_cfg.c **** 
 199              		.loc 1 391 0
 200 009e 4D4B     		ldr	r3, .L8+56
ARM GAS  C:\Users\Administrator\AppData\Local\Temp\ccWmfQyR.s 			page 12


 201              		.loc 1 400 0
 202 00a0 4D4A     		ldr	r2, .L8+60
 391:Generated_Source\PSoC4/cyfitter_cfg.c **** 
 203              		.loc 1 391 0
 204 00a2 1D60     		str	r5, [r3]
 394:Generated_Source\PSoC4/cyfitter_cfg.c **** 
 205              		.loc 1 394 0
 206 00a4 4D4B     		ldr	r3, .L8+64
 207 00a6 1E60     		str	r6, [r3]
 397:Generated_Source\PSoC4/cyfitter_cfg.c **** 
 208              		.loc 1 397 0
 209 00a8 4D4B     		ldr	r3, .L8+68
 210 00aa 1E60     		str	r6, [r3]
 211              		.loc 1 400 0
 212 00ac 1378     		ldrb	r3, [r2]
 213 00ae 0B43     		orrs	r3, r1
 214 00b0 1370     		strb	r3, [r2]
 215              	.LBE29:
 401:Generated_Source\PSoC4/cyfitter_cfg.c **** 	}
 402:Generated_Source\PSoC4/cyfitter_cfg.c **** 
 403:Generated_Source\PSoC4/cyfitter_cfg.c **** 	/* Perform second pass device configuration. These items must be configured in specific order afte
 404:Generated_Source\PSoC4/cyfitter_cfg.c **** 	/* IOPINS0_0 Starting address: CYDEV_GPIO_PRT0_BASE */
 405:Generated_Source\PSoC4/cyfitter_cfg.c **** 	CY_SET_REG32((void *)(CYDEV_GPIO_PRT0_BASE), 0x00000022u);
 216              		.loc 1 405 0
 217 00b2 2222     		movs	r2, #34
 218 00b4 4B4B     		ldr	r3, .L8+72
 219 00b6 1A60     		str	r2, [r3]
 406:Generated_Source\PSoC4/cyfitter_cfg.c **** 	CY_SET_REG32((void *)(CYREG_GPIO_PRT0_PC), 0x00DB6C0Eu);
 220              		.loc 1 406 0
 221 00b8 4B4A     		ldr	r2, .L8+76
 222 00ba 4C4B     		ldr	r3, .L8+80
 223 00bc 1A60     		str	r2, [r3]
 407:Generated_Source\PSoC4/cyfitter_cfg.c **** 
 408:Generated_Source\PSoC4/cyfitter_cfg.c **** 	/* IOPINS0_1 Starting address: CYDEV_GPIO_PRT1_BASE */
 409:Generated_Source\PSoC4/cyfitter_cfg.c **** 	CY_SET_REG32((void *)(CYDEV_GPIO_PRT1_BASE), 0x000000A4u);
 224              		.loc 1 409 0
 225 00be A422     		movs	r2, #164
 226 00c0 4B4B     		ldr	r3, .L8+84
 227 00c2 1A60     		str	r2, [r3]
 410:Generated_Source\PSoC4/cyfitter_cfg.c **** 	CY_SET_REG32((void *)(CYREG_GPIO_PRT1_PC), 0x00231C76u);
 228              		.loc 1 410 0
 229 00c4 4B4A     		ldr	r2, .L8+88
 230 00c6 4C4B     		ldr	r3, .L8+92
 231 00c8 1A60     		str	r2, [r3]
 411:Generated_Source\PSoC4/cyfitter_cfg.c **** 	CY_SET_REG32((void *)(CYREG_GPIO_PRT1_PC2), 0x00000020u);
 232              		.loc 1 411 0
 233 00ca 2022     		movs	r2, #32
 234 00cc 4B4B     		ldr	r3, .L8+96
 235 00ce 1A60     		str	r2, [r3]
 412:Generated_Source\PSoC4/cyfitter_cfg.c **** 
 413:Generated_Source\PSoC4/cyfitter_cfg.c **** 	/* IOPINS0_2 Starting address: CYDEV_GPIO_PRT2_BASE */
 414:Generated_Source\PSoC4/cyfitter_cfg.c **** 	CY_SET_REG32((void *)(CYDEV_GPIO_PRT2_BASE), 0x00000071u);
 236              		.loc 1 414 0
 237 00d0 4B4B     		ldr	r3, .L8+100
 238 00d2 5132     		adds	r2, r2, #81
 239 00d4 1A60     		str	r2, [r3]
 415:Generated_Source\PSoC4/cyfitter_cfg.c **** 	CY_SET_REG32((void *)(CYREG_GPIO_PRT2_PC), 0x00109001u);
ARM GAS  C:\Users\Administrator\AppData\Local\Temp\ccWmfQyR.s 			page 13


 240              		.loc 1 415 0
 241 00d6 4B4A     		ldr	r2, .L8+104
 242 00d8 4B4B     		ldr	r3, .L8+108
 243 00da 1A60     		str	r2, [r3]
 416:Generated_Source\PSoC4/cyfitter_cfg.c **** 
 417:Generated_Source\PSoC4/cyfitter_cfg.c **** 	/* IOPINS0_3 Starting address: CYDEV_GPIO_PRT3_BASE */
 418:Generated_Source\PSoC4/cyfitter_cfg.c **** 	CY_SET_REG32((void *)(CYDEV_GPIO_PRT3_BASE), 0x0000008Bu);
 244              		.loc 1 418 0
 245 00dc 8B22     		movs	r2, #139
 246 00de 4B4B     		ldr	r3, .L8+112
 247 00e0 1A60     		str	r2, [r3]
 419:Generated_Source\PSoC4/cyfitter_cfg.c **** 	CY_SET_REG32((void *)(CYREG_GPIO_PRT3_PC), 0x005B63A4u);
 248              		.loc 1 419 0
 249 00e2 4B4A     		ldr	r2, .L8+116
 250 00e4 4B4B     		ldr	r3, .L8+120
 251 00e6 1A60     		str	r2, [r3]
 420:Generated_Source\PSoC4/cyfitter_cfg.c **** 	CY_SET_REG32((void *)(CYREG_GPIO_PRT3_INTR_CFG), 0x00008000u);
 252              		.loc 1 420 0
 253 00e8 8022     		movs	r2, #128
 254 00ea 4B4B     		ldr	r3, .L8+124
 255 00ec 1202     		lsls	r2, r2, #8
 256 00ee 1A60     		str	r2, [r3]
 257              	.LBB30:
 258              	.LBB27:
 216:Generated_Source\PSoC4/cyfitter_cfg.c **** 
 259              		.loc 1 216 0
 260 00f0 1222     		movs	r2, #18
 261 00f2 4A4B     		ldr	r3, .L8+128
 262 00f4 1A60     		str	r2, [r3]
 219:Generated_Source\PSoC4/cyfitter_cfg.c **** 	CyDelayCycles(12000000u); /* WCO may take up to 500ms to start */
 263              		.loc 1 219 0
 264 00f6 FFF7FEFF 		bl	CySysClkWcoStart
 265              	.LVL13:
 220:Generated_Source\PSoC4/cyfitter_cfg.c **** 	(void)CySysClkWcoSetPowerMode(CY_SYS_CLK_WCO_LPM);    /* Switch to the low power mode */
 266              		.loc 1 220 0
 267 00fa 4948     		ldr	r0, .L8+132
 268 00fc FFF7FEFF 		bl	CyDelayCycles
 269              	.LVL14:
 221:Generated_Source\PSoC4/cyfitter_cfg.c **** 
 270              		.loc 1 221 0
 271 0100 0120     		movs	r0, #1
 272 0102 FFF7FEFF 		bl	CySysClkWcoSetPowerMode
 273              	.LVL15:
 224:Generated_Source\PSoC4/cyfitter_cfg.c **** 	/* CYDEV_CLK_ILO_CONFIG Starting address: CYDEV_CLK_ILO_CONFIG */
 274              		.loc 1 224 0
 275 0106 3020     		movs	r0, #48
 276 0108 FFF7FEFF 		bl	CySysClkWriteImoFreq
 277              	.LVL16:
 226:Generated_Source\PSoC4/cyfitter_cfg.c **** 
 278              		.loc 1 226 0
 279 010c 454A     		ldr	r2, .L8+136
 280 010e 464B     		ldr	r3, .L8+140
 240:Generated_Source\PSoC4/cyfitter_cfg.c **** 	CyDelayUs(1500u); /* Wait to stabilize */
 281              		.loc 1 240 0
 282 0110 FA20     		movs	r0, #250
 226:Generated_Source\PSoC4/cyfitter_cfg.c **** 
 283              		.loc 1 226 0
ARM GAS  C:\Users\Administrator\AppData\Local\Temp\ccWmfQyR.s 			page 14


 284 0112 1A60     		str	r2, [r3]
 233:Generated_Source\PSoC4/cyfitter_cfg.c **** 	CY_SET_REG32((void *)(CYREG_BLE_BLERD_BB_XO_CAPTRIM), 0x00002D6Au);
 285              		.loc 1 233 0
 286 0114 454A     		ldr	r2, .L8+144
 229:Generated_Source\PSoC4/cyfitter_cfg.c **** 
 287              		.loc 1 229 0
 288 0116 3D60     		str	r5, [r7]
 233:Generated_Source\PSoC4/cyfitter_cfg.c **** 	CY_SET_REG32((void *)(CYREG_BLE_BLERD_BB_XO_CAPTRIM), 0x00002D6Au);
 289              		.loc 1 233 0
 290 0118 1368     		ldr	r3, [r2]
 240:Generated_Source\PSoC4/cyfitter_cfg.c **** 	CyDelayUs(1500u); /* Wait to stabilize */
 291              		.loc 1 240 0
 292 011a C000     		lsls	r0, r0, #3
 233:Generated_Source\PSoC4/cyfitter_cfg.c **** 	CY_SET_REG32((void *)(CYREG_BLE_BLERD_BB_XO_CAPTRIM), 0x00002D6Au);
 293              		.loc 1 233 0
 294 011c 3343     		orrs	r3, r6
 236:Generated_Source\PSoC4/cyfitter_cfg.c **** 	/* Disable Crystal Stable Interrupt before enabling ECO */
 295              		.loc 1 236 0
 296 011e 0026     		movs	r6, #0
 233:Generated_Source\PSoC4/cyfitter_cfg.c **** 	CY_SET_REG32((void *)(CYREG_BLE_BLERD_BB_XO_CAPTRIM), 0x00002D6Au);
 297              		.loc 1 233 0
 298 0120 1360     		str	r3, [r2]
 234:Generated_Source\PSoC4/cyfitter_cfg.c **** 	/*Set XTAL(ECO) divider*/
 299              		.loc 1 234 0
 300 0122 434A     		ldr	r2, .L8+148
 301 0124 434B     		ldr	r3, .L8+152
 302 0126 1A60     		str	r2, [r3]
 238:Generated_Source\PSoC4/cyfitter_cfg.c **** 	/* Start the ECO and do not check status since it is not needed for HFCLK */
 303              		.loc 1 238 0
 304 0128 0822     		movs	r2, #8
 236:Generated_Source\PSoC4/cyfitter_cfg.c **** 	/* Disable Crystal Stable Interrupt before enabling ECO */
 305              		.loc 1 236 0
 306 012a 434B     		ldr	r3, .L8+156
 307 012c 1E60     		str	r6, [r3]
 238:Generated_Source\PSoC4/cyfitter_cfg.c **** 	/* Start the ECO and do not check status since it is not needed for HFCLK */
 308              		.loc 1 238 0
 309 012e 019B     		ldr	r3, [sp, #4]
 310 0130 1B68     		ldr	r3, [r3]
 311 0132 9343     		bics	r3, r2
 312 0134 019A     		ldr	r2, [sp, #4]
 313 0136 1360     		str	r3, [r2]
 240:Generated_Source\PSoC4/cyfitter_cfg.c **** 	CyDelayUs(1500u); /* Wait to stabilize */
 314              		.loc 1 240 0
 315 0138 FFF7FEFF 		bl	CySysClkEcoStart
 316              	.LVL17:
 241:Generated_Source\PSoC4/cyfitter_cfg.c **** 
 317              		.loc 1 241 0
 318 013c 3F48     		ldr	r0, .L8+160
 319 013e FFF7FEFF 		bl	CyDelayUs
 320              	.LVL18:
 244:Generated_Source\PSoC4/cyfitter_cfg.c **** 	CY_SET_REG32((void *)CYREG_PERI_DIV_CMD, 0x8000FF42u);
 321              		.loc 1 244 0
 322 0142 BC22     		movs	r2, #188
 323 0144 3E4B     		ldr	r3, .L8+164
 324 0146 9201     		lsls	r2, r2, #6
 325 0148 1A60     		str	r2, [r3]
 245:Generated_Source\PSoC4/cyfitter_cfg.c **** 	CY_SET_REG32((void *)CYREG_PERI_DIV_16_CTL1, 0x00002F00u);
ARM GAS  C:\Users\Administrator\AppData\Local\Temp\ccWmfQyR.s 			page 15


 326              		.loc 1 245 0
 327 014a 3E49     		ldr	r1, .L8+168
 328 014c 3E4B     		ldr	r3, .L8+172
 329 014e 1960     		str	r1, [r3]
 246:Generated_Source\PSoC4/cyfitter_cfg.c **** 	CY_SET_REG32((void *)CYREG_PERI_DIV_CMD, 0x8000FF41u);
 330              		.loc 1 246 0
 331 0150 3E49     		ldr	r1, .L8+176
 332 0152 0A60     		str	r2, [r1]
 248:Generated_Source\PSoC4/cyfitter_cfg.c **** 	CY_SET_REG32((void *)CYREG_PERI_DIV_CMD, 0x8000FF40u);
 333              		.loc 1 248 0
 334 0154 8821     		movs	r1, #136
 247:Generated_Source\PSoC4/cyfitter_cfg.c **** 	CY_SET_REG32((void *)CYREG_PERI_DIV_16_CTL0, 0x00002200u);
 335              		.loc 1 247 0
 336 0156 3E4A     		ldr	r2, .L8+180
 248:Generated_Source\PSoC4/cyfitter_cfg.c **** 	CY_SET_REG32((void *)CYREG_PERI_DIV_CMD, 0x8000FF40u);
 337              		.loc 1 248 0
 338 0158 8901     		lsls	r1, r1, #6
 247:Generated_Source\PSoC4/cyfitter_cfg.c **** 	CY_SET_REG32((void *)CYREG_PERI_DIV_16_CTL0, 0x00002200u);
 339              		.loc 1 247 0
 340 015a 1A60     		str	r2, [r3]
 248:Generated_Source\PSoC4/cyfitter_cfg.c **** 	CY_SET_REG32((void *)CYREG_PERI_DIV_CMD, 0x8000FF40u);
 341              		.loc 1 248 0
 342 015c 3D4A     		ldr	r2, .L8+184
 343 015e 1160     		str	r1, [r2]
 249:Generated_Source\PSoC4/cyfitter_cfg.c **** 
 344              		.loc 1 249 0
 345 0160 3D4A     		ldr	r2, .L8+188
 346 0162 1A60     		str	r2, [r3]
 252:Generated_Source\PSoC4/cyfitter_cfg.c **** 
 347              		.loc 1 252 0
 348 0164 8022     		movs	r2, #128
 349 0166 3D4B     		ldr	r3, .L8+192
 350 0168 1206     		lsls	r2, r2, #24
 351 016a 1A60     		str	r2, [r3]
 255:Generated_Source\PSoC4/cyfitter_cfg.c **** 
 352              		.loc 1 255 0
 353 016c 8022     		movs	r2, #128
 354 016e 3C4B     		ldr	r3, .L8+196
 355 0170 D202     		lsls	r2, r2, #11
 356 0172 1A60     		str	r2, [r3]
 258:Generated_Source\PSoC4/cyfitter_cfg.c **** 
 357              		.loc 1 258 0
 358 0174 4222     		movs	r2, #66
 359 0176 3B4B     		ldr	r3, .L8+200
 360 0178 1A60     		str	r2, [r3]
 261:Generated_Source\PSoC4/cyfitter_cfg.c **** 
 361              		.loc 1 261 0
 362 017a 3B4B     		ldr	r3, .L8+204
 363 017c 013A     		subs	r2, r2, #1
 364 017e 1A60     		str	r2, [r3]
 264:Generated_Source\PSoC4/cyfitter_cfg.c **** 
 365              		.loc 1 264 0
 366 0180 3A4B     		ldr	r3, .L8+208
 367 0182 013A     		subs	r2, r2, #1
 368 0184 1A60     		str	r2, [r3]
 369              	.LBE27:
 370              	.LBE30:
ARM GAS  C:\Users\Administrator\AppData\Local\Temp\ccWmfQyR.s 			page 16


 371              	.LBB31:
 372              	.LBB32:
 291:Generated_Source\PSoC4/cyfitter_cfg.c **** 	CY_SET_XTND_REG32((void CYFAR *)CYREG_CTBM1_DFT_CTRL, 0x00000003u);
 373              		.loc 1 291 0
 374 0186 0323     		movs	r3, #3
 375 0188 394A     		ldr	r2, .L8+212
 376              	.LBE32:
 377              	.LBE31:
 378              	.LBB34:
 379              	.LBB28:
 266:Generated_Source\PSoC4/cyfitter_cfg.c **** }
 380              		.loc 1 266 0
 381 018a 3D60     		str	r5, [r7]
 382              	.LBE28:
 383              	.LBE34:
 384              	.LBB35:
 385              	.LBB33:
 291:Generated_Source\PSoC4/cyfitter_cfg.c **** 	CY_SET_XTND_REG32((void CYFAR *)CYREG_CTBM1_DFT_CTRL, 0x00000003u);
 386              		.loc 1 291 0
 387 018c 1360     		str	r3, [r2]
 292:Generated_Source\PSoC4/cyfitter_cfg.c **** 	CY_SET_XTND_REG32((void CYFAR *)CYREG_PASS_DSAB_DSAB_CTRL, 0x00000000u);
 388              		.loc 1 292 0
 389 018e 394A     		ldr	r2, .L8+216
 390 0190 1360     		str	r3, [r2]
 293:Generated_Source\PSoC4/cyfitter_cfg.c **** }
 391              		.loc 1 293 0
 392 0192 394B     		ldr	r3, .L8+220
 393 0194 1E60     		str	r6, [r3]
 394              	.LBE33:
 395              	.LBE35:
 421:Generated_Source\PSoC4/cyfitter_cfg.c **** 
 422:Generated_Source\PSoC4/cyfitter_cfg.c **** 
 423:Generated_Source\PSoC4/cyfitter_cfg.c **** 	/* Setup clocks based on selections from Clock DWR */
 424:Generated_Source\PSoC4/cyfitter_cfg.c **** 	ClockSetup();
 425:Generated_Source\PSoC4/cyfitter_cfg.c **** 
 426:Generated_Source\PSoC4/cyfitter_cfg.c **** 	/* Perform basic analog initialization to defaults */
 427:Generated_Source\PSoC4/cyfitter_cfg.c **** 	AnalogSetDefault();
 428:Generated_Source\PSoC4/cyfitter_cfg.c **** 
 429:Generated_Source\PSoC4/cyfitter_cfg.c **** }
 396              		.loc 1 429 0
 397 0196 05B0     		add	sp, sp, #20
 398              		@ sp needed
 399 0198 F0BD     		pop	{r4, r5, r6, r7, pc}
 400              	.L9:
 401 019a C046     		.align	2
 402              	.L8:
 403 019c 1C700F40 		.word	1074753564
 404 01a0 6CF02E40 		.word	1076818028
 405 01a4 00300F40 		.word	1074737152
 406 01a8 00400F40 		.word	1074741248
 407 01ac 00000000 		.word	.LANCHOR0
 408 01b0 000030EE 		.word	-298844160
 409 01b4 00000240 		.word	1073872896
 410 01b8 00010240 		.word	1073873152
 411 01bc 00500F40 		.word	1074745344
 412 01c0 08500F40 		.word	1074745352
 413 01c4 10500F40 		.word	1074745360
ARM GAS  C:\Users\Administrator\AppData\Local\Temp\ccWmfQyR.s 			page 17


 414 01c8 0C020B40 		.word	1074463244
 415 01cc 20500F40 		.word	1074745376
 416 01d0 30500F40 		.word	1074745392
 417 01d4 34500F40 		.word	1074745396
 418 01d8 00700F40 		.word	1074753536
 419 01dc 20001040 		.word	1074790432
 420 01e0 00800F40 		.word	1074757632
 421 01e4 00000440 		.word	1074003968
 422 01e8 0E6CDB00 		.word	14380046
 423 01ec 08000440 		.word	1074003976
 424 01f0 00010440 		.word	1074004224
 425 01f4 761C2300 		.word	2301046
 426 01f8 08010440 		.word	1074004232
 427 01fc 18010440 		.word	1074004248
 428 0200 00020440 		.word	1074004480
 429 0204 01901000 		.word	1085441
 430 0208 08020440 		.word	1074004488
 431 020c 00030440 		.word	1074004736
 432 0210 A4635B00 		.word	5989284
 433 0214 08030440 		.word	1074004744
 434 0218 0C030440 		.word	1074004748
 435 021c 30001040 		.word	1074790448
 436 0220 001BB700 		.word	12000000
 437 0224 06000080 		.word	-2147483642
 438 0228 04010B40 		.word	1074462980
 439 022c 78002E40 		.word	1076756600
 440 0230 6A2D0000 		.word	11626
 441 0234 7C002E40 		.word	1076756604
 442 0238 64F02E40 		.word	1076818020
 443 023c DC050000 		.word	1500
 444 0240 08030140 		.word	1073808136
 445 0244 42FF0080 		.word	-2147418302
 446 0248 00000140 		.word	1073807360
 447 024c 04030140 		.word	1073808132
 448 0250 41FF0080 		.word	-2147418303
 449 0254 00030140 		.word	1073808128
 450 0258 40FF0080 		.word	-2147418304
 451 025c 08010B40 		.word	1074462984
 452 0260 00010B40 		.word	1074462976
 453 0264 20010140 		.word	1073807648
 454 0268 1C010140 		.word	1073807644
 455 026c 04010140 		.word	1073807620
 456 0270 30003040 		.word	1076887600
 457 0274 30003140 		.word	1076953136
 458 0278 000E3F40 		.word	1077874176
 459              		.cfi_endproc
 460              	.LFE8:
 461              		.size	cyfitter_cfg, .-cyfitter_cfg
 462              		.section	.rodata
 463              		.align	2
 464              		.set	.LANCHOR0,. + 0
 465              		.type	cy_cfg_addr_table.4901, %object
 466              		.size	cy_cfg_addr_table.4901, 20
 467              	cy_cfg_addr_table.4901:
 468 0000 01310F40 		.word	1074737409
 469 0004 04400F40 		.word	1074741252
 470 0008 04410F40 		.word	1074741508
ARM GAS  C:\Users\Administrator\AppData\Local\Temp\ccWmfQyR.s 			page 18


 471 000c 03420F40 		.word	1074741763
 472 0010 02600F40 		.word	1074749442
 473              		.type	cy_cfg_data_table.4902, %object
 474              		.size	cy_cfg_data_table.4902, 28
 475              	cy_cfg_data_table.4902:
 476 0014 E2       		.byte	-30
 477 0015 08       		.byte	8
 478 0016 67       		.byte	103
 479 0017 80       		.byte	-128
 480 0018 87       		.byte	-121
 481 0019 40       		.byte	64
 482 001a D8       		.byte	-40
 483 001b 80       		.byte	-128
 484 001c E2       		.byte	-30
 485 001d 10       		.byte	16
 486 001e 17       		.byte	23
 487 001f 10       		.byte	16
 488 0020 6F       		.byte	111
 489 0021 10       		.byte	16
 490 0022 C4       		.byte	-60
 491 0023 80       		.byte	-128
 492 0024 DA       		.byte	-38
 493 0025 80       		.byte	-128
 494 0026 13       		.byte	19
 495 0027 08       		.byte	8
 496 0028 87       		.byte	-121
 497 0029 08       		.byte	8
 498 002a C4       		.byte	-60
 499 002b 08       		.byte	8
 500 002c 02       		.byte	2
 501 002d 01       		.byte	1
 502 002e 11       		.byte	17
 503 002f 01       		.byte	1
 504              		.text
 505              	.Letext0:
 506              		.file 2 "c:\\program files (x86)\\cypress\\psoc creator\\4.1\\psoc creator\\import\\gnu\\arm\\5.4.
 507              		.file 3 "Generated_Source\\PSoC4\\cytypes.h"
 508              		.file 4 "Generated_Source\\PSoC4\\CyLFClk.h"
 509              		.file 5 "Generated_Source\\PSoC4\\CyLib.h"