ARM GAS  C:\Users\Administrator\AppData\Local\Temp\ccQ6JefW.s 			page 1


   1              		.syntax unified
   2              		.cpu cortex-m0
   3              		.fpu softvfp
   4              		.eabi_attribute 20, 1
   5              		.eabi_attribute 21, 1
   6              		.eabi_attribute 23, 3
   7              		.eabi_attribute 24, 1
   8              		.eabi_attribute 25, 1
   9              		.eabi_attribute 26, 1
  10              		.eabi_attribute 30, 4
  11              		.eabi_attribute 34, 0
  12              		.eabi_attribute 18, 4
  13              		.thumb
  14              		.syntax unified
  15              		.file	"debug.c"
  16              		.text
  17              	.Ltext0:
  18              		.cfi_sections	.debug_frame
  19              		.section	.text._write,"ax",%progbits
  20              		.align	1
  21              		.global	_write
  22              		.code	16
  23              		.thumb_func
  24              		.type	_write, %function
  25              	_write:
  26              	.LFB63:
  27              		.file 1 "debug.c"
   1:debug.c       **** //*************************************************************************************************
   2:debug.c       **** // File name		: debug.c
   3:debug.c       **** // Description		: 打印相关的函数
   4:debug.c       **** // Author			: Keno
   5:debug.c       **** // Date				: 2016.8.8
   6:debug.c       **** // Version			: V02
   7:debug.c       **** //-------------------------------------------------------------------------------------------------
   8:debug.c       **** // Info				: 
   9:debug.c       **** //*************************************************************************************************
  10:debug.c       **** #include "project.h"
  11:debug.c       **** #include "common.h"
  12:debug.c       **** 
  13:debug.c       **** 
  14:debug.c       **** 
  15:debug.c       **** #if defined(__ARMCC_VERSION)
  16:debug.c       ****     
  17:debug.c       **** /* For MDK/RVDS compiler revise fputc function for printf functionality */
  18:debug.c       **** struct __FILE 
  19:debug.c       **** {
  20:debug.c       ****     int handle;  
  21:debug.c       **** };
  22:debug.c       **** 
  23:debug.c       **** enum 
  24:debug.c       **** {
  25:debug.c       ****     STDIN_HANDLE,
  26:debug.c       ****     STDOUT_HANDLE,
  27:debug.c       ****     STDERR_HANDLE
  28:debug.c       **** };
  29:debug.c       **** 
  30:debug.c       **** FILE __stdin = {STDIN_HANDLE};
ARM GAS  C:\Users\Administrator\AppData\Local\Temp\ccQ6JefW.s 			page 2


  31:debug.c       **** FILE __stdout = {STDOUT_HANDLE};
  32:debug.c       **** FILE __stderr = {STDERR_HANDLE};
  33:debug.c       **** 
  34:debug.c       **** int fputc(int ch, FILE *file) 
  35:debug.c       **** {
  36:debug.c       ****     int ret = EOF;
  37:debug.c       **** 
  38:debug.c       ****     switch( file->handle )
  39:debug.c       ****     {
  40:debug.c       ****         case STDOUT_HANDLE:
  41:debug.c       ****             FP_UART_UartPutChar(ch);
  42:debug.c       ****             ret = ch ;
  43:debug.c       ****             break ;
  44:debug.c       **** 
  45:debug.c       ****         case STDERR_HANDLE:
  46:debug.c       ****             ret = ch ;
  47:debug.c       ****             break ;
  48:debug.c       **** 
  49:debug.c       ****         default:
  50:debug.c       ****             file = file;
  51:debug.c       ****             break ;
  52:debug.c       ****     }
  53:debug.c       ****     return ret ;
  54:debug.c       **** }
  55:debug.c       **** 
  56:debug.c       **** #elif defined (__ICCARM__)      /* IAR */
  57:debug.c       **** 
  58:debug.c       **** /* For IAR compiler revise __write() function for printf functionality */
  59:debug.c       **** size_t __write(int handle, const unsigned char * buffer, size_t size)
  60:debug.c       **** {
  61:debug.c       ****     size_t nChars = 0;
  62:debug.c       **** 
  63:debug.c       ****     if (buffer == 0)
  64:debug.c       ****     {
  65:debug.c       ****         /*
  66:debug.c       ****          * This means that we should flush internal buffers.  Since we
  67:debug.c       ****          * don't we just return.  (Remember, "handle" == -1 means that all
  68:debug.c       ****          * handles should be flushed.)
  69:debug.c       ****          */
  70:debug.c       ****         return (0);
  71:debug.c       ****     }
  72:debug.c       **** 
  73:debug.c       ****     for (/* Empty */; size != 0; --size)
  74:debug.c       ****     {
  75:debug.c       ****         UART_DEB_PutChar(*buffer++);
  76:debug.c       ****         ++nChars;
  77:debug.c       ****     }
  78:debug.c       **** 
  79:debug.c       ****     return (nChars);
  80:debug.c       **** }
  81:debug.c       **** 
  82:debug.c       **** #else  /* (__GNUC__)  GCC */
  83:debug.c       **** 
  84:debug.c       **** /* For GCC compiler revise _write() function for printf functionality */
  85:debug.c       **** int _write(int file, char *ptr, int len)
  86:debug.c       **** {
  28              		.loc 1 86 0
ARM GAS  C:\Users\Administrator\AppData\Local\Temp\ccQ6JefW.s 			page 3


  29              		.cfi_startproc
  30              		@ args = 0, pretend = 0, frame = 0
  31              		@ frame_needed = 0, uses_anonymous_args = 0
  32              	.LVL0:
  33 0000 70B5     		push	{r4, r5, r6, lr}
  34              		.cfi_def_cfa_offset 16
  35              		.cfi_offset 4, -16
  36              		.cfi_offset 5, -12
  37              		.cfi_offset 6, -8
  38              		.cfi_offset 14, -4
  39              		.loc 1 86 0
  40 0002 0E00     		movs	r6, r1
  41 0004 1500     		movs	r5, r2
  87:debug.c       ****     int i;
  88:debug.c       ****     file = file;
  89:debug.c       ****     for (i = 0; i < len; i++)
  42              		.loc 1 89 0
  43 0006 0C00     		movs	r4, r1
  44              	.LVL1:
  45              	.L2:
  46              		.loc 1 89 0 is_stmt 0 discriminator 1
  47 0008 A31B     		subs	r3, r4, r6
  48 000a 9D42     		cmp	r5, r3
  49 000c 04DD     		ble	.L5
  50              	.LVL2:
  90:debug.c       ****     {	
  91:debug.c       **** 	    UART_433_UartPutChar(*ptr++);
  51              		.loc 1 91 0 is_stmt 1 discriminator 3
  52 000e 2078     		ldrb	r0, [r4]
  53 0010 FFF7FEFF 		bl	UART_433_SpiUartWriteTxData
  54              	.LVL3:
  55 0014 0134     		adds	r4, r4, #1
  56              	.LVL4:
  57 0016 F7E7     		b	.L2
  58              	.L5:
  92:debug.c       **** 	}
  93:debug.c       ****     return len;
  94:debug.c       **** }
  59              		.loc 1 94 0
  60 0018 2800     		movs	r0, r5
  61              		@ sp needed
  62              	.LVL5:
  63              	.LVL6:
  64 001a 70BD     		pop	{r4, r5, r6, pc}
  65              		.cfi_endproc
  66              	.LFE63:
  67              		.size	_write, .-_write
  68              		.text
  69              	.Letext0:
  70              		.file 2 "Generated_Source\\PSoC4/cytypes.h"
  71              		.file 3 "Generated_Source\\PSoC4/RTC.h"
  72              		.file 4 "Generated_Source\\PSoC4/UART_433_SPI_UART.h"