ARM GAS  C:\Users\Administrator\AppData\Local\Temp\cc67mjZh.s 			page 1


   1              		.syntax unified
   2              		.cpu cortex-m0
   3              		.fpu softvfp
   4              		.eabi_attribute 20, 1
   5              		.eabi_attribute 21, 1
   6              		.eabi_attribute 23, 3
   7              		.eabi_attribute 24, 1
   8              		.eabi_attribute 25, 1
   9              		.eabi_attribute 26, 1
  10              		.eabi_attribute 30, 4
  11              		.eabi_attribute 34, 0
  12              		.eabi_attribute 18, 4
  13              		.thumb
  14              		.syntax unified
  15              		.file	"flash_spi.c"
  16              		.text
  17              	.Ltext0:
  18              		.cfi_sections	.debug_frame
  19              		.section	.text.FLASH_SPI_Send_Dat,"ax",%progbits
  20              		.align	1
  21              		.code	16
  22              		.thumb_func
  23              		.type	FLASH_SPI_Send_Dat, %function
  24              	FLASH_SPI_Send_Dat:
  25              	.LFB64:
  26              		.file 1 "Code\\Device\\W25Q80\\flash_spi.c"
   1:Code\Device\W25Q80/flash_spi.c **** //*************************************************************************************************
   2:Code\Device\W25Q80/flash_spi.c **** // File name		: flash_spi.c
   3:Code\Device\W25Q80/flash_spi.c **** // Description		: 模拟flash_spi的相关函数
   4:Code\Device\W25Q80/flash_spi.c **** // Author			: Keno
   5:Code\Device\W25Q80/flash_spi.c **** // Date				: 2016.11.14
   6:Code\Device\W25Q80/flash_spi.c **** // Version			: V02
   7:Code\Device\W25Q80/flash_spi.c **** //*************************************************************************************************
   8:Code\Device\W25Q80/flash_spi.c **** #include "flash_spi.h"
   9:Code\Device\W25Q80/flash_spi.c **** 
  10:Code\Device\W25Q80/flash_spi.c **** 
  11:Code\Device\W25Q80/flash_spi.c **** //*************************************************************************************************
  12:Code\Device\W25Q80/flash_spi.c **** // Function name	: FLASH_FLASH_SPI_Init
  13:Code\Device\W25Q80/flash_spi.c **** // Description		: FLASH_FLASH_SPI的初始化
  14:Code\Device\W25Q80/flash_spi.c **** // Parameter		: none
  15:Code\Device\W25Q80/flash_spi.c **** // Return			: none
  16:Code\Device\W25Q80/flash_spi.c **** //-------------------------------------------------------------------------------------------------
  17:Code\Device\W25Q80/flash_spi.c **** // Info				: 
  18:Code\Device\W25Q80/flash_spi.c **** //*************************************************************************************************
  19:Code\Device\W25Q80/flash_spi.c **** void FLASH_SPI_Init(void)
  20:Code\Device\W25Q80/flash_spi.c **** {
  21:Code\Device\W25Q80/flash_spi.c **** 	FLASH_DISABLE();
  22:Code\Device\W25Q80/flash_spi.c **** 	FLASH_SCK_RESET();
  23:Code\Device\W25Q80/flash_spi.c **** 	FLASH_MOSI_RESET();
  24:Code\Device\W25Q80/flash_spi.c **** }
  25:Code\Device\W25Q80/flash_spi.c **** 
  26:Code\Device\W25Q80/flash_spi.c **** //*************************************************************************************************
  27:Code\Device\W25Q80/flash_spi.c **** // Function name	: FLASH_SPI_Send_Dat
  28:Code\Device\W25Q80/flash_spi.c **** // Description		: 发送一字节数据
  29:Code\Device\W25Q80/flash_spi.c **** // Parameter		: none
  30:Code\Device\W25Q80/flash_spi.c **** // Return			: none
  31:Code\Device\W25Q80/flash_spi.c **** //-------------------------------------------------------------------------------------------------
ARM GAS  C:\Users\Administrator\AppData\Local\Temp\cc67mjZh.s 			page 2


  32:Code\Device\W25Q80/flash_spi.c **** // Info				: 
  33:Code\Device\W25Q80/flash_spi.c **** //*************************************************************************************************
  34:Code\Device\W25Q80/flash_spi.c **** static void FLASH_SPI_Send_Dat(INT8U dat)
  35:Code\Device\W25Q80/flash_spi.c **** {
  27              		.loc 1 35 0
  28              		.cfi_startproc
  29              		@ args = 0, pretend = 0, frame = 0
  30              		@ frame_needed = 0, uses_anonymous_args = 0
  31              	.LVL0:
  32 0000 70B5     		push	{r4, r5, r6, lr}
  33              		.cfi_def_cfa_offset 16
  34              		.cfi_offset 4, -16
  35              		.cfi_offset 5, -12
  36              		.cfi_offset 6, -8
  37              		.cfi_offset 14, -4
  38              		.loc 1 35 0
  39 0002 0500     		movs	r5, r0
  40              	.LVL1:
  41 0004 0824     		movs	r4, #8
  42              	.LVL2:
  43              	.L4:
  36:Code\Device\W25Q80/flash_spi.c **** 	INT8U i;
  37:Code\Device\W25Q80/flash_spi.c **** 	for (i = 0; i < 8; i++)
  38:Code\Device\W25Q80/flash_spi.c **** 	{
  39:Code\Device\W25Q80/flash_spi.c **** 		FLASH_SCK_RESET();
  44              		.loc 1 39 0
  45 0006 0020     		movs	r0, #0
  46 0008 FFF7FEFF 		bl	FLASH_SCK_Write
  47              	.LVL3:
  40:Code\Device\W25Q80/flash_spi.c **** 		CyDelayUs(1);
  48              		.loc 1 40 0
  49 000c 0120     		movs	r0, #1
  50 000e FFF7FEFF 		bl	CyDelayUs
  51              	.LVL4:
  41:Code\Device\W25Q80/flash_spi.c **** 		if (dat & 0x80)
  52              		.loc 1 41 0
  53 0012 6BB2     		sxtb	r3, r5
  42:Code\Device\W25Q80/flash_spi.c **** 			FLASH_MOSI_SET();
  54              		.loc 1 42 0
  55 0014 0120     		movs	r0, #1
  41:Code\Device\W25Q80/flash_spi.c **** 		if (dat & 0x80)
  56              		.loc 1 41 0
  57 0016 002B     		cmp	r3, #0
  58 0018 00DB     		blt	.L6
  43:Code\Device\W25Q80/flash_spi.c **** 		else
  44:Code\Device\W25Q80/flash_spi.c **** 			FLASH_MOSI_RESET();
  59              		.loc 1 44 0
  60 001a 0020     		movs	r0, #0
  61              	.L6:
  62 001c FFF7FEFF 		bl	FLASH_MOSI_Write
  63              	.LVL5:
  45:Code\Device\W25Q80/flash_spi.c **** 		CyDelayUs(1);
  64              		.loc 1 45 0
  65 0020 0120     		movs	r0, #1
  66 0022 FFF7FEFF 		bl	CyDelayUs
  67              	.LVL6:
  68 0026 013C     		subs	r4, r4, #1
ARM GAS  C:\Users\Administrator\AppData\Local\Temp\cc67mjZh.s 			page 3


  69              	.LVL7:
  46:Code\Device\W25Q80/flash_spi.c **** 		dat <<= 1;
  47:Code\Device\W25Q80/flash_spi.c **** 		FLASH_SCK_SET();
  70              		.loc 1 47 0
  71 0028 0120     		movs	r0, #1
  72 002a FFF7FEFF 		bl	FLASH_SCK_Write
  73              	.LVL8:
  46:Code\Device\W25Q80/flash_spi.c **** 		dat <<= 1;
  74              		.loc 1 46 0
  75 002e 6D00     		lsls	r5, r5, #1
  76              	.LVL9:
  48:Code\Device\W25Q80/flash_spi.c **** 		CyDelayUs(2);
  77              		.loc 1 48 0
  78 0030 0220     		movs	r0, #2
  79 0032 E4B2     		uxtb	r4, r4
  46:Code\Device\W25Q80/flash_spi.c **** 		dat <<= 1;
  80              		.loc 1 46 0
  81 0034 EDB2     		uxtb	r5, r5
  82              	.LVL10:
  83              		.loc 1 48 0
  84 0036 FFF7FEFF 		bl	CyDelayUs
  85              	.LVL11:
  37:Code\Device\W25Q80/flash_spi.c **** 	{
  86              		.loc 1 37 0
  87 003a 002C     		cmp	r4, #0
  88 003c E3D1     		bne	.L4
  49:Code\Device\W25Q80/flash_spi.c **** 	}
  50:Code\Device\W25Q80/flash_spi.c **** 	FLASH_SCK_RESET();
  89              		.loc 1 50 0
  90 003e 2000     		movs	r0, r4
  91 0040 FFF7FEFF 		bl	FLASH_SCK_Write
  92              	.LVL12:
  51:Code\Device\W25Q80/flash_spi.c **** 	CyDelayUs(10);
  93              		.loc 1 51 0
  94 0044 0A20     		movs	r0, #10
  95 0046 FFF7FEFF 		bl	CyDelayUs
  96              	.LVL13:
  52:Code\Device\W25Q80/flash_spi.c **** }
  97              		.loc 1 52 0
  98              		@ sp needed
  99              	.LVL14:
 100 004a 70BD     		pop	{r4, r5, r6, pc}
 101              		.cfi_endproc
 102              	.LFE64:
 103              		.size	FLASH_SPI_Send_Dat, .-FLASH_SPI_Send_Dat
 104              		.section	.text.FLASH_SPI_Receive_Dat,"ax",%progbits
 105              		.align	1
 106              		.code	16
 107              		.thumb_func
 108              		.type	FLASH_SPI_Receive_Dat, %function
 109              	FLASH_SPI_Receive_Dat:
 110              	.LFB65:
  53:Code\Device\W25Q80/flash_spi.c **** 
  54:Code\Device\W25Q80/flash_spi.c **** //*************************************************************************************************
  55:Code\Device\W25Q80/flash_spi.c **** // Function name	: FLASH_SPI_Receive_Dat
  56:Code\Device\W25Q80/flash_spi.c **** // Description		: 接收一字节数据
  57:Code\Device\W25Q80/flash_spi.c **** // Parameter		: none
ARM GAS  C:\Users\Administrator\AppData\Local\Temp\cc67mjZh.s 			page 4


  58:Code\Device\W25Q80/flash_spi.c **** // Return			: none
  59:Code\Device\W25Q80/flash_spi.c **** //-------------------------------------------------------------------------------------------------
  60:Code\Device\W25Q80/flash_spi.c **** // Info				: 
  61:Code\Device\W25Q80/flash_spi.c **** //*************************************************************************************************
  62:Code\Device\W25Q80/flash_spi.c **** static INT8U FLASH_SPI_Receive_Dat(void)
  63:Code\Device\W25Q80/flash_spi.c **** {
 111              		.loc 1 63 0
 112              		.cfi_startproc
 113              		@ args = 0, pretend = 0, frame = 0
 114              		@ frame_needed = 0, uses_anonymous_args = 0
 115              	.LVL15:
 116 0000 70B5     		push	{r4, r5, r6, lr}
 117              		.cfi_def_cfa_offset 16
 118              		.cfi_offset 4, -16
 119              		.cfi_offset 5, -12
 120              		.cfi_offset 6, -8
 121              		.cfi_offset 14, -4
 122              		.loc 1 63 0
 123 0002 0825     		movs	r5, #8
  64:Code\Device\W25Q80/flash_spi.c **** 	INT8U i ,dat = 0;
 124              		.loc 1 64 0
 125 0004 0024     		movs	r4, #0
  65:Code\Device\W25Q80/flash_spi.c **** 	for (i = 0; i < 8; i++)
  66:Code\Device\W25Q80/flash_spi.c **** 	{
  67:Code\Device\W25Q80/flash_spi.c **** 		FLASH_SCK_RESET();
  68:Code\Device\W25Q80/flash_spi.c **** 		CyDelayUs(1);
 126              		.loc 1 68 0
 127 0006 0126     		movs	r6, #1
 128              	.LVL16:
 129              	.L10:
  67:Code\Device\W25Q80/flash_spi.c **** 		CyDelayUs(1);
 130              		.loc 1 67 0
 131 0008 0020     		movs	r0, #0
 132 000a FFF7FEFF 		bl	FLASH_SCK_Write
 133              	.LVL17:
  69:Code\Device\W25Q80/flash_spi.c **** 		dat <<= 1;
 134              		.loc 1 69 0
 135 000e 6400     		lsls	r4, r4, #1
 136              	.LVL18:
  68:Code\Device\W25Q80/flash_spi.c **** 		dat <<= 1;
 137              		.loc 1 68 0
 138 0010 0120     		movs	r0, #1
 139 0012 FFF7FEFF 		bl	CyDelayUs
 140              	.LVL19:
 141              		.loc 1 69 0
 142 0016 E4B2     		uxtb	r4, r4
 143              	.LVL20:
  70:Code\Device\W25Q80/flash_spi.c **** 		if(FLASH_MISO_Read())
 144              		.loc 1 70 0
 145 0018 FFF7FEFF 		bl	FLASH_MISO_Read
 146              	.LVL21:
 147 001c 0028     		cmp	r0, #0
 148 001e 00D0     		beq	.L9
  71:Code\Device\W25Q80/flash_spi.c **** 			dat |= 0x01;
 149              		.loc 1 71 0
 150 0020 3443     		orrs	r4, r6
 151              	.LVL22:
ARM GAS  C:\Users\Administrator\AppData\Local\Temp\cc67mjZh.s 			page 5


 152              	.L9:
  72:Code\Device\W25Q80/flash_spi.c **** 		else
  73:Code\Device\W25Q80/flash_spi.c **** 			dat &= 0xfe;
  74:Code\Device\W25Q80/flash_spi.c **** 		CyDelayUs(1);
 153              		.loc 1 74 0 discriminator 2
 154 0022 0120     		movs	r0, #1
 155 0024 FFF7FEFF 		bl	CyDelayUs
 156              	.LVL23:
 157 0028 013D     		subs	r5, r5, #1
 158              	.LVL24:
  75:Code\Device\W25Q80/flash_spi.c **** 		FLASH_SCK_SET();
 159              		.loc 1 75 0 discriminator 2
 160 002a 0120     		movs	r0, #1
 161 002c FFF7FEFF 		bl	FLASH_SCK_Write
 162              	.LVL25:
 163 0030 EDB2     		uxtb	r5, r5
  76:Code\Device\W25Q80/flash_spi.c **** 		CyDelayUs(2);
 164              		.loc 1 76 0 discriminator 2
 165 0032 0220     		movs	r0, #2
 166 0034 FFF7FEFF 		bl	CyDelayUs
 167              	.LVL26:
  65:Code\Device\W25Q80/flash_spi.c **** 	{
 168              		.loc 1 65 0 discriminator 2
 169 0038 002D     		cmp	r5, #0
 170 003a E5D1     		bne	.L10
  77:Code\Device\W25Q80/flash_spi.c **** 	}
  78:Code\Device\W25Q80/flash_spi.c **** 	FLASH_SCK_RESET();
 171              		.loc 1 78 0
 172 003c 2800     		movs	r0, r5
 173 003e FFF7FEFF 		bl	FLASH_SCK_Write
 174              	.LVL27:
  79:Code\Device\W25Q80/flash_spi.c **** 	CyDelayUs(10);
 175              		.loc 1 79 0
 176 0042 0A20     		movs	r0, #10
 177 0044 FFF7FEFF 		bl	CyDelayUs
 178              	.LVL28:
  80:Code\Device\W25Q80/flash_spi.c **** 	return dat;
  81:Code\Device\W25Q80/flash_spi.c **** }
 179              		.loc 1 81 0
 180              		@ sp needed
 181 0048 2000     		movs	r0, r4
 182              	.LVL29:
 183 004a 70BD     		pop	{r4, r5, r6, pc}
 184              		.cfi_endproc
 185              	.LFE65:
 186              		.size	FLASH_SPI_Receive_Dat, .-FLASH_SPI_Receive_Dat
 187              		.section	.text.FLASH_SPI_Init,"ax",%progbits
 188              		.align	1
 189              		.global	FLASH_SPI_Init
 190              		.code	16
 191              		.thumb_func
 192              		.type	FLASH_SPI_Init, %function
 193              	FLASH_SPI_Init:
 194              	.LFB63:
  20:Code\Device\W25Q80/flash_spi.c **** 	FLASH_DISABLE();
 195              		.loc 1 20 0
 196              		.cfi_startproc
ARM GAS  C:\Users\Administrator\AppData\Local\Temp\cc67mjZh.s 			page 6


 197              		@ args = 0, pretend = 0, frame = 0
 198              		@ frame_needed = 0, uses_anonymous_args = 0
 199 0000 10B5     		push	{r4, lr}
 200              		.cfi_def_cfa_offset 8
 201              		.cfi_offset 4, -8
 202              		.cfi_offset 14, -4
  21:Code\Device\W25Q80/flash_spi.c **** 	FLASH_SCK_RESET();
 203              		.loc 1 21 0
 204 0002 0120     		movs	r0, #1
 205 0004 FFF7FEFF 		bl	FLASH_NCS_Write
 206              	.LVL30:
  22:Code\Device\W25Q80/flash_spi.c **** 	FLASH_MOSI_RESET();
 207              		.loc 1 22 0
 208 0008 0020     		movs	r0, #0
 209 000a FFF7FEFF 		bl	FLASH_SCK_Write
 210              	.LVL31:
  23:Code\Device\W25Q80/flash_spi.c **** }
 211              		.loc 1 23 0
 212 000e 0020     		movs	r0, #0
 213 0010 FFF7FEFF 		bl	FLASH_MOSI_Write
 214              	.LVL32:
  24:Code\Device\W25Q80/flash_spi.c **** 
 215              		.loc 1 24 0
 216              		@ sp needed
 217 0014 10BD     		pop	{r4, pc}
 218              		.cfi_endproc
 219              	.LFE63:
 220              		.size	FLASH_SPI_Init, .-FLASH_SPI_Init
 221              		.section	.text.flash_spi_SetReg,"ax",%progbits
 222              		.align	1
 223              		.global	flash_spi_SetReg
 224              		.code	16
 225              		.thumb_func
 226              		.type	flash_spi_SetReg, %function
 227              	flash_spi_SetReg:
 228              	.LFB66:
  82:Code\Device\W25Q80/flash_spi.c **** 
  83:Code\Device\W25Q80/flash_spi.c **** //*************************************************************************************************
  84:Code\Device\W25Q80/flash_spi.c **** // Function name	: flash_spi_SetReg
  85:Code\Device\W25Q80/flash_spi.c **** // Description		: 设置寄存器
  86:Code\Device\W25Q80/flash_spi.c **** // Parameter		: ucRegAddr	: 地址
  87:Code\Device\W25Q80/flash_spi.c **** //					: ucRegVal	: 数据
  88:Code\Device\W25Q80/flash_spi.c **** // Return			: none
  89:Code\Device\W25Q80/flash_spi.c **** //-------------------------------------------------------------------------------------------------
  90:Code\Device\W25Q80/flash_spi.c **** // Info				: 
  91:Code\Device\W25Q80/flash_spi.c **** //*************************************************************************************************
  92:Code\Device\W25Q80/flash_spi.c **** uint8_t flash_spi_SetReg(uint8_t ucRegAddr, uint8_t ucRegVal)
  93:Code\Device\W25Q80/flash_spi.c **** {
 229              		.loc 1 93 0
 230              		.cfi_startproc
 231              		@ args = 0, pretend = 0, frame = 0
 232              		@ frame_needed = 0, uses_anonymous_args = 0
 233              	.LVL33:
 234 0000 70B5     		push	{r4, r5, r6, lr}
 235              		.cfi_def_cfa_offset 16
 236              		.cfi_offset 4, -16
 237              		.cfi_offset 5, -12
ARM GAS  C:\Users\Administrator\AppData\Local\Temp\cc67mjZh.s 			page 7


 238              		.cfi_offset 6, -8
 239              		.cfi_offset 14, -4
 240              		.loc 1 93 0
 241 0002 0400     		movs	r4, r0
 242 0004 0D00     		movs	r5, r1
  94:Code\Device\W25Q80/flash_spi.c **** 	FLASH_ENABLE();
 243              		.loc 1 94 0
 244 0006 0020     		movs	r0, #0
 245              	.LVL34:
  95:Code\Device\W25Q80/flash_spi.c **** 	FLASH_SPI_Send_Dat(ucRegAddr << 1);
 246              		.loc 1 95 0
 247 0008 6400     		lsls	r4, r4, #1
  94:Code\Device\W25Q80/flash_spi.c **** 	FLASH_ENABLE();
 248              		.loc 1 94 0
 249 000a FFF7FEFF 		bl	FLASH_NCS_Write
 250              	.LVL35:
 251              		.loc 1 95 0
 252 000e E0B2     		uxtb	r0, r4
 253 0010 FFF7FEFF 		bl	FLASH_SPI_Send_Dat
 254              	.LVL36:
  96:Code\Device\W25Q80/flash_spi.c **** 	FLASH_SPI_Send_Dat(ucRegVal);
 255              		.loc 1 96 0
 256 0014 2800     		movs	r0, r5
 257 0016 FFF7FEFF 		bl	FLASH_SPI_Send_Dat
 258              	.LVL37:
  97:Code\Device\W25Q80/flash_spi.c **** 	FLASH_DISABLE();
 259              		.loc 1 97 0
 260 001a 0120     		movs	r0, #1
 261 001c FFF7FEFF 		bl	FLASH_NCS_Write
 262              	.LVL38:
  98:Code\Device\W25Q80/flash_spi.c ****     return TRUE;
  99:Code\Device\W25Q80/flash_spi.c **** }
 263              		.loc 1 99 0
 264              		@ sp needed
 265 0020 0120     		movs	r0, #1
 266 0022 70BD     		pop	{r4, r5, r6, pc}
 267              		.cfi_endproc
 268              	.LFE66:
 269              		.size	flash_spi_SetReg, .-flash_spi_SetReg
 270              		.section	.text.flash_spi_GetReg,"ax",%progbits
 271              		.align	1
 272              		.global	flash_spi_GetReg
 273              		.code	16
 274              		.thumb_func
 275              		.type	flash_spi_GetReg, %function
 276              	flash_spi_GetReg:
 277              	.LFB67:
 100:Code\Device\W25Q80/flash_spi.c **** 
 101:Code\Device\W25Q80/flash_spi.c **** //*************************************************************************************************
 102:Code\Device\W25Q80/flash_spi.c **** // Function name	: flash_spi_SetReg
 103:Code\Device\W25Q80/flash_spi.c **** // Description		: 读取寄存器
 104:Code\Device\W25Q80/flash_spi.c **** // Parameter		: ucRegAddr	: 地址
 105:Code\Device\W25Q80/flash_spi.c **** // Return			: none
 106:Code\Device\W25Q80/flash_spi.c **** //-------------------------------------------------------------------------------------------------
 107:Code\Device\W25Q80/flash_spi.c **** // Info				: 
 108:Code\Device\W25Q80/flash_spi.c **** //*************************************************************************************************
 109:Code\Device\W25Q80/flash_spi.c **** uint8_t flash_spi_GetReg(uint8_t ucRegAddr)
ARM GAS  C:\Users\Administrator\AppData\Local\Temp\cc67mjZh.s 			page 8


 110:Code\Device\W25Q80/flash_spi.c **** {
 278              		.loc 1 110 0
 279              		.cfi_startproc
 280              		@ args = 0, pretend = 0, frame = 0
 281              		@ frame_needed = 0, uses_anonymous_args = 0
 282              	.LVL39:
 283 0000 10B5     		push	{r4, lr}
 284              		.cfi_def_cfa_offset 8
 285              		.cfi_offset 4, -8
 286              		.cfi_offset 14, -4
 287              		.loc 1 110 0
 288 0002 0400     		movs	r4, r0
 111:Code\Device\W25Q80/flash_spi.c **** 	uint8_t ucRegVal;
 112:Code\Device\W25Q80/flash_spi.c **** 	FLASH_ENABLE();
 289              		.loc 1 112 0
 290 0004 0020     		movs	r0, #0
 291              	.LVL40:
 292 0006 FFF7FEFF 		bl	FLASH_NCS_Write
 293              	.LVL41:
 113:Code\Device\W25Q80/flash_spi.c **** 	FLASH_SPI_Send_Dat(0x80 | (ucRegAddr << 1));
 294              		.loc 1 113 0
 295 000a 8020     		movs	r0, #128
 296 000c 6400     		lsls	r4, r4, #1
 297 000e 4042     		rsbs	r0, r0, #0
 298 0010 0443     		orrs	r4, r0
 299 0012 E0B2     		uxtb	r0, r4
 300 0014 FFF7FEFF 		bl	FLASH_SPI_Send_Dat
 301              	.LVL42:
 114:Code\Device\W25Q80/flash_spi.c **** 	//FLASH_SPI_Send_Dat(0x00);
 115:Code\Device\W25Q80/flash_spi.c **** 	ucRegVal = FLASH_SPI_Receive_Dat();
 302              		.loc 1 115 0
 303 0018 FFF7FEFF 		bl	FLASH_SPI_Receive_Dat
 304              	.LVL43:
 305 001c 0400     		movs	r4, r0
 306              	.LVL44:
 116:Code\Device\W25Q80/flash_spi.c **** 	FLASH_DISABLE();
 307              		.loc 1 116 0
 308 001e 0120     		movs	r0, #1
 309 0020 FFF7FEFF 		bl	FLASH_NCS_Write
 310              	.LVL45:
 117:Code\Device\W25Q80/flash_spi.c ****     return ucRegVal;
 118:Code\Device\W25Q80/flash_spi.c **** }
 311              		.loc 1 118 0
 312              		@ sp needed
 313 0024 2000     		movs	r0, r4
 314              	.LVL46:
 315 0026 10BD     		pop	{r4, pc}
 316              		.cfi_endproc
 317              	.LFE67:
 318              		.size	flash_spi_GetReg, .-flash_spi_GetReg
 319              		.section	.text.flash_spi_GetReg2,"ax",%progbits
 320              		.align	1
 321              		.global	flash_spi_GetReg2
 322              		.code	16
 323              		.thumb_func
 324              		.type	flash_spi_GetReg2, %function
 325              	flash_spi_GetReg2:
ARM GAS  C:\Users\Administrator\AppData\Local\Temp\cc67mjZh.s 			page 9


 326              	.LFB68:
 119:Code\Device\W25Q80/flash_spi.c **** 
 120:Code\Device\W25Q80/flash_spi.c **** //*************************************************************************************************
 121:Code\Device\W25Q80/flash_spi.c **** // Function name	: flash_spi_SetReg
 122:Code\Device\W25Q80/flash_spi.c **** // Description		: 读取寄存器
 123:Code\Device\W25Q80/flash_spi.c **** // Parameter		: ucRegAddr	: 地址
 124:Code\Device\W25Q80/flash_spi.c **** // Return			: none
 125:Code\Device\W25Q80/flash_spi.c **** //-------------------------------------------------------------------------------------------------
 126:Code\Device\W25Q80/flash_spi.c **** // Info				: 
 127:Code\Device\W25Q80/flash_spi.c **** //*************************************************************************************************
 128:Code\Device\W25Q80/flash_spi.c **** uint8_t flash_spi_GetReg2(uint8_t ucRegAddr, uint8_t *p)
 129:Code\Device\W25Q80/flash_spi.c **** {
 327              		.loc 1 129 0
 328              		.cfi_startproc
 329              		@ args = 0, pretend = 0, frame = 0
 330              		@ frame_needed = 0, uses_anonymous_args = 0
 331              	.LVL47:
 332 0000 70B5     		push	{r4, r5, r6, lr}
 333              		.cfi_def_cfa_offset 16
 334              		.cfi_offset 4, -16
 335              		.cfi_offset 5, -12
 336              		.cfi_offset 6, -8
 337              		.cfi_offset 14, -4
 338              		.loc 1 129 0
 339 0002 0400     		movs	r4, r0
 130:Code\Device\W25Q80/flash_spi.c **** 	FLASH_ENABLE();
 340              		.loc 1 130 0
 341 0004 0020     		movs	r0, #0
 342              	.LVL48:
 129:Code\Device\W25Q80/flash_spi.c **** 	FLASH_ENABLE();
 343              		.loc 1 129 0
 344 0006 0D00     		movs	r5, r1
 345              		.loc 1 130 0
 346 0008 FFF7FEFF 		bl	FLASH_NCS_Write
 347              	.LVL49:
 131:Code\Device\W25Q80/flash_spi.c **** 	FLASH_SPI_Send_Dat(0x80 | (ucRegAddr << 1));
 348              		.loc 1 131 0
 349 000c 8020     		movs	r0, #128
 350 000e 6400     		lsls	r4, r4, #1
 351 0010 4042     		rsbs	r0, r0, #0
 352 0012 0443     		orrs	r4, r0
 353 0014 E0B2     		uxtb	r0, r4
 354 0016 FFF7FEFF 		bl	FLASH_SPI_Send_Dat
 355              	.LVL50:
 132:Code\Device\W25Q80/flash_spi.c **** 	//FLASH_SPI_Send_Dat(0x00);
 133:Code\Device\W25Q80/flash_spi.c **** 	*p = FLASH_SPI_Receive_Dat();
 356              		.loc 1 133 0
 357 001a FFF7FEFF 		bl	FLASH_SPI_Receive_Dat
 358              	.LVL51:
 359 001e 2870     		strb	r0, [r5]
 134:Code\Device\W25Q80/flash_spi.c **** 	FLASH_DISABLE();
 360              		.loc 1 134 0
 361 0020 0120     		movs	r0, #1
 362 0022 FFF7FEFF 		bl	FLASH_NCS_Write
 363              	.LVL52:
 135:Code\Device\W25Q80/flash_spi.c ****     return TRUE;
 136:Code\Device\W25Q80/flash_spi.c **** }
ARM GAS  C:\Users\Administrator\AppData\Local\Temp\cc67mjZh.s 			page 10


 364              		.loc 1 136 0
 365              		@ sp needed
 366 0026 0120     		movs	r0, #1
 367              	.LVL53:
 368 0028 70BD     		pop	{r4, r5, r6, pc}
 369              		.cfi_endproc
 370              	.LFE68:
 371              		.size	flash_spi_GetReg2, .-flash_spi_GetReg2
 372              		.section	.text.FLASH_SPIRead_Sequence,"ax",%progbits
 373              		.align	1
 374              		.global	FLASH_SPIRead_Sequence
 375              		.code	16
 376              		.thumb_func
 377              		.type	FLASH_SPIRead_Sequence, %function
 378              	FLASH_SPIRead_Sequence:
 379              	.LFB69:
 137:Code\Device\W25Q80/flash_spi.c **** 
 138:Code\Device\W25Q80/flash_spi.c **** /**************************************************************************************************
 139:Code\Device\W25Q80/flash_spi.c **** // Function name	: FLASH_SPIRead_Sequence
 140:Code\Device\W25Q80/flash_spi.c **** // Description		: FLASH_SPI读FIFO寄存器的值
 141:Code\Device\W25Q80/flash_spi.c **** // Parameter		: sequence_length 	: 数据长度
 142:Code\Device\W25Q80/flash_spi.c **** //					: ucRegAddr			: 寄存器地址
 143:Code\Device\W25Q80/flash_spi.c **** //					: *reg_value		: 数据指针
 144:Code\Device\W25Q80/flash_spi.c **** // Return			: none
 145:Code\Device\W25Q80/flash_spi.c **** //-------------------------------------------------------------------------------------------------
 146:Code\Device\W25Q80/flash_spi.c **** // Info				: 
 147:Code\Device\W25Q80/flash_spi.c **** ***************************************************************************************************
 148:Code\Device\W25Q80/flash_spi.c **** void FLASH_SPIRead_Sequence(uint8_t sequence_length, uint8_t ucRegAddr, uint8_t *reg_value)
 149:Code\Device\W25Q80/flash_spi.c **** {
 380              		.loc 1 149 0
 381              		.cfi_startproc
 382              		@ args = 0, pretend = 0, frame = 0
 383              		@ frame_needed = 0, uses_anonymous_args = 0
 384              	.LVL54:
 385 0000 70B5     		push	{r4, r5, r6, lr}
 386              		.cfi_def_cfa_offset 16
 387              		.cfi_offset 4, -16
 388              		.cfi_offset 5, -12
 389              		.cfi_offset 6, -8
 390              		.cfi_offset 14, -4
 391              		.loc 1 149 0
 392 0002 0E00     		movs	r6, r1
 150:Code\Device\W25Q80/flash_spi.c **** 	uint8_t i;
 151:Code\Device\W25Q80/flash_spi.c **** 	if (sequence_length == 0)
 393              		.loc 1 151 0
 394 0004 0028     		cmp	r0, #0
 395 0006 09D0     		beq	.L19
 396 0008 1400     		movs	r4, r2
 397 000a 1518     		adds	r5, r2, r0
 398              	.LVL55:
 399              	.L21:
 152:Code\Device\W25Q80/flash_spi.c **** 		return;
 153:Code\Device\W25Q80/flash_spi.c **** 	for (i = 0; i < sequence_length; i++)
 400              		.loc 1 153 0 discriminator 1
 401 000c AC42     		cmp	r4, r5
 402 000e 05D0     		beq	.L19
 154:Code\Device\W25Q80/flash_spi.c **** 	{
ARM GAS  C:\Users\Administrator\AppData\Local\Temp\cc67mjZh.s 			page 11


 155:Code\Device\W25Q80/flash_spi.c **** 		*(reg_value + i) = flash_spi_GetReg(ucRegAddr);
 403              		.loc 1 155 0 discriminator 3
 404 0010 3000     		movs	r0, r6
 405 0012 FFF7FEFF 		bl	flash_spi_GetReg
 406              	.LVL56:
 407 0016 2070     		strb	r0, [r4]
 408              	.LVL57:
 409 0018 0134     		adds	r4, r4, #1
 410              	.LVL58:
 411 001a F7E7     		b	.L21
 412              	.L19:
 156:Code\Device\W25Q80/flash_spi.c **** 	}
 157:Code\Device\W25Q80/flash_spi.c **** 	return;
 158:Code\Device\W25Q80/flash_spi.c **** }
 413              		.loc 1 158 0
 414              		@ sp needed
 415 001c 70BD     		pop	{r4, r5, r6, pc}
 416              		.cfi_endproc
 417              	.LFE69:
 418              		.size	FLASH_SPIRead_Sequence, .-FLASH_SPIRead_Sequence
 419              		.section	.text.FLASH_SPIWrite_Sequence,"ax",%progbits
 420              		.align	1
 421              		.global	FLASH_SPIWrite_Sequence
 422              		.code	16
 423              		.thumb_func
 424              		.type	FLASH_SPIWrite_Sequence, %function
 425              	FLASH_SPIWrite_Sequence:
 426              	.LFB70:
 159:Code\Device\W25Q80/flash_spi.c **** 
 160:Code\Device\W25Q80/flash_spi.c **** /**************************************************************************************************
 161:Code\Device\W25Q80/flash_spi.c **** // Function name	: FLASH_SPIWrite_Sequence
 162:Code\Device\W25Q80/flash_spi.c **** // Description		: FLASH_SPI写FIFO的值
 163:Code\Device\W25Q80/flash_spi.c **** // Parameter		: sequence_length 数据长度 
 164:Code\Device\W25Q80/flash_spi.c **** //					: ucRegAddr：寄存器地址  
 165:Code\Device\W25Q80/flash_spi.c **** //					: *reg_value 数据指针
 166:Code\Device\W25Q80/flash_spi.c **** // Return			: none
 167:Code\Device\W25Q80/flash_spi.c **** //-------------------------------------------------------------------------------------------------
 168:Code\Device\W25Q80/flash_spi.c **** // Info				: 
 169:Code\Device\W25Q80/flash_spi.c **** ***************************************************************************************************
 170:Code\Device\W25Q80/flash_spi.c **** void FLASH_SPIWrite_Sequence(uint8_t sequence_length, uint8_t ucRegAddr, uint8_t *reg_value)
 171:Code\Device\W25Q80/flash_spi.c **** {
 427              		.loc 1 171 0
 428              		.cfi_startproc
 429              		@ args = 0, pretend = 0, frame = 0
 430              		@ frame_needed = 0, uses_anonymous_args = 0
 431              	.LVL59:
 432 0000 70B5     		push	{r4, r5, r6, lr}
 433              		.cfi_def_cfa_offset 16
 434              		.cfi_offset 4, -16
 435              		.cfi_offset 5, -12
 436              		.cfi_offset 6, -8
 437              		.cfi_offset 14, -4
 438              		.loc 1 171 0
 439 0002 0E00     		movs	r6, r1
 172:Code\Device\W25Q80/flash_spi.c **** 	uint8_t i;
 173:Code\Device\W25Q80/flash_spi.c **** 	if (sequence_length == 0)
 440              		.loc 1 173 0
ARM GAS  C:\Users\Administrator\AppData\Local\Temp\cc67mjZh.s 			page 12


 441 0004 0028     		cmp	r0, #0
 442 0006 09D0     		beq	.L26
 443 0008 1400     		movs	r4, r2
 444 000a 1518     		adds	r5, r2, r0
 445              	.LVL60:
 446              	.L28:
 174:Code\Device\W25Q80/flash_spi.c **** 		return;
 175:Code\Device\W25Q80/flash_spi.c **** 	for (i = 0; i < sequence_length; i++)
 447              		.loc 1 175 0 discriminator 1
 448 000c AC42     		cmp	r4, r5
 449 000e 05D0     		beq	.L26
 176:Code\Device\W25Q80/flash_spi.c **** 	{
 177:Code\Device\W25Q80/flash_spi.c **** 		flash_spi_SetReg(ucRegAddr, *(reg_value + i));
 450              		.loc 1 177 0 discriminator 3
 451 0010 2178     		ldrb	r1, [r4]
 452 0012 3000     		movs	r0, r6
 453 0014 FFF7FEFF 		bl	flash_spi_SetReg
 454              	.LVL61:
 455 0018 0134     		adds	r4, r4, #1
 456              	.LVL62:
 457 001a F7E7     		b	.L28
 458              	.L26:
 178:Code\Device\W25Q80/flash_spi.c **** 	}
 179:Code\Device\W25Q80/flash_spi.c **** 	return;
 180:Code\Device\W25Q80/flash_spi.c **** }
 459              		.loc 1 180 0
 460              		@ sp needed
 461 001c 70BD     		pop	{r4, r5, r6, pc}
 462              		.cfi_endproc
 463              	.LFE70:
 464              		.size	FLASH_SPIWrite_Sequence, .-FLASH_SPIWrite_Sequence
 465              		.section	.text.FLASH_ReadWriteByte,"ax",%progbits
 466              		.align	1
 467              		.global	FLASH_ReadWriteByte
 468              		.code	16
 469              		.thumb_func
 470              		.type	FLASH_ReadWriteByte, %function
 471              	FLASH_ReadWriteByte:
 472              	.LFB71:
 181:Code\Device\W25Q80/flash_spi.c **** 
 182:Code\Device\W25Q80/flash_spi.c **** /**************************************************************************************************
 183:Code\Device\W25Q80/flash_spi.c **** // Function name	: FLASH_ReadWriteByte
 184:Code\Device\W25Q80/flash_spi.c **** // Description		: w25qxx 命令值
 185:Code\Device\W25Q80/flash_spi.c **** // Parameter		: uint8_t txdata 
 186:Code\Device\W25Q80/flash_spi.c **** //					:   
 187:Code\Device\W25Q80/flash_spi.c **** //					: 
 188:Code\Device\W25Q80/flash_spi.c **** // Return			: uint8_t
 189:Code\Device\W25Q80/flash_spi.c **** //-------------------------------------------------------------------------------------------------
 190:Code\Device\W25Q80/flash_spi.c **** // Info				: 
 191:Code\Device\W25Q80/flash_spi.c **** ***************************************************************************************************
 192:Code\Device\W25Q80/flash_spi.c **** #if 1
 193:Code\Device\W25Q80/flash_spi.c **** uint8_t FLASH_ReadWriteByte(uint8_t txdata, uint8 cmd_flag)
 194:Code\Device\W25Q80/flash_spi.c **** {
 473              		.loc 1 194 0
 474              		.cfi_startproc
 475              		@ args = 0, pretend = 0, frame = 0
 476              		@ frame_needed = 0, uses_anonymous_args = 0
ARM GAS  C:\Users\Administrator\AppData\Local\Temp\cc67mjZh.s 			page 13


 477              	.LVL63:
 478 0000 10B5     		push	{r4, lr}
 479              		.cfi_def_cfa_offset 8
 480              		.cfi_offset 4, -8
 481              		.cfi_offset 14, -4
 195:Code\Device\W25Q80/flash_spi.c **** 	if (cmd_flag == Flash_cmdRead)					
 482              		.loc 1 195 0
 483 0002 0129     		cmp	r1, #1
 484 0004 02D1     		bne	.L34
 196:Code\Device\W25Q80/flash_spi.c **** 	{
 197:Code\Device\W25Q80/flash_spi.c **** 		return FLASH_SPI_Receive_Dat();					// 如果cmd_flag 是1 表示读取指令 
 485              		.loc 1 197 0
 486 0006 FFF7FEFF 		bl	FLASH_SPI_Receive_Dat
 487              	.LVL64:
 488 000a 02E0     		b	.L35
 489              	.LVL65:
 490              	.L34:
 198:Code\Device\W25Q80/flash_spi.c **** 	}
 199:Code\Device\W25Q80/flash_spi.c **** 	else
 200:Code\Device\W25Q80/flash_spi.c **** 	{
 201:Code\Device\W25Q80/flash_spi.c **** 		FLASH_SPI_Send_Dat(txdata);						// 如果cmd_flag 是0 表示写入指令 
 491              		.loc 1 201 0
 492 000c FFF7FEFF 		bl	FLASH_SPI_Send_Dat
 493              	.LVL66:
 202:Code\Device\W25Q80/flash_spi.c **** 		return 0;
 494              		.loc 1 202 0
 495 0010 0020     		movs	r0, #0
 496              	.L35:
 203:Code\Device\W25Q80/flash_spi.c **** 	}
 204:Code\Device\W25Q80/flash_spi.c **** }
 497              		.loc 1 204 0
 498              		@ sp needed
 499 0012 10BD     		pop	{r4, pc}
 500              		.cfi_endproc
 501              	.LFE71:
 502              		.size	FLASH_ReadWriteByte, .-FLASH_ReadWriteByte
 503              		.text
 504              	.Letext0:
 505              		.file 2 "c:\\program files (x86)\\cypress\\psoc creator\\4.1\\psoc creator\\import\\gnu\\arm\\5.4.
 506              		.file 3 "c:\\program files (x86)\\cypress\\psoc creator\\4.1\\psoc creator\\import\\gnu\\arm\\5.4.
 507              		.file 4 "Generated_Source\\PSoC4/cytypes.h"
 508              		.file 5 ".\\Code\\Common/config.h"
 509              		.file 6 "Generated_Source\\PSoC4/FLASH_SCK.h"
 510              		.file 7 "Generated_Source\\PSoC4/CyLib.h"
 511              		.file 8 "Generated_Source\\PSoC4/FLASH_MOSI.h"
 512              		.file 9 "Generated_Source\\PSoC4/FLASH_MISO.h"
 513              		.file 10 "Generated_Source\\PSoC4/FLASH_NCS.h"
 514              		.file 11 "Generated_Source\\PSoC4/RTC.h"