ARM GAS  C:\Users\Administrator\AppData\Local\Temp\ccIjs2fN.s 			page 1


   1              		.syntax unified
   2              		.cpu cortex-m0
   3              		.fpu softvfp
   4              		.eabi_attribute 20, 1
   5              		.eabi_attribute 21, 1
   6              		.eabi_attribute 23, 3
   7              		.eabi_attribute 24, 1
   8              		.eabi_attribute 25, 1
   9              		.eabi_attribute 26, 1
  10              		.eabi_attribute 30, 4
  11              		.eabi_attribute 34, 0
  12              		.eabi_attribute 18, 4
  13              		.thumb
  14              		.syntax unified
  15              		.file	"isr.c"
  16              		.text
  17              	.Ltext0:
  18              		.cfi_sections	.debug_frame
  19              		.section	.text.WDT_Interrupt,"ax",%progbits
  20              		.align	1
  21              		.global	WDT_Interrupt
  22              		.code	16
  23              		.thumb_func
  24              		.type	WDT_Interrupt, %function
  25              	WDT_Interrupt:
  26              	.LFB63:
  27              		.file 1 "Code\\UserApp\\isr.c"
   1:Code\UserApp/isr.c **** //*************************************************************************************************
   2:Code\UserApp/isr.c **** // File name		: isr.c
   3:Code\UserApp/isr.c **** // Description		: 中断服务的相关信息
   4:Code\UserApp/isr.c **** // Author			: Keno
   5:Code\UserApp/isr.c **** // Date				: 2016.8.8
   6:Code\UserApp/isr.c **** // Version			: V02
   7:Code\UserApp/isr.c **** //-------------------------------------------------------------------------------------------------
   8:Code\UserApp/isr.c **** // Info				: 
   9:Code\UserApp/isr.c **** //*************************************************************************************************
  10:Code\UserApp/isr.c **** #include "isr.h"
  11:Code\UserApp/isr.c **** 
  12:Code\UserApp/isr.c **** 
  13:Code\UserApp/isr.c **** 
  14:Code\UserApp/isr.c **** //*************************************************************************************************
  15:Code\UserApp/isr.c **** // Function name	: WDT_Interrupt
  16:Code\UserApp/isr.c **** // Description		: 看门狗中断
  17:Code\UserApp/isr.c **** // Parameter		: none
  18:Code\UserApp/isr.c **** // Return			: none
  19:Code\UserApp/isr.c **** //-------------------------------------------------------------------------------------------------
  20:Code\UserApp/isr.c **** // Info				: 
  21:Code\UserApp/isr.c **** //*************************************************************************************************
  22:Code\UserApp/isr.c **** CY_ISR(WDT_Interrupt)
  23:Code\UserApp/isr.c **** {
  28              		.loc 1 23 0
  29              		.cfi_startproc
  30              		@ args = 0, pretend = 0, frame = 0
  31              		@ frame_needed = 0, uses_anonymous_args = 0
  32 0000 10B5     		push	{r4, lr}
  33              		.cfi_def_cfa_offset 8
  34              		.cfi_offset 4, -8
ARM GAS  C:\Users\Administrator\AppData\Local\Temp\ccIjs2fN.s 			page 2


  35              		.cfi_offset 14, -4
  24:Code\UserApp/isr.c **** 	if (CySysWdtGetInterruptSource() & CY_SYS_WDT_COUNTER0_INT)
  36              		.loc 1 24 0
  37 0002 FFF7FEFF 		bl	CySysWdtGetInterruptSource
  38              	.LVL0:
  39 0006 0423     		movs	r3, #4
  40 0008 1842     		tst	r0, r3
  41 000a 06D0     		beq	.L1
  25:Code\UserApp/isr.c **** 	{
  26:Code\UserApp/isr.c **** 		/* Clear interrupts state */
  27:Code\UserApp/isr.c **** 		CySysWdtClearInterrupt(CY_SYS_WDT_COUNTER0_INT);
  42              		.loc 1 27 0
  43 000c 1800     		movs	r0, r3
  44 000e FFF7FEFF 		bl	CySysWdtClearInterrupt
  45              	.LVL1:
  28:Code\UserApp/isr.c ****     	WDT_ISR_ClearPending();
  46              		.loc 1 28 0
  47 0012 FFF7FEFF 		bl	WDT_ISR_ClearPending
  48              	.LVL2:
  29:Code\UserApp/isr.c **** 		RTC_Update();
  49              		.loc 1 29 0
  50 0016 FFF7FEFF 		bl	RTC_Update
  51              	.LVL3:
  52              	.L1:
  30:Code\UserApp/isr.c **** 	}
  31:Code\UserApp/isr.c **** }
  53              		.loc 1 31 0
  54              		@ sp needed
  55 001a 10BD     		pop	{r4, pc}
  56              		.cfi_endproc
  57              	.LFE63:
  58              		.size	WDT_Interrupt, .-WDT_Interrupt
  59              		.section	.text.SYSTICK_IRQ_INTERRUPT,"ax",%progbits
  60              		.align	1
  61              		.global	SYSTICK_IRQ_INTERRUPT
  62              		.code	16
  63              		.thumb_func
  64              		.type	SYSTICK_IRQ_INTERRUPT, %function
  65              	SYSTICK_IRQ_INTERRUPT:
  66              	.LFB64:
  32:Code\UserApp/isr.c **** 
  33:Code\UserApp/isr.c **** //*************************************************************************************************
  34:Code\UserApp/isr.c **** // Function name	: SYSTICK_IRQ_INTERRUPT
  35:Code\UserApp/isr.c **** // Description		: SYSTICK定时器中断的服务函数
  36:Code\UserApp/isr.c **** // Parameter		: none
  37:Code\UserApp/isr.c **** // Return			: none
  38:Code\UserApp/isr.c **** //-------------------------------------------------------------------------------------------------
  39:Code\UserApp/isr.c **** // Info				: 1ms进入中断一次
  40:Code\UserApp/isr.c **** //*************************************************************************************************
  41:Code\UserApp/isr.c **** CY_ISR(SYSTICK_IRQ_INTERRUPT)
  42:Code\UserApp/isr.c **** {
  67              		.loc 1 42 0
  68              		.cfi_startproc
  69              		@ args = 0, pretend = 0, frame = 0
  70              		@ frame_needed = 0, uses_anonymous_args = 0
  71              		@ link register save eliminated.
  43:Code\UserApp/isr.c **** 
ARM GAS  C:\Users\Administrator\AppData\Local\Temp\ccIjs2fN.s 			page 3


  44:Code\UserApp/isr.c **** }
  72              		.loc 1 44 0
  73              		@ sp needed
  74 0000 7047     		bx	lr
  75              		.cfi_endproc
  76              	.LFE64:
  77              		.size	SYSTICK_IRQ_INTERRUPT, .-SYSTICK_IRQ_INTERRUPT
  78              		.section	.text.Timer_InterruptHandler,"ax",%progbits
  79              		.align	1
  80              		.global	Timer_InterruptHandler
  81              		.code	16
  82              		.thumb_func
  83              		.type	Timer_InterruptHandler, %function
  84              	Timer_InterruptHandler:
  85              	.LFB65:
  45:Code\UserApp/isr.c **** 
  46:Code\UserApp/isr.c **** //*************************************************************************************************
  47:Code\UserApp/isr.c **** // Function name	: Timer_InterruptHandler
  48:Code\UserApp/isr.c **** // Description		: 定时器中断的服务函数
  49:Code\UserApp/isr.c **** // Parameter		: none
  50:Code\UserApp/isr.c **** // Return			: none
  51:Code\UserApp/isr.c **** //-------------------------------------------------------------------------------------------------
  52:Code\UserApp/isr.c **** // Info				:
  53:Code\UserApp/isr.c **** //*************************************************************************************************
  54:Code\UserApp/isr.c **** CY_ISR(Timer_InterruptHandler)
  55:Code\UserApp/isr.c **** {
  86              		.loc 1 55 0
  87              		.cfi_startproc
  88              		@ args = 0, pretend = 0, frame = 0
  89              		@ frame_needed = 0, uses_anonymous_args = 0
  56:Code\UserApp/isr.c **** 	Timer_100ms_WriteCounter(1000);
  90              		.loc 1 56 0
  91 0000 FA20     		movs	r0, #250
  55:Code\UserApp/isr.c **** 	Timer_100ms_WriteCounter(1000);
  92              		.loc 1 55 0
  93 0002 10B5     		push	{r4, lr}
  94              		.cfi_def_cfa_offset 8
  95              		.cfi_offset 4, -8
  96              		.cfi_offset 14, -4
  97              		.loc 1 56 0
  98 0004 8000     		lsls	r0, r0, #2
  99 0006 FFF7FEFF 		bl	Timer_100ms_WriteCounter
 100              	.LVL4:
  57:Code\UserApp/isr.c **** 	Timer_100ms_ClearInterrupt(Timer_100ms__INTR_MASK_CC_MATCH);
 101              		.loc 1 57 0
 102 000a 0220     		movs	r0, #2
 103 000c FFF7FEFF 		bl	Timer_100ms_ClearInterrupt
 104              	.LVL5:
  58:Code\UserApp/isr.c **** 	WaitTimeOut();
  59:Code\UserApp/isr.c **** 	RecvTimeOut();
  60:Code\UserApp/isr.c **** 	UpdateTimeOut();
  61:Code\UserApp/isr.c **** 	BeepPlay_WaitTime();									// 蜂鸣器计时器								//
  62:Code\UserApp/isr.c ****     CardCheckTimeOut();
  63:Code\UserApp/isr.c **** 	Defendalarm_TimeOut();
  64:Code\UserApp/isr.c **** 	MgCheck_Count();
  65:Code\UserApp/isr.c **** 	FireCheck_Count();
  66:Code\UserApp/isr.c **** }
ARM GAS  C:\Users\Administrator\AppData\Local\Temp\ccIjs2fN.s 			page 4


 105              		.loc 1 66 0
 106              		@ sp needed
  58:Code\UserApp/isr.c **** 	WaitTimeOut();
 107              		.loc 1 58 0
 108 0010 FFF7FEFF 		bl	WaitTimeOut
 109              	.LVL6:
  59:Code\UserApp/isr.c **** 	UpdateTimeOut();
 110              		.loc 1 59 0
 111 0014 FFF7FEFF 		bl	RecvTimeOut
 112              	.LVL7:
  60:Code\UserApp/isr.c **** 	BeepPlay_WaitTime();									// 蜂鸣器计时器								//
 113              		.loc 1 60 0
 114 0018 FFF7FEFF 		bl	UpdateTimeOut
 115              	.LVL8:
  61:Code\UserApp/isr.c ****     CardCheckTimeOut();
 116              		.loc 1 61 0
 117 001c FFF7FEFF 		bl	BeepPlay_WaitTime
 118              	.LVL9:
  62:Code\UserApp/isr.c **** 	Defendalarm_TimeOut();
 119              		.loc 1 62 0
 120 0020 FFF7FEFF 		bl	CardCheckTimeOut
 121              	.LVL10:
  63:Code\UserApp/isr.c **** 	MgCheck_Count();
 122              		.loc 1 63 0
 123 0024 FFF7FEFF 		bl	Defendalarm_TimeOut
 124              	.LVL11:
  64:Code\UserApp/isr.c **** 	FireCheck_Count();
 125              		.loc 1 64 0
 126 0028 FFF7FEFF 		bl	MgCheck_Count
 127              	.LVL12:
  65:Code\UserApp/isr.c **** }
 128              		.loc 1 65 0
 129 002c FFF7FEFF 		bl	FireCheck_Count
 130              	.LVL13:
 131              		.loc 1 66 0
 132 0030 10BD     		pop	{r4, pc}
 133              		.cfi_endproc
 134              	.LFE65:
 135              		.size	Timer_InterruptHandler, .-Timer_InterruptHandler
 136              		.section	.text.RX_IRQ_INTERRUPT,"ax",%progbits
 137              		.align	1
 138              		.global	RX_IRQ_INTERRUPT
 139              		.code	16
 140              		.thumb_func
 141              		.type	RX_IRQ_INTERRUPT, %function
 142              	RX_IRQ_INTERRUPT:
 143              	.LFB66:
  67:Code\UserApp/isr.c **** 
  68:Code\UserApp/isr.c **** //*************************************************************************************************
  69:Code\UserApp/isr.c **** // Function name	: RX_IRQ_INTERRUPT
  70:Code\UserApp/isr.c **** // Description		: 串口中断的服务函数
  71:Code\UserApp/isr.c **** // Parameter		: none
  72:Code\UserApp/isr.c **** // Return			: none
  73:Code\UserApp/isr.c **** //-------------------------------------------------------------------------------------------------
  74:Code\UserApp/isr.c **** // Info				:
  75:Code\UserApp/isr.c **** //*************************************************************************************************
  76:Code\UserApp/isr.c **** CY_ISR(RX_IRQ_INTERRUPT)
ARM GAS  C:\Users\Administrator\AppData\Local\Temp\ccIjs2fN.s 			page 5


  77:Code\UserApp/isr.c **** {
 144              		.loc 1 77 0
 145              		.cfi_startproc
 146              		@ args = 0, pretend = 0, frame = 0
 147              		@ frame_needed = 0, uses_anonymous_args = 0
 148 0000 10B5     		push	{r4, lr}
 149              		.cfi_def_cfa_offset 8
 150              		.cfi_offset 4, -8
 151              		.cfi_offset 14, -4
  78:Code\UserApp/isr.c **** 	#if 0 
  79:Code\UserApp/isr.c ****     uint8 i, rxData;
  80:Code\UserApp/isr.c **** 	uint32 qty;
  81:Code\UserApp/isr.c **** 	
  82:Code\UserApp/isr.c **** 	if (UART_433_GetRxInterruptSourceMasked() & UART_433_INTR_RX_NOT_EMPTY)
  83:Code\UserApp/isr.c **** 	{
  84:Code\UserApp/isr.c **** 		qty = UART_433_SpiUartGetRxBufferSize();
  85:Code\UserApp/isr.c **** 		for (i = 0; i < qty; i++)
  86:Code\UserApp/isr.c **** 		{
  87:Code\UserApp/isr.c **** 			rxData = UART_433_SpiUartReadRxData();
  88:Code\UserApp/isr.c **** 			Uart433Recv(rxData);
  89:Code\UserApp/isr.c **** 		}
  90:Code\UserApp/isr.c **** 	}
  91:Code\UserApp/isr.c ****     UART_433_SpiUartClearRxBuffer();
  92:Code\UserApp/isr.c **** 	#endif
  93:Code\UserApp/isr.c **** 	// 优化数据接收速率问题！ @chensq 03-07
  94:Code\UserApp/isr.c **** 	if (0u != UART_433_SpiUartGetRxBufferSize())
 152              		.loc 1 94 0
 153 0002 FFF7FEFF 		bl	UART_433_SpiUartGetRxBufferSize
 154              	.LVL14:
 155 0006 0028     		cmp	r0, #0
 156 0008 04D0     		beq	.L10
  95:Code\UserApp/isr.c **** 	{
  96:Code\UserApp/isr.c **** 		Uart433Recv(UART_433_RX_FIFO_RD_REG);	
 157              		.loc 1 96 0
 158 000a 044B     		ldr	r3, .L14
 159 000c 1868     		ldr	r0, [r3]
 160 000e C0B2     		uxtb	r0, r0
 161 0010 FFF7FEFF 		bl	Uart433Recv
 162              	.LVL15:
 163              	.L10:
  97:Code\UserApp/isr.c **** 	}
  98:Code\UserApp/isr.c **** 		
  99:Code\UserApp/isr.c ****     UART_433_ClearRxInterruptSource(UART_433_INTR_RX_NOT_EMPTY);
 164              		.loc 1 99 0
 165 0014 0422     		movs	r2, #4
 166 0016 024B     		ldr	r3, .L14+4
 100:Code\UserApp/isr.c **** }
 167              		.loc 1 100 0
 168              		@ sp needed
  99:Code\UserApp/isr.c **** }
 169              		.loc 1 99 0
 170 0018 1A60     		str	r2, [r3]
 171              		.loc 1 100 0
 172 001a 10BD     		pop	{r4, pc}
 173              	.L15:
 174              		.align	2
 175              	.L14:
ARM GAS  C:\Users\Administrator\AppData\Local\Temp\ccIjs2fN.s 			page 6


 176 001c 40032440 		.word	1076101952
 177 0020 C00F2440 		.word	1076105152
 178              		.cfi_endproc
 179              	.LFE66:
 180              		.size	RX_IRQ_INTERRUPT, .-RX_IRQ_INTERRUPT
 181              		.text
 182              	.Letext0:
 183              		.file 2 "Generated_Source\\PSoC4/cytypes.h"
 184              		.file 3 "Generated_Source\\PSoC4/CyLFClk.h"
 185              		.file 4 "Generated_Source\\PSoC4/WDT_ISR.h"
 186              		.file 5 "Generated_Source\\PSoC4/RTC.h"
 187              		.file 6 "Generated_Source\\PSoC4/Timer_100ms.h"
 188              		.file 7 "Code\\UserApp\\isr.h"
 189              		.file 8 ".\\Code\\UserApp\\Voice/voice.h"
 190              		.file 9 "Generated_Source\\PSoC4/UART_433_SPI_UART.h"
 191              		.file 10 ".\\Code\\Device\\GPRS/Uart433.h"