ARM GAS  C:\Users\Administrator\AppData\Local\Temp\ccNQfmEa.s 			page 1


   1              		.syntax unified
   2              		.cpu cortex-m0
   3              		.fpu softvfp
   4              		.eabi_attribute 20, 1
   5              		.eabi_attribute 21, 1
   6              		.eabi_attribute 23, 3
   7              		.eabi_attribute 24, 1
   8              		.eabi_attribute 25, 1
   9              		.eabi_attribute 26, 1
  10              		.eabi_attribute 30, 4
  11              		.eabi_attribute 34, 0
  12              		.eabi_attribute 18, 4
  13              		.thumb
  14              		.syntax unified
  15              		.file	"main.c"
  16              		.text
  17              	.Ltext0:
  18              		.cfi_sections	.debug_frame
  19              		.section	.text.AppCallback,"ax",%progbits
  20              		.align	1
  21              		.global	AppCallback
  22              		.code	16
  23              		.thumb_func
  24              		.type	AppCallback, %function
  25              	AppCallback:
  26              	.LFB63:
  27              		.file 1 "main.c"
   1:main.c        **** //*************************************************************************************************
   2:main.c        **** // File name		: main.c
   3:main.c        **** // Description		: 门禁系统的相关函数
   4:main.c        **** // Author			: Keno
   5:main.c        **** // Date				: 2016.8.8
   6:main.c        **** // Version			: V02
   7:main.c        **** //-------------------------------------------------------------------------------------------------
   8:main.c        **** // Info				: 
   9:main.c        **** //*************************************************************************************************
  10:main.c        **** #include "main.h"
  11:main.c        **** 
  12:main.c        **** 
  13:main.c        **** //*************************************************************************************************
  14:main.c        **** // Function name	: AppCallback
  15:main.c        **** // Description		: 蓝牙的回调函数
  16:main.c        **** // Parameter		: event
  17:main.c        **** //					: eventParam
  18:main.c        **** // Return			: none
  19:main.c        **** //-------------------------------------------------------------------------------------------------
  20:main.c        **** // Info				: 
  21:main.c        **** //*************************************************************************************************
  22:main.c        **** void AppCallback(uint32 event, void* eventParam)
  23:main.c        **** {
  28              		.loc 1 23 0
  29              		.cfi_startproc
  30              		@ args = 0, pretend = 0, frame = 16
  31              		@ frame_needed = 0, uses_anonymous_args = 0
  32              	.LVL0:
  33 0000 7FB5     		push	{r0, r1, r2, r3, r4, r5, r6, lr}
  34              		.cfi_def_cfa_offset 32
ARM GAS  C:\Users\Administrator\AppData\Local\Temp\ccNQfmEa.s 			page 2


  35              		.cfi_offset 0, -32
  36              		.cfi_offset 1, -28
  37              		.cfi_offset 2, -24
  38              		.cfi_offset 3, -20
  39              		.cfi_offset 4, -16
  40              		.cfi_offset 5, -12
  41              		.cfi_offset 6, -8
  42              		.cfi_offset 14, -4
  43              		.loc 1 23 0
  44 0002 0B00     		movs	r3, r1
  24:main.c        ****     CYBLE_API_RESULT_T apiResult;
  25:main.c        ****     CYBLE_GAP_BD_ADDR_T localAddr;
  26:main.c        ****     CYBLE_GAP_AUTH_INFO_T *authInfo;
  27:main.c        ****     CYBLE_BLESS_PWR_IN_DB_T bleSsPowerLevel;
  28:main.c        ****     uint8 i;
  29:main.c        **** 	CYBLE_GATTS_WRITE_CMD_REQ_PARAM_T *locationWCRP = (CYBLE_GATTS_WRITE_CMD_REQ_PARAM_T *)eventParam;
  30:main.c        **** 	
  31:main.c        ****     switch (event)
  45              		.loc 1 31 0
  46 0004 2828     		cmp	r0, #40
  47 0006 29D0     		beq	.L3
  48 0008 02D8     		bhi	.L4
  49 000a 0128     		cmp	r0, #1
  50 000c 09D0     		beq	.L5
  51 000e 2CE0     		b	.L1
  52              	.L4:
  53 0010 4C28     		cmp	r0, #76
  54 0012 27D0     		beq	.L6
  55 0014 4E28     		cmp	r0, #78
  56 0016 28D1     		bne	.L1
  32:main.c        **** 	{
  33:main.c        ****         /**********************************************************
  34:main.c        ****         *                       General Events
  35:main.c        ****         ***********************************************************/
  36:main.c        **** 		case CYBLE_EVT_STACK_ON: /* This event received when component is Started */
  37:main.c        **** 			/* Set Tx Power Level for advertising and connection channels */
  38:main.c        ****             bleSsPowerLevel.blePwrLevelInDbm = CYBLE_LL_PWR_LVL_NEG_12_DBM;
  39:main.c        ****             bleSsPowerLevel.bleSsChId = CYBLE_LL_ADV_CH_TYPE;
  40:main.c        ****             (void) CyBle_SetTxPowerLevel (&bleSsPowerLevel);
  41:main.c        **** 			
  42:main.c        **** 			if (Read_Mac_Flag == 0)
  43:main.c        **** 			{
  44:main.c        ****             	DBG_PRINTF("Bluetooth On, StartAdvertisement with addr: \n");
  45:main.c        ****             	localAddr.type = 0u;
  46:main.c        ****             	CyBle_GetDeviceAddress(&localAddr);
  47:main.c        ****             	for(i = CYBLE_GAP_BD_ADDR_SIZE; i > 0u; i--)
  48:main.c        ****             	{
  49:main.c        ****                 	DBG_PRINTF("%2.2x", localAddr.bdAddr[i-1]);
  50:main.c        ****             	}
  51:main.c        **** 				DBG_PRINTF("\n");
  52:main.c        **** 				
  53:main.c        **** 				for (i = CYBLE_GAP_BD_ADDR_SIZE; i > 0u; i--)
  54:main.c        **** 				{
  55:main.c        **** 					Mac_Addr[CYBLE_GAP_BD_ADDR_SIZE - i] = localAddr.bdAddr[i - 1];
  56:main.c        **** 				}
  57:main.c        **** 				Read_Mac_Flag = 1;				
  58:main.c        **** 				
ARM GAS  C:\Users\Administrator\AppData\Local\Temp\ccNQfmEa.s 			page 3


  59:main.c        **** 			}
  60:main.c        **** 			
  61:main.c        **** 			/* Enter into discoverable mode so that remote can search it. */
  62:main.c        ****             apiResult = CyBle_GappStartAdvertisement(CYBLE_ADVERTISING_FAST);
  63:main.c        ****             if(apiResult != CYBLE_ERROR_OK)
  64:main.c        ****             {
  65:main.c        ****                 DBG_PRINTF("StartAdvertisement API Error: %d \r\n", apiResult);
  66:main.c        ****             }
  67:main.c        **** 			DBG_PRINTF("\r\n");
  68:main.c        ****             break;
  69:main.c        **** 		case CYBLE_EVT_TIMEOUT: 
  70:main.c        ****             DBG_PRINTF("CYBLE_EVT_TIMEOUT: %x \r\n", *(CYBLE_TO_REASON_CODE_T *)eventParam);
  71:main.c        **** 			break;
  72:main.c        **** 		case CYBLE_EVT_HARDWARE_ERROR:    /* This event indicates that some internal HW error has occurre
  73:main.c        ****             DBG_PRINTF("Hardware Error \r\n");
  74:main.c        **** 			break;
  75:main.c        ****         case CYBLE_EVT_HCI_STATUS:
  76:main.c        ****             DBG_PRINTF("CYBLE_EVT_HCI_STATUS: %x \r\n", *(uint8 *)eventParam);
  77:main.c        **** 			break;
  78:main.c        **** 
  79:main.c        ****         /**********************************************************
  80:main.c        ****         *                       GAP Events
  81:main.c        ****         ***********************************************************/
  82:main.c        ****         case CYBLE_EVT_GAP_AUTH_REQ:
  83:main.c        ****             DBG_PRINTF("CYBLE_EVT_AUTH_REQ: security=%x, bonding=%x, ekeySize=%x, err=%x \r\n", 
  84:main.c        ****                 (*(CYBLE_GAP_AUTH_INFO_T *)eventParam).security, 
  85:main.c        ****                 (*(CYBLE_GAP_AUTH_INFO_T *)eventParam).bonding, 
  86:main.c        ****                 (*(CYBLE_GAP_AUTH_INFO_T *)eventParam).ekeySize, 
  87:main.c        ****                 (*(CYBLE_GAP_AUTH_INFO_T *)eventParam).authErr);
  88:main.c        ****             break;
  89:main.c        ****         case CYBLE_EVT_GAP_PASSKEY_ENTRY_REQUEST:
  90:main.c        ****             DBG_PRINTF("CYBLE_EVT_PASSKEY_ENTRY_REQUEST \r\n");
  91:main.c        ****             break;
  92:main.c        ****         case CYBLE_EVT_GAP_PASSKEY_DISPLAY_REQUEST:
  93:main.c        ****             DBG_PRINTF("CYBLE_EVT_PASSKEY_DISPLAY_REQUEST %6.6ld \r\n", *(uint32 *)eventParam);
  94:main.c        ****             break;
  95:main.c        ****         case CYBLE_EVT_GAP_AUTH_COMPLETE:
  96:main.c        ****             authInfo = (CYBLE_GAP_AUTH_INFO_T *)eventParam;
  97:main.c        ****             (void)authInfo;
  98:main.c        ****             DBG_PRINTF("AUTH_COMPLETE: security:%x, bonding:%x, ekeySize:%x, authErr %x \r\n", 
  99:main.c        ****                                     authInfo->security, authInfo->bonding, authInfo->ekeySize, auth
 100:main.c        ****             break;
 101:main.c        ****         case CYBLE_EVT_GAP_AUTH_FAILED:
 102:main.c        ****             DBG_PRINTF("CYBLE_EVT_AUTH_FAILED: %x \r\n", *(uint8 *)eventParam);
 103:main.c        ****             break;
 104:main.c        ****         case CYBLE_EVT_GAPP_ADVERTISEMENT_START_STOP:
 105:main.c        ****             DBG_PRINTF("CYBLE_EVT_GAPP_ADVERTISEMENT_START_STOP, state: %x\r\n", CyBle_GetState());
 106:main.c        ****             if(CYBLE_STATE_DISCONNECTED == CyBle_GetState())
 107:main.c        ****             {   
 108:main.c        ****                 /* Fast and slow advertising period complete, go to low power  
 109:main.c        ****                  * mode (Hibernate mode) and wait for an external
 110:main.c        ****                  * user event to wake up the device again */
 111:main.c        ****                 DBG_PRINTF("Hibernate \r\n");
 112:main.c        ****             #if (DEBUG_UART_ENABLED == ENABLED)
 113:main.c        ****             	//while((UART_DEB_SpiUartGetTxBufferSize() + UART_DEB_GET_TX_FIFO_SR_VALID) != 0);
 114:main.c        ****             #endif /* (DEBUG_UART_ENABLED == ENABLED) */
 115:main.c        ****             }
ARM GAS  C:\Users\Administrator\AppData\Local\Temp\ccNQfmEa.s 			page 4


 116:main.c        ****             break;
 117:main.c        ****         case CYBLE_EVT_GAP_DEVICE_CONNECTED:
 118:main.c        ****             DBG_PRINTF("CYBLE_EVT_GAP_DEVICE_CONNECTED: %x \r\n", *(uint8 *)eventParam);
 119:main.c        ****             break;
 120:main.c        ****         case CYBLE_EVT_GAP_DEVICE_DISCONNECTED:
 121:main.c        ****             DBG_PRINTF("CYBLE_EVT_GAP_DEVICE_DISCONNECTED\r\n");
 122:main.c        ****             /* Put the device to discoverable mode so that remote can search it. */
 123:main.c        ****             apiResult = CyBle_GappStartAdvertisement(CYBLE_ADVERTISING_FAST);
 124:main.c        ****             if(apiResult != CYBLE_ERROR_OK)
 125:main.c        ****             {
 126:main.c        ****                 DBG_PRINTF("StartAdvertisement API Error: %x \r\n", apiResult);
 127:main.c        ****             }
 128:main.c        ****             break;
 129:main.c        ****         case CYBLE_EVT_GAP_ENCRYPT_CHANGE:
 130:main.c        ****             DBG_PRINTF("ENCRYPT_CHANGE: %x \r\n", *(uint8 *)eventParam);
 131:main.c        ****             break;
 132:main.c        ****         case CYBLE_EVT_GAPC_CONNECTION_UPDATE_COMPLETE:
 133:main.c        ****             DBG_PRINTF("CYBLE_EVT_CONNECTION_UPDATE_COMPLETE: %x \r\n", *(uint8 *)eventParam);
 134:main.c        ****             break;
 135:main.c        ****         case CYBLE_EVT_GAP_KEYINFO_EXCHNGE_CMPLT:
 136:main.c        ****             DBG_PRINTF("CYBLE_EVT_GAP_KEYINFO_EXCHNGE_CMPLT \r\n");
 137:main.c        ****             break;
 138:main.c        **** 
 139:main.c        ****         /**********************************************************
 140:main.c        ****         *                       GATT Events
 141:main.c        ****         ***********************************************************/
 142:main.c        ****         case CYBLE_EVT_GATT_CONNECT_IND:
 143:main.c        ****             DBG_PRINTF("CYBLE_EVT_GATT_CONNECT_IND: %x, %x \r\n", cyBle_connHandle.attId, cyBle_con
 144:main.c        ****             break;
 145:main.c        ****         case CYBLE_EVT_GATT_DISCONNECT_IND:
 146:main.c        ****             DBG_PRINTF("CYBLE_EVT_GATT_DISCONNECT_IND \r\n");
 147:main.c        ****             break;
 148:main.c        ****         case CYBLE_EVT_GATTS_WRITE_REQ:
 149:main.c        ****             DBG_PRINTF("CYBLE_EVT_GATT_WRITE_REQ: %x = ",((CYBLE_GATTS_WRITE_REQ_PARAM_T *)eventPar
 150:main.c        ****             (void)CyBle_GattsWriteRsp(((CYBLE_GATTS_WRITE_REQ_PARAM_T *)eventParam)->connHandle);
 151:main.c        ****             break;
 152:main.c        **** 		case CYBLE_EVT_GATTS_WRITE_CMD_REQ: 
 153:main.c        **** 			DBG_PRINTF("CYBLE_EVT_GATT_WRITE_CMD_REQ: = 0x%03xu \n",((CYBLE_GATTS_WRITE_CMD_REQ_PARAM_T *)ev
 154:main.c        **** 			//该属性的句柄值:
 155:main.c        **** 			DBG_PRINTF("locationWCRP->handleValPair.value.attrHandle =0x%03xu\n",locationWCRP->handleValPair
 156:main.c        **** 			//数据长度:
 157:main.c        **** 			DBG_PRINTF("locationWCRP->handleValPair.value.len = %d\n",locationWCRP->handleValPair.value.len)
 158:main.c        **** 			//数据actualen长度:
 159:main.c        **** 			DBG_PRINTF("locationWCRP->handleValPair.value.actualLen = 0x%x\n",locationWCRP->handleValPair.va
 160:main.c        **** 			//数据内容:
 161:main.c        **** 			//DBG_SOFT_PrintfHex(locationWCRP->handleValPair.value.val,locationWCRP->handleValPair.value.len
 162:main.c        **** 			BleRecv(locationWCRP->handleValPair.value.val, locationWCRP->handleValPair.value.len);
  57              		.loc 1 162 0
  58 0018 0989     		ldrh	r1, [r1, #8]
  59              	.LVL1:
  60 001a 5868     		ldr	r0, [r3, #4]
  61              	.LVL2:
  62 001c FFF7FEFF 		bl	BleRecv
  63              	.LVL3:
 163:main.c        ****             break;
 164:main.c        ****         case CYBLE_EVT_GATTS_INDICATION_ENABLED:
 165:main.c        ****             DBG_PRINTF("CYBLE_EVT_GATTS_INDICATION_ENABLED \r\n");
ARM GAS  C:\Users\Administrator\AppData\Local\Temp\ccNQfmEa.s 			page 5


 166:main.c        ****             break;
 167:main.c        ****         case CYBLE_EVT_GATTS_INDICATION_DISABLED:
 168:main.c        ****             DBG_PRINTF("CYBLE_EVT_GATTS_INDICATION_DISABLED \r\n");
 169:main.c        ****             break;
 170:main.c        ****         case CYBLE_EVT_GATTS_READ_CHAR_VAL_ACCESS_REQ:
 171:main.c        ****             /* Triggered on server side when client sends read request and when
 172:main.c        ****             * characteristic has CYBLE_GATT_DB_ATTR_CHAR_VAL_RD_EVENT property set.
 173:main.c        ****             * This event could be ignored by application unless it need to response
 174:main.c        ****             * by error response which needs to be set in gattErrorCode field of
 175:main.c        ****             * event parameter. */
 176:main.c        ****             DBG_PRINTF("CYBLE_EVT_GATTS_READ_CHAR_VAL_ACCESS_REQ: handle: %x \r\n", 
 177:main.c        ****                 ((CYBLE_GATTS_CHAR_VAL_READ_REQ_T *)eventParam)->attrHandle);
 178:main.c        ****             break;
 179:main.c        **** 
 180:main.c        ****         /**********************************************************
 181:main.c        ****         *                       Other Events
 182:main.c        ****         ***********************************************************/
 183:main.c        ****         case CYBLE_EVT_PENDING_FLASH_WRITE:
 184:main.c        ****             /* Inform application that flash write is pending. Stack internal data 
 185:main.c        ****             * structures are modified and require to be stored in Flash using 
 186:main.c        ****             * CyBle_StoreBondingData() */
 187:main.c        ****             DBG_PRINTF("CYBLE_EVT_PENDING_FLASH_WRITE\r\n");
 188:main.c        ****             break;
 189:main.c        **** 
 190:main.c        **** 		default:
 191:main.c        ****             DBG_PRINTF("OTHER event: %lx \r\n", event);
 192:main.c        **** 			break;
 193:main.c        **** 	}
 194:main.c        **** }
  64              		.loc 1 194 0
  65 0020 23E0     		b	.L1
  66              	.LVL4:
  67              	.L5:
  68              	.LBB4:
  69              	.LBB5:
  38:main.c        ****             bleSsPowerLevel.bleSsChId = CYBLE_LL_ADV_CH_TYPE;
  70              		.loc 1 38 0
  71 0022 0223     		movs	r3, #2
  72 0024 01A8     		add	r0, sp, #4
  73              	.LVL5:
  74 0026 0370     		strb	r3, [r0]
  39:main.c        ****             (void) CyBle_SetTxPowerLevel (&bleSsPowerLevel);
  75              		.loc 1 39 0
  76 0028 0023     		movs	r3, #0
  77 002a 4370     		strb	r3, [r0, #1]
  40:main.c        **** 			
  78              		.loc 1 40 0
  79 002c FFF7FEFF 		bl	CyBle_SetTxPowerLevel
  80              	.LVL6:
  42:main.c        **** 			{
  81              		.loc 1 42 0
  82 0030 0E4A     		ldr	r2, .L12
  83 0032 1378     		ldrb	r3, [r2]
  84 0034 1600     		movs	r6, r2
  85 0036 DCB2     		uxtb	r4, r3
  86 0038 002C     		cmp	r4, #0
  87 003a 0FD1     		bne	.L3
ARM GAS  C:\Users\Administrator\AppData\Local\Temp\ccNQfmEa.s 			page 6


  45:main.c        ****             	CyBle_GetDeviceAddress(&localAddr);
  88              		.loc 1 45 0
  89 003c 02AD     		add	r5, sp, #8
  46:main.c        ****             	for(i = CYBLE_GAP_BD_ADDR_SIZE; i > 0u; i--)
  90              		.loc 1 46 0
  91 003e 2800     		movs	r0, r5
  45:main.c        ****             	CyBle_GetDeviceAddress(&localAddr);
  92              		.loc 1 45 0
  93 0040 AC71     		strb	r4, [r5, #6]
  46:main.c        ****             	for(i = CYBLE_GAP_BD_ADDR_SIZE; i > 0u; i--)
  94              		.loc 1 46 0
  95 0042 FFF7FEFF 		bl	CyBle_GetDeviceAddress
  96              	.LVL7:
  97 0046 2300     		movs	r3, r4
  55:main.c        **** 				}
  98              		.loc 1 55 0
  99 0048 0949     		ldr	r1, .L12+4
 100              	.LVL8:
 101              	.L9:
 102 004a E818     		adds	r0, r5, r3
 103 004c 4079     		ldrb	r0, [r0, #5]
 104 004e 5A42     		rsbs	r2, r3, #0
 105 0050 013B     		subs	r3, r3, #1
 106              	.LVL9:
 107 0052 8854     		strb	r0, [r1, r2]
  53:main.c        **** 				{
 108              		.loc 1 53 0
 109 0054 9A1D     		adds	r2, r3, #6
 110 0056 F8D1     		bne	.L9
  57:main.c        **** 				
 111              		.loc 1 57 0
 112 0058 0733     		adds	r3, r3, #7
 113 005a 3370     		strb	r3, [r6]
 114              	.LVL10:
 115              	.L3:
 116              	.LBE5:
 117              	.LBE4:
 123:main.c        ****             if(apiResult != CYBLE_ERROR_OK)
 118              		.loc 1 123 0
 119 005c 0020     		movs	r0, #0
 120 005e FFF7FEFF 		bl	CyBle_GappStartAdvertisement
 121              	.LVL11:
 128:main.c        ****         case CYBLE_EVT_GAP_ENCRYPT_CHANGE:
 122              		.loc 1 128 0
 123 0062 02E0     		b	.L1
 124              	.LVL12:
 125              	.L6:
 150:main.c        ****             break;
 126              		.loc 1 150 0
 127 0064 0868     		ldr	r0, [r1]
 128              	.LVL13:
 129 0066 FFF7FEFF 		bl	CyBle_GattsWriteRsp
 130              	.LVL14:
 131              	.L1:
 132              		.loc 1 194 0
 133              		@ sp needed
 134 006a 7FBD     		pop	{r0, r1, r2, r3, r4, r5, r6, pc}
ARM GAS  C:\Users\Administrator\AppData\Local\Temp\ccNQfmEa.s 			page 7


 135              	.L13:
 136              		.align	2
 137              	.L12:
 138 006c 00000000 		.word	Read_Mac_Flag
 139 0070 00000000 		.word	Mac_Addr
 140              		.cfi_endproc
 141              	.LFE63:
 142              		.size	AppCallback, .-AppCallback
 143              		.section	.text.LowPowerImplementation,"ax",%progbits
 144              		.align	1
 145              		.global	LowPowerImplementation
 146              		.code	16
 147              		.thumb_func
 148              		.type	LowPowerImplementation, %function
 149              	LowPowerImplementation:
 150              	.LFB64:
 195:main.c        **** 
 196:main.c        **** //*************************************************************************************************
 197:main.c        **** // Function name	: LowPowerImplementation
 198:main.c        **** // Description		: 进入低功耗睡眠的函数
 199:main.c        **** // Parameter		: none
 200:main.c        **** // Return			: none
 201:main.c        **** //-------------------------------------------------------------------------------------------------
 202:main.c        **** // Info				: 
 203:main.c        **** //*************************************************************************************************
 204:main.c        **** void LowPowerImplementation(void)
 205:main.c        **** {
 151              		.loc 1 205 0
 152              		.cfi_startproc
 153              		@ args = 0, pretend = 0, frame = 0
 154              		@ frame_needed = 0, uses_anonymous_args = 0
 206:main.c        ****     CYBLE_LP_MODE_T bleMode;
 207:main.c        ****     uint8 interruptStatus;
 208:main.c        ****     
 209:main.c        ****     /* For advertising and connected states, implement deep sleep 
 210:main.c        ****      * functionality to achieve low power in the system. For more details
 211:main.c        ****      * on the low power implementation, refer to the Low Power Application 
 212:main.c        ****      * Note.
 213:main.c        ****      */
 214:main.c        ****     if((CyBle_GetState() == CYBLE_STATE_ADVERTISING) || 
 155              		.loc 1 214 0
 156 0000 124B     		ldr	r3, .L27
 205:main.c        ****     CYBLE_LP_MODE_T bleMode;
 157              		.loc 1 205 0
 158 0002 70B5     		push	{r4, r5, r6, lr}
 159              		.cfi_def_cfa_offset 16
 160              		.cfi_offset 4, -16
 161              		.cfi_offset 5, -12
 162              		.cfi_offset 6, -8
 163              		.cfi_offset 14, -4
 164              		.loc 1 214 0
 165 0004 1B78     		ldrb	r3, [r3]
 166 0006 023B     		subs	r3, r3, #2
 167 0008 012B     		cmp	r3, #1
 168 000a 1DD8     		bhi	.L14
 215:main.c        ****        (CyBle_GetState() == CYBLE_STATE_CONNECTED))
 216:main.c        ****     {
ARM GAS  C:\Users\Administrator\AppData\Local\Temp\ccNQfmEa.s 			page 8


 217:main.c        ****         /* Request BLE subsystem to enter into Deep-Sleep mode between connection and advertising i
 218:main.c        ****         bleMode = CyBle_EnterLPM(CYBLE_BLESS_DEEPSLEEP);
 169              		.loc 1 218 0
 170 000c 0320     		movs	r0, #3
 171 000e FFF7FEFF 		bl	CyBle_EnterLPM
 172              	.LVL15:
 173 0012 0500     		movs	r5, r0
 174              	.LVL16:
 219:main.c        ****         /* Disable global interrupts */
 220:main.c        ****         interruptStatus = CyEnterCriticalSection();
 175              		.loc 1 220 0
 176 0014 FFF7FEFF 		bl	CyEnterCriticalSection
 177              	.LVL17:
 178 0018 0400     		movs	r4, r0
 179              	.LVL18:
 221:main.c        ****         /* When BLE subsystem has been put into Deep-Sleep mode */
 222:main.c        ****         if(bleMode == CYBLE_BLESS_DEEPSLEEP)
 180              		.loc 1 222 0
 181 001a 032D     		cmp	r5, #3
 182 001c 0BD1     		bne	.L16
 223:main.c        ****         {
 224:main.c        ****             /* And it is still there or ECO is on */
 225:main.c        ****             if((CyBle_GetBleSsState() == CYBLE_BLESS_STATE_ECO_ON) || 
 183              		.loc 1 225 0
 184 001e FFF7FEFF 		bl	CyBle_GetBleSsState
 185              	.LVL19:
 186 0022 0428     		cmp	r0, #4
 187 0024 02D1     		bne	.L17
 188              	.L19:
 226:main.c        ****                (CyBle_GetBleSsState() == CYBLE_BLESS_STATE_DEEPSLEEP))
 227:main.c        ****             {
 228:main.c        ****             #if (DEBUG_UART_ENABLED == ENABLED)
 229:main.c        ****                 /* Put the CPU into the Deep-Sleep mode when all debug information has been sent */
 230:main.c        ****                 if((UART_433_SpiUartGetTxBufferSize() + UART_433_GET_TX_FIFO_SR_VALID) == 0u)
 231:main.c        ****                 {
 232:main.c        ****                     CySysPmDeepSleep();
 233:main.c        ****                 }
 234:main.c        ****                 else /* Put the CPU into Sleep mode and let SCB to continue sending debug data */
 235:main.c        ****                 {
 236:main.c        ****                     CySysPmSleep();
 237:main.c        ****                 }
 238:main.c        ****             #else
 239:main.c        ****                 CySysPmDeepSleep();
 189              		.loc 1 239 0
 190 0026 FFF7FEFF 		bl	CySysPmDeepSleep
 191              	.LVL20:
 192 002a 0AE0     		b	.L18
 193              	.L17:
 226:main.c        ****                (CyBle_GetBleSsState() == CYBLE_BLESS_STATE_DEEPSLEEP))
 194              		.loc 1 226 0 discriminator 1
 195 002c FFF7FEFF 		bl	CyBle_GetBleSsState
 196              	.LVL21:
 225:main.c        ****                (CyBle_GetBleSsState() == CYBLE_BLESS_STATE_DEEPSLEEP))
 197              		.loc 1 225 0 discriminator 1
 198 0030 0628     		cmp	r0, #6
 199 0032 06D1     		bne	.L18
 200 0034 F7E7     		b	.L19
ARM GAS  C:\Users\Administrator\AppData\Local\Temp\ccNQfmEa.s 			page 9


 201              	.L16:
 240:main.c        ****             #endif /* (DEBUG_UART_ENABLED == ENABLED) */
 241:main.c        ****             }
 242:main.c        ****         }
 243:main.c        ****         else /* When BLE subsystem has been put into Sleep mode or is active */
 244:main.c        ****         {
 245:main.c        ****             /* And hardware doesn't finish Tx/Rx opeation - put the CPU into Sleep mode */
 246:main.c        ****             if(CyBle_GetBleSsState() != CYBLE_BLESS_STATE_EVENT_CLOSE)
 202              		.loc 1 246 0
 203 0036 FFF7FEFF 		bl	CyBle_GetBleSsState
 204              	.LVL22:
 205 003a 0228     		cmp	r0, #2
 206 003c 01D0     		beq	.L18
 247:main.c        ****             {
 248:main.c        ****                 CySysPmSleep();
 207              		.loc 1 248 0
 208 003e FFF7FEFF 		bl	CySysPmSleep
 209              	.LVL23:
 210              	.L18:
 249:main.c        ****             }
 250:main.c        ****         }
 251:main.c        ****         /* Enable global interrupt */
 252:main.c        ****         CyExitCriticalSection(interruptStatus);
 211              		.loc 1 252 0
 212 0042 2000     		movs	r0, r4
 213 0044 FFF7FEFF 		bl	CyExitCriticalSection
 214              	.LVL24:
 215              	.L14:
 253:main.c        ****     }
 254:main.c        **** }
 216              		.loc 1 254 0
 217              		@ sp needed
 218 0048 70BD     		pop	{r4, r5, r6, pc}
 219              	.L28:
 220 004a C046     		.align	2
 221              	.L27:
 222 004c 00000000 		.word	cyBle_state
 223              		.cfi_endproc
 224              	.LFE64:
 225              		.size	LowPowerImplementation, .-LowPowerImplementation
 226              		.section	.text.ble_heartbeat,"ax",%progbits
 227              		.align	1
 228              		.global	ble_heartbeat
 229              		.code	16
 230              		.thumb_func
 231              		.type	ble_heartbeat, %function
 232              	ble_heartbeat:
 233              	.LFB65:
 255:main.c        **** 
 256:main.c        **** //*************************************************************************************************
 257:main.c        **** // Function name	: ble_heartbeat
 258:main.c        **** // Description		: 蓝牙的心跳包
 259:main.c        **** // Parameter		: none
 260:main.c        **** // Return			: none
 261:main.c        **** //-------------------------------------------------------------------------------------------------
 262:main.c        **** // Info				: 
 263:main.c        **** //*************************************************************************************************
ARM GAS  C:\Users\Administrator\AppData\Local\Temp\ccNQfmEa.s 			page 10


 264:main.c        **** void ble_heartbeat(void)
 265:main.c        **** {
 234              		.loc 1 265 0
 235              		.cfi_startproc
 236              		@ args = 0, pretend = 0, frame = 0
 237              		@ frame_needed = 0, uses_anonymous_args = 0
 238 0000 10B5     		push	{r4, lr}
 239              		.cfi_def_cfa_offset 8
 240              		.cfi_offset 4, -8
 241              		.cfi_offset 14, -4
 266:main.c        **** 	WDT_FeedDog();
 242              		.loc 1 266 0
 243 0002 FFF7FEFF 		bl	WDT_FeedDog
 244              	.LVL25:
 267:main.c        **** 	CyBle_ProcessEvents();
 245              		.loc 1 267 0
 246 0006 FFF7FEFF 		bl	CyBle_ProcessEvents
 247              	.LVL26:
 268:main.c        ****     
 269:main.c        ****     #if 1
 270:main.c        ****     if (BleCmdValidFlag == 1)
 248              		.loc 1 270 0
 249 000a 034B     		ldr	r3, .L31
 250 000c 1B78     		ldrb	r3, [r3]
 251 000e 012B     		cmp	r3, #1
 252 0010 01D1     		bne	.L29
 271:main.c        ****     {
 272:main.c        **** 		Protocol_CmdParse_BLE();
 253              		.loc 1 272 0
 254 0012 FFF7FEFF 		bl	Protocol_CmdParse_BLE
 255              	.LVL27:
 256              	.L29:
 273:main.c        ****     }
 274:main.c        ****     #endif
 275:main.c        **** }
 257              		.loc 1 275 0
 258              		@ sp needed
 259 0016 10BD     		pop	{r4, pc}
 260              	.L32:
 261              		.align	2
 262              	.L31:
 263 0018 00000000 		.word	BleCmdValidFlag
 264              		.cfi_endproc
 265              	.LFE65:
 266              		.size	ble_heartbeat, .-ble_heartbeat
 267              		.global	__aeabi_uidiv
 268              		.section	.text.delay_with_ble,"ax",%progbits
 269              		.align	1
 270              		.global	delay_with_ble
 271              		.code	16
 272              		.thumb_func
 273              		.type	delay_with_ble, %function
 274              	delay_with_ble:
 275              	.LFB67:
 276:main.c        **** 
 277:main.c        **** //*************************************************************************************************
 278:main.c        **** // Function name	: sys_heartbeat
ARM GAS  C:\Users\Administrator\AppData\Local\Temp\ccNQfmEa.s 			page 11


 279:main.c        **** // Description		: 系统的心跳包
 280:main.c        **** // Parameter		: none
 281:main.c        **** // Return			: none
 282:main.c        **** //-------------------------------------------------------------------------------------------------
 283:main.c        **** // Info				: 
 284:main.c        **** //*************************************************************************************************
 285:main.c        **** void sys_heartbeat(void)
 286:main.c        **** {
 287:main.c        ****     uint16 i;
 288:main.c        ****     
 289:main.c        **** 	WDT_FeedDog();
 290:main.c        ****     for (i = 0; i < 50; i++)
 291:main.c        ****     {
 292:main.c        **** 	    CyBle_ProcessEvents();
 293:main.c        **** 	}
 294:main.c        ****     
 295:main.c        ****     #if 1
 296:main.c        ****     if (BleCmdValidFlag == 1)
 297:main.c        ****     {
 298:main.c        **** 		Protocol_CmdParse_BLE();
 299:main.c        ****     }
 300:main.c        ****     #endif
 301:main.c        ****     
 302:main.c        ****     if ((gprs_state != NORMAL_COMM) && (gprs_state != UPDATE_CONNECT) &&
 303:main.c        ****         (gprs_state != WAIT_UPDATE) && (gprs_state != UPDATE_FINISH))
 304:main.c        ****     {
 305:main.c        **** 		CARD_Tick();
 306:main.c        ****         Defend_Tick();
 307:main.c        ****     }
 308:main.c        **** }
 309:main.c        **** 
 310:main.c        **** //*************************************************************************************************
 311:main.c        **** // Function name	: delay_with_ble
 312:main.c        **** // Description		: 带蓝牙心跳的延时函数
 313:main.c        **** // Parameter		: ms	: 延时时间
 314:main.c        **** // Return			: none
 315:main.c        **** //-------------------------------------------------------------------------------------------------
 316:main.c        **** // Info				: 
 317:main.c        **** //*************************************************************************************************
 318:main.c        **** void delay_with_ble(uint32 ms)
 319:main.c        **** {
 276              		.loc 1 319 0
 277              		.cfi_startproc
 278              		@ args = 0, pretend = 0, frame = 0
 279              		@ frame_needed = 0, uses_anonymous_args = 0
 280              	.LVL28:
 281 0000 70B5     		push	{r4, r5, r6, lr}
 282              		.cfi_def_cfa_offset 16
 283              		.cfi_offset 4, -16
 284              		.cfi_offset 5, -12
 285              		.cfi_offset 6, -8
 286              		.cfi_offset 14, -4
 320:main.c        **** 	uint32 loop = 0;
 321:main.c        **** 	for (loop = 0; loop < ms / 5; loop++)
 287              		.loc 1 321 0
 288 0002 0521     		movs	r1, #5
 289 0004 FFF7FEFF 		bl	__aeabi_uidiv
ARM GAS  C:\Users\Administrator\AppData\Local\Temp\ccNQfmEa.s 			page 12


 290              	.LVL29:
 291 0008 0024     		movs	r4, #0
 292 000a 0500     		movs	r5, r0
 293              	.LVL30:
 294              	.L34:
 295              		.loc 1 321 0 is_stmt 0 discriminator 1
 296 000c AC42     		cmp	r4, r5
 297 000e 06D0     		beq	.L36
 322:main.c        **** 	{
 323:main.c        **** 		CyDelay(5);
 298              		.loc 1 323 0 is_stmt 1 discriminator 3
 299 0010 0520     		movs	r0, #5
 300 0012 FFF7FEFF 		bl	CyDelay
 301              	.LVL31:
 321:main.c        **** 	{
 302              		.loc 1 321 0 discriminator 3
 303 0016 0134     		adds	r4, r4, #1
 304              	.LVL32:
 324:main.c        **** 		ble_heartbeat();
 305              		.loc 1 324 0 discriminator 3
 306 0018 FFF7FEFF 		bl	ble_heartbeat
 307              	.LVL33:
 308 001c F6E7     		b	.L34
 309              	.L36:
 325:main.c        **** 	}
 326:main.c        **** }
 310              		.loc 1 326 0
 311              		@ sp needed
 312              	.LVL34:
 313 001e 70BD     		pop	{r4, r5, r6, pc}
 314              		.cfi_endproc
 315              	.LFE67:
 316              		.size	delay_with_ble, .-delay_with_ble
 317              		.section	.text.Led_AllOff,"ax",%progbits
 318              		.align	1
 319              		.global	Led_AllOff
 320              		.code	16
 321              		.thumb_func
 322              		.type	Led_AllOff, %function
 323              	Led_AllOff:
 324              	.LFB68:
 327:main.c        **** 
 328:main.c        **** //*************************************************************************************************
 329:main.c        **** // Function name	: Led_AllOff
 330:main.c        **** // Description		: 关闭所有LED灯
 331:main.c        **** // Parameter		: none
 332:main.c        **** // Return			: none
 333:main.c        **** //-------------------------------------------------------------------------------------------------
 334:main.c        **** // Info				: 
 335:main.c        **** //*************************************************************************************************
 336:main.c        **** void Led_AllOff(void)
 337:main.c        **** {
 325              		.loc 1 337 0
 326              		.cfi_startproc
 327              		@ args = 0, pretend = 0, frame = 0
 328              		@ frame_needed = 0, uses_anonymous_args = 0
 329 0000 10B5     		push	{r4, lr}
ARM GAS  C:\Users\Administrator\AppData\Local\Temp\ccNQfmEa.s 			page 13


 330              		.cfi_def_cfa_offset 8
 331              		.cfi_offset 4, -8
 332              		.cfi_offset 14, -4
 338:main.c        ****     LED_RED_Write(1);
 333              		.loc 1 338 0
 334 0002 0120     		movs	r0, #1
 335 0004 FFF7FEFF 		bl	LED_RED_Write
 336              	.LVL35:
 339:main.c        ****     LED_BLUE_Write(1);
 337              		.loc 1 339 0
 338 0008 0120     		movs	r0, #1
 339 000a FFF7FEFF 		bl	LED_BLUE_Write
 340              	.LVL36:
 340:main.c        ****     LED_GREEN_Write(1);
 341              		.loc 1 340 0
 342 000e 0120     		movs	r0, #1
 343 0010 FFF7FEFF 		bl	LED_GREEN_Write
 344              	.LVL37:
 341:main.c        **** }
 345              		.loc 1 341 0
 346              		@ sp needed
 347 0014 10BD     		pop	{r4, pc}
 348              		.cfi_endproc
 349              	.LFE68:
 350              		.size	Led_AllOff, .-Led_AllOff
 351              		.section	.text.Led_RedON,"ax",%progbits
 352              		.align	1
 353              		.global	Led_RedON
 354              		.code	16
 355              		.thumb_func
 356              		.type	Led_RedON, %function
 357              	Led_RedON:
 358              	.LFB69:
 342:main.c        **** 
 343:main.c        **** //*************************************************************************************************
 344:main.c        **** // Function name	: Led_RedON
 345:main.c        **** // Description		: 红灯亮
 346:main.c        **** // Parameter		: none
 347:main.c        **** // Return			: none
 348:main.c        **** //-------------------------------------------------------------------------------------------------
 349:main.c        **** // Info				: 
 350:main.c        **** //*************************************************************************************************
 351:main.c        **** void Led_RedON(void)
 352:main.c        **** {
 359              		.loc 1 352 0
 360              		.cfi_startproc
 361              		@ args = 0, pretend = 0, frame = 0
 362              		@ frame_needed = 0, uses_anonymous_args = 0
 363 0000 10B5     		push	{r4, lr}
 364              		.cfi_def_cfa_offset 8
 365              		.cfi_offset 4, -8
 366              		.cfi_offset 14, -4
 353:main.c        ****     Led_AllOff();
 367              		.loc 1 353 0
 368 0002 FFF7FEFF 		bl	Led_AllOff
 369              	.LVL38:
 354:main.c        **** 	LED_RED_Write(0);
ARM GAS  C:\Users\Administrator\AppData\Local\Temp\ccNQfmEa.s 			page 14


 370              		.loc 1 354 0
 371 0006 0020     		movs	r0, #0
 372 0008 FFF7FEFF 		bl	LED_RED_Write
 373              	.LVL39:
 355:main.c        **** }
 374              		.loc 1 355 0
 375              		@ sp needed
 376 000c 10BD     		pop	{r4, pc}
 377              		.cfi_endproc
 378              	.LFE69:
 379              		.size	Led_RedON, .-Led_RedON
 380              		.section	.text.Led_GreenON,"ax",%progbits
 381              		.align	1
 382              		.global	Led_GreenON
 383              		.code	16
 384              		.thumb_func
 385              		.type	Led_GreenON, %function
 386              	Led_GreenON:
 387              	.LFB70:
 356:main.c        **** 
 357:main.c        **** //*************************************************************************************************
 358:main.c        **** // Function name	: Led_GreenON
 359:main.c        **** // Description		: 绿灯亮
 360:main.c        **** // Parameter		: none
 361:main.c        **** // Return			: none
 362:main.c        **** //-------------------------------------------------------------------------------------------------
 363:main.c        **** // Info				: 
 364:main.c        **** //*************************************************************************************************
 365:main.c        **** void Led_GreenON(void)
 366:main.c        **** {
 388              		.loc 1 366 0
 389              		.cfi_startproc
 390              		@ args = 0, pretend = 0, frame = 0
 391              		@ frame_needed = 0, uses_anonymous_args = 0
 392 0000 10B5     		push	{r4, lr}
 393              		.cfi_def_cfa_offset 8
 394              		.cfi_offset 4, -8
 395              		.cfi_offset 14, -4
 367:main.c        ****     Led_AllOff();
 396              		.loc 1 367 0
 397 0002 FFF7FEFF 		bl	Led_AllOff
 398              	.LVL40:
 368:main.c        **** 	LED_GREEN_Write(0);
 399              		.loc 1 368 0
 400 0006 0020     		movs	r0, #0
 401 0008 FFF7FEFF 		bl	LED_GREEN_Write
 402              	.LVL41:
 369:main.c        **** }
 403              		.loc 1 369 0
 404              		@ sp needed
 405 000c 10BD     		pop	{r4, pc}
 406              		.cfi_endproc
 407              	.LFE70:
 408              		.size	Led_GreenON, .-Led_GreenON
 409              		.section	.text.Led_BlueON,"ax",%progbits
 410              		.align	1
 411              		.global	Led_BlueON
ARM GAS  C:\Users\Administrator\AppData\Local\Temp\ccNQfmEa.s 			page 15


 412              		.code	16
 413              		.thumb_func
 414              		.type	Led_BlueON, %function
 415              	Led_BlueON:
 416              	.LFB71:
 370:main.c        **** 
 371:main.c        **** //*************************************************************************************************
 372:main.c        **** // Function name	: Led_BlueON
 373:main.c        **** // Description		: 蓝灯亮
 374:main.c        **** // Parameter		: none
 375:main.c        **** // Return			: none
 376:main.c        **** //-------------------------------------------------------------------------------------------------
 377:main.c        **** // Info				: 
 378:main.c        **** //*************************************************************************************************
 379:main.c        **** void Led_BlueON(void)
 380:main.c        **** {
 417              		.loc 1 380 0
 418              		.cfi_startproc
 419              		@ args = 0, pretend = 0, frame = 0
 420              		@ frame_needed = 0, uses_anonymous_args = 0
 421 0000 10B5     		push	{r4, lr}
 422              		.cfi_def_cfa_offset 8
 423              		.cfi_offset 4, -8
 424              		.cfi_offset 14, -4
 381:main.c        ****     Led_AllOff();
 425              		.loc 1 381 0
 426 0002 FFF7FEFF 		bl	Led_AllOff
 427              	.LVL42:
 382:main.c        **** 	LED_BLUE_Write(0);
 428              		.loc 1 382 0
 429 0006 0020     		movs	r0, #0
 430 0008 FFF7FEFF 		bl	LED_BLUE_Write
 431              	.LVL43:
 383:main.c        **** }
 432              		.loc 1 383 0
 433              		@ sp needed
 434 000c 10BD     		pop	{r4, pc}
 435              		.cfi_endproc
 436              	.LFE71:
 437              		.size	Led_BlueON, .-Led_BlueON
 438              		.section	.text.Led_SetState,"ax",%progbits
 439              		.align	1
 440              		.global	Led_SetState
 441              		.code	16
 442              		.thumb_func
 443              		.type	Led_SetState, %function
 444              	Led_SetState:
 445              	.LFB72:
 384:main.c        **** 
 385:main.c        **** //*************************************************************************************************
 386:main.c        **** // Function name	: Led_SetState
 387:main.c        **** // Description		: 设置LED的状态
 388:main.c        **** // Parameter		: Sta	: 待设置的状态
 389:main.c        **** // Return			: none
 390:main.c        **** //-------------------------------------------------------------------------------------------------
 391:main.c        **** // Info				: 
 392:main.c        **** //*************************************************************************************************
ARM GAS  C:\Users\Administrator\AppData\Local\Temp\ccNQfmEa.s 			page 16


 393:main.c        **** void Led_SetState(uint8 Sta)
 394:main.c        **** {
 446              		.loc 1 394 0
 447              		.cfi_startproc
 448              		@ args = 0, pretend = 0, frame = 0
 449              		@ frame_needed = 0, uses_anonymous_args = 0
 450              	.LVL44:
 451 0000 10B5     		push	{r4, lr}
 452              		.cfi_def_cfa_offset 8
 453              		.cfi_offset 4, -8
 454              		.cfi_offset 14, -4
 395:main.c        **** 	if (Sta == 0)
 455              		.loc 1 395 0
 456 0002 0028     		cmp	r0, #0
 457 0004 02D1     		bne	.L42
 396:main.c        **** 	{
 397:main.c        **** 		Led_AllOff();
 458              		.loc 1 397 0
 459 0006 FFF7FEFF 		bl	Led_AllOff
 460              	.LVL45:
 461 000a 0DE0     		b	.L41
 462              	.LVL46:
 463              	.L42:
 398:main.c        **** 	}
 399:main.c        **** 	else if (Sta == 1)
 464              		.loc 1 399 0
 465 000c 0128     		cmp	r0, #1
 466 000e 02D1     		bne	.L44
 400:main.c        **** 	{
 401:main.c        **** 		Led_RedON();
 467              		.loc 1 401 0
 468 0010 FFF7FEFF 		bl	Led_RedON
 469              	.LVL47:
 470 0014 08E0     		b	.L41
 471              	.LVL48:
 472              	.L44:
 402:main.c        **** 	}
 403:main.c        **** 	else if (Sta == 2)
 473              		.loc 1 403 0
 474 0016 0228     		cmp	r0, #2
 475 0018 02D1     		bne	.L45
 404:main.c        **** 	{
 405:main.c        **** 		Led_GreenON();
 476              		.loc 1 405 0
 477 001a FFF7FEFF 		bl	Led_GreenON
 478              	.LVL49:
 479 001e 03E0     		b	.L41
 480              	.LVL50:
 481              	.L45:
 406:main.c        **** 	}
 407:main.c        **** 	else if (Sta == 3)
 482              		.loc 1 407 0
 483 0020 0328     		cmp	r0, #3
 484 0022 01D1     		bne	.L41
 408:main.c        **** 	{
 409:main.c        **** 		Led_BlueON();
 485              		.loc 1 409 0
ARM GAS  C:\Users\Administrator\AppData\Local\Temp\ccNQfmEa.s 			page 17


 486 0024 FFF7FEFF 		bl	Led_BlueON
 487              	.LVL51:
 488              	.L41:
 410:main.c        **** 	}
 411:main.c        **** }
 489              		.loc 1 411 0
 490              		@ sp needed
 491 0028 10BD     		pop	{r4, pc}
 492              		.cfi_endproc
 493              	.LFE72:
 494              		.size	Led_SetState, .-Led_SetState
 495              		.section	.text.DoorOpen,"ax",%progbits
 496              		.align	1
 497              		.global	DoorOpen
 498              		.code	16
 499              		.thumb_func
 500              		.type	DoorOpen, %function
 501              	DoorOpen:
 502              	.LFB73:
 412:main.c        **** 
 413:main.c        **** //*************************************************************************************************
 414:main.c        **** // Function name	: DoorOpen
 415:main.c        **** // Description		: 门打开
 416:main.c        **** // Parameter		: none
 417:main.c        **** // Return			: none
 418:main.c        **** //-------------------------------------------------------------------------------------------------
 419:main.c        **** // Info				: 
 420:main.c        **** //*************************************************************************************************
 421:main.c        **** void DoorOpen(void)
 422:main.c        **** {
 503              		.loc 1 422 0
 504              		.cfi_startproc
 505              		@ args = 0, pretend = 0, frame = 0
 506              		@ frame_needed = 0, uses_anonymous_args = 0
 507 0000 10B5     		push	{r4, lr}
 508              		.cfi_def_cfa_offset 8
 509              		.cfi_offset 4, -8
 510              		.cfi_offset 14, -4
 423:main.c        ****     DOOR_OPEN_Write(1);
 511              		.loc 1 423 0
 512 0002 0120     		movs	r0, #1
 513 0004 FFF7FEFF 		bl	DOOR_OPEN_Write
 514              	.LVL52:
 424:main.c        **** }
 515              		.loc 1 424 0
 516              		@ sp needed
 517 0008 10BD     		pop	{r4, pc}
 518              		.cfi_endproc
 519              	.LFE73:
 520              		.size	DoorOpen, .-DoorOpen
 521              		.section	.text.DoorClose,"ax",%progbits
 522              		.align	1
 523              		.global	DoorClose
 524              		.code	16
 525              		.thumb_func
 526              		.type	DoorClose, %function
 527              	DoorClose:
ARM GAS  C:\Users\Administrator\AppData\Local\Temp\ccNQfmEa.s 			page 18


 528              	.LFB74:
 425:main.c        **** 
 426:main.c        **** //*************************************************************************************************
 427:main.c        **** // Function name	: DoorClose
 428:main.c        **** // Description		: 门关闭
 429:main.c        **** // Parameter		: none
 430:main.c        **** // Return			: none
 431:main.c        **** //-------------------------------------------------------------------------------------------------
 432:main.c        **** // Info				: 
 433:main.c        **** //*************************************************************************************************
 434:main.c        **** void DoorClose(void)
 435:main.c        **** {
 529              		.loc 1 435 0
 530              		.cfi_startproc
 531              		@ args = 0, pretend = 0, frame = 0
 532              		@ frame_needed = 0, uses_anonymous_args = 0
 533 0000 10B5     		push	{r4, lr}
 534              		.cfi_def_cfa_offset 8
 535              		.cfi_offset 4, -8
 536              		.cfi_offset 14, -4
 436:main.c        ****     DOOR_OPEN_Write(0);
 537              		.loc 1 436 0
 538 0002 0020     		movs	r0, #0
 539 0004 FFF7FEFF 		bl	DOOR_OPEN_Write
 540              	.LVL53:
 437:main.c        **** }
 541              		.loc 1 437 0
 542              		@ sp needed
 543 0008 10BD     		pop	{r4, pc}
 544              		.cfi_endproc
 545              	.LFE74:
 546              		.size	DoorClose, .-DoorClose
 547              		.section	.text.GetDoorState,"ax",%progbits
 548              		.align	1
 549              		.global	GetDoorState
 550              		.code	16
 551              		.thumb_func
 552              		.type	GetDoorState, %function
 553              	GetDoorState:
 554              	.LFB75:
 438:main.c        **** 
 439:main.c        **** //*************************************************************************************************
 440:main.c        **** // Function name	: DoorClose
 441:main.c        **** // Description		: 门磁检测
 442:main.c        **** // Parameter		: none
 443:main.c        **** // Return			: none
 444:main.c        **** //-------------------------------------------------------------------------------------------------
 445:main.c        **** // Info				: 
 446:main.c        **** //*************************************************************************************************
 447:main.c        **** uint8 GetDoorState(void)
 448:main.c        **** {
 555              		.loc 1 448 0
 556              		.cfi_startproc
 557              		@ args = 0, pretend = 0, frame = 0
 558              		@ frame_needed = 0, uses_anonymous_args = 0
 559              	.LVL54:
 560 0000 10B5     		push	{r4, lr}
ARM GAS  C:\Users\Administrator\AppData\Local\Temp\ccNQfmEa.s 			page 19


 561              		.cfi_def_cfa_offset 8
 562              		.cfi_offset 4, -8
 563              		.cfi_offset 14, -4
 449:main.c        **** 	uint8 ret = 0;
 450:main.c        **** 	
 451:main.c        **** 	if(0 == MG_STATE_Read())
 564              		.loc 1 451 0
 565 0002 FFF7FEFF 		bl	MG_STATE_Read
 566              	.LVL55:
 452:main.c        **** 		ret = DoorClosed; 
 453:main.c        **** 	else
 454:main.c        **** 		ret = DoorOpened;
 567              		.loc 1 454 0
 568 0006 4342     		rsbs	r3, r0, #0
 569 0008 5841     		adcs	r0, r0, r3
 455:main.c        **** 	
 456:main.c        **** 	return ret;	
 457:main.c        **** }
 570              		.loc 1 457 0
 571              		@ sp needed
 454:main.c        **** 	
 572              		.loc 1 454 0
 573 000a 0130     		adds	r0, r0, #1
 574              	.LVL56:
 575              		.loc 1 457 0
 576 000c 10BD     		pop	{r4, pc}
 577              		.cfi_endproc
 578              	.LFE75:
 579              		.size	GetDoorState, .-GetDoorState
 580              		.section	.text.GPRS_SetON,"ax",%progbits
 581              		.align	1
 582              		.global	GPRS_SetON
 583              		.code	16
 584              		.thumb_func
 585              		.type	GPRS_SetON, %function
 586              	GPRS_SetON:
 587              	.LFB76:
 458:main.c        **** 
 459:main.c        **** //*************************************************************************************************
 460:main.c        **** // Function name	: GPRS_SetON
 461:main.c        **** // Description		: GPRS PowerKey On
 462:main.c        **** // Parameter		: none
 463:main.c        **** // Return			: none
 464:main.c        **** //-------------------------------------------------------------------------------------------------
 465:main.c        **** // Info				: GPRS模组开机操作
 466:main.c        **** //*************************************************************************************************
 467:main.c        **** void GPRS_SetON(void)
 468:main.c        **** {
 588              		.loc 1 468 0
 589              		.cfi_startproc
 590              		@ args = 0, pretend = 0, frame = 0
 591              		@ frame_needed = 0, uses_anonymous_args = 0
 592              	.LVL57:
 593 0000 10B5     		push	{r4, lr}
 594              		.cfi_def_cfa_offset 8
 595              		.cfi_offset 4, -8
 596              		.cfi_offset 14, -4
ARM GAS  C:\Users\Administrator\AppData\Local\Temp\ccNQfmEa.s 			page 20


 469:main.c        **** 	uint16 count = 0;
 470:main.c        **** 	
 471:main.c        **** 	if (GPRS_STATE_Read() == 1)
 597              		.loc 1 471 0
 598 0002 FFF7FEFF 		bl	GPRS_STATE_Read
 599              	.LVL58:
 600 0006 0400     		movs	r4, r0
 601 0008 0128     		cmp	r0, #1
 602 000a 15D1     		bne	.L51
 603              	.LBB8:
 604              	.LBB9:
 472:main.c        **** 	{	// 如果是关机状态 执行开机
 473:main.c        **** 		CyDelay(30);
 605              		.loc 1 473 0
 606 000c 1E20     		movs	r0, #30
 607 000e FFF7FEFF 		bl	CyDelay
 608              	.LVL59:
 474:main.c        **** 		GPRS_PWRKEY_Write(1);
 609              		.loc 1 474 0
 610 0012 2000     		movs	r0, r4
 611 0014 FFF7FEFF 		bl	GPRS_PWRKEY_Write
 612              	.LVL60:
 613 0018 1F34     		adds	r4, r4, #31
 614              	.L53:
 615              	.LVL61:
 475:main.c        **** 		while ((GPRS_STATE_Read() == 1) && (count <= 30))
 616              		.loc 1 475 0
 617 001a FFF7FEFF 		bl	GPRS_STATE_Read
 618              	.LVL62:
 619 001e 0128     		cmp	r0, #1
 620 0020 07D1     		bne	.L54
 621 0022 013C     		subs	r4, r4, #1
 622              	.LVL63:
 623 0024 A4B2     		uxth	r4, r4
 624 0026 002C     		cmp	r4, #0
 625 0028 03D0     		beq	.L54
 476:main.c        **** 		{
 477:main.c        **** 			delay_with_ble(100);
 626              		.loc 1 477 0
 627 002a 6420     		movs	r0, #100
 628 002c FFF7FEFF 		bl	delay_with_ble
 629              	.LVL64:
 630 0030 F3E7     		b	.L53
 631              	.LVL65:
 632              	.L54:
 478:main.c        **** 			count++;
 479:main.c        **** 		}
 480:main.c        **** 		GPRS_PWRKEY_Write(0);
 633              		.loc 1 480 0
 634 0032 0020     		movs	r0, #0
 635 0034 FFF7FEFF 		bl	GPRS_PWRKEY_Write
 636              	.LVL66:
 637              	.L51:
 638              	.LBE9:
 639              	.LBE8:
 481:main.c        **** 	}
 482:main.c        **** }
ARM GAS  C:\Users\Administrator\AppData\Local\Temp\ccNQfmEa.s 			page 21


 640              		.loc 1 482 0
 641              		@ sp needed
 642 0038 10BD     		pop	{r4, pc}
 643              		.cfi_endproc
 644              	.LFE76:
 645              		.size	GPRS_SetON, .-GPRS_SetON
 646              		.section	.text.GPRSPowerOn,"ax",%progbits
 647              		.align	1
 648              		.global	GPRSPowerOn
 649              		.code	16
 650              		.thumb_func
 651              		.type	GPRSPowerOn, %function
 652              	GPRSPowerOn:
 653              	.LFB77:
 483:main.c        **** 
 484:main.c        **** //*************************************************************************************************
 485:main.c        **** // Function name	: GPRSPowerOn
 486:main.c        **** // Description		: GPRS上电
 487:main.c        **** // Parameter		: none
 488:main.c        **** // Return			: none
 489:main.c        **** //-------------------------------------------------------------------------------------------------
 490:main.c        **** // Info				: 
 491:main.c        **** //*************************************************************************************************
 492:main.c        **** void GPRSPowerOn(void)
 493:main.c        **** {
 654              		.loc 1 493 0
 655              		.cfi_startproc
 656              		@ args = 0, pretend = 0, frame = 0
 657              		@ frame_needed = 0, uses_anonymous_args = 0
 658              	.LVL67:
 659 0000 10B5     		push	{r4, lr}
 660              		.cfi_def_cfa_offset 8
 661              		.cfi_offset 4, -8
 662              		.cfi_offset 14, -4
 494:main.c        **** 	uint8 count = 0;
 495:main.c        **** 	
 496:main.c        **** 	if (GPRS_STATE_Read() == 1)
 663              		.loc 1 496 0
 664 0002 FFF7FEFF 		bl	GPRS_STATE_Read
 665              	.LVL68:
 666 0006 0400     		movs	r4, r0
 667 0008 0128     		cmp	r0, #1
 668 000a 3ED1     		bne	.L56
 497:main.c        **** 	{	// 如果是关机状态
 498:main.c        **** 		CyDelay(30);
 669              		.loc 1 498 0
 670 000c 1E20     		movs	r0, #30
 671 000e FFF7FEFF 		bl	CyDelay
 672              	.LVL69:
 499:main.c        **** 		GPRS_PWRKEY_Write(1);
 673              		.loc 1 499 0
 674 0012 2000     		movs	r0, r4
 675 0014 FFF7FEFF 		bl	GPRS_PWRKEY_Write
 676              	.LVL70:
 500:main.c        **** 		while ((GPRS_STATE_Read() == 1) && (count <= 30))
 677              		.loc 1 500 0
 678 0018 1F34     		adds	r4, r4, #31
ARM GAS  C:\Users\Administrator\AppData\Local\Temp\ccNQfmEa.s 			page 22


 679              	.LVL71:
 680              	.L58:
 681 001a FFF7FEFF 		bl	GPRS_STATE_Read
 682              	.LVL72:
 683 001e 0128     		cmp	r0, #1
 684 0020 07D1     		bne	.L59
 685 0022 013C     		subs	r4, r4, #1
 686              	.LVL73:
 687 0024 E4B2     		uxtb	r4, r4
 688              		.loc 1 500 0 is_stmt 0 discriminator 1
 689 0026 002C     		cmp	r4, #0
 690 0028 03D0     		beq	.L59
 501:main.c        **** 		{
 502:main.c        **** 			delay_with_ble(100);
 691              		.loc 1 502 0 is_stmt 1
 692 002a 6420     		movs	r0, #100
 693 002c FFF7FEFF 		bl	delay_with_ble
 694              	.LVL74:
 695 0030 F3E7     		b	.L58
 696              	.LVL75:
 697              	.L59:
 503:main.c        **** 			count++;
 504:main.c        **** 		}
 505:main.c        **** 		GPRS_PWRKEY_Write(0);
 698              		.loc 1 505 0
 699 0032 0020     		movs	r0, #0
 700 0034 FFF7FEFF 		bl	GPRS_PWRKEY_Write
 701              	.LVL76:
 506:main.c        **** 		GPRS_WaitInitFinish();
 702              		.loc 1 506 0
 703 0038 FFF7FEFF 		bl	GPRS_WaitInitFinish
 704              	.LVL77:
 507:main.c        **** 		delay_with_ble(3000);						// 等待3s
 705              		.loc 1 507 0
 706 003c 1348     		ldr	r0, .L65
 707 003e FFF7FEFF 		bl	delay_with_ble
 708              	.LVL78:
 508:main.c        **** 		
 509:main.c        **** 		GPRS_QuerySimCard();
 709              		.loc 1 509 0
 710 0042 FFF7FEFF 		bl	GPRS_QuerySimCard
 711              	.LVL79:
 510:main.c        **** 		delay_with_ble(4000);						// 等待网络注册 连接
 712              		.loc 1 510 0
 713 0046 FA20     		movs	r0, #250
 714 0048 0001     		lsls	r0, r0, #4
 715 004a FFF7FEFF 		bl	delay_with_ble
 716              	.LVL80:
 511:main.c        **** 		wait_timeout = 30000;						// 等待超时 30s
 717              		.loc 1 511 0
 718 004e 104B     		ldr	r3, .L65+4
 719 0050 104A     		ldr	r2, .L65+8
 720 0052 1C00     		movs	r4, r3
 721 0054 1A60     		str	r2, [r3]
 722              	.L61:
 512:main.c        **** 		while(wait_timeout > 0)
 723              		.loc 1 512 0
ARM GAS  C:\Users\Administrator\AppData\Local\Temp\ccNQfmEa.s 			page 23


 724 0056 2368     		ldr	r3, [r4]
 725 0058 002B     		cmp	r3, #0
 726 005a 03D0     		beq	.L64
 513:main.c        **** 		{
 514:main.c        **** 			if(TRUE == GPRS_QueryCREG())			// 查询网络注册情况 AT+CREG? 
 727              		.loc 1 514 0
 728 005c FFF7FEFF 		bl	GPRS_QueryCREG
 729              	.LVL81:
 730 0060 0128     		cmp	r0, #1
 731 0062 0ED1     		bne	.L62
 732              	.L64:
 515:main.c        **** 			{
 516:main.c        **** 				break;		
 517:main.c        **** 			}
 518:main.c        **** 			else
 519:main.c        **** 			{
 520:main.c        **** 				delay_with_ble(1500);	
 521:main.c        **** 			}
 522:main.c        **** 		}
 523:main.c        **** 		delay_with_ble(500);
 733              		.loc 1 523 0
 734 0064 FA20     		movs	r0, #250
 735 0066 4000     		lsls	r0, r0, #1
 736 0068 FFF7FEFF 		bl	delay_with_ble
 737              	.LVL82:
 524:main.c        **** 		if(0 == GPRS_QueryRssi())					// 查询信号情况 AT+CSQ 不查没关系，除非是排除0 
 738              		.loc 1 524 0
 739 006c FFF7FEFF 		bl	GPRS_QueryRssi
 740              	.LVL83:
 525:main.c        **** 		{
 526:main.c        **** 		}		
 527:main.c        **** 		GPRS_SetAPN();								// 设置APN情况 AT+CGDCONT=1,"IP","CMNET" 
 741              		.loc 1 527 0
 742 0070 FFF7FEFF 		bl	GPRS_SetAPN
 743              	.LVL84:
 528:main.c        **** 		delay_with_ble(500);	
 744              		.loc 1 528 0
 745 0074 FA20     		movs	r0, #250
 746 0076 4000     		lsls	r0, r0, #1
 747 0078 FFF7FEFF 		bl	delay_with_ble
 748              	.LVL85:
 529:main.c        **** 		GPRS_SetActive();							// 激活PDP上下文 AT+CGACT=1,1  (6311-R开启)
 749              		.loc 1 529 0
 750 007c FFF7FEFF 		bl	GPRS_SetActive
 751              	.LVL86:
 752 0080 03E0     		b	.L56
 753              	.L62:
 520:main.c        **** 			}
 754              		.loc 1 520 0
 755 0082 0548     		ldr	r0, .L65+12
 756 0084 FFF7FEFF 		bl	delay_with_ble
 757              	.LVL87:
 758 0088 E5E7     		b	.L61
 759              	.L56:
 530:main.c        **** 	}
 531:main.c        **** }
 760              		.loc 1 531 0
ARM GAS  C:\Users\Administrator\AppData\Local\Temp\ccNQfmEa.s 			page 24


 761              		@ sp needed
 762 008a 10BD     		pop	{r4, pc}
 763              	.L66:
 764              		.align	2
 765              	.L65:
 766 008c B80B0000 		.word	3000
 767 0090 00000000 		.word	wait_timeout
 768 0094 30750000 		.word	30000
 769 0098 DC050000 		.word	1500
 770              		.cfi_endproc
 771              	.LFE77:
 772              		.size	GPRSPowerOn, .-GPRSPowerOn
 773              		.section	.text.GPRSPowerOn_0321,"ax",%progbits
 774              		.align	1
 775              		.global	GPRSPowerOn_0321
 776              		.code	16
 777              		.thumb_func
 778              		.type	GPRSPowerOn_0321, %function
 779              	GPRSPowerOn_0321:
 780              	.LFB78:
 532:main.c        **** 
 533:main.c        **** //*************************************************************************************************
 534:main.c        **** // Function name	: GPRSPowerOn
 535:main.c        **** // Description		: GPRS上电
 536:main.c        **** // Parameter		: none
 537:main.c        **** // Return			: none
 538:main.c        **** //-------------------------------------------------------------------------------------------------
 539:main.c        **** // Info				: 
 540:main.c        **** //*************************************************************************************************
 541:main.c        **** void GPRSPowerOn_0321(void)
 542:main.c        **** {
 781              		.loc 1 542 0
 782              		.cfi_startproc
 783              		@ args = 0, pretend = 0, frame = 0
 784              		@ frame_needed = 0, uses_anonymous_args = 0
 785 0000 10B5     		push	{r4, lr}
 786              		.cfi_def_cfa_offset 8
 787              		.cfi_offset 4, -8
 788              		.cfi_offset 14, -4
 543:main.c        **** 	GPRS_SetON();
 789              		.loc 1 543 0
 790 0002 FFF7FEFF 		bl	GPRS_SetON
 791              	.LVL88:
 544:main.c        **** 	
 545:main.c        **** 	cmd433_INT_ISR_StartEx(RX_IRQ_INTERRUPT);						// 开启串口接收中断					//
 792              		.loc 1 545 0
 793 0006 1748     		ldr	r0, .L73
 794 0008 FFF7FEFF 		bl	cmd433_INT_ISR_StartEx
 795              	.LVL89:
 546:main.c        ****     UART_433_Start();												// 串口初始化						//
 796              		.loc 1 546 0
 797 000c FFF7FEFF 		bl	UART_433_Start
 798              	.LVL90:
 547:main.c        **** 	
 548:main.c        **** 	GPRS_WaitInitFinish();
 799              		.loc 1 548 0
 800 0010 FFF7FEFF 		bl	GPRS_WaitInitFinish
ARM GAS  C:\Users\Administrator\AppData\Local\Temp\ccNQfmEa.s 			page 25


 801              	.LVL91:
 549:main.c        **** 	//delay_with_ble(3000);						// 等待3s
 550:main.c        **** 	delay_with_ble(2000);						// 等待3s
 802              		.loc 1 550 0
 803 0014 FA20     		movs	r0, #250
 804 0016 C000     		lsls	r0, r0, #3
 805 0018 FFF7FEFF 		bl	delay_with_ble
 806              	.LVL92:
 551:main.c        **** 	GPRS_QuerySimCard();
 807              		.loc 1 551 0
 808 001c FFF7FEFF 		bl	GPRS_QuerySimCard
 809              	.LVL93:
 552:main.c        **** 	delay_with_ble(4000);						// 等待网络注册 连接
 810              		.loc 1 552 0
 811 0020 FA20     		movs	r0, #250
 812 0022 0001     		lsls	r0, r0, #4
 813 0024 FFF7FEFF 		bl	delay_with_ble
 814              	.LVL94:
 553:main.c        **** 	wait_timeout = 30000;						// 等待超时 30s
 815              		.loc 1 553 0
 816 0028 0F4B     		ldr	r3, .L73+4
 817 002a 104A     		ldr	r2, .L73+8
 818 002c 1C00     		movs	r4, r3
 819 002e 1A60     		str	r2, [r3]
 820              	.L68:
 554:main.c        **** 	while(wait_timeout > 0)
 821              		.loc 1 554 0
 822 0030 2368     		ldr	r3, [r4]
 823 0032 002B     		cmp	r3, #0
 824 0034 03D0     		beq	.L71
 555:main.c        **** 	{
 556:main.c        **** 		if(TRUE == GPRS_QueryCREG())			// 查询网络注册情况 AT+CREG? 
 825              		.loc 1 556 0
 826 0036 FFF7FEFF 		bl	GPRS_QueryCREG
 827              	.LVL95:
 828 003a 0128     		cmp	r0, #1
 829 003c 0ED1     		bne	.L69
 830              	.L71:
 557:main.c        **** 		{
 558:main.c        **** 			break;		
 559:main.c        **** 		}
 560:main.c        **** 		else
 561:main.c        **** 		{
 562:main.c        **** 			delay_with_ble(1500);	
 563:main.c        **** 		}
 564:main.c        **** 	}
 565:main.c        **** 	delay_with_ble(500);
 831              		.loc 1 565 0
 832 003e FA20     		movs	r0, #250
 833 0040 4000     		lsls	r0, r0, #1
 834 0042 FFF7FEFF 		bl	delay_with_ble
 835              	.LVL96:
 566:main.c        **** 	if(0 == GPRS_QueryRssi())					// 查询信号情况 AT+CSQ 不查没关系，除非是排除0 
 836              		.loc 1 566 0
 837 0046 FFF7FEFF 		bl	GPRS_QueryRssi
 838              	.LVL97:
 567:main.c        **** 	{
ARM GAS  C:\Users\Administrator\AppData\Local\Temp\ccNQfmEa.s 			page 26


 568:main.c        **** 	}		
 569:main.c        **** 	GPRS_SetAPN();								// 设置APN情况 AT+CGDCONT=1,"IP","CMNET" 
 839              		.loc 1 569 0
 840 004a FFF7FEFF 		bl	GPRS_SetAPN
 841              	.LVL98:
 570:main.c        **** 	delay_with_ble(500);	
 842              		.loc 1 570 0
 843 004e FA20     		movs	r0, #250
 844 0050 4000     		lsls	r0, r0, #1
 845 0052 FFF7FEFF 		bl	delay_with_ble
 846              	.LVL99:
 571:main.c        **** 	GPRS_SetActive();							// 激活PDP上下文 AT+CGACT=1,1  (6311-R开启)
 572:main.c        **** 
 573:main.c        **** }
 847              		.loc 1 573 0
 848              		@ sp needed
 571:main.c        **** 	GPRS_SetActive();							// 激活PDP上下文 AT+CGACT=1,1  (6311-R开启)
 849              		.loc 1 571 0
 850 0056 FFF7FEFF 		bl	GPRS_SetActive
 851              	.LVL100:
 852              		.loc 1 573 0
 853 005a 10BD     		pop	{r4, pc}
 854              	.L69:
 562:main.c        **** 		}
 855              		.loc 1 562 0
 856 005c 0448     		ldr	r0, .L73+12
 857 005e FFF7FEFF 		bl	delay_with_ble
 858              	.LVL101:
 859 0062 E5E7     		b	.L68
 860              	.L74:
 861              		.align	2
 862              	.L73:
 863 0064 00000000 		.word	RX_IRQ_INTERRUPT
 864 0068 00000000 		.word	wait_timeout
 865 006c 30750000 		.word	30000
 866 0070 DC050000 		.word	1500
 867              		.cfi_endproc
 868              	.LFE78:
 869              		.size	GPRSPowerOn_0321, .-GPRSPowerOn_0321
 870              		.section	.text.GPRSPowerDown,"ax",%progbits
 871              		.align	1
 872              		.global	GPRSPowerDown
 873              		.code	16
 874              		.thumb_func
 875              		.type	GPRSPowerDown, %function
 876              	GPRSPowerDown:
 877              	.LFB79:
 574:main.c        **** 
 575:main.c        **** 
 576:main.c        **** //*************************************************************************************************
 577:main.c        **** // Function name	: GPRSPowerDown
 578:main.c        **** // Description		: GPRS掉电
 579:main.c        **** // Parameter		: none
 580:main.c        **** // Return			: none
 581:main.c        **** //-------------------------------------------------------------------------------------------------
 582:main.c        **** // Info				: 
 583:main.c        **** //*************************************************************************************************
ARM GAS  C:\Users\Administrator\AppData\Local\Temp\ccNQfmEa.s 			page 27


 584:main.c        **** void GPRSPowerDown(void)
 585:main.c        **** {
 878              		.loc 1 585 0
 879              		.cfi_startproc
 880              		@ args = 0, pretend = 0, frame = 0
 881              		@ frame_needed = 0, uses_anonymous_args = 0
 882              	.LVL102:
 883 0000 10B5     		push	{r4, lr}
 884              		.cfi_def_cfa_offset 8
 885              		.cfi_offset 4, -8
 886              		.cfi_offset 14, -4
 586:main.c        **** 	uint8 count = 0;
 587:main.c        **** 	
 588:main.c        **** 	if (GPRS_STATE_Read() == 0)
 887              		.loc 1 588 0
 888 0002 FFF7FEFF 		bl	GPRS_STATE_Read
 889              	.LVL103:
 890 0006 0028     		cmp	r0, #0
 891 0008 12D1     		bne	.L76
 589:main.c        **** 	{
 590:main.c        **** 		GPRS_PWRKEY_Write(1);
 892              		.loc 1 590 0
 893 000a 0130     		adds	r0, r0, #1
 894 000c FFF7FEFF 		bl	GPRS_PWRKEY_Write
 895              	.LVL104:
 591:main.c        **** 		while ((GPRS_STATE_Read() == 0) && (count <= 30))
 896              		.loc 1 591 0
 897 0010 2024     		movs	r4, #32
 898              	.LVL105:
 899              	.L77:
 900 0012 FFF7FEFF 		bl	GPRS_STATE_Read
 901              	.LVL106:
 902 0016 0028     		cmp	r0, #0
 903 0018 07D1     		bne	.L78
 904 001a 013C     		subs	r4, r4, #1
 905              	.LVL107:
 906 001c E4B2     		uxtb	r4, r4
 907              		.loc 1 591 0 is_stmt 0 discriminator 1
 908 001e 002C     		cmp	r4, #0
 909 0020 03D0     		beq	.L78
 592:main.c        **** 		{
 593:main.c        **** 			delay_with_ble(100);
 910              		.loc 1 593 0 is_stmt 1
 911 0022 6420     		movs	r0, #100
 912 0024 FFF7FEFF 		bl	delay_with_ble
 913              	.LVL108:
 914 0028 F3E7     		b	.L77
 915              	.LVL109:
 916              	.L78:
 594:main.c        **** 			count++;
 595:main.c        **** 		}
 596:main.c        **** 		GPRS_PWRKEY_Write(0);
 917              		.loc 1 596 0
 918 002a 0020     		movs	r0, #0
 919 002c FFF7FEFF 		bl	GPRS_PWRKEY_Write
 920              	.LVL110:
 921              	.L76:
ARM GAS  C:\Users\Administrator\AppData\Local\Temp\ccNQfmEa.s 			page 28


 597:main.c        **** 	}
 598:main.c        ****     delay_with_ble(10000);
 922              		.loc 1 598 0
 923 0030 0148     		ldr	r0, .L80
 924 0032 FFF7FEFF 		bl	delay_with_ble
 925              	.LVL111:
 599:main.c        **** }
 926              		.loc 1 599 0
 927              		@ sp needed
 928 0036 10BD     		pop	{r4, pc}
 929              	.L81:
 930              		.align	2
 931              	.L80:
 932 0038 10270000 		.word	10000
 933              		.cfi_endproc
 934              	.LFE79:
 935              		.size	GPRSPowerDown, .-GPRSPowerDown
 936              		.section	.text.ResetGPRS,"ax",%progbits
 937              		.align	1
 938              		.global	ResetGPRS
 939              		.code	16
 940              		.thumb_func
 941              		.type	ResetGPRS, %function
 942              	ResetGPRS:
 943              	.LFB80:
 600:main.c        **** 
 601:main.c        **** //*************************************************************************************************
 602:main.c        **** // Function name	: ResetGPRS
 603:main.c        **** // Description		: 复位GPRS模块
 604:main.c        **** // Parameter		: none
 605:main.c        **** // Return			: none
 606:main.c        **** //-------------------------------------------------------------------------------------------------
 607:main.c        **** // Info				: 
 608:main.c        **** //*************************************************************************************************
 609:main.c        **** void ResetGPRS(void)
 610:main.c        **** {
 944              		.loc 1 610 0
 945              		.cfi_startproc
 946              		@ args = 0, pretend = 0, frame = 0
 947              		@ frame_needed = 0, uses_anonymous_args = 0
 948 0000 10B5     		push	{r4, lr}
 949              		.cfi_def_cfa_offset 8
 950              		.cfi_offset 4, -8
 951              		.cfi_offset 14, -4
 611:main.c        ****     GPRS_RESET_Write(1);
 952              		.loc 1 611 0
 953 0002 0120     		movs	r0, #1
 954 0004 FFF7FEFF 		bl	GPRS_RESET_Write
 955              	.LVL112:
 612:main.c        **** 	delay_with_ble(25);
 956              		.loc 1 612 0
 957 0008 1920     		movs	r0, #25
 958 000a FFF7FEFF 		bl	delay_with_ble
 959              	.LVL113:
 613:main.c        **** 	GPRS_RESET_Write(0);
 960              		.loc 1 613 0
 961 000e 0020     		movs	r0, #0
ARM GAS  C:\Users\Administrator\AppData\Local\Temp\ccNQfmEa.s 			page 29


 962 0010 FFF7FEFF 		bl	GPRS_RESET_Write
 963              	.LVL114:
 614:main.c        **** }
 964              		.loc 1 614 0
 965              		@ sp needed
 966 0014 10BD     		pop	{r4, pc}
 967              		.cfi_endproc
 968              	.LFE80:
 969              		.size	ResetGPRS, .-ResetGPRS
 970              		.section	.text.WaitTimeOut,"ax",%progbits
 971              		.align	1
 972              		.global	WaitTimeOut
 973              		.code	16
 974              		.thumb_func
 975              		.type	WaitTimeOut, %function
 976              	WaitTimeOut:
 977              	.LFB81:
 615:main.c        **** 
 616:main.c        **** //*************************************************************************************************
 617:main.c        **** // Function name	: WaitTimeOut
 618:main.c        **** // Description		: 通用等待超时时间
 619:main.c        **** // Parameter		: none
 620:main.c        **** // Return			: none
 621:main.c        **** //-------------------------------------------------------------------------------------------------
 622:main.c        **** // Info				: 
 623:main.c        **** //*************************************************************************************************
 624:main.c        **** void WaitTimeOut(void)
 625:main.c        **** {				
 978              		.loc 1 625 0
 979              		.cfi_startproc
 980              		@ args = 0, pretend = 0, frame = 0
 981              		@ frame_needed = 0, uses_anonymous_args = 0
 982              		@ link register save eliminated.
 626:main.c        **** 	if (wait_timeout > 0)
 983              		.loc 1 626 0
 984 0000 034B     		ldr	r3, .L88
 985 0002 1A68     		ldr	r2, [r3]
 986 0004 002A     		cmp	r2, #0
 987 0006 02D0     		beq	.L83
 627:main.c        ****     {
 628:main.c        ****         wait_timeout--;
 988              		.loc 1 628 0
 989 0008 1A68     		ldr	r2, [r3]
 990 000a 013A     		subs	r2, r2, #1
 991 000c 1A60     		str	r2, [r3]
 992              	.L83:
 629:main.c        ****     }
 630:main.c        **** }
 993              		.loc 1 630 0
 994              		@ sp needed
 995 000e 7047     		bx	lr
 996              	.L89:
 997              		.align	2
 998              	.L88:
 999 0010 00000000 		.word	wait_timeout
 1000              		.cfi_endproc
 1001              	.LFE81:
ARM GAS  C:\Users\Administrator\AppData\Local\Temp\ccNQfmEa.s 			page 30


 1002              		.size	WaitTimeOut, .-WaitTimeOut
 1003              		.section	.text.CardCheckTimeOut,"ax",%progbits
 1004              		.align	1
 1005              		.global	CardCheckTimeOut
 1006              		.code	16
 1007              		.thumb_func
 1008              		.type	CardCheckTimeOut, %function
 1009              	CardCheckTimeOut:
 1010              	.LFB82:
 631:main.c        **** 
 632:main.c        **** //*************************************************************************************************
 633:main.c        **** // Function name	: CardCheckTimeOut
 634:main.c        **** // Description		: 刷卡计时
 635:main.c        **** // Parameter		: none
 636:main.c        **** // Return			: none
 637:main.c        **** //-------------------------------------------------------------------------------------------------
 638:main.c        **** // Info				: 
 639:main.c        **** //*************************************************************************************************
 640:main.c        **** void CardCheckTimeOut(void)
 641:main.c        **** {				
 1011              		.loc 1 641 0
 1012              		.cfi_startproc
 1013              		@ args = 0, pretend = 0, frame = 0
 1014              		@ frame_needed = 0, uses_anonymous_args = 0
 1015              		@ link register save eliminated.
 642:main.c        **** 	if (CardCheck_CountTime < 10000)
 1016              		.loc 1 642 0
 1017 0000 044B     		ldr	r3, .L92
 1018 0002 054A     		ldr	r2, .L92+4
 1019 0004 1968     		ldr	r1, [r3]
 1020 0006 9142     		cmp	r1, r2
 1021 0008 02D8     		bhi	.L90
 643:main.c        ****     {
 644:main.c        ****         CardCheck_CountTime++;
 1022              		.loc 1 644 0
 1023 000a 1A68     		ldr	r2, [r3]
 1024 000c 0132     		adds	r2, r2, #1
 1025 000e 1A60     		str	r2, [r3]
 1026              	.L90:
 645:main.c        ****     }
 646:main.c        **** }
 1027              		.loc 1 646 0
 1028              		@ sp needed
 1029 0010 7047     		bx	lr
 1030              	.L93:
 1031 0012 C046     		.align	2
 1032              	.L92:
 1033 0014 00000000 		.word	.LANCHOR0
 1034 0018 0F270000 		.word	9999
 1035              		.cfi_endproc
 1036              	.LFE82:
 1037              		.size	CardCheckTimeOut, .-CardCheckTimeOut
 1038              		.section	.text.Defendalarm_TimeOut,"ax",%progbits
 1039              		.align	1
 1040              		.global	Defendalarm_TimeOut
 1041              		.code	16
 1042              		.thumb_func
ARM GAS  C:\Users\Administrator\AppData\Local\Temp\ccNQfmEa.s 			page 31


 1043              		.type	Defendalarm_TimeOut, %function
 1044              	Defendalarm_TimeOut:
 1045              	.LFB83:
 647:main.c        **** 
 648:main.c        **** 
 649:main.c        **** //*************************************************************************************************
 650:main.c        **** // Function name	: CardCheckTimeOut
 651:main.c        **** // Description		: 刷卡计时
 652:main.c        **** // Parameter		: none
 653:main.c        **** // Return			: none
 654:main.c        **** //-------------------------------------------------------------------------------------------------
 655:main.c        **** // Info				: if (CardCheck_CountTime > 1500)
 656:main.c        **** //*************************************************************************************************
 657:main.c        **** void Defendalarm_TimeOut(void)
 658:main.c        **** {				
 1046              		.loc 1 658 0
 1047              		.cfi_startproc
 1048              		@ args = 0, pretend = 0, frame = 0
 1049              		@ frame_needed = 0, uses_anonymous_args = 0
 1050              		@ link register save eliminated.
 659:main.c        **** 	if (defendalarm_time < 10000)
 1051              		.loc 1 659 0
 1052 0000 034A     		ldr	r2, .L96
 1053 0002 0449     		ldr	r1, .L96+4
 1054 0004 1368     		ldr	r3, [r2]
 1055 0006 8B42     		cmp	r3, r1
 1056 0008 01D8     		bhi	.L94
 660:main.c        ****     {
 661:main.c        ****         defendalarm_time++;
 1057              		.loc 1 661 0
 1058 000a 0133     		adds	r3, r3, #1
 1059 000c 1360     		str	r3, [r2]
 1060              	.L94:
 662:main.c        ****     }
 663:main.c        **** }
 1061              		.loc 1 663 0
 1062              		@ sp needed
 1063 000e 7047     		bx	lr
 1064              	.L97:
 1065              		.align	2
 1066              	.L96:
 1067 0010 00000000 		.word	defendalarm_time
 1068 0014 0F270000 		.word	9999
 1069              		.cfi_endproc
 1070              	.LFE83:
 1071              		.size	Defendalarm_TimeOut, .-Defendalarm_TimeOut
 1072              		.section	.text.MgCheck_Count,"ax",%progbits
 1073              		.align	1
 1074              		.global	MgCheck_Count
 1075              		.code	16
 1076              		.thumb_func
 1077              		.type	MgCheck_Count, %function
 1078              	MgCheck_Count:
 1079              	.LFB84:
 664:main.c        **** 
 665:main.c        **** //*************************************************************************************************
 666:main.c        **** // Function name	: MgCheck_Count
ARM GAS  C:\Users\Administrator\AppData\Local\Temp\ccNQfmEa.s 			page 32


 667:main.c        **** // Description		: 门磁检测计时
 668:main.c        **** // Parameter		: none
 669:main.c        **** // Return			: none
 670:main.c        **** //-------------------------------------------------------------------------------------------------
 671:main.c        **** // Info				: 
 672:main.c        **** //*************************************************************************************************
 673:main.c        **** void MgCheck_Count(void)
 674:main.c        **** {				
 1080              		.loc 1 674 0
 1081              		.cfi_startproc
 1082              		@ args = 0, pretend = 0, frame = 0
 1083              		@ frame_needed = 0, uses_anonymous_args = 0
 1084              		@ link register save eliminated.
 675:main.c        **** 	if (MgCheck_time < 1000000)
 1085              		.loc 1 675 0
 1086 0000 034A     		ldr	r2, .L100
 1087 0002 0449     		ldr	r1, .L100+4
 1088 0004 1368     		ldr	r3, [r2]
 1089 0006 8B42     		cmp	r3, r1
 1090 0008 01D8     		bhi	.L98
 676:main.c        ****     {
 677:main.c        ****         MgCheck_time++;
 1091              		.loc 1 677 0
 1092 000a 0133     		adds	r3, r3, #1
 1093 000c 1360     		str	r3, [r2]
 1094              	.L98:
 678:main.c        ****     }
 679:main.c        **** }
 1095              		.loc 1 679 0
 1096              		@ sp needed
 1097 000e 7047     		bx	lr
 1098              	.L101:
 1099              		.align	2
 1100              	.L100:
 1101 0010 00000000 		.word	MgCheck_time
 1102 0014 3F420F00 		.word	999999
 1103              		.cfi_endproc
 1104              	.LFE84:
 1105              		.size	MgCheck_Count, .-MgCheck_Count
 1106              		.section	.text.FireCheck_Count,"ax",%progbits
 1107              		.align	1
 1108              		.global	FireCheck_Count
 1109              		.code	16
 1110              		.thumb_func
 1111              		.type	FireCheck_Count, %function
 1112              	FireCheck_Count:
 1113              	.LFB85:
 680:main.c        **** 
 681:main.c        **** 
 682:main.c        **** //*************************************************************************************************
 683:main.c        **** // Function name	: FireCheck_Count
 684:main.c        **** // Description		: 火警上报
 685:main.c        **** // Parameter		: none
 686:main.c        **** // Return			: none
 687:main.c        **** //-------------------------------------------------------------------------------------------------
 688:main.c        **** // Info				: 
 689:main.c        **** //*************************************************************************************************
ARM GAS  C:\Users\Administrator\AppData\Local\Temp\ccNQfmEa.s 			page 33


 690:main.c        **** void FireCheck_Count(void)
 691:main.c        **** {				
 1114              		.loc 1 691 0
 1115              		.cfi_startproc
 1116              		@ args = 0, pretend = 0, frame = 0
 1117              		@ frame_needed = 0, uses_anonymous_args = 0
 1118              		@ link register save eliminated.
 692:main.c        **** 	if (FireCheck_time < 1000000)
 1119              		.loc 1 692 0
 1120 0000 034A     		ldr	r2, .L104
 1121 0002 0449     		ldr	r1, .L104+4
 1122 0004 1368     		ldr	r3, [r2]
 1123 0006 8B42     		cmp	r3, r1
 1124 0008 01D8     		bhi	.L102
 693:main.c        ****     {
 694:main.c        ****         FireCheck_time++;
 1125              		.loc 1 694 0
 1126 000a 0133     		adds	r3, r3, #1
 1127 000c 1360     		str	r3, [r2]
 1128              	.L102:
 695:main.c        ****     }
 696:main.c        **** }
 1129              		.loc 1 696 0
 1130              		@ sp needed
 1131 000e 7047     		bx	lr
 1132              	.L105:
 1133              		.align	2
 1134              	.L104:
 1135 0010 00000000 		.word	FireCheck_time
 1136 0014 3F420F00 		.word	999999
 1137              		.cfi_endproc
 1138              	.LFE85:
 1139              		.size	FireCheck_Count, .-FireCheck_Count
 1140              		.section	.text.RecvTimeOut,"ax",%progbits
 1141              		.align	1
 1142              		.global	RecvTimeOut
 1143              		.code	16
 1144              		.thumb_func
 1145              		.type	RecvTimeOut, %function
 1146              	RecvTimeOut:
 1147              	.LFB86:
 697:main.c        **** 
 698:main.c        **** 
 699:main.c        **** //*************************************************************************************************
 700:main.c        **** // Function name	: RecvTimeOut
 701:main.c        **** // Description		: GPRS收到包头后，到整个包收完的超时时间
 702:main.c        **** // Parameter		: none
 703:main.c        **** // Return			: none
 704:main.c        **** //-------------------------------------------------------------------------------------------------
 705:main.c        **** // Info				: 
 706:main.c        **** //*************************************************************************************************
 707:main.c        **** void RecvTimeOut(void)
 708:main.c        **** {				
 1148              		.loc 1 708 0
 1149              		.cfi_startproc
 1150              		@ args = 0, pretend = 0, frame = 0
 1151              		@ frame_needed = 0, uses_anonymous_args = 0
ARM GAS  C:\Users\Administrator\AppData\Local\Temp\ccNQfmEa.s 			page 34


 1152              		@ link register save eliminated.
 709:main.c        **** 	if (recv_timeout > 0)
 1153              		.loc 1 709 0
 1154 0000 034B     		ldr	r3, .L111
 1155 0002 1A68     		ldr	r2, [r3]
 1156 0004 002A     		cmp	r2, #0
 1157 0006 02D0     		beq	.L106
 710:main.c        ****     {
 711:main.c        ****         recv_timeout--;
 1158              		.loc 1 711 0
 1159 0008 1A68     		ldr	r2, [r3]
 1160 000a 013A     		subs	r2, r2, #1
 1161 000c 1A60     		str	r2, [r3]
 1162              	.L106:
 712:main.c        ****     }
 713:main.c        **** }
 1163              		.loc 1 713 0
 1164              		@ sp needed
 1165 000e 7047     		bx	lr
 1166              	.L112:
 1167              		.align	2
 1168              	.L111:
 1169 0010 00000000 		.word	recv_timeout
 1170              		.cfi_endproc
 1171              	.LFE86:
 1172              		.size	RecvTimeOut, .-RecvTimeOut
 1173              		.section	.text.UpdateTimeOut,"ax",%progbits
 1174              		.align	1
 1175              		.global	UpdateTimeOut
 1176              		.code	16
 1177              		.thumb_func
 1178              		.type	UpdateTimeOut, %function
 1179              	UpdateTimeOut:
 1180              	.LFB87:
 714:main.c        **** 
 715:main.c        **** //*************************************************************************************************
 716:main.c        **** // Function name	: UpdateTimeOut
 717:main.c        **** // Description		: 在线升级超时时间
 718:main.c        **** // Parameter		: none
 719:main.c        **** // Return			: none
 720:main.c        **** //-------------------------------------------------------------------------------------------------
 721:main.c        **** // Info				: 
 722:main.c        **** //*************************************************************************************************
 723:main.c        **** void UpdateTimeOut(void)
 724:main.c        **** {				
 1181              		.loc 1 724 0
 1182              		.cfi_startproc
 1183              		@ args = 0, pretend = 0, frame = 0
 1184              		@ frame_needed = 0, uses_anonymous_args = 0
 1185              		@ link register save eliminated.
 725:main.c        **** 	if (update_timeout_time > 0)
 1186              		.loc 1 725 0
 1187 0000 034B     		ldr	r3, .L118
 1188 0002 5A68     		ldr	r2, [r3, #4]
 1189 0004 002A     		cmp	r2, #0
 1190 0006 02D0     		beq	.L113
 726:main.c        ****     {
ARM GAS  C:\Users\Administrator\AppData\Local\Temp\ccNQfmEa.s 			page 35


 727:main.c        ****         update_timeout_time--;
 1191              		.loc 1 727 0
 1192 0008 5A68     		ldr	r2, [r3, #4]
 1193 000a 013A     		subs	r2, r2, #1
 1194 000c 5A60     		str	r2, [r3, #4]
 1195              	.L113:
 728:main.c        ****     }
 729:main.c        **** }
 1196              		.loc 1 729 0
 1197              		@ sp needed
 1198 000e 7047     		bx	lr
 1199              	.L119:
 1200              		.align	2
 1201              	.L118:
 1202 0010 00000000 		.word	.LANCHOR0
 1203              		.cfi_endproc
 1204              	.LFE87:
 1205              		.size	UpdateTimeOut, .-UpdateTimeOut
 1206              		.section	.text.Reboot_Check,"ax",%progbits
 1207              		.align	1
 1208              		.global	Reboot_Check
 1209              		.code	16
 1210              		.thumb_func
 1211              		.type	Reboot_Check, %function
 1212              	Reboot_Check:
 1213              	.LFB88:
 730:main.c        **** 
 731:main.c        **** //*************************************************************************************************
 732:main.c        **** // Function name	: Reboot_Check
 733:main.c        **** // Description		: 重启检测
 734:main.c        **** // Parameter		: none
 735:main.c        **** // Return			: none
 736:main.c        **** //-------------------------------------------------------------------------------------------------
 737:main.c        **** // Info				: 
 738:main.c        **** //*************************************************************************************************
 739:main.c        **** void Reboot_Check(void)
 740:main.c        **** {
 1214              		.loc 1 740 0
 1215              		.cfi_startproc
 1216              		@ args = 0, pretend = 0, frame = 0
 1217              		@ frame_needed = 0, uses_anonymous_args = 0
 1218 0000 10B5     		push	{r4, lr}
 1219              		.cfi_def_cfa_offset 8
 1220              		.cfi_offset 4, -8
 1221              		.cfi_offset 14, -4
 741:main.c        ****     if ((flag_reboot == 1) && (stop_reboot == 0))
 1222              		.loc 1 741 0
 1223 0002 064B     		ldr	r3, .L122
 1224 0004 1A78     		ldrb	r2, [r3]
 1225 0006 012A     		cmp	r2, #1
 1226 0008 06D1     		bne	.L120
 1227              	.LBB12:
 1228              	.LBB13:
 1229 000a 054A     		ldr	r2, .L122+4
 1230 000c 1278     		ldrb	r2, [r2]
 1231 000e 002A     		cmp	r2, #0
 1232 0010 02D1     		bne	.L120
ARM GAS  C:\Users\Administrator\AppData\Local\Temp\ccNQfmEa.s 			page 36


 742:main.c        ****     {
 743:main.c        ****         flag_reboot = 0;
 1233              		.loc 1 743 0
 1234 0012 1A70     		strb	r2, [r3]
 744:main.c        ****         CySoftwareReset();
 1235              		.loc 1 744 0
 1236 0014 FFF7FEFF 		bl	CySoftwareReset
 1237              	.LVL115:
 1238              	.L120:
 1239              	.LBE13:
 1240              	.LBE12:
 745:main.c        ****     }
 746:main.c        **** }
 1241              		.loc 1 746 0
 1242              		@ sp needed
 1243 0018 10BD     		pop	{r4, pc}
 1244              	.L123:
 1245 001a C046     		.align	2
 1246              	.L122:
 1247 001c 00000000 		.word	flag_reboot
 1248 0020 00000000 		.word	stop_reboot
 1249              		.cfi_endproc
 1250              	.LFE88:
 1251              		.size	Reboot_Check, .-Reboot_Check
 1252              		.section	.text.Updatealarm_check,"ax",%progbits
 1253              		.align	1
 1254              		.global	Updatealarm_check
 1255              		.code	16
 1256              		.thumb_func
 1257              		.type	Updatealarm_check, %function
 1258              	Updatealarm_check:
 1259              	.LFB89:
 747:main.c        **** 
 748:main.c        **** //*************************************************************************************************
 749:main.c        **** // Function name	: Updatealarm_check
 750:main.c        **** // Description		: 重启检测
 751:main.c        **** // Parameter		: none
 752:main.c        **** // Return			: none
 753:main.c        **** //-------------------------------------------------------------------------------------------------
 754:main.c        **** // Info				: 查看是否升级记录 有，检查是否升级成功 若失败上报失败信息
 755:main.c        **** //*************************************************************************************************
 756:main.c        **** void Updatealarm_check(void)
 757:main.c        **** {
 1260              		.loc 1 757 0
 1261              		.cfi_startproc
 1262              		@ args = 0, pretend = 0, frame = 8
 1263              		@ frame_needed = 0, uses_anonymous_args = 0
 1264 0000 13B5     		push	{r0, r1, r4, lr}
 1265              		.cfi_def_cfa_offset 16
 1266              		.cfi_offset 0, -16
 1267              		.cfi_offset 1, -12
 1268              		.cfi_offset 4, -8
 1269              		.cfi_offset 14, -4
 758:main.c        **** 	uint8 tmp[3] = {0};
 1270              		.loc 1 758 0
 1271 0002 01AC     		add	r4, sp, #4
 1272 0004 0322     		movs	r2, #3
ARM GAS  C:\Users\Administrator\AppData\Local\Temp\ccNQfmEa.s 			page 37


 1273 0006 0021     		movs	r1, #0
 1274 0008 2000     		movs	r0, r4
 1275 000a FFF7FEFF 		bl	memset
 1276              	.LVL116:
 759:main.c        **** 	uint8 flag = 0;
 760:main.c        **** 	uint16 firmver;
 761:main.c        **** 	
 762:main.c        **** 	if ((gprs_state == NORMAL_COMM)&&(update_report == 0))
 1277              		.loc 1 762 0
 1278 000e 154B     		ldr	r3, .L131
 1279 0010 1B78     		ldrb	r3, [r3]
 1280 0012 052B     		cmp	r3, #5
 1281 0014 24D1     		bne	.L124
 1282              		.loc 1 762 0 is_stmt 0 discriminator 1
 1283 0016 144B     		ldr	r3, .L131+4
 1284 0018 1A78     		ldrb	r2, [r3]
 1285 001a 002A     		cmp	r2, #0
 1286 001c 20D1     		bne	.L124
 763:main.c        **** 	{
 764:main.c        **** 		DBG_SOFT_PutStr("\npolling update info:\n");
 765:main.c        **** 		update_report = 1;
 1287              		.loc 1 765 0 is_stmt 1
 1288 001e 0132     		adds	r2, r2, #1
 1289 0020 1A70     		strb	r2, [r3]
 766:main.c        **** 		W25QXX_Read((uint8 *)&tmp, UPDATE_SYSTEMVER, 3);
 1290              		.loc 1 766 0
 1291 0022 1249     		ldr	r1, .L131+8
 1292 0024 0232     		adds	r2, r2, #2
 1293 0026 2000     		movs	r0, r4
 1294 0028 FFF7FEFF 		bl	W25QXX_Read
 1295              	.LVL117:
 767:main.c        **** 		flag = tmp[2];
 768:main.c        **** 		DBG_SOFT_PrintfHex(tmp,3,16);
 769:main.c        **** 		if(flag == 1)
 1296              		.loc 1 769 0
 1297 002c A378     		ldrb	r3, [r4, #2]
 1298 002e 012B     		cmp	r3, #1
 1299 0030 16D1     		bne	.L124
 770:main.c        **** 		{
 771:main.c        **** 			firmver = (tmp[0] <<8) | tmp[1];
 1300              		.loc 1 771 0
 1301 0032 2378     		ldrb	r3, [r4]
 1302 0034 6278     		ldrb	r2, [r4, #1]
 1303 0036 1B02     		lsls	r3, r3, #8
 1304 0038 1343     		orrs	r3, r2
 1305              	.LVL118:
 1306 003a 0D4A     		ldr	r2, .L131+12
 772:main.c        **** 			if(firmver == SYSTEM_VERSION)
 1307              		.loc 1 772 0
 1308 003c 0D2B     		cmp	r3, #13
 1309 003e 01D1     		bne	.L128
 773:main.c        **** 			{
 774:main.c        **** 				//上报报警 升级ok信息
 775:main.c        **** 				EnterGuide_State = ALARM_UpdateOk;
 1310              		.loc 1 775 0
 1311 0040 043B     		subs	r3, r3, #4
 1312              	.LVL119:
ARM GAS  C:\Users\Administrator\AppData\Local\Temp\ccNQfmEa.s 			page 38


 1313 0042 02E0     		b	.L130
 1314              	.LVL120:
 1315              	.L128:
 776:main.c        **** 			}
 777:main.c        **** 			else if(firmver > SYSTEM_VERSION)
 1316              		.loc 1 777 0
 1317 0044 0D2B     		cmp	r3, #13
 1318 0046 01D9     		bls	.L129
 778:main.c        **** 			{
 779:main.c        **** 				//上报报警 升级ERR信息
 780:main.c        **** 				EnterGuide_State = ALARM_UpdateErr;
 1319              		.loc 1 780 0
 1320 0048 0A23     		movs	r3, #10
 1321              	.LVL121:
 1322              	.L130:
 1323 004a 1372     		strb	r3, [r2, #8]
 1324              	.L129:
 781:main.c        **** 			
 782:main.c        **** 			}
 783:main.c        **** 			send_alarm_info(EnterGuide_State);						// 升级是否成功报警					//	
 1325              		.loc 1 783 0
 1326 004c 107A     		ldrb	r0, [r2, #8]
 1327 004e FFF7FEFF 		bl	send_alarm_info
 1328              	.LVL122:
 784:main.c        **** 			
 785:main.c        **** 			flag =  0;
 786:main.c        **** 			firmver = SYSTEM_VERSION;
 787:main.c        **** 			Write_UpdateInfo(flag, firmver);						// 清空 还原升级信息				//
 1329              		.loc 1 787 0
 1330 0052 0D21     		movs	r1, #13
 1331 0054 0020     		movs	r0, #0
 1332 0056 FFF7FEFF 		bl	Write_UpdateInfo
 1333              	.LVL123:
 788:main.c        **** 			
 789:main.c        **** 			FireCheck_time = 0;										// 防止火警马上上报					//
 1334              		.loc 1 789 0
 1335 005a 0022     		movs	r2, #0
 1336 005c 054B     		ldr	r3, .L131+16
 1337 005e 1A60     		str	r2, [r3]
 1338              	.LVL124:
 1339              	.L124:
 790:main.c        **** 		}	
 791:main.c        ****  	}
 792:main.c        **** }
 1340              		.loc 1 792 0
 1341              		@ sp needed
 1342 0060 13BD     		pop	{r0, r1, r4, pc}
 1343              	.L132:
 1344 0062 C046     		.align	2
 1345              	.L131:
 1346 0064 00000000 		.word	gprs_state
 1347 0068 00000000 		.word	update_report
 1348 006c 03910100 		.word	102659
 1349 0070 00000000 		.word	.LANCHOR0
 1350 0074 00000000 		.word	FireCheck_time
 1351              		.cfi_endproc
 1352              	.LFE89:
ARM GAS  C:\Users\Administrator\AppData\Local\Temp\ccNQfmEa.s 			page 39


 1353              		.size	Updatealarm_check, .-Updatealarm_check
 1354              		.section	.text.BLE_Tick,"ax",%progbits
 1355              		.align	1
 1356              		.global	BLE_Tick
 1357              		.code	16
 1358              		.thumb_func
 1359              		.type	BLE_Tick, %function
 1360              	BLE_Tick:
 1361              	.LFB90:
 793:main.c        **** 
 794:main.c        **** //*************************************************************************************************
 795:main.c        **** // Function name	: BLE_Tick
 796:main.c        **** // Description		: 蓝牙的处理
 797:main.c        **** // Parameter		: none
 798:main.c        **** // Return			: none
 799:main.c        **** //-------------------------------------------------------------------------------------------------
 800:main.c        **** // Info				: 
 801:main.c        **** //*************************************************************************************************
 802:main.c        **** void BLE_Tick(void)
 803:main.c        **** {
 1362              		.loc 1 803 0
 1363              		.cfi_startproc
 1364              		@ args = 0, pretend = 0, frame = 0
 1365              		@ frame_needed = 0, uses_anonymous_args = 0
 1366 0000 10B5     		push	{r4, lr}
 1367              		.cfi_def_cfa_offset 8
 1368              		.cfi_offset 4, -8
 1369              		.cfi_offset 14, -4
 804:main.c        **** 	ble_heartbeat();
 1370              		.loc 1 804 0
 1371 0002 FFF7FEFF 		bl	ble_heartbeat
 1372              	.LVL125:
 805:main.c        **** 	if(CyBle_GetState() == CYBLE_STATE_CONNECTED)
 1373              		.loc 1 805 0
 1374 0006 064B     		ldr	r3, .L135
 1375 0008 1B78     		ldrb	r3, [r3]
 1376 000a 022B     		cmp	r3, #2
 1377 000c 07D1     		bne	.L133
 1378              	.LBB16:
 1379              	.LBB17:
 806:main.c        **** 	{
 807:main.c        **** 		if (BleCmdValidFlag == 1)
 1380              		.loc 1 807 0
 1381 000e 054C     		ldr	r4, .L135+4
 1382 0010 2378     		ldrb	r3, [r4]
 1383 0012 012B     		cmp	r3, #1
 1384 0014 03D1     		bne	.L133
 808:main.c        ****         {					
 809:main.c        **** 			Protocol_CmdParse();
 1385              		.loc 1 809 0
 1386 0016 FFF7FEFF 		bl	Protocol_CmdParse
 1387              	.LVL126:
 810:main.c        **** 			BleCmdValidFlag = 0;
 1388              		.loc 1 810 0
 1389 001a 0023     		movs	r3, #0
 1390 001c 2370     		strb	r3, [r4]
 1391              	.L133:
ARM GAS  C:\Users\Administrator\AppData\Local\Temp\ccNQfmEa.s 			page 40


 1392              	.LBE17:
 1393              	.LBE16:
 811:main.c        **** 			DBG_PRINTF("BLE handle cmd done.\n");
 812:main.c        **** 		}
 813:main.c        **** 	}
 814:main.c        **** }
 1394              		.loc 1 814 0
 1395              		@ sp needed
 1396 001e 10BD     		pop	{r4, pc}
 1397              	.L136:
 1398              		.align	2
 1399              	.L135:
 1400 0020 00000000 		.word	cyBle_state
 1401 0024 00000000 		.word	BleCmdValidFlag
 1402              		.cfi_endproc
 1403              	.LFE90:
 1404              		.size	BLE_Tick, .-BLE_Tick
 1405              		.section	.text.GPRS_Tick,"ax",%progbits
 1406              		.align	1
 1407              		.global	GPRS_Tick
 1408              		.code	16
 1409              		.thumb_func
 1410              		.type	GPRS_Tick, %function
 1411              	GPRS_Tick:
 1412              	.LFB91:
 815:main.c        **** 
 816:main.c        **** //*************************************************************************************************
 817:main.c        **** // Function name	: GPRS_Tick
 818:main.c        **** // Description		: GPRS的处理
 819:main.c        **** // Parameter		: none
 820:main.c        **** // Return			: none
 821:main.c        **** //-------------------------------------------------------------------------------------------------
 822:main.c        **** // Info				: 
 823:main.c        **** //*************************************************************************************************
 824:main.c        **** void GPRS_Tick(void)
 825:main.c        **** {
 1413              		.loc 1 825 0
 1414              		.cfi_startproc
 1415              		@ args = 0, pretend = 0, frame = 8
 1416              		@ frame_needed = 0, uses_anonymous_args = 0
 1417              	.LVL127:
 1418 0000 F7B5     		push	{r0, r1, r2, r4, r5, r6, r7, lr}
 1419              		.cfi_def_cfa_offset 32
 1420              		.cfi_offset 0, -32
 1421              		.cfi_offset 1, -28
 1422              		.cfi_offset 2, -24
 1423              		.cfi_offset 4, -20
 1424              		.cfi_offset 5, -16
 1425              		.cfi_offset 6, -12
 1426              		.cfi_offset 7, -8
 1427              		.cfi_offset 14, -4
 826:main.c        **** 	uint8 ret;
 827:main.c        **** 	uint32 count = 0;
 828:main.c        **** 	
 829:main.c        **** 	if ((GPRSCmdParseFlag1 == 1) || (GPRSCmdParseFlag2 == 1))		// 服务器发出的命令					//
 1428              		.loc 1 829 0
 1429 0002 B74B     		ldr	r3, .L174
ARM GAS  C:\Users\Administrator\AppData\Local\Temp\ccNQfmEa.s 			page 41


 1430 0004 1B78     		ldrb	r3, [r3]
 1431 0006 012B     		cmp	r3, #1
 1432 0008 03D0     		beq	.L138
 1433              		.loc 1 829 0 is_stmt 0 discriminator 1
 1434 000a B64B     		ldr	r3, .L174+4
 1435 000c 1B78     		ldrb	r3, [r3]
 1436 000e 012B     		cmp	r3, #1
 1437 0010 01D1     		bne	.L139
 1438              	.L138:
 830:main.c        **** 	{
 831:main.c        **** 		Protocol_CmdParse();
 1439              		.loc 1 831 0 is_stmt 1
 1440 0012 FFF7FEFF 		bl	Protocol_CmdParse
 1441              	.LVL128:
 1442              	.L139:
 832:main.c        **** 	}
 833:main.c        **** 	
 834:main.c        **** 	if (update_flag == 1)
 1443              		.loc 1 834 0
 1444 0016 B44B     		ldr	r3, .L174+8
 1445 0018 B44D     		ldr	r5, .L174+12
 1446 001a 1A78     		ldrb	r2, [r3]
 1447 001c 012A     		cmp	r2, #1
 1448 001e 03D1     		bne	.L140
 835:main.c        **** 	{
 836:main.c        **** 		update_flag = 0;
 1449              		.loc 1 836 0
 1450 0020 0022     		movs	r2, #0
 1451 0022 1A70     		strb	r2, [r3]
 837:main.c        **** 		gprs_state = NEED_UPDATE;									// 开始断开当前前置服务器连接		//
 1452              		.loc 1 837 0
 1453 0024 0723     		movs	r3, #7
 1454 0026 2B70     		strb	r3, [r5]
 1455              	.L140:
 838:main.c        **** 	}
 839:main.c        **** 	
 840:main.c        **** 	//--实时检测STATUS管脚状态，如果是关机状态 立即执行重启开机操作
 841:main.c        **** 	if (GPRS_STATE_Read() == 1)
 1456              		.loc 1 841 0
 1457 0028 FFF7FEFF 		bl	GPRS_STATE_Read
 1458              	.LVL129:
 1459 002c 0128     		cmp	r0, #1
 1460 002e 03D1     		bne	.L141
 842:main.c        **** 	{	
 843:main.c        ****         #if 0
 844:main.c        **** 		GPRS_PWRKEY_Write(1);
 845:main.c        **** 		while ((GPRS_STATE_Read() == 0) && (count <= 30))
 846:main.c        **** 		{
 847:main.c        **** 			delay_with_ble(100);
 848:main.c        **** 			count++;
 849:main.c        **** 		}
 850:main.c        **** 		GPRS_PWRKEY_Write(0);
 851:main.c        **** 		#endif
 852:main.c        **** 		flag_reboot = 1;
 1461              		.loc 1 852 0
 1462 0030 AF4B     		ldr	r3, .L174+16
 1463 0032 1870     		strb	r0, [r3]
ARM GAS  C:\Users\Administrator\AppData\Local\Temp\ccNQfmEa.s 			page 42


 853:main.c        ****         Reboot_Check();
 1464              		.loc 1 853 0
 1465 0034 FFF7FEFF 		bl	Reboot_Check
 1466              	.LVL130:
 1467              	.L141:
 854:main.c        **** 		
 855:main.c        **** 	}
 856:main.c        **** 	//-------------------------------------------------------------
 857:main.c        **** 	
 858:main.c        **** 	cur_time = (uint32)RTC_GetUnixTime();
 1468              		.loc 1 858 0
 1469 0038 FFF7FEFF 		bl	RTC_GetUnixTime
 1470              	.LVL131:
 1471 003c AD4E     		ldr	r6, .L174+20
 859:main.c        **** 	if (gprs_state == INIT)
 1472              		.loc 1 859 0
 1473 003e 2C78     		ldrb	r4, [r5]
 858:main.c        **** 	if (gprs_state == INIT)
 1474              		.loc 1 858 0
 1475 0040 3060     		str	r0, [r6]
 1476 0042 3700     		movs	r7, r6
 1477              		.loc 1 859 0
 1478 0044 002C     		cmp	r4, #0
 1479 0046 20D1     		bne	.L142
 860:main.c        **** 	{
 861:main.c        **** 		LED_State = RED;
 1480              		.loc 1 861 0
 1481 0048 0123     		movs	r3, #1
 1482 004a AB4A     		ldr	r2, .L174+24
 1483 004c 5372     		strb	r3, [r2, #9]
 1484              	.LVL132:
 1485              	.LBB38:
 1486              	.LBB39:
 401:main.c        **** 	}
 1487              		.loc 1 401 0
 1488 004e FFF7FEFF 		bl	Led_RedON
 1489              	.LVL133:
 1490              	.LBE39:
 1491              	.LBE38:
 862:main.c        **** 		Led_SetState(LED_State);
 863:main.c        **** 		if (cur_time > next_gprs_operation_time)
 1492              		.loc 1 863 0
 1493 0052 AA4F     		ldr	r7, .L174+28
 1494 0054 3268     		ldr	r2, [r6]
 1495 0056 3B68     		ldr	r3, [r7]
 1496 0058 9A42     		cmp	r2, r3
 1497 005a 00D8     		bhi	.LCB1221
 1498 005c 3EE1     		b	.L137	@long jump
 1499              	.LCB1221:
 864:main.c        **** 		{
 865:main.c        **** 			if (gprs_operation_ErrCount >= gprs_resetCount)						// 中心服务器3次连不上，则复位
 1500              		.loc 1 865 0
 1501 005e A64B     		ldr	r3, .L174+24
 1502 0060 9B7A     		ldrb	r3, [r3, #10]
 1503 0062 092B     		cmp	r3, #9
 1504 0064 01D9     		bls	.L145
 1505              	.L148:
ARM GAS  C:\Users\Administrator\AppData\Local\Temp\ccNQfmEa.s 			page 43


 866:main.c        **** 			{
 867:main.c        **** 				gprs_state = NEED_INIT;
 1506              		.loc 1 867 0
 1507 0066 0623     		movs	r3, #6
 1508 0068 4BE0     		b	.L170
 1509              	.L145:
 868:main.c        **** 			}
 869:main.c        **** 			else
 870:main.c        **** 			{
 871:main.c        **** 				next_gprs_operation_time = cur_time + 5;                        // 5s一次尝试连接服务
 1510              		.loc 1 871 0
 1511 006a 0532     		adds	r2, r2, #5
 1512 006c 3A60     		str	r2, [r7]
 872:main.c        **** 				gprs_operation_ErrCount++;
 1513              		.loc 1 872 0
 1514 006e A24A     		ldr	r2, .L174+24
 1515 0070 0133     		adds	r3, r3, #1
 1516 0072 9372     		strb	r3, [r2, #10]
 873:main.c        **** 				ret = GPRS_ConnectCenterServer();
 1517              		.loc 1 873 0
 1518 0074 FFF7FEFF 		bl	GPRS_ConnectCenterServer
 1519              	.LVL134:
 874:main.c        **** 				if (ret == TRUE)
 1520              		.loc 1 874 0
 1521 0078 0128     		cmp	r0, #1
 1522 007a 00D0     		beq	.LCB1241
 1523 007c 2EE1     		b	.L137	@long jump
 1524              	.LCB1241:
 875:main.c        **** 				{
 876:main.c        **** 					gprs_state = CEN_CONNECT;
 877:main.c        **** 					next_gprs_operation_time = cur_time;
 1525              		.loc 1 877 0
 1526 007e 3368     		ldr	r3, [r6]
 876:main.c        **** 					next_gprs_operation_time = cur_time;
 1527              		.loc 1 876 0
 1528 0080 2870     		strb	r0, [r5]
 1529              		.loc 1 877 0
 1530 0082 3B60     		str	r3, [r7]
 878:main.c        **** 					gprs_operation_ErrCount = 0;
 1531              		.loc 1 878 0
 1532 0084 9C4B     		ldr	r3, .L174+24
 1533 0086 9C72     		strb	r4, [r3, #10]
 1534 0088 28E1     		b	.L137
 1535              	.LVL135:
 1536              	.L142:
 879:main.c        **** 				}
 880:main.c        **** 			}
 881:main.c        **** 		}
 882:main.c        **** 	}
 883:main.c        **** 	else if (gprs_state == CEN_CONNECT)
 1537              		.loc 1 883 0
 1538 008a 012C     		cmp	r4, #1
 1539 008c 13D1     		bne	.L147
 884:main.c        **** 	{
 885:main.c        **** 		LED_State = RED;
 1540              		.loc 1 885 0
 1541 008e 9A4F     		ldr	r7, .L174+24
ARM GAS  C:\Users\Administrator\AppData\Local\Temp\ccNQfmEa.s 			page 44


 1542 0090 7C72     		strb	r4, [r7, #9]
 1543              	.LVL136:
 1544              	.LBB40:
 1545              	.LBB41:
 401:main.c        **** 	}
 1546              		.loc 1 401 0
 1547 0092 FFF7FEFF 		bl	Led_RedON
 1548              	.LVL137:
 1549              	.LBE41:
 1550              	.LBE40:
 886:main.c        **** 		Led_SetState(LED_State);
 887:main.c        **** 		if (cur_time > next_gprs_operation_time)
 1551              		.loc 1 887 0
 1552 0096 9949     		ldr	r1, .L174+28
 1553 0098 3268     		ldr	r2, [r6]
 1554 009a 0B68     		ldr	r3, [r1]
 1555 009c 9A42     		cmp	r2, r3
 1556 009e 00D8     		bhi	.LCB1270
 1557 00a0 1CE1     		b	.L137	@long jump
 1558              	.LCB1270:
 888:main.c        **** 		{
 889:main.c        **** 			if (gprs_operation_ErrCount > gprs_resetCount)
 1559              		.loc 1 889 0
 1560 00a2 BB7A     		ldrb	r3, [r7, #10]
 1561 00a4 0A2B     		cmp	r3, #10
 1562 00a6 DED8     		bhi	.L148
 890:main.c        **** 			{
 891:main.c        **** 				gprs_state = NEED_INIT;
 892:main.c        **** 			}
 893:main.c        **** 			else
 894:main.c        **** 			{
 895:main.c        **** 				next_gprs_operation_time = cur_time + 20;
 1563              		.loc 1 895 0
 1564 00a8 1432     		adds	r2, r2, #20
 896:main.c        **** 				gprs_operation_ErrCount++;
 1565              		.loc 1 896 0
 1566 00aa 0133     		adds	r3, r3, #1
 895:main.c        **** 				gprs_operation_ErrCount++;
 1567              		.loc 1 895 0
 1568 00ac 0A60     		str	r2, [r1]
 1569              		.loc 1 896 0
 1570 00ae BB72     		strb	r3, [r7, #10]
 897:main.c        **** 				send_get_pre_service_ip();
 1571              		.loc 1 897 0
 1572 00b0 FFF7FEFF 		bl	send_get_pre_service_ip
 1573              	.LVL138:
 1574 00b4 12E1     		b	.L137
 1575              	.L147:
 898:main.c        **** 			}
 899:main.c        **** 		}
 900:main.c        **** 	}
 901:main.c        **** 	else if (gprs_state == GET_PRE_IP)
 1576              		.loc 1 901 0
 1577 00b6 022C     		cmp	r4, #2
 1578 00b8 18D1     		bne	.L149
 902:main.c        **** 	{
 903:main.c        **** 		LED_State = RED;
ARM GAS  C:\Users\Administrator\AppData\Local\Temp\ccNQfmEa.s 			page 45


 1579              		.loc 1 903 0
 1580 00ba 0123     		movs	r3, #1
 1581 00bc 8E4C     		ldr	r4, .L174+24
 1582 00be 6372     		strb	r3, [r4, #9]
 1583              	.LVL139:
 1584              	.LBB42:
 1585              	.LBB43:
 401:main.c        **** 	}
 1586              		.loc 1 401 0
 1587 00c0 FFF7FEFF 		bl	Led_RedON
 1588              	.LVL140:
 1589              	.LBE43:
 1590              	.LBE42:
 904:main.c        **** 		Led_SetState(LED_State);
 905:main.c        **** 		if (cur_time > next_gprs_operation_time)
 1591              		.loc 1 905 0
 1592 00c4 8D4F     		ldr	r7, .L174+28
 1593 00c6 3268     		ldr	r2, [r6]
 1594 00c8 3B68     		ldr	r3, [r7]
 1595 00ca 9A42     		cmp	r2, r3
 1596 00cc 00D8     		bhi	.LCB1302
 1597 00ce 05E1     		b	.L137	@long jump
 1598              	.LCB1302:
 906:main.c        **** 		{
 907:main.c        **** 			if (gprs_operation_ErrCount > gprs_resetCount)
 1599              		.loc 1 907 0
 1600 00d0 A37A     		ldrb	r3, [r4, #10]
 1601 00d2 0A2B     		cmp	r3, #10
 1602 00d4 C7D8     		bhi	.L148
 908:main.c        **** 			{
 909:main.c        **** 				gprs_state = NEED_INIT;
 910:main.c        **** 			}
 911:main.c        **** 			else
 912:main.c        **** 			{
 913:main.c        **** 				next_gprs_operation_time = cur_time + 5;
 914:main.c        **** 				gprs_operation_ErrCount++;
 1603              		.loc 1 914 0
 1604 00d6 0133     		adds	r3, r3, #1
 913:main.c        **** 				gprs_operation_ErrCount++;
 1605              		.loc 1 913 0
 1606 00d8 0532     		adds	r2, r2, #5
 1607              		.loc 1 914 0
 1608 00da A372     		strb	r3, [r4, #10]
 913:main.c        **** 				gprs_operation_ErrCount++;
 1609              		.loc 1 913 0
 1610 00dc 3A60     		str	r2, [r7]
 915:main.c        **** 				ret =  GPRS_ClosedConnect();
 1611              		.loc 1 915 0
 1612 00de FFF7FEFF 		bl	GPRS_ClosedConnect
 1613              	.LVL141:
 916:main.c        **** 				if (ret == TRUE)
 917:main.c        **** 				{
 918:main.c        **** 					gprs_state = CEN_CLOSED;
 1614              		.loc 1 918 0
 1615 00e2 0323     		movs	r3, #3
 916:main.c        **** 				if (ret == TRUE)
 1616              		.loc 1 916 0
ARM GAS  C:\Users\Administrator\AppData\Local\Temp\ccNQfmEa.s 			page 46


 1617 00e4 0128     		cmp	r0, #1
 1618 00e6 00D0     		beq	.LCB1315
 1619 00e8 F8E0     		b	.L137	@long jump
 1620              	.LCB1315:
 1621 00ea 1CE0     		b	.L171
 1622              	.LVL142:
 1623              	.L149:
 919:main.c        **** 					next_gprs_operation_time = cur_time;
 920:main.c        **** 					gprs_operation_ErrCount = 0;
 921:main.c        **** 				}
 922:main.c        **** 			}
 923:main.c        **** 		}
 924:main.c        **** 	}
 925:main.c        **** 	else if (gprs_state == CEN_CLOSED)
 1624              		.loc 1 925 0
 1625 00ec 032C     		cmp	r4, #3
 1626 00ee 20D1     		bne	.L150
 926:main.c        **** 	{
 927:main.c        **** 		LED_State = RED;
 1627              		.loc 1 927 0
 1628 00f0 0123     		movs	r3, #1
 1629 00f2 814C     		ldr	r4, .L174+24
 1630 00f4 6372     		strb	r3, [r4, #9]
 1631              	.LVL143:
 1632              	.LBB44:
 1633              	.LBB45:
 401:main.c        **** 	}
 1634              		.loc 1 401 0
 1635 00f6 FFF7FEFF 		bl	Led_RedON
 1636              	.LVL144:
 1637              	.LBE45:
 1638              	.LBE44:
 928:main.c        **** 		Led_SetState(LED_State);
 929:main.c        **** 		if (gprs_operation_ErrCount > 3)
 1639              		.loc 1 929 0
 1640 00fa A37A     		ldrb	r3, [r4, #10]
 1641 00fc 032B     		cmp	r3, #3
 1642 00fe 02D9     		bls	.L151
 1643              	.L153:
 930:main.c        **** 		{
 931:main.c        **** 			gprs_state = INIT;
 1644              		.loc 1 931 0
 1645 0100 0023     		movs	r3, #0
 1646              	.L170:
 1647 0102 2B70     		strb	r3, [r5]
 1648 0104 EAE0     		b	.L137
 1649              	.L151:
 932:main.c        **** 		}
 933:main.c        **** 		else if (cur_time > next_gprs_operation_time)
 1650              		.loc 1 933 0
 1651 0106 7D4F     		ldr	r7, .L174+28
 1652 0108 3268     		ldr	r2, [r6]
 1653 010a 3968     		ldr	r1, [r7]
 1654 010c 8A42     		cmp	r2, r1
 1655 010e 00D8     		bhi	.LCB1351
 1656 0110 E4E0     		b	.L137	@long jump
 1657              	.LCB1351:
ARM GAS  C:\Users\Administrator\AppData\Local\Temp\ccNQfmEa.s 			page 47


 934:main.c        **** 		{
 935:main.c        **** 			next_gprs_operation_time = cur_time + 5;
 1658              		.loc 1 935 0
 1659 0112 0532     		adds	r2, r2, #5
 936:main.c        **** 			gprs_operation_ErrCount++;
 1660              		.loc 1 936 0
 1661 0114 0133     		adds	r3, r3, #1
 935:main.c        **** 			gprs_operation_ErrCount++;
 1662              		.loc 1 935 0
 1663 0116 3A60     		str	r2, [r7]
 1664              		.loc 1 936 0
 1665 0118 A372     		strb	r3, [r4, #10]
 937:main.c        **** 			ret = GPRS_ConnectPreServer();
 1666              		.loc 1 937 0
 1667 011a FFF7FEFF 		bl	GPRS_ConnectPreServer
 1668              	.LVL145:
 938:main.c        **** 			if (ret == TRUE)
 1669              		.loc 1 938 0
 1670 011e 0128     		cmp	r0, #1
 1671 0120 00D0     		beq	.LCB1360
 1672 0122 DBE0     		b	.L137	@long jump
 1673              	.LCB1360:
 939:main.c        **** 			{
 940:main.c        **** 				gprs_state = PRE_CONNECT;
 1674              		.loc 1 940 0
 1675 0124 0423     		movs	r3, #4
 1676              	.L171:
 1677 0126 2B70     		strb	r3, [r5]
 941:main.c        **** 				next_gprs_operation_time = cur_time;
 1678              		.loc 1 941 0
 1679 0128 3368     		ldr	r3, [r6]
 1680 012a 3B60     		str	r3, [r7]
 1681              	.L172:
 942:main.c        **** 				gprs_operation_ErrCount = 0;
 1682              		.loc 1 942 0
 1683 012c 0023     		movs	r3, #0
 1684 012e A372     		strb	r3, [r4, #10]
 1685 0130 D4E0     		b	.L137
 1686              	.LVL146:
 1687              	.L150:
 943:main.c        **** 			}
 944:main.c        **** 		}
 945:main.c        **** 	}
 946:main.c        **** 	else if (gprs_state == PRE_CONNECT)
 1688              		.loc 1 946 0
 1689 0132 042C     		cmp	r4, #4
 1690 0134 14D1     		bne	.L152
 947:main.c        **** 	{
 948:main.c        **** 		LED_State = RED;
 1691              		.loc 1 948 0
 1692 0136 0123     		movs	r3, #1
 1693 0138 6F4C     		ldr	r4, .L174+24
 1694 013a 6372     		strb	r3, [r4, #9]
 1695              	.LVL147:
 1696              	.LBB46:
 1697              	.LBB47:
 401:main.c        **** 	}
ARM GAS  C:\Users\Administrator\AppData\Local\Temp\ccNQfmEa.s 			page 48


 1698              		.loc 1 401 0
 1699 013c FFF7FEFF 		bl	Led_RedON
 1700              	.LVL148:
 1701              	.LBE47:
 1702              	.LBE46:
 949:main.c        **** 		Led_SetState(LED_State);
 950:main.c        **** 		if (gprs_operation_ErrCount > 3)
 1703              		.loc 1 950 0
 1704 0140 A37A     		ldrb	r3, [r4, #10]
 1705 0142 032B     		cmp	r3, #3
 1706 0144 DCD8     		bhi	.L153
 951:main.c        **** 		{
 952:main.c        **** 			gprs_state = INIT;
 953:main.c        **** 		}
 954:main.c        **** 		else if (cur_time > next_gprs_operation_time)
 1707              		.loc 1 954 0
 1708 0146 6D49     		ldr	r1, .L174+28
 1709 0148 3268     		ldr	r2, [r6]
 1710 014a 0868     		ldr	r0, [r1]
 1711 014c 8242     		cmp	r2, r0
 1712 014e 00D8     		bhi	.LCB1400
 1713 0150 C4E0     		b	.L137	@long jump
 1714              	.LCB1400:
 955:main.c        **** 		{
 956:main.c        **** 			next_gprs_operation_time = cur_time + 20;
 1715              		.loc 1 956 0
 1716 0152 1432     		adds	r2, r2, #20
 957:main.c        **** 			gprs_operation_ErrCount++;
 1717              		.loc 1 957 0
 1718 0154 0133     		adds	r3, r3, #1
 956:main.c        **** 			gprs_operation_ErrCount++;
 1719              		.loc 1 956 0
 1720 0156 0A60     		str	r2, [r1]
 1721              		.loc 1 957 0
 1722 0158 A372     		strb	r3, [r4, #10]
 958:main.c        ****             send_send_mac_and_get_blekey();
 1723              		.loc 1 958 0
 1724 015a FFF7FEFF 		bl	send_send_mac_and_get_blekey
 1725              	.LVL149:
 1726 015e BDE0     		b	.L137
 1727              	.L152:
 959:main.c        ****             #if 0
 960:main.c        **** 			if (SendMacFlag == 0)
 961:main.c        **** 			{
 962:main.c        **** 				send_send_mac_and_get_blekey();
 963:main.c        **** 			}
 964:main.c        **** 			else
 965:main.c        **** 			{
 966:main.c        **** 				gprs_state = NORMAL_COMM;
 967:main.c        **** 			}
 968:main.c        ****             #endif
 969:main.c        **** 		}
 970:main.c        **** 	}
 971:main.c        ****     #if 0
 972:main.c        **** 	else if (gprs_state == NORMAL_COMM)
 973:main.c        **** 	{
 974:main.c        **** 		LED_State = GREEN;
ARM GAS  C:\Users\Administrator\AppData\Local\Temp\ccNQfmEa.s 			page 49


 975:main.c        **** 		Led_SetState(LED_State);
 976:main.c        **** 		if (cur_time > next_heartbeat_time)
 977:main.c        **** 		{
 978:main.c        **** 			EnterGuide_State = DoorClosed;
 979:main.c        **** 			send_heartbeat(EnterGuide_State);
 980:main.c        **** 			heartbeat_SendCount++;
 981:main.c        **** 			if (heartbeat_SendCount > 1)
 982:main.c        **** 			{
 983:main.c        **** 				gprs_state = NEED_INIT;
 984:main.c        **** 			}
 985:main.c        **** 			else
 986:main.c        **** 			{
 987:main.c        **** 				cur_time = (uint32)RTC_GetUnixTime();
 988:main.c        **** 				next_heartbeat_time = cur_time + 300;
 989:main.c        **** 			}
 990:main.c        **** 		}
 991:main.c        **** 		GPRS_CheckIfRecvClosed();									// 检查网络是否断开，并设置相关状态	//
 992:main.c        **** 	}
 993:main.c        ****     #endif
 994:main.c        ****     #if 1
 995:main.c        ****     else if (gprs_state == NORMAL_COMM)
 1728              		.loc 1 995 0
 1729 0160 052C     		cmp	r4, #5
 1730 0162 3BD1     		bne	.L154
 996:main.c        **** 	{
 997:main.c        **** 		LED_State = GREEN;
 1731              		.loc 1 997 0
 1732 0164 0223     		movs	r3, #2
 1733 0166 644C     		ldr	r4, .L174+24
 1734 0168 6372     		strb	r3, [r4, #9]
 1735              	.LVL150:
 1736              	.LBB48:
 1737              	.LBB49:
 405:main.c        **** 	}
 1738              		.loc 1 405 0
 1739 016a FFF7FEFF 		bl	Led_GreenON
 1740              	.LVL151:
 1741              	.LBE49:
 1742              	.LBE48:
 998:main.c        **** 		Led_SetState(LED_State);
 999:main.c        ****         
1000:main.c        ****         if (cur_time > heartbeat_lasttime + 60)                 // 超过一分钟 检测一次回
 1743              		.loc 1 1000 0
 1744 016e 644A     		ldr	r2, .L174+32
 1745 0170 1368     		ldr	r3, [r2]
 1746 0172 0192     		str	r2, [sp, #4]
 1747 0174 3268     		ldr	r2, [r6]
 1748 0176 3C33     		adds	r3, r3, #60
 1749 0178 9342     		cmp	r3, r2
 1750 017a 2CD2     		bcs	.L156
1001:main.c        ****         {
1002:main.c        ****             if (heartbeat_SendCount > 0)                        // 没有回复
 1751              		.loc 1 1002 0
 1752 017c E37A     		ldrb	r3, [r4, #11]
 1753 017e 614E     		ldr	r6, .L174+36
 1754 0180 002B     		cmp	r3, #0
 1755 0182 14D0     		beq	.L158
ARM GAS  C:\Users\Administrator\AppData\Local\Temp\ccNQfmEa.s 			page 50


1003:main.c        ****             {
1004:main.c        ****                 //EnterGuide_State = DoorClosed;
1005:main.c        **** 				EnterGuide_State = GetDoorState();
 1756              		.loc 1 1005 0
 1757 0184 FFF7FEFF 		bl	GetDoorState
 1758              	.LVL152:
 1759 0188 2072     		strb	r0, [r4, #8]
1006:main.c        ****                 send_heartbeat(EnterGuide_State);
 1760              		.loc 1 1006 0
 1761 018a FFF7FEFF 		bl	send_heartbeat
 1762              	.LVL153:
1007:main.c        ****                 heartbeat_SendCount++;
 1763              		.loc 1 1007 0
 1764 018e E37A     		ldrb	r3, [r4, #11]
 1765 0190 0133     		adds	r3, r3, #1
 1766 0192 E372     		strb	r3, [r4, #11]
1008:main.c        ****                 cur_time = (uint32)RTC_GetUnixTime();
 1767              		.loc 1 1008 0
 1768 0194 FFF7FEFF 		bl	RTC_GetUnixTime
 1769              	.LVL154:
1009:main.c        ****                 heartbeat_lasttime = cur_time;
 1770              		.loc 1 1009 0
 1771 0198 019B     		ldr	r3, [sp, #4]
1008:main.c        ****                 cur_time = (uint32)RTC_GetUnixTime();
 1772              		.loc 1 1008 0
 1773 019a 3860     		str	r0, [r7]
 1774              		.loc 1 1009 0
 1775 019c 1860     		str	r0, [r3]
1010:main.c        ****                 next_heartbeat_time = cur_time + 300;
 1776              		.loc 1 1010 0
 1777 019e 2D30     		adds	r0, r0, #45
1011:main.c        ****                 if (heartbeat_SendCount > 3)
 1778              		.loc 1 1011 0
 1779 01a0 E37A     		ldrb	r3, [r4, #11]
1010:main.c        ****                 next_heartbeat_time = cur_time + 300;
 1780              		.loc 1 1010 0
 1781 01a2 FF30     		adds	r0, r0, #255
 1782 01a4 3060     		str	r0, [r6]
 1783              		.loc 1 1011 0
 1784 01a6 032B     		cmp	r3, #3
 1785 01a8 01D9     		bls	.L158
1012:main.c        ****     			{
1013:main.c        ****     				gprs_state = NEED_INIT;
 1786              		.loc 1 1013 0
 1787 01aa 0623     		movs	r3, #6
 1788 01ac 2B70     		strb	r3, [r5]
 1789              	.L158:
1014:main.c        ****     			}
1015:main.c        ****             }
1016:main.c        ****                   
1017:main.c        ****     		if (cur_time > next_heartbeat_time)
 1790              		.loc 1 1017 0
 1791 01ae 3B68     		ldr	r3, [r7]
 1792 01b0 3268     		ldr	r2, [r6]
 1793 01b2 9342     		cmp	r3, r2
 1794 01b4 0FD9     		bls	.L156
1018:main.c        ****     		{
ARM GAS  C:\Users\Administrator\AppData\Local\Temp\ccNQfmEa.s 			page 51


1019:main.c        ****     			//EnterGuide_State = DoorClosed;
1020:main.c        **** 				EnterGuide_State = GetDoorState();
 1795              		.loc 1 1020 0
 1796 01b6 FFF7FEFF 		bl	GetDoorState
 1797              	.LVL155:
 1798 01ba 2072     		strb	r0, [r4, #8]
1021:main.c        ****                 send_heartbeat(EnterGuide_State);
 1799              		.loc 1 1021 0
 1800 01bc FFF7FEFF 		bl	send_heartbeat
 1801              	.LVL156:
1022:main.c        ****     			heartbeat_SendCount++;
 1802              		.loc 1 1022 0
 1803 01c0 E37A     		ldrb	r3, [r4, #11]
 1804 01c2 0133     		adds	r3, r3, #1
 1805 01c4 E372     		strb	r3, [r4, #11]
1023:main.c        ****     			cur_time = (uint32)RTC_GetUnixTime();
 1806              		.loc 1 1023 0
 1807 01c6 FFF7FEFF 		bl	RTC_GetUnixTime
 1808              	.LVL157:
1024:main.c        ****                 heartbeat_lasttime = cur_time;
 1809              		.loc 1 1024 0
 1810 01ca 019B     		ldr	r3, [sp, #4]
1023:main.c        ****     			cur_time = (uint32)RTC_GetUnixTime();
 1811              		.loc 1 1023 0
 1812 01cc 3860     		str	r0, [r7]
 1813              		.loc 1 1024 0
 1814 01ce 1860     		str	r0, [r3]
1025:main.c        ****     			next_heartbeat_time = cur_time + 300;
 1815              		.loc 1 1025 0
 1816 01d0 2D30     		adds	r0, r0, #45
 1817 01d2 FF30     		adds	r0, r0, #255
 1818 01d4 3060     		str	r0, [r6]
 1819              	.L156:
1026:main.c        ****     		}
1027:main.c        ****             
1028:main.c        ****         }
1029:main.c        **** 		GPRS_CheckIfRecvClosed();									// 检查网络是否断开，并设置相关状态	//
 1820              		.loc 1 1029 0
 1821 01d6 FFF7FEFF 		bl	GPRS_CheckIfRecvClosed
 1822              	.LVL158:
 1823 01da 7FE0     		b	.L137
 1824              	.L154:
1030:main.c        **** 	}
1031:main.c        ****     #endif
1032:main.c        ****     
1033:main.c        **** 	else if (gprs_state == NEED_INIT)
 1825              		.loc 1 1033 0
 1826 01dc 062C     		cmp	r4, #6
 1827 01de 0FD1     		bne	.L161
1034:main.c        **** 	{
1035:main.c        **** 		LED_State = RED;
 1828              		.loc 1 1035 0
 1829 01e0 454B     		ldr	r3, .L174+24
 1830 01e2 053C     		subs	r4, r4, #5
 1831 01e4 5C72     		strb	r4, [r3, #9]
 1832              	.LVL159:
 1833              	.LBB50:
ARM GAS  C:\Users\Administrator\AppData\Local\Temp\ccNQfmEa.s 			page 52


 1834              	.LBB51:
 401:main.c        **** 	}
 1835              		.loc 1 401 0
 1836 01e6 FFF7FEFF 		bl	Led_RedON
 1837              	.LVL160:
 1838              	.LBE51:
 1839              	.LBE50:
1036:main.c        **** 		Led_SetState(LED_State);
1037:main.c        **** 		GPRS_ClosedConnect();										// 重启各设备之前 关闭连接 释放资源
 1840              		.loc 1 1037 0
 1841 01ea FFF7FEFF 		bl	GPRS_ClosedConnect
 1842              	.LVL161:
1038:main.c        ****         GPRSPowerDown();										    // 开 关机操作
 1843              		.loc 1 1038 0
 1844 01ee FFF7FEFF 		bl	GPRSPowerDown
 1845              	.LVL162:
1039:main.c        ****        
1040:main.c        ****         #if 0
1041:main.c        ****         reboot_count = Read_RebootType();
1042:main.c        ****         if ((reboot_count == 0xFF) || (reboot_count == 0x00))
1043:main.c        ****         {
1044:main.c        ****             GPRS_ClosedConnect();
1045:main.c        ****             ResetGPRS();
1046:main.c        ****             reboot_count = 1;
1047:main.c        ****         }
1048:main.c        ****         else if (reboot_count == 2)
1049:main.c        ****         {
1050:main.c        ****             GPRSPowerDown();										// 开 关机操作
1051:main.c        ****             reboot_count = 0;
1052:main.c        ****         }
1053:main.c        ****         else
1054:main.c        ****         {
1055:main.c        ****             
1056:main.c        ****             ResetGPRS();
1057:main.c        ****             reboot_count = 2;
1058:main.c        ****         }
1059:main.c        ****         Write_RebootType(reboot_count);
1060:main.c        ****         #endif
1061:main.c        ****         gprs_state = INIT;
 1846              		.loc 1 1061 0
 1847 01f2 0023     		movs	r3, #0
 1848 01f4 2B70     		strb	r3, [r5]
1062:main.c        ****         flag_reboot = 1;
 1849              		.loc 1 1062 0
 1850 01f6 3E4B     		ldr	r3, .L174+16
 1851 01f8 1C70     		strb	r4, [r3]
1063:main.c        ****         Reboot_Check();
 1852              		.loc 1 1063 0
 1853 01fa FFF7FEFF 		bl	Reboot_Check
 1854              	.LVL163:
 1855 01fe 6DE0     		b	.L137
 1856              	.L161:
1064:main.c        **** 	}
1065:main.c        ****     
1066:main.c        **** 	else if (gprs_state == NEED_UPDATE)
 1857              		.loc 1 1066 0
 1858 0200 072C     		cmp	r4, #7
ARM GAS  C:\Users\Administrator\AppData\Local\Temp\ccNQfmEa.s 			page 53


 1859 0202 17D1     		bne	.L162
1067:main.c        **** 	{
1068:main.c        **** 		LED_State = RED;
 1860              		.loc 1 1068 0
 1861 0204 0123     		movs	r3, #1
 1862 0206 3C4C     		ldr	r4, .L174+24
 1863 0208 6372     		strb	r3, [r4, #9]
 1864              	.LVL164:
 1865              	.LBB52:
 1866              	.LBB53:
 401:main.c        **** 	}
 1867              		.loc 1 401 0
 1868 020a FFF7FEFF 		bl	Led_RedON
 1869              	.LVL165:
 1870              	.LBE53:
 1871              	.LBE52:
1069:main.c        **** 		Led_SetState(LED_State);
1070:main.c        **** 		if (cur_time > next_gprs_operation_time)
 1872              		.loc 1 1070 0
 1873 020e 3268     		ldr	r2, [r6]
 1874 0210 3A4E     		ldr	r6, .L174+28
 1875 0212 3368     		ldr	r3, [r6]
 1876 0214 9A42     		cmp	r2, r3
 1877 0216 61D9     		bls	.L137
1071:main.c        **** 		{
1072:main.c        **** 			if (gprs_operation_ErrCount > gprs_resetCount)
 1878              		.loc 1 1072 0
 1879 0218 A37A     		ldrb	r3, [r4, #10]
 1880 021a 0A2B     		cmp	r3, #10
 1881 021c 00D9     		bls	.LCB1536
 1882 021e 22E7     		b	.L148	@long jump
 1883              	.LCB1536:
1073:main.c        **** 			{
1074:main.c        **** 				gprs_state = NEED_INIT;
1075:main.c        **** 			}
1076:main.c        **** 			else
1077:main.c        **** 			{
1078:main.c        **** 				next_gprs_operation_time = cur_time + 5;
1079:main.c        **** 				gprs_operation_ErrCount++;
 1884              		.loc 1 1079 0
 1885 0220 0133     		adds	r3, r3, #1
1078:main.c        **** 				gprs_operation_ErrCount++;
 1886              		.loc 1 1078 0
 1887 0222 0532     		adds	r2, r2, #5
 1888              		.loc 1 1079 0
 1889 0224 A372     		strb	r3, [r4, #10]
1078:main.c        **** 				gprs_operation_ErrCount++;
 1890              		.loc 1 1078 0
 1891 0226 3260     		str	r2, [r6]
1080:main.c        **** 				ret =  GPRS_ClosedConnect();
 1892              		.loc 1 1080 0
 1893 0228 FFF7FEFF 		bl	GPRS_ClosedConnect
 1894              	.LVL166:
1081:main.c        **** 				if (ret == TRUE)
1082:main.c        **** 				{
1083:main.c        **** 					gprs_state = PRE_CLOSED;
 1895              		.loc 1 1083 0
ARM GAS  C:\Users\Administrator\AppData\Local\Temp\ccNQfmEa.s 			page 54


 1896 022c 0823     		movs	r3, #8
1081:main.c        **** 				if (ret == TRUE)
 1897              		.loc 1 1081 0
 1898 022e 0128     		cmp	r0, #1
 1899 0230 54D1     		bne	.L137
 1900 0232 18E0     		b	.L173
 1901              	.LVL167:
 1902              	.L162:
1084:main.c        **** 					next_gprs_operation_time = cur_time;
1085:main.c        **** 					gprs_operation_ErrCount = 0;
1086:main.c        **** 				}
1087:main.c        **** 			}
1088:main.c        **** 		}
1089:main.c        **** 	}
1090:main.c        **** 	else if (gprs_state == PRE_CLOSED)
 1903              		.loc 1 1090 0
 1904 0234 082C     		cmp	r4, #8
 1905 0236 1AD1     		bne	.L163
1091:main.c        **** 	{
1092:main.c        **** 		LED_State = RED;
 1906              		.loc 1 1092 0
 1907 0238 0123     		movs	r3, #1
 1908 023a 2F4C     		ldr	r4, .L174+24
 1909 023c 6372     		strb	r3, [r4, #9]
 1910              	.LVL168:
 1911              	.LBB54:
 1912              	.LBB55:
 401:main.c        **** 	}
 1913              		.loc 1 401 0
 1914 023e FFF7FEFF 		bl	Led_RedON
 1915              	.LVL169:
 1916              	.LBE55:
 1917              	.LBE54:
1093:main.c        **** 		Led_SetState(LED_State);
1094:main.c        **** 		if (gprs_operation_ErrCount > 3)
 1918              		.loc 1 1094 0
 1919 0242 A37A     		ldrb	r3, [r4, #10]
 1920 0244 032B     		cmp	r3, #3
 1921 0246 00D9     		bls	.LCB1567
 1922 0248 5AE7     		b	.L153	@long jump
 1923              	.LCB1567:
1095:main.c        **** 		{
1096:main.c        **** 			gprs_state = INIT;
1097:main.c        **** 		}
1098:main.c        **** 		else if (cur_time > next_gprs_operation_time)
 1924              		.loc 1 1098 0
 1925 024a 3268     		ldr	r2, [r6]
 1926 024c 2B4E     		ldr	r6, .L174+28
 1927 024e 3168     		ldr	r1, [r6]
 1928 0250 8A42     		cmp	r2, r1
 1929 0252 43D9     		bls	.L137
1099:main.c        **** 		{
1100:main.c        **** 			next_gprs_operation_time = cur_time + 10;
 1930              		.loc 1 1100 0
 1931 0254 0A32     		adds	r2, r2, #10
1101:main.c        **** 			gprs_operation_ErrCount++;
 1932              		.loc 1 1101 0
ARM GAS  C:\Users\Administrator\AppData\Local\Temp\ccNQfmEa.s 			page 55


 1933 0256 0133     		adds	r3, r3, #1
1100:main.c        **** 			gprs_operation_ErrCount++;
 1934              		.loc 1 1100 0
 1935 0258 3260     		str	r2, [r6]
 1936              		.loc 1 1101 0
 1937 025a A372     		strb	r3, [r4, #10]
1102:main.c        **** 			ret = GPRS_ConnectUpdateServer();
 1938              		.loc 1 1102 0
 1939 025c FFF7FEFF 		bl	GPRS_ConnectUpdateServer
 1940              	.LVL170:
1103:main.c        **** 			if (ret == TRUE)
 1941              		.loc 1 1103 0
 1942 0260 0128     		cmp	r0, #1
 1943 0262 3BD1     		bne	.L137
1104:main.c        **** 			{
1105:main.c        **** 				gprs_state = UPDATE_CONNECT;
 1944              		.loc 1 1105 0
 1945 0264 0923     		movs	r3, #9
 1946              	.L173:
 1947 0266 2B70     		strb	r3, [r5]
1106:main.c        **** 				next_gprs_operation_time = cur_time;
 1948              		.loc 1 1106 0
 1949 0268 3B68     		ldr	r3, [r7]
 1950 026a 3360     		str	r3, [r6]
 1951 026c 5EE7     		b	.L172
 1952              	.LVL171:
 1953              	.L163:
1107:main.c        **** 				gprs_operation_ErrCount = 0;
1108:main.c        **** 			}
1109:main.c        **** 		}
1110:main.c        **** 	}
1111:main.c        **** 	else if (gprs_state == UPDATE_CONNECT)
 1954              		.loc 1 1111 0
 1955 026e 092C     		cmp	r4, #9
 1956 0270 11D1     		bne	.L164
1112:main.c        **** 	{
1113:main.c        **** 		LED_State = BLUE;
 1957              		.loc 1 1113 0
 1958 0272 0323     		movs	r3, #3
 1959 0274 204C     		ldr	r4, .L174+24
 1960 0276 6372     		strb	r3, [r4, #9]
 1961              	.LVL172:
 1962              	.LBB56:
 1963              	.LBB57:
 409:main.c        **** 	}
 1964              		.loc 1 409 0
 1965 0278 FFF7FEFF 		bl	Led_BlueON
 1966              	.LVL173:
 1967              	.LBE57:
 1968              	.LBE56:
1114:main.c        **** 		Led_SetState(LED_State);
1115:main.c        **** 		Cmd_Protocol_ParaInit();
 1969              		.loc 1 1115 0
 1970 027c FFF7FEFF 		bl	Cmd_Protocol_ParaInit
 1971              	.LVL174:
1116:main.c        **** 		update_page = 1;
 1972              		.loc 1 1116 0
ARM GAS  C:\Users\Administrator\AppData\Local\Temp\ccNQfmEa.s 			page 56


 1973 0280 0120     		movs	r0, #1
 1974 0282 214B     		ldr	r3, .L174+40
 1975 0284 1880     		strh	r0, [r3]
1117:main.c        **** 		send_update_req(update_page);
 1976              		.loc 1 1117 0
 1977 0286 FFF7FEFF 		bl	send_update_req
 1978              	.LVL175:
1118:main.c        **** 		update_timeout_time = 20000;
 1979              		.loc 1 1118 0
 1980 028a 204B     		ldr	r3, .L174+44
 1981 028c 6360     		str	r3, [r4, #4]
1119:main.c        **** 		update_timeout_count = 0;
 1982              		.loc 1 1119 0
 1983 028e 0023     		movs	r3, #0
 1984 0290 2373     		strb	r3, [r4, #12]
1120:main.c        **** 		gprs_state = WAIT_UPDATE;
 1985              		.loc 1 1120 0
 1986 0292 0A33     		adds	r3, r3, #10
 1987 0294 35E7     		b	.L170
 1988              	.L164:
1121:main.c        **** 	}
1122:main.c        **** 	else if (gprs_state == WAIT_UPDATE)
 1989              		.loc 1 1122 0
 1990 0296 0A2C     		cmp	r4, #10
 1991 0298 17D1     		bne	.L165
1123:main.c        **** 	{
1124:main.c        **** 		if (update_timeout_time == 0)
 1992              		.loc 1 1124 0
 1993 029a 174C     		ldr	r4, .L174+24
 1994 029c 6668     		ldr	r6, [r4, #4]
 1995 029e 002E     		cmp	r6, #0
 1996 02a0 1CD1     		bne	.L137
1125:main.c        **** 		{
1126:main.c        **** 			update_timeout_count++;
 1997              		.loc 1 1126 0
 1998 02a2 237B     		ldrb	r3, [r4, #12]
 1999 02a4 0133     		adds	r3, r3, #1
 2000 02a6 DBB2     		uxtb	r3, r3
 2001 02a8 2373     		strb	r3, [r4, #12]
1127:main.c        **** 			if (update_timeout_count >= gprs_resetCount)
 2002              		.loc 1 1127 0
 2003 02aa 092B     		cmp	r3, #9
 2004 02ac 04D9     		bls	.L166
1128:main.c        **** 			{
1129:main.c        **** 				update_timeout_count = 0;
 2005              		.loc 1 1129 0
 2006 02ae 2673     		strb	r6, [r4, #12]
1130:main.c        **** 				GPRS_ClosedConnect();							// 下载升级包超时 关闭连接退出升级
 2007              		.loc 1 1130 0
 2008 02b0 FFF7FEFF 		bl	GPRS_ClosedConnect
 2009              	.LVL176:
1131:main.c        **** 				gprs_state = INIT;
 2010              		.loc 1 1131 0
 2011 02b4 2E70     		strb	r6, [r5]
 2012 02b6 11E0     		b	.L137
 2013              	.L166:
1132:main.c        **** 			}
ARM GAS  C:\Users\Administrator\AppData\Local\Temp\ccNQfmEa.s 			page 57


1133:main.c        **** 			else
1134:main.c        **** 			{
1135:main.c        **** 				Cmd_Protocol_ParaInit();
 2014              		.loc 1 1135 0
 2015 02b8 FFF7FEFF 		bl	Cmd_Protocol_ParaInit
 2016              	.LVL177:
1136:main.c        **** 				send_update_req(update_page);
 2017              		.loc 1 1136 0
 2018 02bc 124B     		ldr	r3, .L174+40
 2019 02be 1888     		ldrh	r0, [r3]
 2020 02c0 FFF7FEFF 		bl	send_update_req
 2021              	.LVL178:
1137:main.c        **** 				update_timeout_time = 10000;
 2022              		.loc 1 1137 0
 2023 02c4 124B     		ldr	r3, .L174+48
 2024 02c6 6360     		str	r3, [r4, #4]
 2025 02c8 08E0     		b	.L137
 2026              	.L165:
1138:main.c        **** 			}
1139:main.c        **** 		}
1140:main.c        **** 	}
1141:main.c        **** 	else if (gprs_state == UPDATE_FINISH)
 2027              		.loc 1 1141 0
 2028 02ca 0B2C     		cmp	r4, #11
 2029 02cc 06D1     		bne	.L137
1142:main.c        **** 	{
1143:main.c        **** 		GPRS_ClosedConnect();									// 下载升级包超完成 关闭连接 释放资源
 2030              		.loc 1 1143 0
 2031 02ce FFF7FEFF 		bl	GPRS_ClosedConnect
 2032              	.LVL179:
1144:main.c        **** 		stop_reboot = 0x01;
 2033              		.loc 1 1144 0
 2034 02d2 0122     		movs	r2, #1
 2035 02d4 0F4B     		ldr	r3, .L174+52
 2036 02d6 1A70     		strb	r2, [r3]
1145:main.c        **** 		Bootloadable_Load();
 2037              		.loc 1 1145 0
 2038 02d8 FFF7FEFF 		bl	Bootloadable_Load
 2039              	.LVL180:
 2040              	.L137:
1146:main.c        **** 	}
1147:main.c        **** }
 2041              		.loc 1 1147 0
 2042              		@ sp needed
 2043 02dc F7BD     		pop	{r0, r1, r2, r4, r5, r6, r7, pc}
 2044              	.L175:
 2045 02de C046     		.align	2
 2046              	.L174:
 2047 02e0 00000000 		.word	GPRSCmdParseFlag1
 2048 02e4 00000000 		.word	GPRSCmdParseFlag2
 2049 02e8 00000000 		.word	update_flag
 2050 02ec 00000000 		.word	gprs_state
 2051 02f0 00000000 		.word	flag_reboot
 2052 02f4 00000000 		.word	cur_time
 2053 02f8 00000000 		.word	.LANCHOR0
 2054 02fc 00000000 		.word	next_gprs_operation_time
 2055 0300 00000000 		.word	heartbeat_lasttime
ARM GAS  C:\Users\Administrator\AppData\Local\Temp\ccNQfmEa.s 			page 58


 2056 0304 00000000 		.word	next_heartbeat_time
 2057 0308 00000000 		.word	update_page
 2058 030c 204E0000 		.word	20000
 2059 0310 10270000 		.word	10000
 2060 0314 00000000 		.word	stop_reboot
 2061              		.cfi_endproc
 2062              	.LFE91:
 2063              		.size	GPRS_Tick, .-GPRS_Tick
 2064              		.section	.text.CARD_Tick,"ax",%progbits
 2065              		.align	1
 2066              		.global	CARD_Tick
 2067              		.code	16
 2068              		.thumb_func
 2069              		.type	CARD_Tick, %function
 2070              	CARD_Tick:
 2071              	.LFB92:
1148:main.c        **** 
1149:main.c        **** 
1150:main.c        **** //*************************************************************************************************
1151:main.c        **** // Function name	: CARD_Tick
1152:main.c        **** // Description		: 刷卡验证并处理
1153:main.c        **** // Parameter		: none
1154:main.c        **** // Return			: none
1155:main.c        **** //-------------------------------------------------------------------------------------------------
1156:main.c        **** // Info				: 
1157:main.c        **** //*************************************************************************************************
1158:main.c        **** #if card_test
1159:main.c        **** void CARD_Tick(void)
1160:main.c        **** {
1161:main.c        **** 	uint8 i;
1162:main.c        **** 	uint8 ret;
1163:main.c        **** 	uint8 card_id[8] = {0};
1164:main.c        **** 	uint8 arr_time[4];
1165:main.c        **** 	uint32 cur_time;
1166:main.c        **** 	user_info_t user_info;
1167:main.c        ****     open_door_t openInfo_card;
1168:main.c        **** 	uint8 ic_buf[64] = {0x01,0x02,0x03,0x04,0x05};
1169:main.c        **** 	
1170:main.c        **** 	uint8_t statues;
1171:main.c        ****     uint8_t picc_atqa[2];                                               
1172:main.c        ****     //static uint8_t picc_uid[15];                                        
1173:main.c        ****     //uint8_t picc_sak[3];                                                
1174:main.c        ****     uint8_t key[6]= {0xFF,0xFF,0xFF,0xFF,0xFF,0xFF};       				// 不同的卡是不是不一样   
1175:main.c        **** 	uint8_t key_b04[6]= {0xff,0xff,0xfe,0xef,0xfa,0xaf};       			// block4-5 的加密密钥
1176:main.c        ****     
1177:main.c        **** 	uint8_t blockAddr;
1178:main.c        ****     uint8_t blockData[16];
1179:main.c        ****     uint32_t rec_len;
1180:main.c        ****     uint8_t pupi[4];
1181:main.c        ****     uint8_t buff[12];
1182:main.c        **** 	
1183:main.c        **** 	
1184:main.c        **** 	//==if(RET_ERR == Read_nfc_card2(card_id))
1185:main.c        **** 	//==	return;
1186:main.c        **** 	
1187:main.c        **** 	FM175X_SoftReset( );  
1188:main.c        **** 	Set_Rf( 3 );                                                /* 打开双天线                  */
ARM GAS  C:\Users\Administrator\AppData\Local\Temp\ccNQfmEa.s 			page 59


1189:main.c        **** 	Pcd_ConfigISOType( 0 );                                     /* ISO14443寄存器初始化        *
1190:main.c        **** 	statues = TypeA_CardActive( picc_atqa,picc_uid,picc_sak );  /* 激活A卡片                   */
1191:main.c        **** 	if ( statues == TRUE ) 
1192:main.c        **** 	{
1193:main.c        **** 		DBG_SOFT_PutStr("\nCardUID:");
1194:main.c        **** 		DBG_SOFT_PrintfHex(picc_uid,8,16);
1195:main.c        **** 		memcpy(card_id, picc_uid, 4);
1196:main.c        **** 
1197:main.c        **** 	}
1198:main.c        **** 	else 
1199:main.c        **** 	{
1200:main.c        **** 		//DBG_SOFT_PutStr("No Card!\r\n");
1201:main.c        **** 		TypeA_Halt( 0 );  	 					 				/* 卡片睡眠 					*/
1202:main.c        **** 		return;
1203:main.c        **** 	}
1204:main.c        **** 	
1205:main.c        **** #if 0	
1206:main.c        **** 	for(i = 0; i < 16; i++)										// 先读取16扇区数据
1207:main.c        **** 	{
1208:main.c        **** 		// 先读0区块
1209:main.c        **** 		blockAddr = i;
1210:main.c        **** 		if((i >= 4)&&(i <= 7))
1211:main.c        **** 		{
1212:main.c        **** 			statues = Mifare_Auth(0x00,blockAddr>>2,key_b04,picc_uid);      /* 密钥认证                 
1213:main.c        **** 		}
1214:main.c        **** 		else
1215:main.c        **** 			statues = Mifare_Auth(0x00,blockAddr>>2,key,picc_uid);      	/* 密钥认证                    
1216:main.c        **** 		
1217:main.c        **** 		if(statues  == TRUE)
1218:main.c        **** 		{
1219:main.c        **** 			DBG_SOFT_PutStr("Auth OK!\r\n");
1220:main.c        **** 		}
1221:main.c        **** 		else
1222:main.c        **** 		{
1223:main.c        **** 			DBG_SOFT_PutStr("Auth Err!\r\n");
1224:main.c        **** 			return ;
1225:main.c        **** 		}	
1226:main.c        **** 		statues = Mifare_Blockread(blockAddr,blockData);            /* 读块               		   */
1227:main.c        **** 		if(statues  == TRUE)
1228:main.c        **** 		{
1229:main.c        **** 			DBG_SOFT_PutStr("Read OK @Block ");
1230:main.c        **** 			DBG_SOFT_PrintfHex(&blockAddr,1,16);
1231:main.c        **** 			DBG_SOFT_PrintfHex(blockData,16,16);
1232:main.c        **** 		}
1233:main.c        **** 		else
1234:main.c        **** 		{
1235:main.c        **** 			DBG_SOFT_PutStr("Read Err!\r\n");
1236:main.c        **** 			return ;
1237:main.c        **** 		}
1238:main.c        **** 		
1239:main.c        **** 		if(i == 0)
1240:main.c        **** 		{
1241:main.c        **** 			memcpy(card_id,blockData,4);
1242:main.c        **** 		}
1243:main.c        **** 	}	
1244:main.c        **** 
1245:main.c        **** 	if(1 == IsCardLegality(card_id))
ARM GAS  C:\Users\Administrator\AppData\Local\Temp\ccNQfmEa.s 			page 60


1246:main.c        **** 	{
1247:main.c        **** 		DBG_SOFT_PutStr("IsCardLegality OK!\n");
1248:main.c        **** 	}
1249:main.c        **** 	else 
1250:main.c        **** 		DBG_SOFT_PutStr("IsCardLegality ERR!\n");
1251:main.c        **** 	
1252:main.c        **** 	TypeA_Halt( 0 );  	 					 					// 卡片睡眠 					
1253:main.c        **** #endif
1254:main.c        **** 	CardBlock_Rd(5,blockData);
1255:main.c        **** 	DBG_SOFT_PutStr("\nCardBlock_Rd data @ Block 5:\n");
1256:main.c        **** 	DBG_SOFT_PrintfHex(blockData,16,16);
1257:main.c        **** 
1258:main.c        **** 	if(1 == IsCardLegality(card_id))
1259:main.c        **** 	{
1260:main.c        **** 		DBG_SOFT_PutStr("\nIsCardLegality ok!\n");				// 合法性验证
1261:main.c        **** 	}
1262:main.c        **** 	
1263:main.c        **** 	CardInfoUpdate();
1264:main.c        **** 	
1265:main.c        **** 
1266:main.c        **** 	#if 0
1267:main.c        **** 	blockAddr = 0x04;
1268:main.c        **** 	statues = Mifare_Blockwrite(blockAddr,blockData);			/* 写块	 				   */
1269:main.c        **** 	if(statues  == TRUE)
1270:main.c        **** 	{
1271:main.c        **** 		DBG_SOFT_PutStr("Write OK!\r\n");
1272:main.c        **** 	}
1273:main.c        **** 	else
1274:main.c        **** 	{
1275:main.c        **** 		DBG_SOFT_PutStr("Write Err!\r\n");
1276:main.c        **** 		return ;
1277:main.c        **** 	}
1278:main.c        **** 	#endif
1279:main.c        **** 	#if 0
1280:main.c        **** 	// 写完后 再读出来
1281:main.c        **** 	statues = Mifare_Blockread(blockAddr,blockData);            /* 再读块  01             		   */
1282:main.c        **** 	if(statues  == TRUE)
1283:main.c        **** 	{
1284:main.c        **** 		DBG_SOFT_PutStr("Read OK!\r\n");
1285:main.c        **** 		DBG_SOFT_PrintfHex(blockData,16,16);
1286:main.c        **** 	}
1287:main.c        **** 	else
1288:main.c        **** 	{
1289:main.c        **** 		DBG_SOFT_PutStr("Read Err!\r\n");
1290:main.c        **** 		return ;
1291:main.c        **** 	}
1292:main.c        **** 	#endif
1293:main.c        **** 	
1294:main.c        **** 	#if 0
1295:main.c        **** 	for(i = 0; i < 64; i++)
1296:main.c        **** 	{
1297:main.c        **** 		ic_buf[i]  = i;
1298:main.c        **** 	}
1299:main.c        **** 	if(TRUE == Mifare_Blockwrite(3,ic_buf))
1300:main.c        **** 	{
1301:main.c        **** 		DBG_SOFT_PutStr("\nWrite card Block OK!\n");
1302:main.c        **** 	}
ARM GAS  C:\Users\Administrator\AppData\Local\Temp\ccNQfmEa.s 			page 61


1303:main.c        **** 	else
1304:main.c        **** 	{
1305:main.c        **** 		DBG_SOFT_PutStr("\nWrite card Block Failed!\n");
1306:main.c        **** 	}
1307:main.c        **** 	
1308:main.c        **** 	//如果读到卡 取出卡片的64个块的数据 打印
1309:main.c        **** 	for(i = 0; i < 64; i++)
1310:main.c        **** 	{
1311:main.c        **** 		if(TRUE == Mifare_Blockread(i, ic_buf))
1312:main.c        **** 		{
1313:main.c        **** 			#if DBG_SOFT_ENNABLE
1314:main.c        **** 			//memset(cur_readuid, 0, 8);
1315:main.c        **** 			//memcpy(card_id,card_id,8);
1316:main.c        **** 			DBG_SOFT_PutStr("\nCur Read card Block @i =");
1317:main.c        **** 			DBG_SOFT_PrintfHex(&i,1,16);
1318:main.c        **** 			DBG_SOFT_PrintfHex(ic_buf,16,16);
1319:main.c        **** 			#endif	
1320:main.c        **** 		}
1321:main.c        **** 		else
1322:main.c        **** 		{
1323:main.c        **** 			DBG_SOFT_PutStr("\nRead card Block Failed!\n");
1324:main.c        **** 		}
1325:main.c        **** 	}
1326:main.c        **** 	#endif
1327:main.c        **** 	
1328:main.c        **** 	for (i = 0; i < 2; i++)
1329:main.c        **** 	{
1330:main.c        **** 	    Led_AllOff();
1331:main.c        **** 		delay_with_ble(100);
1332:main.c        **** 		Led_BlueON();
1333:main.c        **** 		delay_with_ble(100);
1334:main.c        **** 	}
1335:main.c        **** 	
1336:main.c        **** 	cur_time = (uint32)RTC_GetUnixTime();
1337:main.c        **** 	LONG2BYTE(cur_time, arr_time);
1338:main.c        **** 	memcpy(user_info.card_uid, card_id, CARD_UID_LEN);
1339:main.c        **** 	memcpy(user_info.valid_time, arr_time, 4);
1340:main.c        **** 	
1341:main.c        **** 	if (1 == UserData_Judge_If_Open(&user_info))
1342:main.c        **** 	{
1343:main.c        **** 		Led_GreenON();
1344:main.c        **** 		DoorOpen();
1345:main.c        **** 		VoicePlay((uint8)Sound_VERIFY_SUCCESS);
1346:main.c        **** 		
1347:main.c        **** 		memset(&openInfo_card, 0, sizeof(open_door_t));
1348:main.c        **** 		memcpy(openInfo_card.card_uid, card_id, CARD_UID_LEN);
1349:main.c        **** 		memcpy(openInfo_card.open_time, arr_time, 4);
1350:main.c        **** 		memset(arr_time, 0, 4);
1351:main.c        **** 		memcpy(openInfo_card.send_time, arr_time, 4);
1352:main.c        **** 		Write_OpenInfo(&openInfo_card, CARD_OPEN);
1353:main.c        **** 		
1354:main.c        **** 		if (gprs_state == NORMAL_COMM)
1355:main.c        **** 		{
1356:main.c        **** 			cur_time = (uint32)RTC_GetUnixTime();
1357:main.c        **** 			if(cur_time > next_allupload_time)
1358:main.c        **** 			{
1359:main.c        **** 				next_allupload_time = cur_time + 15;
ARM GAS  C:\Users\Administrator\AppData\Local\Temp\ccNQfmEa.s 			page 62


1360:main.c        **** 				send_upload_open_info(&openInfo_card, CARD_UID_LEN, CARD_OPEN);				
1361:main.c        **** 			}						
1362:main.c        **** 		}
1363:main.c        **** 		
1364:main.c        **** 		DoorClose();
1365:main.c        **** 	}
1366:main.c        **** 	else
1367:main.c        **** 	{
1368:main.c        **** 		Card_ErrCount++;
1369:main.c        **** 		Led_RedON();
1370:main.c        **** 		VoicePlay(Sound_VERIFY_FAILURE);
1371:main.c        **** 		delay_with_ble(800);
1372:main.c        **** 	}
1373:main.c        **** 	Led_SetState(LED_State);										// LED的状态切回刷卡前的状态		//
1374:main.c        **** 	
1375:main.c        **** Err_Check:
1376:main.c        **** 	if (Card_ErrCount >= 5)
1377:main.c        **** 	{
1378:main.c        **** 		Card_ErrCount = 0;
1379:main.c        **** 		if (gprs_state == NORMAL_COMM)
1380:main.c        **** 		{
1381:main.c        **** 			EnterGuide_State = ALARM_ErrOpenQty;
1382:main.c        **** 			send_alarm_info(EnterGuide_State);						// 开门错误5次报警					//
1383:main.c        **** 		}
1384:main.c        **** 	}
1385:main.c        **** }
1386:main.c        **** #endif
1387:main.c        **** 
1388:main.c        **** 
1389:main.c        **** #if card_scan //扫描scan
1390:main.c        **** //*************************************************************************************************
1391:main.c        **** // Function name	: CARD_Tick
1392:main.c        **** // Description		: 刷卡验证并处理
1393:main.c        **** // Parameter		: none
1394:main.c        **** // Return			: none
1395:main.c        **** //-------------------------------------------------------------------------------------------------
1396:main.c        **** // Info	
1397:main.c        **** #if 0
1398:main.c        **** time_tmp = (uint32)RTC_GetUnixTime();
1399:main.c        **** 	if(time_tmp >= last_readcardtime + 2)
1400:main.c        **** 	{	
1401:main.c        **** 		last_readcardtime = time_tmp;
1402:main.c        **** 		#endif
1403:main.c        **** //*************************************************************************************************
1404:main.c        **** void CARD_Tick(void)
1405:main.c        **** {
 2072              		.loc 1 1405 0
 2073              		.cfi_startproc
 2074              		@ args = 0, pretend = 0, frame = 48
 2075              		@ frame_needed = 0, uses_anonymous_args = 0
 2076 0000 F0B5     		push	{r4, r5, r6, r7, lr}
 2077              		.cfi_def_cfa_offset 20
 2078              		.cfi_offset 4, -20
 2079              		.cfi_offset 5, -16
 2080              		.cfi_offset 6, -12
 2081              		.cfi_offset 7, -8
 2082              		.cfi_offset 14, -4
ARM GAS  C:\Users\Administrator\AppData\Local\Temp\ccNQfmEa.s 			page 63


 2083 0002 8DB0     		sub	sp, sp, #52
 2084              		.cfi_def_cfa_offset 72
1406:main.c        **** 	uint8 i;
1407:main.c        **** 
1408:main.c        **** 	uint8 card_id[8] = {0};
 2085              		.loc 1 1408 0
 2086 0004 03AC     		add	r4, sp, #12
 2087 0006 0822     		movs	r2, #8
 2088 0008 0021     		movs	r1, #0
 2089 000a 2000     		movs	r0, r4
 2090 000c FFF7FEFF 		bl	memset
 2091              	.LVL181:
1409:main.c        **** 	uint8 arr_time[4];
1410:main.c        **** 	uint32 time_tmp;
1411:main.c        **** 	user_info_t user_info;
1412:main.c        ****     open_door_t openInfo_card;
1413:main.c        **** 	
1414:main.c        ****     if (CardCheck_CountTime > 1500)
 2092              		.loc 1 1414 0
 2093 0010 494E     		ldr	r6, .L195
 2094 0012 4A4B     		ldr	r3, .L195+4
 2095 0014 3268     		ldr	r2, [r6]
 2096 0016 9A42     		cmp	r2, r3
 2097 0018 00D8     		bhi	.LCB1718
 2098 001a 8AE0     		b	.L176	@long jump
 2099              	.LCB1718:
1415:main.c        ****     {
1416:main.c        **** 		CardCheck_CountTime = 0;
 2100              		.loc 1 1416 0
 2101 001c 0023     		movs	r3, #0
1417:main.c        **** 		if(0 == CardScan(card_id))							// 先读A卡
 2102              		.loc 1 1417 0
 2103 001e 2000     		movs	r0, r4
1416:main.c        **** 		if(0 == CardScan(card_id))							// 先读A卡
 2104              		.loc 1 1416 0
 2105 0020 3360     		str	r3, [r6]
 2106              		.loc 1 1417 0
 2107 0022 FFF7FEFF 		bl	CardScan
 2108              	.LVL182:
 2109 0026 0028     		cmp	r0, #0
 2110 0028 2AD0     		beq	.L179
 2111              	.L183:
 2112              	.LVL183:
1418:main.c        **** 		{
1419:main.c        **** 			if(0 == nfc_detect_type_b(card_id, 8))			// 未读到 再读B卡
1420:main.c        **** 			{
1421:main.c        **** 				return ;
1422:main.c        **** 			}	
1423:main.c        **** 		}
1424:main.c        **** 		
1425:main.c        **** 		for (i = 0; i < 2; i++)
1426:main.c        **** 		{
1427:main.c        **** 		    Led_AllOff();
 2113              		.loc 1 1427 0
 2114 002a FFF7FEFF 		bl	Led_AllOff
 2115              	.LVL184:
1428:main.c        **** 			delay_with_ble(100);
ARM GAS  C:\Users\Administrator\AppData\Local\Temp\ccNQfmEa.s 			page 64


 2116              		.loc 1 1428 0
 2117 002e 6420     		movs	r0, #100
 2118 0030 FFF7FEFF 		bl	delay_with_ble
 2119              	.LVL185:
1429:main.c        **** 			Led_BlueON();
 2120              		.loc 1 1429 0
 2121 0034 FFF7FEFF 		bl	Led_BlueON
 2122              	.LVL186:
1430:main.c        **** 			delay_with_ble(100);
 2123              		.loc 1 1430 0
 2124 0038 6420     		movs	r0, #100
 2125 003a FFF7FEFF 		bl	delay_with_ble
 2126              	.LVL187:
1427:main.c        **** 			delay_with_ble(100);
 2127              		.loc 1 1427 0
 2128 003e FFF7FEFF 		bl	Led_AllOff
 2129              	.LVL188:
1428:main.c        **** 			Led_BlueON();
 2130              		.loc 1 1428 0
 2131 0042 6420     		movs	r0, #100
 2132 0044 FFF7FEFF 		bl	delay_with_ble
 2133              	.LVL189:
1429:main.c        **** 			delay_with_ble(100);
 2134              		.loc 1 1429 0
 2135 0048 FFF7FEFF 		bl	Led_BlueON
 2136              	.LVL190:
 2137              		.loc 1 1430 0
 2138 004c 6420     		movs	r0, #100
 2139 004e FFF7FEFF 		bl	delay_with_ble
 2140              	.LVL191:
1431:main.c        **** 		}
1432:main.c        **** 
1433:main.c        **** 		DBG_SOFT_PutStr("\nGet Card UID:");	
1434:main.c        **** 		DBG_SOFT_PrintfHex(card_id,8,16);
1435:main.c        **** 		
1436:main.c        **** 		time_tmp = (uint32)RTC_GetUnixTime();
 2141              		.loc 1 1436 0
 2142 0052 FFF7FEFF 		bl	RTC_GetUnixTime
 2143              	.LVL192:
1437:main.c        **** 		LONG2BYTE(time_tmp, arr_time);
 2144              		.loc 1 1437 0
 2145 0056 02AA     		add	r2, sp, #8
 2146 0058 030E     		lsrs	r3, r0, #24
 2147 005a 1370     		strb	r3, [r2]
 2148 005c 030C     		lsrs	r3, r0, #16
 2149 005e D070     		strb	r0, [r2, #3]
 2150 0060 5370     		strb	r3, [r2, #1]
 2151 0062 030A     		lsrs	r3, r0, #8
1438:main.c        **** 		memcpy(user_info.card_uid, card_id, CARD_UID_LEN);
 2152              		.loc 1 1438 0
 2153 0064 05A8     		add	r0, sp, #20
 2154              	.LVL193:
1437:main.c        **** 		LONG2BYTE(time_tmp, arr_time);
 2155              		.loc 1 1437 0
 2156 0066 9370     		strb	r3, [r2, #2]
 2157              		.loc 1 1438 0
 2158 0068 0300     		movs	r3, r0
ARM GAS  C:\Users\Administrator\AppData\Local\Temp\ccNQfmEa.s 			page 65


 2159 006a 2200     		movs	r2, r4
 2160 006c 22CA     		ldmia	r2!, {r1, r5}
 2161 006e 22C3     		stmia	r3!, {r1, r5}
1439:main.c        **** 		memcpy(user_info.valid_time, arr_time, 4);
 2162              		.loc 1 1439 0
 2163 0070 029B     		ldr	r3, [sp, #8]
 2164 0072 8360     		str	r3, [r0, #8]
1440:main.c        **** 		
1441:main.c        **** 		if (1 == UserData_Judge_If_Open(&user_info))
 2165              		.loc 1 1441 0
 2166 0074 FFF7FEFF 		bl	UserData_Judge_If_Open
 2167              	.LVL194:
 2168 0078 314F     		ldr	r7, .L195+8
 2169 007a 0128     		cmp	r0, #1
 2170 007c 3DD1     		bne	.L193
 2171 007e 06E0     		b	.L194
 2172              	.LVL195:
 2173              	.L179:
1419:main.c        **** 			{
 2174              		.loc 1 1419 0
 2175 0080 0821     		movs	r1, #8
 2176 0082 2000     		movs	r0, r4
 2177 0084 FFF7FEFF 		bl	nfc_detect_type_b
 2178              	.LVL196:
 2179 0088 0028     		cmp	r0, #0
 2180 008a 52D0     		beq	.L176
 2181 008c CDE7     		b	.L183
 2182              	.LVL197:
 2183              	.L194:
1442:main.c        **** 		{
1443:main.c        **** 			Led_GreenON();
 2184              		.loc 1 1443 0
 2185 008e FFF7FEFF 		bl	Led_GreenON
 2186              	.LVL198:
1444:main.c        **** 			DoorOpen();
 2187              		.loc 1 1444 0
 2188 0092 FFF7FEFF 		bl	DoorOpen
 2189              	.LVL199:
1445:main.c        **** 			VoicePlay((uint8)Sound_VERIFY_SUCCESS);
 2190              		.loc 1 1445 0
 2191 0096 0A20     		movs	r0, #10
 2192 0098 FFF7FEFF 		bl	VoicePlay
 2193              	.LVL200:
1446:main.c        **** 			
1447:main.c        **** 			time_tmp = (uint32)RTC_GetUnixTime();
 2194              		.loc 1 1447 0
 2195 009c FFF7FEFF 		bl	RTC_GetUnixTime
 2196              	.LVL201:
1448:main.c        **** 			if (time_tmp >= 1483203600)
 2197              		.loc 1 1448 0
 2198 00a0 284B     		ldr	r3, .L195+12
 2199 00a2 9842     		cmp	r0, r3
 2200 00a4 22D9     		bls	.L185
1449:main.c        **** 			{
1450:main.c        **** 				memset(&openInfo_card, 0, sizeof(open_door_t));
 2201              		.loc 1 1450 0
 2202 00a6 08AD     		add	r5, sp, #32
ARM GAS  C:\Users\Administrator\AppData\Local\Temp\ccNQfmEa.s 			page 66


 2203 00a8 1022     		movs	r2, #16
 2204 00aa 0021     		movs	r1, #0
 2205 00ac 2800     		movs	r0, r5
 2206              	.LVL202:
 2207 00ae FFF7FEFF 		bl	memset
 2208              	.LVL203:
1451:main.c        **** 				memcpy(openInfo_card.card_uid, card_id, CARD_UID_LEN);
 2209              		.loc 1 1451 0
 2210 00b2 2B00     		movs	r3, r5
 2211 00b4 06CC     		ldmia	r4!, {r1, r2}
 2212 00b6 06C3     		stmia	r3!, {r1, r2}
1452:main.c        **** 				memcpy(openInfo_card.open_time, arr_time, 4);
 2213              		.loc 1 1452 0
 2214 00b8 029B     		ldr	r3, [sp, #8]
1453:main.c        **** 				memset(arr_time, 0, 4);
1454:main.c        **** 				memcpy(openInfo_card.send_time, arr_time, 4);
1455:main.c        **** 				Write_OpenInfo(&openInfo_card, CARD_OPEN);
 2215              		.loc 1 1455 0
 2216 00ba 0721     		movs	r1, #7
1452:main.c        **** 				memcpy(openInfo_card.open_time, arr_time, 4);
 2217              		.loc 1 1452 0
 2218 00bc 0193     		str	r3, [sp, #4]
 2219 00be AB60     		str	r3, [r5, #8]
1453:main.c        **** 				memset(arr_time, 0, 4);
 2220              		.loc 1 1453 0
 2221 00c0 0023     		movs	r3, #0
 2222              		.loc 1 1455 0
 2223 00c2 2800     		movs	r0, r5
1453:main.c        **** 				memset(arr_time, 0, 4);
 2224              		.loc 1 1453 0
 2225 00c4 0293     		str	r3, [sp, #8]
 2226              		.loc 1 1455 0
 2227 00c6 FFF7FEFF 		bl	Write_OpenInfo
 2228              	.LVL204:
1456:main.c        **** 				
1457:main.c        **** 				if (gprs_state == NORMAL_COMM)
 2229              		.loc 1 1457 0
 2230 00ca 1F4B     		ldr	r3, .L195+16
 2231 00cc 1B78     		ldrb	r3, [r3]
 2232 00ce 052B     		cmp	r3, #5
 2233 00d0 0CD1     		bne	.L185
1458:main.c        **** 				{
1459:main.c        **** 					time_tmp = (uint32)RTC_GetUnixTime();
 2234              		.loc 1 1459 0
 2235 00d2 FFF7FEFF 		bl	RTC_GetUnixTime
 2236              	.LVL205:
1460:main.c        **** 					if(time_tmp > next_allupload_time)
 2237              		.loc 1 1460 0
 2238 00d6 1D4B     		ldr	r3, .L195+20
 2239 00d8 1A68     		ldr	r2, [r3]
 2240 00da 9042     		cmp	r0, r2
 2241 00dc 06D9     		bls	.L185
1461:main.c        **** 					{
1462:main.c        **** 						next_allupload_time = time_tmp + 15;
 2242              		.loc 1 1462 0
 2243 00de 0F30     		adds	r0, r0, #15
 2244              	.LVL206:
ARM GAS  C:\Users\Administrator\AppData\Local\Temp\ccNQfmEa.s 			page 67


 2245 00e0 1860     		str	r0, [r3]
1463:main.c        **** 						send_upload_open_info(&openInfo_card, CARD_UID_LEN, CARD_OPEN);				
 2246              		.loc 1 1463 0
 2247 00e2 0722     		movs	r2, #7
 2248 00e4 0821     		movs	r1, #8
 2249 00e6 2800     		movs	r0, r5
 2250              	.LVL207:
 2251 00e8 FFF7FEFF 		bl	send_upload_open_info
 2252              	.LVL208:
 2253              	.L185:
1464:main.c        **** 					}
1465:main.c        **** 				}
1466:main.c        **** 			}
1467:main.c        **** 			delay_with_ble(1000);
 2254              		.loc 1 1467 0
 2255 00ec FA20     		movs	r0, #250
 2256 00ee 8000     		lsls	r0, r0, #2
 2257 00f0 FFF7FEFF 		bl	delay_with_ble
 2258              	.LVL209:
1468:main.c        **** 			DoorClose();
 2259              		.loc 1 1468 0
 2260 00f4 FFF7FEFF 		bl	DoorClose
 2261              	.LVL210:
 2262 00f8 0BE0     		b	.L187
 2263              	.L193:
1469:main.c        **** 		}
1470:main.c        **** 		else
1471:main.c        **** 		{
1472:main.c        **** 			Card_ErrCount++;
 2264              		.loc 1 1472 0
 2265 00fa 3B78     		ldrb	r3, [r7]
 2266 00fc 0133     		adds	r3, r3, #1
 2267 00fe 3B70     		strb	r3, [r7]
1473:main.c        **** 			Led_RedON();
 2268              		.loc 1 1473 0
 2269 0100 FFF7FEFF 		bl	Led_RedON
 2270              	.LVL211:
1474:main.c        **** 			VoicePlay(Sound_VERIFY_FAILURE);
 2271              		.loc 1 1474 0
 2272 0104 0B20     		movs	r0, #11
 2273 0106 FFF7FEFF 		bl	VoicePlay
 2274              	.LVL212:
1475:main.c        **** 			delay_with_ble(800);
 2275              		.loc 1 1475 0
 2276 010a C820     		movs	r0, #200
 2277 010c 8000     		lsls	r0, r0, #2
 2278 010e FFF7FEFF 		bl	delay_with_ble
 2279              	.LVL213:
 2280              	.L187:
1476:main.c        **** 		}
1477:main.c        **** 		Led_SetState(LED_State);										// LED的状态切回刷卡前的状态		//
 2281              		.loc 1 1477 0
 2282 0112 707A     		ldrb	r0, [r6, #9]
 2283 0114 FFF7FEFF 		bl	Led_SetState
 2284              	.LVL214:
 2285              	.LDL1:
1478:main.c        **** 		
ARM GAS  C:\Users\Administrator\AppData\Local\Temp\ccNQfmEa.s 			page 68


1479:main.c        **** 	Err_Check:
1480:main.c        **** 		if (Card_ErrCount >= 5)
 2286              		.loc 1 1480 0
 2287 0118 3B78     		ldrb	r3, [r7]
 2288 011a 042B     		cmp	r3, #4
 2289 011c 09D9     		bls	.L176
1481:main.c        **** 		{
1482:main.c        **** 			Card_ErrCount = 0;
 2290              		.loc 1 1482 0
 2291 011e 0023     		movs	r3, #0
 2292 0120 3B70     		strb	r3, [r7]
1483:main.c        **** 			if (gprs_state == NORMAL_COMM)
 2293              		.loc 1 1483 0
 2294 0122 094B     		ldr	r3, .L195+16
 2295 0124 1B78     		ldrb	r3, [r3]
 2296 0126 052B     		cmp	r3, #5
 2297 0128 03D1     		bne	.L176
1484:main.c        **** 			{
1485:main.c        **** 				EnterGuide_State = ALARM_ErrOpenQty;
 2298              		.loc 1 1485 0
 2299 012a 0320     		movs	r0, #3
 2300 012c 3072     		strb	r0, [r6, #8]
1486:main.c        **** 				send_alarm_info(EnterGuide_State);						// 开门错误5次报警					//
 2301              		.loc 1 1486 0
 2302 012e FFF7FEFF 		bl	send_alarm_info
 2303              	.LVL215:
 2304              	.L176:
1487:main.c        **** 			}
1488:main.c        **** 		}
1489:main.c        **** 		
1490:main.c        **** 	}
1491:main.c        **** }
 2305              		.loc 1 1491 0
 2306 0132 0DB0     		add	sp, sp, #52
 2307              		@ sp needed
 2308 0134 F0BD     		pop	{r4, r5, r6, r7, pc}
 2309              	.L196:
 2310 0136 C046     		.align	2
 2311              	.L195:
 2312 0138 00000000 		.word	.LANCHOR0
 2313 013c DC050000 		.word	1500
 2314 0140 00000000 		.word	Card_ErrCount
 2315 0144 0FE46758 		.word	1483203599
 2316 0148 00000000 		.word	gprs_state
 2317 014c 00000000 		.word	next_allupload_time
 2318              		.cfi_endproc
 2319              	.LFE92:
 2320              		.size	CARD_Tick, .-CARD_Tick
 2321              		.section	.text.KeyOpen_Tick,"ax",%progbits
 2322              		.align	1
 2323              		.global	KeyOpen_Tick
 2324              		.code	16
 2325              		.thumb_func
 2326              		.type	KeyOpen_Tick, %function
 2327              	KeyOpen_Tick:
 2328              	.LFB93:
1492:main.c        **** #endif
ARM GAS  C:\Users\Administrator\AppData\Local\Temp\ccNQfmEa.s 			page 69


1493:main.c        **** 
1494:main.c        **** 
1495:main.c        **** #if card_normal //原功能
1496:main.c        **** //*************************************************************************************************
1497:main.c        **** // Function name	: CARD_Tick
1498:main.c        **** // Description		: 刷卡验证并处理
1499:main.c        **** // Parameter		: none
1500:main.c        **** // Return			: none
1501:main.c        **** //-------------------------------------------------------------------------------------------------
1502:main.c        **** // Info				: 
1503:main.c        **** //*************************************************************************************************
1504:main.c        **** void CARD_Tick(void)
1505:main.c        **** {
1506:main.c        **** 	uint8 i;
1507:main.c        **** 	uint8 ret;
1508:main.c        **** 	uint8 card_id[8];
1509:main.c        **** 	uint8 arr_time[4];
1510:main.c        **** 	uint32 cur_time;
1511:main.c        **** 	user_info_t user_info;
1512:main.c        ****     open_door_t openInfo_card;
1513:main.c        **** 	
1514:main.c        **** 	#if 0
1515:main.c        **** 	if ((ret = detect_nfc_card(card_id, CARD_UID_LEN)) != RET_OK)
1516:main.c        **** 	{
1517:main.c        **** 		goto Err_Check;
1518:main.c        **** 	}
1519:main.c        **** 	
1520:main.c        **** 	// 滤除不准确的卡ID
1521:main.c        **** 	if((card_id[0] == 0) && (card_id[1] == 0) &&(card_id[2] == 0) && (card_id[3] == 0))
1522:main.c        **** 	{
1523:main.c        **** 		return;
1524:main.c        **** 	}
1525:main.c        **** 	#endif
1526:main.c        **** 	
1527:main.c        **** 	if(RET_ERR == Read_nfc_card2(card_id))
1528:main.c        **** 		return;
1529:main.c        **** 	
1530:main.c        **** 		#if DBG_SOFT_ENNABLE
1531:main.c        **** 		//memset(cur_readuid, 0, 8);
1532:main.c        **** 		//memcpy(card_id,card_id,8);
1533:main.c        **** 		DBG_SOFT_PutStr("\nCur Read card UID:\n");
1534:main.c        **** 		DBG_SOFT_PrintfHex(card_id,8,16);
1535:main.c        **** 		#endif	
1536:main.c        **** 	
1537:main.c        **** 	for (i = 0; i < 2; i++)
1538:main.c        **** 	{
1539:main.c        **** 	    Led_AllOff();
1540:main.c        **** 		delay_with_ble(100);
1541:main.c        **** 		Led_BlueON();
1542:main.c        **** 		delay_with_ble(100);
1543:main.c        **** 	}
1544:main.c        **** 	
1545:main.c        **** 	cur_time = (uint32)RTC_GetUnixTime();
1546:main.c        **** 	LONG2BYTE(cur_time, arr_time);
1547:main.c        **** 	memcpy(user_info.card_uid, card_id, CARD_UID_LEN);
1548:main.c        **** 	memcpy(user_info.valid_time, arr_time, 4);
1549:main.c        **** 	
ARM GAS  C:\Users\Administrator\AppData\Local\Temp\ccNQfmEa.s 			page 70


1550:main.c        **** 	if (1 == UserData_Judge_If_Open(&user_info))
1551:main.c        **** 	{
1552:main.c        **** 		Led_GreenON();
1553:main.c        **** 		DoorOpen();
1554:main.c        **** 		VoicePlay((uint8)Sound_VERIFY_SUCCESS);
1555:main.c        **** 		
1556:main.c        **** 		memset(&openInfo_card, 0, sizeof(open_door_t));
1557:main.c        **** 		memcpy(openInfo_card.card_uid, card_id, CARD_UID_LEN);
1558:main.c        **** 		memcpy(openInfo_card.open_time, arr_time, 4);
1559:main.c        **** 		memset(arr_time, 0, 4);
1560:main.c        **** 		memcpy(openInfo_card.send_time, arr_time, 4);
1561:main.c        **** 		Write_OpenInfo(&openInfo_card, CARD_OPEN);
1562:main.c        **** 		
1563:main.c        **** 		if (gprs_state == NORMAL_COMM)
1564:main.c        **** 		{
1565:main.c        **** 			cur_time = (uint32)RTC_GetUnixTime();
1566:main.c        **** 			if(cur_time > next_allupload_time)
1567:main.c        **** 			{
1568:main.c        **** 				next_allupload_time = cur_time + 15;
1569:main.c        **** 				send_upload_open_info(&openInfo_card, CARD_UID_LEN, CARD_OPEN);				
1570:main.c        **** 			}						
1571:main.c        **** 		}
1572:main.c        **** 		
1573:main.c        **** 		DoorClose();
1574:main.c        **** 	}
1575:main.c        **** 	else
1576:main.c        **** 	{
1577:main.c        **** 		Card_ErrCount++;
1578:main.c        **** 		Led_RedON();
1579:main.c        **** 		VoicePlay(Sound_VERIFY_FAILURE);
1580:main.c        **** 		delay_with_ble(800);
1581:main.c        **** 	}
1582:main.c        **** 	Led_SetState(LED_State);										// LED的状态切回刷卡前的状态		//
1583:main.c        **** 	
1584:main.c        **** Err_Check:
1585:main.c        **** 	if (Card_ErrCount >= 5)
1586:main.c        **** 	{
1587:main.c        **** 		Card_ErrCount = 0;
1588:main.c        **** 		if (gprs_state == NORMAL_COMM)
1589:main.c        **** 		{
1590:main.c        **** 			EnterGuide_State = ALARM_ErrOpenQty;
1591:main.c        **** 			send_alarm_info(EnterGuide_State);						// 开门错误5次报警					//
1592:main.c        **** 		}
1593:main.c        **** 	}
1594:main.c        **** }
1595:main.c        **** #endif
1596:main.c        **** 
1597:main.c        **** //*************************************************************************************************
1598:main.c        **** // Function name	: KeyOpen_Tick
1599:main.c        **** // Description		: 机械开门的处理
1600:main.c        **** // Parameter		: none
1601:main.c        **** // Return			: none
1602:main.c        **** //-------------------------------------------------------------------------------------------------
1603:main.c        **** // Info				: 
1604:main.c        **** //*************************************************************************************************
1605:main.c        **** void KeyOpen_Tick(void)
1606:main.c        **** {
ARM GAS  C:\Users\Administrator\AppData\Local\Temp\ccNQfmEa.s 			page 71


 2329              		.loc 1 1606 0
 2330              		.cfi_startproc
 2331              		@ args = 0, pretend = 0, frame = 32
 2332              		@ frame_needed = 0, uses_anonymous_args = 0
 2333 0000 10B5     		push	{r4, lr}
 2334              		.cfi_def_cfa_offset 8
 2335              		.cfi_offset 4, -8
 2336              		.cfi_offset 14, -4
 2337 0002 88B0     		sub	sp, sp, #32
 2338              		.cfi_def_cfa_offset 40
1607:main.c        **** 	uint8 card_id[8] = {0xff, 0xff, 0xff, 0xff, 0xff, 0xff, 0xff, 0x02};
 2339              		.loc 1 1607 0
 2340 0004 0822     		movs	r2, #8
 2341 0006 2949     		ldr	r1, .L204
 2342 0008 02A8     		add	r0, sp, #8
 2343 000a FFF7FEFF 		bl	memcpy
 2344              	.LVL216:
1608:main.c        **** 	uint8 arr_time[4];
1609:main.c        **** 	uint32 time_tmp;
1610:main.c        ****     open_door_t openInfo_Key;
1611:main.c        **** 	
1612:main.c        **** 	
1613:main.c        **** 	//if ((0 == KEY_OPEN_Read()) && (cur_time > next_gprs_upload_time))
1614:main.c        **** 	if (0 == KEY_OPEN_Read())
 2345              		.loc 1 1614 0
 2346 000e FFF7FEFF 		bl	KEY_OPEN_Read
 2347              	.LVL217:
 2348 0012 0028     		cmp	r0, #0
 2349 0014 47D1     		bne	.L197
1615:main.c        **** 	{
1616:main.c        **** 		delay_with_ble(5);
 2350              		.loc 1 1616 0
 2351 0016 0530     		adds	r0, r0, #5
 2352 0018 FFF7FEFF 		bl	delay_with_ble
 2353              	.LVL218:
1617:main.c        **** 		if (0 == KEY_OPEN_Read())
 2354              		.loc 1 1617 0
 2355 001c FFF7FEFF 		bl	KEY_OPEN_Read
 2356              	.LVL219:
 2357 0020 041E     		subs	r4, r0, #0
 2358 0022 40D1     		bne	.L197
1618:main.c        **** 		{
1619:main.c        **** 			Led_GreenON();
 2359              		.loc 1 1619 0
 2360 0024 FFF7FEFF 		bl	Led_GreenON
 2361              	.LVL220:
1620:main.c        **** 			DoorOpen();
 2362              		.loc 1 1620 0
 2363 0028 FFF7FEFF 		bl	DoorOpen
 2364              	.LVL221:
1621:main.c        **** 			VoicePlay((uint8)Sound_VERIFY_SUCCESS);
 2365              		.loc 1 1621 0
 2366 002c 0A20     		movs	r0, #10
 2367 002e FFF7FEFF 		bl	VoicePlay
 2368              	.LVL222:
1622:main.c        **** 			
1623:main.c        **** 			time_tmp = (uint32)RTC_GetUnixTime();
ARM GAS  C:\Users\Administrator\AppData\Local\Temp\ccNQfmEa.s 			page 72


 2369              		.loc 1 1623 0
 2370 0032 FFF7FEFF 		bl	RTC_GetUnixTime
 2371              	.LVL223:
1624:main.c        **** 			if(time_tmp >= 1483203600)
 2372              		.loc 1 1624 0
 2373 0036 1E4B     		ldr	r3, .L204+4
 2374 0038 9842     		cmp	r0, r3
 2375 003a 2AD9     		bls	.L202
1625:main.c        **** 			{
1626:main.c        **** 				LONG2BYTE(time_tmp, arr_time);
 2376              		.loc 1 1626 0
 2377 003c 01AB     		add	r3, sp, #4
 2378 003e 020E     		lsrs	r2, r0, #24
 2379 0040 1A70     		strb	r2, [r3]
 2380 0042 020C     		lsrs	r2, r0, #16
 2381 0044 5A70     		strb	r2, [r3, #1]
 2382 0046 020A     		lsrs	r2, r0, #8
 2383 0048 9A70     		strb	r2, [r3, #2]
 2384 004a D870     		strb	r0, [r3, #3]
1627:main.c        **** 				memset(&openInfo_Key, 0, sizeof(open_door_t));
 2385              		.loc 1 1627 0
 2386 004c 1022     		movs	r2, #16
 2387 004e 2100     		movs	r1, r4
 2388 0050 04A8     		add	r0, sp, #16
 2389              	.LVL224:
 2390 0052 FFF7FEFF 		bl	memset
 2391              	.LVL225:
1628:main.c        **** 				memcpy(openInfo_Key.card_uid, card_id, CARD_UID_LEN);
 2392              		.loc 1 1628 0
 2393 0056 0822     		movs	r2, #8
 2394 0058 02A9     		add	r1, sp, #8
 2395 005a 04A8     		add	r0, sp, #16
 2396 005c FFF7FEFF 		bl	memcpy
 2397              	.LVL226:
1629:main.c        **** 				memcpy(openInfo_Key.open_time, arr_time, 4);
 2398              		.loc 1 1629 0
 2399 0060 019B     		ldr	r3, [sp, #4]
1630:main.c        **** 				memset(arr_time, 0, 4);
1631:main.c        **** 				memcpy(openInfo_Key.send_time, arr_time, 4);
1632:main.c        **** 				Write_OpenInfo(&openInfo_Key, HAND_OPEN);
 2400              		.loc 1 1632 0
 2401 0062 0821     		movs	r1, #8
 2402 0064 04A8     		add	r0, sp, #16
1629:main.c        **** 				memcpy(openInfo_Key.open_time, arr_time, 4);
 2403              		.loc 1 1629 0
 2404 0066 0693     		str	r3, [sp, #24]
1630:main.c        **** 				memset(arr_time, 0, 4);
 2405              		.loc 1 1630 0
 2406 0068 0194     		str	r4, [sp, #4]
1631:main.c        **** 				Write_OpenInfo(&openInfo_Key, HAND_OPEN);
 2407              		.loc 1 1631 0
 2408 006a 0794     		str	r4, [sp, #28]
 2409              		.loc 1 1632 0
 2410 006c FFF7FEFF 		bl	Write_OpenInfo
 2411              	.LVL227:
1633:main.c        **** 				
1634:main.c        **** 				if (gprs_state == NORMAL_COMM)
ARM GAS  C:\Users\Administrator\AppData\Local\Temp\ccNQfmEa.s 			page 73


 2412              		.loc 1 1634 0
 2413 0070 104B     		ldr	r3, .L204+8
 2414 0072 1B78     		ldrb	r3, [r3]
 2415 0074 052B     		cmp	r3, #5
 2416 0076 0CD1     		bne	.L202
1635:main.c        **** 				{
1636:main.c        **** 					time_tmp = (uint32)RTC_GetUnixTime();
 2417              		.loc 1 1636 0
 2418 0078 FFF7FEFF 		bl	RTC_GetUnixTime
 2419              	.LVL228:
1637:main.c        **** 					if (time_tmp > next_allupload_time)
 2420              		.loc 1 1637 0
 2421 007c 0E4B     		ldr	r3, .L204+12
 2422 007e 1A68     		ldr	r2, [r3]
 2423 0080 9042     		cmp	r0, r2
 2424 0082 06D9     		bls	.L202
1638:main.c        **** 					{
1639:main.c        **** 						next_allupload_time = time_tmp + 15;
1640:main.c        **** 						send_upload_open_info(&openInfo_Key, CARD_UID_LEN, HAND_OPEN);
 2425              		.loc 1 1640 0
 2426 0084 0822     		movs	r2, #8
1639:main.c        **** 						send_upload_open_info(&openInfo_Key, CARD_UID_LEN, HAND_OPEN);
 2427              		.loc 1 1639 0
 2428 0086 0F30     		adds	r0, r0, #15
 2429              	.LVL229:
 2430 0088 1860     		str	r0, [r3]
 2431              		.loc 1 1640 0
 2432 008a 1100     		movs	r1, r2
 2433 008c 04A8     		add	r0, sp, #16
 2434              	.LVL230:
 2435 008e FFF7FEFF 		bl	send_upload_open_info
 2436              	.LVL231:
 2437              	.L202:
1641:main.c        **** 					}						
1642:main.c        **** 				}
1643:main.c        **** 			}
1644:main.c        **** 			delay_with_ble(1000);
 2438              		.loc 1 1644 0
 2439 0092 FA20     		movs	r0, #250
 2440 0094 8000     		lsls	r0, r0, #2
 2441 0096 FFF7FEFF 		bl	delay_with_ble
 2442              	.LVL232:
1645:main.c        **** 			DoorClose();
 2443              		.loc 1 1645 0
 2444 009a FFF7FEFF 		bl	DoorClose
 2445              	.LVL233:
1646:main.c        **** 	        Led_SetState(LED_State);
 2446              		.loc 1 1646 0
 2447 009e 074B     		ldr	r3, .L204+16
 2448 00a0 587A     		ldrb	r0, [r3, #9]
 2449 00a2 FFF7FEFF 		bl	Led_SetState
 2450              	.LVL234:
 2451              	.L197:
1647:main.c        **** 		}
1648:main.c        **** 	}
1649:main.c        **** }
 2452              		.loc 1 1649 0
ARM GAS  C:\Users\Administrator\AppData\Local\Temp\ccNQfmEa.s 			page 74


 2453 00a6 08B0     		add	sp, sp, #32
 2454              		@ sp needed
 2455 00a8 10BD     		pop	{r4, pc}
 2456              	.L205:
 2457 00aa C046     		.align	2
 2458              	.L204:
 2459 00ac 00000000 		.word	.LANCHOR1
 2460 00b0 0FE46758 		.word	1483203599
 2461 00b4 00000000 		.word	gprs_state
 2462 00b8 00000000 		.word	next_allupload_time
 2463 00bc 00000000 		.word	.LANCHOR0
 2464              		.cfi_endproc
 2465              	.LFE93:
 2466              		.size	KeyOpen_Tick, .-KeyOpen_Tick
 2467              		.section	.text.FireAlarm_Tick,"ax",%progbits
 2468              		.align	1
 2469              		.global	FireAlarm_Tick
 2470              		.code	16
 2471              		.thumb_func
 2472              		.type	FireAlarm_Tick, %function
 2473              	FireAlarm_Tick:
 2474              	.LFB94:
1650:main.c        **** 
1651:main.c        **** #if 0
1652:main.c        **** //*************************************************************************************************
1653:main.c        **** // Function name	: FireOpen_Tick
1654:main.c        **** // Description		: 火警开门的处理
1655:main.c        **** // Parameter		: none
1656:main.c        **** // Return			: none
1657:main.c        **** //-------------------------------------------------------------------------------------------------
1658:main.c        **** // Info				: 
1659:main.c        **** //*************************************************************************************************
1660:main.c        **** void FireOpen_Tick(void)
1661:main.c        **** {
1662:main.c        **** 	uint8 card_id[8] = {0xFF, 0xFF, 0xFF, 0xFF, 0xFF, 0xFF, 0xFF, 0x01};
1663:main.c        **** 	uint8 arr_time[4];
1664:main.c        **** 	uint32 time_tmp;
1665:main.c        ****     open_door_t openInfo_FIRE;
1666:main.c        **** 	
1667:main.c        **** 	//if ((0 == FIRE_OPEN_Read()) && (cur_time > next_gprs_upload_time))
1668:main.c        **** 	if (0 == FIRE_OPEN_Read())
1669:main.c        **** 	{
1670:main.c        **** 		delay_with_ble(20);
1671:main.c        **** 		if (0 == FIRE_OPEN_Read())
1672:main.c        **** 		{
1673:main.c        **** 			Led_GreenON();
1674:main.c        **** 			DoorOpen();
1675:main.c        **** 			VoicePlay((uint8)Sound_VERIFY_SUCCESS);
1676:main.c        **** 	        	
1677:main.c        **** 			time_tmp = (uint32)RTC_GetUnixTime();
1678:main.c        **** 			if(time_tmp >= 1483203600)
1679:main.c        **** 			{
1680:main.c        **** 				memset(&openInfo_FIRE, 0, sizeof(open_door_t));
1681:main.c        **** 				memcpy(openInfo_FIRE.card_uid, card_id, CARD_UID_LEN);
1682:main.c        **** 				memcpy(openInfo_FIRE.open_time, arr_time, 4);
1683:main.c        **** 				memset(arr_time, 0, 4);
1684:main.c        **** 				memcpy(openInfo_FIRE.send_time, arr_time, 4);
ARM GAS  C:\Users\Administrator\AppData\Local\Temp\ccNQfmEa.s 			page 75


1685:main.c        **** 				Write_OpenInfo(&openInfo_FIRE, FIRE_OPEN);
1686:main.c        **** 				
1687:main.c        **** 				if (gprs_state == NORMAL_COMM)
1688:main.c        **** 				{
1689:main.c        **** 					time_tmp = (uint32)RTC_GetUnixTime();
1690:main.c        **** 					if(time_tmp > next_allupload_time)
1691:main.c        **** 					{
1692:main.c        **** 						next_allupload_time = time_tmp + 15;
1693:main.c        **** 						send_upload_open_info(&openInfo_FIRE, CARD_UID_LEN, FIRE_OPEN);
1694:main.c        **** 						firealarm_flag = 1;												 // 开启1min一次火警上报功能 不清除
1695:main.c        **** 					}						
1696:main.c        **** 				}
1697:main.c        **** 			}
1698:main.c        **** 			delay_with_ble(1000);
1699:main.c        **** 			DoorClose();
1700:main.c        **** 			Led_SetState(LED_State);								// LED的状态切回刷卡前的状态		//
1701:main.c        **** 		}
1702:main.c        **** 	}
1703:main.c        **** }
1704:main.c        **** #endif
1705:main.c        **** 
1706:main.c        **** #if FireAlarm_Open
1707:main.c        **** //*************************************************************************************************
1708:main.c        **** // Function name	: FireAlarm_Tick
1709:main.c        **** // Description		: 火警上报功能
1710:main.c        **** // Parameter		: none
1711:main.c        **** // Return			: none
1712:main.c        **** //-------------------------------------------------------------------------------------------------
1713:main.c        **** // Info				: 火警上报处理1min一次
1714:main.c        **** //*************************************************************************************************
1715:main.c        **** void FireAlarm_Tick(void)
1716:main.c        **** {
 2475              		.loc 1 1716 0
 2476              		.cfi_startproc
 2477              		@ args = 0, pretend = 0, frame = 32
 2478              		@ frame_needed = 0, uses_anonymous_args = 0
1717:main.c        **** 	uint8 card_id[8] = {0xFF, 0xFF, 0xFF, 0xFF, 0xFF, 0xFF, 0xFF, 0x01};
 2479              		.loc 1 1717 0
 2480 0000 0822     		movs	r2, #8
1716:main.c        **** 	uint8 card_id[8] = {0xFF, 0xFF, 0xFF, 0xFF, 0xFF, 0xFF, 0xFF, 0x01};
 2481              		.loc 1 1716 0
 2482 0002 70B5     		push	{r4, r5, r6, lr}
 2483              		.cfi_def_cfa_offset 16
 2484              		.cfi_offset 4, -16
 2485              		.cfi_offset 5, -12
 2486              		.cfi_offset 6, -8
 2487              		.cfi_offset 14, -4
 2488              		.loc 1 1717 0
 2489 0004 3749     		ldr	r1, .L216
1716:main.c        **** 	uint8 card_id[8] = {0xFF, 0xFF, 0xFF, 0xFF, 0xFF, 0xFF, 0xFF, 0x01};
 2490              		.loc 1 1716 0
 2491 0006 88B0     		sub	sp, sp, #32
 2492              		.cfi_def_cfa_offset 48
 2493              		.loc 1 1717 0
 2494 0008 8918     		adds	r1, r1, r2
 2495 000a 02A8     		add	r0, sp, #8
 2496 000c FFF7FEFF 		bl	memcpy
ARM GAS  C:\Users\Administrator\AppData\Local\Temp\ccNQfmEa.s 			page 76


 2497              	.LVL235:
1718:main.c        **** 	uint8 arr_time[4];
1719:main.c        **** 	uint32 time_tmp;
1720:main.c        ****     open_door_t openInfo_FIRE;
1721:main.c        **** 	
1722:main.c        **** 	if (0 == FIRE_OPEN_Read())
 2498              		.loc 1 1722 0
 2499 0010 FFF7FEFF 		bl	FIRE_OPEN_Read
 2500              	.LVL236:
 2501 0014 344C     		ldr	r4, .L216+4
 2502 0016 354D     		ldr	r5, .L216+8
 2503 0018 0028     		cmp	r0, #0
 2504 001a 5BD1     		bne	.L207
1723:main.c        **** 	{
1724:main.c        **** 		delay_with_ble(20);
 2505              		.loc 1 1724 0
 2506 001c 1430     		adds	r0, r0, #20
 2507 001e FFF7FEFF 		bl	delay_with_ble
 2508              	.LVL237:
1725:main.c        **** 		if (0 == FIRE_OPEN_Read())
 2509              		.loc 1 1725 0
 2510 0022 FFF7FEFF 		bl	FIRE_OPEN_Read
 2511              	.LVL238:
 2512 0026 0028     		cmp	r0, #0
 2513 0028 54D1     		bne	.L207
1726:main.c        **** 		{
1727:main.c        **** 			DoorOpen();
 2514              		.loc 1 1727 0
 2515 002a FFF7FEFF 		bl	DoorOpen
 2516              	.LVL239:
1728:main.c        **** 			
1729:main.c        **** 			if (((firealarm_flag == 0) && (FireCheck_time > 5000)) ||
 2517              		.loc 1 1729 0
 2518 002e 2378     		ldrb	r3, [r4]
 2519 0030 002B     		cmp	r3, #0
 2520 0032 01D1     		bne	.L208
 2521              		.loc 1 1729 0 is_stmt 0 discriminator 1
 2522 0034 2E4B     		ldr	r3, .L216+12
 2523 0036 02E0     		b	.L215
 2524              	.L208:
 2525              		.loc 1 1729 0 discriminator 3
 2526 0038 022B     		cmp	r3, #2
 2527 003a 18D1     		bne	.L210
1730:main.c        **** 				((firealarm_flag == 2) && (FireCheck_time > 60000)))
 2528              		.loc 1 1730 0 is_stmt 1
 2529 003c 2D4B     		ldr	r3, .L216+16
 2530              	.L215:
 2531 003e 2A68     		ldr	r2, [r5]
 2532 0040 9A42     		cmp	r2, r3
 2533 0042 14D9     		bls	.L210
1731:main.c        **** 			{
1732:main.c        **** 				time_tmp = (uint32)RTC_GetUnixTime();
 2534              		.loc 1 1732 0
 2535 0044 FFF7FEFF 		bl	RTC_GetUnixTime
 2536              	.LVL240:
1733:main.c        **** 				if (time_tmp > 1483203600)
 2537              		.loc 1 1733 0
ARM GAS  C:\Users\Administrator\AppData\Local\Temp\ccNQfmEa.s 			page 77


 2538 0048 2B4B     		ldr	r3, .L216+20
 2539 004a 9842     		cmp	r0, r3
 2540 004c 0FD9     		bls	.L210
1734:main.c        **** 				{
1735:main.c        **** 					if (gprs_state == NORMAL_COMM)
 2541              		.loc 1 1735 0
 2542 004e 2B4B     		ldr	r3, .L216+24
 2543 0050 1B78     		ldrb	r3, [r3]
 2544 0052 052B     		cmp	r3, #5
 2545 0054 0BD1     		bne	.L210
1736:main.c        **** 					{
1737:main.c        **** 						EnterGuide_State = ALARM_Fire;			// 火警1min上报一次     					//
 2546              		.loc 1 1737 0
 2547 0056 0126     		movs	r6, #1
 2548 0058 294B     		ldr	r3, .L216+28
1738:main.c        **** 						send_alarm_info(EnterGuide_State);
 2549              		.loc 1 1738 0
 2550 005a 3000     		movs	r0, r6
 2551              	.LVL241:
1737:main.c        **** 						send_alarm_info(EnterGuide_State);
 2552              		.loc 1 1737 0
 2553 005c 1E72     		strb	r6, [r3, #8]
 2554              		.loc 1 1738 0
 2555 005e FFF7FEFF 		bl	send_alarm_info
 2556              	.LVL242:
1739:main.c        **** 						FireCheck_time = 0;
 2557              		.loc 1 1739 0
 2558 0062 0023     		movs	r3, #0
 2559 0064 2B60     		str	r3, [r5]
1740:main.c        **** 						if (firealarm_flag == 0)
 2560              		.loc 1 1740 0
 2561 0066 2378     		ldrb	r3, [r4]
 2562 0068 002B     		cmp	r3, #0
 2563 006a 38D1     		bne	.L206
1741:main.c        **** 						{
1742:main.c        **** 							firealarm_flag = 1;
 2564              		.loc 1 1742 0
 2565 006c 2670     		strb	r6, [r4]
 2566              	.L210:
1743:main.c        **** 						}
1744:main.c        **** 					}
1745:main.c        **** 				}
1746:main.c        **** 			}
1747:main.c        **** 			
1748:main.c        **** 			if ((FireCheck_time > 15000) && (firealarm_flag == 1))
 2567              		.loc 1 1748 0
 2568 006e 254B     		ldr	r3, .L216+32
 2569 0070 2A68     		ldr	r2, [r5]
 2570 0072 9A42     		cmp	r2, r3
 2571 0074 33D9     		bls	.L206
 2572              		.loc 1 1748 0 is_stmt 0 discriminator 1
 2573 0076 2378     		ldrb	r3, [r4]
 2574 0078 012B     		cmp	r3, #1
 2575 007a 30D1     		bne	.L206
1749:main.c        **** 			{
1750:main.c        **** 				time_tmp = (uint32)RTC_GetUnixTime();
 2576              		.loc 1 1750 0 is_stmt 1
ARM GAS  C:\Users\Administrator\AppData\Local\Temp\ccNQfmEa.s 			page 78


 2577 007c FFF7FEFF 		bl	RTC_GetUnixTime
 2578              	.LVL243:
1751:main.c        **** 				if (time_tmp > 1483203600)
 2579              		.loc 1 1751 0
 2580 0080 1D4B     		ldr	r3, .L216+20
 2581 0082 9842     		cmp	r0, r3
 2582 0084 2BD9     		bls	.L206
1752:main.c        **** 				{
1753:main.c        **** 					if (gprs_state == NORMAL_COMM)
 2583              		.loc 1 1753 0
 2584 0086 1D4B     		ldr	r3, .L216+24
 2585 0088 1D78     		ldrb	r5, [r3]
 2586 008a 052D     		cmp	r5, #5
 2587 008c 27D1     		bne	.L206
1754:main.c        **** 					{
1755:main.c        **** 						LONG2BYTE(time_tmp, arr_time);				
 2588              		.loc 1 1755 0
 2589 008e 01AB     		add	r3, sp, #4
 2590 0090 020E     		lsrs	r2, r0, #24
 2591 0092 1A70     		strb	r2, [r3]
 2592 0094 020C     		lsrs	r2, r0, #16
 2593 0096 5A70     		strb	r2, [r3, #1]
 2594 0098 020A     		lsrs	r2, r0, #8
 2595 009a 9A70     		strb	r2, [r3, #2]
 2596 009c D870     		strb	r0, [r3, #3]
1756:main.c        **** 						memset(&openInfo_FIRE, 0, sizeof(open_door_t));
 2597              		.loc 1 1756 0
 2598 009e 1022     		movs	r2, #16
 2599 00a0 0021     		movs	r1, #0
 2600 00a2 04A8     		add	r0, sp, #16
 2601              	.LVL244:
 2602 00a4 FFF7FEFF 		bl	memset
 2603              	.LVL245:
1757:main.c        **** 						memcpy(openInfo_FIRE.card_uid, card_id, CARD_UID_LEN);
 2604              		.loc 1 1757 0
 2605 00a8 0822     		movs	r2, #8
 2606 00aa 02A9     		add	r1, sp, #8
 2607 00ac 04A8     		add	r0, sp, #16
 2608 00ae FFF7FEFF 		bl	memcpy
 2609              	.LVL246:
1758:main.c        **** 						memcpy(openInfo_FIRE.open_time, arr_time, 4);
 2610              		.loc 1 1758 0
 2611 00b2 019B     		ldr	r3, [sp, #4]
1759:main.c        **** 						memset(arr_time, 0, 4);
1760:main.c        **** 						memcpy(openInfo_FIRE.send_time, arr_time, 4);
1761:main.c        **** 						Write_OpenInfo(&openInfo_FIRE, FIRE_OPEN);
 2612              		.loc 1 1761 0
 2613 00b4 2900     		movs	r1, r5
1758:main.c        **** 						memcpy(openInfo_FIRE.open_time, arr_time, 4);
 2614              		.loc 1 1758 0
 2615 00b6 0693     		str	r3, [sp, #24]
1759:main.c        **** 						memset(arr_time, 0, 4);
 2616              		.loc 1 1759 0
 2617 00b8 0023     		movs	r3, #0
 2618              		.loc 1 1761 0
 2619 00ba 04A8     		add	r0, sp, #16
1759:main.c        **** 						memset(arr_time, 0, 4);
ARM GAS  C:\Users\Administrator\AppData\Local\Temp\ccNQfmEa.s 			page 79


 2620              		.loc 1 1759 0
 2621 00bc 0193     		str	r3, [sp, #4]
1760:main.c        **** 						Write_OpenInfo(&openInfo_FIRE, FIRE_OPEN);
 2622              		.loc 1 1760 0
 2623 00be 0793     		str	r3, [sp, #28]
 2624              		.loc 1 1761 0
 2625 00c0 FFF7FEFF 		bl	Write_OpenInfo
 2626              	.LVL247:
1762:main.c        **** 
1763:main.c        **** 						send_upload_open_info(&openInfo_FIRE, CARD_UID_LEN, FIRE_OPEN);
 2627              		.loc 1 1763 0
 2628 00c4 2A00     		movs	r2, r5
 2629 00c6 0821     		movs	r1, #8
 2630 00c8 04A8     		add	r0, sp, #16
 2631 00ca FFF7FEFF 		bl	send_upload_open_info
 2632              	.LVL248:
1764:main.c        **** 						firealarm_flag = 2;
 2633              		.loc 1 1764 0
 2634 00ce 0223     		movs	r3, #2
 2635 00d0 2370     		strb	r3, [r4]
 2636 00d2 04E0     		b	.L206
 2637              	.L207:
1765:main.c        **** 					}
1766:main.c        **** 				}
1767:main.c        ****  			}
1768:main.c        **** 		}
1769:main.c        **** 		else
1770:main.c        **** 		{
1771:main.c        **** 			FireCheck_time = 0;
 2638              		.loc 1 1771 0
 2639 00d4 0023     		movs	r3, #0
 2640 00d6 2B60     		str	r3, [r5]
1772:main.c        **** 			firealarm_flag = 0;
 2641              		.loc 1 1772 0
 2642 00d8 2370     		strb	r3, [r4]
1773:main.c        **** 			DoorClose();
 2643              		.loc 1 1773 0
 2644 00da FFF7FEFF 		bl	DoorClose
 2645              	.LVL249:
 2646              	.L206:
1774:main.c        **** 		}
1775:main.c        **** 	}
1776:main.c        **** 	else
1777:main.c        **** 	{
1778:main.c        **** 		FireCheck_time = 0;
1779:main.c        **** 		firealarm_flag = 0;
1780:main.c        **** 		DoorClose();
1781:main.c        **** 	}
1782:main.c        **** }
 2647              		.loc 1 1782 0
 2648 00de 08B0     		add	sp, sp, #32
 2649              		@ sp needed
 2650 00e0 70BD     		pop	{r4, r5, r6, pc}
 2651              	.L217:
 2652 00e2 C046     		.align	2
 2653              	.L216:
 2654 00e4 00000000 		.word	.LANCHOR1
ARM GAS  C:\Users\Administrator\AppData\Local\Temp\ccNQfmEa.s 			page 80


 2655 00e8 00000000 		.word	firealarm_flag
 2656 00ec 00000000 		.word	FireCheck_time
 2657 00f0 88130000 		.word	5000
 2658 00f4 60EA0000 		.word	60000
 2659 00f8 10E46758 		.word	1483203600
 2660 00fc 00000000 		.word	gprs_state
 2661 0100 00000000 		.word	.LANCHOR0
 2662 0104 983A0000 		.word	15000
 2663              		.cfi_endproc
 2664              	.LFE94:
 2665              		.size	FireAlarm_Tick, .-FireAlarm_Tick
 2666              		.section	.text.DefendAlarm_Tick,"ax",%progbits
 2667              		.align	1
 2668              		.global	DefendAlarm_Tick
 2669              		.code	16
 2670              		.thumb_func
 2671              		.type	DefendAlarm_Tick, %function
 2672              	DefendAlarm_Tick:
 2673              	.LFB95:
1783:main.c        **** #endif
1784:main.c        **** 
1785:main.c        **** #if 0	// 之前版本
1786:main.c        **** //*************************************************************************************************
1787:main.c        **** // Function name	: DefendAlarm_Tick
1788:main.c        **** // Description		: 防撬报警的处理
1789:main.c        **** // Parameter		: none
1790:main.c        **** // Return			: none
1791:main.c        **** //-------------------------------------------------------------------------------------------------
1792:main.c        **** // Info				: 
1793:main.c        **** //*************************************************************************************************
1794:main.c        **** void DefendAlarm_Tick(void)
1795:main.c        **** {
1796:main.c        **** 	//if ((0 == DEFEND_ALARM_Read()) && (cur_time > next_gprs_upload_time))
1797:main.c        **** 	if (0 == DEFEND_ALARM_Read())
1798:main.c        **** 	{
1799:main.c        **** 		delay_with_ble(20);
1800:main.c        **** 		if (0 == DEFEND_ALARM_Read())
1801:main.c        **** 		{
1802:main.c        **** 			if (gprs_state == NORMAL_COMM)
1803:main.c        **** 			{
1804:main.c        **** 
1805:main.c        **** 				EnterGuide_State = ALARM_Destroy;
1806:main.c        **** 				send_alarm_info(EnterGuide_State);
1807:main.c        **** 				next_gprs_upload_time = cur_time + 10;
1808:main.c        **** 			}
1809:main.c        **** 		}
1810:main.c        **** 	}
1811:main.c        **** }
1812:main.c        **** #endif
1813:main.c        **** 
1814:main.c        **** #if DefendAlarm_Open
1815:main.c        **** //*************************************************************************************************
1816:main.c        **** // Function name	: DefendAlarm_Tick
1817:main.c        **** // Description		: 防撬报警的处理
1818:main.c        **** // Parameter		: none
1819:main.c        **** // Return			: none
1820:main.c        **** //-------------------------------------------------------------------------------------------------
ARM GAS  C:\Users\Administrator\AppData\Local\Temp\ccNQfmEa.s 			page 81


1821:main.c        **** // Info				: 只是上报一次，装回撤销报警
1822:main.c        **** //*************************************************************************************************
1823:main.c        **** void DefendAlarm_Tick(void)
1824:main.c        **** {
 2674              		.loc 1 1824 0
 2675              		.cfi_startproc
 2676              		@ args = 0, pretend = 0, frame = 0
 2677              		@ frame_needed = 0, uses_anonymous_args = 0
 2678              	.LVL250:
 2679 0000 10B5     		push	{r4, lr}
 2680              		.cfi_def_cfa_offset 8
 2681              		.cfi_offset 4, -8
 2682              		.cfi_offset 14, -4
1825:main.c        **** 	uint32 time_tmp= 0;
1826:main.c        **** 	
1827:main.c        **** 	if (0 == DEFEND_ALARM_Read())
 2683              		.loc 1 1827 0
 2684 0002 FFF7FEFF 		bl	DEFEND_ALARM_Read
 2685              	.LVL251:
 2686 0006 0028     		cmp	r0, #0
 2687 0008 29D1     		bne	.L219
1828:main.c        **** 	{
1829:main.c        **** 		delay_with_ble(20);
 2688              		.loc 1 1829 0
 2689 000a 1430     		adds	r0, r0, #20
 2690 000c FFF7FEFF 		bl	delay_with_ble
 2691              	.LVL252:
1830:main.c        **** 		if (0 == DEFEND_ALARM_Read())
 2692              		.loc 1 1830 0
 2693 0010 FFF7FEFF 		bl	DEFEND_ALARM_Read
 2694              	.LVL253:
 2695 0014 0028     		cmp	r0, #0
 2696 0016 25D1     		bne	.L218
1831:main.c        **** 		{
1832:main.c        ****             if ((gprs_state != UPDATE_CONNECT) && (gprs_state != WAIT_UPDATE) && 
 2697              		.loc 1 1832 0
 2698 0018 134C     		ldr	r4, .L224
 2699 001a 2378     		ldrb	r3, [r4]
 2700 001c 093B     		subs	r3, r3, #9
 2701 001e 022B     		cmp	r3, #2
 2702 0020 09D9     		bls	.L222
1833:main.c        ****                 (gprs_state != UPDATE_FINISH))
1834:main.c        ****             {
1835:main.c        ****                 if (defendalarm_time > 2000)
 2703              		.loc 1 1835 0
 2704 0022 FA22     		movs	r2, #250
 2705 0024 114B     		ldr	r3, .L224+4
 2706 0026 D200     		lsls	r2, r2, #3
 2707 0028 1968     		ldr	r1, [r3]
 2708 002a 9142     		cmp	r1, r2
 2709 002c 03D9     		bls	.L222
1836:main.c        ****     			{
1837:main.c        ****     				defendalarm_time = 0;
 2710              		.loc 1 1837 0
 2711 002e 1860     		str	r0, [r3]
1838:main.c        ****     				VoicePlay((uint8)Sound_DEFENDALRM);				// 若拆锁 声音一直响                //
 2712              		.loc 1 1838 0
ARM GAS  C:\Users\Administrator\AppData\Local\Temp\ccNQfmEa.s 			page 82


 2713 0030 1330     		adds	r0, r0, #19
 2714 0032 FFF7FEFF 		bl	VoicePlay
 2715              	.LVL254:
 2716              	.L222:
1839:main.c        ****     			}
1840:main.c        ****             }
1841:main.c        ****             
1842:main.c        **** 			time_tmp = (uint32)RTC_GetUnixTime();
 2717              		.loc 1 1842 0
 2718 0036 FFF7FEFF 		bl	RTC_GetUnixTime
 2719              	.LVL255:
1843:main.c        **** 			if (time_tmp > 1483203600)
 2720              		.loc 1 1843 0
 2721 003a 0D4B     		ldr	r3, .L224+8
 2722 003c 9842     		cmp	r0, r3
 2723 003e 11D9     		bls	.L218
1844:main.c        **** 			{
1845:main.c        **** 				if ((next_defend_flag == 0) && (gprs_state == NORMAL_COMM))
 2724              		.loc 1 1845 0
 2725 0040 0C4B     		ldr	r3, .L224+12
 2726 0042 1A78     		ldrb	r2, [r3]
 2727 0044 002A     		cmp	r2, #0
 2728 0046 0DD1     		bne	.L218
 2729              		.loc 1 1845 0 is_stmt 0 discriminator 1
 2730 0048 2278     		ldrb	r2, [r4]
 2731 004a 052A     		cmp	r2, #5
 2732 004c 0AD1     		bne	.L218
 2733              	.LBB60:
 2734              	.LBB61:
1846:main.c        **** 				{
1847:main.c        **** 					// 报一次
1848:main.c        **** 					next_defend_flag = 1;						    // 上报服务器只是上报一次           //
1849:main.c        **** 					EnterGuide_State = ALARM_Destroy;
 2735              		.loc 1 1849 0 is_stmt 1
 2736 004e 0220     		movs	r0, #2
 2737              	.LVL256:
1848:main.c        **** 					EnterGuide_State = ALARM_Destroy;
 2738              		.loc 1 1848 0
 2739 0050 043A     		subs	r2, r2, #4
 2740 0052 1A70     		strb	r2, [r3]
 2741              		.loc 1 1849 0
 2742 0054 084B     		ldr	r3, .L224+16
 2743 0056 1872     		strb	r0, [r3, #8]
1850:main.c        **** 					send_alarm_info(EnterGuide_State);
 2744              		.loc 1 1850 0
 2745 0058 FFF7FEFF 		bl	send_alarm_info
 2746              	.LVL257:
 2747 005c 02E0     		b	.L218
 2748              	.LVL258:
 2749              	.L219:
 2750              	.LBE61:
 2751              	.LBE60:
1851:main.c        **** 				}
1852:main.c        **** 			}
1853:main.c        **** 		}
1854:main.c        **** 	}
1855:main.c        **** 	else
ARM GAS  C:\Users\Administrator\AppData\Local\Temp\ccNQfmEa.s 			page 83


1856:main.c        **** 	{
1857:main.c        **** 		next_defend_flag = 0;								        // 正常了 说明锁装回 恢复标志位     //
 2752              		.loc 1 1857 0
 2753 005e 0022     		movs	r2, #0
 2754 0060 044B     		ldr	r3, .L224+12
 2755 0062 1A70     		strb	r2, [r3]
 2756              	.LVL259:
 2757              	.L218:
1858:main.c        **** 	}
1859:main.c        **** }
 2758              		.loc 1 1859 0
 2759              		@ sp needed
 2760 0064 10BD     		pop	{r4, pc}
 2761              	.L225:
 2762 0066 C046     		.align	2
 2763              	.L224:
 2764 0068 00000000 		.word	gprs_state
 2765 006c 00000000 		.word	defendalarm_time
 2766 0070 10E46758 		.word	1483203600
 2767 0074 00000000 		.word	next_defend_flag
 2768 0078 00000000 		.word	.LANCHOR0
 2769              		.cfi_endproc
 2770              	.LFE95:
 2771              		.size	DefendAlarm_Tick, .-DefendAlarm_Tick
 2772              		.section	.text.Defend_Tick,"ax",%progbits
 2773              		.align	1
 2774              		.global	Defend_Tick
 2775              		.code	16
 2776              		.thumb_func
 2777              		.type	Defend_Tick, %function
 2778              	Defend_Tick:
 2779              	.LFB96:
1860:main.c        **** 
1861:main.c        **** //*************************************************************************************************
1862:main.c        **** // Function name	: Defend_Tick
1863:main.c        **** // Description		: 防撬报警在未联网时的处理
1864:main.c        **** // Parameter		: none
1865:main.c        **** // Return			: none
1866:main.c        **** //-------------------------------------------------------------------------------------------------
1867:main.c        **** // Info				: 断网期间不上报
1868:main.c        **** //*************************************************************************************************
1869:main.c        **** void Defend_Tick(void)
1870:main.c        **** {
 2780              		.loc 1 1870 0
 2781              		.cfi_startproc
 2782              		@ args = 0, pretend = 0, frame = 0
 2783              		@ frame_needed = 0, uses_anonymous_args = 0
 2784 0000 10B5     		push	{r4, lr}
 2785              		.cfi_def_cfa_offset 8
 2786              		.cfi_offset 4, -8
 2787              		.cfi_offset 14, -4
1871:main.c        ****     if (Code_Action_flag == 0)
 2788              		.loc 1 1871 0
 2789 0002 0D4B     		ldr	r3, .L230
 2790 0004 5B7B     		ldrb	r3, [r3, #13]
 2791 0006 002B     		cmp	r3, #0
 2792 0008 14D1     		bne	.L226
ARM GAS  C:\Users\Administrator\AppData\Local\Temp\ccNQfmEa.s 			page 84


1872:main.c        ****     {
1873:main.c        ****         if (0 == DEFEND_ALARM_Read())
 2793              		.loc 1 1873 0
 2794 000a FFF7FEFF 		bl	DEFEND_ALARM_Read
 2795              	.LVL260:
 2796 000e 0028     		cmp	r0, #0
 2797 0010 10D1     		bne	.L226
1874:main.c        **** 	    {
1875:main.c        **** 		    delay_with_ble(20);
 2798              		.loc 1 1875 0
 2799 0012 1430     		adds	r0, r0, #20
 2800 0014 FFF7FEFF 		bl	delay_with_ble
 2801              	.LVL261:
1876:main.c        **** 		    if (0 == DEFEND_ALARM_Read())
 2802              		.loc 1 1876 0
 2803 0018 FFF7FEFF 		bl	DEFEND_ALARM_Read
 2804              	.LVL262:
 2805 001c 0028     		cmp	r0, #0
 2806 001e 09D1     		bne	.L226
1877:main.c        ****             {
1878:main.c        ****                 if (defendalarm_time > 2000)
 2807              		.loc 1 1878 0
 2808 0020 FA22     		movs	r2, #250
 2809 0022 064B     		ldr	r3, .L230+4
 2810 0024 D200     		lsls	r2, r2, #3
 2811 0026 1968     		ldr	r1, [r3]
 2812 0028 9142     		cmp	r1, r2
 2813 002a 03D9     		bls	.L226
 2814              	.LBB64:
 2815              	.LBB65:
1879:main.c        ****     			{
1880:main.c        ****     				defendalarm_time = 0;
 2816              		.loc 1 1880 0
 2817 002c 1860     		str	r0, [r3]
1881:main.c        **** 				    VoicePlay((uint8)Sound_DEFENDALRM);				// 若拆锁 声音一直响 
 2818              		.loc 1 1881 0
 2819 002e 1330     		adds	r0, r0, #19
 2820 0030 FFF7FEFF 		bl	VoicePlay
 2821              	.LVL263:
 2822              	.L226:
 2823              	.LBE65:
 2824              	.LBE64:
1882:main.c        ****                 }
1883:main.c        ****             }
1884:main.c        ****         }
1885:main.c        ****     }
1886:main.c        **** }
 2825              		.loc 1 1886 0
 2826              		@ sp needed
 2827 0034 10BD     		pop	{r4, pc}
 2828              	.L231:
 2829 0036 C046     		.align	2
 2830              	.L230:
 2831 0038 00000000 		.word	.LANCHOR0
 2832 003c 00000000 		.word	defendalarm_time
 2833              		.cfi_endproc
 2834              	.LFE96:
ARM GAS  C:\Users\Administrator\AppData\Local\Temp\ccNQfmEa.s 			page 85


 2835              		.size	Defend_Tick, .-Defend_Tick
 2836              		.section	.text.sys_heartbeat,"ax",%progbits
 2837              		.align	1
 2838              		.global	sys_heartbeat
 2839              		.code	16
 2840              		.thumb_func
 2841              		.type	sys_heartbeat, %function
 2842              	sys_heartbeat:
 2843              	.LFB66:
 286:main.c        ****     uint16 i;
 2844              		.loc 1 286 0
 2845              		.cfi_startproc
 2846              		@ args = 0, pretend = 0, frame = 0
 2847              		@ frame_needed = 0, uses_anonymous_args = 0
 2848 0000 10B5     		push	{r4, lr}
 2849              		.cfi_def_cfa_offset 8
 2850              		.cfi_offset 4, -8
 2851              		.cfi_offset 14, -4
 289:main.c        ****     for (i = 0; i < 50; i++)
 2852              		.loc 1 289 0
 2853 0002 FFF7FEFF 		bl	WDT_FeedDog
 2854              	.LVL264:
 2855 0006 3224     		movs	r4, #50
 2856              	.LVL265:
 2857              	.L233:
 2858 0008 013C     		subs	r4, r4, #1
 2859              	.LVL266:
 2860 000a A4B2     		uxth	r4, r4
 292:main.c        **** 	}
 2861              		.loc 1 292 0 discriminator 3
 2862 000c FFF7FEFF 		bl	CyBle_ProcessEvents
 2863              	.LVL267:
 290:main.c        ****     {
 2864              		.loc 1 290 0 discriminator 3
 2865 0010 002C     		cmp	r4, #0
 2866 0012 F9D1     		bne	.L233
 296:main.c        ****     {
 2867              		.loc 1 296 0
 2868 0014 084B     		ldr	r3, .L240
 2869 0016 1B78     		ldrb	r3, [r3]
 2870 0018 012B     		cmp	r3, #1
 2871 001a 01D1     		bne	.L234
 298:main.c        ****     }
 2872              		.loc 1 298 0
 2873 001c FFF7FEFF 		bl	Protocol_CmdParse_BLE
 2874              	.LVL268:
 2875              	.L234:
 302:main.c        ****         (gprs_state != WAIT_UPDATE) && (gprs_state != UPDATE_FINISH))
 2876              		.loc 1 302 0
 2877 0020 064B     		ldr	r3, .L240+4
 2878 0022 1B78     		ldrb	r3, [r3]
 2879 0024 052B     		cmp	r3, #5
 2880 0026 06D0     		beq	.L232
 302:main.c        ****         (gprs_state != WAIT_UPDATE) && (gprs_state != UPDATE_FINISH))
 2881              		.loc 1 302 0 is_stmt 0 discriminator 1
 2882 0028 093B     		subs	r3, r3, #9
 2883 002a 022B     		cmp	r3, #2
ARM GAS  C:\Users\Administrator\AppData\Local\Temp\ccNQfmEa.s 			page 86


 2884 002c 03D9     		bls	.L232
 305:main.c        ****         Defend_Tick();
 2885              		.loc 1 305 0 is_stmt 1
 2886 002e FFF7FEFF 		bl	CARD_Tick
 2887              	.LVL269:
 306:main.c        ****     }
 2888              		.loc 1 306 0
 2889 0032 FFF7FEFF 		bl	Defend_Tick
 2890              	.LVL270:
 2891              	.L232:
 308:main.c        **** 
 2892              		.loc 1 308 0
 2893              		@ sp needed
 2894 0036 10BD     		pop	{r4, pc}
 2895              	.L241:
 2896              		.align	2
 2897              	.L240:
 2898 0038 00000000 		.word	BleCmdValidFlag
 2899 003c 00000000 		.word	gprs_state
 2900              		.cfi_endproc
 2901              	.LFE66:
 2902              		.size	sys_heartbeat, .-sys_heartbeat
 2903              		.section	.text.MgCheck_Tick,"ax",%progbits
 2904              		.align	1
 2905              		.global	MgCheck_Tick
 2906              		.code	16
 2907              		.thumb_func
 2908              		.type	MgCheck_Tick, %function
 2909              	MgCheck_Tick:
 2910              	.LFB97:
1887:main.c        **** #endif
1888:main.c        **** 
1889:main.c        **** #if MgCheck_Open
1890:main.c        **** //*************************************************************************************************
1891:main.c        **** // Function name	: MgCheck_Tick
1892:main.c        **** // Description		: 门磁检测报警的处理
1893:main.c        **** // Parameter		: none
1894:main.c        **** // Return			: none
1895:main.c        **** //-------------------------------------------------------------------------------------------------
1896:main.c        **** // Info				: 如果门一直开着，每15分钟上报一次.
1897:main.c        **** //*************************************************************************************************
1898:main.c        **** void MgCheck_Tick(void)
1899:main.c        **** {
 2911              		.loc 1 1899 0
 2912              		.cfi_startproc
 2913              		@ args = 0, pretend = 0, frame = 0
 2914              		@ frame_needed = 0, uses_anonymous_args = 0
 2915              	.LVL271:
 2916 0000 10B5     		push	{r4, lr}
 2917              		.cfi_def_cfa_offset 8
 2918              		.cfi_offset 4, -8
 2919              		.cfi_offset 14, -4
1900:main.c        **** 	uint32 time_tmp = 0;
1901:main.c        **** 	
1902:main.c        **** 	if (DoorOpened == GetDoorState())
 2920              		.loc 1 1902 0
 2921 0002 FFF7FEFF 		bl	GetDoorState
ARM GAS  C:\Users\Administrator\AppData\Local\Temp\ccNQfmEa.s 			page 87


 2922              	.LVL272:
 2923 0006 0F4C     		ldr	r4, .L247
 2924 0008 0128     		cmp	r0, #1
 2925 000a 18D1     		bne	.L243
1903:main.c        **** 	{
1904:main.c        **** 		delay_with_ble(20);
 2926              		.loc 1 1904 0
 2927 000c 1330     		adds	r0, r0, #19
 2928 000e FFF7FEFF 		bl	delay_with_ble
 2929              	.LVL273:
1905:main.c        **** 		if (DoorOpened == GetDoorState())
 2930              		.loc 1 1905 0
 2931 0012 FFF7FEFF 		bl	GetDoorState
 2932              	.LVL274:
 2933 0016 0128     		cmp	r0, #1
 2934 0018 11D1     		bne	.L243
1906:main.c        **** 		{
1907:main.c        **** 			if (MgCheck_time > 900000)
 2935              		.loc 1 1907 0
 2936 001a 0B4B     		ldr	r3, .L247+4
 2937 001c 2268     		ldr	r2, [r4]
 2938 001e 9A42     		cmp	r2, r3
 2939 0020 0FD9     		bls	.L242
1908:main.c        **** 			{
1909:main.c        **** 				time_tmp = (uint32)RTC_GetUnixTime();
 2940              		.loc 1 1909 0
 2941 0022 FFF7FEFF 		bl	RTC_GetUnixTime
 2942              	.LVL275:
1910:main.c        **** 				if (time_tmp > 1483203600)
 2943              		.loc 1 1910 0
 2944 0026 094B     		ldr	r3, .L247+8
 2945 0028 9842     		cmp	r0, r3
 2946 002a 0AD9     		bls	.L242
1911:main.c        **** 				{
1912:main.c        **** 					if (gprs_state == NORMAL_COMM)
 2947              		.loc 1 1912 0
 2948 002c 084B     		ldr	r3, .L247+12
 2949 002e 1B78     		ldrb	r3, [r3]
 2950 0030 052B     		cmp	r3, #5
 2951 0032 06D1     		bne	.L242
 2952              	.LBB68:
 2953              	.LBB69:
1913:main.c        **** 					{
1914:main.c        **** 						EnterGuide_State = ALARM_ErrDoorState;		// 门状态异常     					//
 2954              		.loc 1 1914 0
 2955 0034 0420     		movs	r0, #4
 2956              	.LVL276:
 2957 0036 074B     		ldr	r3, .L247+16
 2958 0038 1872     		strb	r0, [r3, #8]
1915:main.c        **** 						send_alarm_info(EnterGuide_State);
 2959              		.loc 1 1915 0
 2960 003a FFF7FEFF 		bl	send_alarm_info
 2961              	.LVL277:
 2962              	.L243:
 2963              	.LBE69:
 2964              	.LBE68:
1916:main.c        **** 						MgCheck_time = 0;
ARM GAS  C:\Users\Administrator\AppData\Local\Temp\ccNQfmEa.s 			page 88


1917:main.c        **** 					}
1918:main.c        **** 				}
1919:main.c        **** 			}
1920:main.c        **** 		}
1921:main.c        **** 		else
1922:main.c        **** 		{
1923:main.c        **** 			MgCheck_time = 0;
 2965              		.loc 1 1923 0
 2966 003e 0023     		movs	r3, #0
 2967 0040 2360     		str	r3, [r4]
 2968              	.L242:
1924:main.c        **** 		}
1925:main.c        **** 	}
1926:main.c        **** 	else
1927:main.c        **** 	{
1928:main.c        **** 		MgCheck_time = 0;
1929:main.c        **** 	}
1930:main.c        **** }
 2969              		.loc 1 1930 0
 2970              		@ sp needed
 2971 0042 10BD     		pop	{r4, pc}
 2972              	.L248:
 2973              		.align	2
 2974              	.L247:
 2975 0044 00000000 		.word	MgCheck_time
 2976 0048 A0BB0D00 		.word	900000
 2977 004c 10E46758 		.word	1483203600
 2978 0050 00000000 		.word	gprs_state
 2979 0054 00000000 		.word	.LANCHOR0
 2980              		.cfi_endproc
 2981              	.LFE97:
 2982              		.size	MgCheck_Tick, .-MgCheck_Tick
 2983              		.section	.text.PowerOnCheck_Tick,"ax",%progbits
 2984              		.align	1
 2985              		.global	PowerOnCheck_Tick
 2986              		.code	16
 2987              		.thumb_func
 2988              		.type	PowerOnCheck_Tick, %function
 2989              	PowerOnCheck_Tick:
 2990              	.LFB98:
1931:main.c        **** 
1932:main.c        **** #endif
1933:main.c        **** 
1934:main.c        **** #if PowerOnCheck_Open
1935:main.c        **** //*************************************************************************************************
1936:main.c        **** // Function name	: PowerOnCheck_Tick
1937:main.c        **** // Description		: 上电报警
1938:main.c        **** // Parameter		: none
1939:main.c        **** // Return			: none
1940:main.c        **** //-------------------------------------------------------------------------------------------------
1941:main.c        **** // Info				: 联网上报一次
1942:main.c        **** //*************************************************************************************************
1943:main.c        **** void PowerOnCheck_Tick(void)
1944:main.c        **** {
 2991              		.loc 1 1944 0
 2992              		.cfi_startproc
 2993              		@ args = 0, pretend = 0, frame = 0
ARM GAS  C:\Users\Administrator\AppData\Local\Temp\ccNQfmEa.s 			page 89


 2994              		@ frame_needed = 0, uses_anonymous_args = 0
 2995 0000 10B5     		push	{r4, lr}
 2996              		.cfi_def_cfa_offset 8
 2997              		.cfi_offset 4, -8
 2998              		.cfi_offset 14, -4
1945:main.c        **** 	uint32 time_tmp;
1946:main.c        **** 	
1947:main.c        **** 	if(1 == once_poweron_flag)
 2999              		.loc 1 1947 0
 3000 0002 0C4C     		ldr	r4, .L253
 3001 0004 2378     		ldrb	r3, [r4]
 3002 0006 012B     		cmp	r3, #1
 3003 0008 12D1     		bne	.L249
1948:main.c        **** 	{
1949:main.c        **** 		time_tmp = (uint32)RTC_GetUnixTime();
 3004              		.loc 1 1949 0
 3005 000a FFF7FEFF 		bl	RTC_GetUnixTime
 3006              	.LVL278:
1950:main.c        **** 		if (time_tmp > 1483203600)								// 初次上电延迟1h上报
 3007              		.loc 1 1950 0
 3008 000e 0A4B     		ldr	r3, .L253+4
 3009 0010 9842     		cmp	r0, r3
 3010 0012 0DD9     		bls	.L249
1951:main.c        **** 		{
1952:main.c        **** 			if (gprs_state == NORMAL_COMM)						// 上电 联网才上报
 3011              		.loc 1 1952 0
 3012 0014 094B     		ldr	r3, .L253+8
 3013 0016 1B78     		ldrb	r3, [r3]
 3014 0018 052B     		cmp	r3, #5
 3015 001a 09D1     		bne	.L249
 3016              	.LBB72:
 3017              	.LBB73:
1953:main.c        **** 			{
1954:main.c        **** 				EnterGuide_State = ALARM_PowerUp;				// 上电     					
 3018              		.loc 1 1954 0
 3019 001c 0720     		movs	r0, #7
 3020              	.LVL279:
 3021 001e 084B     		ldr	r3, .L253+12
 3022 0020 1872     		strb	r0, [r3, #8]
1955:main.c        **** 				send_alarm_info(EnterGuide_State);	
 3023              		.loc 1 1955 0
 3024 0022 FFF7FEFF 		bl	send_alarm_info
 3025              	.LVL280:
1956:main.c        **** 				once_poweron_flag = 2;							// 锁止上报						
 3026              		.loc 1 1956 0
 3027 0026 0223     		movs	r3, #2
1957:main.c        **** 				FireCheck_time = 0;								// 防止火警马上上报
 3028              		.loc 1 1957 0
 3029 0028 0022     		movs	r2, #0
1956:main.c        **** 				once_poweron_flag = 2;							// 锁止上报						
 3030              		.loc 1 1956 0
 3031 002a 2370     		strb	r3, [r4]
 3032              		.loc 1 1957 0
 3033 002c 054B     		ldr	r3, .L253+16
 3034 002e 1A60     		str	r2, [r3]
 3035              	.L249:
 3036              	.LBE73:
ARM GAS  C:\Users\Administrator\AppData\Local\Temp\ccNQfmEa.s 			page 90


 3037              	.LBE72:
1958:main.c        **** 			}
1959:main.c        **** 		}
1960:main.c        **** 	}
1961:main.c        **** }	
 3038              		.loc 1 1961 0
 3039              		@ sp needed
 3040 0030 10BD     		pop	{r4, pc}
 3041              	.L254:
 3042 0032 C046     		.align	2
 3043              	.L253:
 3044 0034 00000000 		.word	once_poweron_flag
 3045 0038 10E46758 		.word	1483203600
 3046 003c 00000000 		.word	gprs_state
 3047 0040 00000000 		.word	.LANCHOR0
 3048 0044 00000000 		.word	FireCheck_time
 3049              		.cfi_endproc
 3050              	.LFE98:
 3051              		.size	PowerOnCheck_Tick, .-PowerOnCheck_Tick
 3052              		.global	__aeabi_uidivmod
 3053              		.section	.text.UploadOpenInfo_Tick,"ax",%progbits
 3054              		.align	1
 3055              		.global	UploadOpenInfo_Tick
 3056              		.code	16
 3057              		.thumb_func
 3058              		.type	UploadOpenInfo_Tick, %function
 3059              	UploadOpenInfo_Tick:
 3060              	.LFB99:
1962:main.c        **** #endif
1963:main.c        **** 
1964:main.c        **** 
1965:main.c        **** 
1966:main.c        **** 
1967:main.c        **** //*************************************************************************************************
1968:main.c        **** // Function name	: UploadOpenInfo_Tick
1969:main.c        **** // Description		: 开门信息轮训上报处理
1970:main.c        **** // Parameter		: none
1971:main.c        **** // Return			: none
1972:main.c        **** //-------------------------------------------------------------------------------------------------
1973:main.c        **** // Info				: 
1974:main.c        **** //*************************************************************************************************
1975:main.c        **** #if 1
1976:main.c        **** void UploadOpenInfo_Tick(void)
1977:main.c        **** {
 3061              		.loc 1 1977 0
 3062              		.cfi_startproc
 3063              		@ args = 0, pretend = 0, frame = 296
 3064              		@ frame_needed = 0, uses_anonymous_args = 0
 3065              	.LVL281:
1978:main.c        **** 	uint16 OpenQty = 0;
1979:main.c        **** 	uint8  open_flag[256] = {0};
 3066              		.loc 1 1979 0
 3067 0000 8022     		movs	r2, #128
1977:main.c        **** 	uint16 OpenQty = 0;
 3068              		.loc 1 1977 0
 3069 0002 F0B5     		push	{r4, r5, r6, r7, lr}
 3070              		.cfi_def_cfa_offset 20
ARM GAS  C:\Users\Administrator\AppData\Local\Temp\ccNQfmEa.s 			page 91


 3071              		.cfi_offset 4, -20
 3072              		.cfi_offset 5, -16
 3073              		.cfi_offset 6, -12
 3074              		.cfi_offset 7, -8
 3075              		.cfi_offset 14, -4
 3076 0004 CBB0     		sub	sp, sp, #300
 3077              		.cfi_def_cfa_offset 320
 3078              		.loc 1 1979 0
 3079 0006 0AAE     		add	r6, sp, #40
 3080 0008 5200     		lsls	r2, r2, #1
 3081 000a 0021     		movs	r1, #0
 3082 000c 3000     		movs	r0, r6
 3083 000e FFF7FEFF 		bl	memset
 3084              	.LVL282:
1980:main.c        **** 	open_door_t repet_info;
1981:main.c        **** 	uint16 i;
1982:main.c        **** 	
1983:main.c        **** 	//1.定时轮询
1984:main.c        **** 	if (gprs_state == NORMAL_COMM)
 3085              		.loc 1 1984 0
 3086 0012 374B     		ldr	r3, .L278
 3087 0014 1A78     		ldrb	r2, [r3]
 3088 0016 0293     		str	r3, [sp, #8]
 3089 0018 052A     		cmp	r2, #5
 3090 001a 67D1     		bne	.L255
1985:main.c        **** 	{
1986:main.c        **** 		cur_time = (uint32)RTC_GetUnixTime();
 3091              		.loc 1 1986 0
 3092 001c FFF7FEFF 		bl	RTC_GetUnixTime
 3093              	.LVL283:
1987:main.c        **** 		if((cur_time > next_gprs_upload_time) && (uploadpolling_stop != 1))
 3094              		.loc 1 1987 0
 3095 0020 344B     		ldr	r3, .L278+4
1986:main.c        **** 		if((cur_time > next_gprs_upload_time) && (uploadpolling_stop != 1))
 3096              		.loc 1 1986 0
 3097 0022 354A     		ldr	r2, .L278+8
 3098              		.loc 1 1987 0
 3099 0024 1969     		ldr	r1, [r3, #16]
1986:main.c        **** 		if((cur_time > next_gprs_upload_time) && (uploadpolling_stop != 1))
 3100              		.loc 1 1986 0
 3101 0026 1060     		str	r0, [r2]
 3102 0028 0392     		str	r2, [sp, #12]
 3103 002a 0493     		str	r3, [sp, #16]
 3104              		.loc 1 1987 0
 3105 002c 8842     		cmp	r0, r1
 3106 002e 5DD9     		bls	.L255
 3107              		.loc 1 1987 0 is_stmt 0 discriminator 1
 3108 0030 324B     		ldr	r3, .L278+12
 3109 0032 1A78     		ldrb	r2, [r3]
 3110 0034 0593     		str	r3, [sp, #20]
 3111 0036 012A     		cmp	r2, #1
 3112 0038 58D0     		beq	.L255
1988:main.c        **** 		{		
1989:main.c        **** 
1990:main.c        **** 			OpenQty = Read_Open_Qty();
 3113              		.loc 1 1990 0 is_stmt 1
 3114 003a FFF7FEFF 		bl	Read_Open_Qty
ARM GAS  C:\Users\Administrator\AppData\Local\Temp\ccNQfmEa.s 			page 92


 3115              	.LVL284:
1991:main.c        **** 			OpenQty %= MAX_OPEN_NUM; 
1992:main.c        **** 			W25QXX_Read(open_flag, (OPEN_FLAG_BASE + openinfopage_offset*256), 256);
 3116              		.loc 1 1992 0
 3117 003e 8022     		movs	r2, #128
 3118 0040 2F4D     		ldr	r5, .L278+16
1990:main.c        **** 			OpenQty %= MAX_OPEN_NUM; 
 3119              		.loc 1 1990 0
 3120 0042 0190     		str	r0, [sp, #4]
 3121              	.LVL285:
 3122              		.loc 1 1992 0
 3123 0044 2988     		ldrh	r1, [r5]
 3124 0046 5200     		lsls	r2, r2, #1
 3125 0048 1A31     		adds	r1, r1, #26
 3126 004a 0902     		lsls	r1, r1, #8
 3127 004c 3000     		movs	r0, r6
 3128 004e FFF7FEFF 		bl	W25QXX_Read
 3129              	.LVL286:
1993:main.c        **** 			for(i = 0; i < 256; i++)
 3130              		.loc 1 1993 0
 3131 0052 8023     		movs	r3, #128
1992:main.c        **** 			for(i = 0; i < 256; i++)
 3132              		.loc 1 1992 0
 3133 0054 0024     		movs	r4, #0
 3134 0056 2F00     		movs	r7, r5
 3135              		.loc 1 1993 0
 3136 0058 5B00     		lsls	r3, r3, #1
 3137              	.LVL287:
 3138              	.L260:
1994:main.c        **** 			{
1995:main.c        **** 
1996:main.c        **** 				if((0x80 != (0x80 & open_flag[i])) && (open_flag[i] != 0) && (open_flag[i] != 0Xff))
 3139              		.loc 1 1996 0
 3140 005a 3257     		ldrsb	r2, [r6, r4]
 3141 005c A5B2     		uxth	r5, r4
 3142              	.LVL288:
 3143 005e 002A     		cmp	r2, #0
 3144 0060 16DC     		bgt	.L259
 3145              	.LVL289:
 3146 0062 0134     		adds	r4, r4, #1
 3147              	.LVL290:
1993:main.c        **** 			{
 3148              		.loc 1 1993 0 discriminator 2
 3149 0064 9C42     		cmp	r4, r3
 3150 0066 F8D1     		bne	.L260
1991:main.c        **** 			W25QXX_Read(open_flag, (OPEN_FLAG_BASE + openinfopage_offset*256), 256);
 3151              		.loc 1 1991 0
 3152 0068 2649     		ldr	r1, .L278+20
 3153 006a 0198     		ldr	r0, [sp, #4]
 3154 006c FFF7FEFF 		bl	__aeabi_uidivmod
 3155              	.LVL291:
 3156 0070 89B2     		uxth	r1, r1
1997:main.c        **** 					break;
1998:main.c        **** 			}
1999:main.c        **** 			DBG_SOFT_PutStr("\n after find loop,i = ");
2000:main.c        **** 			DBG_SOFT_PrintfHex(&i,1,16);		
2001:main.c        **** 			
ARM GAS  C:\Users\Administrator\AppData\Local\Temp\ccNQfmEa.s 			page 93


2002:main.c        **** 			if(i == 256)
2003:main.c        **** 			{
2004:main.c        **** 				if((openinfopage_offset + 1) < (OpenQty/256 + (OpenQty%256 ? 1:0)))
 3157              		.loc 1 2004 0
 3158 0072 CAB2     		uxtb	r2, r1
 3159 0074 501E     		subs	r0, r2, #1
 3160 0076 8241     		sbcs	r2, r2, r0
 3161 0078 3B88     		ldrh	r3, [r7]
 3162 007a 090A     		lsrs	r1, r1, #8
 3163 007c 0133     		adds	r3, r3, #1
 3164 007e 5118     		adds	r1, r2, r1
 3165 0080 8B42     		cmp	r3, r1
 3166 0082 01DA     		bge	.L277
2005:main.c        **** 					openinfopage_offset++;								//非最后一页
 3167              		.loc 1 2005 0
 3168 0084 3B80     		strh	r3, [r7]
 3169 0086 29E0     		b	.L262
 3170              	.L277:
2006:main.c        **** 				else
2007:main.c        **** 				{
2008:main.c        **** 					uploadpolling_stop = 1;
 3171              		.loc 1 2008 0
 3172 0088 0123     		movs	r3, #1
 3173 008a 059A     		ldr	r2, [sp, #20]
 3174 008c 1370     		strb	r3, [r2]
 3175 008e 25E0     		b	.L262
 3176              	.LVL292:
 3177              	.L259:
2009:main.c        **** 					DBG_SOFT_PutStr("\npolling_stop: ");
2010:main.c        **** 					DBG_SOFT_PrintfHex(&uploadpolling_stop,1,16);
2011:main.c        **** 				}
2012:main.c        **** 				DBG_SOFT_PutStr("\nsend_upload_open_info loop,page_offset= ");
2013:main.c        **** 			DBG_SOFT_PrintfHex(&openinfopage_offset,1,16);
2014:main.c        **** 			}
2015:main.c        **** 			else
2016:main.c        **** 			{	
2017:main.c        **** 				//==W25QXX_Read((uint8 *)&repet_info, (OPEN_INFO_BASE + i*sizeof(open_door_t)), sizeof(open_doo
2018:main.c        **** 			#if 1
2019:main.c        **** 			if((i == last_index) && (i != 0))
 3178              		.loc 1 2019 0
 3179 0090 1D4B     		ldr	r3, .L278+24
 3180 0092 1A88     		ldrh	r2, [r3]
 3181 0094 AA42     		cmp	r2, r5
 3182 0096 27D1     		bne	.L263
 3183              		.loc 1 2019 0 is_stmt 0 discriminator 1
 3184 0098 002D     		cmp	r5, #0
 3185 009a 25D0     		beq	.L263
2020:main.c        **** 			{
2021:main.c        **** 				uploadflag_cnt++;
 3186              		.loc 1 2021 0 is_stmt 1
 3187 009c 1B4F     		ldr	r7, .L278+28
 3188 009e 3B78     		ldrb	r3, [r7]
 3189 00a0 0133     		adds	r3, r3, #1
 3190 00a2 DBB2     		uxtb	r3, r3
 3191 00a4 3B70     		strb	r3, [r7]
2022:main.c        **** 				if(uploadflag_cnt >= 5)
 3192              		.loc 1 2022 0
ARM GAS  C:\Users\Administrator\AppData\Local\Temp\ccNQfmEa.s 			page 94


 3193 00a6 042B     		cmp	r3, #4
 3194 00a8 09D9     		bls	.L264
2023:main.c        **** 				{
2024:main.c        **** 					DBG_SOFT_PutStr("\nset opendateflag：");
2025:main.c        **** 					DBG_SOFT_PrintfHex((uint8 *)&uploadflag_cnt,1,16);
2026:main.c        **** 					Write_Open_UploadFlag(i + openinfopage_offset*256, TRUE);		// 重复超过5次 置位该位 
 3195              		.loc 1 2026 0
 3196 00aa 154B     		ldr	r3, .L278+16
 3197 00ac 0121     		movs	r1, #1
 3198 00ae 1888     		ldrh	r0, [r3]
 3199 00b0 0002     		lsls	r0, r0, #8
 3200 00b2 2818     		adds	r0, r5, r0
 3201 00b4 80B2     		uxth	r0, r0
 3202 00b6 FFF7FEFF 		bl	Write_Open_UploadFlag
 3203              	.LVL293:
2027:main.c        **** 					uploadflag_cnt = 0;
 3204              		.loc 1 2027 0
 3205 00ba 0023     		movs	r3, #0
 3206 00bc 3B70     		strb	r3, [r7]
 3207              	.L264:
2028:main.c        **** 				}
2029:main.c        **** 			}
2030:main.c        **** 			else
2031:main.c        **** 			{
2032:main.c        **** 				last_index = i;
2033:main.c        **** 			}
2034:main.c        **** 			#endif
2035:main.c        **** 				Read_OpenInfo(i, (open_door_t *)&repet_info);
 3208              		.loc 1 2035 0
 3209 00be 06A9     		add	r1, sp, #24
 3210 00c0 2800     		movs	r0, r5
 3211 00c2 FFF7FEFF 		bl	Read_OpenInfo
 3212              	.LVL294:
2036:main.c        **** 				DBG_SOFT_PutStr("\n repet_info :\n");
2037:main.c        **** 				DBG_SOFT_PrintfHex((uint8 *)&repet_info,sizeof(open_door_t),16);
2038:main.c        **** 				//2.条件上报
2039:main.c        **** 				if (gprs_state == NORMAL_COMM)
 3213              		.loc 1 2039 0
 3214 00c6 029B     		ldr	r3, [sp, #8]
 3215 00c8 1B78     		ldrb	r3, [r3]
 3216 00ca 052B     		cmp	r3, #5
 3217 00cc 06D1     		bne	.L262
2040:main.c        **** 				{	
2041:main.c        **** 					send_upload_open_info(&repet_info, CARD_UID_LEN, (open_flag[i] & 0x7f));
 3218              		.loc 1 2041 0
 3219 00ce 325D     		ldrb	r2, [r6, r4]
 3220 00d0 7A33     		adds	r3, r3, #122
 3221 00d2 1A40     		ands	r2, r3
 3222 00d4 0821     		movs	r1, #8
 3223 00d6 06A8     		add	r0, sp, #24
 3224 00d8 FFF7FEFF 		bl	send_upload_open_info
 3225              	.LVL295:
 3226              	.L262:
2042:main.c        **** 					//next_gprs_upload_time = cur_time + 10;
2043:main.c        **** 				}
2044:main.c        **** 			}
2045:main.c        **** 			next_gprs_upload_time = cur_time + 60;					//轮训一次就加1min间隔 不管是否上报
ARM GAS  C:\Users\Administrator\AppData\Local\Temp\ccNQfmEa.s 			page 95


 3227              		.loc 1 2045 0
 3228 00dc 039B     		ldr	r3, [sp, #12]
 3229 00de 049A     		ldr	r2, [sp, #16]
 3230 00e0 1B68     		ldr	r3, [r3]
 3231 00e2 3C33     		adds	r3, r3, #60
 3232 00e4 1361     		str	r3, [r2, #16]
2046:main.c        **** 		}	
2047:main.c        **** 	}
2048:main.c        **** }
 3233              		.loc 1 2048 0
 3234 00e6 01E0     		b	.L255
 3235              	.LVL296:
 3236              	.L263:
2032:main.c        **** 			}
 3237              		.loc 1 2032 0
 3238 00e8 1D80     		strh	r5, [r3]
 3239 00ea E8E7     		b	.L264
 3240              	.LVL297:
 3241              	.L255:
 3242              		.loc 1 2048 0
 3243 00ec 4BB0     		add	sp, sp, #300
 3244              		@ sp needed
 3245 00ee F0BD     		pop	{r4, r5, r6, r7, pc}
 3246              	.L279:
 3247              		.align	2
 3248              	.L278:
 3249 00f0 00000000 		.word	gprs_state
 3250 00f4 00000000 		.word	.LANCHOR0
 3251 00f8 00000000 		.word	cur_time
 3252 00fc 00000000 		.word	uploadpolling_stop
 3253 0100 00000000 		.word	openinfopage_offset
 3254 0104 88130000 		.word	5000
 3255 0108 00000000 		.word	last_index
 3256 010c 00000000 		.word	uploadflag_cnt
 3257              		.cfi_endproc
 3258              	.LFE99:
 3259              		.size	UploadOpenInfo_Tick, .-UploadOpenInfo_Tick
 3260              		.section	.text.Set_DeviceMacAndName,"ax",%progbits
 3261              		.align	1
 3262              		.global	Set_DeviceMacAndName
 3263              		.code	16
 3264              		.thumb_func
 3265              		.type	Set_DeviceMacAndName, %function
 3266              	Set_DeviceMacAndName:
 3267              	.LFB100:
2049:main.c        **** #endif
2050:main.c        **** 
2051:main.c        **** //*************************************************************************************************
2052:main.c        **** // Function name	: Set_DeviceMacAndName
2053:main.c        **** // Description		: 设置设备的Mac和Name
2054:main.c        **** // Parameter		: mac	: mac地址
2055:main.c        **** //					: name	: 广播名称
2056:main.c        **** // Return			: none
2057:main.c        **** //-------------------------------------------------------------------------------------------------
2058:main.c        **** // Info				: 
2059:main.c        **** //*************************************************************************************************
2060:main.c        **** void Set_DeviceMacAndName(char8 *mac, char8 *name)
ARM GAS  C:\Users\Administrator\AppData\Local\Temp\ccNQfmEa.s 			page 96


2061:main.c        **** {
 3268              		.loc 1 2061 0
 3269              		.cfi_startproc
 3270              		@ args = 0, pretend = 0, frame = 16
 3271              		@ frame_needed = 0, uses_anonymous_args = 0
 3272              	.LVL298:
 3273 0000 F0B5     		push	{r4, r5, r6, r7, lr}
 3274              		.cfi_def_cfa_offset 20
 3275              		.cfi_offset 4, -20
 3276              		.cfi_offset 5, -16
 3277              		.cfi_offset 6, -12
 3278              		.cfi_offset 7, -8
 3279              		.cfi_offset 14, -4
 3280 0002 0C00     		movs	r4, r1
2062:main.c        **** 	uint8 i;
2063:main.c        **** 	uint8 local_name[13] = {0x52u, 0x4Bu, 0x4Au, 0x30u, 0x36u,0x30u, 0x31u, 0x30u, 0x31u, 0x30u, 0x31u
 3281              		.loc 1 2063 0
 3282 0004 1749     		ldr	r1, .L291
 3283              	.LVL299:
2061:main.c        **** 	uint8 i;
 3284              		.loc 1 2061 0
 3285 0006 85B0     		sub	sp, sp, #20
 3286              		.cfi_def_cfa_offset 40
2061:main.c        **** 	uint8 i;
 3287              		.loc 1 2061 0
 3288 0008 0500     		movs	r5, r0
 3289              		.loc 1 2063 0
 3290 000a 0D22     		movs	r2, #13
 3291 000c 1031     		adds	r1, r1, #16
 3292 000e 6846     		mov	r0, sp
 3293              	.LVL300:
 3294 0010 FFF7FEFF 		bl	memcpy
 3295              	.LVL301:
 3296 0014 0023     		movs	r3, #0
2064:main.c        **** 	
2065:main.c        **** 	if (NULL != mac)
 3297              		.loc 1 2065 0
 3298 0016 9D42     		cmp	r5, r3
 3299 0018 05D1     		bne	.L284
 3300              	.L285:
 3301 001a 0023     		movs	r3, #0
2066:main.c        **** 	{
2067:main.c        **** 		for (i = 0; i < 6; i++) 
2068:main.c        **** 		{
2069:main.c        **** 			cyBle_deviceAddress.bdAddr[i]   	= mac[5 - i];
2070:main.c        **** 			cyBle_discoveryParam.directAddr[i]	= mac[5 - i];
2071:main.c        **** 		}	
2072:main.c        **** 	}
2073:main.c        **** 	
2074:main.c        **** 	if (NULL != name)
 3302              		.loc 1 2074 0
 3303 001c 9C42     		cmp	r4, r3
 3304 001e 1FD0     		beq	.L280
2075:main.c        **** 	{
2076:main.c        **** 		for (i = 0; i < 10; i++)
2077:main.c        **** 		{	
2078:main.c        **** 			cyBle_discoveryData.advData[8 + i] 	 = name[i];
ARM GAS  C:\Users\Administrator\AppData\Local\Temp\ccNQfmEa.s 			page 97


 3305              		.loc 1 2078 0 discriminator 3
 3306 0020 114D     		ldr	r5, .L291+4
 3307              	.LVL302:
2079:main.c        **** 			cyBle_scanRspData.scanRspData[5 + i] = name[i];
 3308              		.loc 1 2079 0 discriminator 3
 3309 0022 1248     		ldr	r0, .L291+8
 3310 0024 0CE0     		b	.L287
 3311              	.LVL303:
 3312              	.L284:
2069:main.c        **** 			cyBle_discoveryParam.directAddr[i]	= mac[5 - i];
 3313              		.loc 1 2069 0 discriminator 3
 3314 0026 124E     		ldr	r6, .L291+12
2070:main.c        **** 		}	
 3315              		.loc 1 2070 0 discriminator 3
 3316 0028 1248     		ldr	r0, .L291+16
 3317              	.L288:
 3318              	.LVL304:
 3319 002a E918     		adds	r1, r5, r3
2069:main.c        **** 			cyBle_discoveryParam.directAddr[i]	= mac[5 - i];
 3320              		.loc 1 2069 0 discriminator 3
 3321 002c 4F79     		ldrb	r7, [r1, #5]
 3322 002e 5A42     		rsbs	r2, r3, #0
 3323 0030 B754     		strb	r7, [r6, r2]
2070:main.c        **** 		}	
 3324              		.loc 1 2070 0 discriminator 3
 3325 0032 4979     		ldrb	r1, [r1, #5]
 3326 0034 1218     		adds	r2, r2, r0
 3327 0036 013B     		subs	r3, r3, #1
 3328              	.LVL305:
 3329 0038 D171     		strb	r1, [r2, #7]
2067:main.c        **** 		{
 3330              		.loc 1 2067 0 discriminator 3
 3331 003a 9A1D     		adds	r2, r3, #6
 3332 003c F5D1     		bne	.L288
 3333 003e ECE7     		b	.L285
 3334              	.LVL306:
 3335              	.L287:
2078:main.c        **** 			cyBle_scanRspData.scanRspData[5 + i] = name[i];
 3336              		.loc 1 2078 0 discriminator 3
 3337 0040 E15C     		ldrb	r1, [r4, r3]
 3338 0042 5A19     		adds	r2, r3, r5
 3339 0044 1172     		strb	r1, [r2, #8]
 3340              		.loc 1 2079 0 discriminator 3
 3341 0046 E15C     		ldrb	r1, [r4, r3]
 3342 0048 1A18     		adds	r2, r3, r0
 3343 004a 5171     		strb	r1, [r2, #5]
2080:main.c        **** 			local_name[3 + i] = name[i];
 3344              		.loc 1 2080 0 discriminator 3
 3345 004c 1A00     		movs	r2, r3
 3346 004e E15C     		ldrb	r1, [r4, r3]
 3347 0050 6A44     		add	r2, r2, sp
 3348 0052 0133     		adds	r3, r3, #1
 3349              	.LVL307:
 3350 0054 D170     		strb	r1, [r2, #3]
2076:main.c        **** 		{	
 3351              		.loc 1 2076 0 discriminator 3
 3352 0056 0A2B     		cmp	r3, #10
ARM GAS  C:\Users\Administrator\AppData\Local\Temp\ccNQfmEa.s 			page 98


 3353 0058 F2D1     		bne	.L287
2081:main.c        **** 		}
2082:main.c        **** 		CyBle_GapSetLocalName((char8 *)local_name);
 3354              		.loc 1 2082 0
 3355 005a 6846     		mov	r0, sp
 3356 005c FFF7FEFF 		bl	CyBle_GapSetLocalName
 3357              	.LVL308:
 3358              	.L280:
2083:main.c        **** 	}
2084:main.c        **** }
 3359              		.loc 1 2084 0
 3360 0060 05B0     		add	sp, sp, #20
 3361              		@ sp needed
 3362              	.LVL309:
 3363 0062 F0BD     		pop	{r4, r5, r6, r7, pc}
 3364              	.L292:
 3365              		.align	2
 3366              	.L291:
 3367 0064 00000000 		.word	.LANCHOR1
 3368 0068 00000000 		.word	cyBle_discoveryData
 3369 006c 00000000 		.word	cyBle_scanRspData
 3370 0070 00000000 		.word	cyBle_deviceAddress
 3371 0074 00000000 		.word	cyBle_discoveryParam
 3372              		.cfi_endproc
 3373              	.LFE100:
 3374              		.size	Set_DeviceMacAndName, .-Set_DeviceMacAndName
 3375              		.section	.text.mac_conver_name,"ax",%progbits
 3376              		.align	1
 3377              		.global	mac_conver_name
 3378              		.code	16
 3379              		.thumb_func
 3380              		.type	mac_conver_name, %function
 3381              	mac_conver_name:
 3382              	.LFB101:
2085:main.c        **** 
2086:main.c        **** //*************************************************************************************************
2087:main.c        **** // Function name	: mac_conver_name
2088:main.c        **** // Description		: 根据mac生成name
2089:main.c        **** // Parameter		: mac	: mac地址
2090:main.c        **** //					: name	: 广播名称
2091:main.c        **** // Return			: none
2092:main.c        **** //-------------------------------------------------------------------------------------------------
2093:main.c        **** // Info				: 
2094:main.c        **** //*************************************************************************************************
2095:main.c        **** #if 0
2096:main.c        **** void mac_conver_name(uint8 mac[], uint8 name[])
2097:main.c        **** {
2098:main.c        **** 	uint8 i;
2099:main.c        **** 	for (i = 0; i < 4; i++)
2100:main.c        **** 	{
2101:main.c        **** 		name[9 - i*2] 	 = (mac[5 - i] % 0x10) + 0x30;
2102:main.c        **** 		name[9 - i*2 -1] = (mac[5 - i] / 0x10) + 0x30;
2103:main.c        **** 	}
2104:main.c        **** }
2105:main.c        **** #endif
2106:main.c        **** 
2107:main.c        **** void mac_conver_name(uint8 mac[], uint8 name[])
ARM GAS  C:\Users\Administrator\AppData\Local\Temp\ccNQfmEa.s 			page 99


2108:main.c        **** {
 3383              		.loc 1 2108 0
 3384              		.cfi_startproc
 3385              		@ args = 0, pretend = 0, frame = 32
 3386              		@ frame_needed = 0, uses_anonymous_args = 0
 3387              	.LVL310:
 3388 0000 F0B5     		push	{r4, r5, r6, r7, lr}
 3389              		.cfi_def_cfa_offset 20
 3390              		.cfi_offset 4, -20
 3391              		.cfi_offset 5, -16
 3392              		.cfi_offset 6, -12
 3393              		.cfi_offset 7, -8
 3394              		.cfi_offset 14, -4
 3395 0002 89B0     		sub	sp, sp, #36
 3396              		.cfi_def_cfa_offset 56
2109:main.c        **** 	uint8 i;
2110:main.c        **** 	uint8 mac_inflash[6] = {0};
 3397              		.loc 1 2110 0
 3398 0004 04AE     		add	r6, sp, #16
2108:main.c        **** 	uint8 i;
 3399              		.loc 1 2108 0
 3400 0006 0191     		str	r1, [sp, #4]
 3401              		.loc 1 2110 0
 3402 0008 0622     		movs	r2, #6
 3403 000a 0021     		movs	r1, #0
 3404              	.LVL311:
2108:main.c        **** 	uint8 i;
 3405              		.loc 1 2108 0
 3406 000c 0500     		movs	r5, r0
 3407              		.loc 1 2110 0
 3408 000e 3000     		movs	r0, r6
 3409              	.LVL312:
 3410 0010 FFF7FEFF 		bl	memset
 3411              	.LVL313:
2111:main.c        **** 	uint8 flag = 0;
 3412              		.loc 1 2111 0
 3413 0014 0021     		movs	r1, #0
 3414 0016 02AB     		add	r3, sp, #8
2112:main.c        **** 	uint8 tmpmac[8] = {0};
 3415              		.loc 1 2112 0
 3416 0018 06AC     		add	r4, sp, #24
2111:main.c        **** 	uint8 flag = 0;
 3417              		.loc 1 2111 0
 3418 001a DF1D     		adds	r7, r3, #7
 3419              		.loc 1 2112 0
 3420 001c 0822     		movs	r2, #8
 3421 001e 2000     		movs	r0, r4
2111:main.c        **** 	uint8 flag = 0;
 3422              		.loc 1 2111 0
 3423 0020 D971     		strb	r1, [r3, #7]
 3424              		.loc 1 2112 0
 3425 0022 FFF7FEFF 		bl	memset
 3426              	.LVL314:
2113:main.c        **** 	
2114:main.c        **** 	#if 0
2115:main.c        **** 	//0.手动写mac信息入flash的方式  省去蓝牙配置--50套 **云端更新程序要去掉
2116:main.c        **** 	W25QXX_Write(mac, MAC_BASE, (uint16)sizeof(mac_inflash));
ARM GAS  C:\Users\Administrator\AppData\Local\Temp\ccNQfmEa.s 			page 100


2117:main.c        **** 	flag = 1;
2118:main.c        **** 	W25QXX_Write(&flag, MACFLAG_BASE, 1);
2119:main.c        **** 	flag = 0;
2120:main.c        **** 	#endif
2121:main.c        **** 	
2122:main.c        **** 	//1.读flash 有没有生产初始化过
2123:main.c        **** 	W25QXX_Read(&flag, MACFLAG_BASE, 1);
 3427              		.loc 1 2123 0
 3428 0026 0122     		movs	r2, #1
 3429 0028 2149     		ldr	r1, .L300
 3430 002a 3800     		movs	r0, r7
 3431 002c FFF7FEFF 		bl	W25QXX_Read
 3432              	.LVL315:
2124:main.c        **** 	W25QXX_Read(mac_inflash, MAC_BASE, (uint16)sizeof(mac_inflash));
 3433              		.loc 1 2124 0
 3434 0030 C921     		movs	r1, #201
 3435 0032 0622     		movs	r2, #6
 3436 0034 4902     		lsls	r1, r1, #9
 3437 0036 3000     		movs	r0, r6
 3438 0038 FFF7FEFF 		bl	W25QXX_Read
 3439              	.LVL316:
2125:main.c        **** 	if((mac_inflash[0] == 0x06) && (mac_inflash[1] == 0x01) && (flag == 1))
 3440              		.loc 1 2125 0
 3441 003c 3278     		ldrb	r2, [r6]
 3442 003e 062A     		cmp	r2, #6
 3443 0040 09D1     		bne	.L294
 3444              		.loc 1 2125 0 is_stmt 0 discriminator 1
 3445 0042 7378     		ldrb	r3, [r6, #1]
 3446 0044 012B     		cmp	r3, #1
 3447 0046 06D1     		bne	.L294
 3448              		.loc 1 2125 0 discriminator 2
 3449 0048 3B78     		ldrb	r3, [r7]
 3450 004a 012B     		cmp	r3, #1
 3451 004c 03D1     		bne	.L294
2126:main.c        **** 	{
2127:main.c        **** 		memcpy(mac, mac_inflash, sizeof(mac_inflash));
 3452              		.loc 1 2127 0 is_stmt 1
 3453 004e 3100     		movs	r1, r6
 3454 0050 2800     		movs	r0, r5
 3455 0052 FFF7FEFF 		bl	memcpy
 3456              	.LVL317:
 3457              	.L294:
2128:main.c        **** 	}	
2129:main.c        **** 
2130:main.c        **** 	//2.没有 用这里默认的 手动mac(08)
2131:main.c        **** 	#if  0
2132:main.c        **** 	for (i = 0; i < 4; i++)
2133:main.c        **** 	{
2134:main.c        **** 		if((mac[i] >= 0x41)&&(mac[i] <= 0x46))
2135:main.c        **** 		{
2136:main.c        **** 			name[9 - i*2] 	 = (mac[5 - i] % 0x10);
2137:main.c        **** 			name[9 - i*2 -1] = (mac[5 - i] / 0x10);
2138:main.c        **** 		}
2139:main.c        **** 		else
2140:main.c        **** 		{
2141:main.c        **** 			name[9 - i*2] 	 = (mac[5 - i] % 0x10) + 0x30;
2142:main.c        **** 			name[9 - i*2 -1] = (mac[5 - i] / 0x10) + 0x30;
ARM GAS  C:\Users\Administrator\AppData\Local\Temp\ccNQfmEa.s 			page 101


2143:main.c        **** 		}
2144:main.c        **** 	}		
2145:main.c        **** 	#endif
2146:main.c        **** 	tmpmac[7] = mac[5] % 0x10;
 3458              		.loc 1 2146 0
 3459 0056 6A79     		ldrb	r2, [r5, #5]
 3460 0058 0F23     		movs	r3, #15
 3461 005a 1100     		movs	r1, r2
2147:main.c        **** 	tmpmac[6] = mac[5] / 0x10;
 3462              		.loc 1 2147 0
 3463 005c 1209     		lsrs	r2, r2, #4
 3464 005e A271     		strb	r2, [r4, #6]
2148:main.c        **** 	tmpmac[5] = mac[4] % 0x10;
 3465              		.loc 1 2148 0
 3466 0060 2A79     		ldrb	r2, [r5, #4]
2146:main.c        **** 	tmpmac[6] = mac[5] / 0x10;
 3467              		.loc 1 2146 0
 3468 0062 1940     		ands	r1, r3
 3469 0064 E171     		strb	r1, [r4, #7]
 3470              		.loc 1 2148 0
 3471 0066 1100     		movs	r1, r2
2149:main.c        **** 	tmpmac[4] = mac[4] / 0x10;
 3472              		.loc 1 2149 0
 3473 0068 1209     		lsrs	r2, r2, #4
 3474 006a 2271     		strb	r2, [r4, #4]
2150:main.c        **** 	tmpmac[3] = mac[3] % 0x10;
 3475              		.loc 1 2150 0
 3476 006c EA78     		ldrb	r2, [r5, #3]
2148:main.c        **** 	tmpmac[4] = mac[4] / 0x10;
 3477              		.loc 1 2148 0
 3478 006e 1940     		ands	r1, r3
