ARM GAS  C:\Users\Administrator\AppData\Local\Temp\ccNQfmEa.s 			page 1


   1              		.syntax unified
   2              		.cpu cortex-m0
   3              		.fpu softvfp
   4              		.eabi_attribute 20, 1
   5              		.eabi_attribute 21, 1
   6              		.eabi_attribute 23, 3
   7              		.eabi_attribute 24, 1
   8              		.eabi_attribute 25, 1
   9              		.eabi_attribute 26, 1
  10              		.eabi_attribute 30, 4
  11              		.eabi_attribute 34, 0
  12              		.eabi_attribute 18, 4
  13              		.thumb
  14              		.syntax unified
  15              		.file	"main.c"
  16              		.text
  17              	.Ltext0:
  18              		.cfi_sections	.debug_frame
  19              		.section	.text.AppCallback,"ax",%progbits
  20              		.align	1
  21              		.global	AppCallback
  22              		.code	16
  23              		.thumb_func
  24              		.type	AppCallback, %function
  25              	AppCallback:
  26              	.LFB63:
  27              		.file 1 "main.c"
   1:main.c        **** //*************************************************************************************************
   2:main.c        **** // File name		: main.c
   3:main.c        **** // Description		: 门禁系统的相关函数
   4:main.c        **** // Author			: Keno
   5:main.c        **** // Date				: 2016.8.8
   6:main.c        **** // Version			: V02
   7:main.c        **** //-------------------------------------------------------------------------------------------------
   8:main.c        **** // Info				: 
   9:main.c        **** //*************************************************************************************************
  10:main.c        **** #include "main.h"
  11:main.c        **** 
  12:main.c        **** 
  13:main.c        **** //*************************************************************************************************
  14:main.c        **** // Function name	: AppCallback
  15:main.c        **** // Description		: 蓝牙的回调函数
  16:main.c        **** // Parameter		: event
  17:main.c        **** //					: eventParam
  18:main.c        **** // Return			: none
  19:main.c        **** //-------------------------------------------------------------------------------------------------
  20:main.c        **** // Info				: 
  21:main.c        **** //*************************************************************************************************
  22:main.c        **** void AppCallback(uint32 event, void* eventParam)
  23:main.c        **** {
  28              		.loc 1 23 0
  29              		.cfi_startproc
  30              		@ args = 0, pretend = 0, frame = 16
  31              		@ frame_needed = 0, uses_anonymous_args = 0
  32              	.LVL0:
  33 0000 7FB5     		push	{r0, r1, r2, r3, r4, r5, r6, lr}
  34              		.cfi_def_cfa_offset 32
ARM GAS  C:\Users\Administrator\AppData\Local\Temp\ccNQfmEa.s 			page 2


  35              		.cfi_offset 0, -32
  36              		.cfi_offset 1, -28
  37              		.cfi_offset 2, -24
  38              		.cfi_offset 3, -20
  39              		.cfi_offset 4, -16
  40              		.cfi_offset 5, -12
  41              		.cfi_offset 6, -8
  42              		.cfi_offset 14, -4
  43              		.loc 1 23 0
  44 0002 0B00     		movs	r3, r1
  24:main.c        ****     CYBLE_API_RESULT_T apiResult;
  25:main.c        ****     CYBLE_GAP_BD_ADDR_T localAddr;
  26:main.c        ****     CYBLE_GAP_AUTH_INFO_T *authInfo;
  27:main.c        ****     CYBLE_BLESS_PWR_IN_DB_T bleSsPowerLevel;
  28:main.c        ****     uint8 i;
  29:main.c        **** 	CYBLE_GATTS_WRITE_CMD_REQ_PARAM_T *locationWCRP = (CYBLE_GATTS_WRITE_CMD_REQ_PARAM_T *)eventParam;
  30:main.c        **** 	
  31:main.c        ****     switch (event)
  45              		.loc 1 31 0
  46 0004 2828     		cmp	r0, #40
  47 0006 29D0     		beq	.L3
  48 0008 02D8     		bhi	.L4
  49 000a 0128     		cmp	r0, #1
  50 000c 09D0     		beq	.L5
  51 000e 2CE0     		b	.L1
  52              	.L4:
  53 0010 4C28     		cmp	r0, #76
  54 0012 27D0     		beq	.L6
  55 0014 4E28     		cmp	r0, #78
  56 0016 28D1     		bne	.L1
  32:main.c        **** 	{
  33:main.c        ****         /**********************************************************
  34:main.c        ****         *                       General Events
  35:main.c        ****         ***********************************************************/
  36:main.c        **** 		case CYBLE_EVT_STACK_ON: /* This event received when component is Started */
  37:main.c        **** 			/* Set Tx Power Level for advertising and connection channels */
  38:main.c        ****             bleSsPowerLevel.blePwrLevelInDbm = CYBLE_LL_PWR_LVL_NEG_12_DBM;
  39:main.c        ****             bleSsPowerLevel.bleSsChId = CYBLE_LL_ADV_CH_TYPE;
  40:main.c        ****             (void) CyBle_SetTxPowerLevel (&bleSsPowerLevel);
  41:main.c        **** 			
  42:main.c        **** 			if (Read_Mac_Flag == 0)
  43:main.c        **** 			{
  44:main.c        ****             	DBG_PRINTF("Bluetooth On, StartAdvertisement with addr: \n");
  45:main.c        ****             	localAddr.type = 0u;
  46:main.c        ****             	CyBle_GetDeviceAddress(&localAddr);
  47:main.c        ****             	for(i = CYBLE_GAP_BD_ADDR_SIZE; i > 0u; i--)
  48:main.c        ****             	{
  49:main.c        ****                 	DBG_PRINTF("%2.2x", localAddr.bdAddr[i-1]);
  50:main.c        ****             	}
  51:main.c        **** 				DBG_PRINTF("\n");
  52:main.c        **** 				
  53:main.c        **** 				for (i = CYBLE_GAP_BD_ADDR_SIZE; i > 0u; i--)
  54:main.c        **** 				{
  55:main.c        **** 					Mac_Addr[CYBLE_GAP_BD_ADDR_SIZE - i] = localAddr.bdAddr[i - 1];
  56:main.c        **** 				}
  57:main.c        **** 				Read_Mac_Flag = 1;				
  58:main.c        **** 				
ARM GAS  C:\Users\Administrator\AppData\Local\Temp\ccNQfmEa.s 			page 3


  59:main.c        **** 			}
  60:main.c        **** 			
  61:main.c        **** 			/* Enter into discoverable mode so that remote can search it. */
  62:main.c        ****             apiResult = CyBle_GappStartAdvertisement(CYBLE_ADVERTISING_FAST);
  63:main.c        ****             if(apiResult != CYBLE_ERROR_OK)
  64:main.c        ****             {
  65:main.c        ****                 DBG_PRINTF("StartAdvertisement API Error: %d \r\n", apiResult);
  66:main.c        ****             }
  67:main.c        **** 			DBG_PRINTF("\r\n");
  68:main.c        ****             break;
  69:main.c        **** 		case CYBLE_EVT_TIMEOUT: 
  70:main.c        ****             DBG_PRINTF("CYBLE_EVT_TIMEOUT: %x \r\n", *(CYBLE_TO_REASON_CODE_T *)eventParam);
  71:main.c        **** 			break;
  72:main.c        **** 		case CYBLE_EVT_HARDWARE_ERROR:    /* This event indicates that some internal HW error has occurre
  73:main.c        ****             DBG_PRINTF("Hardware Error \r\n");
  74:main.c        **** 			break;
  75:main.c        ****         case CYBLE_EVT_HCI_STATUS:
  76:main.c        ****             DBG_PRINTF("CYBLE_EVT_HCI_STATUS: %x \r\n", *(uint8 *)eventParam);
  77:main.c        **** 			break;
  78:main.c        **** 
  79:main.c        ****         /**********************************************************
  80:main.c        ****         *                       GAP Events
  81:main.c        ****         ***********************************************************/
  82:main.c        ****         case CYBLE_EVT_GAP_AUTH_REQ:
  83:main.c        ****             DBG_PRINTF("CYBLE_EVT_AUTH_REQ: security=%x, bonding=%x, ekeySize=%x, err=%x \r\n", 
  84:main.c        ****                 (*(CYBLE_GAP_AUTH_INFO_T *)eventParam).security, 
  85:main.c        ****                 (*(CYBLE_GAP_AUTH_INFO_T *)eventParam).bonding, 
  86:main.c        ****                 (*(CYBLE_GAP_AUTH_INFO_T *)eventParam).ekeySize, 
  87:main.c        ****                 (*(CYBLE_GAP_AUTH_INFO_T *)eventParam).authErr);
  88:main.c        ****             break;
  89:main.c        ****         case CYBLE_EVT_GAP_PASSKEY_ENTRY_REQUEST:
  90:main.c        ****             DBG_PRINTF("CYBLE_EVT_PASSKEY_ENTRY_REQUEST \r\n");
  91:main.c        ****             break;
  92:main.c        ****         case CYBLE_EVT_GAP_PASSKEY_DISPLAY_REQUEST:
  93:main.c        ****             DBG_PRINTF("CYBLE_EVT_PASSKEY_DISPLAY_REQUEST %6.6ld \r\n", *(uint32 *)eventParam);
  94:main.c        ****             break;
  95:main.c        ****         case CYBLE_EVT_GAP_AUTH_COMPLETE:
  96:main.c        ****             authInfo = (CYBLE_GAP_AUTH_INFO_T *)eventParam;
  97:main.c        ****             (void)authInfo;
  98:main.c        ****             DBG_PRINTF("AUTH_COMPLETE: security:%x, bonding:%x, ekeySize:%x, authErr %x \r\n", 
  99:main.c        ****                                     authInfo->security, authInfo->bonding, authInfo->ekeySize, auth
 100:main.c        ****             break;
 101:main.c        ****         case CYBLE_EVT_GAP_AUTH_FAILED:
 102:main.c        ****             DBG_PRINTF("CYBLE_EVT_AUTH_FAILED: %x \r\n", *(uint8 *)eventParam);
 103:main.c        ****             break;
 104:main.c        ****         case CYBLE_EVT_GAPP_ADVERTISEMENT_START_STOP:
 105:main.c        ****             DBG_PRINTF("CYBLE_EVT_GAPP_ADVERTISEMENT_START_STOP, state: %x\r\n", CyBle_GetState());
 106:main.c        ****             if(CYBLE_STATE_DISCONNECTED == CyBle_GetState())
 107:main.c        ****             {   
 108:main.c        ****                 /* Fast and slow advertising period complete, go to low power  
 109:main.c        ****                  * mode (Hibernate mode) and wait for an external
 110:main.c        ****                  * user event to wake up the device again */
 111:main.c        ****                 DBG_PRINTF("Hibernate \r\n");
 112:main.c        ****             #if (DEBUG_UART_ENABLED == ENABLED)
 113:main.c        ****             	//while((UART_DEB_SpiUartGetTxBufferSize() + UART_DEB_GET_TX_FIFO_SR_VALID) != 0);
 114:main.c        ****             #endif /* (DEBUG_UART_ENABLED == ENABLED) */
 115:main.c        ****             }
ARM GAS  C:\Users\Administrator\AppData\Local\Temp\ccNQfmEa.s 			page 4


 116:main.c        ****             break;
 117:main.c        ****         case CYBLE_EVT_GAP_DEVICE_CONNECTED:
 118:main.c        ****             DBG_PRINTF("CYBLE_EVT_GAP_DEVICE_CONNECTED: %x \r\n", *(uint8 *)eventParam);
 119:main.c        ****             break;
 120:main.c        ****         case CYBLE_EVT_GAP_DEVICE_DISCONNECTED:
 121:main.c        ****             DBG_PRINTF("CYBLE_EVT_GAP_DEVICE_DISCONNECTED\r\n");
 122:main.c        ****             /* Put the device to discoverable mode so that remote can search it. */
 123:main.c        ****             apiResult = CyBle_GappStartAdvertisement(CYBLE_ADVERTISING_FAST);
 124:main.c        ****             if(apiResult != CYBLE_ERROR_OK)
 125:main.c        ****             {
 126:main.c        ****                 DBG_PRINTF("StartAdvertisement API Error: %x \r\n", apiResult);
 127:main.c        ****             }
 128:main.c        ****             break;
 129:main.c        ****         case CYBLE_EVT_GAP_ENCRYPT_CHANGE:
 130:main.c        ****             DBG_PRINTF("ENCRYPT_CHANGE: %x \r\n", *(uint8 *)eventParam);
 131:main.c        ****             break;
 132:main.c        ****         case CYBLE_EVT_GAPC_CONNECTION_UPDATE_COMPLETE:
 133:main.c        ****             DBG_PRINTF("CYBLE_EVT_CONNECTION_UPDATE_COMPLETE: %x \r\n", *(uint8 *)eventParam);
 134:main.c        ****             break;
 135:main.c        ****         case CYBLE_EVT_GAP_KEYINFO_EXCHNGE_CMPLT:
 136:main.c        ****             DBG_PRINTF("CYBLE_EVT_GAP_KEYINFO_EXCHNGE_CMPLT \r\n");
 137:main.c        ****             break;
 138:main.c        **** 
 139:main.c        ****         /**********************************************************
 140:main.c        ****         *                       GATT Events
 141:main.c        ****         ***********************************************************/
 142:main.c        ****         case CYBLE_EVT_GATT_CONNECT_IND:
 143:main.c        ****             DBG_PRINTF("CYBLE_EVT_GATT_CONNECT_IND: %x, %x \r\n", cyBle_connHandle.attId, cyBle_con
 144:main.c        ****             break;
 145:main.c        ****         case CYBLE_EVT_GATT_DISCONNECT_IND:
 146:main.c        ****             DBG_PRINTF("CYBLE_EVT_GATT_DISCONNECT_IND \r\n");
 147:main.c        ****             break;
 148:main.c        ****         case CYBLE_EVT_GATTS_WRITE_REQ:
 149:main.c        ****             DBG_PRINTF("CYBLE_EVT_GATT_WRITE_REQ: %x = ",((CYBLE_GATTS_WRITE_REQ_PARAM_T *)eventPar
 150:main.c        ****             (void)CyBle_GattsWriteRsp(((CYBLE_GATTS_WRITE_REQ_PARAM_T *)eventParam)->connHandle);
 151:main.c        ****             break;
 152:main.c        **** 		case CYBLE_EVT_GATTS_WRITE_CMD_REQ: 
 153:main.c        **** 			DBG_PRINTF("CYBLE_EVT_GATT_WRITE_CMD_REQ: = 0x%03xu \n",((CYBLE_GATTS_WRITE_CMD_REQ_PARAM_T *)ev
 154:main.c        **** 			//该属性的句柄值:
 155:main.c        **** 			DBG_PRINTF("locationWCRP->handleValPair.value.attrHandle =0x%03xu\n",locationWCRP->handleValPair
 156:main.c        **** 			//数据长度:
 157:main.c        **** 			DBG_PRINTF("locationWCRP->handleValPair.value.len = %d\n",locationWCRP->handleValPair.value.len)
 158:main.c        **** 			//数据actualen长度:
 159:main.c        **** 			DBG_PRINTF("locationWCRP->handleValPair.value.actualLen = 0x%x\n",locationWCRP->handleValPair.va
 160:main.c        **** 			//数据内容:
 161:main.c        **** 			//DBG_SOFT_PrintfHex(locationWCRP->handleValPair.value.val,locationWCRP->handleValPair.value.len
 162:main.c        **** 			BleRecv(locationWCRP->handleValPair.value.val, locationWCRP->handleValPair.value.len);
  57              		.loc 1 162 0
  58 0018 0989     		ldrh	r1, [r1, #8]
  59              	.LVL1:
  60 001a 5868     		ldr	r0, [r3, #4]
  61              	.LVL2:
  62 001c FFF7FEFF 		bl	BleRecv
  63              	.LVL3:
 163:main.c        ****             break;
 164:main.c        ****         case CYBLE_EVT_GATTS_INDICATION_ENABLED:
 165:main.c        ****             DBG_PRINTF("CYBLE_EVT_GATTS_INDICATION_ENABLED \r\n");
ARM GAS  C:\Users\Administrator\AppData\Local\Temp\ccNQfmEa.s 			page 5


 166:main.c        ****             break;
 167:main.c        ****         case CYBLE_EVT_GATTS_INDICATION_DISABLED:
 168:main.c        ****             DBG_PRINTF("CYBLE_EVT_GATTS_INDICATION_DISABLED \r\n");
 169:main.c        ****             break;
 170:main.c        ****         case CYBLE_EVT_GATTS_READ_CHAR_VAL_ACCESS_REQ:
 171:main.c        ****             /* Triggered on server side when client sends read request and when
 172:main.c        ****             * characteristic has CYBLE_GATT_DB_ATTR_CHAR_VAL_RD_EVENT property set.
 173:main.c        ****             * This event could be ignored by application unless it need to response
 174:main.c        ****             * by error response which needs to be set in gattErrorCode field of
 175:main.c        ****             * event parameter. */
 176:main.c        ****             DBG_PRINTF("CYBLE_EVT_GATTS_READ_CHAR_VAL_ACCESS_REQ: handle: %x \r\n", 
 177:main.c        ****                 ((CYBLE_GATTS_CHAR_VAL_READ_REQ_T *)eventParam)->attrHandle);
 178:main.c        ****             break;
 179:main.c        **** 
 180:main.c        ****         /**********************************************************
 181:main.c        ****         *                       Other Events
 182:main.c        ****         ***********************************************************/
 183:main.c        ****         case CYBLE_EVT_PENDING_FLASH_WRITE:
 184:main.c        ****             /* Inform application that flash write is pending. Stack internal data 
 185:main.c        ****             * structures are modified and require to be stored in Flash using 
 186:main.c        ****             * CyBle_StoreBondingData() */
 187:main.c        ****             DBG_PRINTF("CYBLE_EVT_PENDING_FLASH_WRITE\r\n");
 188:main.c        ****             break;
 189:main.c        **** 
 190:main.c        **** 		default:
 191:main.c        ****             DBG_PRINTF("OTHER event: %lx \r\n", event);
 192:main.c        **** 			break;
 193:main.c        **** 	}
 194:main.c        **** }
  64              		.loc 1 194 0
  65 0020 23E0     		b	.L1
  66              	.LVL4:
  67              	.L5:
  68              	.LBB4:
  69              	.LBB5:
  38:main.c        ****             bleSsPowerLevel.bleSsChId = CYBLE_LL_ADV_CH_TYPE;
  70              		.loc 1 38 0
  71 0022 0223     		movs	r3, #2
  72 0024 01A8     		add	r0, sp, #4
  73              	.LVL5:
  74 0026 0370     		strb	r3, [r0]
  39:main.c        ****             (void) CyBle_SetTxPowerLevel (&bleSsPowerLevel);
  75              		.loc 1 39 0
  76 0028 0023     		movs	r3, #0
  77 002a 4370     		strb	r3, [r0, #1]
  40:main.c        **** 			
  78              		.loc 1 40 0
  79 002c FFF7FEFF 		bl	CyBle_SetTxPowerLevel
  80              	.LVL6:
  42:main.c        **** 			{
  81              		.loc 1 42 0
  82 0030 0E4A     		ldr	r2, .L12
  83 0032 1378     		ldrb	r3, [r2]
  84 0034 1600     		movs	r6, r2
  85 0036 DCB2     		uxtb	r4, r3
  86 0038 002C     		cmp	r4, #0
  87 003a 0FD1     		bne	.L3
ARM GAS  C:\Users\Administrator\AppData\Local\Temp\ccNQfmEa.s 			page 6


  45:main.c        ****             	CyBle_GetDeviceAddress(&localAddr);
  88              		.loc 1 45 0
  89 003c 02AD     		add	r5, sp, #8
  46:main.c        ****             	for(i = CYBLE_GAP_BD_ADDR_SIZE; i > 0u; i--)
  90              		.loc 1 46 0
  91 003e 2800     		movs	r0, r5
  45:main.c        ****             	CyBle_GetDeviceAddress(&localAddr);
  92              		.loc 1 45 0
  93 0040 AC71     		strb	r4, [r5, #6]
  46:main.c        ****             	for(i = CYBLE_GAP_BD_ADDR_SIZE; i > 0u; i--)
  94              		.loc 1 46 0
  95 0042 FFF7FEFF 		bl	CyBle_GetDeviceAddress
  96              	.LVL7:
  97 0046 2300     		movs	r3, r4
  55:main.c        **** 				}
  98              		.loc 1 55 0
  99 0048 0949     		ldr	r1, .L12+4
 100              	.LVL8:
 101              	.L9:
 102 004a E818     		adds	r0, r5, r3
 103 004c 4079     		ldrb	r0, [r0, #5]
 104 004e 5A42     		rsbs	r2, r3, #0
 105 0050 013B     		subs	r3, r3, #1
 106              	.LVL9:
 107 0052 8854     		strb	r0, [r1, r2]
  53:main.c        **** 				{
 108              		.loc 1 53 0
 109 0054 9A1D     		adds	r2, r3, #6
 110 0056 F8D1     		bne	.L9
  57:main.c        **** 				
 111              		.loc 1 57 0
 112 0058 0733     		adds	r3, r3, #7
 113 005a 3370     		strb	r3, [r6]
 114              	.LVL10:
 115              	.L3:
 116              	.LBE5:
 117              	.LBE4:
 123:main.c        ****             if(apiResult != CYBLE_ERROR_OK)
 118              		.loc 1 123 0
 119 005c 0020     		movs	r0, #0
 120 005e FFF7FEFF 		bl	CyBle_GappStartAdvertisement
 121              	.LVL11:
 128:main.c        ****         case CYBLE_EVT_GAP_ENCRYPT_CHANGE:
 122              		.loc 1 128 0
 123 0062 02E0     		b	.L1
 124              	.LVL12:
 125              	.L6:
 150:main.c        ****             break;
 126              		.loc 1 150 0
 127 0064 0868     		ldr	r0, [r1]
 128              	.LVL13:
 129 0066 FFF7FEFF 		bl	CyBle_GattsWriteRsp
 130              	.LVL14:
 131              	.L1:
 132              		.loc 1 194 0
 133              		@ sp needed
 134 006a 7FBD     		pop	{r0, r1, r2, r3, r4, r5, r6, pc}
ARM GAS  C:\Users\Administrator\AppData\Local\Temp\ccNQfmEa.s 			page 7


 135              	.L13:
 136              		.align	2
 137              	.L12:
 138 006c 00000000 		.word	Read_Mac_Flag
 139 0070 00000000 		.word	Mac_Addr
 140              		.cfi_endproc
 141              	.LFE63:
 142              		.size	AppCallback, .-AppCallback
 143              		.section	.text.LowPowerImplementation,"ax",%progbits
 144              		.align	1
 145              		.global	LowPowerImplementation
 146              		.code	16
 147              		.thumb_func
 148              		.type	LowPowerImplementation, %function
 149              	LowPowerImplementation:
 150              	.LFB64:
 195:main.c        **** 
 196:main.c        **** //*************************************************************************************************
 197:main.c        **** // Function name	: LowPowerImplementation
 198:main.c        **** // Description		: 进入低功耗睡眠的函数
 199:main.c        **** // Parameter		: none
 200:main.c        **** // Return			: none
 201:main.c        **** //-------------------------------------------------------------------------------------------------
 202:main.c        **** // Info				: 
 203:main.c        **** //*************************************************************************************************
 204:main.c        **** void LowPowerImplementation(void)
 205:main.c        **** {
 151              		.loc 1 205 0
 152              		.cfi_startproc
 153              		@ args = 0, pretend = 0, frame = 0
 154              		@ frame_needed = 0, uses_anonymous_args = 0
 206:main.c        ****     CYBLE_LP_MODE_T bleMode;
 207:main.c        ****     uint8 interruptStatus;
 208:main.c        ****     
 209:main.c        ****     /* For advertising and connected states, implement deep sleep 
 210:main.c        ****      * functionality to achieve low power in the system. For more details
 211:main.c        ****      * on the low power implementation, refer to the Low Power Application 
 212:main.c        ****      * Note.
 213:main.c        ****      */
 214:main.c        ****     if((CyBle_GetState() == CYBLE_STATE_ADVERTISING) || 
 155              		.loc 1 214 0
 156 0000 124B     		ldr	r3, .L27
 205:main.c        ****     CYBLE_LP_MODE_T bleMode;
 157              		.loc 1 205 0
 158 0002 70B5     		push	{r4, r5, r6, lr}
 159              		.cfi_def_cfa_offset 16
 160              		.cfi_offset 4, -16
 161              		.cfi_offset 5, -12
 162              		.cfi_offset 6, -8
 163              		.cfi_offset 14, -4
 164              		.loc 1 214 0
 165 0004 1B78     		ldrb	r3, [r3]
 166 0006 023B     		subs	r3, r3, #2
 167 0008 012B     		cmp	r3, #1
 168 000a 1DD8     		bhi	.L14
 215:main.c        ****        (CyBle_GetState() == CYBLE_STATE_CONNECTED))
 216:main.c        ****     {
ARM GAS  C:\Users\Administrator\AppData\Local\Temp\ccNQfmEa.s 			page 8


 217:main.c        ****         /* Request BLE subsystem to enter into Deep-Sleep mode between connection and advertising i
 218:main.c        ****         bleMode = CyBle_EnterLPM(CYBLE_BLESS_DEEPSLEEP);
 169              		.loc 1 218 0
 170 000c 0320     		movs	r0, #3
 171 000e FFF7FEFF 		bl	CyBle_EnterLPM
 172              	.LVL15:
 173 0012 0500     		movs	r5, r0
 174              	.LVL16:
 219:main.c        ****         /* Disable global interrupts */
 220:main.c        ****         interruptStatus = CyEnterCriticalSection();
 175              		.loc 1 220 0
 176 0014 FFF7FEFF 		bl	CyEnterCriticalSection
 177              	.LVL17:
 178 0018 0400     		movs	r4, r0
 179              	.LVL18:
 221:main.c        ****         /* When BLE subsystem has been put into Deep-Sleep mode */
 222:main.c        ****         if(bleMode == CYBLE_BLESS_DEEPSLEEP)
 180              		.loc 1 222 0
 181 001a 032D     		cmp	r5, #3
 182 001c 0BD1     		bne	.L16
 223:main.c        ****         {
 224:main.c        ****             /* And it is still there or ECO is on */
 225:main.c        ****             if((CyBle_GetBleSsState() == CYBLE_BLESS_STATE_ECO_ON) || 
 183              		.loc 1 225 0
 184 001e FFF7FEFF 		bl	CyBle_GetBleSsState
 185              	.LVL19:
 186 0022 0428     		cmp	r0, #4
 187 0024 02D1     		bne	.L17
 188              	.L19:
 226:main.c        ****                (CyBle_GetBleSsState() == CYBLE_BLESS_STATE_DEEPSLEEP))
 227:main.c        ****             {
 228:main.c        ****             #if (DEBUG_UART_ENABLED == ENABLED)
 229:main.c        ****                 /* Put the CPU into the Deep-Sleep mode when all debug information has been sent */
 230:main.c        ****                 if((UART_433_SpiUartGetTxBufferSize() + UART_433_GET_TX_FIFO_SR_VALID) == 0u)
 231:main.c        ****                 {
 232:main.c        ****                     CySysPmDeepSleep();
 233:main.c        ****                 }
 234:main.c        ****                 else /* Put the CPU into Sleep mode and let SCB to continue sending debug data */
 235:main.c        ****                 {
 236:main.c        ****                     CySysPmSleep();
 237:main.c        ****                 }
 238:main.c        ****             #else
 239:main.c        ****                 CySysPmDeepSleep();
 189              		.loc 1 239 0
 190 0026 FFF7FEFF 		bl	CySysPmDeepSleep
 191              	.LVL20:
 192 002a 0AE0     		b	.L18
 193              	.L17:
 226:main.c        ****                (CyBle_GetBleSsState() == CYBLE_BLESS_STATE_DEEPSLEEP))
 194              		.loc 1 226 0 discriminator 1
 195 002c FFF7FEFF 		bl	CyBle_GetBleSsState
 196              	.LVL21:
 225:main.c        ****                (CyBle_GetBleSsState() == CYBLE_BLESS_STATE_DEEPSLEEP))
 197              		.loc 1 225 0 discriminator 1
 198 0030 0628     		cmp	r0, #6
 199 0032 06D1     		bne	.L18
 200 0034 F7E7     		b	.L19
ARM GAS  C:\Users\Administrator\AppData\Local\Temp\ccNQfmEa.s 			page 9


 201              	.L16:
 240:main.c        ****             #endif /* (DEBUG_UART_ENABLED == ENABLED) */
 241:main.c        ****             }
 242:main.c        ****         }
 243:main.c        ****         else /* When BLE subsystem has been put into Sleep mode or is active */
 244:main.c        ****         {
 245:main.c        ****             /* And hardware doesn't finish Tx/Rx opeation - put the CPU into Sleep mode */
 246:main.c        ****             if(CyBle_GetBleSsState() != CYBLE_BLESS_STATE_EVENT_CLOSE)
 202              		.loc 1 246 0
 203 0036 FFF7FEFF 		bl	CyBle_GetBleSsState
 204              	.LVL22:
 205 003a 0228     		cmp	r0, #2
 206 003c 01D0     		beq	.L18
 247:main.c        ****             {
 248:main.c        ****                 CySysPmSleep();
 207              		.loc 1 248 0
 208 003e FFF7FEFF 		bl	CySysPmSleep
 209              	.LVL23:
 210              	.L18:
 249:main.c        ****             }
 250:main.c        ****         }
 251:main.c        ****         /* Enable global interrupt */
 252:main.c        ****         CyExitCriticalSection(interruptStatus);
 211              		.loc 1 252 0
 212 0042 2000     		movs	r0, r4
 213 0044 FFF7FEFF 		bl	CyExitCriticalSection
 214              	.LVL24:
 215              	.L14:
 253:main.c        ****     }
 254:main.c        **** }
 216              		.loc 1 254 0
 217              		@ sp needed
 218 0048 70BD     		pop	{r4, r5, r6, pc}
 219              	.L28:
 220 004a C046     		.align	2
 221              	.L27:
 222 004c 00000000 		.word	cyBle_state
 223              		.cfi_endproc
 224              	.LFE64:
 225              		.size	LowPowerImplementation, .-LowPowerImplementation
 226              		.section	.text.ble_heartbeat,"ax",%progbits
 227              		.align	1
 228              		.global	ble_heartbeat
 229              		.code	16
 230              		.thumb_func
 231              		.type	ble_heartbeat, %function
 232              	ble_heartbeat:
 233              	.LFB65:
 255:main.c        **** 
 256:main.c        **** //*************************************************************************************************
 257:main.c        **** // Function name	: ble_heartbeat
 258:main.c        **** // Description		: 蓝牙的心跳包
 259:main.c        **** // Parameter		: none
 260:main.c        **** // Return			: none
 261:main.c        **** //-------------------------------------------------------------------------------------------------
 262:main.c        **** // Info				: 
 263:main.c        **** //*************************************************************************************************
ARM GAS  C:\Users\Administrator\AppData\Local\Temp\ccNQfmEa.s 			page 10


 264:main.c        **** void ble_heartbeat(void)
 265:main.c        **** {
 234              		.loc 1 265 0
 235              		.cfi_startproc
 236              		@ args = 0, pretend = 0, frame = 0
 237              		@ frame_needed = 0, uses_anonymous_args = 0
 238 0000 10B5     		push	{r4, lr}
 239              		.cfi_def_cfa_offset 8
 240              		.cfi_offset 4, -8
 241              		.cfi_offset 14, -4
 266:main.c        **** 	WDT_FeedDog();
 242              		.loc 1 266 0
 243 0002 FFF7FEFF 		bl	WDT_FeedDog
 244              	.LVL25:
 267:main.c        **** 	CyBle_ProcessEvents();
 245              		.loc 1 267 0
 246 0006 FFF7FEFF 		bl	CyBle_ProcessEvents
 247              	.LVL26:
 268:main.c        ****     
 269:main.c        ****     #if 1
 270:main.c        ****     if (BleCmdValidFlag == 1)
 248              		.loc 1 270 0
 249 000a 034B     		ldr	r3, .L31
 250 000c 1B78     		ldrb	r3, [r3]
 251 000e 012B     		cmp	r3, #1
 252 0010 01D1     		bne	.L29
 271:main.c        ****     {
 272:main.c        **** 		Protocol_CmdParse_BLE();
 253              		.loc 1 272 0
 254 0012 FFF7FEFF 		bl	Protocol_CmdParse_BLE
 255              	.LVL27:
 256              	.L29:
 273:main.c        ****     }
 274:main.c        ****     #endif
 275:main.c        **** }
 257              		.loc 1 275 0
 258              		@ sp needed
 259 0016 10BD     		pop	{r4, pc}
 260              	.L32:
 261              		.align	2
 262              	.L31:
 263 0018 00000000 		.word	BleCmdValidFlag
 264              		.cfi_endproc
 265              	.LFE65:
 266              		.size	ble_heartbeat, .-ble_heartbeat
 267              		.global	__aeabi_uidiv
 268              		.section	.text.delay_with_ble,"ax",%progbits
 269              		.align	1
 270              		.global	delay_with_ble
 271              		.code	16
 272              		.thumb_func
 273              		.type	delay_with_ble, %function
 274              	delay_with_ble:
 275              	.LFB67:
 276:main.c        **** 
 277:main.c        **** //*************************************************************************************************
 278:main.c        **** // Function name	: sys_heartbeat
ARM GAS  C:\Users\Administrator\AppData\Local\Temp\ccNQfmEa.s 			page 11


 279:main.c        **** // Description		: 系统的心跳包
 280:main.c        **** // Parameter		: none
 281:main.c        **** // Return			: none
 282:main.c        **** //-------------------------------------------------------------------------------------------------
 283:main.c        **** // Info				: 
 284:main.c        **** //*************************************************************************************************
 285:main.c        **** void sys_heartbeat(void)
 286:main.c        **** {
 287:main.c        ****     uint16 i;
 288:main.c        ****     
 289:main.c        **** 	WDT_FeedDog();
 290:main.c        ****     for (i = 0; i < 50; i++)
 291:main.c        ****     {
 292:main.c        **** 	    CyBle_ProcessEvents();
 293:main.c        **** 	}
 294:main.c        ****     
 295:main.c        ****     #if 1
 296:main.c        ****     if (BleCmdValidFlag == 1)
 297:main.c        ****     {
 298:main.c        **** 		Protocol_CmdParse_BLE();
 299:main.c        ****     }
 300:main.c        ****     #endif
 301:main.c        ****     
 302:main.c        ****     if ((gprs_state != NORMAL_COMM) && (gprs_state != UPDATE_CONNECT) &&
 303:main.c        ****         (gprs_state != WAIT_UPDATE) && (gprs_state != UPDATE_FINISH))
 304:main.c        ****     {
 305:main.c        **** 		CARD_Tick();
 306:main.c        ****         Defend_Tick();
 307:main.c        ****     }
 308:main.c        **** }
 309:main.c        **** 
 310:main.c        **** //*************************************************************************************************
 311:main.c        **** // Function name	: delay_with_ble
 312:main.c        **** // Description		: 带蓝牙心跳的延时函数
 313:main.c        **** // Parameter		: ms	: 延时时间
 314:main.c        **** // Return			: none
 315:main.c        **** //-------------------------------------------------------------------------------------------------
 316:main.c        **** // Info				: 
 317:main.c        **** //*************************************************************************************************
 318:main.c        **** void delay_with_ble(uint32 ms)
 319:main.c        **** {
 276              		.loc 1 319 0
 277              		.cfi_startproc
 278              		@ args = 0, pretend = 0, frame = 0
 279              		@ frame_needed = 0, uses_anonymous_args = 0
 280              	.LVL28:
 281 0000 70B5     		push	{r4, r5, r6, lr}
 282              		.cfi_def_cfa_offset 16
 283              		.cfi_offset 4, -16
 284              		.cfi_offset 5, -12
 285              		.cfi_offset 6, -8
 286              		.cfi_offset 14, -4
 320:main.c        **** 	uint32 loop = 0;
 321:main.c        **** 	for (loop = 0; loop < ms / 5; loop++)
 287              		.loc 1 321 0
 288 0002 0521     		movs	r1, #5
 289 0004 FFF7FEFF 		bl	__aeabi_uidiv
ARM GAS  C:\Users\Administrator\AppData\Local\Temp\ccNQfmEa.s 			page 12


 290              	.LVL29:
 291 0008 0024     		movs	r4, #0
 292 000a 0500     		movs	r5, r0
 293              	.LVL30:
 294              	.L34:
 295              		.loc 1 321 0 is_stmt 0 discriminator 1
 296 000c AC42     		cmp	r4, r5
 297 000e 06D0     		beq	.L36
 322:main.c        **** 	{
 323:main.c        **** 		CyDelay(5);
 298              		.loc 1 323 0 is_stmt 1 discriminator 3
 299 0010 0520     		movs	r0, #5
 300 0012 FFF7FEFF 		bl	CyDelay
 301              	.LVL31:
 321:main.c        **** 	{
 302              		.loc 1 321 0 discriminator 3
 303 0016 0134     		adds	r4, r4, #1
 304              	.LVL32:
 324:main.c        **** 		ble_heartbeat();
 305              		.loc 1 324 0 discriminator 3
 306 0018 FFF7FEFF 		bl	ble_heartbeat
 307              	.LVL33:
 308 001c F6E7     		b	.L34
 309              	.L36:
 325:main.c        **** 	}
 326:main.c        **** }
 310              		.loc 1 326 0
 311              		@ sp needed
 312              	.LVL34:
 313 001e 70BD     		pop	{r4, r5, r6, pc}
 314              		.cfi_endproc
 315              	.LFE67:
 316              		.size	delay_with_ble, .-delay_with_ble
 317              		.section	.text.Led_AllOff,"ax",%progbits
 318              		.align	1
 319              		.global	Led_AllOff
 320              		.code	16
 321              		.thumb_func
 322              		.type	Led_AllOff, %function
 323              	Led_AllOff:
 324              	.LFB68:
 327:main.c        **** 
 328:main.c        **** //*************************************************************************************************
 329:main.c        **** // Function name	: Led_AllOff
 330:main.c        **** // Description		: 关闭所有LED灯
 331:main.c        **** // Parameter		: none
 332:main.c        **** // Return			: none
 333:main.c        **** //-------------------------------------------------------------------------------------------------
 334:main.c        **** // Info				: 
 335:main.c        **** //*************************************************************************************************
 336:main.c        **** void Led_AllOff(void)
 337:main.c        **** {
 325              		.loc 1 337 0
 326              		.cfi_startproc
 327              		@ args = 0, pretend = 0, frame = 0
 328              		@ frame_needed = 0, uses_anonymous_args = 0
 329 0000 10B5     		push	{r4, lr}
ARM GAS  C:\Users\Administrator\AppData\Local\Temp\ccNQfmEa.s 			page 13


 330              		.cfi_def_cfa_offset 8
 331              		.cfi_offset 4, -8
 332              		.cfi_offset 14, -4
 338:main.c        ****     LED_RED_Write(1);
 333              		.loc 1 338 0
 334 0002 0120     		movs	r0, #1
 335 0004 FFF7FEFF 		bl	LED_RED_Write
 336              	.LVL35:
 339:main.c        ****     LED_BLUE_Write(1);
 337              		.loc 1 339 0
 338 0008 0120     		movs	r0, #1
 339 000a FFF7FEFF 		bl	LED_BLUE_Write
 340              	.LVL36:
 340:main.c        ****     LED_GREEN_Write(1);
 341              		.loc 1 340 0
 342 000e 0120     		movs	r0, #1
 343 0010 FFF7FEFF 		bl	LED_GREEN_Write
 344              	.LVL37:
 341:main.c        **** }
 345              		.loc 1 341 0
 346              		@ sp needed
 347 0014 10BD     		pop	{r4, pc}
 348              		.cfi_endproc
 349              	.LFE68:
 350              		.size	Led_AllOff, .-Led_AllOff
 351              		.section	.text.Led_RedON,"ax",%progbits
 352              		.align	1
 353              		.global	Led_RedON
 354              		.code	16
 355              		.thumb_func
 356              		.type	Led_RedON, %function
 357              	Led_RedON:
 358              	.LFB69:
 342:main.c        **** 
 343:main.c        **** //*************************************************************************************************
 344:main.c        **** // Function name	: Led_RedON
 345:main.c        **** // Description		: 红灯亮
 346:main.c        **** // Parameter		: none
 347:main.c        **** // Return			: none
 348:main.c        **** //-------------------------------------------------------------------------------------------------
 349:main.c        **** // Info				: 
 350:main.c        **** //*************************************************************************************************
 351:main.c        **** void Led_RedON(void)
 352:main.c        **** {
 359              		.loc 1 352 0
 360              		.cfi_startproc
 361              		@ args = 0, pretend = 0, frame = 0
 362              		@ frame_needed = 0, uses_anonymous_args = 0
 363 0000 10B5     		push	{r4, lr}
 364              		.cfi_def_cfa_offset 8
 365              		.cfi_offset 4, -8
 366              		.cfi_offset 14, -4
 353:main.c        ****     Led_AllOff();
 367              		.loc 1 353 0
 368 0002 FFF7FEFF 		bl	Led_AllOff
 369              	.LVL38:
 354:main.c        **** 	LED_RED_Write(0);
ARM GAS  C:\Users\Administrator\AppData\Local\Temp\ccNQfmEa.s 			page 14


 370              		.loc 1 354 0
 371 0006 0020     		movs	r0, #0
 372 0008 FFF7FEFF 		bl	LED_RED_Write
 373              	.LVL39:
 355:main.c        **** }
 374              		.loc 1 355 0
 375              		@ sp needed
 376 000c 10BD     		pop	{r4, pc}
 377              		.cfi_endproc
 378              	.LFE69:
 379              		.size	Led_RedON, .-Led_RedON
 380              		.section	.text.Led_GreenON,"ax",%progbits
 381              		.align	1
 382              		.global	Led_GreenON
 383              		.code	16
 384              		.thumb_func
 385              		.type	Led_GreenON, %function
 386              	Led_GreenON:
 387              	.LFB70:
 356:main.c        **** 
 357:main.c        **** //*************************************************************************************************
 358:main.c        **** // Function name	: Led_GreenON
 359:main.c        **** // Description		: 绿灯亮
 360:main.c        **** // Parameter		: none
 361:main.c        **** // Return			: none
 362:main.c        **** //-------------------------------------------------------------------------------------------------
 363:main.c        **** // Info				: 
 364:main.c        **** //*************************************************************************************************
 365:main.c        **** void Led_GreenON(void)
 366:main.c        **** {
 388              		.loc 1 366 0
 389              		.cfi_startproc
 390              		@ args = 0, pretend = 0, frame = 0
 391              		@ frame_needed = 0, uses_anonymous_args = 0
 392 0000 10B5     		push	{r4, lr}
 393              		.cfi_def_cfa_offset 8
 394              		.cfi_offset 4, -8
 395              		.cfi_offset 14, -4
 367:main.c        ****     Led_AllOff();
 396              		.loc 1 367 0
 397 0002 FFF7FEFF 		bl	Led_AllOff
 398              	.LVL40:
 368:main.c        **** 	LED_GREEN_Write(0);
 399              		.loc 1 368 0
 400 0006 0020     		movs	r0, #0
 401 0008 FFF7FEFF 		bl	LED_GREEN_Write
 402              	.LVL41:
 369:main.c        **** }
 403              		.loc 1 369 0
 404              		@ sp needed
 405 000c 10BD     		pop	{r4, pc}
 406              		.cfi_endproc
 407              	.LFE70:
 408              		.size	Led_GreenON, .-Led_GreenON
 409              		.section	.text.Led_BlueON,"ax",%progbits
 410              		.align	1
 411              		.global	Led_BlueON
ARM GAS  C:\Users\Administrator\AppData\Local\Temp\ccNQfmEa.s 			page 15


 412              		.code	16
 413              		.thumb_func
 414              		.type	Led_BlueON, %function
 415              	Led_BlueON:
 416              	.LFB71:
 370:main.c        **** 
 371:main.c        **** //*************************************************************************************************
 372:main.c        **** // Function name	: Led_BlueON
 373:main.c        **** // Description		: 蓝灯亮
 374:main.c        **** // Parameter		: none
 375:main.c        **** // Return			: none
 376:main.c        **** //-------------------------------------------------------------------------------------------------
 377:main.c        **** // Info				: 
 378:main.c        **** //*************************************************************************************************
 379:main.c        **** void Led_BlueON(void)
 380:main.c        **** {
 417              		.loc 1 380 0
 418              		.cfi_startproc
 419              		@ args = 0, pretend = 0, frame = 0
 420              		@ frame_needed = 0, uses_anonymous_args = 0
 421 0000 10B5     		push	{r4, lr}
 422              		.cfi_def_cfa_offset 8
 423              		.cfi_offset 4, -8
 424              		.cfi_offset 14, -4
 381:main.c        ****     Led_AllOff();
 425              		.loc 1 381 0
 426 0002 FFF7FEFF 		bl	Led_AllOff
 427              	.LVL42:
 382:main.c        **** 	LED_BLUE_Write(0);
 428              		.loc 1 382 0
 429 0006 0020     		movs	r0, #0
 430 0008 FFF7FEFF 		bl	LED_BLUE_Write
 431              	.LVL43:
 383:main.c        **** }
 432              		.loc 1 383 0
 433              		@ sp needed
 434 000c 10BD     		pop	{r4, pc}
 435              		.cfi_endproc
 436              	.LFE71:
 437              		.size	Led_BlueON, .-Led_BlueON
 438              		.section	.text.Led_SetState,"ax",%progbits
 439              		.align	1
 440              		.global	Led_SetState
 441              		.code	16
 442              		.thumb_func
 443              		.type	Led_SetState, %function
 444              	Led_SetState:
 445              	.LFB72:
 384:main.c        **** 
 385:main.c        **** //*************************************************************************************************
 386:main.c        **** // Function name	: Led_SetState
 387:main.c        **** // Description		: 设置LED的状态
 388:main.c        **** // Parameter		: Sta	: 待设置的状态
 389:main.c        **** // Return			: none
 390:main.c        **** //-------------------------------------------------------------------------------------------------
 391:main.c        **** // Info				: 
 392:main.c        **** //*************************************************************************************************
ARM GAS  C:\Users\Administrator\AppData\Local\Temp\ccNQfmEa.s 			page 16


 393:main.c        **** void Led_SetState(uint8 Sta)
 394:main.c        **** {
 446              		.loc 1 394 0
 447              		.cfi_startproc
 448              		@ args = 0, pretend = 0, frame = 0
 449              		@ frame_needed = 0, uses_anonymous_args = 0
 450              	.LVL44:
 451 0000 10B5     		push	{r4, lr}
 452              		.cfi_def_cfa_offset 8
 453              		.cfi_offset 4, -8
 454              		.cfi_offset 14, -4
 395:main.c        **** 	if (Sta == 0)
 455              		.loc 1 395 0
 456 0002 0028     		cmp	r0, #0
 457 0004 02D1     		bne	.L42
 396:main.c        **** 	{
 397:main.c        **** 		Led_AllOff();
 458              		.loc 1 397 0
 459 0006 FFF7FEFF 		bl	Led_AllOff
 460              	.LVL45:
 461 000a 0DE0     		b	.L41
 462              	.LVL46:
 463              	.L42:
 398:main.c        **** 	}
 399:main.c        **** 	else if (Sta == 1)
 464              		.loc 1 399 0
 465 000c 0128     		cmp	r0, #1
 466 000e 02D1     		bne	.L44
 400:main.c        **** 	{
 401:main.c        **** 		Led_RedON();
 467              		.loc 1 401 0
 468 0010 FFF7FEFF 		bl	Led_RedON
 469              	.LVL47:
 470 0014 08E0     		b	.L41
 471              	.LVL48:
 472              	.L44:
 402:main.c        **** 	}
 403:main.c        **** 	else if (Sta == 2)
 473              		.loc 1 403 0
 474 0016 0228     		cmp	r0, #2
 475 0018 02D1     		bne	.L45
 404:main.c        **** 	{
 405:main.c        **** 		Led_GreenON();
 476              		.loc 1 405 0
 477 001a FFF7FEFF 		bl	Led_GreenON
 478              	.LVL49:
 479 001e 03E0     		b	.L41
 480              	.LVL50:
 481              	.L45:
 406:main.c        **** 	}
 407:main.c        **** 	else if (Sta == 3)
 482              		.loc 1 407 0
 483 0020 0328     		cmp	r0, #3
 484 0022 01D1     		bne	.L41
 408:main.c        **** 	{
 409:main.c        **** 		Led_BlueON();
 485              		.loc 1 409 0
ARM GAS  C:\Users\Administrator\AppData\Local\Temp\ccNQfmEa.s 			page 17


 486 0024 FFF7FEFF 		bl	Led_BlueON
 487              	.LVL51:
 488              	.L41:
 410:main.c        **** 	}
 411:main.c        **** }
 489              		.loc 1 411 0
 490              		@ sp needed
 491 0028 10BD     		pop	{r4, pc}
 492              		.cfi_endproc
 493              	.LFE72:
 494              		.size	Led_SetState, .-Led_SetState
 495              		.section	.text.DoorOpen,"ax",%progbits
 496              		.align	1
 497              		.global	DoorOpen
 498              		.code	16
 499              		.thumb_func
 500              		.type	DoorOpen, %function
 501              	DoorOpen:
 502              	.LFB73:
 412:main.c        **** 
 413:main.c        **** //*************************************************************************************************
 414:main.c        **** // Function name	: DoorOpen
 415:main.c        **** // Description		: 门打开
 416:main.c        **** // Parameter		: none
 417:main.c        **** // Return			: none
 418:main.c        **** //-------------------------------------------------------------------------------------------------
 419:main.c        **** // Info				: 
 420:main.c        **** //*************************************************************************************************
 421:main.c        **** void DoorOpen(void)
 422:main.c        **** {
 503              		.loc 1 422 0
 504              		.cfi_startproc
 505              		@ args = 0, pretend = 0, frame = 0
 506              		@ frame_needed = 0, uses_anonymous_args = 0
 507 0000 10B5     		push	{r4, lr}
 508              		.cfi_def_cfa_offset 8
 509              		.cfi_offset 4, -8
 510              		.cfi_offset 14, -4
 423:main.c        ****     DOOR_OPEN_Write(1);
 511              		.loc 1 423 0
 512 0002 0120     		movs	r0, #1
 513 0004 FFF7FEFF 		bl	DOOR_OPEN_Write
 514              	.LVL52:
 424:main.c        **** }
 515              		.loc 1 424 0
 516              		@ sp needed
 517 0008 10BD     		pop	{r4, pc}
 518              		.cfi_endproc
 519              	.LFE73:
 520              		.size	DoorOpen, .-DoorOpen
 521              		.section	.text.DoorClose,"ax",%progbits
 522              		.align	1
 523              		.global	DoorClose
 524              		.code	16
 525              		.thumb_func
 526              		.type	DoorClose, %function
 527              	DoorClose:
ARM GAS  C:\Users\Administrator\AppData\Local\Temp\ccNQfmEa.s 			page 18


 528              	.LFB74:
 425:main.c        **** 
 426:main.c        **** //*************************************************************************************************
 427:main.c        **** // Function name	: DoorClose
 428:main.c        **** // Description		: 门关闭
 429:main.c        **** // Parameter		: none
 430:main.c        **** // Return			: none
 431:main.c        **** //-------------------------------------------------------------------------------------------------
 432:main.c        **** // Info				: 
 433:main.c        **** //*************************************************************************************************
 434:main.c        **** void DoorClose(void)
 435:main.c        **** {
 529              		.loc 1 435 0
 530              		.cfi_startproc
 531              		@ args = 0, pretend = 0, frame = 0
 532              		@ frame_needed = 0, uses_anonymous_args = 0
 533 0000 10B5     		push	{r4, lr}
 534              		.cfi_def_cfa_offset 8
 535              		.cfi_offset 4, -8
 536              		.cfi_offset 14, -4
 436:main.c        ****     DOOR_OPEN_Write(0);
 537              		.loc 1 436 0
 538 0002 0020     		movs	r0, #0
 539 0004 FFF7FEFF 		bl	DOOR_OPEN_Write
 540              	.LVL53:
 437:main.c        **** }
 541              		.loc 1 437 0
 542              		@ sp needed
 543 0008 10BD     		pop	{r4, pc}
 544              		.cfi_endproc
 545              	.LFE74:
 546              		.size	DoorClose, .-DoorClose
 547              		.section	.text.GetDoorState,"ax",%progbits
 548              		.align	1
 549              		.global	GetDoorState
 550              		.code	16
 551              		.thumb_func
 552              		.type	GetDoorState, %function
 553              	GetDoorState:
 554              	.LFB75:
 438:main.c        **** 
 439:main.c        **** //*************************************************************************************************
 440:main.c        **** // Function name	: DoorClose
 441:main.c        **** // Description		: 门磁检测
 442:main.c        **** // Parameter		: none
 443:main.c        **** // Return			: none
 444:main.c        **** //-------------------------------------------------------------------------------------------------
 445:main.c        **** // Info				: 
 446:main.c        **** //*************************************************************************************************
 447:main.c        **** uint8 GetDoorState(void)
 448:main.c        **** {
 555              		.loc 1 448 0
 556              		.cfi_startproc
 557              		@ args = 0, pretend = 0, frame = 0
 558              		@ frame_needed = 0, uses_anonymous_args = 0
 559              	.LVL54:
 560 0000 10B5     		push	{r4, lr}
ARM GAS  C:\Users\Administrator\AppData\Local\Temp\ccNQfmEa.s 			page 19


 561              		.cfi_def_cfa_offset 8
 562              		.cfi_offset 4, -8
 563              		.cfi_offset 14, -4
 449:main.c        **** 	uint8 ret = 0;
 450:main.c        **** 	
 451:main.c        **** 	if(0 == MG_STATE_Read())
 564              		.loc 1 451 0
 565 0002 FFF7FEFF 		bl	MG_STATE_Read
 566              	.LVL55:
 452:main.c        **** 		ret = DoorClosed; 
 453:main.c        **** 	else
 454:main.c        **** 		ret = DoorOpened;
 567              		.loc 1 454 0
 568 0006 4342     		rsbs	r3, r0, #0
 569 0008 5841     		adcs	r0, r0, r3
 455:main.c        **** 	
 456:main.c        **** 	return ret;	
 457:main.c        **** }
 570              		.loc 1 457 0
 571              		@ sp needed
 454:main.c        **** 	
 572              		.loc 1 454 0
 573 000a 0130     		adds	r0, r0, #1
 574              	.LVL56:
 575              		.loc 1 457 0
 576 000c 10BD     		pop	{r4, pc}
 577              		.cfi_endproc
 578              	.LFE75:
 579              		.size	GetDoorState, .-GetDoorState
 580              		.section	.text.GPRS_SetON,"ax",%progbits
 581              		.align	1
 582              		.global	GPRS_SetON
 583              		.code	16
 584              		.thumb_func
 585              		.type	GPRS_SetON, %function
 586              	GPRS_SetON:
 587              	.LFB76:
 458:main.c        **** 
 459:main.c        **** //*************************************************************************************************
 460:main.c        **** // Function name	: GPRS_SetON
 461:main.c        **** // Description		: GPRS PowerKey On
 462:main.c        **** // Parameter		: none
 463:main.c        **** // Return			: none
 464:main.c        **** //-------------------------------------------------------------------------------------------------
 465:main.c        **** // Info				: GPRS模组开机操作
 466:main.c        **** //*************************************************************************************************
 467:main.c        **** void GPRS_SetON(void)
 468:main.c        **** {
 588              		.loc 1 468 0
 589              		.cfi_startproc
 590              		@ args = 0, pretend = 0, frame = 0
 591              		@ frame_needed = 0, uses_anonymous_args = 0
 592              	.LVL57:
 593 0000 10B5     		push	{r4, lr}
 594              		.cfi_def_cfa_offset 8
 595              		.cfi_offset 4, -8
 596              		.cfi_offset 14, -4
ARM GAS  C:\Users\Administrator\AppData\Local\Temp\ccNQfmEa.s 			page 20


 469:main.c        **** 	uint16 count = 0;
 470:main.c        **** 	
 471:main.c        **** 	if (GPRS_STATE_Read() == 1)
 597              		.loc 1 471 0
 598 0002 FFF7FEFF 		bl	GPRS_STATE_Read
 599              	.LVL58:
 600 0006 0400     		movs	r4, r0
 601 0008 0128     		cmp	r0, #1
 602 000a 15D1     		bne	.L51
 603              	.LBB8:
 604              	.LBB9:
 472:main.c        **** 	{	// 如果是关机状态 执行开机
 473:main.c        **** 		CyDelay(30);
 605              		.loc 1 473 0
 606 000c 1E20     		movs	r0, #30
 607 000e FFF7FEFF 		bl	CyDelay
 608              	.LVL59:
 474:main.c        **** 		GPRS_PWRKEY_Write(1);
 609              		.loc 1 474 0
 610 0012 2000     		movs	r0, r4
 611 0014 FFF7FEFF 		bl	GPRS_PWRKEY_Write
 612              	.LVL60:
 613 0018 1F34     		adds	r4, r4, #31
 614              	.L53:
 615              	.LVL61:
 475:main.c        **** 		while ((GPRS_STATE_Read() == 1) && (count <= 30))
 616              		.loc 1 475 0
 617 001a FFF7FEFF 		bl	GPRS_STATE_Read
 618              	.LVL62:
 619 001e 0128     		cmp	r0, #1
 620 0020 07D1     		bne	.L54
 621 0022 013C     		subs	r4, r4, #1
 622              	.LVL63:
 623 0024 A4B2     		uxth	r4, r4
 624 0026 002C     		cmp	r4, #0
 625 0028 03D0     		beq	.L54
 476:main.c        **** 		{
 477:main.c        **** 			delay_with_ble(100);
 626              		.loc 1 477 0
 627 002a 6420     		movs	r0, #100
 628 002c FFF7FEFF 		bl	delay_with_ble
 629              	.LVL64:
 630 0030 F3E7     		b	.L53
 631              	.LVL65:
 632              	.L54:
 478:main.c        **** 			count++;
 479:main.c        **** 		}
 480:main.c        **** 		GPRS_PWRKEY_Write(0);
 633              		.loc 1 480 0
 634 0032 0020     		movs	r0, #0
 635 0034 FFF7FEFF 		bl	GPRS_PWRKEY_Write
 636              	.LVL66:
 637              	.L51:
 638              	.LBE9:
 639              	.LBE8:
 481:main.c        **** 	}
 482:main.c        **** }
ARM GAS  C:\Users\Administrator\AppData\Local\Temp\ccNQfmEa.s 			page 21


 640              		.loc 1 482 0
 641              		@ sp needed
 642 0038 10BD     		pop	{r4, pc}
 643              		.cfi_endproc
 644              	.LFE76:
 645              		.size	GPRS_SetON, .-GPRS_SetON
 646              		.section	.text.GPRSPowerOn,"ax",%progbits
 647              		.align	1
 648              		.global	GPRSPowerOn
 649              		.code	16
 650              		.thumb_func
 651              		.type	GPRSPowerOn, %function
 652              	GPRSPowerOn:
 653              	.LFB77:
 483:main.c        **** 
 484:main.c        **** //*************************************************************************************************
 485:main.c        **** // Function name	: GPRSPowerOn
 486:main.c        **** // Description		: GPRS上电
 487:main.c        **** // Parameter		: none
 488:main.c        **** // Return			: none
 489:main.c        **** //-------------------------------------------------------------------------------------------------
 490:main.c        **** // Info				: 
 491:main.c        **** //*************************************************************************************************
 492:main.c        **** void GPRSPowerOn(void)
 493:main.c        **** {
 654              		.loc 1 493 0
 655              		.cfi_startproc
 656              		@ args = 0, pretend = 0, frame = 0
 657              		@ frame_needed = 0, uses_anonymous_args = 0
 658              	.LVL67:
 659 0000 10B5     		push	{r4, lr}
 660              		.cfi_def_cfa_offset 8
 661              		.cfi_offset 4, -8
 662              		.cfi_offset 14, -4
 494:main.c        **** 	uint8 count = 0;
 495:main.c        **** 	
 496:main.c        **** 	if (GPRS_STATE_Read() == 1)
 663              		.loc 1 496 0
 664 0002 FFF7FEFF 		bl	GPRS_STATE_Read
 665              	.LVL68:
 666 0006 0400     		movs	r4, r0
 667 0008 0128     		cmp	r0, #1
 668 000a 3ED1     		bne	.L56
 497:main.c        **** 	{	// 如果是关机状态
 498:main.c        **** 		CyDelay(30);
 669              		.loc 1 498 0
 670 000c 1E20     		movs	r0, #30
 671 000e FFF7FEFF 		bl	CyDelay
 672              	.LVL69:
 499:main.c        **** 		GPRS_PWRKEY_Write(1);
 673              		.loc 1 499 0
 674 0012 2000     		movs	r0, r4
 675 0014 FFF7FEFF 		bl	GPRS_PWRKEY_Write
 676              	.LVL70:
 500:main.c        **** 		while ((GPRS_STATE_Read() == 1) && (count <= 30))
 677              		.loc 1 500 0
 678 0018 1F34     		adds	r4, r4, #31
ARM GAS  C:\Users\Administrator\AppData\Local\Temp\ccNQfmEa.s 			page 22


 679              	.LVL71:
 680              	.L58:
 681 001a FFF7FEFF 		bl	GPRS_STATE_Read
 682              	.LVL72:
 683 001e 0128     		cmp	r0, #1
 684 0020 07D1     		bne	.L59
 685 0022 013C     		subs	r4, r4, #1
 686              	.LVL73:
 687 0024 E4B2     		uxtb	r4, r4
 688              		.loc 1 500 0 is_stmt 0 discriminator 1
 689 0026 002C     		cmp	r4, #0
 690 0028 03D0     		beq	.L59
 501:main.c        **** 		{
 502:main.c        **** 			delay_with_ble(100);
 691              		.loc 1 502 0 is_stmt 1
 692 002a 6420     		movs	r0, #100
 693 002c FFF7FEFF 		bl	delay_with_ble
 694              	.LVL74:
 695 0030 F3E7     		b	.L58
 696              	.LVL75:
 697              	.L59:
 503:main.c        **** 			count++;
 504:main.c        **** 		}
 505:main.c        **** 		GPRS_PWRKEY_Write(0);
 698              		.loc 1 505 0
 699 0032 0020     		movs	r0, #0
 700 0034 FFF7FEFF 		bl	GPRS_PWRKEY_Write
 701              	.LVL76:
 506:main.c        **** 		GPRS_WaitInitFinish();
 702              		.loc 1 506 0
 703 0038 FFF7FEFF 		bl	GPRS_WaitInitFinish
 704              	.LVL77:
 507:main.c        **** 		delay_with_ble(3000);						// 等待3s
 705              		.loc 1 507 0
 706 003c 1348     		ldr	r0, .L65
 707 003e FFF7FEFF 		bl	delay_with_ble
 708              	.LVL78:
 508:main.c        **** 		
 509:main.c        **** 		GPRS_QuerySimCard();
 709              		.loc 1 509 0
 710 0042 FFF7FEFF 		bl	GPRS_QuerySimCard
 711              	.LVL79:
 510:main.c        **** 		delay_with_ble(4000);						// 等待网络注册 连接
 712              		.loc 1 510 0
 713 0046 FA20     		movs	r0, #250
 714 0048 0001     		lsls	r0, r0, #4
 715 004a FFF7FEFF 		bl	delay_with_ble
 716              	.LVL80:
 511:main.c        **** 		wait_timeout = 30000;						// 等待超时 30s
 717              		.loc 1 511 0
 718 004e 104B     		ldr	r3, .L65+4
 719 0050 104A     		ldr	r2, .L65+8
 720 0052 1C00     		movs	r4, r3
 721 0054 1A60     		str	r2, [r3]
 722              	.L61:
 512:main.c        **** 		while(wait_timeout > 0)
 723              		.loc 1 512 0
ARM GAS  C:\Users\Administrator\AppData\Local\Temp\ccNQfmEa.s 			page 23


 724 0056 2368     		ldr	r3, [r4]
 725 0058 002B     		cmp	r3, #0
 726 005a 03D0     		beq	.L64
 513:main.c        **** 		{
 514:main.c        **** 			if(TRUE == GPRS_QueryCREG())			// 查询网络注册情况 AT+CREG? 
 727              		.loc 1 514 0
 728 005c FFF7FEFF 		bl	GPRS_QueryCREG
 729              	.LVL81:
 730 0060 0128     		cmp	r0, #1
 731 0062 0ED1     		bne	.L62
 732              	.L64:
 515:main.c        **** 			{
 516:main.c        **** 				break;		
 517:main.c        **** 			}
 518:main.c        **** 			else
 519:main.c        **** 			{
 520:main.c        **** 				delay_with_ble(1500);	
 521:main.c        **** 			}
 522:main.c        **** 		}
 523:main.c        **** 		delay_with_ble(500);
 733              		.loc 1 523 0
 734 0064 FA20     		movs	r0, #250
 735 0066 4000     		lsls	r0, r0, #1
 736 0068 FFF7FEFF 		bl	delay_with_ble
 737              	.LVL82:
 524:main.c        **** 		if(0 == GPRS_QueryRssi())					// 查询信号情况 AT+CSQ 不查没关系，除非是排除0 
 738              		.loc 1 524 0
 739 006c FFF7FEFF 		bl	GPRS_QueryRssi
 740              	.LVL83:
 525:main.c        **** 		{
 526:main.c        **** 		}		
 527:main.c        **** 		GPRS_SetAPN();								// 设置APN情况 AT+CGDCONT=1,"IP","CMNET" 
 741              		.loc 1 527 0
 742 0070 FFF7FEFF 		bl	GPRS_SetAPN
 743              	.LVL84:
 528:main.c        **** 		delay_with_ble(500);	
 744              		.loc 1 528 0
 745 0074 FA20     		movs	r0, #250
 746 0076 4000     		lsls	r0, r0, #1
 747 0078 FFF7FEFF 		bl	delay_with_ble
 748              	.LVL85:
 529:main.c        **** 		GPRS_SetActive();							// 激活PDP上下文 AT+CGACT=1,1  (6311-R开启)
 749              		.loc 1 529 0
 750 007c FFF7FEFF 		bl	GPRS_SetActive
 751              	.LVL86:
 752 0080 03E0     		b	.L56
 753              	.L62:
 520:main.c        **** 			}
 754              		.loc 1 520 0
 755 0082 0548     		ldr	r0, .L65+12
 756 0084 FFF7FEFF 		bl	delay_with_ble
 757              	.LVL87:
 758 0088 E5E7     		b	.L61
 759              	.L56:
 530:main.c        **** 	}
 531:main.c        **** }
 760              		.loc 1 531 0
ARM GAS  C:\Users\Administrator\AppData\Local\Temp\ccNQfmEa.s 			page 24


 761              		@ sp needed
 762 008a 10BD     		pop	{r4, pc}
 763              	.L66:
 764              		.align	2
 765              	.L65:
 766 008c B80B0000 		.word	3000
 767 0090 00000000 		.word	wait_timeout
 768 0094 30750000 		.word	30000
 769 0098 DC050000 		.word	1500
 770              		.cfi_endproc
 771              	.LFE77:
 772              		.size	GPRSPowerOn, .-GPRSPowerOn
 773              		.section	.text.GPRSPowerOn_0321,"ax",%progbits
 774              		.align	1
 775              		.global	GPRSPowerOn_0321
 776              		.code	16
 777              		.thumb_func
 778              		.type	GPRSPowerOn_0321, %function
 779              	GPRSPowerOn_0321:
 780              	.LFB78:
 532:main.c        **** 
 533:main.c        **** //*************************************************************************************************
 534:main.c        **** // Function name	: GPRSPowerOn
 535:main.c        **** // Description		: GPRS上电
 536:main.c        **** // Parameter		: none
 537:main.c        **** // Return			: none
 538:main.c        **** //-------------------------------------------------------------------------------------------------
 539:main.c        **** // Info				: 
 540:main.c        **** //*************************************************************************************************
 541:main.c        **** void GPRSPowerOn_0321(void)
 542:main.c        **** {
 781              		.loc 1 542 0
 782              		.cfi_startproc
 783              		@ args = 0, pretend = 0, frame = 0
 784              		@ frame_needed = 0, uses_anonymous_args = 0
 785 0000 10B5     		push	{r4, lr}
 786              		.cfi_def_cfa_offset 8
 787              		.cfi_offset 4, -8
 788              		.cfi_offset 14, -4
 543:main.c        **** 	GPRS_SetON();
 789              		.loc 1 543 0
 790 0002 FFF7FEFF 		bl	GPRS_SetON
 791              	.LVL88:
 544:main.c        **** 	
 545:main.c        **** 	cmd433_INT_ISR_StartEx(RX_IRQ_INTERRUPT);						// 开启串口接收中断					//
 792              		.loc 1 545 0
 793 0006 1748     		ldr	r0, .L73
 794 0008 FFF7FEFF 		bl	cmd433_INT_ISR_StartEx
 795              	.LVL89:
 546:main.c        ****     UART_433_Start();												// 串口初始化						//
 796              		.loc 1 546 0
 797 000c FFF7FEFF 		bl	UART_433_Start
 798              	.LVL90:
 547:main.c        **** 	
 548:main.c        **** 	GPRS_WaitInitFinish();
 799              		.loc 1 548 0
 800 0010 FFF7FEFF 		bl	GPRS_WaitInitFinish
ARM GAS  C:\Users\Administrator\AppData\Local\Temp\ccNQfmEa.s 			page 25


 801              	.LVL91:
 549:main.c        **** 	//delay_with_ble(3000);						// 等待3s
 550:main.c        **** 	delay_with_ble(2000);						// 等待3s
 802              		.loc 1 550 0
 803 0014 FA20     		movs	r0, #250
 804 0016 C000     		lsls	r0, r0, #3
 805 0018 FFF7FEFF 		bl	delay_with_ble
 806              	.LVL92:
 551:main.c        **** 	GPRS_QuerySimCard();
 807              		.loc 1 551 0
 808 001c FFF7FEFF 		bl	GPRS_QuerySimCard
 809              	.LVL93:
 552:main.c        **** 	delay_with_ble(4000);						// 等待网络注册 连接
 810              		.loc 1 552 0
 811 0020 FA20     		movs	r0, #250
 812 0022 0001     		lsls	r0, r0, #4
 813 0024 FFF7FEFF 		bl	delay_with_ble
 814              	.LVL94:
 553:main.c        **** 	wait_timeout = 30000;						// 等待超时 30s
 815              		.loc 1 553 0
 816 0028 0F4B     		ldr	r3, .L73+4
 817 002a 104A     		ldr	r2, .L73+8
 818 002c 1C00     		movs	r4, r3
 819 002e 1A60     		str	r2, [r3]
 820              	.L68:
 554:main.c        **** 	while(wait_timeout > 0)
 821              		.loc 1 554 0
 822 0030 2368     		ldr	r3, [r4]
 823 0032 002B     		cmp	r3, #0
 824 0034 03D0     		beq	.L71
 555:main.c        **** 	{
 556:main.c        **** 		if(TRUE == GPRS_QueryCREG())			// 查询网络注册情况 AT+CREG? 
 825              		.loc 1 556 0
 826 0036 FFF7FEFF 		bl	GPRS_QueryCREG
 827              	.LVL95:
 828 003a 0128     		cmp	r0, #1
 829 003c 0ED1     		bne	.L69
 830              	.L71:
 557:main.c        **** 		{
 558:main.c        **** 			break;		
 559:main.c        **** 		}
 560:main.c        **** 		else
 561:main.c        **** 		{
 562:main.c        **** 			delay_with_ble(1500);	
 563:main.c        **** 		}
 564:main.c        **** 	}
 565:main.c        **** 	delay_with_ble(500);
 831              		.loc 1 565 0
 832 003e FA20     		movs	r0, #250
 833 0040 4000     		lsls	r0, r0, #1
 834 0042 FFF7FEFF 		bl	delay_with_ble
 835              	.LVL96:
 566:main.c        **** 	if(0 == GPRS_QueryRssi())					// 查询信号情况 AT+CSQ 不查没关系，除非是排除0 
 836              		.loc 1 566 0
 837 0046 FFF7FEFF 		bl	GPRS_QueryRssi
 838              	.LVL97:
 567:main.c        **** 	{
ARM GAS  C:\Users\Administrator\AppData\Local\Temp\ccNQfmEa.s 			page 26


 568:main.c        **** 	}		
 569:main.c        **** 	GPRS_SetAPN();								// 设置APN情况 AT+CGDCONT=1,"IP","CMNET" 
 839              		.loc 1 569 0
 840 004a FFF7FEFF 		bl	GPRS_SetAPN
 841              	.LVL98:
 570:main.c        **** 	delay_with_ble(500);	
 842              		.loc 1 570 0
 843 004e FA20     		movs	r0, #250
 844 0050 4000     		lsls	r0, r0, #1
 845 0052 FFF7FEFF 		bl	delay_with_ble
 846              	.LVL99:
 571:main.c        **** 	GPRS_SetActive();							// 激活PDP上下文 AT+CGACT=1,1  (6311-R开启)
 572:main.c        **** 
 573:main.c        **** }
 847              		.loc 1 573 0
 848              		@ sp needed
 571:main.c        **** 	GPRS_SetActive();							// 激活PDP上下文 AT+CGACT=1,1  (6311-R开启)
 849              		.loc 1 571 0
 850 0056 FFF7FEFF 		bl	GPRS_SetActive
 851              	.LVL100:
 852              		.loc 1 573 0
 853 005a 10BD     		pop	{r4, pc}
 854              	.L69:
 562:main.c        **** 		}
 855              		.loc 1 562 0
 856 005c 0448     		ldr	r0, .L73+12
 857 005e FFF7FEFF 		bl	delay_with_ble
 858              	.LVL101:
 859 0062 E5E7     		b	.L68
 860              	.L74:
 861              		.align	2
 862              	.L73:
 863 0064 00000000 		.word	RX_IRQ_INTERRUPT
 864 0068 00000000 		.word	wait_timeout
 865 006c 30750000 		.word	30000
 866 0070 DC050000 		.word	1500
 867              		.cfi_endproc
 868              	.LFE78:
 869              		.size	GPRSPowerOn_0321, .-GPRSPowerOn_0321
 870              		.section	.text.GPRSPowerDown,"ax",%progbits
 871              		.align	1
 872              		.global	GPRSPowerDown
 873              		.code	16
 874              		.thumb_func
 875              		.type	GPRSPowerDown, %function
 876              	GPRSPowerDown:
 877              	.LFB79:
 574:main.c        **** 
 575:main.c        **** 
 576:main.c        **** //*************************************************************************************************
 577:main.c        **** // Function name	: GPRSPowerDown
 578:main.c        **** // Description		: GPRS掉电
 579:main.c        **** // Parameter		: none
 580:main.c        **** // Return			: none
 581:main.c        **** //-------------------------------------------------------------------------------------------------
 582:main.c        **** // Info				: 
 583:main.c        **** //*************************************************************************************************
ARM GAS  C:\Users\Administrator\AppData\Local\Temp\ccNQfmEa.s 			page 27


 584:main.c        **** void GPRSPowerDown(void)
 585:main.c        **** {
 878              		.loc 1 585 0
 879              		.cfi_startproc
 880              		@ args = 0, pretend = 0, frame = 0
 881              		@ frame_needed = 0, uses_anonymous_args = 0
 882              	.LVL102:
 883 0000 10B5     		push	{r4, lr}
 884              		.cfi_def_cfa_offset 8
 885              		.cfi_offset 4, -8
 886              		.cfi_offset 14, -4
 586:main.c        **** 	uint8 count = 0;
 587:main.c        **** 	
 588:main.c        **** 	if (GPRS_STATE_Read() == 0)
 887              		.loc 1 588 0
 888 0002 FFF7FEFF 		bl	GPRS_STATE_Read
 889              	.LVL103:
 890 0006 0028     		cmp	r0, #0
 891 0008 12D1     		bne	.L76
 589:main.c        **** 	{
 590:main.c        **** 		GPRS_PWRKEY_Write(1);
 892              		.loc 1 590 0
 893 000a 0130     		adds	r0, r0, #1
 894 000c FFF7FEFF 		bl	GPRS_PWRKEY_Write
 895              	.LVL104:
 591:main.c        **** 		while ((GPRS_STATE_Read() == 0) && (count <= 30))
 896              		.loc 1 591 0
 897 0010 2024     		movs	r4, #32
 898              	.LVL105:
 899              	.L77:
 900 0012 FFF7FEFF 		bl	GPRS_STATE_Read
 901              	.LVL106:
 902 0016 0028     		cmp	r0, #0
 903 0018 07D1     		bne	.L78
 904 001a 013C     		subs	r4, r4, #1
 905              	.LVL107:
 906 001c E4B2     		uxtb	r4, r4
 907              		.loc 1 591 0 is_stmt 0 discriminator 1
 908 001e 002C     		cmp	r4, #0
 909 0020 03D0     		beq	.L78
 592:main.c        **** 		{
 593:main.c        **** 			delay_with_ble(100);
 910              		.loc 1 593 0 is_stmt 1
 911 0022 6420     		movs	r0, #100
 912 0024 FFF7FEFF 		bl	delay_with_ble
 913              	.LVL108:
 914 0028 F3E7     		b	.L77
 915              	.LVL109:
 916              	.L78:
 594:main.c        **** 			count++;
 595:main.c        **** 		}
 596:main.c        **** 		GPRS_PWRKEY_Write(0);
 917              		.loc 1 596 0
 918 002a 0020     		movs	r0, #0
 919 002c FFF7FEFF 		bl	GPRS_PWRKEY_Write
 920              	.LVL110:
 921              	.L76:
ARM GAS  C:\Users\Administrator\AppData\Local\Temp\ccNQfmEa.s 			page 28


 597:main.c        **** 	}
 598:main.c        ****     delay_with_ble(10000);
 922              		.loc 1 598 0
 923 0030 0148     		ldr	r0, .L80
 924 0032 FFF7FEFF 		bl	delay_with_ble
 925              	.LVL111:
 599:main.c        **** }
 926              		.loc 1 599 0
 927              		@ sp needed
 928 0036 10BD     		pop	{r4, pc}
 929              	.L81:
 930              		.align	2
 931              	.L80:
 932 0038 10270000 		.word	10000
 933              		.cfi_endproc
 934              	.LFE79:
 935              		.size	GPRSPowerDown, .-GPRSPowerDown
 936              		.section	.text.ResetGPRS,"ax",%progbits
 937              		.align	1
 938              		.global	ResetGPRS
 939              		.code	16
 940              		.thumb_func
 941              		.type	ResetGPRS, %function
 942              	ResetGPRS:
 943              	.LFB80:
 600:main.c        **** 
 601:main.c        **** //*************************************************************************************************
 602:main.c        **** // Function name	: ResetGPRS
 603:main.c        **** // Description		: 复位GPRS模块
 604:main.c        **** // Parameter		: none
 605:main.c        **** // Return			: none
 606:main.c        **** //-------------------------------------------------------------------------------------------------
 607:main.c        **** // Info				: 
 608:main.c        **** //*************************************************************************************************
 609:main.c        **** void ResetGPRS(void)
 610:main.c        **** {
 944              		.loc 1 610 0
 945              		.cfi_startproc
 946              		@ args = 0, pretend = 0, frame = 0
 947              		@ frame_needed = 0, uses_anonymous_args = 0
 948 0000 10B5     		push	{r4, lr}
 949              		.cfi_def_cfa_offset 8
 950              		.cfi_offset 4, -8
 951              		.cfi_offset 14, -4
 611:main.c        ****     GPRS_RESET_Write(1);
 952              		.loc 1 611 0
 953 0002 0120     		movs	r0, #1
 954 0004 FFF7FEFF 		bl	GPRS_RESET_Write
 955              	.LVL112:
 612:main.c        **** 	delay_with_ble(25);
 956              		.loc 1 612 0
 957 0008 1920     		movs	r0, #25
 958 000a FFF7FEFF 		bl	delay_with_ble
 959              	.LVL113:
 613:main.c        **** 	GPRS_RESET_Write(0);
 960              		.loc 1 613 0
 961 000e 0020     		movs	r0, #0
ARM GAS  C:\Users\Administrator\AppData\Local\Temp\ccNQfmEa.s 			page 29


 962 0010 FFF7FEFF 		bl	GPRS_RESET_Write
 963              	.LVL114:
 614:main.c        **** }
 964              		.loc 1 614 0
 965              		@ sp needed
 966 0014 10BD     		pop	{r4, pc}
 967              		.cfi_endproc
 968              	.LFE80:
 969              		.size	ResetGPRS, .-ResetGPRS
 970              		.section	.text.WaitTimeOut,"ax",%progbits
 971              		.align	1
 972              		.global	WaitTimeOut
 973              		.code	16
 974              		.thumb_func
 975              		.type	WaitTimeOut, %function
 976              	WaitTimeOut:
 977              	.LFB81:
 615:main.c        **** 
 616:main.c        **** //*************************************************************************************************
 617:main.c        **** // Function name	: WaitTimeOut
 618:main.c        **** // Description		: 通用等待超时时间
 619:main.c        **** // Parameter		: none
 620:main.c        **** // Return			: none
 621:main.c        **** //-------------------------------------------------------------------------------------------------
 622:main.c        **** // Info				: 
 623:main.c        **** //*************************************************************************************************
 624:main.c        **** void WaitTimeOut(void)
 625:main.c        **** {				
 978              		.loc 1 625 0
 979              		.cfi_startproc
 980              		@ args = 0, pretend = 0, frame = 0
 981              		@ frame_needed = 0, uses_anonymous_args = 0
 982              		@ link register save eliminated.
 626:main.c        **** 	if (wait_timeout > 0)
 983              		.loc 1 626 0
 984 0000 034B     		ldr	r3, .L88
 985 0002 1A68     		ldr	r2, [r3]
 986 0004 002A     		cmp	r2, #0
 987 0006 02D0     		beq	.L83
 627:main.c        ****     {
 628:main.c        ****         wait_timeout--;
 988              		.loc 1 628 0
 989 0008 1A68     		ldr	r2, [r3]
 990 000a 013A     		subs	r2, r2, #1
 991 000c 1A60     		str	r2, [r3]
 992              	.L83:
 629:main.c        ****     }
 630:main.c        **** }
 993              		.loc 1 630 0
 994              		@ sp needed
 995 000e 7047     		bx	lr
 996              	.L89:
 997              		.align	2
 998              	.L88:
 999 0010 00000000 		.word	wait_timeout
 1000              		.cfi_endproc
 1001              	.LFE81:
ARM GAS  C:\Users\Administrator\AppData\Local\Temp\ccNQfmEa.s 			page 30


 1002              		.size	WaitTimeOut, .-WaitTimeOut
 1003              		.section	.text.CardCheckTimeOut,"ax",%progbits
 1004              		.align	1
 1005              		.global	CardCheckTimeOut
 1006              		.code	16
 1007              		.thumb_func
 1008              		.type	CardCheckTimeOut, %function
 1009              	CardCheckTimeOut:
 1010              	.LFB82:
 631:main.c        **** 
 632:main.c        **** //*************************************************************************************************
 633:main.c        **** // Function name	: CardCheckTimeOut
 634:main.c        **** // Description		: 刷卡计时
 635:main.c        **** // Parameter		: none
 636:main.c        **** // Return			: none
 637:main.c        **** //-------------------------------------------------------------------------------------------------
 638:main.c        **** // Info				: 
 639:main.c        **** //*************************************************************************************************
 640:main.c        **** void CardCheckTimeOut(void)
 641:main.c        **** {				
 1011              		.loc 1 641 0
 1012              		.cfi_startproc
 1013              		@ args = 0, pretend = 0, frame = 0
 1014              		@ frame_needed = 0, uses_anonymous_args = 0
 1015              		@ link register save eliminated.
 642:main.c        **** 	if (CardCheck_CountTime < 10000)
 1016              		.loc 1 642 0
 1017 0000 044B     		ldr	r3, .L92
 1018 0002 054A     		ldr	r2, .L92+4
 1019 0004 1968     		ldr	r1, [r3]
 1020 0006 9142     		cmp	r1, r2
 1021 0008 02D8     		bhi	.L90
 643:main.c        ****     {
 644:main.c        ****         CardCheck_CountTime++;
 1022              		.loc 1 644 0
 1023 000a 1A68     		ldr	r2, [r3]
 1024 000c 0132     		adds	r2, r2, #1
 1025 000e 1A60     		str	r2, [r3]
 1026              	.L90:
 645:main.c        ****     }
 646:main.c        **** }
 1027              		.loc 1 646 0
 1028              		@ sp needed
 1029 0010 7047     		bx	lr
 1030              	.L93:
 1031 0012 C046     		.align	2
 1032              	.L92:
 1033 0014 00000000 		.word	.LANCHOR0
 1034 0018 0F270000 		.word	9999
 1035              		.cfi_endproc
 1036              	.LFE82:
 1037              		.size	CardCheckTimeOut, .-CardCheckTimeOut
 1038              		.section	.text.Defendalarm_TimeOut,"ax",%progbits
 1039              		.align	1
 1040              		.global	Defendalarm_TimeOut
 1041              		.code	16
 1042              		.thumb_func
ARM GAS  C:\Users\Administrator\AppData\Local\Temp\ccNQfmEa.s 			page 31


 1043              		.type	Defendalarm_TimeOut, %function
 1044              	Defendalarm_TimeOut:
 1045              	.LFB83:
 647:main.c        **** 
 648:main.c        **** 
 649:main.c        **** //*************************************************************************************************
 650:main.c        **** // Function name	: CardCheckTimeOut
 651:main.c        **** // Description		: 刷卡计时
 652:main.c        **** // Parameter		: none
 653:main.c        **** // Return			: none
 654:main.c        **** //-------------------------------------------------------------------------------------------------
 655:main.c        **** // Info				: if (CardCheck_CountTime > 1500)
 656:main.c        **** //*************************************************************************************************
 657:main.c        **** void Defendalarm_TimeOut(void)
 658:main.c        **** {				
 1046              		.loc 1 658 0
 1047              		.cfi_startproc
 1048              		@ args = 0, pretend = 0, frame = 0
 1049              		@ frame_needed = 0, uses_anonymous_args = 0
 1050              		@ link register save eliminated.
 659:main.c        **** 	if (defendalarm_time < 10000)
 1051              		.loc 1 659 0
 1052 0000 034A     		ldr	r2, .L96
 1053 0002 0449     		ldr	r1, .L96+4
 1054 0004 1368     		ldr	r3, [r2]
 1055 0006 8B42     		cmp	r3, r1
 1056 0008 01D8     		bhi	.L94
 660:main.c        ****     {
 661:main.c        ****         defendalarm_time++;
 1057              		.loc 1 661 0
 1058 000a 0133     		adds	r3, r3, #1
 1059 000c 1360     		str	r3, [r2]
 1060              	.L94:
 662:main.c        ****     }
 663:main.c        **** }
 1061              		.loc 1 663 0
 1062              		@ sp needed
 1063 000e 7047     		bx	lr
 1064              	.L97:
 1065              		.align	2
 1066              	.L96:
 1067 0010 00000000 		.word	defendalarm_time
 1068 0014 0F270000 		.word	9999
 1069              		.cfi_endproc
 1070              	.LFE83:
 1071              		.size	Defendalarm_TimeOut, .-Defendalarm_TimeOut
 1072              		.section	.text.MgCheck_Count,"ax",%progbits
 1073              		.align	1
 1074              		.global	MgCheck_Count
 1075              		.code	16
 1076              		.thumb_func
 1077              		.type	MgCheck_Count, %function
 1078              	MgCheck_Count:
 1079              	.LFB84:
 664:main.c        **** 
 665:main.c        **** //*************************************************************************************************
 666:main.c        **** // Function name	: MgCheck_Count
ARM GAS  C:\Users\Administrator\AppData\Local\Temp\ccNQfmEa.s 			page 32


 667:main.c        **** // Description		: 门磁检测计时
 668:main.c        **** // Parameter		: none
 669:main.c        **** // Return			: none
 670:main.c        **** //-------------------------------------------------------------------------------------------------
 671:main.c        **** // Info				: 
 672:main.c        **** //*************************************************************************************************
 673:main.c        **** void MgCheck_Count(void)
 674:main.c        **** {				
 1080              		.loc 1 674 0
 1081              		.cfi_startproc
 1082              		@ args = 0, pretend = 0, frame = 0
 1083              		@ frame_needed = 0, uses_anonymous_args = 0
 1084              		@ link register save eliminated.
 675:main.c        **** 	if (MgCheck_time < 1000000)
 1085              		.loc 1 675 0
 1086 0000 034A     		ldr	r2, .L100
 1087 0002 0449     		ldr	r1, .L100+4
 1088 0004 1368     		ldr	r3, [r2]
 1089 0006 8B42     		cmp	r3, r1
 1090 0008 01D8     		bhi	.L98
 676:main.c        ****     {
 677:main.c        ****         MgCheck_time++;
 1091              		.loc 1 677 0
 1092 000a 0133     		adds	r3, r3, #1
 1093 000c 1360     		str	r3, [r2]
 1094              	.L98:
 678:main.c        ****     }
 679:main.c        **** }
 1095              		.loc 1 679 0
 1096              		@ sp needed
 1097 000e 7047     		bx	lr
 1098              	.L101:
 1099              		.align	2
 1100              	.L100:
 1101 0010 00000000 		.word	MgCheck_time
 1102 0014 3F420F00 		.word	999999
 1103              		.cfi_endproc
 1104              	.LFE84:
 1105              		.size	MgCheck_Count, .-MgCheck_Count
 1106              		.section	.text.FireCheck_Count,"ax",%progbits
 1107              		.align	1
 1108              		.global	FireCheck_Count
 1109              		.code	16
 1110              		.thumb_func
 1111              		.type	FireCheck_Count, %function
 1112              	FireCheck_Count:
 1113              	.LFB85:
 680:main.c        **** 
 681:main.c        **** 
 682:main.c        **** //*************************************************************************************************
 683:main.c        **** // Function name	: FireCheck_Count
 684:main.c        **** // Description		: 火警上报
 685:main.c        **** // Parameter		: none
 686:main.c        **** // Return			: none
 687:main.c        **** //-------------------------------------------------------------------------------------------------
 688:main.c        **** // Info				: 
 689:main.c        **** //*************************************************************************************************
ARM GAS  C:\Users\Administrator\AppData\Local\Temp\ccNQfmEa.s 			page 33


 690:main.c        **** void FireCheck_Count(void)
 691:main.c        **** {				
 1114              		.loc 1 691 0
 1115              		.cfi_startproc
 1116              		@ args = 0, pretend = 0, frame = 0
 1117              		@ frame_needed = 0, uses_anonymous_args = 0
 1118              		@ link register save eliminated.
 692:main.c        **** 	if (FireCheck_time < 1000000)
 1119              		.loc 1 692 0
 1120 0000 034A     		ldr	r2, .L104
 1121 0002 0449     		ldr	r1, .L104+4
 1122 0004 1368     		ldr	r3, [r2]
 1123 0006 8B42     		cmp	r3, r1
 1124 0008 01D8     		bhi	.L102
 693:main.c        ****     {
 694:main.c        ****         FireCheck_time++;
 1125              		.loc 1 694 0
 1126 000a 0133     		adds	r3, r3, #1
 1127 000c 1360     		str	r3, [r2]
 1128              	.L102:
 695:main.c        ****     }
 696:main.c        **** }
 1129              		.loc 1 696 0
 1130              		@ sp needed
 1131 000e 7047     		bx	lr
 1132              	.L105:
 1133              		.align	2
 1134              	.L104:
 1135 0010 00000000 		.word	FireCheck_time
 1136 0014 3F420F00 		.word	999999
 1137              		.cfi_endproc
 1138              	.LFE85:
 1139              		.size	FireCheck_Count, .-FireCheck_Count
 1140              		.section	.text.RecvTimeOut,"ax",%progbits
 1141              		.align	1
 1142              		.global	RecvTimeOut
 1143              		.code	16
 1144              		.thumb_func
 1145              		.type	RecvTimeOut, %function
 1146              	RecvTimeOut:
 1147              	.LFB86:
 697:main.c        **** 
 698:main.c        **** 
 699:main.c        **** //*************************************************************************************************
 700:main.c        **** // Function name	: RecvTimeOut
 701:main.c        **** // Description		: GPRS收到包头后，到整个包收完的超时时间
 702:main.c        **** // Parameter		: none
 703:main.c        **** // Return			: none
 704:main.c        **** //-------------------------------------------------------------------------------------------------
 705:main.c        **** // Info				: 
 706:main.c        **** //*************************************************************************************************
 707:main.c        **** void RecvTimeOut(void)
 708:main.c        **** {				
 1148              		.loc 1 708 0
 1149              		.cfi_startproc
 1150              		@ args = 0, pretend = 0, frame = 0
 1151              		@ frame_needed = 0, uses_anonymous_args = 0
ARM GAS  C:\Users\Administrator\AppData\Local\Temp\ccNQfmEa.s 			page 34


 1152              		@ link register save eliminated.
 709:main.c        **** 	if (recv_timeout > 0)
 1153              		.loc 1 709 0
 1154 0000 034B     		ldr	r3, .L111
 1155 0002 1A68     		ldr	r2, [r3]
 1156 0004 002A     		cmp	r2, #0
 1157 0006 02D0     		beq	.L106
 710:main.c        ****     {
 711:main.c        ****         recv_timeout--;
 1158              		.loc 1 711 0
 1159 0008 1A68     		ldr	r2, [r3]
 1160 000a 013A     		subs	r2, r2, #1
 1161 000c 1A60     		str	r2, [r3]
 1162              	.L106:
 712:main.c        ****     }
 713:main.c        **** }
 1163              		.loc 1 713 0
 1164              		@ sp needed
 1165 000e 7047     		bx	lr
 1166              	.L112:
 1167              		.align	2
 1168              	.L111:
 1169 0010 00000000 		.word	recv_timeout
 1170              		.cfi_endproc
 1171              	.LFE86:
 1172              		.size	RecvTimeOut, .-RecvTimeOut
 1173              		.section	.text.UpdateTimeOut,"ax",%progbits
 1174              		.align	1
 1175              		.global	UpdateTimeOut
 1176              		.code	16
 1177              		.thumb_func
 1178              		.type	UpdateTimeOut, %function
 1179              	UpdateTimeOut:
 1180              	.LFB87:
 714:main.c        **** 
 715:main.c        **** //*************************************************************************************************
 716:main.c        **** // Function name	: UpdateTimeOut
 717:main.c        **** // Description		: 在线升级超时时间
 718:main.c        **** // Parameter		: none
 719:main.c        **** // Return			: none
 720:main.c        **** //-------------------------------------------------------------------------------------------------
 721:main.c        **** // Info				: 
 722:main.c        **** //*************************************************************************************************
 723:main.c        **** void UpdateTimeOut(void)
 724:main.c        **** {				
 1181              		.loc 1 724 0
 1182              		.cfi_startproc
 1183              		@ args = 0, pretend = 0, frame = 0
 1184              		@ frame_needed = 0, uses_anonymous_args = 0
 1185              		@ link register save eliminated.
 725:main.c        **** 	if (update_timeout_time > 0)
 1186              		.loc 1 725 0
 1187 0000 034B     		ldr	r3, .L118
 1188 0002 5A68     		ldr	r2, [r3, #4]
 1189 0004 002A     		cmp	r2, #0
 1190 0006 02D0     		beq	.L113
 726:main.c        ****     {
ARM GAS  C:\Users\Administrator\AppData\Local\Temp\ccNQfmEa.s 			page 35


 727:main.c        ****         update_timeout_time--;
 1191              		.loc 1 727 0
 1192 0008 5A68     		ldr	r2, [r3, #4]
 1193 000a 013A     		subs	r2, r2, #1
 1194 000c 5A60     		str	r2, [r3, #4]
 1195              	.L113:
 728:main.c        ****     }
 729:main.c        **** }
 1196              		.loc 1 729 0
 1197              		@ sp needed
 1198 000e 7047     		bx	lr
 1199              	.L119:
 1200              		.align	2
 1201              	.L118:
 1202 0010 00000000 		.word	.LANCHOR0
 1203              		.cfi_endproc
 1204              	.LFE87:
 1205              		.size	UpdateTimeOut, .-UpdateTimeOut
 1206              		.section	.text.Reboot_Check,"ax",%progbits
 1207              		.align	1
 1208              		.global	Reboot_Check
 1209              		.code	16
 1210              		.thumb_func
 1211              		.type	Reboot_Check, %function
 1212              	Reboot_Check:
 1213              	.LFB88:
 730:main.c        **** 
 731:main.c        **** //*************************************************************************************************
 732:main.c        **** // Function name	: Reboot_Check
 733:main.c        **** // Description		: 重启检测
 734:main.c        **** // Parameter		: none
 735:main.c        **** // Return			: none
 736:main.c        **** //-------------------------------------------------------------------------------------------------
 737:main.c        **** // Info				: 
 738:main.c        **** //*************************************************************************************************
 739:main.c        **** void Reboot_Check(void)
 740:main.c        **** {
 1214              		.loc 1 740 0
 1215              		.cfi_startproc
 1216              		@ args = 0, pretend = 0, frame = 0
 1217              		@ frame_needed = 0, uses_anonymous_args = 0
 1218 0000 10B5     		push	{r4, lr}
 1219              		.cfi_def_cfa_offset 8
 1220              		.cfi_offset 4, -8
 1221              		.cfi_offset 14, -4
 741:main.c        ****     if ((flag_reboot == 1) && (stop_reboot == 0))
 1222              		.loc 1 741 0
 1223 0002 064B     		ldr	r3, .L122
 1224 0004 1A78     		ldrb	r2, [r3]
 1225 0006 012A     		cmp	r2, #1
 1226 0008 06D1     		bne	.L120
 1227              	.LBB12:
 1228              	.LBB13:
 1229 000a 054A     		ldr	r2, .L122+4
 1230 000c 1278     		ldrb	r2, [r2]
 1231 000e 002A     		cmp	r2, #0
 1232 0010 02D1     		bne	.L120
ARM GAS  C:\Users\Administrator\AppData\Local\Temp\ccNQfmEa.s 			page 36


 742:main.c        ****     {
 743:main.c        ****         flag_reboot = 0;
 1233              		.loc 1 743 0
 1234 0012 1A70     		strb	r2, [r3]
 744:main.c        ****         CySoftwareReset();
 1235              		.loc 1 744 0
 1236 0014 FFF7FEFF 		bl	CySoftwareReset
 1237              	.LVL115:
 1238              	.L120:
 1239              	.LBE13:
 1240              	.LBE12:
 745:main.c        ****     }
 746:main.c        **** }
 1241              		.loc 1 746 0
 1242              		@ sp needed
 1243 0018 10BD     		pop	{r4, pc}
 1244              	.L123:
 1245 001a C046     		.align	2
 1246              	.L122:
 1247 001c 00000000 		.word	flag_reboot
 1248 0020 00000000 		.word	stop_reboot
 1249              		.cfi_endproc
 1250              	.LFE88:
 1251              		.size	Reboot_Check, .-Reboot_Check
 1252              		.section	.text.Updatealarm_check,"ax",%progbits
 1253              		.align	1
 1254              		.global	Updatealarm_check
 1255              		.code	16
 1256              		.thumb_func
 1257              		.type	Updatealarm_check, %function
 1258              	Updatealarm_check:
 1259              	.LFB89:
 747:main.c        **** 
 748:main.c        **** //*************************************************************************************************
 749:main.c        **** // Function name	: Updatealarm_check
 750:main.c        **** // Description		: 重启检测
 751:main.c        **** // Parameter		: none
 752:main.c        **** // Return			: none
 753:main.c        **** //-------------------------------------------------------------------------------------------------
 754:main.c        **** // Info				: 查看是否升级记录 有，检查是否升级成功 若失败上报失败信息
 755:main.c        **** //*************************************************************************************************
 756:main.c        **** void Updatealarm_check(void)
 757:main.c        **** {
 1260              		.loc 1 757 0
 1261              		.cfi_startproc
 1262              		@ args = 0, pretend = 0, frame = 8
 1263              		@ frame_needed = 0, uses_anonymous_args = 0
 1264 0000 13B5     		push	{r0, r1, r4, lr}
 1265              		.cfi_def_cfa_offset 16
 1266              		.cfi_offset 0, -16
 1267              		.cfi_offset 1, -12
 1268              		.cfi_offset 4, -8
 1269              		.cfi_offset 14, -4
 758:main.c        **** 	uint8 tmp[3] = {0};
 1270              		.loc 1 758 0
 1271 0002 01AC     		add	r4, sp, #4
 1272 0004 0322     		movs	r2, #3
ARM GAS  C:\Users\Administrator\AppData\Local\Temp\ccNQfmEa.s 			page 37


 1273 0006 0021     		movs	r1, #0
 1274 0008 2000     		movs	r0, r4
 1275 000a FFF7FEFF 		bl	memset
 1276              	.LVL116:
 759:main.c        **** 	uint8 flag = 0;
 760:main.c        **** 	uint16 firmver;
 761:main.c        **** 	
 762:main.c        **** 	if ((gprs_state == NORMAL_COMM)&&(update_report == 0))
 1277              		.loc 1 762 0
 1278 000e 154B     		ldr	r3, .L131
 1279 0010 1B78     		ldrb	r3, [r3]
 1280 0012 052B     		cmp	r3, #5
 1281 0014 24D1     		bne	.L124
 1282              		.loc 1 762 0 is_stmt 0 discriminator 1
 1283 0016 144B     		ldr	r3, .L131+4
 1284 0018 1A78     		ldrb	r2, [r3]
 1285 001a 002A     		cmp	r2, #0
 1286 001c 20D1     		bne	.L124
 763:main.c        **** 	{
 764:main.c        **** 		DBG_SOFT_PutStr("\npolling update info:\n");
 765:main.c        **** 		update_report = 1;
 1287              		.loc 1 765 0 is_stmt 1
 1288 001e 0132     		adds	r2, r2, #1
 1289 0020 1A70     		strb	r2, [r3]
 766:main.c        **** 		W25QXX_Read((uint8 *)&tmp, UPDATE_SYSTEMVER, 3);
 1290              		.loc 1 766 0
 1291 0022 1249     		ldr	r1, .L131+8
 1292 0024 0232     		adds	r2, r2, #2
 1293 0026 2000     		movs	r0, r4
 1294 0028 FFF7FEFF 		bl	W25QXX_Read
 1295              	.LVL117:
 767:main.c        **** 		flag = tmp[2];
 768:main.c        **** 		DBG_SOFT_PrintfHex(tmp,3,16);
 769:main.c        **** 		if(flag == 1)
 1296              		.loc 1 769 0
 1297 002c A378     		ldrb	r3, [r4, #2]
 1298 002e 012B     		cmp	r3, #1
 1299 0030 16D1     		bne	.L124
 770:main.c        **** 		{
 771:main.c        **** 			firmver = (tmp[0] <<8) | tmp[1];
 1300              		.loc 1 771 0
 1301 0032 2378     		ldrb	r3, [r4]
 1302 0034 6278     		ldrb	r2, [r4, #1]
 1303 0036 1B02     		lsls	r3, r3, #8
 1304 0038 1343     		orrs	r3, r2
 1305              	.LVL118:
 1306 003a 0D4A     		ldr	r2, .L131+12
 772:main.c        **** 			if(firmver == SYSTEM_VERSION)
 1307              		.loc 1 772 0
 1308 003c 0D2B     		cmp	r3, #13
 1309 003e 01D1     		bne	.L128
 773:main.c        **** 			{
 774:main.c        **** 				//上报报警 升级ok信息
 775:main.c        **** 				EnterGuide_State = ALARM_UpdateOk;
 1310              		.loc 1 775 0
 1311 0040 043B     		subs	r3, r3, #4
 1312              	.LVL119:
ARM GAS  C:\Users\Administrator\AppData\Local\Temp\ccNQfmEa.s 			page 38


 1313 0042 02E0     		b	.L130
 1314              	.LVL120:
 1315              	.L128:
 776:main.c        **** 			}
 777:main.c        **** 			else if(firmver > SYSTEM_VERSION)
 1316              		.loc 1 777 0
 1317 0044 0D2B     		cmp	r3, #13
 1318 0046 01D9     		bls	.L129
 778:main.c        **** 			{
 779:main.c        **** 				//上报报警 升级ERR信息
 780:main.c        **** 				EnterGuide_State = ALARM_UpdateErr;
 1319              		.loc 1 780 0
 1320 0048 0A23     		movs	r3, #10
 1321              	.LVL121:
 1322              	.L130:
 1323 004a 1372     		strb	r3, [r2, #8]
 1324              	.L129:
 781:main.c        **** 			
 782:main.c        **** 			}
 783:main.c        **** 			send_alarm_info(EnterGuide_State);						// 升级是否成功报警					//	
 1325              		.loc 1 783 0
 1326 004c 107A     		ldrb	r0, [r2, #8]
 1327 004e FFF7FEFF 		bl	send_alarm_info
 1328              	.LVL122:
 784:main.c        **** 			
 785:main.c        **** 			flag =  0;
 786:main.c        **** 			firmver = SYSTEM_VERSION;
 787:main.c        **** 			Write_UpdateInfo(flag, firmver);						// 清空 还原升级信息				//
 1329              		.loc 1 787 0
 1330 0052 0D21     		movs	r1, #13
 1331 0054 0020     		movs	r0, #0
 1332 0056 FFF7FEFF 		bl	Write_UpdateInfo
 1333              	.LVL123:
 788:main.c        **** 			
 789:main.c        **** 			FireCheck_time = 0;										// 防止火警马上上报					//
 1334              		.loc 1 789 0
 1335 005a 0022     		movs	r2, #0
 1336 005c 054B     		ldr	r3, .L131+16
 1337 005e 1A60     		str	r2, [r3]
 1338              	.LVL124:
 1339              	.L124:
 790:main.c        **** 		}	
 791:main.c        ****  	}
 792:main.c        **** }
 1340              		.loc 1 792 0
 1341              		@ sp needed
 1342 0060 13BD     		pop	{r0, r1, r4, pc}
 1343              	.L132:
 1344 0062 C046     		.align	2
 1345              	.L131:
 1346 0064 00000000 		.word	gprs_state
 1347 0068 00000000 		.word	update_report
 1348 006c 03910100 		.word	102659
 1349 0070 00000000 		.word	.LANCHOR0
 1350 0074 00000000 		.word	FireCheck_time
 1351              		.cfi_endproc
 1352              	.LFE89:
ARM GAS  C:\Users\Administrator\AppData\Local\Temp\ccNQfmEa.s 			page 39


 1353              		.size	Updatealarm_check, .-Updatealarm_check
 1354              		.section	.text.BLE_Tick,"ax",%progbits
 1355              		.align	1
 1356              		.global	BLE_Tick
 1357              		.code	16
 1358              		.thumb_func
 1359              		.type	BLE_Tick, %function
 1360              	BLE_Tick:
 1361              	.LFB90:
 793:main.c        **** 
 794:main.c        **** //*************************************************************************************************
 795:main.c        **** // Function name	: BLE_Tick
 796:main.c        **** // Description		: 蓝牙的处理
 797:main.c        **** // Parameter		: none
 798:main.c        **** // Return			: none
 799:main.c        **** //-------------------------------------------------------------------------------------------------
 800:main.c        **** // Info				: 
 801:main.c        **** //*************************************************************************************************
 802:main.c        **** void BLE_Tick(void)
 803:main.c        **** {
 1362              		.loc 1 803 0
 1363              		.cfi_startproc
 1364              		@ args = 0, pretend = 0, frame = 0
 1365              		@ frame_needed = 0, uses_anonymous_args = 0
 1366 0000 10B5     		push	{r4, lr}
 1367              		.cfi_def_cfa_offset 8
 1368              		.cfi_offset 4, -8
 1369              		.cfi_offset 14, -4
 804:main.c        **** 	ble_heartbeat();
 1370              		.loc 1 804 0
 1371 0002 FFF7FEFF 		bl	ble_heartbeat
 1372              	.LVL125:
 805:main.c        **** 	if(CyBle_GetState() == CYBLE_STATE_CONNECTED)
 1373              		.loc 1 805 0
 1374 0006 064B     		ldr	r3, .L135
 1375 0008 1B78     		ldrb	r3, [r3]
 1376 000a 022B     		cmp	r3, #2
 1377 000c 07D1     		bne	.L133
 1378              	.LBB16:
 1379              	.LBB17:
 806:main.c        **** 	{
 807:main.c        **** 		if (BleCmdValidFlag == 1)
 1380              		.loc 1 807 0
 1381 000e 054C     		ldr	r4, .L135+4
 1382 0010 2378     		ldrb	r3, [r4]
 1383 0012 012B     		cmp	r3, #1
 1384 0014 03D1     		bne	.L133
 808:main.c        ****         {					
 809:main.c        **** 			Protocol_CmdParse();
 1385              		.loc 1 809 0
 1386 0016 FFF7FEFF 		bl	Protocol_CmdParse
 1387              	.LVL126:
 810:main.c        **** 			BleCmdValidFlag = 0;
 1388              		.loc 1 810 0
 1389 001a 0023     		movs	r3, #0
 1390 001c 2370     		strb	r3, [r4]
 1391              	.L133:
ARM GAS  C:\Users\Administrator\AppData\Local\Temp\ccNQfmEa.s 			page 40


 1392              	.LBE17:
 1393              	.LBE16:
 811:main.c        **** 			DBG_PRINTF("BLE handle cmd done.\n");
 812:main.c        **** 		}
 813:main.c        **** 	}
 814:main.c        **** }
 1394              		.loc 1 814 0
 1395              		@ sp needed
 1396 001e 10BD     		pop	{r4, pc}
 1397              	.L136:
 1398              		.align	2
 1399              	.L135:
 1400 0020 00000000 		.word	cyBle_state
 1401 0024 00000000 		.word	BleCmdValidFlag
 1402              		.cfi_endproc
 1403              	.LFE90:
 1404              		.size	BLE_Tick, .-BLE_Tick
 1405              		.section	.text.GPRS_Tick,"ax",%progbits
 1406              		.align	1
 1407              		.global	GPRS_Tick
 1408              		.code	16
 1409              		.thumb_func
 1410              		.type	GPRS_Tick, %function
 1411              	GPRS_Tick:
 1412              	.LFB91:
 815:main.c        **** 
 816:main.c        **** //*************************************************************************************************
 817:main.c        **** // Function name	: GPRS_Tick
 818:main.c        **** // Description		: GPRS的处理
 819:main.c        **** // Parameter		: none
 820:main.c        **** // Return			: none
 821:main.c        **** //-------------------------------------------------------------------------------------------------
 822:main.c        **** // Info				: 
 823:main.c        **** //*************************************************************************************************
 824:main.c        **** void GPRS_Tick(void)
 825:main.c        **** {
 1413              		.loc 1 825 0
 1414              		.cfi_startproc
 1415              		@ args = 0, pretend = 0, frame = 8
 1416              		@ frame_needed = 0, uses_anonymous_args = 0
 1417              	.LVL127:
 1418 0000 F7B5     		push	{r0, r1, r2, r4, r5, r6, r7, lr}
 1419              		.cfi_def_cfa_offset 32
 1420              		.cfi_offset 0, -32
 1421              		.cfi_offset 1, -28
 1422              		.cfi_offset 2, -24
 1423              		.cfi_offset 4, -20
 1424              		.cfi_offset 5, -16
 1425              		.cfi_offset 6, -12
 1426              		.cfi_offset 7, -8
 1427              		.cfi_offset 14, -4
 826:main.c        **** 	uint8 ret;
 827:main.c        **** 	uint32 count = 0;
 828:main.c        **** 	
 829:main.c        **** 	if ((GPRSCmdParseFlag1 == 1) || (GPRSCmdParseFlag2 == 1))		// 服务器发出的命令					//
 1428              		.loc 1 829 0
 1429 0002 B74B     		ldr	r3, .L174
ARM GAS  C:\Users\Administrator\AppData\Local\Temp\ccNQfmEa.s 			page 41


 1430 0004 1B78     		ldrb	r3, [r3]
 1431 0006 012B     		cmp	r3, #1
 1432 0008 03D0     		beq	.L138
 1433              		.loc 1 829 0 is_stmt 0 discriminator 1
 1434 000a B64B     		ldr	r3, .L174+4
 1435 000c 1B78     		ldrb	r3, [r3]
 1436 000e 012B     		cmp	r3, #1
 1437 0010 01D1     		bne	.L139
 1438              	.L138:
 830:main.c        **** 	{
 831:main.c        **** 		Protocol_CmdParse();
 1439              		.loc 1 831 0 is_stmt 1
 1440 0012 FFF7FEFF 		bl	Protocol_CmdParse
 1441              	.LVL128:
 1442              	.L139:
 832:main.c        **** 	}
 833:main.c        **** 	
 834:main.c        **** 	if (update_flag == 1)
 1443              		.loc 1 834 0
 1444 0016 B44B     		ldr	r3, .L174+8
 1445 0018 B44D     		ldr	r5, .L174+12
 1446 001a 1A78     		ldrb	r2, [r3]
 1447 001c 012A     		cmp	r2, #1
 1448 001e 03D1     		bne	.L140
 835:main.c        **** 	{
 836:main.c        **** 		update_flag = 0;
 1449              		.loc 1 836 0
 1450 0020 0022     		movs	r2, #0
 1451 0022 1A70     		strb	r2, [r3]
 837:main.c        **** 		gprs_state = NEED_UPDATE;									// 开始断开当前前置服务器连接		//
 1452              		.loc 1 837 0
 1453 0024 0723     		movs	r3, #7
 1454 0026 2B70     		strb	r3, [r5]
 1455              	.L140:
 838:main.c        **** 	}
 839:main.c        **** 	
 840:main.c        **** 	//--实时检测STATUS管脚状态，如果是关机状态 立即执行重启开机操作
 841:main.c        **** 	if (GPRS_STATE_Read() == 1)
 1456              		.loc 1 841 0
 1457 0028 FFF7FEFF 		bl	GPRS_STATE_Read
 1458              	.LVL129:
 1459 002c 0128     		cmp	r0, #1
 1460 002e 03D1     		bne	.L141
 842:main.c        **** 	{	
 843:main.c        ****         #if 0
 844:main.c        **** 		GPRS_PWRKEY_Write(1);
 845:main.c        **** 		while ((GPRS_STATE_Read() == 0) && (count <= 30))
 846:main.c        **** 		{
 847:main.c        **** 			delay_with_ble(100);
 848:main.c        **** 			count++;
 849:main.c        **** 		}
 850:main.c        **** 		GPRS_PWRKEY_Write(0);
 851:main.c        **** 		#endif
 852:main.c        **** 		flag_reboot = 1;
 1461              		.loc 1 852 0
 1462 0030 AF4B     		ldr	r3, .L174+16
 1463 0032 1870     		strb	r0, [r3]
ARM GAS  C:\Users\Administrator\AppData\Local\Temp\ccNQfmEa.s 			page 42


 853:main.c        ****         Reboot_Check();
 1464              		.loc 1 853 0
 1465 0034 FFF7FEFF 		bl	Reboot_Check
 1466              	.LVL130:
 1467              	.L141:
 854:main.c        **** 		
 855:main.c        **** 	}
 856:main.c        **** 	//-------------------------------------------------------------
 857:main.c        **** 	
 858:main.c        **** 	cur_time = (uint32)RTC_GetUnixTime();
 1468              		.loc 1 858 0
 1469 0038 FFF7FEFF 		bl	RTC_GetUnixTime
 1470              	.LVL131:
 1471 003c AD4E     		ldr	r6, .L174+20
 859:main.c        **** 	if (gprs_state == INIT)
 1472              		.loc 1 859 0
 1473 003e 2C78     		ldrb	r4, [r5]
 858:main.c        **** 	if (gprs_state == INIT)
 1474              		.loc 1 858 0
 1475 0040 3060     		str	r0, [r6]
 1476 0042 3700     		movs	r7, r6
 1477              		.loc 1 859 0
 1478 0044 002C     		cmp	r4, #0
 1479 0046 20D1     		bne	.L142
 860:main.c        **** 	{
 861:main.c        **** 		LED_State = RED;
 1480              		.loc 1 861 0
 1481 0048 0123     		movs	r3, #1
 1482 004a AB4A     		ldr	r2, .L174+24
 1483 004c 5372     		strb	r3, [r2, #9]
 1484              	.LVL132:
 1485              	.LBB38:
 1486              	.LBB39:
 401:main.c        **** 	}
 1487              		.loc 1 401 0
 1488 004e FFF7FEFF 		bl	Led_RedON
 1489              	.LVL133:
 1490              	.LBE39:
 1491              	.LBE38:
 862:main.c        **** 		Led_SetState(LED_State);
 863:main.c        **** 		if (cur_time > next_gprs_operation_time)
 1492              		.loc 1 863 0
 1493 0052 AA4F     		ldr	r7, .L174+28
 1494 0054 3268     		ldr	r2, [r6]
 1495 0056 3B68     		ldr	r3, [r7]
 1496 0058 9A42     		cmp	r2, r3
 1497 005a 00D8     		bhi	.LCB1221
 1498 005c 3EE1     		b	.L137	@long jump
 1499              	.LCB1221:
 864:main.c        **** 		{
 865:main.c        **** 			if (gprs_operation_ErrCount >= gprs_resetCount)						// 中心服务器3次连不上，则复位
 1500              		.loc 1 865 0
 1501 005e A64B     		ldr	r3, .L174+24
 1502 0060 9B7A     		ldrb	r3, [r3, #10]
 1503 0062 092B     		cmp	r3, #9
 1504 0064 01D9     		bls	.L145
 1505              	.L148:
ARM GAS  C:\Users\Administrator\AppData\Local\Temp\ccNQfmEa.s 			page 43


 866:main.c        **** 			{
 867:main.c        **** 				gprs_state = NEED_INIT;
 1506              		.loc 1 867 0
 1507 0066 0623     		movs	r3, #6
 1508 0068 4BE0     		b	.L170
 1509              	.L145:
 868:main.c        **** 			}
 869:main.c        **** 			else
 870:main.c        **** 			{
 871:main.c        **** 				next_gprs_operation_time = cur_time + 5;                        // 5s一次尝试连接服务
 1510              		.loc 1 871 0
 1511 006a 0532     		adds	r2, r2, #5
 1512 006c 3A60     		str	r2, [r7]
 872:main.c        **** 				gprs_operation_ErrCount++;
 1513              		.loc 1 872 0
 1514 006e A24A     		ldr	r2, .L174+24
 1515 0070 0133     		adds	r3, r3, #1
 1516 0072 9372     		strb	r3, [r2, #10]
 873:main.c        **** 				ret = GPRS_ConnectCenterServer();
 1517              		.loc 1 873 0
 1518 0074 FFF7FEFF 		bl	GPRS_ConnectCenterServer
 1519              	.LVL134:
 874:main.c        **** 				if (ret == TRUE)
 1520              		.loc 1 874 0
 1521 0078 0128     		cmp	r0, #1
 1522 007a 00D0     		beq	.LCB1241
 1523 007c 2EE1     		b	.L137	@long jump
 1524              	.LCB1241:
 875:main.c        **** 				{
 876:main.c        **** 					gprs_state = CEN_CONNECT;
 877:main.c        **** 					next_gprs_operation_time = cur_time;
 1525              		.loc 1 877 0
 1526 007e 3368     		ldr	r3, [r6]
 876:main.c        **** 					next_gprs_operation_time = cur_time;
 1527              		.loc 1 876 0
 1528 0080 2870     		strb	r0, [r5]
 1529              		.loc 1 877 0
 1530 0082 3B60     		str	r3, [r7]
 878:main.c        **** 					gprs_operation_ErrCount = 0;
 1531              		.loc 1 878 0
 1532 0084 9C4B     		ldr	r3, .L174+24
 1533 0086 9C72     		strb	r4, [r3, #10]
 1534 0088 28E1     		b	.L137
 1535              	.LVL135:
 1536              	.L142:
 879:main.c        **** 				}
 880:main.c        **** 			}
 881:main.c        **** 		}
 882:main.c        **** 	}
 883:main.c        **** 	else if (gprs_state == CEN_CONNECT)
 1537              		.loc 1 883 0
 1538 008a 012C     		cmp	r4, #1
 1539 008c 13D1     		bne	.L147
 884:main.c        **** 	{
 885:main.c        **** 		LED_State = RED;
 1540              		.loc 1 885 0
 1541 008e 9A4F     		ldr	r7, .L174+24
ARM GAS  C:\Users\Administrator\AppData\Local\Temp\ccNQfmEa.s 			page 44


 1542 0090 7C72     		strb	r4, [r7, #9]
 1543              	.LVL136:
 1544              	.LBB40:
 1545              	.LBB41:
 401:main.c        **** 	}
 1546              		.loc 1 401 0
 1547 0092 FFF7FEFF 		bl	Led_RedON
 1548              	.LVL137:
 1549              	.LBE41:
 1550              	.LBE40:
 886:main.c        **** 		Led_SetState(LED_State);
 887:main.c        **** 		if (cur_time > next_gprs_operation_time)
 1551              		.loc 1 887 0
 1552 0096 9949     		ldr	r1, .L174+28
 1553 0098 3268     		ldr	r2, [r6]
 1554 009a 0B68     		ldr	r3, [r1]
 1555 009c 9A42     		cmp	r2, r3
 1556 009e 00D8     		bhi	.LCB1270
 1557 00a0 1CE1     		b	.L137	@long jump
 1558              	.LCB1270:
 888:main.c        **** 		{
 889:main.c        **** 			if (gprs_operation_ErrCount > gprs_resetCount)
 1559              		.loc 1 889 0
 1560 00a2 BB7A     		ldrb	r3, [r7, #10]
 1561 00a4 0A2B     		cmp	r3, #10
 1562 00a6 DED8     		bhi	.L148
 890:main.c        **** 			{
 891:main.c        **** 				gprs_state = NEED_INIT;
 892:main.c        **** 			}
 893:main.c        **** 			else
 894:main.c        **** 			{
 895:main.c        **** 				next_gprs_operation_time = cur_time + 20;
 1563              		.loc 1 895 0
 1564 00a8 1432     		adds	r2, r2, #20
 896:main.c        **** 				gprs_operation_ErrCount++;
 1565              		.loc 1 896 0
 1566 00aa 0133     		adds	r3, r3, #1
 895:main.c        **** 				gprs_operation_ErrCount++;
 1567              		.loc 1 895 0
 1568 00ac 0A60     		str	r2, [r1]
 1569              		.loc 1 896 0
 1570 00ae BB72     		strb	r3, [r7, #10]
 897:main.c        **** 				send_get_pre_service_ip();
 1571              		.loc 1 897 0
 1572 00b0 FFF7FEFF 		bl	send_get_pre_service_ip
 1573              	.LVL138:
 1574 00b4 12E1     		b	.L137
 1575              	.L147:
 898:main.c        **** 			}
 899:main.c        **** 		}
 900:main.c        **** 	}
 901:main.c        **** 	else if (gprs_state == GET_PRE_IP)
 1576              		.loc 1 901 0
 1577 00b6 022C     		cmp	r4, #2
 1578 00b8 18D1     		bne	.L149
 902:main.c        **** 	{
 903:main.c        **** 		LED_State = RED;
ARM GAS  C:\Users\Administrator\AppData\Local\Temp\ccNQfmEa.s 			page 45


 1579              		.loc 1 903 0
 1580 00ba 0123     		movs	r3, #1
 1581 00bc 8E4C     		ldr	r4, .L174+24
 1582 00be 6372     		strb	r3, [r4, #9]
 1583              	.LVL139:
 1584              	.LBB42:
 1585              	.LBB43:
 401:main.c        **** 	}
 1586              		.loc 1 401 0
 1587 00c0 FFF7FEFF 		bl	Led_RedON
 1588              	.LVL140:
 1589              	.LBE43:
 1590              	.LBE42:
 904:main.c        **** 		Led_SetState(LED_State);
 905:main.c        **** 		if (cur_time > next_gprs_operation_time)
 1591              		.loc 1 905 0
 1592 00c4 8D4F     		ldr	r7, .L174+28
 1593 00c6 3268     		ldr	r2, [r6]
 1594 00c8 3B68     		ldr	r3, [r7]
 1595 00ca 9A42     		cmp	r2, r3
 1596 00cc 00D8     		bhi	.LCB1302
 1597 00ce 05E1     		b	.L137	@long jump
 1598              	.LCB1302:
 906:main.c        **** 		{
 907:main.c        **** 			if (gprs_operation_ErrCount > gprs_resetCount)
 1599              		.loc 1 907 0
 1600 00d0 A37A     		ldrb	r3, [r4, #10]
 1601 00d2 0A2B     		cmp	r3, #10
 1602 00d4 C7D8     		bhi	.L148
 908:main.c        **** 			{
 909:main.c        **** 				gprs_state = NEED_INIT;
 910:main.c        **** 			}
 911:main.c        **** 			else
 912:main.c        **** 			{
 913:main.c        **** 				next_gprs_operation_time = cur_time + 5;
 914:main.c        **** 				gprs_operation_ErrCount++;
 1603              		.loc 1 914 0
 1604 00d6 0133     		adds	r3, r3, #1
 913:main.c        **** 				gprs_operation_ErrCount++;
 1605              		.loc 1 913 0
 1606 00d8 0532     		adds	r2, r2, #5
 1607              		.loc 1 914 0
 1608 00da A372     		strb	r3, [r4, #10]
 913:main.c        **** 				gprs_operation_ErrCount++;
 1609              		.loc 1 913 0
 1610 00dc 3A60     		str	r2, [r7]
 915:main.c        **** 				ret =  GPRS_ClosedConnect();
 1611              		.loc 1 915 0
 1612 00de FFF7FEFF 		bl	GPRS_ClosedConnect
 1613              	.LVL141:
 916:main.c        **** 				if (ret == TRUE)
 917:main.c        **** 				{
 918:main.c        **** 					gprs_state = CEN_CLOSED;
 1614              		.loc 1 918 0
 1615 00e2 0323     		movs	r3, #3
 916:main.c        **** 				if (ret == TRUE)
 1616              		.loc 1 916 0
ARM GAS  C:\Users\Administrator\AppData\Local\Temp\ccNQfmEa.s 			page 46


 1617 00e4 0128     		cmp	r0, #1
 1618 00e6 00D0     		beq	.LCB1315
 1619 00e8 F8E0     		b	.L137	@long jump
 1620              	.LCB1315:
 1621 00ea 1CE0     		b	.L171
 1622              	.LVL142:
 1623              	.L149:
 919:main.c        **** 					next_gprs_operation_time = cur_time;
 920:main.c        **** 					gprs_operation_ErrCount = 0;
 921:main.c        **** 				}
 922:main.c        **** 			}
 923:main.c        **** 		}
 924:main.c        **** 	}
 925:main.c        **** 	else if (gprs_state == CEN_CLOSED)
 1624              		.loc 1 925 0
 1625 00ec 032C     		cmp	r4, #3
 1626 00ee 20D1     		bne	.L150
 926:main.c        **** 	{
 927:main.c        **** 		LED_State = RED;
 1627              		.loc 1 927 0
 1628 00f0 0123     		movs	r3, #1
 1629 00f2 814C     		ldr	r4, .L174+24
 1630 00f4 6372     		strb	r3, [r4, #9]
 1631              	.LVL143:
 1632              	.LBB44:
 1633              	.LBB45:
 401:main.c        **** 	}
 1634              		.loc 1 401 0
 1635 00f6 FFF7FEFF 		bl	Led_RedON
 1636              	.LVL144:
 1637              	.LBE45:
 1638              	.LBE44:
 928:main.c        **** 		Led_SetState(LED_State);
 929:main.c        **** 		if (gprs_operation_ErrCount > 3)
 1639              		.loc 1 929 0
 1640 00fa A37A     		ldrb	r3, [r4, #10]
 1641 00fc 032B     		cmp	r3, #3
 1642 00fe 02D9     		bls	.L151
 1643              	.L153:
 930:main.c        **** 		{
 931:main.c        **** 			gprs_state = INIT;
 1644              		.loc 1 931 0
 1645 0100 0023     		movs	r3, #0
 1646              	.L170:
 1647 0102 2B70     		strb	r3, [r5]
 1648 0104 EAE0     		b	.L137
 1649              	.L151:
 932:main.c        **** 		}
 933:main.c        **** 		else if (cur_time > next_gprs_operation_time)
 1650              		.loc 1 933 0
 1651 0106 7D4F     		ldr	r7, .L174+28
 1652 0108 3268     		ldr	r2, [r6]
 1653 010a 3968     		ldr	r1, [r7]
 1654 010c 8A42     		cmp	r2, r1
 1655 010e 00D8     		bhi	.LCB1351
 1656 0110 E4E0     		b	.L137	@long jump
 1657              	.LCB1351:
ARM GAS  C:\Users\Administrator\AppData\Local\Temp\ccNQfmEa.s 			page 47


 934:main.c        **** 		{
 935:main.c        **** 			next_gprs_operation_time = cur_time + 5;
 1658              		.loc 1 935 0
 1659 0112 0532     		adds	r2, r2, #5
 936:main.c        **** 			gprs_operation_ErrCount++;
 1660              		.loc 1 936 0
 1661 0114 0133     		adds	r3, r3, #1
 935:main.c        **** 			gprs_operation_ErrCount++;
 1662              		.loc 1 935 0
 1663 0116 3A60     		str	r2, [r7]
 1664              		.loc 1 936 0
 1665 0118 A372     		strb	r3, [r4, #10]
 937:main.c        **** 			ret = GPRS_ConnectPreServer();
 1666              		.loc 1 937 0
 1667 011a FFF7FEFF 		bl	GPRS_ConnectPreServer
 1668              	.LVL145:
 938:main.c        **** 			if (ret == TRUE)
 1669              		.loc 1 938 0
 1670 011e 0128     		cmp	r0, #1
 1671 0120 00D0     		beq	.LCB1360
 1672 0122 DBE0     		b	.L137	@long jump
 1673              	.LCB1360:
 939:main.c        **** 			{
 940:main.c        **** 				gprs_state = PRE_CONNECT;
 1674              		.loc 1 940 0
 1675 0124 0423     		movs	r3, #4
 1676              	.L171:
 1677 0126 2B70     		strb	r3, [r5]
 941:main.c        **** 				next_gprs_operation_time = cur_time;
 1678              		.loc 1 941 0
 1679 0128 3368     		ldr	r3, [r6]
 1680 012a 3B60     		str	r3, [r7]
 1681              	.L172:
 942:main.c        **** 				gprs_operation_ErrCount = 0;
 1682              		.loc 1 942 0
 1683 012c 0023     		movs	r3, #0
 1684 012e A372     		strb	r3, [r4, #10]
 1685 0130 D4E0     		b	.L137
 1686              	.LVL146:
 1687              	.L150:
 943:main.c        **** 			}
 944:main.c        **** 		}
 945:main.c        **** 	}
 946:main.c        **** 	else if (gprs_state == PRE_CONNECT)
 1688              		.loc 1 946 0
 1689 0132 042C     		cmp	r4, #4
 1690 0134 14D1     		bne	.L152
 947:main.c        **** 	{
 948:main.c        **** 		LED_State = RED;
 1691              		.loc 1 948 0
 1692 0136 0123     		movs	r3, #1
 1693 0138 6F4C     		ldr	r4, .L174+24
 1694 013a 6372     		strb	r3, [r4, #9]
 1695              	.LVL147:
 1696              	.LBB46:
 1697              	.LBB47:
 401:main.c        **** 	}
ARM GAS  C:\Users\Administrator\AppData\Local\Temp\ccNQfmEa.s 			page 48


 1698              		.loc 1 401 0
 1699 013c FFF7FEFF 		bl	Led_RedON
 1700              	.LVL148:
 1701              	.LBE47:
 1702              	.LBE46:
 949:main.c        **** 		Led_SetState(LED_State);
 950:main.c        **** 		if (gprs_operation_ErrCount > 3)
 1703              		.loc 1 950 0
 1704 0140 A37A     		ldrb	r3, [r4, #10]
 1705 0142 032B     		cmp	r3, #3
 1706 0144 DCD8     		bhi	.L153
 951:main.c        **** 		{
 952:main.c        **** 			gprs_state = INIT;
 953:main.c        **** 		}
 954:main.c        **** 		else if (cur_time > next_gprs_operation_time)
 1707              		.loc 1 954 0
 1708 0146 6D49     		ldr	r1, .L174+28
 1709 0148 3268     		ldr	r2, [r6]
 1710 014a 0868     		ldr	r0, [r1]
 1711 014c 8242     		cmp	r2, r0
 1712 014e 00D8     		bhi	.LCB1400
 1713 0150 C4E0     		b	.L137	@long jump
 1714              	.LCB1400:
 955:main.c        **** 		{
 956:main.c        **** 			next_gprs_operation_time = cur_time + 20;
 1715              		.loc 1 956 0
 1716 0152 1432     		adds	r2, r2, #20
 957:main.c        **** 			gprs_operation_ErrCount++;
 1717              		.loc 1 957 0
 1718 0154 0133     		adds	r3, r3, #1
 956:main.c        **** 			gprs_operation_ErrCount++;
 1719              		.loc 1 956 0
 1720 0156 0A60     		str	r2, [r1]
 1721              		.loc 1 957 0
 1722 0158 A372     		strb	r3, [r4, #10]
 958:main.c        ****             send_send_mac_and_get_blekey();
 1723              		.loc 1 958 0
 1724 015a FFF7FEFF 		bl	send_send_mac_and_get_blekey
 1725              	.LVL149:
 1726 015e BDE0     		b	.L137
 1727              	.L152:
 959:main.c        ****             #if 0
 960:main.c        **** 			if (SendMacFlag == 0)
 961:main.c        **** 			{
 962:main.c        **** 				send_send_mac_and_get_blekey();
 963:main.c        **** 			}
 964:main.c        **** 			else
 965:main.c        **** 			{
 966:main.c        **** 				gprs_state = NORMAL_COMM;
 967:main.c        **** 			}
 968:main.c        ****             #endif
 969:main.c        **** 		}
 970:main.c        **** 	}
 971:main.c        ****     #if 0
 972:main.c        **** 	else if (gprs_state == NORMAL_COMM)
 973:main.c        **** 	{
 974:main.c        **** 		LED_State = GREEN;
ARM GAS  C:\Users\Administrator\AppData\Local\Temp\ccNQfmEa.s 			page 49


 975:main.c        **** 		Led_SetState(LED_State);
 976:main.c        **** 		if (cur_time > next_heartbeat_time)
 977:main.c        **** 		{
 978:main.c        **** 			EnterGuide_State = DoorClosed;
 979:main.c        **** 			send_heartbeat(EnterGuide_State);
 980:main.c        **** 			heartbeat_SendCount++;
 981:main.c        **** 			if (heartbeat_SendCount > 1)
 982:main.c        **** 			{
 983:main.c        **** 				gprs_state = NEED_INIT;
 984:main.c        **** 			}
 985:main.c        **** 			else
 986:main.c        **** 			{
 987:main.c        **** 				cur_time = (uint32)RTC_GetUnixTime();
 988:main.c        **** 				next_heartbeat_time = cur_time + 300;
 989:main.c        **** 			}
 990:main.c        **** 		}
 991:main.c        **** 		GPRS_CheckIfRecvClosed();									// 检查网络是否断开，并设置相关状态	//
 992:main.c        **** 	}
 993:main.c        ****     #endif
 994:main.c        ****     #if 1
 995:main.c        ****     else if (gprs_state == NORMAL_COMM)
 1728              		.loc 1 995 0
 1729 0160 052C     		cmp	r4, #5
 1730 0162 3BD1     		bne	.L154
 996:main.c        **** 	{
 997:main.c        **** 		LED_State = GREEN;
 1731              		.loc 1 997 0
 1732 0164 0223     		movs	r3, #2
 1733 0166 644C     		ldr	r4, .L174+24
 1734 0168 6372     		strb	r3, [r4, #9]
 1735              	.LVL150:
 1736              	.LBB48:
 1737              	.LBB49:
 405:main.c        **** 	}
 1738              		.loc 1 405 0
 1739 016a FFF7FEFF 		bl	Led_GreenON
 1740              	.LVL151:
 1741              	.LBE49:
 1742              	.LBE48:
 998:main.c        **** 		Led_SetState(LED_State);
 999:main.c        ****         
1000:main.c        ****         if (cur_time > heartbeat_lasttime + 60)                 // 超过一分钟 检测一次回
 1743              		.loc 1 1000 0
 1744 016e 644A     		ldr	r2, .L174+32
 1745 0170 1368     		ldr	r3, [r2]
 1746 0172 0192     		str	r2, [sp, #4]
 1747 0174 3268     		ldr	r2, [r6]
 1748 0176 3C33     		adds	r3, r3, #60
 1749 0178 9342     		cmp	r3, r2
 1750 017a 2CD2     		bcs	.L156
1001:main.c        ****         {
1002:main.c        ****             if (heartbeat_SendCount > 0)                        // 没有回复
 1751              		.loc 1 1002 0
 1752 017c E37A     		ldrb	r3, [r4, #11]
 1753 017e 614E     		ldr	r6, .L174+36
 1754 0180 002B     		cmp	r3, #0
 1755 0182 14D0     		beq	.L158
ARM GAS  C:\Users\Administrator\AppData\Local\Temp\ccNQfmEa.s 			page 50


1003:main.c        ****             {
1004:main.c        ****                 //EnterGuide_State = DoorClosed;
1005:main.c        **** 				EnterGuide_State = GetDoorState();
 1756              		.loc 1 1005 0
 1757 0184 FFF7FEFF 		bl	GetDoorState
 1758              	.LVL152:
 1759 0188 2072     		strb	r0, [r4, #8]
1006:main.c        ****                 send_heartbeat(EnterGuide_State);
 1760              		.loc 1 1006 0
 1761 018a FFF7FEFF 		bl	send_heartbeat
 1762              	.LVL153:
1007:main.c        ****                 heartbeat_SendCount++;
 1763              		.loc 1 1007 0
 1764 018e E37A     		ldrb	r3, [r4, #11]
 1765 0190 0133     		adds	r3, r3, #1
 1766 0192 E372     		strb	r3, [r4, #11]
1008:main.c        ****                 cur_time = (uint32)RTC_GetUnixTime();
 1767              		.loc 1 1008 0
 1768 0194 FFF7FEFF 		bl	RTC_GetUnixTime
 1769              	.LVL154:
1009:main.c        ****                 heartbeat_lasttime = cur_time;
 1770              		.loc 1 1009 0
 1771 0198 019B     		ldr	r3, [sp, #4]
1008:main.c        ****                 cur_time = (uint32)RTC_GetUnixTime();
 1772              		.loc 1 1008 0
 1773 019a 3860     		str	r0, [r7]
 1774              		.loc 1 1009 0
 1775 019c 1860     		str	r0, [r3]
1010:main.c        ****                 next_heartbeat_time = cur_time + 300;
 1776              		.loc 1 1010 0
 1777 019e 2D30     		adds	r0, r0, #45
1011:main.c        ****                 if (heartbeat_SendCount > 3)
 1778              		.loc 1 1011 0
 1779 01a0 E37A     		ldrb	r3, [r4, #11]
1010:main.c        ****                 next_heartbeat_time = cur_time + 300;
 1780              		.loc 1 1010 0
 1781 01a2 FF30     		adds	r0, r0, #255
 1782 01a4 3060     		str	r0, [r6]
 1783              		.loc 1 1011 0
 1784 01a6 032B     		cmp	r3, #3
 1785 01a8 01D9     		bls	.L158
1012:main.c        ****     			{
1013:main.c        ****     				gprs_state = NEED_INIT;
 1786              		.loc 1 1013 0
 1787 01aa 0623     		movs	r3, #6
 1788 01ac 2B70     		strb	r3, [r5]
 1789              	.L158:
1014:main.c        ****     			}
1015:main.c        ****             }
1016:main.c        ****                   
1017:main.c        ****     		if (cur_time > next_heartbeat_time)
 1790              		.loc 1 1017 0
 1791 01ae 3B68     		ldr	r3, [r7]
 1792 01b0 3268     		ldr	r2, [r6]
 1793 01b2 9342     		cmp	r3, r2
 1794 01b4 0FD9     		bls	.L156
1018:main.c        ****     		{
ARM GAS  C:\Users\Administrator\AppData\Local\Temp\ccNQfmEa.s 			page 51


1019:main.c        ****     			//EnterGuide_State = DoorClosed;
1020:main.c        **** 				EnterGuide_State = GetDoorState();
 1795              		.loc 1 1020 0
 1796 01b6 FFF7FEFF 		bl	GetDoorState
 1797              	.LVL155:
 1798 01ba 2072     		strb	r0, [r4, #8]
1021:main.c        ****                 send_heartbeat(EnterGuide_State);
 1799              		.loc 1 1021 0
 1800 01bc FFF7FEFF 		bl	send_heartbeat
 1801              	.LVL156:
1022:main.c        ****     			heartbeat_SendCount++;
 1802              		.loc 1 1022 0
 1803 01c0 E37A     		ldrb	r3, [r4, #11]
 1804 01c2 0133     		adds	r3, r3, #1
 1805 01c4 E372     		strb	r3, [r4, #11]
1023:main.c        ****     			cur_time = (uint32)RTC_GetUnixTime();
 1806              		.loc 1 1023 0
 1807 01c6 FFF7FEFF 		bl	RTC_GetUnixTime
 1808              	.LVL157:
1024:main.c        ****                 heartbeat_lasttime = cur_time;
 1809              		.loc 1 1024 0
 1810 01ca 019B     		ldr	r3, [sp, #4]
1023:main.c        ****     			cur_time = (uint32)RTC_GetUnixTime();
 1811              		.loc 1 1023 0
 1812 01cc 3860     		str	r0, [r7]
 1813              		.loc 1 1024 0
 1814 01ce 1860     		str	r0, [r3]
1025:main.c        ****     			next_heartbeat_time = cur_time + 300;
 1815              		.loc 1 1025 0
 1816 01d0 2D30     		adds	r0, r0, #45
 1817 01d2 FF30     		adds	r0, r0, #255
 1818 01d4 3060     		str	r0, [r6]
 1819              	.L156:
1026:main.c        ****     		}
1027:main.c        ****             
1028:main.c        ****         }
1029:main.c        **** 		GPRS_CheckIfRecvClosed();									// 检查网络是否断开，并设置相关状态	//
 1820              		.loc 1 1029 0
 1821 01d6 FFF7FEFF 		bl	GPRS_CheckIfRecvClosed
 1822              	.LVL158:
 1823 01da 7FE0     		b	.L137
 1824              	.L154:
1030:main.c        **** 	}
1031:main.c        ****     #endif
1032:main.c        ****     
1033:main.c        **** 	else if (gprs_state == NEED_INIT)
 1825              		.loc 1 1033 0
 1826 01dc 062C     		cmp	r4, #6
 1827 01de 0FD1     		bne	.L161
1034:main.c        **** 	{
1035:main.c        **** 		LED_State = RED;
 1828              		.loc 1 1035 0
 1829 01e0 454B     		ldr	r3, .L174+24
 1830 01e2 053C     		subs	r4, r4, #5
 1831 01e4 5C72     		strb	r4, [r3, #9]
 1832              	.LVL159:
 1833              	.LBB50:
ARM GAS  C:\Users\Administrator\AppData\Local\Temp\ccNQfmEa.s 			page 52


 1834              	.LBB51:
 401:main.c        **** 	}
 1835              		.loc 1 401 0
 1836 01e6 FFF7FEFF 		bl	Led_RedON
 1837              	.LVL160:
 1838              	.LBE51:
 1839              	.LBE50:
1036:main.c        **** 		Led_SetState(LED_State);
1037:main.c        **** 		GPRS_ClosedConnect();										// 重启各设备之前 关闭连接 释放资源
 1840              		.loc 1 1037 0
 1841 01ea FFF7FEFF 		bl	GPRS_ClosedConnect
 1842              	.LVL161:
1038:main.c        ****         GPRSPowerDown();										    // 开 关机操作
 1843              		.loc 1 1038 0
 1844 01ee FFF7FEFF 		bl	GPRSPowerDown
 1845              	.LVL162:
1039:main.c        ****        
1040:main.c        ****         #if 0
1041:main.c        ****         reboot_count = Read_RebootType();
1042:main.c        ****         if ((reboot_count == 0xFF) || (reboot_count == 0x00))
1043:main.c        ****         {
1044:main.c        ****             GPRS_ClosedConnect();
1045:main.c        ****             ResetGPRS();
1046:main.c        ****             reboot_count = 1;
1047:main.c        ****         }
1048:main.c        ****         else if (reboot_count == 2)
1049:main.c        ****         {
1050:main.c        ****             GPRSPowerDown();										// 开 关机操作
1051:main.c        ****             reboot_count = 0;
1052:main.c        ****         }
1053:main.c        ****         else
1054:main.c        ****         {
1055:main.c        ****             
1056:main.c        ****             ResetGPRS();
1057:main.c        ****             reboot_count = 2;
1058:main.c        ****         }
1059:main.c        ****         Write_RebootType(reboot_count);
1060:main.c        ****         #endif
1061:main.c        ****         gprs_state = INIT;
 1846              		.loc 1 1061 0
 1847 01f2 0023     		movs	r3, #0
 1848 01f4 2B70     		strb	r3, [r5]
1062:main.c        ****         flag_reboot = 1;
 1849              		.loc 1 1062 0
 1850 01f6 3E4B     		ldr	r3, .L174+16
 1851 01f8 1C70     		strb	r4, [r3]
1063:main.c        ****         Reboot_Check();
 1852              		.loc 1 1063 0
 1853 01fa FFF7FEFF 		bl	Reboot_Check
 1854              	.LVL163:
 1855 01fe 6DE0     		b	.L137
 1856              	.L161:
1064:main.c        **** 	}
1065:main.c        ****     
1066:main.c        **** 	else if (gprs_state == NEED_UPDATE)
 1857              		.loc 1 1066 0
 1858 0200 072C     		cmp	r4, #7
ARM GAS  C:\Users\Administrator\AppData\Local\Temp\ccNQfmEa.s 			page 53


 1859 0202 17D1     		bne	.L162
1067:main.c        **** 	{
1068:main.c        **** 		LED_State = RED;
 1860              		.loc 1 1068 0
 1861 0204 0123     		movs	r3, #1
 1862 0206 3C4C     		ldr	r4, .L174+24
 1863 0208 6372     		strb	r3, [r4, #9]
 1864              	.LVL164:
 1865              	.LBB52:
 1866              	.LBB53:
 401:main.c        **** 	}
 1867              		.loc 1 401 0
 1868 020a FFF7FEFF 		bl	Led_RedON
 1869              	.LVL165:
 1870              	.LBE53:
 1871              	.LBE52:
1069:main.c        **** 		Led_SetState(LED_State);
1070:main.c        **** 		if (cur_time > next_gprs_operation_time)
 1872              		.loc 1 1070 0
 1873 020e 3268     		ldr	r2, [r6]
 1874 0210 3A4E     		ldr	r6, .L174+28
 1875 0212 3368     		ldr	r3, [r6]
 1876 0214 9A42     		cmp	r2, r3
 1877 0216 61D9     		bls	.L137
1071:main.c        **** 		{
1072:main.c        **** 			if (gprs_operation_ErrCount > gprs_resetCount)
 1878              		.loc 1 1072 0
 1879 0218 A37A     		ldrb	r3, [r4, #10]
 1880 021a 0A2B     		cmp	r3, #10
 1881 021c 00D9     		bls	.LCB1536
 1882 021e 22E7     		b	.L148	@long jump
 1883              	.LCB1536:
1073:main.c        **** 			{
1074:main.c        **** 				gprs_state = NEED_INIT;
1075:main.c        **** 			}
1076:main.c        **** 			else
1077:main.c        **** 			{
1078:main.c        **** 				next_gprs_operation_time = cur_time + 5;
1079:main.c        **** 				gprs_operation_ErrCount++;
 1884              		.loc 1 1079 0
 1885 0220 0133     		adds	r3, r3, #1
1078:main.c        **** 				gprs_operation_ErrCount++;
 1886              		.loc 1 1078 0
 1887 0222 0532     		adds	r2, r2, #5
 1888              		.loc 1 1079 0
 1889 0224 A372     		strb	r3, [r4, #10]
1078:main.c        **** 				gprs_operation_ErrCount++;
 1890              		.loc 1 1078 0
 1891 0226 3260     		str	r2, [r6]
1080:main.c        **** 				ret =  GPRS_ClosedConnect();
 1892              		.loc 1 1080 0
 1893 0228 FFF7FEFF 		bl	GPRS_ClosedConnect
 1894              	.LVL166:
1081:main.c        **** 				if (ret == TRUE)
1082:main.c        **** 				{
1083:main.c        **** 					gprs_state = PRE_CLOSED;
 1895              		.loc 1 1083 0
ARM GAS  C:\Users\Administrator\AppData\Local\Temp\ccNQfmEa.s 			page 54


 1896 022c 0823     		movs	r3, #8
1081:main.c        **** 				if (ret == TRUE)
 1897              		.loc 1 1081 0
 1898 022e 0128     		cmp	r0, #1
 1899 0230 54D1     		bne	.L137
 1900 0232 18E0     		b	.L173
 1901              	.LVL167:
 1902              	.L162:
1084:main.c        **** 					next_gprs_operation_time = cur_time;
1085:main.c        **** 					gprs_operation_ErrCount = 0;
1086:main.c        **** 				}
1087:main.c        **** 			}
1088:main.c        **** 		}
1089:main.c        **** 	}
1090:main.c        **** 	else if (gprs_state == PRE_CLOSED)
 1903              		.loc 1 1090 0
 1904 0234 082C     		cmp	r4, #8
 1905 0236 1AD1     		bne	.L163
1091:main.c        **** 	{
1092:main.c        **** 		LED_State = RED;
 1906              		.loc 1 1092 0
 1907 0238 0123     		movs	r3, #1
 1908 023a 2F4C     		ldr	r4, .L174+24
 1909 023c 6372     		strb	r3, [r4, #9]
 1910              	.LVL168:
 1911              	.LBB54:
 1912              	.LBB55:
 401:main.c        **** 	}
 1913              		.loc 1 401 0
 1914 023e FFF7FEFF 		bl	Led_RedON
 1915              	.LVL169:
 1916              	.LBE55:
 1917              	.LBE54:
1093:main.c        **** 		Led_SetState(LED_State);
1094:main.c        **** 		if (gprs_operation_ErrCount > 3)
 1918              		.loc 1 1094 0
 1919 0242 A37A     		ldrb	r3, [r4, #10]
 1920 0244 032B     		cmp	r3, #3
 1921 0246 00D9     		bls	.LCB1567
 1922 0248 5AE7     		b	.L153	@long jump
 1923              	.LCB1567:
1095:main.c        **** 		{
1096:main.c        **** 			gprs_state = INIT;
1097:main.c        **** 		}
1098:main.c        **** 		else if (cur_time > next_gprs_operation_time)
 1924              		.loc 1 1098 0
 1925 024a 3268     		ldr	r2, [r6]
 1926 024c 2B4E     		ldr	r6, .L174+28
 1927 024e 3168     		ldr	r1, [r6]
 1928 0250 8A42     		cmp	r2, r1
 1929 0252 43D9     		bls	.L137
1099:main.c        **** 		{
1100:main.c        **** 			next_gprs_operation_time = cur_time + 10;
 1930              		.loc 1 1100 0
 1931 0254 0A32     		adds	r2, r2, #10
1101:main.c        **** 			gprs_operation_ErrCount++;
 1932              		.loc 1 1101 0
ARM GAS  C:\Users\Administrator\AppData\Local\Temp\ccNQfmEa.s 			page 55


 1933 0256 0133     		adds	r3, r3, #1
1100:main.c        **** 			gprs_operation_ErrCount++;
 1934              		.loc 1 1100 0
 1935 0258 3260     		str	r2, [r6]
 1936              		.loc 1 1101 0
 1937 025a A372     		strb	r3, [r4, #10]
1102:main.c        **** 			ret = GPRS_ConnectUpdateServer();
 1938              		.loc 1 1102 0
 1939 025c FFF7FEFF 		bl	GPRS_ConnectUpdateServer
 1940              	.LVL170:
1103:main.c        **** 			if (ret == TRUE)
 1941              		.loc 1 1103 0
 1942 0260 0128     		cmp	r0, #1
 1943 0262 3BD1     		bne	.L137
1104:main.c        **** 			{
1105:main.c        **** 				gprs_state = UPDATE_CONNECT;
 1944              		.loc 1 1105 0
 1945 0264 0923     		movs	r3, #9
 1946              	.L173:
 1947 0266 2B70     		strb	r3, [r5]
1106:main.c        **** 				next_gprs_operation_time = cur_time;
 1948              		.loc 1 1106 0
 1949 0268 3B68     		ldr	r3, [r7]
 1950 026a 3360     		str	r3, [r6]
 1951 026c 5EE7     		b	.L172
 1952              	.LVL171:
 1953              	.L163:
1107:main.c        **** 				gprs_operation_ErrCount = 0;
1108:main.c        **** 			}
1109:main.c        **** 		}
1110:main.c        **** 	}
1111:main.c        **** 	else if (gprs_state == UPDATE_CONNECT)
 1954              		.loc 1 1111 0
 1955 026e 092C     		cmp	r4, #9
 1956 0270 11D1     		bne	.L164
1112:main.c        **** 	{
1113:main.c        **** 		LED_State = BLUE;
 1957              		.loc 1 1113 0
 1958 0272 0323     		movs	r3, #3
 1959 0274 204C     		ldr	r4, .L174+24
 1960 0276 6372     		strb	r3, [r4, #9]
 1961              	.LVL172:
 1962              	.LBB56:
 1963              	.LBB57:
 409:main.c        **** 	}
 1964              		.loc 1 409 0
 1965 0278 FFF7FEFF 		bl	Led_BlueON
 1966              	.LVL173:
 1967              	.LBE57:
 1968              	.LBE56:
1114:main.c        **** 		Led_SetState(LED_State);
1115:main.c        **** 		Cmd_Protocol_ParaInit();
 1969              		.loc 1 1115 0
 1970 027c FFF7FEFF 		bl	Cmd_Protocol_ParaInit
 1971              	.LVL174:
1116:main.c        **** 		update_page = 1;
 1972              		.loc 1 1116 0
ARM GAS  C:\Users\Administrator\AppData\Local\Temp\ccNQfmEa.s 			page 56


 1973 0280 0120     		movs	r0, #1
 1974 0282 214B     		ldr	r3, .L174+40
 1975 0284 1880     		strh	r0, [r3]
1117:main.c        **** 		send_update_req(update_page);
 1976              		.loc 1 1117 0
 1977 0286 FFF7FEFF 		bl	send_update_req
 1978              	.LVL175:
1118:main.c        **** 		update_timeout_time = 20000;
 1979              		.loc 1 1118 0
 1980 028a 204B     		ldr	r3, .L174+44
 1981 028c 6360     		str	r3, [r4, #4]
1119:main.c        **** 		update_timeout_count = 0;
 1982              		.loc 1 1119 0
 1983 028e 0023     		movs	r3, #0
 1984 0290 2373     		strb	r3, [r4, #12]
1120:main.c        **** 		gprs_state = WAIT_UPDATE;
 1985              		.loc 1 1120 0
 1986 0292 0A33     		adds	r3, r3, #10
 1987 0294 35E7     		b	.L170
 1988              	.L164:
1121:main.c        **** 	}
1122:main.c        **** 	else if (gprs_state == WAIT_UPDATE)
 1989              		.loc 1 1122 0
 1990 0296 0A2C     		cmp	r4, #10
 1991 0298 17D1     		bne	.L165
1123:main.c        **** 	{
1124:main.c        **** 		if (update_timeout_time == 0)
 1992              		.loc 1 1124 0
 1993 029a 174C     		ldr	r4, .L174+24
 1994 029c 6668     		ldr	r6, [r4, #4]
 1995 029e 002E     		cmp	r6, #0
 1996 02a0 1CD1     		bne	.L137
1125:main.c        **** 		{
1126:main.c        **** 			update_timeout_count++;
 1997              		.loc 1 1126 0
 1998 02a2 237B     		ldrb	r3, [r4, #12]
 1999 02a4 0133     		adds	r3, r3, #1
 2000 02a6 DBB2     		uxtb	r3, r3
 2001 02a8 2373     		strb	r3, [r4, #12]
1127:main.c        **** 			if (update_timeout_count >= gprs_resetCount)
 2002              		.loc 1 1127 0
 2003 02aa 092B     		cmp	r3, #9
 2004 02ac 04D9     		bls	.L166
1128:main.c        **** 			{
1129:main.c        **** 				update_timeout_count = 0;
 2005              		.loc 1 1129 0
 2006 02ae 2673     		strb	r6, [r4, #12]
1130:main.c        **** 				GPRS_ClosedConnect();							// 下载升级包超时 关闭连接退出升级
 2007              		.loc 1 1130 0
 2008 02b0 FFF7FEFF 		bl	GPRS_ClosedConnect
 2009              	.LVL176:
1131:main.c        **** 				gprs_state = INIT;
 2010              		.loc 1 1131 0
 2011 02b4 2E70     		strb	r6, [r5]
 2012 02b6 11E0     		b	.L137
 2013              	.L166:
1132:main.c        **** 			}
ARM GAS  C:\Users\Administrator\AppData\Local\Temp\ccNQfmEa.s 			page 57


1133:main.c        **** 			else
1134:main.c        **** 			{
1135:main.c        **** 				Cmd_Protocol_ParaInit();
 2014              		.loc 1 1135 0
 2015 02b8 FFF7FEFF 		bl	Cmd_Protocol_ParaInit
 2016              	.LVL177:
1136:main.c        **** 				send_update_req(update_page);
 2017              		.loc 1 1136 0
 2018 02bc 124B     		ldr	r3, .L174+40
 2019 02be 1888     		ldrh	r0, [r3]
 2020 02c0 FFF7FEFF 		bl	send_update_req
 2021              	.LVL178:
1137:main.c        **** 				update_timeout_time = 10000;
 2022              		.loc 1 1137 0
 2023 02c4 124B     		ldr	r3, .L174+48
 2024 02c6 6360     		str	r3, [r4, #4]
 2025 02c8 08E0     		b	.L137
 2026              	.L165:
1138:main.c        **** 			}
1139:main.c        **** 		}
1140:main.c        **** 	}
1141:main.c        **** 	else if (gprs_state == UPDATE_FINISH)
 2027              		.loc 1 1141 0
 2028 02ca 0B2C     		cmp	r4, #11
 2029 02cc 06D1     		bne	.L137
1142:main.c        **** 	{
1143:main.c        **** 		GPRS_ClosedConnect();									// 下载升级包超完成 关闭连接 释放资源
 2030              		.loc 1 1143 0
 2031 02ce FFF7FEFF 		bl	GPRS_ClosedConnect
 2032              	.LVL179:
1144:main.c        **** 		stop_reboot = 0x01;
 2033              		.loc 1 1144 0
 2034 02d2 0122     		movs	r2, #1
 2035 02d4 0F4B     		ldr	r3, .L174+52
 2036 02d6 1A70     		strb	r2, [r3]
1145:main.c        **** 		Bootloadable_Load();
 2037              		.loc 1 1145 0
 2038 02d8 FFF7FEFF 		bl	Bootloadable_Load
 2039              	.LVL180:
 2040              	.L137:
1146:main.c        **** 	}
1147:main.c        **** }
 2041              		.loc 1 1147 0
 2042              		@ sp needed
 2043 02dc F7BD     		pop	{r0, r1, r2, r4, r5, r6, r7, pc}
 2044              	.L175:
 2045 02de C046     		.align	2
 2046              	.L174:
 2047 02e0 00000000 		.word	GPRSCmdParseFlag1
 2048 02e4 00000000 		.word	GPRSCmdParseFlag2
 2049 02e8 00000000 		.word	update_flag
 2050 02ec 00000000 		.word	gprs_state
 2051 02f0 00000000 		.word	flag_reboot
 2052 02f4 00000000 		.word	cur_time
 2053 02f8 00000000 		.word	.LANCHOR0
 2054 02fc 00000000 		.word	next_gprs_operation_time
 2055 0300 00000000 		.word	heartbeat_lasttime
ARM GAS  C:\Users\Administrator\AppData\Local\Temp\ccNQfmEa.s 			page 58


 2056 0304 00000000 		.word	next_heartbeat_time
 2057 0308 00000000 		.word	update_page
 2058 030c 204E0000 		.word	20000
 2059 0310 10270000 		.word	10000
 2060 0314 00000000 		.word	stop_reboot
 2061              		.cfi_endproc
 2062              	.LFE91:
 2063              		.size	GPRS_Tick, .-GPRS_Tick
 2064              		.section	.text.CARD_Tick,"ax",%progbits
 2065              		.align	1
 2066              		.global	CARD_Tick
 2067              		.code	16
 2068              		.thumb_func
 2069              		.type	CARD_Tick, %function
 2070              	CARD_Tick:
 2071              	.LFB92:
1148:main.c        **** 
1149:main.c        **** 
1150:main.c        **** //*************************************************************************************************
1151:main.c        **** // Function name	: CARD_Tick
1152:main.c        **** // Description		: 刷卡验证并处理
1153:main.c        **** // Parameter		: none
1154:main.c        **** // Return			: none
1155:main.c        **** //-------------------------------------------------------------------------------------------------
1156:main.c        **** // Info				: 
1157:main.c        **** //*************************************************************************************************
1158:main.c        **** #if card_test
1159:main.c        **** void CARD_Tick(void)
1160:main.c        **** {
1161:main.c        **** 	uint8 i;
1162:main.c        **** 	uint8 ret;
1163:main.c        **** 	uint8 card_id[8] = {0};
1164:main.c        **** 	uint8 arr_time[4];
1165:main.c        **** 	uint32 cur_time;
1166:main.c        **** 	user_info_t user_info;
1167:main.c        ****     open_door_t openInfo_card;
1168:main.c        **** 	uint8 ic_buf[64] = {0x01,0x02,0x03,0x04,0x05};
1169:main.c        **** 	
1170:main.c        **** 	uint8_t statues;
1171:main.c        ****     uint8_t picc_atqa[2];                                               
1172:main.c        ****     //static uint8_t picc_uid[15];                                        
1173:main.c        ****     //uint8_t picc_sak[3];                                                
1174:main.c        ****     uint8_t key[6]= {0xFF,0xFF,0xFF,0xFF,0xFF,0xFF};       				// 不同的卡是不是不一样   
1175:main.c        **** 	uint8_t key_b04[6]= {0xff,0xff,0xfe,0xef,0xfa,0xaf};       			// block4-5 的加密密钥
1176:main.c        ****     
1177:main.c        **** 	uint8_t blockAddr;
1178:main.c        ****     uint8_t blockData[16];
1179:main.c        ****     uint32_t rec_len;
1180:main.c        ****     uint8_t pupi[4];
1181:main.c        ****     uint8_t buff[12];
1182:main.c        **** 	
1183:main.c        **** 	
1184:main.c        **** 	//==if(RET_ERR == Read_nfc_card2(card_id))
1185:main.c        **** 	//==	return;
1186:main.c        **** 	
1187:main.c        **** 	FM175X_SoftReset( );  
1188:main.c        **** 	Set_Rf( 3 );                                                /* 打开双天线                  */
ARM GAS  C:\Users\Administrator\AppData\Local\Temp\ccNQfmEa.s 			page 59


1189:main.c        **** 	Pcd_ConfigISOType( 0 );                                     /* ISO14443寄存器初始化        *
1190:main.c        **** 	statues = TypeA_CardActive( picc_atqa,picc_uid,picc_sak );  /* 激活A卡片                   */
1191:main.c        **** 	if ( statues == TRUE ) 
1192:main.c        **** 	{
1193:main.c        **** 		DBG_SOFT_PutStr("\nCardUID:");
1194:main.c        **** 		DBG_SOFT_PrintfHex(picc_uid,8,16);
1195:main.c        **** 		memcpy(card_id, picc_uid, 4);
1196:main.c        **** 
1197:main.c        **** 	}
1198:main.c        **** 	else 
1199:main.c        **** 	{
1200:main.c        **** 		//DBG_SOFT_PutStr("No Card!\r\n");
1201:main.c        **** 		TypeA_Halt( 0 );  	 					 				/* 卡片睡眠 					*/
1202:main.c        **** 		return;
1203:main.c        **** 	}
1204:main.c        **** 	
1205:main.c        **** #if 0	
1206:main.c        **** 	for(i = 0; i < 16; i++)										// 先读取16扇区数据
1207:main.c        **** 	{
1208:main.c        **** 		// 先读0区块
1209:main.c        **** 		blockAddr = i;
1210:main.c        **** 		if((i >= 4)&&(i <= 7))
1211:main.c        **** 		{
1212:main.c        **** 			statues = Mifare_Auth(0x00,blockAddr>>2,key_b04,picc_uid);      /* 密钥认证                 
1213:main.c        **** 		}
1214:main.c        **** 		else
1215:main.c        **** 			statues = Mifare_Auth(0x00,blockAddr>>2,key,picc_uid);      	/* 密钥认证                    
1216:main.c        **** 		
1217:main.c        **** 		if(statues  == TRUE)
1218:main.c        **** 		{
1219:main.c        **** 			DBG_SOFT_PutStr("Auth OK!\r\n");
1220:main.c        **** 		}
1221:main.c        **** 		else
1222:main.c        **** 		{
1223:main.c        **** 			DBG_SOFT_PutStr("Auth Err!\r\n");
1224:main.c        **** 			return ;
1225:main.c        **** 		}	
1226:main.c        **** 		statues = Mifare_Blockread(blockAddr,blockData);            /* 读块               		   */
1227:main.c        **** 		if(statues  == TRUE)
1228:main.c        **** 		{
1229:main.c        **** 			DBG_SOFT_PutStr("Read OK @Block ");
1230:main.c        **** 			DBG_SOFT_PrintfHex(&blockAddr,1,16);
1231:main.c        **** 			DBG_SOFT_PrintfHex(blockData,16,16);
1232:main.c        **** 		}
1233:main.c        **** 		else
1234:main.c        **** 		{
1235:main.c        **** 			DBG_SOFT_PutStr("Read Err!\r\n");
1236:main.c        **** 			return ;
1237:main.c        **** 		}
1238:main.c        **** 		
1239:main.c        **** 		if(i == 0)
1240:main.c        **** 		{
1241:main.c        **** 			memcpy(card_id,blockData,4);
1242:main.c        **** 		}
1243:main.c        **** 	}	
1244:main.c        **** 
1245:main.c        **** 	if(1 == IsCardLegality(card_id))
ARM GAS  C:\Users\Administrator\AppData\Local\Temp\ccNQfmEa.s 			page 60


1246:main.c        **** 	{
1247:main.c        **** 		DBG_SOFT_PutStr("IsCardLegality OK!\n");
1248:main.c        **** 	}
1249:main.c        **** 	else 
1250:main.c        **** 		DBG_SOFT_PutStr("IsCardLegality ERR!\n");
1251:main.c        **** 	
1252:main.c        **** 	TypeA_Halt( 0 );  	 					 					// 卡片睡眠 					
1253:main.c        **** #endif
1254:main.c        **** 	CardBlock_Rd(5,blockData);
1255:main.c        **** 	DBG_SOFT_PutStr("\nCardBlock_Rd data @ Block 5:\n");
1256:main.c        **** 	DBG_SOFT_PrintfHex(blockData,16,16);
1257:main.c        **** 
1258:main.c        **** 	if(1 == IsCardLegality(card_id))
1259:main.c        **** 	{
1260:main.c        **** 		DBG_SOFT_PutStr("\nIsCardLegality ok!\n");				// 合法性验证
1261:main.c        **** 	}
1262:main.c        **** 	
1263:main.c        **** 	CardInfoUpdate();
1264:main.c        **** 	
1265:main.c        **** 
1266:main.c        **** 	#if 0
1267:main.c        **** 	blockAddr = 0x04;
1268:main.c        **** 	statues = Mifare_Blockwrite(blockAddr,blockData);			/* 写块	 				   */
1269:main.c        **** 	if(statues  == TRUE)
1270:main.c        **** 	{
1271:main.c        **** 		DBG_SOFT_PutStr("Write OK!\r\n");
1272:main.c        **** 	}
1273:main.c        **** 	else
1274:main.c        **** 	{
1275:main.c        **** 		DBG_SOFT_PutStr("Write Err!\r\n");
1276:main.c        **** 		return ;
1277:main.c        **** 	}
1278:main.c        **** 	#endif
1279:main.c        **** 	#if 0
1280:main.c        **** 	// 写完后 再读出来
1281:main.c        **** 	statues = Mifare_Blockread(blockAddr,blockData);            /* 再读块  01             		   */
1282:main.c        **** 	if(statues  == TRUE)
1283:main.c        **** 	{
1284:main.c        **** 		DBG_SOFT_PutStr("Read OK!\r\n");
1285:main.c        **** 		DBG_SOFT_PrintfHex(blockData,16,16);
1286:main.c        **** 	}
1287:main.c        **** 	else
1288:main.c        **** 	{
1289:main.c        **** 		DBG_SOFT_PutStr("Read Err!\r\n");
1290:main.c        **** 		return ;
1291:main.c        **** 	}
1292:main.c        **** 	#endif
1293:main.c        **** 	
1294:main.c        **** 	#if 0
1295:main.c        **** 	for(i = 0; i < 64; i++)
1296:main.c        **** 	{
1297:main.c        **** 		ic_buf[i]  = i;
1298:main.c        **** 	}
1299:main.c        **** 	if(TRUE == Mifare_Blockwrite(3,ic_buf))
1300:main.c        **** 	{
1301:main.c        **** 		DBG_SOFT_PutStr("\nWrite card Block OK!\n");
1302:main.c        **** 	}
ARM GAS  C:\Users\Administrator\AppData\Local\Temp\ccNQfmEa.s 			page 61


1303:main.c        **** 	else
1304:main.c        **** 	{
1305:main.c        **** 		DBG_SOFT_PutStr("\nWrite card Block Failed!\n");
1306:main.c        **** 	}
1307:main.c        **** 	
1308:main.c        **** 	//如果读到卡 取出卡片的64个块的数据 打印
1309:main.c        **** 	for(i = 0; i < 64; i++)
1310:main.c        **** 	{
1311:main.c        **** 		if(TRUE == Mifare_Blockread(i, ic_buf))
1312:main.c        **** 		{
1313:main.c        **** 			#if DBG_SOFT_ENNABLE
1314:main.c        **** 			//memset(cur_readuid, 0, 8);
1315:main.c        **** 			//memcpy(card_id,card_id,8);
1316:main.c        **** 			DBG_SOFT_PutStr("\nCur Read card Block @i =");
1317:main.c        **** 			DBG_SOFT_PrintfHex(&i,1,16);
1318:main.c        **** 			DBG_SOFT_PrintfHex(ic_buf,16,16);
1319:main.c        **** 			#endif	
1320:main.c        **** 		}
1321:main.c        **** 		else
1322:main.c        **** 		{
1323:main.c        **** 			DBG_SOFT_PutStr("\nRead card Block Failed!\n");
1324:main.c        **** 		}
1325:main.c        **** 	}
1326:main.c        **** 	#endif
1327:main.c        **** 	
1328:main.c        **** 	for (i = 0; i < 2; i++)
1329:main.c        **** 	{
1330:main.c        **** 	    Led_AllOff();
1331:main.c        **** 		delay_with_ble(100);
1332:main.c        **** 		Led_BlueON();
1333:main.c        **** 		delay_with_ble(100);
1334:main.c        **** 	}
1335:main.c        **** 	
1336:main.c        **** 	cur_time = (uint32)RTC_GetUnixTime();
1337:main.c        **** 	LONG2BYTE(cur_time, arr_time);
1338:main.c        **** 	memcpy(user_info.card_uid, card_id, CARD_UID_LEN);
1339:main.c        **** 	memcpy(user_info.valid_time, arr_time, 4);
1340:main.c        **** 	
1341:main.c        **** 	if (1 == UserData_Judge_If_Open(&user_info))
1342:main.c        **** 	{
1343:main.c        **** 		Led_GreenON();
1344:main.c        **** 		DoorOpen();
1345:main.c        **** 		VoicePlay((uint8)Sound_VERIFY_SUCCESS);
1346:main.c        **** 		
1347:main.c        **** 		memset(&openInfo_card, 0, sizeof(open_door_t));
1348:main.c        **** 		memcpy(openInfo_card.card_uid, card_id, CARD_UID_LEN);
1349:main.c        **** 		memcpy(openInfo_card.open_time, arr_time, 4);
1350:main.c        **** 		memset(arr_time, 0, 4);
1351:main.c        **** 		memcpy(openInfo_card.send_time, arr_time, 4);
1352:main.c        **** 		Write_OpenInfo(&openInfo_card, CARD_OPEN);
1353:main.c        **** 		
1354:main.c        **** 		if (gprs_state == NORMAL_COMM)
1355:main.c        **** 		{
1356:main.c        **** 			cur_time = (uint32)RTC_GetUnixTime();
1357:main.c        **** 			if(cur_time > next_allupload_time)
1358:main.c        **** 			{
1359:main.c        **** 				next_allupload_time = cur_time + 15;
ARM GAS  C:\Users\Administrator\AppData\Local\Temp\ccNQfmEa.s 			page 62


1360:main.c        **** 				send_upload_open_info(&openInfo_card, CARD_UID_LEN, CARD_OPEN);				
1361:main.c        **** 			}						
1362:main.c        **** 		}
1363:main.c        **** 		
1364:main.c        **** 		DoorClose();
1365:main.c        **** 	}
1366:main.c        **** 	else
1367:main.c        **** 	{
1368:main.c        **** 		Card_ErrCount++;
1369:main.c        **** 		Led_RedON();
1370:main.c        **** 		VoicePlay(Sound_VERIFY_FAILURE);
1371:main.c        **** 		delay_with_ble(800);
1372:main.c        **** 	}
1373:main.c        **** 	Led_SetState(LED_State);										// LED的状态切回刷卡前的状态		//
1374:main.c        **** 	
1375:main.c        **** Err_Check:
1376:main.c        **** 	if (Card_ErrCount >= 5)
1377:main.c        **** 	{
1378:main.c        **** 		Card_ErrCount = 0;
1379:main.c        **** 		if (gprs_state == NORMAL_COMM)
1380:main.c        **** 		{
1381:main.c        **** 			EnterGuide_State = ALARM_ErrOpenQty;
1382:main.c        **** 			send_alarm_info(EnterGuide_State);						// 开门错误5次报警					//
1383:main.c        **** 		}
1384:main.c        **** 	}
1385:main.c        **** }
1386:main.c        **** #endif
1387:main.c        **** 
1388:main.c        **** 
1389:main.c        **** #if card_scan //扫描scan
1390:main.c        **** //*************************************************************************************************
1391:main.c        **** // Function name	: CARD_Tick
1392:main.c        **** // Description		: 刷卡验证并处理
1393:main.c        **** // Parameter		: none
1394:main.c        **** // Return			: none
1395:main.c        **** //-------------------------------------------------------------------------------------------------
1396:main.c        **** // Info	
1397:main.c        **** #if 0
1398:main.c        **** time_tmp = (uint32)RTC_GetUnixTime();
1399:main.c        **** 	if(time_tmp >= last_readcardtime + 2)
1400:main.c        **** 	{	
1401:main.c        **** 		last_readcardtime = time_tmp;
1402:main.c        **** 		#endif
1403:main.c        **** //*************************************************************************************************
1404:main.c        **** void CARD_Tick(void)
1405:main.c        **** {
 2072              		.loc 1 1405 0
 2073              		.cfi_startproc
 2074              		@ args = 0, pretend = 0, frame = 48
 2075              		@ frame_needed = 0, uses_anonymous_args = 0
 2076 0000 F0B5     		push	{r4, r5, r6, r7, lr}
 2077              		.cfi_def_cfa_offset 20
 2078              		.cfi_offset 4, -20
 2079              		.cfi_offset 5, -16
 2080              		.cfi_offset 6, -12
 2081              		.cfi_offset 7, -8
 2082              		.cfi_offset 14, -4
ARM GAS  C:\Users\Administrator\AppData\Local\Temp\ccNQfmEa.s 			page 63


 2083 0002 8DB0     		sub	sp, sp, #52
 2084              		.cfi_def_cfa_offset 72
1406:main.c        **** 	uint8 i;
1407:main.c        **** 
1408:main.c        **** 	uint8 card_id[8] = {0};
 2085              		.loc 1 1408 0
 2086 0004 03AC     		add	r4, sp, #12
 2087 0006 0822     		movs	r2, #8
 2088 0008 0021     		movs	r1, #0
 2089 000a 2000     		movs	r0, r4
 2090 000c FFF7FEFF 		bl	memset
 2091              	.LVL181:
1409:main.c        **** 	uint8 arr_time[4];
1410:main.c        **** 	uint32 time_tmp;
1411:main.c        **** 	user_info_t user_info;
1412:main.c        ****     open_door_t openInfo_card;
1413:main.c        **** 	
1414:main.c        ****     if (CardCheck_CountTime > 1500)
 2092              		.loc 1 1414 0
 2093 0010 494E     		ldr	r6, .L195
 2094 0012 4A4B     		ldr	r3, .L195+4
 2095 0014 3268     		ldr	r2, [r6]
 2096 0016 9A42     		cmp	r2, r3
 2097 0018 00D8     		bhi	.LCB1718
 2098 001a 8AE0     		b	.L176	@long jump
 2099              	.LCB1718:
1415:main.c        ****     {
1416:main.c        **** 		CardCheck_CountTime = 0;
 2100              		.loc 1 1416 0
 2101 001c 0023     		movs	r3, #0
1417:main.c        **** 		if(0 == CardScan(card_id))							// 先读A卡
 2102              		.loc 1 1417 0
 2103 001e 2000     		movs	r0, r4
1416:main.c        **** 		if(0 == CardScan(card_id))							// 先读A卡
 2104              		.loc 1 1416 0
 2105 0020 3360     		str	r3, [r6]
 2106              		.loc 1 1417 0
 2107 0022 FFF7FEFF 		bl	CardScan
 2108              	.LVL182:
 2109 0026 0028     		cmp	r0, #0
 2110 0028 2AD0     		beq	.L179
 2111              	.L183:
 2112              	.LVL183:
1418:main.c        **** 		{
1419:main.c        **** 			if(0 == nfc_detect_type_b(card_id, 8))			// 未读到 再读B卡
1420:main.c        **** 			{
1421:main.c        **** 				return ;
1422:main.c        **** 			}	
1423:main.c        **** 		}
1424:main.c        **** 		
1425:main.c        **** 		for (i = 0; i < 2; i++)
1426:main.c        **** 		{
1427:main.c        **** 		    Led_AllOff();
 2113              		.loc 1 1427 0
 2114 002a FFF7FEFF 		bl	Led_AllOff
 2115              	.LVL184:
1428:main.c        **** 			delay_with_ble(100);
ARM GAS  C:\Users\Administrator\AppData\Local\Temp\ccNQfmEa.s 			page 64


 2116              		.loc 1 1428 0
 2117 002e 6420     		movs	r0, #100
 2118 0030 FFF7FEFF 		bl	delay_with_ble
 2119              	.LVL185:
1429:main.c        **** 			Led_BlueON();
 2120              		.loc 1 1429 0
 2121 0034 FFF7FEFF 		bl	Led_BlueON
 2122              	.LVL186:
1430:main.c        **** 			delay_with_ble(100);
 2123              		.loc 1 1430 0
 2124 0038 6420     		movs	r0, #100
 2125 003a FFF7FEFF 		bl	delay_with_ble
 2126              	.LVL187:
1427:main.c        **** 			delay_with_ble(100);
 2127              		.loc 1 1427 0
 2128 003e FFF7FEFF 		bl	Led_AllOff
 2129              	.LVL188:
1428:main.c        **** 			Led_BlueON();
 2130              		.loc 1 1428 0
 2131 0042 6420     		movs	r0, #100
 2132 0044 FFF7FEFF 		bl	delay_with_ble
 2133              	.LVL189:
1429:main.c        **** 			delay_with_ble(100);
 2134              		.loc 1 1429 0
 2135 0048 FFF7FEFF 		bl	Led_BlueON
 2136              	.LVL190:
 2137              		.loc 1 1430 0
 2138 004c 6420     		movs	r0, #100
 2139 004e FFF7FEFF 		bl	delay_with_ble
 2140              	.LVL191:
1431:main.c        **** 		}
1432:main.c        **** 
1433:main.c        **** 		DBG_SOFT_PutStr("\nGet Card UID:");	
1434:main.c        **** 		DBG_SOFT_PrintfHex(card_id,8,16);
1435:main.c        **** 		
1436:main.c        **** 		time_tmp = (uint32)RTC_GetUnixTime();
 2141              		.loc 1 1436 0
 2142 0052 FFF7FEFF 		bl	RTC_GetUnixTime
 2143              	.LVL192:
1437:main.c        **** 		LONG2BYTE(time_tmp, arr_time);
 2144              		.loc 1 1437 0
 2145 0056 02AA     		add	r2, sp, #8
 2146 0058 030E     		lsrs	r3, r0, #24
 2147 005a 1370     		strb	r3, [r2]
 2148 005c 030C     		lsrs	r3, r0, #16
 2149 005e D070     		strb	r0, [r2, #3]
 2150 0060 5370     		strb	r3, [r2, #1]
 2151 0062 030A     		lsrs	r3, r0, #8
1438:main.c        **** 		memcpy(user_info.card_uid, card_id, CARD_UID_LEN);
 2152              		.loc 1 1438 0
 2153 0064 05A8     		add	r0, sp, #20
 2154              	.LVL193:
1437:main.c        **** 		LONG2BYTE(time_tmp, arr_time);
 2155              		.loc 1 1437 0
 2156 0066 9370     		strb	r3, [r2, #2]
 2157              		.loc 1 1438 0
 2158 0068 0300     		movs	r3, r0
ARM GAS  C:\Users\Administrator\AppData\Local\Temp\ccNQfmEa.s 			page 65


 2159 006a 2200     		movs	r2, r4
 2160 006c 22CA     		ldmia	r2!, {r1, r5}
 2161 006e 22C3     		stmia	r3!, {r1, r5}
1439:main.c        **** 		memcpy(user_info.valid_time, arr_time, 4);
 2162              		.loc 1 1439 0
 2163 0070 029B     		ldr	r3, [sp, #8]
 2164 0072 8360     		str	r3, [r0, #8]
1440:main.c        **** 		
1441:main.c        **** 		if (1 == UserData_Judge_If_Open(&user_info))
 2165              		.loc 1 1441 0
 2166 0074 FFF7FEFF 		bl	UserData_Judge_If_Open
 2167              	.LVL194:
 2168 0078 314F     		ldr	r7, .L195+8
 2169 007a 0128     		cmp	r0, #1
 2170 007c 3DD1     		bne	.L193
 2171 007e 06E0     		b	.L194
 2172              	.LVL195:
 2173              	.L179:
1419:main.c        **** 			{
 2174              		.loc 1 1419 0
 2175 0080 0821     		movs	r1, #8
 2176 0082 2000     		movs	r0, r4
 2177 0084 FFF7FEFF 		bl	nfc_detect_type_b
 2178              	.LVL196:
 2179 0088 0028     		cmp	r0, #0
 2180 008a 52D0     		beq	.L176
 2181 008c CDE7     		b	.L183
 2182              	.LVL197:
 2183              	.L194:
1442:main.c        **** 		{
1443:main.c        **** 			Led_GreenON();
 2184              		.loc 1 1443 0
 2185 008e FFF7FEFF 		bl	Led_GreenON
 2186              	.LVL198:
1444:main.c        **** 			DoorOpen();
 2187              		.loc 1 1444 0
 2188 0092 FFF7FEFF 		bl	DoorOpen
 2189              	.LVL199:
1445:main.c        **** 			VoicePlay((uint8)Sound_VERIFY_SUCCESS);
 2190              		.loc 1 1445 0
 2191 0096 0A20     		movs	r0, #10
 2192 0098 FFF7FEFF 		bl	VoicePlay
 2193              	.LVL200:
1446:main.c        **** 			
1447:main.c        **** 			time_tmp = (uint32)RTC_GetUnixTime();
 2194              		.loc 1 1447 0
 2195 009c FFF7FEFF 		bl	RTC_GetUnixTime
 2196              	.LVL201:
1448:main.c        **** 			if (time_tmp >= 1483203600)
 2197              		.loc 1 1448 0
 2198 00a0 284B     		ldr	r3, .L195+12
 2199 00a2 9842     		cmp	r0, r3
 2200 00a4 22D9     		bls	.L185
1449:main.c        **** 			{
1450:main.c        **** 				memset(&openInfo_card, 0, sizeof(open_door_t));
 2201              		.loc 1 1450 0
 2202 00a6 08AD     		add	r5, sp, #32
ARM GAS  C:\Users\Administrator\AppData\Local\Temp\ccNQfmEa.s 			page 66


 2203 00a8 1022     		movs	r2, #16
 2204 00aa 0021     		movs	r1, #0
 2205 00ac 2800     		movs	r0, r5
 2206              	.LVL202:
 2207 00ae FFF7FEFF 		bl	memset
 2208              	.LVL203:
1451:main.c        **** 				memcpy(openInfo_card.card_uid, card_id, CARD_UID_LEN);
 2209              		.loc 1 1451 0
 2210 00b2 2B00     		movs	r3, r5
 2211 00b4 06CC     		ldmia	r4!, {r1, r2}
 2212 00b6 06C3     		stmia	r3!, {r1, r2}
1452:main.c        **** 				memcpy(openInfo_card.open_time, arr_time, 4);
 2213              		.loc 1 1452 0
 2214 00b8 029B     		ldr	r3, [sp, #8]
1453:main.c        **** 				memset(arr_time, 0, 4);
1454:main.c        **** 				memcpy(openInfo_card.send_time, arr_time, 4);
1455:main.c        **** 				Write_OpenInfo(&openInfo_card, CARD_OPEN);
 2215              		.loc 1 1455 0
 2216 00ba 0721     		movs	r1, #7
1452:main.c        **** 				memcpy(openInfo_card.open_time, arr_time, 4);
 2217              		.loc 1 1452 0
 2218 00bc 0193     		str	r3, [sp, #4]
 2219 00be AB60     		str	r3, [r5, #8]
1453:main.c        **** 				memset(arr_time, 0, 4);
 2220              		.loc 1 1453 0
 2221 00c0 0023     		movs	r3, #0
 2222              		.loc 1 1455 0
 2223 00c2 2800     		movs	r0, r5
1453:main.c        **** 				memset(arr_time, 0, 4);
 2224              		.loc 1 1453 0
 2225 00c4 0293     		str	r3, [sp, #8]
 2226              		.loc 1 1455 0
 2227 00c6 FFF7FEFF 		bl	Write_OpenInfo
 2228              	.LVL204:
1456:main.c        **** 				
1457:main.c        **** 				if (gprs_state == NORMAL_COMM)
 2229              		.loc 1 1457 0
 2230 00ca 1F4B     		ldr	r3, .L195+16
 2231 00cc 1B78     		ldrb	r3, [r3]
 2232 00ce 052B     		cmp	r3, #5
 2233 00d0 0CD1     		bne	.L185
1458:main.c        **** 				{
1459:main.c        **** 					time_tmp = (uint32)RTC_GetUnixTime();
 2234              		.loc 1 1459 0
 2235 00d2 FFF7FEFF 		bl	RTC_GetUnixTime
 2236              	.LVL205:
1460:main.c        **** 					if(time_tmp > next_allupload_time)
 2237              		.loc 1 1460 0
 2238 00d6 1D4B     		ldr	r3, .L195+20
 2239 00d8 1A68     		ldr	r2, [r3]
 2240 00da 9042     		cmp	r0, r2
 2241 00dc 06D9     		bls	.L185
1461:main.c        **** 					{
1462:main.c        **** 						next_allupload_time = time_tmp + 15;
 2242              		.loc 1 1462 0
 2243 00de 0F30     		adds	r0, r0, #15
 2244              	.LVL206:
ARM GAS  C:\Users\Administrator\AppData\Local\Temp\ccNQfmEa.s 			page 67


 2245 00e0 1860     		str	r0, [r3]
1463:main.c        **** 						send_upload_open_info(&openInfo_card, CARD_UID_LEN, CARD_OPEN);				
 2246              		.loc 1 1463 0
 2247 00e2 0722     		movs	r2, #7
 2248 00e4 0821     		movs	r1, #8
 2249 00e6 2800     		movs	r0, r5
 2250              	.LVL207:
 2251 00e8 FFF7FEFF 		bl	send_upload_open_info
 2252              	.LVL208:
 2253              	.L185:
1464:main.c        **** 					}
1465:main.c        **** 				}
1466:main.c        **** 			}
1467:main.c        **** 			delay_with_ble(1000);
 2254              		.loc 1 1467 0
 2255 00ec FA20     		movs	r0, #250
 2256 00ee 8000     		lsls	r0, r0, #2
 2257 00f0 FFF7FEFF 		bl	delay_with_ble
 2258              	.LVL209:
1468:main.c        **** 			DoorClose();
 2259              		.loc 1 1468 0
 2260 00f4 FFF7FEFF 		bl	DoorClose
 2261              	.LVL210:
 2262 00f8 0BE0     		b	.L187
 2263              	.L193:
1469:main.c        **** 		}
1470:main.c        **** 		else
1471:main.c        **** 		{
1472:main.c        **** 			Card_ErrCount++;
 2264              		.loc 1 1472 0
 2265 00fa 3B78     		ldrb	r3, [r7]
 2266 00fc 0133     		adds	r3, r3, #1
 2267 00fe 3B70     		strb	r3, [r7]
1473:main.c        **** 			Led_RedON();
 2268              		.loc 1 1473 0
 2269 0100 FFF7FEFF 		bl	Led_RedON
 2270              	.LVL211:
1474:main.c        **** 			VoicePlay(Sound_VERIFY_FAILURE);
 2271              		.loc 1 1474 0
 2272 0104 0B20     		movs	r0, #11
 2273 0106 FFF7FEFF 		bl	VoicePlay
 2274              	.LVL212:
1475:main.c        **** 			delay_with_ble(800);
 2275              		.loc 1 1475 0
 2276 010a C820     		movs	r0, #200
 2277 010c 8000     		lsls	r0, r0, #2
 2278 010e FFF7FEFF 		bl	delay_with_ble
 2279              	.LVL213:
 2280              	.L187:
1476:main.c        **** 		}
1477:main.c        **** 		Led_SetState(LED_State);										// LED的状态切回刷卡前的状态		//
 2281              		.loc 1 1477 0
 2282 0112 707A     		ldrb	r0, [r6, #9]
 2283 0114 FFF7FEFF 		bl	Led_SetState
 2284              	.LVL214:
 2285              	.LDL1:
1478:main.c        **** 		
ARM GAS  C:\Users\Administrator\AppData\Local\Temp\ccNQfmEa.s 			page 68


1479:main.c        **** 	Err_Check:
1480:main.c        **** 		if (Card_ErrCount >= 5)
 2286              		.loc 1 1480 0
 2287 0118 3B78     		ldrb	r3, [r7]
 2288 011a 042B     		cmp	r3, #4
 2289 011c 09D9     		bls	.L176
1481:main.c        **** 		{
1482:main.c        **** 			Card_ErrCount = 0;
 2290              		.loc 1 1482 0
 2291 011e 0023     		movs	r3, #0
 2292 0120 3B70     		strb	r3, [r7]
1483:main.c        **** 			if (gprs_state == NORMAL_COMM)
 2293              		.loc 1 1483 0
 2294 0122 094B     		ldr	r3, .L195+16
 2295 0124 1B78     		ldrb	r3, [r3]
 2296 0126 052B     		cmp	r3, #5
 2297 0128 03D1     		bne	.L176
1484:main.c        **** 			{
1485:main.c        **** 				EnterGuide_State = ALARM_ErrOpenQty;
 2298              		.loc 1 1485 0
 2299 012a 0320     		movs	r0, #3
 2300 012c 3072     		strb	r0, [r6, #8]
1486:main.c        **** 				send_alarm_info(EnterGuide_State);						// 开门错误5次报警					//
 2301              		.loc 1 1486 0
 2302 012e FFF7FEFF 		bl	send_alarm_info
 2303              	.LVL215:
 2304              	.L176:
1487:main.c        **** 			}
1488:main.c        **** 		}
1489:main.c        **** 		
1490:main.c        **** 	}
1491:main.c        **** }
 2305              		.loc 1 1491 0
 2306 0132 0DB0     		add	sp, sp, #52
 2307              		@ sp needed
 2308 0134 F0BD     		pop	{r4, r5, r6, r7, pc}
 2309              	.L196:
 2310 0136 C046     		.align	2
 2311              	.L195:
 2312 0138 00000000 		.word	.LANCHOR0
 2313 013c DC050000 		.word	1500
 2314 0140 00000000 		.word	Card_ErrCount
 2315 0144 0FE46758 		.word	1483203599
 2316 0148 00000000 		.word	gprs_state
 2317 014c 00000000 		.word	next_allupload_time
 2318              		.cfi_endproc
 2319              	.LFE92:
 2320              		.size	CARD_Tick, .-CARD_Tick
 2321              		.section	.text.KeyOpen_Tick,"ax",%progbits
 2322              		.align	1
 2323              		.global	KeyOpen_Tick
 2324              		.code	16
 2325              		.thumb_func
 2326              		.type	KeyOpen_Tick, %function
 2327              	KeyOpen_Tick:
 2328              	.LFB93:
1492:main.c        **** #endif
ARM GAS  C:\Users\Administrator\AppData\Local\Temp\ccNQfmEa.s 			page 69


1493:main.c        **** 
1494:main.c        **** 
1495:main.c        **** #if card_normal //原功能
1496:main.c        **** //*************************************************************************************************
1497:main.c        **** // Function name	: CARD_Tick
1498:main.c        **** // Description		: 刷卡验证并处理
1499:main.c        **** // Parameter		: none
1500:main.c        **** // Return			: none
1501:main.c        **** //-------------------------------------------------------------------------------------------------
1502:main.c        **** // Info				: 
1503:main.c        **** //*************************************************************************************************
1504:main.c        **** void CARD_Tick(void)
1505:main.c        **** {
1506:main.c        **** 	uint8 i;
1507:main.c        **** 	uint8 ret;
1508:main.c        **** 	uint8 card_id[8];
1509:main.c        **** 	uint8 arr_time[4];
1510:main.c        **** 	uint32 cur_time;
1511:main.c        **** 	user_info_t user_info;
1512:main.c        ****     open_door_t openInfo_card;
1513:main.c        **** 	
1514:main.c        **** 	#if 0
1515:main.c        **** 	if ((ret = detect_nfc_card(card_id, CARD_UID_LEN)) != RET_OK)
1516:main.c        **** 	{
1517:main.c        **** 		goto Err_Check;
1518:main.c        **** 	}
1519:main.c        **** 	
1520:main.c        **** 	// 滤除不准确的卡ID
1521:main.c        **** 	if((card_id[0] == 0) && (card_id[1] == 0) &&(card_id[2] == 0) && (card_id[3] == 0))
1522:main.c        **** 	{
1523:main.c        **** 		return;
1524:main.c        **** 	}
1525:main.c        **** 	#endif
1526:main.c        **** 	
1527:main.c        **** 	if(RET_ERR == Read_nfc_card2(card_id))
1528:main.c        **** 		return;
1529:main.c        **** 	
1530:main.c        **** 		#if DBG_SOFT_ENNABLE
1531:main.c        **** 		//memset(cur_readuid, 0, 8);
1532:main.c        **** 		//memcpy(card_id,card_id,8);
1533:main.c        **** 		DBG_SOFT_PutStr("\nCur Read card UID:\n");
1534:main.c        **** 		DBG_SOFT_PrintfHex(card_id,8,16);
1535:main.c        **** 		#endif	
1536:main.c        **** 	
1537:main.c        **** 	for (i = 0; i < 2; i++)
1538:main.c        **** 	{
1539:main.c        **** 	    Led_AllOff();
1540:main.c        **** 		delay_with_ble(100);
1541:main.c        **** 		Led_BlueON();
1542:main.c        **** 		delay_with_ble(100);
1543:main.c        **** 	}
1544:main.c        **** 	
1545:main.c        **** 	cur_time = (uint32)RTC_GetUnixTime();
1546:main.c        **** 	LONG2BYTE(cur_time, arr_time);
1547:main.c        **** 	memcpy(user_info.card_uid, card_id, CARD_UID_LEN);
1548:main.c        **** 	memcpy(user_info.valid_time, arr_time, 4);
1549:main.c        **** 	
ARM GAS  C:\Users\Administrator\AppData\Local\Temp\ccNQfmEa.s 			page 70


1550:main.c        **** 	if (1 == UserData_Judge_If_Open(&user_info))
1551:main.c        **** 	{
1552:main.c        **** 		Led_GreenON();
1553:main.c        **** 		DoorOpen();
1554:main.c        **** 		VoicePlay((uint8)Sound_VERIFY_SUCCESS);
1555:main.c        **** 		
1556:main.c        **** 		memset(&openInfo_card, 0, sizeof(open_door_t));
1557:main.c        **** 		memcpy(openInfo_card.card_uid, card_id, CARD_UID_LEN);
1558:main.c        **** 		memcpy(openInfo_card.open_time, arr_time, 4);
1559:main.c        **** 		memset(arr_time, 0, 4);
1560:main.c        **** 		memcpy(openInfo_card.send_time, arr_time, 4);
1561:main.c        **** 		Write_OpenInfo(&openInfo_card, CARD_OPEN);
1562:main.c        **** 		
1563:main.c        **** 		if (gprs_state == NORMAL_COMM)
1564:main.c        **** 		{
1565:main.c        **** 			cur_time = (uint32)RTC_GetUnixTime();
1566:main.c        **** 			if(cur_time > next_allupload_time)
1567:main.c        **** 			{
1568:main.c        **** 				next_allupload_time = cur_time + 15;
1569:main.c        **** 				send_upload_open_info(&openInfo_card, CARD_UID_LEN, CARD_OPEN);				
1570:main.c        **** 			}						
1571:main.c        **** 		}
1572:main.c        **** 		
1573:main.c        **** 		DoorClose();
1574:main.c        **** 	}
1575:main.c        **** 	else
1576:main.c        **** 	{
1577:main.c        **** 		Card_ErrCount++;
1578:main.c        **** 		Led_RedON();
1579:main.c        **** 		VoicePlay(Sound_VERIFY_FAILURE);
1580:main.c        **** 		delay_with_ble(800);
1581:main.c        **** 	}
1582:main.c        **** 	Led_SetState(LED_State);										// LED的状态切回刷卡前的状态		//
1583:main.c        **** 	
1584:main.c        **** Err_Check:
1585:main.c        **** 	if (Card_ErrCount >= 5)
1586:main.c        **** 	{
1587:main.c        **** 		Card_ErrCount = 0;
1588:main.c        **** 		if (gprs_state == NORMAL_COMM)
1589:main.c        **** 		{
1590:main.c        **** 			EnterGuide_State = ALARM_ErrOpenQty;
1591:main.c        **** 			send_alarm_info(EnterGuide_State);						// 开门错误5次报警					//
1592:main.c        **** 		}
1593:main.c        **** 	}
1594:main.c        **** }
1595:main.c        **** #endif
1596:main.c        **** 
1597:main.c        **** //*************************************************************************************************
1598:main.c        **** // Function name	: KeyOpen_Tick
1599:main.c        **** // Description		: 机械开门的处理
1600:main.c        **** // Parameter		: none
1601:main.c        **** // Return			: none
1602:main.c        **** //-------------------------------------------------------------------------------------------------
1603:main.c        **** // Info				: 
1604:main.c        **** //*************************************************************************************************
1605:main.c        **** void KeyOpen_Tick(void)
1606:main.c        **** {
ARM GAS  C:\Users\Administrator\AppData\Local\Temp\ccNQfmEa.s 			page 71


 2329              		.loc 1 1606 0
 2330              		.cfi_startproc
 2331              		@ args = 0, pretend = 0, frame = 32
 2332              		@ frame_needed = 0, uses_anonymous_args = 0
 2333 0000 10B5     		push	{r4, lr}
 2334              		.cfi_def_cfa_offset 8
 2335              		.cfi_offset 4, -8
 2336              		.cfi_offset 14, -4
 2337 0002 88B0     		sub	sp, sp, #32
 2338              		.cfi_def_cfa_offset 40
1607:main.c        **** 	uint8 card_id[8] = {0xff, 0xff, 0xff, 0xff, 0xff, 0xff, 0xff, 0x02};
 2339              		.loc 1 1607 0
 2340 0004 0822     		movs	r2, #8
 2341 0006 2949     		ldr	r1, .L204
 2342 0008 02A8     		add	r0, sp, #8
 2343 000a FFF7FEFF 		bl	memcpy
 2344              	.LVL216:
1608:main.c        **** 	uint8 arr_time[4];
1609:main.c        **** 	uint32 time_tmp;
1610:main.c        ****     open_door_t openInfo_Key;
1611:main.c        **** 	
1612:main.c        **** 	
1613:main.c        **** 	//if ((0 == KEY_OPEN_Read()) && (cur_time > next_gprs_upload_time))
1614:main.c        **** 	if (0 == KEY_OPEN_Read())
 2345              		.loc 1 1614 0
 2346 000e FFF7FEFF 		bl	KEY_OPEN_Read
 2347              	.LVL217:
 2348 0012 0028     		cmp	r0, #0
 2349 0014 47D1     		bne	.L197
1615:main.c        **** 	{
1616:main.c        **** 		delay_with_ble(5);
 2350              		.loc 1 1616 0
 2351 0016 0530     		adds	r0, r0, #5
 2352 0018 FFF7FEFF 		bl	delay_with_ble
 2353              	.LVL218:
1617:main.c        **** 		if (0 == KEY_OPEN_Read())
 2354              		.loc 1 1617 0
 2355 001c FFF7FEFF 		bl	KEY_OPEN_Read
 2356              	.LVL219:
 2357 0020 041E     		subs	r4, r0, #0
 2358 0022 40D1     		bne	.L197
1618:main.c        **** 		{
1619:main.c        **** 			Led_GreenON();
 2359              		.loc 1 1619 0
 2360 0024 FFF7FEFF 		bl	Led_GreenON
 2361              	.LVL220:
1620:main.c        **** 			DoorOpen();
 2362              		.loc 1 1620 0
 2363 0028 FFF7FEFF 		bl	DoorOpen
 2364              	.LVL221:
1621:main.c        **** 			VoicePlay((uint8)Sound_VERIFY_SUCCESS);
 2365              		.loc 1 1621 0
 2366 002c 0A20     		movs	r0, #10
 2367 002e FFF7FEFF 		bl	VoicePlay
 2368              	.LVL222:
1622:main.c        **** 			
1623:main.c        **** 			time_tmp = (uint32)RTC_GetUnixTime();
ARM GAS  C:\Users\Administrator\AppData\Local\Temp\ccNQfmEa.s 			page 72


 2369              		.loc 1 1623 0
 2370 0032 FFF7FEFF 		bl	RTC_GetUnixTime
 2371              	.LVL223:
1624:main.c        **** 			if(time_tmp >= 1483203600)
 2372              		.loc 1 1624 0
 2373 0036 1E4B     		ldr	r3, .L204+4
 2374 0038 9842     		cmp	r0, r3
 2375 003a 2AD9     		bls	.L202
1625:main.c        **** 			{
1626:main.c        **** 				LONG2BYTE(time_tmp, arr_time);
 2376              		.loc 1 1626 0
 2377 003c 01AB     		add	r3, sp, #4
 2378 003e 020E     		lsrs	r2, r0, #24
 2379 0040 1A70     		strb	r2, [r3]
 2380 0042 020C     		lsrs	r2, r0, #16
 2381 0044 5A70     		strb	r2, [r3, #1]
 2382 0046 020A     		lsrs	r2, r0, #8
 2383 0048 9A70     		strb	r2, [r3, #2]
 2384 004a D870     		strb	r0, [r3, #3]
1627:main.c        **** 				memset(&openInfo_Key, 0, sizeof(open_door_t));
 2385              		.loc 1 1627 0
 2386 004c 1022     		movs	r2, #16
 2387 004e 2100     		movs	r1, r4
 2388 0050 04A8     		add	r0, sp, #16
 2389              	.LVL224:
 2390 0052 FFF7FEFF 		bl	memset
 2391              	.LVL225:
1628:main.c        **** 				memcpy(openInfo_Key.card_uid, card_id, CARD_UID_LEN);
 2392              		.loc 1 1628 0
 2393 0056 0822     		movs	r2, #8
 2394 0058 02A9     		add	r1, sp, #8
 2395 005a 04A8     		add	r0, sp, #16
 2396 005c FFF7FEFF 		bl	memcpy
 2397              	.LVL226:
1629:main.c        **** 				memcpy(openInfo_Key.open_time, arr_time, 4);
 2398              		.loc 1 1629 0
 2399 0060 019B     		ldr	r3, [sp, #4]
1630:main.c        **** 				memset(arr_time, 0, 4);
1631:main.c        **** 				memcpy(openInfo_Key.send_time, arr_time, 4);
1632:main.c        **** 				Write_OpenInfo(&openInfo_Key, HAND_OPEN);
 2400              		.loc 1 1632 0
 2401 0062 0821     		movs	r1, #8
 2402 0064 04A8     		add	r0, sp, #16
1629:main.c        **** 				memcpy(openInfo_Key.open_time, arr_time, 4);
 2403              		.loc 1 1629 0
 2404 0066 0693     		str	r3, [sp, #24]
1630:main.c        **** 				memset(arr_time, 0, 4);
 2405              		.loc 1 1630 0
 2406 0068 0194     		str	r4, [sp, #4]
1631:main.c        **** 				Write_OpenInfo(&openInfo_Key, HAND_OPEN);
 2407              		.loc 1 1631 0
 2408 006a 0794     		str	r4, [sp, #28]
 2409              		.loc 1 1632 0
 2410 006c FFF7FEFF 		bl	Write_OpenInfo
 2411              	.LVL227:
1633:main.c        **** 				
1634:main.c        **** 				if (gprs_state == NORMAL_COMM)
ARM GAS  C:\Users\Administrator\AppData\Local\Temp\ccNQfmEa.s 			page 73


 2412              		.loc 1 1634 0
 2413 0070 104B     		ldr	r3, .L204+8
 2414 0072 1B78     		ldrb	r3, [r3]
 2415 0074 052B     		cmp	r3, #5
 2416 0076 0CD1     		bne	.L202
1635:main.c        **** 				{
1636:main.c        **** 					time_tmp = (uint32)RTC_GetUnixTime();
 2417              		.loc 1 1636 0
 2418 0078 FFF7FEFF 		bl	RTC_GetUnixTime
 2419              	.LVL228:
1637:main.c        **** 					if (time_tmp > next_allupload_time)
 2420              		.loc 1 1637 0
 2421 007c 0E4B     		ldr	r3, .L204+12
 2422 007e 1A68     		ldr	r2, [r3]
 2423 0080 9042     		cmp	r0, r2
 2424 0082 06D9     		bls	.L202
1638:main.c        **** 					{
1639:main.c        **** 						next_allupload_time = time_tmp + 15;
1640:main.c        **** 						send_upload_open_info(&openInfo_Key, CARD_UID_LEN, HAND_OPEN);
 2425              		.loc 1 1640 0
 2426 0084 0822     		movs	r2, #8
1639:main.c        **** 						send_upload_open_info(&openInfo_Key, CARD_UID_LEN, HAND_OPEN);
 2427              		.loc 1 1639 0
 2428 0086 0F30     		adds	r0, r0, #15
 2429              	.LVL229:
 2430 0088 1860     		str	r0, [r3]
 2431              		.loc 1 1640 0
 2432 008a 1100     		movs	r1, r2
 2433 008c 04A8     		add	r0, sp, #16
 2434              	.LVL230:
 2435 008e FFF7FEFF 		bl	send_upload_open_info
 2436              	.LVL231:
 2437              	.L202:
1641:main.c        **** 					}						
1642:main.c        **** 				}
1643:main.c        **** 			}
1644:main.c        **** 			delay_with_ble(1000);
 2438              		.loc 1 1644 0
 2439 0092 FA20     		movs	r0, #250
 2440 0094 8000     		lsls	r0, r0, #2
 2441 0096 FFF7FEFF 		bl	delay_with_ble
 2442              	.LVL232:
1645:main.c        **** 			DoorClose();
 2443              		.loc 1 1645 0
 2444 009a FFF7FEFF 		bl	DoorClose
 2445              	.LVL233:
1646:main.c        **** 	        Led_SetState(LED_State);
 2446              		.loc 1 1646 0
 2447 009e 074B     		ldr	r3, .L204+16
 2448 00a0 587A     		ldrb	r0, [r3, #9]
 2449 00a2 FFF7FEFF 		bl	Led_SetState
 2450              	.LVL234:
 2451              	.L197:
1647:main.c        **** 		}
1648:main.c        **** 	}
1649:main.c        **** }
 2452              		.loc 1 1649 0
ARM GAS  C:\Users\Administrator\AppData\Local\Temp\ccNQfmEa.s 			page 74


 2453 00a6 08B0     		add	sp, sp, #32
 2454              		@ sp needed
 2455 00a8 10BD     		pop	{r4, pc}
 2456              	.L205:
 2457 00aa C046     		.align	2
 2458              	.L204:
 2459 00ac 00000000 		.word	.LANCHOR1
 2460 00b0 0FE46758 		.word	1483203599
 2461 00b4 00000000 		.word	gprs_state
 2462 00b8 00000000 		.word	next_allupload_time
 2463 00bc 00000000 		.word	.LANCHOR0
 2464              		.cfi_endproc
 2465              	.LFE93:
 2466              		.size	KeyOpen_Tick, .-KeyOpen_Tick
 2467              		.section	.text.FireAlarm_Tick,"ax",%progbits
 2468              		.align	1
 2469              		.global	FireAlarm_Tick
 2470              		.code	16
 2471              		.thumb_func
 2472              		.type	FireAlarm_Tick, %function
 2473              	FireAlarm_Tick:
 2474              	.LFB94:
1650:main.c        **** 
1651:main.c        **** #if 0
1652:main.c        **** //*************************************************************************************************
1653:main.c        **** // Function name	: FireOpen_Tick
1654:main.c        **** // Description		: 火警开门的处理
1655:main.c        **** // Parameter		: none
1656:main.c        **** // Return			: none
1657:main.c        **** //-------------------------------------------------------------------------------------------------
1658:main.c        **** // Info				: 
1659:main.c        **** //*************************************************************************************************
1660:main.c        **** void FireOpen_Tick(void)
1661:main.c        **** {
1662:main.c        **** 	uint8 card_id[8] = {0xFF, 0xFF, 0xFF, 0xFF, 0xFF, 0xFF, 0xFF, 0x01};
1663:main.c        **** 	uint8 arr_time[4];
1664:main.c        **** 	uint32 time_tmp;
1665:main.c        ****     open_door_t openInfo_FIRE;
1666:main.c        **** 	
1667:main.c        **** 	//if ((0 == FIRE_OPEN_Read()) && (cur_time > next_gprs_upload_time))
1668:main.c        **** 	if (0 == FIRE_OPEN_Read())
1669:main.c        **** 	{
1670:main.c        **** 		delay_with_ble(20);
1671:main.c        **** 		if (0 == FIRE_OPEN_Read())
1672:main.c        **** 		{
1673:main.c        **** 			Led_GreenON();
1674:main.c        **** 			DoorOpen();
1675:main.c        **** 			VoicePlay((uint8)Sound_VERIFY_SUCCESS);
1676:main.c        **** 	        	
1677:main.c        **** 			time_tmp = (uint32)RTC_GetUnixTime();
1678:main.c        **** 			if(time_tmp >= 1483203600)
1679:main.c        **** 			{
1680:main.c        **** 				memset(&openInfo_FIRE, 0, sizeof(open_door_t));
1681:main.c        **** 				memcpy(openInfo_FIRE.card_uid, card_id, CARD_UID_LEN);
1682:main.c        **** 				memcpy(openInfo_FIRE.open_time, arr_time, 4);
1683:main.c        **** 				memset(arr_time, 0, 4);
1684:main.c        **** 				memcpy(openInfo_FIRE.send_time, arr_time, 4);
ARM GAS  C:\Users\Administrator\AppData\Local\Temp\ccNQfmEa.s 			page 75


1685:main.c        **** 				Write_OpenInfo(&openInfo_FIRE, FIRE_OPEN);
1686:main.c        **** 				
1687:main.c        **** 				if (gprs_state == NORMAL_COMM)
1688:main.c        **** 				{
1689:main.c        **** 					time_tmp = (uint32)RTC_GetUnixTime();
1690:main.c        **** 					if(time_tmp > next_allupload_time)
1691:main.c        **** 					{
1692:main.c        **** 						next_allupload_time = time_tmp + 15;
1693:main.c        **** 						send_upload_open_info(&openInfo_FIRE, CARD_UID_LEN, FIRE_OPEN);
1694:main.c        **** 						firealarm_flag = 1;												 // 开启1min一次火警上报功能 不清除
1695:main.c        **** 					}						
1696:main.c        **** 				}
1697:main.c        **** 			}
1698:main.c        **** 			delay_with_ble(1000);
1699:main.c        **** 			DoorClose();
1700:main.c        **** 			Led_SetState(LED_State);								// LED的状态切回刷卡前的状态		//
1701:main.c        **** 		}
1702:main.c        **** 	}
1703:main.c        **** }
1704:main.c        **** #endif
1705:main.c        **** 
1706:main.c        **** #if FireAlarm_Open
1707:main.c        **** //*************************************************************************************************
1708:main.c        **** // Function name	: FireAlarm_Tick
1709:main.c        **** // Description		: 火警上报功能
1710:main.c        **** // Parameter		: none
1711:main.c        **** // Return			: none
1712:main.c        **** //-------------------------------------------------------------------------------------------------
1713:main.c        **** // Info				: 火警上报处理1min一次
1714:main.c        **** //*************************************************************************************************
1715:main.c        **** void FireAlarm_Tick(void)
1716:main.c        **** {
 2475              		.loc 1 1716 0
 2476              		.cfi_startproc
 2477              		@ args = 0, pretend = 0, frame = 32
 2478              		@ frame_needed = 0, uses_anonymous_args = 0
1717:main.c        **** 	uint8 card_id[8] = {0xFF, 0xFF, 0xFF, 0xFF, 0xFF, 0xFF, 0xFF, 0x01};
 2479              		.loc 1 1717 0
 2480 0000 0822     		movs	r2, #8
1716:main.c        **** 	uint8 card_id[8] = {0xFF, 0xFF, 0xFF, 0xFF, 0xFF, 0xFF, 0xFF, 0x01};
 2481              		.loc 1 1716 0
 2482 0002 70B5     		push	{r4, r5, r6, lr}
 2483              		.cfi_def_cfa_offset 16
 2484              		.cfi_offset 4, -16
 2485              		.cfi_offset 5, -12
 2486              		.cfi_offset 6, -8
 2487              		.cfi_offset 14, -4
 2488              		.loc 1 1717 0
 2489 0004 3749     		ldr	r1, .L216
1716:main.c        **** 	uint8 card_id[8] = {0xFF, 0xFF, 0xFF, 0xFF, 0xFF, 0xFF, 0xFF, 0x01};
 2490              		.loc 1 1716 0
 2491 0006 88B0     		sub	sp, sp, #32
 2492              		.cfi_def_cfa_offset 48
 2493              		.loc 1 1717 0
 2494 0008 8918     		adds	r1, r1, r2
 2495 000a 02A8     		add	r0, sp, #8
 2496 000c FFF7FEFF 		bl	memcpy
ARM GAS  C:\Users\Administrator\AppData\Local\Temp\ccNQfmEa.s 			page 76


 2497              	.LVL235:
1718:main.c        **** 	uint8 arr_time[4];
1719:main.c        **** 	uint32 time_tmp;
1720:main.c        ****     open_door_t openInfo_FIRE;
1721:main.c        **** 	
1722:main.c        **** 	if (0 == FIRE_OPEN_Read())
 2498              		.loc 1 1722 0
 2499 0010 FFF7FEFF 		bl	FIRE_OPEN_Read
 2500              	.LVL236:
 2501 0014 344C     		ldr	r4, .L216+4
 2502 0016 354D     		ldr	r5, .L216+8
 2503 0018 0028     		cmp	r0, #0
 2504 001a 5BD1     		bne	.L207
1723:main.c        **** 	{
1724:main.c        **** 		delay_with_ble(20);
 2505              		.loc 1 1724 0
 2506 001c 1430     		adds	r0, r0, #20
 2507 001e FFF7FEFF 		bl	delay_with_ble
 2508              	.LVL237:
1725:main.c        **** 		if (0 == FIRE_OPEN_Read())
 2509              		.loc 1 1725 0
 2510 0022 FFF7FEFF 		bl	FIRE_OPEN_Read
 2511              	.LVL238:
 2512 0026 0028     		cmp	r0, #0
 2513 0028 54D1     		bne	.L207
1726:main.c        **** 		{
1727:main.c        **** 			DoorOpen();
 2514              		.loc 1 1727 0
 2515 002a FFF7FEFF 		bl	DoorOpen
 2516              	.LVL239:
1728:main.c        **** 			
1729:main.c        **** 			if (((firealarm_flag == 0) && (FireCheck_time > 5000)) ||
 2517              		.loc 1 1729 0
 2518 002e 2378     		ldrb	r3, [r4]
 2519 0030 002B     		cmp	r3, #0
 2520 0032 01D1     		bne	.L208
 2521              		.loc 1 1729 0 is_stmt 0 discriminator 1
 2522 0034 2E4B     		ldr	r3, .L216+12
 2523 0036 02E0     		b	.L215
 2524              	.L208:
 2525              		.loc 1 1729 0 discriminator 3
 2526 0038 022B     		cmp	r3, #2
 2527 003a 18D1     		bne	.L210
1730:main.c        **** 				((firealarm_flag == 2) && (FireCheck_time > 60000)))
 2528              		.loc 1 1730 0 is_stmt 1
 2529 003c 2D4B     		ldr	r3, .L216+16
 2530              	.L215:
 2531 003e 2A68     		ldr	r2, [r5]
 2532 0040 9A42     		cmp	r2, r3
 2533 0042 14D9     		bls	.L210
1731:main.c        **** 			{
1732:main.c        **** 				time_tmp = (uint32)RTC_GetUnixTime();
 2534              		.loc 1 1732 0
 2535 0044 FFF7FEFF 		bl	RTC_GetUnixTime
 2536              	.LVL240:
1733:main.c        **** 				if (time_tmp > 1483203600)
 2537              		.loc 1 1733 0
ARM GAS  C:\Users\Administrator\AppData\Local\Temp\ccNQfmEa.s 			page 77


 2538 0048 2B4B     		ldr	r3, .L216+20
 2539 004a 9842     		cmp	r0, r3
 2540 004c 0FD9     		bls	.L210
1734:main.c        **** 				{
1735:main.c        **** 					if (gprs_state == NORMAL_COMM)
 2541              		.loc 1 1735 0
 2542 004e 2B4B     		ldr	r3, .L216+24
 2543 0050 1B78     		ldrb	r3, [r3]
 2544 0052 052B     		cmp	r3, #5
 2545 0054 0BD1     		bne	.L210
1736:main.c        **** 					{
1737:main.c        **** 						EnterGuide_State = ALARM_Fire;			// 火警1min上报一次     					//
 2546              		.loc 1 1737 0
 2547 0056 0126     		movs	r6, #1
 2548 0058 294B     		ldr	r3, .L216+28
1738:main.c        **** 						send_alarm_info(EnterGuide_State);
 2549              		.loc 1 1738 0
 2550 005a 3000     		movs	r0, r6
 2551              	.LVL241:
1737:main.c        **** 						send_alarm_info(EnterGuide_State);
 2552              		.loc 1 1737 0
 2553 005c 1E72     		strb	r6, [r3, #8]
 2554              		.loc 1 1738 0
 2555 005e FFF7FEFF 		bl	send_alarm_info
 2556              	.LVL242:
1739:main.c        **** 						FireCheck_time = 0;
 2557              		.loc 1 1739 0
 2558 0062 0023     		movs	r3, #0
 2559 0064 2B60     		str	r3, [r5]
1740:main.c        **** 						if (firealarm_flag == 0)
 2560              		.loc 1 1740 0
 2561 0066 2378     		ldrb	r3, [r4]
 2562 0068 002B     		cmp	r3, #0
 2563 006a 38D1     		bne	.L206
1741:main.c        **** 						{
1742:main.c        **** 							firealarm_flag = 1;
 2564              		.loc 1 1742 0
 2565 006c 2670     		strb	r6, [r4]
 2566              	.L210:
1743:main.c        **** 						}
1744:main.c        **** 					}
1745:main.c        **** 				}
1746:main.c        **** 			}
1747:main.c        **** 			
1748:main.c        **** 			if ((FireCheck_time > 15000) && (firealarm_flag == 1))
 2567              		.loc 1 1748 0
 2568 006e 254B     		ldr	r3, .L216+32
 2569 0070 2A68     		ldr	r2, [r5]
 2570 0072 9A42     		cmp	r2, r3
 2571 0074 33D9     		bls	.L206
 2572              		.loc 1 1748 0 is_stmt 0 discriminator 1
 2573 0076 2378     		ldrb	r3, [r4]
 2574 0078 012B     		cmp	r3, #1
 2575 007a 30D1     		bne	.L206
1749:main.c        **** 			{
1750:main.c        **** 				time_tmp = (uint32)RTC_GetUnixTime();
 2576              		.loc 1 1750 0 is_stmt 1
ARM GAS  C:\Users\Administrator\AppData\Local\Temp\ccNQfmEa.s 			page 78


 2577 007c FFF7FEFF 		bl	RTC_GetUnixTime
 2578              	.LVL243:
1751:main.c        **** 				if (time_tmp > 1483203600)
 2579              		.loc 1 1751 0
 2580 0080 1D4B     		ldr	r3, .L216+20
 2581 0082 9842     		cmp	r0, r3
 2582 0084 2BD9     		bls	.L206
1752:main.c        **** 				{
1753:main.c        **** 					if (gprs_state == NORMAL_COMM)
 2583              		.loc 1 1753 0
 2584 0086 1D4B     		ldr	r3, .L216+24
 2585 0088 1D78     		ldrb	r5, [r3]
 2586 008a 052D     		cmp	r5, #5
 2587 008c 27D1     		bne	.L206
1754:main.c        **** 					{
1755:main.c        **** 						LONG2BYTE(time_tmp, arr_time);				
 2588              		.loc 1 1755 0
 2589 008e 01AB     		add	r3, sp, #4
 2590 0090 020E     		lsrs	r2, r0, #24
 2591 0092 1A70     		strb	r2, [r3]
 2592 0094 020C     		lsrs	r2, r0, #16
 2593 0096 5A70     		strb	r2, [r3, #1]
 2594 0098 020A     		lsrs	r2, r0, #8
 2595 009a 9A70     		strb	r2, [r3, #2]
 2596 009c D870     		strb	r0, [r3, #3]
1756:main.c        **** 						memset(&openInfo_FIRE, 0, sizeof(open_door_t));
 2597              		.loc 1 1756 0
 2598 009e 1022     		movs	r2, #16
 2599 00a0 0021     		movs	r1, #0
 2600 00a2 04A8     		add	r0, sp, #16
 2601              	.LVL244:
 2602 00a4 FFF7FEFF 		bl	memset
 2603              	.LVL245:
1757:main.c        **** 						memcpy(openInfo_FIRE.card_uid, card_id, CARD_UID_LEN);
 2604              		.loc 1 1757 0
 2605 00a8 0822     		movs	r2, #8
 2606 00aa 02A9     		add	r1, sp, #8
 2607 00ac 04A8     		add	r0, sp, #16
 2608 00ae FFF7FEFF 		bl	memcpy
 2609              	.LVL246:
1758:main.c        **** 						memcpy(openInfo_FIRE.open_time, arr_time, 4);
 2610              		.loc 1 1758 0
 2611 00b2 019B     		ldr	r3, [sp, #4]
1759:main.c        **** 						memset(arr_time, 0, 4);
1760:main.c        **** 						memcpy(openInfo_FIRE.send_time, arr_time, 4);
1761:main.c        **** 						Write_OpenInfo(&openInfo_FIRE, FIRE_OPEN);
 2612              		.loc 1 1761 0
 2613 00b4 2900     		movs	r1, r5
1758:main.c        **** 						memcpy(openInfo_FIRE.open_time, arr_time, 4);
 2614              		.loc 1 1758 0
 2615 00b6 0693     		str	r3, [sp, #24]
1759:main.c        **** 						memset(arr_time, 0, 4);
 2616              		.loc 1 1759 0
 2617 00b8 0023     		movs	r3, #0
 2618              		.loc 1 1761 0
 2619 00ba 04A8     		add	r0, sp, #16
1759:main.c        **** 						memset(arr_time, 0, 4);
ARM GAS  C:\Users\Administrator\AppData\Local\Temp\ccNQfmEa.s 			page 79


 2620              		.loc 1 1759 0
 2621 00bc 0193     		str	r3, [sp, #4]
1760:main.c        **** 						Write_OpenInfo(&openInfo_FIRE, FIRE_OPEN);
 2622              		.loc 1 1760 0
 2623 00be 0793     		str	r3, [sp, #28]
 2624              		.loc 1 1761 0
 2625 00c0 FFF7FEFF 		bl	Write_OpenInfo
 2626              	.LVL247:
1762:main.c        **** 
1763:main.c        **** 						send_upload_open_info(&openInfo_FIRE, CARD_UID_LEN, FIRE_OPEN);
 2627              		.loc 1 1763 0
 2628 00c4 2A00     		movs	r2, r5
 2629 00c6 0821     		movs	r1, #8
 2630 00c8 04A8     		add	r0, sp, #16
 2631 00ca FFF7FEFF 		bl	send_upload_open_info
 2632              	.LVL248:
1764:main.c        **** 						firealarm_flag = 2;
 2633              		.loc 1 1764 0
 2634 00ce 0223     		movs	r3, #2
 2635 00d0 2370     		strb	r3, [r4]
 2636 00d2 04E0     		b	.L206
 2637              	.L207:
1765:main.c        **** 					}
1766:main.c        **** 				}
1767:main.c        ****  			}
1768:main.c        **** 		}
1769:main.c        **** 		else
1770:main.c        **** 		{
1771:main.c        **** 			FireCheck_time = 0;
 2638              		.loc 1 1771 0
 2639 00d4 0023     		movs	r3, #0
 2640 00d6 2B60     		str	r3, [r5]
1772:main.c        **** 			firealarm_flag = 0;
 2641              		.loc 1 1772 0
 2642 00d8 2370     		strb	r3, [r4]
1773:main.c        **** 			DoorClose();
 2643              		.loc 1 1773 0
 2644 00da FFF7FEFF 		bl	DoorClose
 2645              	.LVL249:
 2646              	.L206:
1774:main.c        **** 		}
1775:main.c        **** 	}
1776:main.c        **** 	else
1777:main.c        **** 	{
1778:main.c        **** 		FireCheck_time = 0;
1779:main.c        **** 		firealarm_flag = 0;
1780:main.c        **** 		DoorClose();
1781:main.c        **** 	}
1782:main.c        **** }
 2647              		.loc 1 1782 0
 2648 00de 08B0     		add	sp, sp, #32
 2649              		@ sp needed
 2650 00e0 70BD     		pop	{r4, r5, r6, pc}
 2651              	.L217:
 2652 00e2 C046     		.align	2
 2653              	.L216:
 2654 00e4 00000000 		.word	.LANCHOR1
ARM GAS  C:\Users\Administrator\AppData\Local\Temp\ccNQfmEa.s 			page 80


 2655 00e8 00000000 		.word	firealarm_flag
 2656 00ec 00000000 		.word	FireCheck_time
 2657 00f0 88130000 		.word	5000
 2658 00f4 60EA0000 		.word	60000
 2659 00f8 10E46758 		.word	1483203600
 2660 00fc 00000000 		.word	gprs_state
 2661 0100 00000000 		.word	.LANCHOR0
 2662 0104 983A0000 		.word	15000
 2663              		.cfi_endproc
 2664              	.LFE94:
 2665              		.size	FireAlarm_Tick, .-FireAlarm_Tick
 2666              		.section	.text.DefendAlarm_Tick,"ax",%progbits
 2667              		.align	1
 2668              		.global	DefendAlarm_Tick
 2669              		.code	16
 2670              		.thumb_func
 2671              		.type	DefendAlarm_Tick, %function
 2672              	DefendAlarm_Tick:
 2673              	.LFB95:
1783:main.c        **** #endif
1784:main.c        **** 
1785:main.c        **** #if 0	// 之前版本
1786:main.c        **** //*************************************************************************************************
1787:main.c        **** // Function name	: DefendAlarm_Tick
1788:main.c        **** // Description		: 防撬报警的处理
1789:main.c        **** // Parameter		: none
1790:main.c        **** // Return			: none
1791:main.c        **** //-------------------------------------------------------------------------------------------------
1792:main.c        **** // Info				: 
1793:main.c        **** //*************************************************************************************************
1794:main.c        **** void DefendAlarm_Tick(void)
1795:main.c        **** {
1796:main.c        **** 	//if ((0 == DEFEND_ALARM_Read()) && (cur_time > next_gprs_upload_time))
1797:main.c        **** 	if (0 == DEFEND_ALARM_Read())
1798:main.c        **** 	{
1799:main.c        **** 		delay_with_ble(20);
1800:main.c        **** 		if (0 == DEFEND_ALARM_Read())
1801:main.c        **** 		{
1802:main.c        **** 			if (gprs_state == NORMAL_COMM)
1803:main.c        **** 			{
1804:main.c        **** 
1805:main.c        **** 				EnterGuide_State = ALARM_Destroy;
1806:main.c        **** 				send_alarm_info(EnterGuide_State);
1807:main.c        **** 				next_gprs_upload_time = cur_time + 10;
1808:main.c        **** 			}
1809:main.c        **** 		}
1810:main.c        **** 	}
1811:main.c        **** }
1812:main.c        **** #endif
1813:main.c        **** 
1814:main.c        **** #if DefendAlarm_Open
1815:main.c        **** //*************************************************************************************************
1816:main.c        **** // Function name	: DefendAlarm_Tick
1817:main.c        **** // Description		: 防撬报警的处理
1818:main.c        **** // Parameter		: none
1819:main.c        **** // Return			: none
1820:main.c        **** //-------------------------------------------------------------------------------------------------
ARM GAS  C:\Users\Administrator\AppData\Local\Temp\ccNQfmEa.s 			page 81


1821:main.c        **** // Info				: 只是上报一次，装回撤销报警
1822:main.c        **** //*************************************************************************************************
1823:main.c        **** void DefendAlarm_Tick(void)
1824:main.c        **** {
 2674              		.loc 1 1824 0
 2675              		.cfi_startproc
 2676              		@ args = 0, pretend = 0, frame = 0
 2677              		@ frame_needed = 0, uses_anonymous_args = 0
 2678              	.LVL250:
 2679 0000 10B5     		push	{r4, lr}
 2680              		.cfi_def_cfa_offset 8
 2681              		.cfi_offset 4, -8
 2682              		.cfi_offset 14, -4
1825:main.c        **** 	uint32 time_tmp= 0;
1826:main.c        **** 	
1827:main.c        **** 	if (0 == DEFEND_ALARM_Read())
 2683              		.loc 1 1827 0
 2684 0002 FFF7FEFF 		bl	DEFEND_ALARM_Read
 2685              	.LVL251:
 2686 0006 0028     		cmp	r0, #0
 2687 0008 29D1     		bne	.L219
1828:main.c        **** 	{
1829:main.c        **** 		delay_with_ble(20);
 2688              		.loc 1 1829 0
 2689 000a 1430     		adds	r0, r0, #20
 2690 000c FFF7FEFF 		bl	delay_with_ble
 2691              	.LVL252:
1830:main.c        **** 		if (0 == DEFEND_ALARM_Read())
 2692              		.loc 1 1830 0
 2693 0010 FFF7FEFF 		bl	DEFEND_ALARM_Read
 2694              	.LVL253:
 2695 0014 0028     		cmp	r0, #0
 2696 0016 25D1     		bne	.L218
1831:main.c        **** 		{
1832:main.c        ****             if ((gprs_state != UPDATE_CONNECT) && (gprs_state != WAIT_UPDATE) && 
 2697              		.loc 1 1832 0
 2698 0018 134C     		ldr	r4, .L224
 2699 001a 2378     		ldrb	r3, [r4]
 2700 001c 093B     		subs	r3, r3, #9
 2701 001e 022B     		cmp	r3, #2
 2702 0020 09D9     		bls	.L222
1833:main.c        ****                 (gprs_state != UPDATE_FINISH))
1834:main.c        ****             {
1835:main.c        ****                 if (defendalarm_time > 2000)
 2703              		.loc 1 1835 0
 2704 0022 FA22     		movs	r2, #250
 2705 0024 114B     		ldr	r3, .L224+4
 2706 0026 D200     		lsls	r2, r2, #3
 2707 0028 1968     		ldr	r1, [r3]
 2708 002a 9142     		cmp	r1, r2
 2709 002c 03D9     		bls	.L222
1836:main.c        ****     			{
1837:main.c        ****     				defendalarm_time = 0;
 2710              		.loc 1 1837 0
 2711 002e 1860     		str	r0, [r3]
1838:main.c        ****     				VoicePlay((uint8)Sound_DEFENDALRM);				// 若拆锁 声音一直响                //
 2712              		.loc 1 1838 0
ARM GAS  C:\Users\Administrator\AppData\Local\Temp\ccNQfmEa.s 			page 82


 2713 0030 1330     		adds	r0, r0, #19
 2714 0032 FFF7FEFF 		bl	VoicePlay
 2715              	.LVL254:
 2716              	.L222:
1839:main.c        ****     			}
1840:main.c        ****             }
1841:main.c        ****             
1842:main.c        **** 			time_tmp = (uint32)RTC_GetUnixTime();
 2717              		.loc 1 1842 0
 2718 0036 FFF7FEFF 		bl	RTC_GetUnixTime
 2719              	.LVL255:
1843:main.c        **** 			if (time_tmp > 1483203600)
 2720              		.loc 1 1843 0
 2721 003a 0D4B     		ldr	r3, .L224+8
 2722 003c 9842     		cmp	r0, r3
 2723 003e 11D9     		bls	.L218
1844:main.c        **** 			{
1845:main.c        **** 				if ((next_defend_flag == 0) && (gprs_state == NORMAL_COMM))
 2724              		.loc 1 1845 0
 2725 0040 0C4B     		ldr	r3, .L224+12
 2726 0042 1A78     		ldrb	r2, [r3]
 2727 0044 002A     		cmp	r2, #0
 2728 0046 0DD1     		bne	.L218
 2729              		.loc 1 1845 0 is_stmt 0 discriminator 1
 2730 0048 2278     		ldrb	r2, [r4]
 2731 004a 052A     		cmp	r2, #5
 2732 004c 0AD1     		bne	.L218
 2733              	.LBB60:
 2734              	.LBB61:
1846:main.c        **** 				{
1847:main.c        **** 					// 报一次
1848:main.c        **** 					next_defend_flag = 1;						    // 上报服务器只是上报一次           //
1849:main.c        **** 					EnterGuide_State = ALARM_Destroy;
 2735              		.loc 1 1849 0 is_stmt 1
 2736 004e 0220     		movs	r0, #2
 2737              	.LVL256:
1848:main.c        **** 					EnterGuide_State = ALARM_Destroy;
 2738              		.loc 1 1848 0
 2739 0050 043A     		subs	r2, r2, #4
 2740 0052 1A70     		strb	r2, [r3]
 2741              		.loc 1 1849 0
 2742 0054 084B     		ldr	r3, .L224+16
 2743 0056 1872     		strb	r0, [r3, #8]
1850:main.c        **** 					send_alarm_info(EnterGuide_State);
 2744              		.loc 1 1850 0
 2745 0058 FFF7FEFF 		bl	send_alarm_info
 2746              	.LVL257:
 2747 005c 02E0     		b	.L218
 2748              	.LVL258:
 2749              	.L219:
 2750              	.LBE61:
 2751              	.LBE60:
1851:main.c        **** 				}
1852:main.c        **** 			}
1853:main.c        **** 		}
1854:main.c        **** 	}
1855:main.c        **** 	else
ARM GAS  C:\Users\Administrator\AppData\Local\Temp\ccNQfmEa.s 			page 83


1856:main.c        **** 	{
1857:main.c        **** 		next_defend_flag = 0;								        // 正常了 说明锁装回 恢复标志位     //
 2752              		.loc 1 1857 0
 2753 005e 0022     		movs	r2, #0
 2754 0060 044B     		ldr	r3, .L224+12
 2755 0062 1A70     		strb	r2, [r3]
 2756              	.LVL259:
 2757              	.L218:
1858:main.c        **** 	}
1859:main.c        **** }
 2758              		.loc 1 1859 0
 2759              		@ sp needed
 2760 0064 10BD     		pop	{r4, pc}
 2761              	.L225:
 2762 0066 C046     		.align	2
 2763              	.L224:
 2764 0068 00000000 		.word	gprs_state
 2765 006c 00000000 		.word	defendalarm_time
 2766 0070 10E46758 		.word	1483203600
 2767 0074 00000000 		.word	next_defend_flag
 2768 0078 00000000 		.word	.LANCHOR0
 2769              		.cfi_endproc
 2770              	.LFE95:
 2771              		.size	DefendAlarm_Tick, .-DefendAlarm_Tick
 2772              		.section	.text.Defend_Tick,"ax",%progbits
 2773              		.align	1
 2774              		.global	Defend_Tick
 2775              		.code	16
 2776              		.thumb_func
 2777              		.type	Defend_Tick, %function
 2778              	Defend_Tick:
 2779              	.LFB96:
1860:main.c        **** 
1861:main.c        **** //*************************************************************************************************
1862:main.c        **** // Function name	: Defend_Tick
1863:main.c        **** // Description		: 防撬报警在未联网时的处理
1864:main.c        **** // Parameter		: none
1865:main.c        **** // Return			: none
1866:main.c        **** //-------------------------------------------------------------------------------------------------
1867:main.c        **** // Info				: 断网期间不上报
1868:main.c        **** //*************************************************************************************************
1869:main.c        **** void Defend_Tick(void)
1870:main.c        **** {
 2780              		.loc 1 1870 0
 2781              		.cfi_startproc
 2782              		@ args = 0, pretend = 0, frame = 0
 2783              		@ frame_needed = 0, uses_anonymous_args = 0
 2784 0000 10B5     		push	{r4, lr}
 2785              		.cfi_def_cfa_offset 8
 2786              		.cfi_offset 4, -8
 2787              		.cfi_offset 14, -4
1871:main.c        ****     if (Code_Action_flag == 0)
 2788              		.loc 1 1871 0
 2789 0002 0D4B     		ldr	r3, .L230
 2790 0004 5B7B     		ldrb	r3, [r3, #13]
 2791 0006 002B     		cmp	r3, #0
 2792 0008 14D1     		bne	.L226
ARM GAS  C:\Users\Administrator\AppData\Local\Temp\ccNQfmEa.s 			page 84


1872:main.c        ****     {
1873:main.c        ****         if (0 == DEFEND_ALARM_Read())
 2793              		.loc 1 1873 0
 2794 000a FFF7FEFF 		bl	DEFEND_ALARM_Read
 2795              	.LVL260:
 2796 000e 0028     		cmp	r0, #0
 2797 0010 10D1     		bne	.L226
1874:main.c        **** 	    {
1875:main.c        **** 		    delay_with_ble(20);
 2798              		.loc 1 1875 0
 2799 0012 1430     		adds	r0, r0, #20
 2800 0014 FFF7FEFF 		bl	delay_with_ble
 2801              	.LVL261:
1876:main.c        **** 		    if (0 == DEFEND_ALARM_Read())
 2802              		.loc 1 1876 0
 2803 0018 FFF7FEFF 		bl	DEFEND_ALARM_Read
 2804              	.LVL262:
 2805 001c 0028     		cmp	r0, #0
 2806 001e 09D1     		bne	.L226
1877:main.c        ****             {
1878:main.c        ****                 if (defendalarm_time > 2000)
 2807              		.loc 1 1878 0
 2808 0020 FA22     		movs	r2, #250
 2809 0022 064B     		ldr	r3, .L230+4
 2810 0024 D200     		lsls	r2, r2, #3
 2811 0026 1968     		ldr	r1, [r3]
 2812 0028 9142     		cmp	r1, r2
 2813 002a 03D9     		bls	.L226
 2814              	.LBB64:
 2815              	.LBB65:
1879:main.c        ****     			{
1880:main.c        ****     				defendalarm_time = 0;
 2816              		.loc 1 1880 0
 2817 002c 1860     		str	r0, [r3]
1881:main.c        **** 				    VoicePlay((uint8)Sound_DEFENDALRM);				// 若拆锁 声音一直响 
 2818              		.loc 1 1881 0
 2819 002e 1330     		adds	r0, r0, #19
 2820 0030 FFF7FEFF 		bl	VoicePlay
 2821              	.LVL263:
 2822              	.L226:
 2823              	.LBE65:
 2824              	.LBE64:
1882:main.c        ****                 }
1883:main.c        ****             }
1884:main.c        ****         }
1885:main.c        ****     }
1886:main.c        **** }
 2825              		.loc 1 1886 0
 2826              		@ sp needed
 2827 0034 10BD     		pop	{r4, pc}
 2828              	.L231:
 2829 0036 C046     		.align	2
 2830              	.L230:
 2831 0038 00000000 		.word	.LANCHOR0
 2832 003c 00000000 		.word	defendalarm_time
 2833              		.cfi_endproc
 2834              	.LFE96:
ARM GAS  C:\Users\Administrator\AppData\Local\Temp\ccNQfmEa.s 			page 85


 2835              		.size	Defend_Tick, .-Defend_Tick
 2836              		.section	.text.sys_heartbeat,"ax",%progbits
 2837              		.align	1
 2838              		.global	sys_heartbeat
 2839              		.code	16
 2840              		.thumb_func
 2841              		.type	sys_heartbeat, %function
 2842              	sys_heartbeat:
 2843              	.LFB66:
 286:main.c        ****     uint16 i;
 2844              		.loc 1 286 0
 2845              		.cfi_startproc
 2846              		@ args = 0, pretend = 0, frame = 0
 2847              		@ frame_needed = 0, uses_anonymous_args = 0
 2848 0000 10B5     		push	{r4, lr}
 2849              		.cfi_def_cfa_offset 8
 2850              		.cfi_offset 4, -8
 2851              		.cfi_offset 14, -4
 289:main.c        ****     for (i = 0; i < 50; i++)
 2852              		.loc 1 289 0
 2853 0002 FFF7FEFF 		bl	WDT_FeedDog
 2854              	.LVL264:
 2855 0006 3224     		movs	r4, #50
 2856              	.LVL265:
 2857              	.L233:
 2858 0008 013C     		subs	r4, r4, #1
 2859              	.LVL266:
 2860 000a A4B2     		uxth	r4, r4
 292:main.c        **** 	}
 2861              		.loc 1 292 0 discriminator 3
 2862 000c FFF7FEFF 		bl	CyBle_ProcessEvents
 2863              	.LVL267:
 290:main.c        ****     {
 2864              		.loc 1 290 0 discriminator 3
 2865 0010 002C     		cmp	r4, #0
 2866 0012 F9D1     		bne	.L233
 296:main.c        ****     {
 2867              		.loc 1 296 0
 2868 0014 084B     		ldr	r3, .L240
 2869 0016 1B78     		ldrb	r3, [r3]
 2870 0018 012B     		cmp	r3, #1
 2871 001a 01D1     		bne	.L234
 298:main.c        ****     }
 2872              		.loc 1 298 0
 2873 001c FFF7FEFF 		bl	Protocol_CmdParse_BLE
 2874              	.LVL268:
 2875              	.L234:
 302:main.c        ****         (gprs_state != WAIT_UPDATE) && (gprs_state != UPDATE_FINISH))
 2876              		.loc 1 302 0
 2877 0020 064B     		ldr	r3, .L240+4
 2878 0022 1B78     		ldrb	r3, [r3]
 2879 0024 052B     		cmp	r3, #5
 2880 0026 06D0     		beq	.L232
 302:main.c        ****         (gprs_state != WAIT_UPDATE) && (gprs_state != UPDATE_FINISH))
 2881              		.loc 1 302 0 is_stmt 0 discriminator 1
 2882 0028 093B     		subs	r3, r3, #9
 2883 002a 022B     		cmp	r3, #2
ARM GAS  C:\Users\Administrator\AppData\Local\Temp\ccNQfmEa.s 			page 86


 2884 002c 03D9     		bls	.L232
 305:main.c        ****         Defend_Tick();
 2885              		.loc 1 305 0 is_stmt 1
 2886 002e FFF7FEFF 		bl	CARD_Tick
 2887              	.LVL269:
 306:main.c        ****     }
 2888              		.loc 1 306 0
 2889 0032 FFF7FEFF 		bl	Defend_Tick
 2890              	.LVL270:
 2891              	.L232:
 308:main.c        **** 
 2892              		.loc 1 308 0
 2893              		@ sp needed
 2894 0036 10BD     		pop	{r4, pc}
 2895              	.L241:
 2896              		.align	2
 2897              	.L240:
 2898 0038 00000000 		.word	BleCmdValidFlag
 2899 003c 00000000 		.word	gprs_state
 2900              		.cfi_endproc
 2901              	.LFE66:
 2902              		.size	sys_heartbeat, .-sys_heartbeat
 2903              		.section	.text.MgCheck_Tick,"ax",%progbits
 2904              		.align	1
 2905              		.global	MgCheck_Tick
 2906              		.code	16
 2907              		.thumb_func
 2908              		.type	MgCheck_Tick, %function
 2909              	MgCheck_Tick:
 2910              	.LFB97:
1887:main.c        **** #endif
1888:main.c        **** 
1889:main.c        **** #if MgCheck_Open
1890:main.c        **** //*************************************************************************************************
1891:main.c        **** // Function name	: MgCheck_Tick
1892:main.c        **** // Description		: 门磁检测报警的处理
1893:main.c        **** // Parameter		: none
1894:main.c        **** // Return			: none
1895:main.c        **** //-------------------------------------------------------------------------------------------------
1896:main.c        **** // Info				: 如果门一直开着，每15分钟上报一次.
1897:main.c        **** //*************************************************************************************************
1898:main.c        **** void MgCheck_Tick(void)
1899:main.c        **** {
 2911              		.loc 1 1899 0
 2912              		.cfi_startproc
 2913              		@ args = 0, pretend = 0, frame = 0
 2914              		@ frame_needed = 0, uses_anonymous_args = 0
 2915              	.LVL271:
 2916 0000 10B5     		push	{r4, lr}
 2917              		.cfi_def_cfa_offset 8
 2918              		.cfi_offset 4, -8
 2919              		.cfi_offset 14, -4
1900:main.c        **** 	uint32 time_tmp = 0;
1901:main.c        **** 	
1902:main.c        **** 	if (DoorOpened == GetDoorState())
 2920              		.loc 1 1902 0
 2921 0002 FFF7FEFF 		bl	GetDoorState
ARM GAS  C:\Users\Administrator\AppData\Local\Temp\ccNQfmEa.s 			page 87


 2922              	.LVL272:
 2923 0006 0F4C     		ldr	r4, .L247
 2924 0008 0128     		cmp	r0, #1
 2925 000a 18D1     		bne	.L243
1903:main.c        **** 	{
1904:main.c        **** 		delay_with_ble(20);
 2926              		.loc 1 1904 0
 2927 000c 1330     		adds	r0, r0, #19
 2928 000e FFF7FEFF 		bl	delay_with_ble
 2929              	.LVL273:
1905:main.c        **** 		if (DoorOpened == GetDoorState())
 2930              		.loc 1 1905 0
 2931 0012 FFF7FEFF 		bl	GetDoorState
 2932              	.LVL274:
 2933 0016 0128     		cmp	r0, #1
 2934 0018 11D1     		bne	.L243
1906:main.c        **** 		{
1907:main.c        **** 			if (MgCheck_time > 900000)
 2935              		.loc 1 1907 0
 2936 001a 0B4B     		ldr	r3, .L247+4
 2937 001c 2268     		ldr	r2, [r4]
 2938 001e 9A42     		cmp	r2, r3
 2939 0020 0FD9     		bls	.L242
1908:main.c        **** 			{
1909:main.c        **** 				time_tmp = (uint32)RTC_GetUnixTime();
 2940              		.loc 1 1909 0
 2941 0022 FFF7FEFF 		bl	RTC_GetUnixTime
 2942              	.LVL275:
1910:main.c        **** 				if (time_tmp > 1483203600)
 2943              		.loc 1 1910 0
 2944 0026 094B     		ldr	r3, .L247+8
 2945 0028 9842     		cmp	r0, r3
 2946 002a 0AD9     		bls	.L242
1911:main.c        **** 				{
1912:main.c        **** 					if (gprs_state == NORMAL_COMM)
 2947              		.loc 1 1912 0
 2948 002c 084B     		ldr	r3, .L247+12
 2949 002e 1B78     		ldrb	r3, [r3]
 2950 0030 052B     		cmp	r3, #5
 2951 0032 06D1     		bne	.L242
 2952              	.LBB68:
 2953              	.LBB69:
1913:main.c        **** 					{
1914:main.c        **** 						EnterGuide_State = ALARM_ErrDoorState;		// 门状态异常     					//
 2954              		.loc 1 1914 0
 2955 0034 0420     		movs	r0, #4
 2956              	.LVL276:
 2957 0036 074B     		ldr	r3, .L247+16
 2958 0038 1872     		strb	r0, [r3, #8]
1915:main.c        **** 						send_alarm_info(EnterGuide_State);
 2959              		.loc 1 1915 0
 2960 003a FFF7FEFF 		bl	send_alarm_info
 2961              	.LVL277:
 2962              	.L243:
 2963              	.LBE69:
 2964              	.LBE68:
1916:main.c        **** 						MgCheck_time = 0;
ARM GAS  C:\Users\Administrator\AppData\Local\Temp\ccNQfmEa.s 			page 88


1917:main.c        **** 					}
1918:main.c        **** 				}
1919:main.c        **** 			}
1920:main.c        **** 		}
1921:main.c        **** 		else
1922:main.c        **** 		{
1923:main.c        **** 			MgCheck_time = 0;
 2965              		.loc 1 1923 0
 2966 003e 0023     		movs	r3, #0
 2967 0040 2360     		str	r3, [r4]
 2968              	.L242:
1924:main.c        **** 		}
1925:main.c        **** 	}
1926:main.c        **** 	else
1927:main.c        **** 	{
1928:main.c        **** 		MgCheck_time = 0;
1929:main.c        **** 	}
1930:main.c        **** }
 2969              		.loc 1 1930 0
 2970              		@ sp needed
 2971 0042 10BD     		pop	{r4, pc}
 2972              	.L248:
 2973              		.align	2
 2974              	.L247:
 2975 0044 00000000 		.word	MgCheck_time
 2976 0048 A0BB0D00 		.word	900000
 2977 004c 10E46758 		.word	1483203600
 2978 0050 00000000 		.word	gprs_state
 2979 0054 00000000 		.word	.LANCHOR0
 2980              		.cfi_endproc
 2981              	.LFE97:
 2982              		.size	MgCheck_Tick, .-MgCheck_Tick
 2983              		.section	.text.PowerOnCheck_Tick,"ax",%progbits
 2984              		.align	1
 2985              		.global	PowerOnCheck_Tick
 2986              		.code	16
 2987              		.thumb_func
 2988              		.type	PowerOnCheck_Tick, %function
 2989              	PowerOnCheck_Tick:
 2990              	.LFB98:
1931:main.c        **** 
1932:main.c        **** #endif
1933:main.c        **** 
1934:main.c        **** #if PowerOnCheck_Open
1935:main.c        **** //*************************************************************************************************
1936:main.c        **** // Function name	: PowerOnCheck_Tick
1937:main.c        **** // Description		: 上电报警
1938:main.c        **** // Parameter		: none
1939:main.c        **** // Return			: none
1940:main.c        **** //-------------------------------------------------------------------------------------------------
1941:main.c        **** // Info				: 联网上报一次
1942:main.c        **** //*************************************************************************************************
1943:main.c        **** void PowerOnCheck_Tick(void)
1944:main.c        **** {
 2991              		.loc 1 1944 0
 2992              		.cfi_startproc
 2993              		@ args = 0, pretend = 0, frame = 0
ARM GAS  C:\Users\Administrator\AppData\Local\Temp\ccNQfmEa.s 			page 89


 2994              		@ frame_needed = 0, uses_anonymous_args = 0
 2995 0000 10B5     		push	{r4, lr}
 2996              		.cfi_def_cfa_offset 8
 2997              		.cfi_offset 4, -8
 2998              		.cfi_offset 14, -4
1945:main.c        **** 	uint32 time_tmp;
1946:main.c        **** 	
1947:main.c        **** 	if(1 == once_poweron_flag)
 2999              		.loc 1 1947 0
 3000 0002 0C4C     		ldr	r4, .L253
 3001 0004 2378     		ldrb	r3, [r4]
 3002 0006 012B     		cmp	r3, #1
 3003 0008 12D1     		bne	.L249
1948:main.c        **** 	{
1949:main.c        **** 		time_tmp = (uint32)RTC_GetUnixTime();
 3004              		.loc 1 1949 0
 3005 000a FFF7FEFF 		bl	RTC_GetUnixTime
 3006              	.LVL278:
1950:main.c        **** 		if (time_tmp > 1483203600)								// 初次上电延迟1h上报
 3007              		.loc 1 1950 0
 3008 000e 0A4B     		ldr	r3, .L253+4
 3009 0010 9842     		cmp	r0, r3
 3010 0012 0DD9     		bls	.L249
1951:main.c        **** 		{
1952:main.c        **** 			if (gprs_state == NORMAL_COMM)						// 上电 联网才上报
 3011              		.loc 1 1952 0
 3012 0014 094B     		ldr	r3, .L253+8
 3013 0016 1B78     		ldrb	r3, [r3]
 3014 0018 052B     		cmp	r3, #5
 3015 001a 09D1     		bne	.L249
 3016              	.LBB72:
 3017              	.LBB73:
1953:main.c        **** 			{
1954:main.c        **** 				EnterGuide_State = ALARM_PowerUp;				// 上电     					
 3018              		.loc 1 1954 0
 3019 001c 0720     		movs	r0, #7
 3020              	.LVL279:
 3021 001e 084B     		ldr	r3, .L253+12
 3022 0020 1872     		strb	r0, [r3, #8]
1955:main.c        **** 				send_alarm_info(EnterGuide_State);	
 3023              		.loc 1 1955 0
 3024 0022 FFF7FEFF 		bl	send_alarm_info
 3025              	.LVL280:
1956:main.c        **** 				once_poweron_flag = 2;							// 锁止上报						
 3026              		.loc 1 1956 0
 3027 0026 0223     		movs	r3, #2
1957:main.c        **** 				FireCheck_time = 0;								// 防止火警马上上报
 3028              		.loc 1 1957 0
 3029 0028 0022     		movs	r2, #0
1956:main.c        **** 				once_poweron_flag = 2;							// 锁止上报						
 3030              		.loc 1 1956 0
 3031 002a 2370     		strb	r3, [r4]
 3032              		.loc 1 1957 0
 3033 002c 054B     		ldr	r3, .L253+16
 3034 002e 1A60     		str	r2, [r3]
 3035              	.L249:
 3036              	.LBE73:
ARM GAS  C:\Users\Administrator\AppData\Local\Temp\ccNQfmEa.s 			page 90


 3037              	.LBE72:
1958:main.c        **** 			}
1959:main.c        **** 		}
1960:main.c        **** 	}
1961:main.c        **** }	
 3038              		.loc 1 1961 0
 3039              		@ sp needed
 3040 0030 10BD     		pop	{r4, pc}
 3041              	.L254:
 3042 0032 C046     		.align	2
 3043              	.L253:
 3044 0034 00000000 		.word	once_poweron_flag
 3045 0038 10E46758 		.word	1483203600
 3046 003c 00000000 		.word	gprs_state
 3047 0040 00000000 		.word	.LANCHOR0
 3048 0044 00000000 		.word	FireCheck_time
 3049              		.cfi_endproc
 3050              	.LFE98:
 3051              		.size	PowerOnCheck_Tick, .-PowerOnCheck_Tick
 3052              		.global	__aeabi_uidivmod
 3053              		.section	.text.UploadOpenInfo_Tick,"ax",%progbits
 3054              		.align	1
 3055              		.global	UploadOpenInfo_Tick
 3056              		.code	16
 3057              		.thumb_func
 3058              		.type	UploadOpenInfo_Tick, %function
 3059              	UploadOpenInfo_Tick:
 3060              	.LFB99:
1962:main.c        **** #endif
1963:main.c        **** 
1964:main.c        **** 
1965:main.c        **** 
1966:main.c        **** 
1967:main.c        **** //*************************************************************************************************
1968:main.c        **** // Function name	: UploadOpenInfo_Tick
1969:main.c        **** // Description		: 开门信息轮训上报处理
1970:main.c        **** // Parameter		: none
1971:main.c        **** // Return			: none
1972:main.c        **** //-------------------------------------------------------------------------------------------------
1973:main.c        **** // Info				: 
1974:main.c        **** //*************************************************************************************************
1975:main.c        **** #if 1
1976:main.c        **** void UploadOpenInfo_Tick(void)
1977:main.c        **** {
 3061              		.loc 1 1977 0
 3062              		.cfi_startproc
 3063              		@ args = 0, pretend = 0, frame = 296
 3064              		@ frame_needed = 0, uses_anonymous_args = 0
 3065              	.LVL281:
1978:main.c        **** 	uint16 OpenQty = 0;
1979:main.c        **** 	uint8  open_flag[256] = {0};
 3066              		.loc 1 1979 0
 3067 0000 8022     		movs	r2, #128
1977:main.c        **** 	uint16 OpenQty = 0;
 3068              		.loc 1 1977 0
 3069 0002 F0B5     		push	{r4, r5, r6, r7, lr}
 3070              		.cfi_def_cfa_offset 20
ARM GAS  C:\Users\Administrator\AppData\Local\Temp\ccNQfmEa.s 			page 91


 3071              		.cfi_offset 4, -20
 3072              		.cfi_offset 5, -16
 3073              		.cfi_offset 6, -12
 3074              		.cfi_offset 7, -8
 3075              		.cfi_offset 14, -4
 3076 0004 CBB0     		sub	sp, sp, #300
 3077              		.cfi_def_cfa_offset 320
 3078              		.loc 1 1979 0
 3079 0006 0AAE     		add	r6, sp, #40
 3080 0008 5200     		lsls	r2, r2, #1
 3081 000a 0021     		movs	r1, #0
 3082 000c 3000     		movs	r0, r6
 3083 000e FFF7FEFF 		bl	memset
 3084              	.LVL282:
1980:main.c        **** 	open_door_t repet_info;
1981:main.c        **** 	uint16 i;
1982:main.c        **** 	
1983:main.c        **** 	//1.定时轮询
1984:main.c        **** 	if (gprs_state == NORMAL_COMM)
 3085              		.loc 1 1984 0
 3086 0012 374B     		ldr	r3, .L278
 3087 0014 1A78     		ldrb	r2, [r3]
 3088 0016 0293     		str	r3, [sp, #8]
 3089 0018 052A     		cmp	r2, #5
 3090 001a 67D1     		bne	.L255
1985:main.c        **** 	{
1986:main.c        **** 		cur_time = (uint32)RTC_GetUnixTime();
 3091              		.loc 1 1986 0
 3092 001c FFF7FEFF 		bl	RTC_GetUnixTime
 3093              	.LVL283:
1987:main.c        **** 		if((cur_time > next_gprs_upload_time) && (uploadpolling_stop != 1))
 3094              		.loc 1 1987 0
 3095 0020 344B     		ldr	r3, .L278+4
1986:main.c        **** 		if((cur_time > next_gprs_upload_time) && (uploadpolling_stop != 1))
 3096              		.loc 1 1986 0
 3097 0022 354A     		ldr	r2, .L278+8
 3098              		.loc 1 1987 0
 3099 0024 1969     		ldr	r1, [r3, #16]
1986:main.c        **** 		if((cur_time > next_gprs_upload_time) && (uploadpolling_stop != 1))
 3100              		.loc 1 1986 0
 3101 0026 1060     		str	r0, [r2]
 3102 0028 0392     		str	r2, [sp, #12]
 3103 002a 0493     		str	r3, [sp, #16]
 3104              		.loc 1 1987 0
 3105 002c 8842     		cmp	r0, r1
 3106 002e 5DD9     		bls	.L255
 3107              		.loc 1 1987 0 is_stmt 0 discriminator 1
 3108 0030 324B     		ldr	r3, .L278+12
 3109 0032 1A78     		ldrb	r2, [r3]
 3110 0034 0593     		str	r3, [sp, #20]
 3111 0036 012A     		cmp	r2, #1
 3112 0038 58D0     		beq	.L255
1988:main.c        **** 		{		
1989:main.c        **** 
1990:main.c        **** 			OpenQty = Read_Open_Qty();
 3113              		.loc 1 1990 0 is_stmt 1
 3114 003a FFF7FEFF 		bl	Read_Open_Qty
ARM GAS  C:\Users\Administrator\AppData\Local\Temp\ccNQfmEa.s 			page 92


 3115              	.LVL284:
1991:main.c        **** 			OpenQty %= MAX_OPEN_NUM; 
1992:main.c        **** 			W25QXX_Read(open_flag, (OPEN_FLAG_BASE + openinfopage_offset*256), 256);
 3116              		.loc 1 1992 0
 3117 003e 8022     		movs	r2, #128
 3118 0040 2F4D     		ldr	r5, .L278+16
1990:main.c        **** 			OpenQty %= MAX_OPEN_NUM; 
 3119              		.loc 1 1990 0
 3120 0042 0190     		str	r0, [sp, #4]
 3121              	.LVL285:
 3122              		.loc 1 1992 0
 3123 0044 2988     		ldrh	r1, [r5]
 3124 0046 5200     		lsls	r2, r2, #1
 3125 0048 1A31     		adds	r1, r1, #26
 3126 004a 0902     		lsls	r1, r1, #8
 3127 004c 3000     		movs	r0, r6
 3128 004e FFF7FEFF 		bl	W25QXX_Read
 3129              	.LVL286:
1993:main.c        **** 			for(i = 0; i < 256; i++)
 3130              		.loc 1 1993 0
 3131 0052 8023     		movs	r3, #128
1992:main.c        **** 			for(i = 0; i < 256; i++)
 3132              		.loc 1 1992 0
 3133 0054 0024     		movs	r4, #0
 3134 0056 2F00     		movs	r7, r5
 3135              		.loc 1 1993 0
 3136 0058 5B00     		lsls	r3, r3, #1
 3137              	.LVL287:
 3138              	.L260:
1994:main.c        **** 			{
1995:main.c        **** 
1996:main.c        **** 				if((0x80 != (0x80 & open_flag[i])) && (open_flag[i] != 0) && (open_flag[i] != 0Xff))
 3139              		.loc 1 1996 0
 3140 005a 3257     		ldrsb	r2, [r6, r4]
 3141 005c A5B2     		uxth	r5, r4
 3142              	.LVL288:
 3143 005e 002A     		cmp	r2, #0
 3144 0060 16DC     		bgt	.L259
 3145              	.LVL289:
 3146 0062 0134     		adds	r4, r4, #1
 3147              	.LVL290:
1993:main.c        **** 			{
 3148              		.loc 1 1993 0 discriminator 2
 3149 0064 9C42     		cmp	r4, r3
 3150 0066 F8D1     		bne	.L260
1991:main.c        **** 			W25QXX_Read(open_flag, (OPEN_FLAG_BASE + openinfopage_offset*256), 256);
 3151              		.loc 1 1991 0
 3152 0068 2649     		ldr	r1, .L278+20
 3153 006a 0198     		ldr	r0, [sp, #4]
 3154 006c FFF7FEFF 		bl	__aeabi_uidivmod
 3155              	.LVL291:
 3156 0070 89B2     		uxth	r1, r1
1997:main.c        **** 					break;
1998:main.c        **** 			}
1999:main.c        **** 			DBG_SOFT_PutStr("\n after find loop,i = ");
2000:main.c        **** 			DBG_SOFT_PrintfHex(&i,1,16);		
2001:main.c        **** 			
ARM GAS  C:\Users\Administrator\AppData\Local\Temp\ccNQfmEa.s 			page 93


2002:main.c        **** 			if(i == 256)
2003:main.c        **** 			{
2004:main.c        **** 				if((openinfopage_offset + 1) < (OpenQty/256 + (OpenQty%256 ? 1:0)))
 3157              		.loc 1 2004 0
 3158 0072 CAB2     		uxtb	r2, r1
 3159 0074 501E     		subs	r0, r2, #1
 3160 0076 8241     		sbcs	r2, r2, r0
 3161 0078 3B88     		ldrh	r3, [r7]
 3162 007a 090A     		lsrs	r1, r1, #8
 3163 007c 0133     		adds	r3, r3, #1
 3164 007e 5118     		adds	r1, r2, r1
 3165 0080 8B42     		cmp	r3, r1
 3166 0082 01DA     		bge	.L277
2005:main.c        **** 					openinfopage_offset++;								//非最后一页
 3167              		.loc 1 2005 0
 3168 0084 3B80     		strh	r3, [r7]
 3169 0086 29E0     		b	.L262
 3170              	.L277:
2006:main.c        **** 				else
2007:main.c        **** 				{
2008:main.c        **** 					uploadpolling_stop = 1;
 3171              		.loc 1 2008 0
 3172 0088 0123     		movs	r3, #1
 3173 008a 059A     		ldr	r2, [sp, #20]
 3174 008c 1370     		strb	r3, [r2]
 3175 008e 25E0     		b	.L262
 3176              	.LVL292:
 3177              	.L259:
2009:main.c        **** 					DBG_SOFT_PutStr("\npolling_stop: ");
2010:main.c        **** 					DBG_SOFT_PrintfHex(&uploadpolling_stop,1,16);
2011:main.c        **** 				}
2012:main.c        **** 				DBG_SOFT_PutStr("\nsend_upload_open_info loop,page_offset= ");
2013:main.c        **** 			DBG_SOFT_PrintfHex(&openinfopage_offset,1,16);
2014:main.c        **** 			}
2015:main.c        **** 			else
2016:main.c        **** 			{	
2017:main.c        **** 				//==W25QXX_Read((uint8 *)&repet_info, (OPEN_INFO_BASE + i*sizeof(open_door_t)), sizeof(open_doo
2018:main.c        **** 			#if 1
2019:main.c        **** 			if((i == last_index) && (i != 0))
 3178              		.loc 1 2019 0
 3179 0090 1D4B     		ldr	r3, .L278+24
 3180 0092 1A88     		ldrh	r2, [r3]
 3181 0094 AA42     		cmp	r2, r5
 3182 0096 27D1     		bne	.L263
 3183              		.loc 1 2019 0 is_stmt 0 discriminator 1
 3184 0098 002D     		cmp	r5, #0
 3185 009a 25D0     		beq	.L263
2020:main.c        **** 			{
2021:main.c        **** 				uploadflag_cnt++;
 3186              		.loc 1 2021 0 is_stmt 1
 3187 009c 1B4F     		ldr	r7, .L278+28
 3188 009e 3B78     		ldrb	r3, [r7]
 3189 00a0 0133     		adds	r3, r3, #1
 3190 00a2 DBB2     		uxtb	r3, r3
 3191 00a4 3B70     		strb	r3, [r7]
2022:main.c        **** 				if(uploadflag_cnt >= 5)
 3192              		.loc 1 2022 0
ARM GAS  C:\Users\Administrator\AppData\Local\Temp\ccNQfmEa.s 			page 94


 3193 00a6 042B     		cmp	r3, #4
 3194 00a8 09D9     		bls	.L264
2023:main.c        **** 				{
2024:main.c        **** 					DBG_SOFT_PutStr("\nset opendateflag：");
2025:main.c        **** 					DBG_SOFT_PrintfHex((uint8 *)&uploadflag_cnt,1,16);
2026:main.c        **** 					Write_Open_UploadFlag(i + openinfopage_offset*256, TRUE);		// 重复超过5次 置位该位 
 3195              		.loc 1 2026 0
 3196 00aa 154B     		ldr	r3, .L278+16
 3197 00ac 0121     		movs	r1, #1
 3198 00ae 1888     		ldrh	r0, [r3]
 3199 00b0 0002     		lsls	r0, r0, #8
 3200 00b2 2818     		adds	r0, r5, r0
 3201 00b4 80B2     		uxth	r0, r0
 3202 00b6 FFF7FEFF 		bl	Write_Open_UploadFlag
 3203              	.LVL293:
2027:main.c        **** 					uploadflag_cnt = 0;
 3204              		.loc 1 2027 0
 3205 00ba 0023     		movs	r3, #0
 3206 00bc 3B70     		strb	r3, [r7]
 3207              	.L264:
2028:main.c        **** 				}
2029:main.c        **** 			}
2030:main.c        **** 			else
2031:main.c        **** 			{
2032:main.c        **** 				last_index = i;
2033:main.c        **** 			}
2034:main.c        **** 			#endif
2035:main.c        **** 				Read_OpenInfo(i, (open_door_t *)&repet_info);
 3208              		.loc 1 2035 0
 3209 00be 06A9     		add	r1, sp, #24
 3210 00c0 2800     		movs	r0, r5
 3211 00c2 FFF7FEFF 		bl	Read_OpenInfo
 3212              	.LVL294:
2036:main.c        **** 				DBG_SOFT_PutStr("\n repet_info :\n");
2037:main.c        **** 				DBG_SOFT_PrintfHex((uint8 *)&repet_info,sizeof(open_door_t),16);
2038:main.c        **** 				//2.条件上报
2039:main.c        **** 				if (gprs_state == NORMAL_COMM)
 3213              		.loc 1 2039 0
 3214 00c6 029B     		ldr	r3, [sp, #8]
 3215 00c8 1B78     		ldrb	r3, [r3]
 3216 00ca 052B     		cmp	r3, #5
 3217 00cc 06D1     		bne	.L262
2040:main.c        **** 				{	
2041:main.c        **** 					send_upload_open_info(&repet_info, CARD_UID_LEN, (open_flag[i] & 0x7f));
 3218              		.loc 1 2041 0
 3219 00ce 325D     		ldrb	r2, [r6, r4]
 3220 00d0 7A33     		adds	r3, r3, #122
 3221 00d2 1A40     		ands	r2, r3
 3222 00d4 0821     		movs	r1, #8
 3223 00d6 06A8     		add	r0, sp, #24
 3224 00d8 FFF7FEFF 		bl	send_upload_open_info
 3225              	.LVL295:
 3226              	.L262:
2042:main.c        **** 					//next_gprs_upload_time = cur_time + 10;
2043:main.c        **** 				}
2044:main.c        **** 			}
2045:main.c        **** 			next_gprs_upload_time = cur_time + 60;					//轮训一次就加1min间隔 不管是否上报
ARM GAS  C:\Users\Administrator\AppData\Local\Temp\ccNQfmEa.s 			page 95


 3227              		.loc 1 2045 0
 3228 00dc 039B     		ldr	r3, [sp, #12]
 3229 00de 049A     		ldr	r2, [sp, #16]
 3230 00e0 1B68     		ldr	r3, [r3]
 3231 00e2 3C33     		adds	r3, r3, #60
 3232 00e4 1361     		str	r3, [r2, #16]
2046:main.c        **** 		}	
2047:main.c        **** 	}
2048:main.c        **** }
 3233              		.loc 1 2048 0
 3234 00e6 01E0     		b	.L255
 3235              	.LVL296:
 3236              	.L263:
2032:main.c        **** 			}
 3237              		.loc 1 2032 0
 3238 00e8 1D80     		strh	r5, [r3]
 3239 00ea E8E7     		b	.L264
 3240              	.LVL297:
 3241              	.L255:
 3242              		.loc 1 2048 0
 3243 00ec 4BB0     		add	sp, sp, #300
 3244              		@ sp needed
 3245 00ee F0BD     		pop	{r4, r5, r6, r7, pc}
 3246              	.L279:
 3247              		.align	2
 3248              	.L278:
 3249 00f0 00000000 		.word	gprs_state
 3250 00f4 00000000 		.word	.LANCHOR0
 3251 00f8 00000000 		.word	cur_time
 3252 00fc 00000000 		.word	uploadpolling_stop
 3253 0100 00000000 		.word	openinfopage_offset
 3254 0104 88130000 		.word	5000
 3255 0108 00000000 		.word	last_index
 3256 010c 00000000 		.word	uploadflag_cnt
 3257              		.cfi_endproc
 3258              	.LFE99:
 3259              		.size	UploadOpenInfo_Tick, .-UploadOpenInfo_Tick
 3260              		.section	.text.Set_DeviceMacAndName,"ax",%progbits
 3261              		.align	1
 3262              		.global	Set_DeviceMacAndName
 3263              		.code	16
 3264              		.thumb_func
 3265              		.type	Set_DeviceMacAndName, %function
 3266              	Set_DeviceMacAndName:
 3267              	.LFB100:
2049:main.c        **** #endif
2050:main.c        **** 
2051:main.c        **** //*************************************************************************************************
2052:main.c        **** // Function name	: Set_DeviceMacAndName
2053:main.c        **** // Description		: 设置设备的Mac和Name
2054:main.c        **** // Parameter		: mac	: mac地址
2055:main.c        **** //					: name	: 广播名称
2056:main.c        **** // Return			: none
2057:main.c        **** //-------------------------------------------------------------------------------------------------
2058:main.c        **** // Info				: 
2059:main.c        **** //*************************************************************************************************
2060:main.c        **** void Set_DeviceMacAndName(char8 *mac, char8 *name)
ARM GAS  C:\Users\Administrator\AppData\Local\Temp\ccNQfmEa.s 			page 96


2061:main.c        **** {
 3268              		.loc 1 2061 0
 3269              		.cfi_startproc
 3270              		@ args = 0, pretend = 0, frame = 16
 3271              		@ frame_needed = 0, uses_anonymous_args = 0
 3272              	.LVL298:
 3273 0000 F0B5     		push	{r4, r5, r6, r7, lr}
 3274              		.cfi_def_cfa_offset 20
 3275              		.cfi_offset 4, -20
 3276              		.cfi_offset 5, -16
 3277              		.cfi_offset 6, -12
 3278              		.cfi_offset 7, -8
 3279              		.cfi_offset 14, -4
 3280 0002 0C00     		movs	r4, r1
2062:main.c        **** 	uint8 i;
2063:main.c        **** 	uint8 local_name[13] = {0x52u, 0x4Bu, 0x4Au, 0x30u, 0x36u,0x30u, 0x31u, 0x30u, 0x31u, 0x30u, 0x31u
 3281              		.loc 1 2063 0
 3282 0004 1749     		ldr	r1, .L291
 3283              	.LVL299:
2061:main.c        **** 	uint8 i;
 3284              		.loc 1 2061 0
 3285 0006 85B0     		sub	sp, sp, #20
 3286              		.cfi_def_cfa_offset 40
2061:main.c        **** 	uint8 i;
 3287              		.loc 1 2061 0
 3288 0008 0500     		movs	r5, r0
 3289              		.loc 1 2063 0
 3290 000a 0D22     		movs	r2, #13
 3291 000c 1031     		adds	r1, r1, #16
 3292 000e 6846     		mov	r0, sp
 3293              	.LVL300:
 3294 0010 FFF7FEFF 		bl	memcpy
 3295              	.LVL301:
 3296 0014 0023     		movs	r3, #0
2064:main.c        **** 	
2065:main.c        **** 	if (NULL != mac)
 3297              		.loc 1 2065 0
 3298 0016 9D42     		cmp	r5, r3
 3299 0018 05D1     		bne	.L284
 3300              	.L285:
 3301 001a 0023     		movs	r3, #0
2066:main.c        **** 	{
2067:main.c        **** 		for (i = 0; i < 6; i++) 
2068:main.c        **** 		{
2069:main.c        **** 			cyBle_deviceAddress.bdAddr[i]   	= mac[5 - i];
2070:main.c        **** 			cyBle_discoveryParam.directAddr[i]	= mac[5 - i];
2071:main.c        **** 		}	
2072:main.c        **** 	}
2073:main.c        **** 	
2074:main.c        **** 	if (NULL != name)
 3302              		.loc 1 2074 0
 3303 001c 9C42     		cmp	r4, r3
 3304 001e 1FD0     		beq	.L280
2075:main.c        **** 	{
2076:main.c        **** 		for (i = 0; i < 10; i++)
2077:main.c        **** 		{	
2078:main.c        **** 			cyBle_discoveryData.advData[8 + i] 	 = name[i];
ARM GAS  C:\Users\Administrator\AppData\Local\Temp\ccNQfmEa.s 			page 97


 3305              		.loc 1 2078 0 discriminator 3
 3306 0020 114D     		ldr	r5, .L291+4
 3307              	.LVL302:
2079:main.c        **** 			cyBle_scanRspData.scanRspData[5 + i] = name[i];
 3308              		.loc 1 2079 0 discriminator 3
 3309 0022 1248     		ldr	r0, .L291+8
 3310 0024 0CE0     		b	.L287
 3311              	.LVL303:
 3312              	.L284:
2069:main.c        **** 			cyBle_discoveryParam.directAddr[i]	= mac[5 - i];
 3313              		.loc 1 2069 0 discriminator 3
 3314 0026 124E     		ldr	r6, .L291+12
2070:main.c        **** 		}	
 3315              		.loc 1 2070 0 discriminator 3
 3316 0028 1248     		ldr	r0, .L291+16
 3317              	.L288:
 3318              	.LVL304:
 3319 002a E918     		adds	r1, r5, r3
2069:main.c        **** 			cyBle_discoveryParam.directAddr[i]	= mac[5 - i];
 3320              		.loc 1 2069 0 discriminator 3
 3321 002c 4F79     		ldrb	r7, [r1, #5]
 3322 002e 5A42     		rsbs	r2, r3, #0
 3323 0030 B754     		strb	r7, [r6, r2]
2070:main.c        **** 		}	
 3324              		.loc 1 2070 0 discriminator 3
 3325 0032 4979     		ldrb	r1, [r1, #5]
 3326 0034 1218     		adds	r2, r2, r0
 3327 0036 013B     		subs	r3, r3, #1
 3328              	.LVL305:
 3329 0038 D171     		strb	r1, [r2, #7]
2067:main.c        **** 		{
 3330              		.loc 1 2067 0 discriminator 3
 3331 003a 9A1D     		adds	r2, r3, #6
 3332 003c F5D1     		bne	.L288
 3333 003e ECE7     		b	.L285
 3334              	.LVL306:
 3335              	.L287:
2078:main.c        **** 			cyBle_scanRspData.scanRspData[5 + i] = name[i];
 3336              		.loc 1 2078 0 discriminator 3
 3337 0040 E15C     		ldrb	r1, [r4, r3]
 3338 0042 5A19     		adds	r2, r3, r5
 3339 0044 1172     		strb	r1, [r2, #8]
 3340              		.loc 1 2079 0 discriminator 3
 3341 0046 E15C     		ldrb	r1, [r4, r3]
 3342 0048 1A18     		adds	r2, r3, r0
 3343 004a 5171     		strb	r1, [r2, #5]
2080:main.c        **** 			local_name[3 + i] = name[i];
 3344              		.loc 1 2080 0 discriminator 3
 3345 004c 1A00     		movs	r2, r3
 3346 004e E15C     		ldrb	r1, [r4, r3]
 3347 0050 6A44     		add	r2, r2, sp
 3348 0052 0133     		adds	r3, r3, #1
 3349              	.LVL307:
 3350 0054 D170     		strb	r1, [r2, #3]
2076:main.c        **** 		{	
 3351              		.loc 1 2076 0 discriminator 3
 3352 0056 0A2B     		cmp	r3, #10
ARM GAS  C:\Users\Administrator\AppData\Local\Temp\ccNQfmEa.s 			page 98


 3353 0058 F2D1     		bne	.L287
2081:main.c        **** 		}
2082:main.c        **** 		CyBle_GapSetLocalName((char8 *)local_name);
 3354              		.loc 1 2082 0
 3355 005a 6846     		mov	r0, sp
 3356 005c FFF7FEFF 		bl	CyBle_GapSetLocalName
 3357              	.LVL308:
 3358              	.L280:
2083:main.c        **** 	}
2084:main.c        **** }
 3359              		.loc 1 2084 0
 3360 0060 05B0     		add	sp, sp, #20
 3361              		@ sp needed
 3362              	.LVL309:
 3363 0062 F0BD     		pop	{r4, r5, r6, r7, pc}
 3364              	.L292:
 3365              		.align	2
 3366              	.L291:
 3367 0064 00000000 		.word	.LANCHOR1
 3368 0068 00000000 		.word	cyBle_discoveryData
 3369 006c 00000000 		.word	cyBle_scanRspData
 3370 0070 00000000 		.word	cyBle_deviceAddress
 3371 0074 00000000 		.word	cyBle_discoveryParam
 3372              		.cfi_endproc
 3373              	.LFE100:
 3374              		.size	Set_DeviceMacAndName, .-Set_DeviceMacAndName
 3375              		.section	.text.mac_conver_name,"ax",%progbits
 3376              		.align	1
 3377              		.global	mac_conver_name
 3378              		.code	16
 3379              		.thumb_func
 3380              		.type	mac_conver_name, %function
 3381              	mac_conver_name:
 3382              	.LFB101:
2085:main.c        **** 
2086:main.c        **** //*************************************************************************************************
2087:main.c        **** // Function name	: mac_conver_name
2088:main.c        **** // Description		: 根据mac生成name
2089:main.c        **** // Parameter		: mac	: mac地址
2090:main.c        **** //					: name	: 广播名称
2091:main.c        **** // Return			: none
2092:main.c        **** //-------------------------------------------------------------------------------------------------
2093:main.c        **** // Info				: 
2094:main.c        **** //*************************************************************************************************
2095:main.c        **** #if 0
2096:main.c        **** void mac_conver_name(uint8 mac[], uint8 name[])
2097:main.c        **** {
2098:main.c        **** 	uint8 i;
2099:main.c        **** 	for (i = 0; i < 4; i++)
2100:main.c        **** 	{
2101:main.c        **** 		name[9 - i*2] 	 = (mac[5 - i] % 0x10) + 0x30;
2102:main.c        **** 		name[9 - i*2 -1] = (mac[5 - i] / 0x10) + 0x30;
2103:main.c        **** 	}
2104:main.c        **** }
2105:main.c        **** #endif
2106:main.c        **** 
2107:main.c        **** void mac_conver_name(uint8 mac[], uint8 name[])
ARM GAS  C:\Users\Administrator\AppData\Local\Temp\ccNQfmEa.s 			page 99


2108:main.c        **** {
 3383              		.loc 1 2108 0
 3384              		.cfi_startproc
 3385              		@ args = 0, pretend = 0, frame = 32
 3386              		@ frame_needed = 0, uses_anonymous_args = 0
 3387              	.LVL310:
 3388 0000 F0B5     		push	{r4, r5, r6, r7, lr}
 3389              		.cfi_def_cfa_offset 20
 3390              		.cfi_offset 4, -20
 3391              		.cfi_offset 5, -16
 3392              		.cfi_offset 6, -12
 3393              		.cfi_offset 7, -8
 3394              		.cfi_offset 14, -4
 3395 0002 89B0     		sub	sp, sp, #36
 3396              		.cfi_def_cfa_offset 56
2109:main.c        **** 	uint8 i;
2110:main.c        **** 	uint8 mac_inflash[6] = {0};
 3397              		.loc 1 2110 0
 3398 0004 04AE     		add	r6, sp, #16
2108:main.c        **** 	uint8 i;
 3399              		.loc 1 2108 0
 3400 0006 0191     		str	r1, [sp, #4]
 3401              		.loc 1 2110 0
 3402 0008 0622     		movs	r2, #6
 3403 000a 0021     		movs	r1, #0
 3404              	.LVL311:
2108:main.c        **** 	uint8 i;
 3405              		.loc 1 2108 0
 3406 000c 0500     		movs	r5, r0
 3407              		.loc 1 2110 0
 3408 000e 3000     		movs	r0, r6
 3409              	.LVL312:
 3410 0010 FFF7FEFF 		bl	memset
 3411              	.LVL313:
2111:main.c        **** 	uint8 flag = 0;
 3412              		.loc 1 2111 0
 3413 0014 0021     		movs	r1, #0
 3414 0016 02AB     		add	r3, sp, #8
2112:main.c        **** 	uint8 tmpmac[8] = {0};
 3415              		.loc 1 2112 0
 3416 0018 06AC     		add	r4, sp, #24
2111:main.c        **** 	uint8 flag = 0;
 3417              		.loc 1 2111 0
 3418 001a DF1D     		adds	r7, r3, #7
 3419              		.loc 1 2112 0
 3420 001c 0822     		movs	r2, #8
 3421 001e 2000     		movs	r0, r4
2111:main.c        **** 	uint8 flag = 0;
 3422              		.loc 1 2111 0
 3423 0020 D971     		strb	r1, [r3, #7]
 3424              		.loc 1 2112 0
 3425 0022 FFF7FEFF 		bl	memset
 3426              	.LVL314:
2113:main.c        **** 	
2114:main.c        **** 	#if 0
2115:main.c        **** 	//0.手动写mac信息入flash的方式  省去蓝牙配置--50套 **云端更新程序要去掉
2116:main.c        **** 	W25QXX_Write(mac, MAC_BASE, (uint16)sizeof(mac_inflash));
ARM GAS  C:\Users\Administrator\AppData\Local\Temp\ccNQfmEa.s 			page 100


2117:main.c        **** 	flag = 1;
2118:main.c        **** 	W25QXX_Write(&flag, MACFLAG_BASE, 1);
2119:main.c        **** 	flag = 0;
2120:main.c        **** 	#endif
2121:main.c        **** 	
2122:main.c        **** 	//1.读flash 有没有生产初始化过
2123:main.c        **** 	W25QXX_Read(&flag, MACFLAG_BASE, 1);
 3427              		.loc 1 2123 0
 3428 0026 0122     		movs	r2, #1
 3429 0028 2149     		ldr	r1, .L300
 3430 002a 3800     		movs	r0, r7
 3431 002c FFF7FEFF 		bl	W25QXX_Read
 3432              	.LVL315:
2124:main.c        **** 	W25QXX_Read(mac_inflash, MAC_BASE, (uint16)sizeof(mac_inflash));
 3433              		.loc 1 2124 0
 3434 0030 C921     		movs	r1, #201
 3435 0032 0622     		movs	r2, #6
 3436 0034 4902     		lsls	r1, r1, #9
 3437 0036 3000     		movs	r0, r6
 3438 0038 FFF7FEFF 		bl	W25QXX_Read
 3439              	.LVL316:
2125:main.c        **** 	if((mac_inflash[0] == 0x06) && (mac_inflash[1] == 0x01) && (flag == 1))
 3440              		.loc 1 2125 0
 3441 003c 3278     		ldrb	r2, [r6]
 3442 003e 062A     		cmp	r2, #6
 3443 0040 09D1     		bne	.L294
 3444              		.loc 1 2125 0 is_stmt 0 discriminator 1
 3445 0042 7378     		ldrb	r3, [r6, #1]
 3446 0044 012B     		cmp	r3, #1
 3447 0046 06D1     		bne	.L294
 3448              		.loc 1 2125 0 discriminator 2
 3449 0048 3B78     		ldrb	r3, [r7]
 3450 004a 012B     		cmp	r3, #1
 3451 004c 03D1     		bne	.L294
2126:main.c        **** 	{
2127:main.c        **** 		memcpy(mac, mac_inflash, sizeof(mac_inflash));
 3452              		.loc 1 2127 0 is_stmt 1
 3453 004e 3100     		movs	r1, r6
 3454 0050 2800     		movs	r0, r5
 3455 0052 FFF7FEFF 		bl	memcpy
 3456              	.LVL317:
 3457              	.L294:
2128:main.c        **** 	}	
2129:main.c        **** 
2130:main.c        **** 	//2.没有 用这里默认的 手动mac(08)
2131:main.c        **** 	#if  0
2132:main.c        **** 	for (i = 0; i < 4; i++)
2133:main.c        **** 	{
2134:main.c        **** 		if((mac[i] >= 0x41)&&(mac[i] <= 0x46))
2135:main.c        **** 		{
2136:main.c        **** 			name[9 - i*2] 	 = (mac[5 - i] % 0x10);
2137:main.c        **** 			name[9 - i*2 -1] = (mac[5 - i] / 0x10);
2138:main.c        **** 		}
2139:main.c        **** 		else
2140:main.c        **** 		{
2141:main.c        **** 			name[9 - i*2] 	 = (mac[5 - i] % 0x10) + 0x30;
2142:main.c        **** 			name[9 - i*2 -1] = (mac[5 - i] / 0x10) + 0x30;
ARM GAS  C:\Users\Administrator\AppData\Local\Temp\ccNQfmEa.s 			page 101


2143:main.c        **** 		}
2144:main.c        **** 	}		
2145:main.c        **** 	#endif
2146:main.c        **** 	tmpmac[7] = mac[5] % 0x10;
 3458              		.loc 1 2146 0
 3459 0056 6A79     		ldrb	r2, [r5, #5]
 3460 0058 0F23     		movs	r3, #15
 3461 005a 1100     		movs	r1, r2
2147:main.c        **** 	tmpmac[6] = mac[5] / 0x10;
 3462              		.loc 1 2147 0
 3463 005c 1209     		lsrs	r2, r2, #4
 3464 005e A271     		strb	r2, [r4, #6]
2148:main.c        **** 	tmpmac[5] = mac[4] % 0x10;
 3465              		.loc 1 2148 0
 3466 0060 2A79     		ldrb	r2, [r5, #4]
2146:main.c        **** 	tmpmac[6] = mac[5] / 0x10;
 3467              		.loc 1 2146 0
 3468 0062 1940     		ands	r1, r3
 3469 0064 E171     		strb	r1, [r4, #7]
 3470              		.loc 1 2148 0
 3471 0066 1100     		movs	r1, r2
2149:main.c        **** 	tmpmac[4] = mac[4] / 0x10;
 3472              		.loc 1 2149 0
 3473 0068 1209     		lsrs	r2, r2, #4
 3474 006a 2271     		strb	r2, [r4, #4]
2150:main.c        **** 	tmpmac[3] = mac[3] % 0x10;
 3475              		.loc 1 2150 0
 3476 006c EA78     		ldrb	r2, [r5, #3]
2148:main.c        **** 	tmpmac[4] = mac[4] / 0x10;
 3477              		.loc 1 2148 0
 3478 006e 1940     		ands	r1, r3
 3479 0070 6171     		strb	r1, [r4, #5]
 3480              		.loc 1 2150 0
 3481 0072 1100     		movs	r1, r2
2151:main.c        **** 	tmpmac[2] = mac[3] / 0x10;
 3482              		.loc 1 2151 0
 3483 0074 1209     		lsrs	r2, r2, #4
 3484 0076 A270     		strb	r2, [r4, #2]
2152:main.c        **** 	tmpmac[1] = mac[2] % 0x10;
 3485              		.loc 1 2152 0
 3486 0078 AA78     		ldrb	r2, [r5, #2]
2150:main.c        **** 	tmpmac[2] = mac[3] / 0x10;
 3487              		.loc 1 2150 0
 3488 007a 1940     		ands	r1, r3
 3489              		.loc 1 2152 0
 3490 007c 1340     		ands	r3, r2
2153:main.c        **** 	tmpmac[0] = mac[2] / 0x10;
 3491              		.loc 1 2153 0
 3492 007e 1209     		lsrs	r2, r2, #4
 3493 0080 2270     		strb	r2, [r4]
 3494              	.LVL318:
 3495 0082 0022     		movs	r2, #0
2150:main.c        **** 	tmpmac[2] = mac[3] / 0x10;
 3496              		.loc 1 2150 0
 3497 0084 E170     		strb	r1, [r4, #3]
2152:main.c        **** 	tmpmac[1] = mac[2] % 0x10;
 3498              		.loc 1 2152 0
ARM GAS  C:\Users\Administrator\AppData\Local\Temp\ccNQfmEa.s 			page 102


 3499 0086 6370     		strb	r3, [r4, #1]
 3500              	.LVL319:
 3501              	.L297:
2154:main.c        **** 	
2155:main.c        **** 	for (i = 0; i < 8; i++)
2156:main.c        **** 	{
2157:main.c        **** 		#if 1
2158:main.c        **** 		if((tmpmac[i] >= 0x0A)&&(tmpmac[i] <=0x0F))
 3502              		.loc 1 2158 0
 3503 0088 A35C     		ldrb	r3, [r4, r2]
 3504 008a 1900     		movs	r1, r3
 3505 008c 0A39     		subs	r1, r1, #10
 3506 008e 0529     		cmp	r1, #5
 3507 0090 03D8     		bhi	.L295
2159:main.c        **** 		{
2160:main.c        **** 			name[i+2] = tmpmac[i] + 0x37;
 3508              		.loc 1 2160 0
 3509 0092 0199     		ldr	r1, [sp, #4]
 3510 0094 3733     		adds	r3, r3, #55
 3511 0096 8918     		adds	r1, r1, r2
 3512 0098 04E0     		b	.L299
 3513              	.L295:
2161:main.c        **** 		}
2162:main.c        **** 		else if((tmpmac[i] >= 0x00)&&(tmpmac[i] <= 0x09))	
 3514              		.loc 1 2162 0
 3515 009a 092B     		cmp	r3, #9
 3516 009c 03D8     		bhi	.L296
2163:main.c        **** 		{
2164:main.c        **** 			name[i+2] = tmpmac[i] + 0x30;
 3517              		.loc 1 2164 0
 3518 009e 0199     		ldr	r1, [sp, #4]
 3519 00a0 3033     		adds	r3, r3, #48
 3520 00a2 8918     		adds	r1, r1, r2
 3521              	.L299:
 3522 00a4 8B70     		strb	r3, [r1, #2]
 3523              	.L296:
 3524              	.LVL320:
 3525 00a6 0132     		adds	r2, r2, #1
 3526              	.LVL321:
2155:main.c        **** 	{
 3527              		.loc 1 2155 0 discriminator 2
 3528 00a8 082A     		cmp	r2, #8
 3529 00aa EDD1     		bne	.L297
2165:main.c        **** 		}
2166:main.c        **** 		#endif
2167:main.c        **** 	}
2168:main.c        **** }
 3530              		.loc 1 2168 0
 3531 00ac 09B0     		add	sp, sp, #36
 3532              		@ sp needed
 3533              	.LVL322:
 3534 00ae F0BD     		pop	{r4, r5, r6, r7, pc}
 3535              	.L301:
 3536              		.align	2
 3537              	.L300:
 3538 00b0 06920100 		.word	102918
 3539              		.cfi_endproc
ARM GAS  C:\Users\Administrator\AppData\Local\Temp\ccNQfmEa.s 			page 103


 3540              	.LFE101:
 3541              		.size	mac_conver_name, .-mac_conver_name
 3542              		.section	.text.startup.main,"ax",%progbits
 3543              		.align	1
 3544              		.global	main
 3545              		.code	16
 3546              		.thumb_func
 3547              		.type	main, %function
 3548              	main:
 3549              	.LFB102:
2169:main.c        **** 
2170:main.c        **** //*************************************************************************************************
2171:main.c        **** // Function name	: main
2172:main.c        **** // Description		: 主函数
2173:main.c        **** // Parameter		: none
2174:main.c        **** // Return			: none
2175:main.c        **** //-------------------------------------------------------------------------------------------------
2176:main.c        **** // Info				: 
2177:main.c        **** //*************************************************************************************************
2178:main.c        **** int main(void)
2179:main.c        **** {
 3550              		.loc 1 2179 0
 3551              		.cfi_startproc
 3552              		@ args = 0, pretend = 0, frame = 24
 3553              		@ frame_needed = 0, uses_anonymous_args = 0
 3554 0000 30B5     		push	{r4, r5, lr}
 3555              		.cfi_def_cfa_offset 12
 3556              		.cfi_offset 4, -12
 3557              		.cfi_offset 5, -8
 3558              		.cfi_offset 14, -4
2180:main.c        **** 	uint8 ret,i,tmp,count;
2181:main.c        **** 	uint8 setmac[]= {0x06, 0x01, 0x88, 0x88, 0x88, 0x88};			// 手动设置mac						//
 3559              		.loc 1 2181 0
 3560 0002 454C     		ldr	r4, .L313
2179:main.c        **** 	uint8 ret,i,tmp,count;
 3561              		.loc 1 2179 0
 3562 0004 87B0     		sub	sp, sp, #28
 3563              		.cfi_def_cfa_offset 40
 3564              		.loc 1 2181 0
 3565 0006 2100     		movs	r1, r4
 3566 0008 0622     		movs	r2, #6
 3567 000a 1D31     		adds	r1, r1, #29
 3568 000c 01A8     		add	r0, sp, #4
 3569 000e FFF7FEFF 		bl	memcpy
 3570              	.LVL323:
2182:main.c        **** 	uint8 setname[] = {0x30u, 0x36u, 
 3571              		.loc 1 2182 0
 3572 0012 2100     		movs	r1, r4
 3573 0014 0A22     		movs	r2, #10
 3574 0016 2331     		adds	r1, r1, #35
 3575 0018 03A8     		add	r0, sp, #12
 3576 001a FFF7FEFF 		bl	memcpy
 3577              	.LVL324:
2183:main.c        **** 						0x30u, 0x31u,
2184:main.c        **** 						0x30u, 0x31u, 
2185:main.c        **** 		 				0x30u, 0x31u, 
2186:main.c        **** 						0x30u, 0x38u};
ARM GAS  C:\Users\Administrator\AppData\Local\Temp\ccNQfmEa.s 			page 104


2187:main.c        **** 	
2188:main.c        **** #if !defined(__ARMCC_VERSION)
2189:main.c        ****     InitializeBootloaderSRAM();
 3578              		.loc 1 2189 0
 3579 001e FFF7FEFF 		bl	InitializeBootloaderSRAM
 3580              	.LVL325:
2190:main.c        **** #endif
2191:main.c        **** 
2192:main.c        **** 	CyGlobalIntEnable;
 3581              		.loc 1 2192 0
 3582              		.syntax divided
 3583              	@ 2192 "main.c" 1
 3584 0022 62B6     		CPSIE   i
 3585              	@ 0 "" 2
2193:main.c        **** 	
2194:main.c        **** 	//提前检测GPRS模块状态 status 并开启						    @0321修复6311模块启动status电平
2195:main.c        **** 	//GPRS_SetON();
2196:main.c        **** 	
2197:main.c        **** 	LED_State = RED;
 3586              		.loc 1 2197 0
 3587              		.thumb
 3588              		.syntax unified
 3589 0024 0125     		movs	r5, #1
 3590 0026 3D4C     		ldr	r4, .L313+4
 3591 0028 6572     		strb	r5, [r4, #9]
 3592              	.LVL326:
 3593              	.LBB76:
 3594              	.LBB77:
 401:main.c        **** 	}
 3595              		.loc 1 401 0
 3596 002a FFF7FEFF 		bl	Led_RedON
 3597              	.LVL327:
 3598              	.LBE77:
 3599              	.LBE76:
2198:main.c        **** 	Led_SetState(LED_State);										// 上电设置状态为红灯亮				// 
2199:main.c        **** 	DoorClose();													// 上电门关闭						//
 3600              		.loc 1 2199 0
 3601 002e FFF7FEFF 		bl	DoorClose
 3602              	.LVL328:
2200:main.c        **** 	
2201:main.c        **** 	WDT_ISR_StartEx(WDT_Interrupt);									// 看门狗中断						//
 3603              		.loc 1 2201 0
 3604 0032 3B48     		ldr	r0, .L313+8
 3605 0034 FFF7FEFF 		bl	WDT_ISR_StartEx
 3606              	.LVL329:
2202:main.c        **** 	WDT_Start();													// 看门狗定时器初始化				//	
 3607              		.loc 1 2202 0
 3608 0038 FFF7FEFF 		bl	WDT_Start
 3609              	.LVL330:
2203:main.c        **** 	
2204:main.c        **** 	UART_433_tx_Write(0);											// 初始GSM串口拉低
 3610              		.loc 1 2204 0
 3611 003c 0020     		movs	r0, #0
 3612 003e FFF7FEFF 		bl	UART_433_tx_Write
 3613              	.LVL331:
2205:main.c        **** 
2206:main.c        **** 	Timer_INT_ISR_StartEx(Timer_InterruptHandler);					// 开启定时器中断					//
ARM GAS  C:\Users\Administrator\AppData\Local\Temp\ccNQfmEa.s 			page 105


 3614              		.loc 1 2206 0
 3615 0042 3848     		ldr	r0, .L313+12
 3616 0044 FFF7FEFF 		bl	Timer_INT_ISR_StartEx
 3617              	.LVL332:
2207:main.c        ****     Timer_100ms_Start();											// 定时器初始化						//
 3618              		.loc 1 2207 0
 3619 0048 FFF7FEFF 		bl	Timer_100ms_Start
 3620              	.LVL333:
2208:main.c        **** 	
2209:main.c        **** 	W25QXX_Init();
 3621              		.loc 1 2209 0
 3622 004c FFF7FEFF 		bl	W25QXX_Init
 3623              	.LVL334:
2210:main.c        **** 	// 获取系统启动原因，检查是否是重新上电 <上电重启 = 0x00>	 										//
2211:main.c        **** 	if (0x10 != CySysGetResetReason(CY_SYS_RESET_WDT | CY_SYS_RESET_PROTFAULT | CY_SYS_RESET_SW))
 3624              		.loc 1 2211 0
 3625 0050 1920     		movs	r0, #25
 3626 0052 FFF7FEFF 		bl	CySysGetResetReason
 3627              	.LVL335:
 3628 0056 1028     		cmp	r0, #16
 3629 0058 1ED0     		beq	.L303
2212:main.c        **** 	{
2213:main.c        **** 		SendMacFlag = 0;
 3630              		.loc 1 2213 0
 3631 005a 0023     		movs	r3, #0
 3632 005c 2375     		strb	r3, [r4, #20]
2214:main.c        **** 		tmp = Read_CenterIpType();
 3633              		.loc 1 2214 0
 3634 005e FFF7FEFF 		bl	Read_CenterIpType
 3635              	.LVL336:
2215:main.c        **** 		if(tmp == 5)
 3636              		.loc 1 2215 0
 3637 0062 0528     		cmp	r0, #5
 3638 0064 01D1     		bne	.L304
2216:main.c        **** 		{
2217:main.c        **** 			
2218:main.c        **** 			VoicePlay((uint8)Sound_SYSTEM_POWER_ON);
 3639              		.loc 1 2218 0
 3640 0066 0730     		adds	r0, r0, #7
 3641              	.LVL337:
 3642 0068 00E0     		b	.L312
 3643              	.LVL338:
 3644              	.L304:
2219:main.c        **** 		}
2220:main.c        **** 		else
2221:main.c        **** 		{
2222:main.c        **** 			VoicePlay((uint8)Sound_SYSTEM_POWER_ON_TEST);
 3645              		.loc 1 2222 0
 3646 006a 1120     		movs	r0, #17
 3647              	.LVL339:
 3648              	.L312:
 3649 006c FFF7FEFF 		bl	VoicePlay
 3650              	.LVL340:
2223:main.c        **** 		}
2224:main.c        **** 		#if 1
2225:main.c        **** 		// 第一次 开启
2226:main.c        **** 		GPRS_PWRKEY_Write(1);
ARM GAS  C:\Users\Administrator\AppData\Local\Temp\ccNQfmEa.s 			page 106


 3651              		.loc 1 2226 0
 3652 0070 0120     		movs	r0, #1
 3653 0072 FFF7FEFF 		bl	GPRS_PWRKEY_Write
 3654              	.LVL341:
 3655 0076 1F25     		movs	r5, #31
 3656              	.LVL342:
 3657              	.L306:
 3658 0078 013D     		subs	r5, r5, #1
 3659              	.LVL343:
2227:main.c        **** 		count = 0;
2228:main.c        **** 		while (count <= 30)
2229:main.c        **** 		{
2230:main.c        **** 			CyDelay(100);
 3660              		.loc 1 2230 0
 3661 007a 6420     		movs	r0, #100
 3662 007c EDB2     		uxtb	r5, r5
 3663 007e FFF7FEFF 		bl	CyDelay
 3664              	.LVL344:
2231:main.c        **** 			count++;
2232:main.c        **** 			WDT_FeedDog();
 3665              		.loc 1 2232 0
 3666 0082 FFF7FEFF 		bl	WDT_FeedDog
 3667              	.LVL345:
2228:main.c        **** 		{
 3668              		.loc 1 2228 0
 3669 0086 002D     		cmp	r5, #0
 3670 0088 F6D1     		bne	.L306
2233:main.c        **** 		}
2234:main.c        **** 		GPRS_PWRKEY_Write(0);
 3671              		.loc 1 2234 0
 3672 008a 2800     		movs	r0, r5
 3673 008c FFF7FEFF 		bl	GPRS_PWRKEY_Write
 3674              	.LVL346:
2235:main.c        **** 		#endif
2236:main.c        **** 		once_poweron_flag = 1;						// 首次上电的情况 启动上电报警功能
 3675              		.loc 1 2236 0
 3676 0090 0122     		movs	r2, #1
 3677 0092 254B     		ldr	r3, .L313+16
 3678 0094 1A70     		strb	r2, [r3]
 3679 0096 00E0     		b	.L307
 3680              	.L303:
2237:main.c        **** 	}
2238:main.c        **** 	else
2239:main.c        **** 	{
2240:main.c        **** 		SendMacFlag = 1;
 3681              		.loc 1 2240 0
 3682 0098 2575     		strb	r5, [r4, #20]
 3683              	.L307:
2241:main.c        **** 	}
2242:main.c        **** 	
2243:main.c        **** 	cur_time = 1483200000;											// 默认将时间设置为2017-1-1 0:0:0	//
 3684              		.loc 1 2243 0
 3685 009a 244B     		ldr	r3, .L313+20
 3686 009c 244D     		ldr	r5, .L313+24
 3687 009e 2B60     		str	r3, [r5]
2244:main.c        **** 	RTC_Start();													// RTC时钟初始化					//
 3688              		.loc 1 2244 0
ARM GAS  C:\Users\Administrator\AppData\Local\Temp\ccNQfmEa.s 			page 107


 3689 00a0 FFF7FEFF 		bl	RTC_Start
 3690              	.LVL347:
2245:main.c        **** 	RTC_SetUnixTime(cur_time);										// 将默认的时间写到RTC中			//
 3691              		.loc 1 2245 0
 3692 00a4 2868     		ldr	r0, [r5]
 3693 00a6 0021     		movs	r1, #0
 3694 00a8 FFF7FEFF 		bl	RTC_SetUnixTime
 3695              	.LVL348:
2246:main.c        **** 	
2247:main.c        **** 	nfc_init();														// 刷卡功能初始化					//
 3696              		.loc 1 2247 0
 3697 00ac FFF7FEFF 		bl	nfc_init
 3698              	.LVL349:
2248:main.c        **** 	mac_conver_name(setmac, setname);
 3699              		.loc 1 2248 0
 3700 00b0 03A9     		add	r1, sp, #12
 3701 00b2 01A8     		add	r0, sp, #4
 3702 00b4 FFF7FEFF 		bl	mac_conver_name
 3703              	.LVL350:
2249:main.c        **** 	Set_DeviceMacAndName((char8 *)setmac, (char8 *)setname);		// 设置mac、name					//
 3704              		.loc 1 2249 0
 3705 00b8 03A9     		add	r1, sp, #12
 3706 00ba 01A8     		add	r0, sp, #4
 3707 00bc FFF7FEFF 		bl	Set_DeviceMacAndName
 3708              	.LVL351:
2250:main.c        **** 	
2251:main.c        **** 	CyBle_Start(AppCallback);										// 开启蓝牙功能						//
 3709              		.loc 1 2251 0
 3710 00c0 1C48     		ldr	r0, .L313+28
 3711 00c2 FFF7FEFF 		bl	CyBle_Start
 3712              	.LVL352:
2252:main.c        **** 	
2253:main.c        **** 	GPRSPowerOn_0321();												// GPRS开机并等初始化完成			//
 3713              		.loc 1 2253 0
 3714 00c6 FFF7FEFF 		bl	GPRSPowerOn_0321
 3715              	.LVL353:
2254:main.c        **** 	ret = GPRS_TestAndWaitCommonOK();								// 测试GPRS AT指令通讯是否正常		//
 3716              		.loc 1 2254 0
 3717 00ca FFF7FEFF 		bl	GPRS_TestAndWaitCommonOK
 3718              	.LVL354:
2255:main.c        **** 	if (ret == TRUE)
 3719              		.loc 1 2255 0
 3720 00ce 0128     		cmp	r0, #1
 3721 00d0 0AD1     		bne	.L308
2256:main.c        **** 	{
2257:main.c        **** 		GPRS_OpenNetworkLED();
 3722              		.loc 1 2257 0
 3723 00d2 FFF7FEFF 		bl	GPRS_OpenNetworkLED
 3724              	.LVL355:
2258:main.c        **** 		
2259:main.c        **** 		ret = GPRS_CheckConnectState();
 3725              		.loc 1 2259 0
 3726 00d6 FFF7FEFF 		bl	GPRS_CheckConnectState
 3727              	.LVL356:
2260:main.c        **** 		if (ret == TRUE)
 3728              		.loc 1 2260 0
 3729 00da 0128     		cmp	r0, #1
ARM GAS  C:\Users\Administrator\AppData\Local\Temp\ccNQfmEa.s 			page 108


 3730 00dc 02D1     		bne	.L309
2261:main.c        **** 		{	
2262:main.c        **** 			GPRS_ClosedConnect();
 3731              		.loc 1 2262 0
 3732 00de FFF7FEFF 		bl	GPRS_ClosedConnect
 3733              	.LVL357:
 3734 00e2 01E0     		b	.L308
 3735              	.LVL358:
 3736              	.L309:
2263:main.c        **** 		}
2264:main.c        **** 		else
2265:main.c        **** 		{
2266:main.c        **** 			GPRS_SetConnectMode();
 3737              		.loc 1 2266 0
 3738 00e4 FFF7FEFF 		bl	GPRS_SetConnectMode
 3739              	.LVL359:
 3740              	.L308:
2267:main.c        **** 		}
2268:main.c        **** 	}
2269:main.c        **** 	#if DBG_SOFT_ENNABLE
2270:main.c        **** 	DBG_SOFT_PutString("BLE SmartGuard Project.\n");					// 初始化完成后，发送Log信息		//
2271:main.c        **** 	DBG_SOFT_PutString("System Version:");								// 版本								//
2272:main.c        **** 	DBG_SOFT_PutHexInt(system_version);
2273:main.c        **** 	DBG_SOFT_PutString("\nProtocl Version:");							// 通讯协议版本，02加密				//
2274:main.c        **** 	DBG_SOFT_PutHexInt(PROTOCOL_VER);
2275:main.c        **** 	#if 1
2276:main.c        **** 		DBG_SOFT_PutString("\nDevice Mac:");
2277:main.c        **** 	for (i = 0; i < 6; i++)
2278:main.c        **** 	{
2279:main.c        **** 		DBG_SOFT_PutHexByte(Mac_Addr[i]);
2280:main.c        **** 		if(i < 5)
2281:main.c        **** 			DBG_SOFT_PutString("-");	
2282:main.c        **** 	}
2283:main.c        **** 	DBG_SOFT_PutString("\n");
2284:main.c        **** 	#endif
2285:main.c        **** 	#endif
2286:main.c        ****     
2287:main.c        **** 	Code_Action_flag = 1;                                               // 程序即将进入主循环
 3741              		.loc 1 2287 0
 3742 00e8 0123     		movs	r3, #1
 3743 00ea 6373     		strb	r3, [r4, #13]
 3744              	.L310:
2288:main.c        **** 	
2289:main.c        ****     while(1) 
2290:main.c        **** 	{
2291:main.c        **** 		BLE_Tick();
 3745              		.loc 1 2291 0 discriminator 1
 3746 00ec FFF7FEFF 		bl	BLE_Tick
 3747              	.LVL360:
2292:main.c        **** 		GPRS_Tick();
 3748              		.loc 1 2292 0 discriminator 1
 3749 00f0 FFF7FEFF 		bl	GPRS_Tick
 3750              	.LVL361:
2293:main.c        **** 		CARD_Tick();
 3751              		.loc 1 2293 0 discriminator 1
 3752 00f4 FFF7FEFF 		bl	CARD_Tick
 3753              	.LVL362:
ARM GAS  C:\Users\Administrator\AppData\Local\Temp\ccNQfmEa.s 			page 109


2294:main.c        **** 		KeyOpen_Tick(); 
 3754              		.loc 1 2294 0 discriminator 1
 3755 00f8 FFF7FEFF 		bl	KeyOpen_Tick
 3756              	.LVL363:
2295:main.c        **** 		
2296:main.c        **** 		DefendAlarm_Tick();												// 防止撬锁 先不开 2018-3-8
 3757              		.loc 1 2296 0 discriminator 1
 3758 00fc FFF7FEFF 		bl	DefendAlarm_Tick
 3759              	.LVL364:
2297:main.c        **** 		MgCheck_Tick();													// 门状态一直开门检测
 3760              		.loc 1 2297 0 discriminator 1
 3761 0100 FFF7FEFF 		bl	MgCheck_Tick
 3762              	.LVL365:
2298:main.c        **** 		PowerOnCheck_Tick();											// 上电报警一次
 3763              		.loc 1 2298 0 discriminator 1
 3764 0104 FFF7FEFF 		bl	PowerOnCheck_Tick
 3765              	.LVL366:
2299:main.c        **** 		FireAlarm_Tick();												// 火警触发一分钟报一次
 3766              		.loc 1 2299 0 discriminator 1
 3767 0108 FFF7FEFF 		bl	FireAlarm_Tick
 3768              	.LVL367:
2300:main.c        **** 		
2301:main.c        **** 		Reboot_Check();
 3769              		.loc 1 2301 0 discriminator 1
 3770 010c FFF7FEFF 		bl	Reboot_Check
 3771              	.LVL368:
2302:main.c        **** 		//--UploadOpenInfo_Tick();
2303:main.c        **** 		Led_SetState(LED_State);
 3772              		.loc 1 2303 0 discriminator 1
 3773 0110 607A     		ldrb	r0, [r4, #9]
 3774 0112 FFF7FEFF 		bl	Led_SetState
 3775              	.LVL369:
 3776 0116 E9E7     		b	.L310
 3777              	.L314:
 3778              		.align	2
 3779              	.L313:
 3780 0118 00000000 		.word	.LANCHOR1
 3781 011c 00000000 		.word	.LANCHOR0
 3782 0120 00000000 		.word	WDT_Interrupt
 3783 0124 00000000 		.word	Timer_InterruptHandler
 3784 0128 00000000 		.word	once_poweron_flag
 3785 012c 00D66758 		.word	1483200000
 3786 0130 00000000 		.word	cur_time
 3787 0134 00000000 		.word	AppCallback
 3788              		.cfi_endproc
 3789              	.LFE102:
 3790              		.size	main, .-main
 3791              		.comm	picc_sak,3,1
 3792              		.comm	picc_uid,15,1
 3793              		.comm	picc_atqa,2,1
 3794              		.comm	ADCResultCenter,1,1
 3795              		.comm	firealarm_flag,1,1
 3796              		.comm	once_poweron_flag,1,1
 3797              		.global	Code_Action_flag
 3798              		.comm	next_defend_flag,1,1
 3799              		.comm	mem_var,4,4
 3800              		.comm	reboot_count,1,1
ARM GAS  C:\Users\Administrator\AppData\Local\Temp\ccNQfmEa.s 			page 110


 3801              		.comm	stop_reboot,1,1
 3802              		.comm	flag_reboot,1,1
 3803              		.comm	Card_ErrCount,1,1
 3804              		.global	CardCheck_CountTime
 3805              		.comm	heartbeat_lasttime,4,4
 3806              		.global	heartbeat_SendCount
 3807              		.global	gprs_operation_ErrCount
 3808              		.global	update_timeout_time
 3809              		.global	update_timeout_count
 3810              		.comm	last_index,2,2
 3811              		.comm	uploadflag_cnt,1,1
 3812              		.comm	FireCheck_time,4,4
 3813              		.comm	MgCheck_time,4,4
 3814              		.comm	defendalarm_time,4,4
 3815              		.comm	last_readcardtime,4,4
 3816              		.comm	next_firealarm_time,4,4
 3817              		.comm	uploadpolling_stop,1,1
 3818              		.comm	openinfopage_offset,2,2
 3819              		.comm	next_keyopen_time,4,4
 3820              		.comm	next_allupload_time,4,4
 3821              		.global	next_gprs_upload_time
 3822              		.comm	next_gprs_operation_time,4,4
 3823              		.comm	next_heartbeat_time,4,4
 3824              		.comm	next_network_time,4,4
 3825              		.comm	cur_time,4,4
 3826              		.comm	BleCmdValidFlag,1,1
 3827              		.comm	BleCmdBuf,1050,1
 3828              		.comm	CurrentDataNum,1,1
 3829              		.comm	CurrentCommandPktTotalSize,2,2
 3830              		.comm	GPRSCmd_buf2,1050,1
 3831              		.comm	GPRSCmd_buf1,1050,1
 3832              		.comm	GPRSCmdParseFlag2,1,1
 3833              		.comm	GPRSCmdParseFlag1,1,1
 3834              		.comm	GPRS_AT_RecFinish,1,1
 3835              		.comm	GPRS_AT_Buf,64,1
 3836              		.comm	recv_timeout,4,4
 3837              		.comm	wait_timeout,4,4
 3838              		.comm	Mac_Addr,6,1
 3839              		.comm	Read_Mac_Flag,1,1
 3840              		.comm	Image_size,4,4
 3841              		.comm	update_offset,4,4
 3842              		.comm	update_page,2,2
 3843              		.comm	update_report,1,1
 3844              		.comm	update_flag,1,1
 3845              		.comm	update_version,2,2
 3846              		.comm	update_port,5,1
 3847              		.comm	update_ip,16,1
 3848              		.comm	pre_port,6,1
 3849              		.comm	pre_ip,200,1
 3850              		.comm	domain,200,1
 3851              		.global	SendMacFlag
 3852              		.global	EnterGuide_State
 3853              		.comm	gprs_state,1,1
 3854              		.global	LED_State
 3855              		.global	system_version
 3856              		.section	.rodata
 3857              		.set	.LANCHOR1,. + 0
ARM GAS  C:\Users\Administrator\AppData\Local\Temp\ccNQfmEa.s 			page 111


 3858              	.LC0:
 3859 0000 FF       		.byte	-1
 3860 0001 FF       		.byte	-1
 3861 0002 FF       		.byte	-1
 3862 0003 FF       		.byte	-1
 3863 0004 FF       		.byte	-1
 3864 0005 FF       		.byte	-1
 3865 0006 FF       		.byte	-1
 3866 0007 02       		.byte	2
 3867              	.LC1:
 3868 0008 FF       		.byte	-1
 3869 0009 FF       		.byte	-1
 3870 000a FF       		.byte	-1
 3871 000b FF       		.byte	-1
 3872 000c FF       		.byte	-1
 3873 000d FF       		.byte	-1
 3874 000e FF       		.byte	-1
 3875 000f 01       		.byte	1
 3876              	.LC2:
 3877 0010 52       		.byte	82
 3878 0011 4B       		.byte	75
 3879 0012 4A       		.byte	74
 3880 0013 30       		.byte	48
 3881 0014 36       		.byte	54
 3882 0015 30       		.byte	48
 3883 0016 31       		.byte	49
 3884 0017 30       		.byte	48
 3885 0018 31       		.byte	49
 3886 0019 30       		.byte	48
 3887 001a 31       		.byte	49
 3888 001b 30       		.byte	48
 3889 001c 31       		.byte	49
 3890              	.LC3:
 3891 001d 06       		.byte	6
 3892 001e 01       		.byte	1
 3893 001f 88       		.byte	-120
 3894 0020 88       		.byte	-120
 3895 0021 88       		.byte	-120
 3896 0022 88       		.byte	-120
 3897              	.LC4:
 3898 0023 30       		.byte	48
 3899 0024 36       		.byte	54
 3900 0025 30       		.byte	48
 3901 0026 31       		.byte	49
 3902 0027 30       		.byte	48
 3903 0028 31       		.byte	49
 3904 0029 30       		.byte	48
 3905 002a 31       		.byte	49
 3906 002b 30       		.byte	48
 3907 002c 38       		.byte	56
 3908              		.data
 3909              		.type	system_version, %object
 3910              		.size	system_version, 1
 3911              	system_version:
 3912 0000 0D       		.byte	13
 3913              		.bss
 3914              		.align	2
ARM GAS  C:\Users\Administrator\AppData\Local\Temp\ccNQfmEa.s 			page 112


 3915              		.set	.LANCHOR0,. + 0
 3916              		.type	CardCheck_CountTime, %object
 3917              		.size	CardCheck_CountTime, 4
 3918              	CardCheck_CountTime:
 3919 0000 00000000 		.space	4
 3920              		.type	update_timeout_time, %object
 3921              		.size	update_timeout_time, 4
 3922              	update_timeout_time:
 3923 0004 00000000 		.space	4
 3924              		.type	EnterGuide_State, %object
 3925              		.size	EnterGuide_State, 1
 3926              	EnterGuide_State:
 3927 0008 00       		.space	1
 3928              		.type	LED_State, %object
 3929              		.size	LED_State, 1
 3930              	LED_State:
 3931 0009 00       		.space	1
 3932              		.type	gprs_operation_ErrCount, %object
 3933              		.size	gprs_operation_ErrCount, 1
 3934              	gprs_operation_ErrCount:
 3935 000a 00       		.space	1
 3936              		.type	heartbeat_SendCount, %object
 3937              		.size	heartbeat_SendCount, 1
 3938              	heartbeat_SendCount:
 3939 000b 00       		.space	1
 3940              		.type	update_timeout_count, %object
 3941              		.size	update_timeout_count, 1
 3942              	update_timeout_count:
 3943 000c 00       		.space	1
 3944              		.type	Code_Action_flag, %object
 3945              		.size	Code_Action_flag, 1
 3946              	Code_Action_flag:
 3947 000d 00       		.space	1
 3948 000e 0000     		.space	2
 3949              		.type	next_gprs_upload_time, %object
 3950              		.size	next_gprs_upload_time, 4
 3951              	next_gprs_upload_time:
 3952 0010 00000000 		.space	4
 3953              		.type	SendMacFlag, %object
 3954              		.size	SendMacFlag, 1
 3955              	SendMacFlag:
 3956 0014 00       		.space	1
 3957              		.text
 3958              	.Letext0:
 3959              		.file 2 "c:\\program files (x86)\\cypress\\psoc creator\\4.1\\psoc creator\\import\\gnu\\arm\\5.4.
 3960              		.file 3 "c:\\program files (x86)\\cypress\\psoc creator\\4.1\\psoc creator\\import\\gnu\\arm\\5.4.
 3961              		.file 4 "Generated_Source\\PSoC4/cytypes.h"
 3962              		.file 5 ".\\Code\\Device\\W25Q80/user_data.h"
 3963              		.file 6 "./OTAMandatory.h"
 3964              		.file 7 "Generated_Source\\PSoC4/RTC.h"
 3965              		.file 8 ".\\Code\\Common/variable.h"
 3966              		.file 9 ".\\Code\\Device\\BLE/Bluetooth.h"
 3967              		.file 10 ".\\Code\\Device\\FM175XX\\LPCD/lpcd_api.h"
 3968              		.file 11 ".\\Code\\Device\\FM175XX\\IOS14443/type_a.h"
 3969              		.file 12 "Generated_Source\\PSoC4/CyLib.h"
 3970              		.file 13 "Generated_Source\\PSoC4/cyPm.h"
 3971              		.file 14 ".\\Code\\Device\\WDT/UserWDT.h"
ARM GAS  C:\Users\Administrator\AppData\Local\Temp\ccNQfmEa.s 			page 113


 3972              		.file 15 ".\\Code\\UserApp\\Protocol/CmdProtocol.h"
 3973              		.file 16 "Generated_Source\\PSoC4/LED_RED.h"
 3974              		.file 17 "Generated_Source\\PSoC4/LED_BLUE.h"
 3975              		.file 18 "Generated_Source\\PSoC4/LED_GREEN.h"
 3976              		.file 19 "Generated_Source\\PSoC4/DOOR_OPEN.h"
 3977              		.file 20 "Generated_Source\\PSoC4/MG_STATE.h"
 3978              		.file 21 "Generated_Source\\PSoC4/GPRS_PWRKEY.h"
 3979              		.file 22 "Generated_Source\\PSoC4/GPRS_STATE.h"
 3980              		.file 23 ".\\Code\\Device\\GPRS/AtProtocol.h"
 3981              		.file 24 "Generated_Source\\PSoC4/cmd433_INT_ISR.h"
 3982              		.file 25 "Generated_Source\\PSoC4/UART_433.h"
 3983              		.file 26 "Generated_Source\\PSoC4/GPRS_RESET.h"
 3984              		.file 27 ".\\Code\\Device\\W25Q80/w25qxx.h"
 3985              		.file 28 "Generated_Source\\PSoC4/Bootloadable.h"
 3986              		.file 29 ".\\Code\\Device\\FM175XX/card.h"
 3987              		.file 30 ".\\Code\\Device\\FM175XX/fm175xx.h"
 3988              		.file 31 ".\\Code\\UserApp\\Voice/voice.h"
 3989              		.file 32 "Generated_Source\\PSoC4/KEY_OPEN.h"
 3990              		.file 33 "Generated_Source\\PSoC4/FIRE_OPEN.h"
 3991              		.file 34 "Generated_Source\\PSoC4/DEFEND_ALARM.h"
 3992              		.file 35 "Generated_Source\\PSoC4/WDT_ISR.h"
 3993              		.file 36 "Generated_Source\\PSoC4/UART_433_tx.h"
 3994              		.file 37 "Generated_Source\\PSoC4/Timer_INT_ISR.h"
 3995              		.file 38 "Generated_Source\\PSoC4/Timer_100ms.h"
 3996              		.section	.debug_info,"",%progbits
 3997              	.Ldebug_info0:
 3998 0000 5E300000 		.4byte	0x305e
 3999 0004 0400     		.2byte	0x4
 4000 0006 00000000 		.4byte	.Ldebug_abbrev0
 4001 000a 04       		.byte	0x4
 4002 000b 01       		.uleb128 0x1
 4003 000c 0C120000 		.4byte	.LASF708
 4004 0010 0C       		.byte	0xc
 4005 0011 D1250000 		.4byte	.LASF709
 4006 0015 D51A0000 		.4byte	.LASF710
 4007 0019 00000000 		.4byte	.Ldebug_ranges0+0
 4008 001d 00000000 		.4byte	0
 4009 0021 00000000 		.4byte	.Ldebug_line0
 4010 0025 02       		.uleb128 0x2
 4011 0026 01       		.byte	0x1
 4012 0027 06       		.byte	0x6
 4013 0028 900F0000 		.4byte	.LASF0
 4014 002c 03       		.uleb128 0x3
 4015 002d F8090000 		.4byte	.LASF9
 4016 0031 02       		.byte	0x2
 4017 0032 1D       		.byte	0x1d
 4018 0033 37000000 		.4byte	0x37
 4019 0037 02       		.uleb128 0x2
 4020 0038 01       		.byte	0x1
 4021 0039 08       		.byte	0x8
 4022 003a 2D110000 		.4byte	.LASF1
 4023 003e 02       		.uleb128 0x2
 4024 003f 02       		.byte	0x2
 4025 0040 05       		.byte	0x5
 4026 0041 1E3A0000 		.4byte	.LASF2
 4027 0045 02       		.uleb128 0x2
 4028 0046 02       		.byte	0x2
ARM GAS  C:\Users\Administrator\AppData\Local\Temp\ccNQfmEa.s 			page 114


 4029 0047 07       		.byte	0x7
 4030 0048 4A420000 		.4byte	.LASF3
 4031 004c 02       		.uleb128 0x2
 4032 004d 04       		.byte	0x4
 4033 004e 05       		.byte	0x5
 4034 004f AB0B0000 		.4byte	.LASF4
 4035 0053 02       		.uleb128 0x2
 4036 0054 04       		.byte	0x4
 4037 0055 07       		.byte	0x7
 4038 0056 521F0000 		.4byte	.LASF5
 4039 005a 02       		.uleb128 0x2
 4040 005b 08       		.byte	0x8
 4041 005c 05       		.byte	0x5
 4042 005d 69240000 		.4byte	.LASF6
 4043 0061 02       		.uleb128 0x2
 4044 0062 08       		.byte	0x8
 4045 0063 07       		.byte	0x7
 4046 0064 29320000 		.4byte	.LASF7
 4047 0068 04       		.uleb128 0x4
 4048 0069 04       		.byte	0x4
 4049 006a 05       		.byte	0x5
 4050 006b 696E7400 		.ascii	"int\000"
 4051 006f 02       		.uleb128 0x2
 4052 0070 04       		.byte	0x4
 4053 0071 07       		.byte	0x7
 4054 0072 A8290000 		.4byte	.LASF8
 4055 0076 03       		.uleb128 0x3
 4056 0077 B80F0000 		.4byte	.LASF10
 4057 007b 03       		.byte	0x3
 4058 007c 18       		.byte	0x18
 4059 007d 2C000000 		.4byte	0x2c
 4060 0081 05       		.uleb128 0x5
 4061 0082 B9390000 		.4byte	.LASF11
 4062 0086 04       		.byte	0x4
 4063 0087 D201     		.2byte	0x1d2
 4064 0089 37000000 		.4byte	0x37
 4065 008d 05       		.uleb128 0x5
 4066 008e A4450000 		.4byte	.LASF12
 4067 0092 04       		.byte	0x4
 4068 0093 D301     		.2byte	0x1d3
 4069 0095 45000000 		.4byte	0x45
 4070 0099 05       		.uleb128 0x5
 4071 009a 87030000 		.4byte	.LASF13
 4072 009e 04       		.byte	0x4
 4073 009f D401     		.2byte	0x1d4
 4074 00a1 53000000 		.4byte	0x53
 4075 00a5 02       		.uleb128 0x2
 4076 00a6 04       		.byte	0x4
 4077 00a7 04       		.byte	0x4
 4078 00a8 16280000 		.4byte	.LASF14
 4079 00ac 02       		.uleb128 0x2
 4080 00ad 08       		.byte	0x8
 4081 00ae 04       		.byte	0x4
 4082 00af CA250000 		.4byte	.LASF15
 4083 00b3 05       		.uleb128 0x5
 4084 00b4 A1060000 		.4byte	.LASF16
 4085 00b8 04       		.byte	0x4
ARM GAS  C:\Users\Administrator\AppData\Local\Temp\ccNQfmEa.s 			page 115


 4086 00b9 E301     		.2byte	0x1e3
 4087 00bb BF000000 		.4byte	0xbf
 4088 00bf 02       		.uleb128 0x2
 4089 00c0 01       		.byte	0x1
 4090 00c1 08       		.byte	0x8
 4091 00c2 92140000 		.4byte	.LASF17
 4092 00c6 06       		.uleb128 0x6
 4093 00c7 81000000 		.4byte	0x81
 4094 00cb 06       		.uleb128 0x6
 4095 00cc 99000000 		.4byte	0x99
 4096 00d0 02       		.uleb128 0x2
 4097 00d1 08       		.byte	0x8
 4098 00d2 04       		.byte	0x4
 4099 00d3 B72E0000 		.4byte	.LASF18
 4100 00d7 02       		.uleb128 0x2
 4101 00d8 04       		.byte	0x4
 4102 00d9 07       		.byte	0x7
 4103 00da B3000000 		.4byte	.LASF19
 4104 00de 07       		.uleb128 0x7
 4105 00df 04       		.byte	0x4
 4106 00e0 08       		.uleb128 0x8
 4107 00e1 04       		.byte	0x4
 4108 00e2 81000000 		.4byte	0x81
 4109 00e6 09       		.uleb128 0x9
 4110 00e7 A82D0000 		.4byte	.LASF23
 4111 00eb 0C       		.byte	0xc
 4112 00ec 05       		.byte	0x5
 4113 00ed 1C       		.byte	0x1c
 4114 00ee 0B010000 		.4byte	0x10b
 4115 00f2 0A       		.uleb128 0xa
 4116 00f3 4E1E0000 		.4byte	.LASF20
 4117 00f7 05       		.byte	0x5
 4118 00f8 1E       		.byte	0x1e
 4119 00f9 0B010000 		.4byte	0x10b
 4120 00fd 00       		.byte	0
 4121 00fe 0A       		.uleb128 0xa
 4122 00ff 2C2B0000 		.4byte	.LASF21
 4123 0103 05       		.byte	0x5
 4124 0104 1F       		.byte	0x1f
 4125 0105 1B010000 		.4byte	0x11b
 4126 0109 08       		.byte	0x8
 4127 010a 00       		.byte	0
 4128 010b 0B       		.uleb128 0xb
 4129 010c 81000000 		.4byte	0x81
 4130 0110 1B010000 		.4byte	0x11b
 4131 0114 0C       		.uleb128 0xc
 4132 0115 D7000000 		.4byte	0xd7
 4133 0119 07       		.byte	0x7
 4134 011a 00       		.byte	0
 4135 011b 0B       		.uleb128 0xb
 4136 011c 81000000 		.4byte	0x81
 4137 0120 2B010000 		.4byte	0x12b
 4138 0124 0C       		.uleb128 0xc
 4139 0125 D7000000 		.4byte	0xd7
 4140 0129 03       		.byte	0x3
 4141 012a 00       		.byte	0
 4142 012b 03       		.uleb128 0x3
ARM GAS  C:\Users\Administrator\AppData\Local\Temp\ccNQfmEa.s 			page 116


 4143 012c 13300000 		.4byte	.LASF22
 4144 0130 05       		.byte	0x5
 4145 0131 20       		.byte	0x20
 4146 0132 E6000000 		.4byte	0xe6
 4147 0136 09       		.uleb128 0x9
 4148 0137 1D2B0000 		.4byte	.LASF24
 4149 013b 10       		.byte	0x10
 4150 013c 05       		.byte	0x5
 4151 013d 22       		.byte	0x22
 4152 013e 67010000 		.4byte	0x167
 4153 0142 0A       		.uleb128 0xa
 4154 0143 4E1E0000 		.4byte	.LASF20
 4155 0147 05       		.byte	0x5
 4156 0148 24       		.byte	0x24
 4157 0149 0B010000 		.4byte	0x10b
 4158 014d 00       		.byte	0
 4159 014e 0A       		.uleb128 0xa
 4160 014f 021D0000 		.4byte	.LASF25
 4161 0153 05       		.byte	0x5
 4162 0154 25       		.byte	0x25
 4163 0155 1B010000 		.4byte	0x11b
 4164 0159 08       		.byte	0x8
 4165 015a 0A       		.uleb128 0xa
 4166 015b 88140000 		.4byte	.LASF26
 4167 015f 05       		.byte	0x5
 4168 0160 26       		.byte	0x26
 4169 0161 1B010000 		.4byte	0x11b
 4170 0165 0C       		.byte	0xc
 4171 0166 00       		.byte	0
 4172 0167 03       		.uleb128 0x3
 4173 0168 8E1E0000 		.4byte	.LASF27
 4174 016c 05       		.byte	0x5
 4175 016d 27       		.byte	0x27
 4176 016e 36010000 		.4byte	0x136
 4177 0172 0D       		.uleb128 0xd
 4178 0173 08       		.byte	0x8
 4179 0174 06       		.byte	0x6
 4180 0175 32       		.byte	0x32
 4181 0176 9F010000 		.4byte	0x19f
 4182 017a 0E       		.uleb128 0xe
 4183 017b 76616C00 		.ascii	"val\000"
 4184 017f 06       		.byte	0x6
 4185 0180 35       		.byte	0x35
 4186 0181 E0000000 		.4byte	0xe0
 4187 0185 00       		.byte	0
 4188 0186 0E       		.uleb128 0xe
 4189 0187 6C656E00 		.ascii	"len\000"
 4190 018b 06       		.byte	0x6
 4191 018c 38       		.byte	0x38
 4192 018d 8D000000 		.4byte	0x8d
 4193 0191 04       		.byte	0x4
 4194 0192 0A       		.uleb128 0xa
 4195 0193 AF420000 		.4byte	.LASF28
 4196 0197 06       		.byte	0x6
 4197 0198 3C       		.byte	0x3c
 4198 0199 8D000000 		.4byte	0x8d
 4199 019d 06       		.byte	0x6
ARM GAS  C:\Users\Administrator\AppData\Local\Temp\ccNQfmEa.s 			page 117


 4200 019e 00       		.byte	0
 4201 019f 03       		.uleb128 0x3
 4202 01a0 D4060000 		.4byte	.LASF29
 4203 01a4 06       		.byte	0x6
 4204 01a5 3E       		.byte	0x3e
 4205 01a6 72010000 		.4byte	0x172
 4206 01aa 0F       		.uleb128 0xf
 4207 01ab 02       		.byte	0x2
 4208 01ac 45000000 		.4byte	0x45
 4209 01b0 06       		.byte	0x6
 4210 01b1 42       		.byte	0x42
 4211 01b2 EA020000 		.4byte	0x2ea
 4212 01b6 10       		.uleb128 0x10
 4213 01b7 5C100000 		.4byte	.LASF30
 4214 01bb 00       		.byte	0
 4215 01bc 10       		.uleb128 0x10
 4216 01bd 8F180000 		.4byte	.LASF31
 4217 01c1 01       		.byte	0x1
 4218 01c2 10       		.uleb128 0x10
 4219 01c3 99430000 		.4byte	.LASF32
 4220 01c7 02       		.byte	0x2
 4221 01c8 10       		.uleb128 0x10
 4222 01c9 511A0000 		.4byte	.LASF33
 4223 01cd 03       		.byte	0x3
 4224 01ce 10       		.uleb128 0x10
 4225 01cf DB1E0000 		.4byte	.LASF34
 4226 01d3 04       		.byte	0x4
 4227 01d4 10       		.uleb128 0x10
 4228 01d5 63250000 		.4byte	.LASF35
 4229 01d9 05       		.byte	0x5
 4230 01da 10       		.uleb128 0x10
 4231 01db 25450000 		.4byte	.LASF36
 4232 01df 06       		.byte	0x6
 4233 01e0 10       		.uleb128 0x10
 4234 01e1 9E150000 		.4byte	.LASF37
 4235 01e5 07       		.byte	0x7
 4236 01e6 10       		.uleb128 0x10
 4237 01e7 89270000 		.4byte	.LASF38
 4238 01eb 08       		.byte	0x8
 4239 01ec 10       		.uleb128 0x10
 4240 01ed 133D0000 		.4byte	.LASF39
 4241 01f1 09       		.byte	0x9
 4242 01f2 10       		.uleb128 0x10
 4243 01f3 DB450000 		.4byte	.LASF40
 4244 01f7 0A       		.byte	0xa
 4245 01f8 10       		.uleb128 0x10
 4246 01f9 E5080000 		.4byte	.LASF41
 4247 01fd 0B       		.byte	0xb
 4248 01fe 10       		.uleb128 0x10
 4249 01ff 48400000 		.4byte	.LASF42
 4250 0203 0C       		.byte	0xc
 4251 0204 10       		.uleb128 0x10
 4252 0205 5A2B0000 		.4byte	.LASF43
 4253 0209 0D       		.byte	0xd
 4254 020a 10       		.uleb128 0x10
 4255 020b CE200000 		.4byte	.LASF44
 4256 020f 0E       		.byte	0xe
ARM GAS  C:\Users\Administrator\AppData\Local\Temp\ccNQfmEa.s 			page 118


 4257 0210 10       		.uleb128 0x10
 4258 0211 3E250000 		.4byte	.LASF45
 4259 0215 0F       		.byte	0xf
 4260 0216 10       		.uleb128 0x10
 4261 0217 FA050000 		.4byte	.LASF46
 4262 021b 10       		.byte	0x10
 4263 021c 10       		.uleb128 0x10
 4264 021d 65270000 		.4byte	.LASF47
 4265 0221 11       		.byte	0x11
 4266 0222 10       		.uleb128 0x10
 4267 0223 C9120000 		.4byte	.LASF48
 4268 0227 12       		.byte	0x12
 4269 0228 10       		.uleb128 0x10
 4270 0229 8A0C0000 		.4byte	.LASF49
 4271 022d 13       		.byte	0x13
 4272 022e 10       		.uleb128 0x10
 4273 022f AD2A0000 		.4byte	.LASF50
 4274 0233 14       		.byte	0x14
 4275 0234 10       		.uleb128 0x10
 4276 0235 B9140000 		.4byte	.LASF51
 4277 0239 15       		.byte	0x15
 4278 023a 10       		.uleb128 0x10
 4279 023b 1C210000 		.4byte	.LASF52
 4280 023f 16       		.byte	0x16
 4281 0240 10       		.uleb128 0x10
 4282 0241 C7180000 		.4byte	.LASF53
 4283 0245 17       		.byte	0x17
 4284 0246 10       		.uleb128 0x10
 4285 0247 D01D0000 		.4byte	.LASF54
 4286 024b 18       		.byte	0x18
 4287 024c 10       		.uleb128 0x10
 4288 024d 17230000 		.4byte	.LASF55
 4289 0251 19       		.byte	0x19
 4290 0252 10       		.uleb128 0x10
 4291 0253 B22D0000 		.4byte	.LASF56
 4292 0257 1A       		.byte	0x1a
 4293 0258 10       		.uleb128 0x10
 4294 0259 8A1D0000 		.4byte	.LASF57
 4295 025d 1B       		.byte	0x1b
 4296 025e 10       		.uleb128 0x10
 4297 025f 40340000 		.4byte	.LASF58
 4298 0263 1C       		.byte	0x1c
 4299 0264 10       		.uleb128 0x10
 4300 0265 B5160000 		.4byte	.LASF59
 4301 0269 1D       		.byte	0x1d
 4302 026a 10       		.uleb128 0x10
 4303 026b 24360000 		.4byte	.LASF60
 4304 026f 1E       		.byte	0x1e
 4305 0270 10       		.uleb128 0x10
 4306 0271 680F0000 		.4byte	.LASF61
 4307 0275 1F       		.byte	0x1f
 4308 0276 10       		.uleb128 0x10
 4309 0277 BF3A0000 		.4byte	.LASF62
 4310 027b 20       		.byte	0x20
 4311 027c 10       		.uleb128 0x10
 4312 027d 3B190000 		.4byte	.LASF63
 4313 0281 21       		.byte	0x21
ARM GAS  C:\Users\Administrator\AppData\Local\Temp\ccNQfmEa.s 			page 119


 4314 0282 10       		.uleb128 0x10
 4315 0283 79090000 		.4byte	.LASF64
 4316 0287 22       		.byte	0x22
 4317 0288 10       		.uleb128 0x10
 4318 0289 5D420000 		.4byte	.LASF65
 4319 028d 23       		.byte	0x23
 4320 028e 10       		.uleb128 0x10
 4321 028f AE050000 		.4byte	.LASF66
 4322 0293 24       		.byte	0x24
 4323 0294 10       		.uleb128 0x10
 4324 0295 5C200000 		.4byte	.LASF67
 4325 0299 25       		.byte	0x25
 4326 029a 10       		.uleb128 0x10
 4327 029b 45300000 		.4byte	.LASF68
 4328 029f 26       		.byte	0x26
 4329 02a0 10       		.uleb128 0x10
 4330 02a1 D8250000 		.4byte	.LASF69
 4331 02a5 27       		.byte	0x27
 4332 02a6 10       		.uleb128 0x10
 4333 02a7 77280000 		.4byte	.LASF70
 4334 02ab 28       		.byte	0x28
 4335 02ac 10       		.uleb128 0x10
 4336 02ad 44060000 		.4byte	.LASF71
 4337 02b1 29       		.byte	0x29
 4338 02b2 10       		.uleb128 0x10
 4339 02b3 C31B0000 		.4byte	.LASF72
 4340 02b7 FF       		.byte	0xff
 4341 02b8 11       		.uleb128 0x11
 4342 02b9 9A1E0000 		.4byte	.LASF73
 4343 02bd 0001     		.2byte	0x100
 4344 02bf 11       		.uleb128 0x11
 4345 02c0 0F420000 		.4byte	.LASF74
 4346 02c4 0101     		.2byte	0x101
 4347 02c6 11       		.uleb128 0x11
 4348 02c7 D7190000 		.4byte	.LASF75
 4349 02cb 0201     		.2byte	0x102
 4350 02cd 11       		.uleb128 0x11
 4351 02ce 6C2D0000 		.4byte	.LASF76
 4352 02d2 0301     		.2byte	0x103
 4353 02d4 11       		.uleb128 0x11
 4354 02d5 532D0000 		.4byte	.LASF77
 4355 02d9 0401     		.2byte	0x104
 4356 02db 11       		.uleb128 0x11
 4357 02dc BA0D0000 		.4byte	.LASF78
 4358 02e0 0501     		.2byte	0x105
 4359 02e2 11       		.uleb128 0x11
 4360 02e3 B4320000 		.4byte	.LASF79
 4361 02e7 0601     		.2byte	0x106
 4362 02e9 00       		.byte	0
 4363 02ea 03       		.uleb128 0x3
 4364 02eb EE3E0000 		.4byte	.LASF80
 4365 02ef 06       		.byte	0x6
 4366 02f0 D4       		.byte	0xd4
 4367 02f1 AA010000 		.4byte	0x1aa
 4368 02f5 0D       		.uleb128 0xd
 4369 02f6 07       		.byte	0x7
 4370 02f7 06       		.byte	0x6
ARM GAS  C:\Users\Administrator\AppData\Local\Temp\ccNQfmEa.s 			page 120


 4371 02f8 DA       		.byte	0xda
 4372 02f9 16030000 		.4byte	0x316
 4373 02fd 0A       		.uleb128 0xa
 4374 02fe C93D0000 		.4byte	.LASF81
 4375 0302 06       		.byte	0x6
 4376 0303 DC       		.byte	0xdc
 4377 0304 16030000 		.4byte	0x316
 4378 0308 00       		.byte	0
 4379 0309 0A       		.uleb128 0xa
 4380 030a 3A070000 		.4byte	.LASF82
 4381 030e 06       		.byte	0x6
 4382 030f DD       		.byte	0xdd
 4383 0310 81000000 		.4byte	0x81
 4384 0314 06       		.byte	0x6
 4385 0315 00       		.byte	0
 4386 0316 0B       		.uleb128 0xb
 4387 0317 81000000 		.4byte	0x81
 4388 031b 26030000 		.4byte	0x326
 4389 031f 0C       		.uleb128 0xc
 4390 0320 D7000000 		.4byte	0xd7
 4391 0324 05       		.byte	0x5
 4392 0325 00       		.byte	0
 4393 0326 03       		.uleb128 0x3
 4394 0327 AB340000 		.4byte	.LASF83
 4395 032b 06       		.byte	0x6
 4396 032c DE       		.byte	0xde
 4397 032d F5020000 		.4byte	0x2f5
 4398 0331 0F       		.uleb128 0xf
 4399 0332 01       		.byte	0x1
 4400 0333 37000000 		.4byte	0x37
 4401 0337 06       		.byte	0x6
 4402 0338 E2       		.byte	0xe2
 4403 0339 8C030000 		.4byte	0x38c
 4404 033d 10       		.uleb128 0x10
 4405 033e DC2F0000 		.4byte	.LASF84
 4406 0342 00       		.byte	0
 4407 0343 10       		.uleb128 0x10
 4408 0344 330A0000 		.4byte	.LASF85
 4409 0348 01       		.byte	0x1
 4410 0349 10       		.uleb128 0x10
 4411 034a EB300000 		.4byte	.LASF86
 4412 034e 02       		.byte	0x2
 4413 034f 10       		.uleb128 0x10
 4414 0350 10200000 		.4byte	.LASF87
 4415 0354 03       		.byte	0x3
 4416 0355 10       		.uleb128 0x10
 4417 0356 860D0000 		.4byte	.LASF88
 4418 035a 04       		.byte	0x4
 4419 035b 10       		.uleb128 0x10
 4420 035c E3350000 		.4byte	.LASF89
 4421 0360 05       		.byte	0x5
 4422 0361 10       		.uleb128 0x10
 4423 0362 17240000 		.4byte	.LASF90
 4424 0366 06       		.byte	0x6
 4425 0367 10       		.uleb128 0x10
 4426 0368 E51F0000 		.4byte	.LASF91
 4427 036c 07       		.byte	0x7
ARM GAS  C:\Users\Administrator\AppData\Local\Temp\ccNQfmEa.s 			page 121


 4428 036d 10       		.uleb128 0x10
 4429 036e B0070000 		.4byte	.LASF92
 4430 0372 08       		.byte	0x8
 4431 0373 10       		.uleb128 0x10
 4432 0374 B4220000 		.4byte	.LASF93
 4433 0378 09       		.byte	0x9
 4434 0379 10       		.uleb128 0x10
 4435 037a 36130000 		.4byte	.LASF94
 4436 037e 0A       		.byte	0xa
 4437 037f 10       		.uleb128 0x10
 4438 0380 62070000 		.4byte	.LASF95
 4439 0384 15       		.byte	0x15
 4440 0385 10       		.uleb128 0x10
 4441 0386 2E1C0000 		.4byte	.LASF96
 4442 038a 18       		.byte	0x18
 4443 038b 00       		.byte	0
 4444 038c 05       		.uleb128 0x5
 4445 038d 6C2C0000 		.4byte	.LASF97
 4446 0391 06       		.byte	0x6
 4447 0392 0C01     		.2byte	0x10c
 4448 0394 31030000 		.4byte	0x331
 4449 0398 12       		.uleb128 0x12
 4450 0399 04       		.byte	0x4
 4451 039a 06       		.byte	0x6
 4452 039b 1001     		.2byte	0x110
 4453 039d D6030000 		.4byte	0x3d6
 4454 03a1 13       		.uleb128 0x13
 4455 03a2 F0390000 		.4byte	.LASF98
 4456 03a6 06       		.byte	0x6
 4457 03a7 1901     		.2byte	0x119
 4458 03a9 81000000 		.4byte	0x81
 4459 03ad 00       		.byte	0
 4460 03ae 13       		.uleb128 0x13
 4461 03af 78290000 		.4byte	.LASF99
 4462 03b3 06       		.byte	0x6
 4463 03b4 1F01     		.2byte	0x11f
 4464 03b6 81000000 		.4byte	0x81
 4465 03ba 01       		.byte	0x1
 4466 03bb 13       		.uleb128 0x13
 4467 03bc 46010000 		.4byte	.LASF100
 4468 03c0 06       		.byte	0x6
 4469 03c1 2501     		.2byte	0x125
 4470 03c3 81000000 		.4byte	0x81
 4471 03c7 02       		.byte	0x2
 4472 03c8 13       		.uleb128 0x13
 4473 03c9 313A0000 		.4byte	.LASF101
 4474 03cd 06       		.byte	0x6
 4475 03ce 2901     		.2byte	0x129
 4476 03d0 8C030000 		.4byte	0x38c
 4477 03d4 03       		.byte	0x3
 4478 03d5 00       		.byte	0
 4479 03d6 05       		.uleb128 0x5
 4480 03d7 2F150000 		.4byte	.LASF102
 4481 03db 06       		.byte	0x6
 4482 03dc 2B01     		.2byte	0x12b
 4483 03de 98030000 		.4byte	0x398
 4484 03e2 14       		.uleb128 0x14
ARM GAS  C:\Users\Administrator\AppData\Local\Temp\ccNQfmEa.s 			page 122


 4485 03e3 01       		.byte	0x1
 4486 03e4 37000000 		.4byte	0x37
 4487 03e8 06       		.byte	0x6
 4488 03e9 3A01     		.2byte	0x13a
 4489 03eb 46050000 		.4byte	0x546
 4490 03ef 10       		.uleb128 0x10
 4491 03f0 5C150000 		.4byte	.LASF103
 4492 03f4 00       		.byte	0
 4493 03f5 10       		.uleb128 0x10
 4494 03f6 770C0000 		.4byte	.LASF104
 4495 03fa 01       		.byte	0x1
 4496 03fb 10       		.uleb128 0x10
 4497 03fc 53320000 		.4byte	.LASF105
 4498 0400 02       		.byte	0x2
 4499 0401 10       		.uleb128 0x10
 4500 0402 43100000 		.4byte	.LASF106
 4501 0406 03       		.byte	0x3
 4502 0407 10       		.uleb128 0x10
 4503 0408 CD430000 		.4byte	.LASF107
 4504 040c 04       		.byte	0x4
 4505 040d 10       		.uleb128 0x10
 4506 040e 67400000 		.4byte	.LASF108
 4507 0412 05       		.byte	0x5
 4508 0413 10       		.uleb128 0x10
 4509 0414 813C0000 		.4byte	.LASF109
 4510 0418 20       		.byte	0x20
 4511 0419 10       		.uleb128 0x10
 4512 041a 78080000 		.4byte	.LASF110
 4513 041e 21       		.byte	0x21
 4514 041f 10       		.uleb128 0x10
 4515 0420 61230000 		.4byte	.LASF111
 4516 0424 22       		.byte	0x22
 4517 0425 10       		.uleb128 0x10
 4518 0426 2D2D0000 		.4byte	.LASF112
 4519 042a 23       		.byte	0x23
 4520 042b 10       		.uleb128 0x10
 4521 042c FF1D0000 		.4byte	.LASF113
 4522 0430 24       		.byte	0x24
 4523 0431 10       		.uleb128 0x10
 4524 0432 571E0000 		.4byte	.LASF114
 4525 0436 25       		.byte	0x25
 4526 0437 10       		.uleb128 0x10
 4527 0438 DF380000 		.4byte	.LASF115
 4528 043c 26       		.byte	0x26
 4529 043d 10       		.uleb128 0x10
 4530 043e 01030000 		.4byte	.LASF116
 4531 0442 27       		.byte	0x27
 4532 0443 10       		.uleb128 0x10
 4533 0444 4D370000 		.4byte	.LASF117
 4534 0448 28       		.byte	0x28
 4535 0449 10       		.uleb128 0x10
 4536 044a F62F0000 		.4byte	.LASF118
 4537 044e 29       		.byte	0x29
 4538 044f 10       		.uleb128 0x10
 4539 0450 28220000 		.4byte	.LASF119
 4540 0454 2A       		.byte	0x2a
 4541 0455 10       		.uleb128 0x10
ARM GAS  C:\Users\Administrator\AppData\Local\Temp\ccNQfmEa.s 			page 123


 4542 0456 042C0000 		.4byte	.LASF120
 4543 045a 2B       		.byte	0x2b
 4544 045b 10       		.uleb128 0x10
 4545 045c EB400000 		.4byte	.LASF121
 4546 0460 2C       		.byte	0x2c
 4547 0461 10       		.uleb128 0x10
 4548 0462 593B0000 		.4byte	.LASF122
 4549 0466 40       		.byte	0x40
 4550 0467 10       		.uleb128 0x10
 4551 0468 30030000 		.4byte	.LASF123
 4552 046c 41       		.byte	0x41
 4553 046d 10       		.uleb128 0x10
 4554 046e EF430000 		.4byte	.LASF124
 4555 0472 42       		.byte	0x42
 4556 0473 10       		.uleb128 0x10
 4557 0474 A1300000 		.4byte	.LASF125
 4558 0478 43       		.byte	0x43
 4559 0479 10       		.uleb128 0x10
 4560 047a 3B110000 		.4byte	.LASF126
 4561 047e 44       		.byte	0x44
 4562 047f 10       		.uleb128 0x10
 4563 0480 9B100000 		.4byte	.LASF127
 4564 0484 45       		.byte	0x45
 4565 0485 10       		.uleb128 0x10
 4566 0486 89360000 		.4byte	.LASF128
 4567 048a 46       		.byte	0x46
 4568 048b 10       		.uleb128 0x10
 4569 048c 6B360000 		.4byte	.LASF129
 4570 0490 47       		.byte	0x47
 4571 0491 10       		.uleb128 0x10
 4572 0492 D4130000 		.4byte	.LASF130
 4573 0496 48       		.byte	0x48
 4574 0497 10       		.uleb128 0x10
 4575 0498 8F2D0000 		.4byte	.LASF131
 4576 049c 49       		.byte	0x49
 4577 049d 10       		.uleb128 0x10
 4578 049e BB150000 		.4byte	.LASF132
 4579 04a2 4A       		.byte	0x4a
 4580 04a3 10       		.uleb128 0x10
 4581 04a4 04150000 		.4byte	.LASF133
 4582 04a8 4B       		.byte	0x4b
 4583 04a9 10       		.uleb128 0x10
 4584 04aa 8B2C0000 		.4byte	.LASF134
 4585 04ae 4C       		.byte	0x4c
 4586 04af 10       		.uleb128 0x10
 4587 04b0 FD370000 		.4byte	.LASF135
 4588 04b4 4D       		.byte	0x4d
 4589 04b5 10       		.uleb128 0x10
 4590 04b6 4B0B0000 		.4byte	.LASF136
 4591 04ba 4E       		.byte	0x4e
 4592 04bb 10       		.uleb128 0x10
 4593 04bc DF290000 		.4byte	.LASF137
 4594 04c0 4F       		.byte	0x4f
 4595 04c1 10       		.uleb128 0x10
 4596 04c2 623C0000 		.4byte	.LASF138
 4597 04c6 50       		.byte	0x50
 4598 04c7 10       		.uleb128 0x10
ARM GAS  C:\Users\Administrator\AppData\Local\Temp\ccNQfmEa.s 			page 124


 4599 04c8 2A160000 		.4byte	.LASF139
 4600 04cc 51       		.byte	0x51
 4601 04cd 10       		.uleb128 0x10
 4602 04ce 57080000 		.4byte	.LASF140
 4603 04d2 52       		.byte	0x52
 4604 04d3 10       		.uleb128 0x10
 4605 04d4 DF3F0000 		.4byte	.LASF141
 4606 04d8 53       		.byte	0x53
 4607 04d9 10       		.uleb128 0x10
 4608 04da 5F450000 		.4byte	.LASF142
 4609 04de 54       		.byte	0x54
 4610 04df 10       		.uleb128 0x10
 4611 04e0 B92C0000 		.4byte	.LASF143
 4612 04e4 55       		.byte	0x55
 4613 04e5 10       		.uleb128 0x10
 4614 04e6 55170000 		.4byte	.LASF144
 4615 04ea 56       		.byte	0x56
 4616 04eb 10       		.uleb128 0x10
 4617 04ec C8280000 		.4byte	.LASF145
 4618 04f0 57       		.byte	0x57
 4619 04f1 10       		.uleb128 0x10
 4620 04f2 8E410000 		.4byte	.LASF146
 4621 04f6 70       		.byte	0x70
 4622 04f7 10       		.uleb128 0x10
 4623 04f8 081C0000 		.4byte	.LASF147
 4624 04fc 71       		.byte	0x71
 4625 04fd 10       		.uleb128 0x10
 4626 04fe FD0E0000 		.4byte	.LASF148
 4627 0502 72       		.byte	0x72
 4628 0503 10       		.uleb128 0x10
 4629 0504 443C0000 		.4byte	.LASF149
 4630 0508 73       		.byte	0x73
 4631 0509 10       		.uleb128 0x10
 4632 050a D72D0000 		.4byte	.LASF150
 4633 050e 74       		.byte	0x74
 4634 050f 10       		.uleb128 0x10
 4635 0510 DB220000 		.4byte	.LASF151
 4636 0514 75       		.byte	0x75
 4637 0515 10       		.uleb128 0x10
 4638 0516 B3130000 		.4byte	.LASF152
 4639 051a 76       		.byte	0x76
 4640 051b 10       		.uleb128 0x10
 4641 051c EA320000 		.4byte	.LASF153
 4642 0520 77       		.byte	0x77
 4643 0521 10       		.uleb128 0x10
 4644 0522 B1060000 		.4byte	.LASF154
 4645 0526 78       		.byte	0x78
 4646 0527 10       		.uleb128 0x10
 4647 0528 A6120000 		.4byte	.LASF155
 4648 052c 79       		.byte	0x79
 4649 052d 10       		.uleb128 0x10
 4650 052e 33440000 		.4byte	.LASF156
 4651 0532 7A       		.byte	0x7a
 4652 0533 10       		.uleb128 0x10
 4653 0534 2E260000 		.4byte	.LASF157
 4654 0538 FA       		.byte	0xfa
 4655 0539 10       		.uleb128 0x10
ARM GAS  C:\Users\Administrator\AppData\Local\Temp\ccNQfmEa.s 			page 125


 4656 053a CF3E0000 		.4byte	.LASF158
 4657 053e FB       		.byte	0xfb
 4658 053f 10       		.uleb128 0x10
 4659 0540 F62B0000 		.4byte	.LASF159
 4660 0544 FF       		.byte	0xff
 4661 0545 00       		.byte	0
 4662 0546 14       		.uleb128 0x14
 4663 0547 01       		.byte	0x1
 4664 0548 37000000 		.4byte	0x37
 4665 054c 06       		.byte	0x6
 4666 054d A002     		.2byte	0x2a0
 4667 054f 72050000 		.4byte	0x572
 4668 0553 10       		.uleb128 0x10
 4669 0554 C2100000 		.4byte	.LASF160
 4670 0558 00       		.byte	0
 4671 0559 10       		.uleb128 0x10
 4672 055a 90220000 		.4byte	.LASF161
 4673 055e 01       		.byte	0x1
 4674 055f 10       		.uleb128 0x10
 4675 0560 99420000 		.4byte	.LASF162
 4676 0564 02       		.byte	0x2
 4677 0565 10       		.uleb128 0x10
 4678 0566 9E090000 		.4byte	.LASF163
 4679 056a 03       		.byte	0x3
 4680 056b 10       		.uleb128 0x10
 4681 056c 3B380000 		.4byte	.LASF164
 4682 0570 04       		.byte	0x4
 4683 0571 00       		.byte	0
 4684 0572 05       		.uleb128 0x5
 4685 0573 733B0000 		.4byte	.LASF165
 4686 0577 06       		.byte	0x6
 4687 0578 A602     		.2byte	0x2a6
 4688 057a 46050000 		.4byte	0x546
 4689 057e 12       		.uleb128 0x12
 4690 057f 02       		.byte	0x2
 4691 0580 06       		.byte	0x6
 4692 0581 A902     		.2byte	0x2a9
 4693 0583 A2050000 		.4byte	0x5a2
 4694 0587 13       		.uleb128 0x13
 4695 0588 CA090000 		.4byte	.LASF166
 4696 058c 06       		.byte	0x6
 4697 058d AC02     		.2byte	0x2ac
 4698 058f 81000000 		.4byte	0x81
 4699 0593 00       		.byte	0
 4700 0594 13       		.uleb128 0x13
 4701 0595 93430000 		.4byte	.LASF167
 4702 0599 06       		.byte	0x6
 4703 059a AF02     		.2byte	0x2af
 4704 059c 81000000 		.4byte	0x81
 4705 05a0 01       		.byte	0x1
 4706 05a1 00       		.byte	0
 4707 05a2 05       		.uleb128 0x5
 4708 05a3 B7080000 		.4byte	.LASF168
 4709 05a7 06       		.byte	0x6
 4710 05a8 B102     		.2byte	0x2b1
 4711 05aa 7E050000 		.4byte	0x57e
 4712 05ae 05       		.uleb128 0x5
ARM GAS  C:\Users\Administrator\AppData\Local\Temp\ccNQfmEa.s 			page 126


 4713 05af CE320000 		.4byte	.LASF169
 4714 05b3 06       		.byte	0x6
 4715 05b4 B302     		.2byte	0x2b3
 4716 05b6 8D000000 		.4byte	0x8d
 4717 05ba 12       		.uleb128 0x12
 4718 05bb 0C       		.byte	0xc
 4719 05bc 06       		.byte	0x6
 4720 05bd B602     		.2byte	0x2b6
 4721 05bf DE050000 		.4byte	0x5de
 4722 05c3 13       		.uleb128 0x13
 4723 05c4 2C330000 		.4byte	.LASF170
 4724 05c8 06       		.byte	0x6
 4725 05c9 B902     		.2byte	0x2b9
 4726 05cb 9F010000 		.4byte	0x19f
 4727 05cf 00       		.byte	0
 4728 05d0 13       		.uleb128 0x13
 4729 05d1 2D290000 		.4byte	.LASF171
 4730 05d5 06       		.byte	0x6
 4731 05d6 BC02     		.2byte	0x2bc
 4732 05d8 AE050000 		.4byte	0x5ae
 4733 05dc 08       		.byte	0x8
 4734 05dd 00       		.byte	0
 4735 05de 05       		.uleb128 0x5
 4736 05df 200E0000 		.4byte	.LASF172
 4737 05e3 06       		.byte	0x6
 4738 05e4 BE02     		.2byte	0x2be
 4739 05e6 BA050000 		.4byte	0x5ba
 4740 05ea 12       		.uleb128 0x12
 4741 05eb 10       		.byte	0x10
 4742 05ec 06       		.byte	0x6
 4743 05ed C102     		.2byte	0x2c1
 4744 05ef 0E060000 		.4byte	0x60e
 4745 05f3 13       		.uleb128 0x13
 4746 05f4 6B350000 		.4byte	.LASF173
 4747 05f8 06       		.byte	0x6
 4748 05f9 C402     		.2byte	0x2c4
 4749 05fb A2050000 		.4byte	0x5a2
 4750 05ff 00       		.byte	0
 4751 0600 13       		.uleb128 0x13
 4752 0601 0B350000 		.4byte	.LASF174
 4753 0605 06       		.byte	0x6
 4754 0606 C702     		.2byte	0x2c7
 4755 0608 DE050000 		.4byte	0x5de
 4756 060c 04       		.byte	0x4
 4757 060d 00       		.byte	0
 4758 060e 05       		.uleb128 0x5
 4759 060f 8A290000 		.4byte	.LASF175
 4760 0613 06       		.byte	0x6
 4761 0614 C902     		.2byte	0x2c9
 4762 0616 EA050000 		.4byte	0x5ea
 4763 061a 05       		.uleb128 0x5
 4764 061b 83400000 		.4byte	.LASF176
 4765 061f 06       		.byte	0x6
 4766 0620 CC02     		.2byte	0x2cc
 4767 0622 0E060000 		.4byte	0x60e
 4768 0626 14       		.uleb128 0x14
 4769 0627 01       		.byte	0x1
ARM GAS  C:\Users\Administrator\AppData\Local\Temp\ccNQfmEa.s 			page 127


 4770 0628 37000000 		.4byte	0x37
 4771 062c 06       		.byte	0x6
 4772 062d D202     		.2byte	0x2d2
 4773 062f 52060000 		.4byte	0x652
 4774 0633 10       		.uleb128 0x10
 4775 0634 E6310000 		.4byte	.LASF177
 4776 0638 01       		.byte	0x1
 4777 0639 10       		.uleb128 0x10
 4778 063a F61B0000 		.4byte	.LASF178
 4779 063e 02       		.byte	0x2
 4780 063f 10       		.uleb128 0x10
 4781 0640 77240000 		.4byte	.LASF179
 4782 0644 03       		.byte	0x3
 4783 0645 10       		.uleb128 0x10
 4784 0646 813E0000 		.4byte	.LASF180
 4785 064a 04       		.byte	0x4
 4786 064b 10       		.uleb128 0x10
 4787 064c 0C1D0000 		.4byte	.LASF181
 4788 0650 FF       		.byte	0xff
 4789 0651 00       		.byte	0
 4790 0652 05       		.uleb128 0x5
 4791 0653 20140000 		.4byte	.LASF182
 4792 0657 06       		.byte	0x6
 4793 0658 EE02     		.2byte	0x2ee
 4794 065a 26060000 		.4byte	0x626
 4795 065e 14       		.uleb128 0x14
 4796 065f 01       		.byte	0x1
 4797 0660 37000000 		.4byte	0x37
 4798 0664 06       		.byte	0x6
 4799 0665 F102     		.2byte	0x2f1
 4800 0667 9C060000 		.4byte	0x69c
 4801 066b 10       		.uleb128 0x10
 4802 066c 5E130000 		.4byte	.LASF183
 4803 0670 01       		.byte	0x1
 4804 0671 10       		.uleb128 0x10
 4805 0672 F60D0000 		.4byte	.LASF184
 4806 0676 02       		.byte	0x2
 4807 0677 10       		.uleb128 0x10
 4808 0678 DD0C0000 		.4byte	.LASF185
 4809 067c 03       		.byte	0x3
 4810 067d 10       		.uleb128 0x10
 4811 067e 6E030000 		.4byte	.LASF186
 4812 0682 04       		.byte	0x4
 4813 0683 10       		.uleb128 0x10
 4814 0684 1B3E0000 		.4byte	.LASF187
 4815 0688 05       		.byte	0x5
 4816 0689 10       		.uleb128 0x10
 4817 068a 3C460000 		.4byte	.LASF188
 4818 068e 06       		.byte	0x6
 4819 068f 10       		.uleb128 0x10
 4820 0690 B5030000 		.4byte	.LASF189
 4821 0694 07       		.byte	0x7
 4822 0695 10       		.uleb128 0x10
 4823 0696 253F0000 		.4byte	.LASF190
 4824 069a FF       		.byte	0xff
 4825 069b 00       		.byte	0
 4826 069c 12       		.uleb128 0x12
ARM GAS  C:\Users\Administrator\AppData\Local\Temp\ccNQfmEa.s 			page 128


 4827 069d 20       		.byte	0x20
 4828 069e 06       		.byte	0x6
 4829 069f CD03     		.2byte	0x3cd
 4830 06a1 C0060000 		.4byte	0x6c0
 4831 06a5 13       		.uleb128 0x13
 4832 06a6 B12C0000 		.4byte	.LASF191
 4833 06aa 06       		.byte	0x6
 4834 06ab D003     		.2byte	0x3d0
 4835 06ad C0060000 		.4byte	0x6c0
 4836 06b1 00       		.byte	0
 4837 06b2 13       		.uleb128 0x13
 4838 06b3 AB350000 		.4byte	.LASF192
 4839 06b7 06       		.byte	0x6
 4840 06b8 D303     		.2byte	0x3d3
 4841 06ba 81000000 		.4byte	0x81
 4842 06be 1F       		.byte	0x1f
 4843 06bf 00       		.byte	0
 4844 06c0 0B       		.uleb128 0xb
 4845 06c1 81000000 		.4byte	0x81
 4846 06c5 D0060000 		.4byte	0x6d0
 4847 06c9 0C       		.uleb128 0xc
 4848 06ca D7000000 		.4byte	0xd7
 4849 06ce 1E       		.byte	0x1e
 4850 06cf 00       		.byte	0
 4851 06d0 05       		.uleb128 0x5
 4852 06d1 77130000 		.4byte	.LASF193
 4853 06d5 06       		.byte	0x6
 4854 06d6 D503     		.2byte	0x3d5
 4855 06d8 9C060000 		.4byte	0x69c
 4856 06dc 14       		.uleb128 0x14
 4857 06dd 01       		.byte	0x1
 4858 06de 37000000 		.4byte	0x37
 4859 06e2 06       		.byte	0x6
 4860 06e3 D903     		.2byte	0x3d9
 4861 06e5 08070000 		.4byte	0x708
 4862 06e9 10       		.uleb128 0x10
 4863 06ea 31430000 		.4byte	.LASF194
 4864 06ee 00       		.byte	0
 4865 06ef 10       		.uleb128 0x10
 4866 06f0 F6030000 		.4byte	.LASF195
 4867 06f4 01       		.byte	0x1
 4868 06f5 10       		.uleb128 0x10
 4869 06f6 173C0000 		.4byte	.LASF196
 4870 06fa 02       		.byte	0x2
 4871 06fb 10       		.uleb128 0x10
 4872 06fc AE0E0000 		.4byte	.LASF197
 4873 0700 03       		.byte	0x3
 4874 0701 10       		.uleb128 0x10
 4875 0702 ED190000 		.4byte	.LASF198
 4876 0706 04       		.byte	0x4
 4877 0707 00       		.byte	0
 4878 0708 05       		.uleb128 0x5
 4879 0709 5B2C0000 		.4byte	.LASF199
 4880 070d 06       		.byte	0x6
 4881 070e E903     		.2byte	0x3e9
 4882 0710 DC060000 		.4byte	0x6dc
 4883 0714 12       		.uleb128 0x12
ARM GAS  C:\Users\Administrator\AppData\Local\Temp\ccNQfmEa.s 			page 129


 4884 0715 10       		.byte	0x10
 4885 0716 06       		.byte	0x6
 4886 0717 EC03     		.2byte	0x3ec
 4887 0719 86070000 		.4byte	0x786
 4888 071d 13       		.uleb128 0x13
 4889 071e AB250000 		.4byte	.LASF200
 4890 0722 06       		.byte	0x6
 4891 0723 F203     		.2byte	0x3f2
 4892 0725 8D000000 		.4byte	0x8d
 4893 0729 00       		.byte	0
 4894 072a 13       		.uleb128 0x13
 4895 072b FB460000 		.4byte	.LASF201
 4896 072f 06       		.byte	0x6
 4897 0730 F803     		.2byte	0x3f8
 4898 0732 8D000000 		.4byte	0x8d
 4899 0736 02       		.byte	0x2
 4900 0737 13       		.uleb128 0x13
 4901 0738 AF1E0000 		.4byte	.LASF202
 4902 073c 06       		.byte	0x6
 4903 073d 0104     		.2byte	0x401
 4904 073f 08070000 		.4byte	0x708
 4905 0743 04       		.byte	0x4
 4906 0744 13       		.uleb128 0x13
 4907 0745 CF450000 		.4byte	.LASF203
 4908 0749 06       		.byte	0x6
 4909 074a 0704     		.2byte	0x407
 4910 074c 81000000 		.4byte	0x81
 4911 0750 05       		.byte	0x5
 4912 0751 13       		.uleb128 0x13
 4913 0752 FD260000 		.4byte	.LASF204
 4914 0756 06       		.byte	0x6
 4915 0757 0E04     		.2byte	0x40e
 4916 0759 81000000 		.4byte	0x81
 4917 075d 06       		.byte	0x6
 4918 075e 13       		.uleb128 0x13
 4919 075f 8E420000 		.4byte	.LASF205
 4920 0763 06       		.byte	0x6
 4921 0764 1404     		.2byte	0x414
 4922 0766 16030000 		.4byte	0x316
 4923 076a 07       		.byte	0x7
 4924 076b 13       		.uleb128 0x13
 4925 076c DB420000 		.4byte	.LASF206
 4926 0770 06       		.byte	0x6
 4927 0771 1C04     		.2byte	0x41c
 4928 0773 81000000 		.4byte	0x81
 4929 0777 0D       		.byte	0xd
 4930 0778 13       		.uleb128 0x13
 4931 0779 1B1E0000 		.4byte	.LASF207
 4932 077d 06       		.byte	0x6
 4933 077e 2804     		.2byte	0x428
 4934 0780 81000000 		.4byte	0x81
 4935 0784 0E       		.byte	0xe
 4936 0785 00       		.byte	0
 4937 0786 05       		.uleb128 0x5
 4938 0787 201D0000 		.4byte	.LASF208
 4939 078b 06       		.byte	0x6
 4940 078c 2A04     		.2byte	0x42a
ARM GAS  C:\Users\Administrator\AppData\Local\Temp\ccNQfmEa.s 			page 130


 4941 078e 14070000 		.4byte	0x714
 4942 0792 12       		.uleb128 0x12
 4943 0793 20       		.byte	0x20
 4944 0794 06       		.byte	0x6
 4945 0795 2F04     		.2byte	0x42f
 4946 0797 B6070000 		.4byte	0x7b6
 4947 079b 13       		.uleb128 0x13
 4948 079c 61000000 		.4byte	.LASF209
 4949 07a0 06       		.byte	0x6
 4950 07a1 3304     		.2byte	0x433
 4951 07a3 C0060000 		.4byte	0x6c0
 4952 07a7 00       		.byte	0
 4953 07a8 13       		.uleb128 0x13
 4954 07a9 B03A0000 		.4byte	.LASF210
 4955 07ad 06       		.byte	0x6
 4956 07ae 3604     		.2byte	0x436
 4957 07b0 81000000 		.4byte	0x81
 4958 07b4 1F       		.byte	0x1f
 4959 07b5 00       		.byte	0
 4960 07b6 05       		.uleb128 0x5
 4961 07b7 12390000 		.4byte	.LASF211
 4962 07bb 06       		.byte	0x6
 4963 07bc 3804     		.2byte	0x438
 4964 07be 92070000 		.4byte	0x792
 4965 07c2 14       		.uleb128 0x14
 4966 07c3 01       		.byte	0x1
 4967 07c4 37000000 		.4byte	0x37
 4968 07c8 06       		.byte	0x6
 4969 07c9 5A04     		.2byte	0x45a
 4970 07cb 00080000 		.4byte	0x800
 4971 07cf 10       		.uleb128 0x10
 4972 07d0 9C0F0000 		.4byte	.LASF212
 4973 07d4 01       		.byte	0x1
 4974 07d5 10       		.uleb128 0x10
 4975 07d6 AD0A0000 		.4byte	.LASF213
 4976 07da 02       		.byte	0x2
 4977 07db 10       		.uleb128 0x10
 4978 07dc 052F0000 		.4byte	.LASF214
 4979 07e0 03       		.byte	0x3
 4980 07e1 10       		.uleb128 0x10
 4981 07e2 5E090000 		.4byte	.LASF215
 4982 07e6 04       		.byte	0x4
 4983 07e7 10       		.uleb128 0x10
 4984 07e8 97140000 		.4byte	.LASF216
 4985 07ec 05       		.byte	0x5
 4986 07ed 10       		.uleb128 0x10
 4987 07ee A71F0000 		.4byte	.LASF217
 4988 07f2 06       		.byte	0x6
 4989 07f3 10       		.uleb128 0x10
 4990 07f4 383E0000 		.4byte	.LASF218
 4991 07f8 07       		.byte	0x7
 4992 07f9 10       		.uleb128 0x10
 4993 07fa 74260000 		.4byte	.LASF219
 4994 07fe 08       		.byte	0x8
 4995 07ff 00       		.byte	0
 4996 0800 05       		.uleb128 0x5
 4997 0801 9E230000 		.4byte	.LASF220
ARM GAS  C:\Users\Administrator\AppData\Local\Temp\ccNQfmEa.s 			page 131


 4998 0805 06       		.byte	0x6
 4999 0806 6304     		.2byte	0x463
 5000 0808 C2070000 		.4byte	0x7c2
 5001 080c 14       		.uleb128 0x14
 5002 080d 01       		.byte	0x1
 5003 080e 37000000 		.4byte	0x37
 5004 0812 06       		.byte	0x6
 5005 0813 6704     		.2byte	0x467
 5006 0815 2C080000 		.4byte	0x82c
 5007 0819 10       		.uleb128 0x10
 5008 081a 973E0000 		.4byte	.LASF221
 5009 081e 00       		.byte	0
 5010 081f 10       		.uleb128 0x10
 5011 0820 872A0000 		.4byte	.LASF222
 5012 0824 01       		.byte	0x1
 5013 0825 10       		.uleb128 0x10
 5014 0826 79410000 		.4byte	.LASF223
 5015 082a 02       		.byte	0x2
 5016 082b 00       		.byte	0
 5017 082c 05       		.uleb128 0x5
 5018 082d 6B100000 		.4byte	.LASF224
 5019 0831 06       		.byte	0x6
 5020 0832 6E04     		.2byte	0x46e
 5021 0834 0C080000 		.4byte	0x80c
 5022 0838 12       		.uleb128 0x12
 5023 0839 02       		.byte	0x2
 5024 083a 06       		.byte	0x6
 5025 083b 7104     		.2byte	0x471
 5026 083d 5C080000 		.4byte	0x85c
 5027 0841 13       		.uleb128 0x13
 5028 0842 60040000 		.4byte	.LASF225
 5029 0846 06       		.byte	0x6
 5030 0847 7404     		.2byte	0x474
 5031 0849 00080000 		.4byte	0x800
 5032 084d 00       		.byte	0
 5033 084e 13       		.uleb128 0x13
 5034 084f 3F0E0000 		.4byte	.LASF226
 5035 0853 06       		.byte	0x6
 5036 0854 7604     		.2byte	0x476
 5037 0856 2C080000 		.4byte	0x82c
 5038 085a 01       		.byte	0x1
 5039 085b 00       		.byte	0
 5040 085c 05       		.uleb128 0x5
 5041 085d 4A410000 		.4byte	.LASF227
 5042 0861 06       		.byte	0x6
 5043 0862 7704     		.2byte	0x477
 5044 0864 38080000 		.4byte	0x838
 5045 0868 14       		.uleb128 0x14
 5046 0869 01       		.byte	0x1
 5047 086a 37000000 		.4byte	0x37
 5048 086e 06       		.byte	0x6
 5049 086f 3905     		.2byte	0x539
 5050 0871 B2080000 		.4byte	0x8b2
 5051 0875 10       		.uleb128 0x10
 5052 0876 C5310000 		.4byte	.LASF228
 5053 087a 00       		.byte	0
 5054 087b 10       		.uleb128 0x10
ARM GAS  C:\Users\Administrator\AppData\Local\Temp\ccNQfmEa.s 			page 132


 5055 087c B6170000 		.4byte	.LASF229
 5056 0880 01       		.byte	0x1
 5057 0881 10       		.uleb128 0x10
 5058 0882 FB210000 		.4byte	.LASF230
 5059 0886 02       		.byte	0x2
 5060 0887 10       		.uleb128 0x10
 5061 0888 AD0C0000 		.4byte	.LASF231
 5062 088c 03       		.byte	0x3
 5063 088d 10       		.uleb128 0x10
 5064 088e 28080000 		.4byte	.LASF232
 5065 0892 04       		.byte	0x4
 5066 0893 10       		.uleb128 0x10
 5067 0894 30170000 		.4byte	.LASF233
 5068 0898 05       		.byte	0x5
 5069 0899 10       		.uleb128 0x10
 5070 089a 61180000 		.4byte	.LASF234
 5071 089e 06       		.byte	0x6
 5072 089f 10       		.uleb128 0x10
 5073 08a0 6F2A0000 		.4byte	.LASF235
 5074 08a4 07       		.byte	0x7
 5075 08a5 10       		.uleb128 0x10
 5076 08a6 C1240000 		.4byte	.LASF236
 5077 08aa 08       		.byte	0x8
 5078 08ab 10       		.uleb128 0x10
 5079 08ac 9E000000 		.4byte	.LASF237
 5080 08b0 09       		.byte	0x9
 5081 08b1 00       		.byte	0
 5082 08b2 14       		.uleb128 0x14
 5083 08b3 02       		.byte	0x2
 5084 08b4 45000000 		.4byte	0x45
 5085 08b8 06       		.byte	0x6
 5086 08b9 4D06     		.2byte	0x64d
 5087 08bb AB0F0000 		.4byte	0xfab
 5088 08bf 11       		.uleb128 0x11
 5089 08c0 372B0000 		.4byte	.LASF238
 5090 08c4 0001     		.2byte	0x100
 5091 08c6 11       		.uleb128 0x11
 5092 08c7 57440000 		.4byte	.LASF239
 5093 08cb 0101     		.2byte	0x101
 5094 08cd 11       		.uleb128 0x11
 5095 08ce 410C0000 		.4byte	.LASF240
 5096 08d2 0201     		.2byte	0x102
 5097 08d4 11       		.uleb128 0x11
 5098 08d5 0D440000 		.4byte	.LASF241
 5099 08d9 0301     		.2byte	0x103
 5100 08db 11       		.uleb128 0x11
 5101 08dc F9310000 		.4byte	.LASF242
 5102 08e0 0401     		.2byte	0x104
 5103 08e2 11       		.uleb128 0x11
 5104 08e3 8C3A0000 		.4byte	.LASF243
 5105 08e7 0501     		.2byte	0x105
 5106 08e9 11       		.uleb128 0x11
 5107 08ea 1B130000 		.4byte	.LASF244
 5108 08ee 0601     		.2byte	0x106
 5109 08f0 11       		.uleb128 0x11
 5110 08f1 190F0000 		.4byte	.LASF245
 5111 08f5 0701     		.2byte	0x107
ARM GAS  C:\Users\Administrator\AppData\Local\Temp\ccNQfmEa.s 			page 133


 5112 08f7 11       		.uleb128 0x11
 5113 08f8 24420000 		.4byte	.LASF246
 5114 08fc 0801     		.2byte	0x108
 5115 08fe 11       		.uleb128 0x11
 5116 08ff 60060000 		.4byte	.LASF247
 5117 0903 0901     		.2byte	0x109
 5118 0905 11       		.uleb128 0x11
 5119 0906 DE040000 		.4byte	.LASF248
 5120 090a 0A01     		.2byte	0x10a
 5121 090c 11       		.uleb128 0x11
 5122 090d 1F340000 		.4byte	.LASF249
 5123 0911 0B01     		.2byte	0x10b
 5124 0913 11       		.uleb128 0x11
 5125 0914 D2240000 		.4byte	.LASF250
 5126 0918 0C01     		.2byte	0x10c
 5127 091a 11       		.uleb128 0x11
 5128 091b 71300000 		.4byte	.LASF251
 5129 091f 0D01     		.2byte	0x10d
 5130 0921 11       		.uleb128 0x11
 5131 0922 B6040000 		.4byte	.LASF252
 5132 0926 0E01     		.2byte	0x10e
 5133 0928 11       		.uleb128 0x11
 5134 0929 4C260000 		.4byte	.LASF253
 5135 092d 0F01     		.2byte	0x10f
 5136 092f 11       		.uleb128 0x11
 5137 0930 8F080000 		.4byte	.LASF254
 5138 0934 1001     		.2byte	0x110
 5139 0936 11       		.uleb128 0x11
 5140 0937 6C3F0000 		.4byte	.LASF255
 5141 093b 1101     		.2byte	0x111
 5142 093d 11       		.uleb128 0x11
 5143 093e FB130000 		.4byte	.LASF256
 5144 0942 1201     		.2byte	0x112
 5145 0944 11       		.uleb128 0x11
 5146 0945 19350000 		.4byte	.LASF257
 5147 0949 1301     		.2byte	0x113
 5148 094b 11       		.uleb128 0x11
 5149 094c E9420000 		.4byte	.LASF258
 5150 0950 1401     		.2byte	0x114
 5151 0952 11       		.uleb128 0x11
 5152 0953 51390000 		.4byte	.LASF259
 5153 0957 1501     		.2byte	0x115
 5154 0959 11       		.uleb128 0x11
 5155 095a B40B0000 		.4byte	.LASF260
 5156 095e 1601     		.2byte	0x116
 5157 0960 11       		.uleb128 0x11
 5158 0961 AB450000 		.4byte	.LASF261
 5159 0965 1701     		.2byte	0x117
 5160 0967 11       		.uleb128 0x11
 5161 0968 F1280000 		.4byte	.LASF262
 5162 096c 1801     		.2byte	0x118
 5163 096e 11       		.uleb128 0x11
 5164 096f 0E0A0000 		.4byte	.LASF263
 5165 0973 1901     		.2byte	0x119
 5166 0975 11       		.uleb128 0x11
 5167 0976 983B0000 		.4byte	.LASF264
 5168 097a 1A01     		.2byte	0x11a
ARM GAS  C:\Users\Administrator\AppData\Local\Temp\ccNQfmEa.s 			page 134


 5169 097c 11       		.uleb128 0x11
 5170 097d 372C0000 		.4byte	.LASF265
 5171 0981 1B01     		.2byte	0x11b
 5172 0983 11       		.uleb128 0x11
 5173 0984 3F3F0000 		.4byte	.LASF266
 5174 0988 1C01     		.2byte	0x11c
 5175 098a 11       		.uleb128 0x11
 5176 098b FD3B0000 		.4byte	.LASF267
 5177 098f 1D01     		.2byte	0x11d
 5178 0991 11       		.uleb128 0x11
 5179 0992 09450000 		.4byte	.LASF268
 5180 0996 1E01     		.2byte	0x11e
 5181 0998 11       		.uleb128 0x11
 5182 0999 7E200000 		.4byte	.LASF269
 5183 099d 1F01     		.2byte	0x11f
 5184 099f 11       		.uleb128 0x11
 5185 09a0 551C0000 		.4byte	.LASF270
 5186 09a4 2001     		.2byte	0x120
 5187 09a6 11       		.uleb128 0x11
 5188 09a7 693A0000 		.4byte	.LASF271
 5189 09ab 2101     		.2byte	0x121
 5190 09ad 11       		.uleb128 0x11
 5191 09ae 7F310000 		.4byte	.LASF272
 5192 09b2 2201     		.2byte	0x122
 5193 09b4 11       		.uleb128 0x11
 5194 09b5 47210000 		.4byte	.LASF273
 5195 09b9 2301     		.2byte	0x123
 5196 09bb 11       		.uleb128 0x11
 5197 09bc 86350000 		.4byte	.LASF274
 5198 09c0 2401     		.2byte	0x124
 5199 09c2 11       		.uleb128 0x11
 5200 09c3 C02F0000 		.4byte	.LASF275
 5201 09c7 2501     		.2byte	0x125
 5202 09c9 11       		.uleb128 0x11
 5203 09ca 8B3D0000 		.4byte	.LASF276
 5204 09ce 2601     		.2byte	0x126
 5205 09d0 11       		.uleb128 0x11
 5206 09d1 FD0F0000 		.4byte	.LASF277
 5207 09d5 2701     		.2byte	0x127
 5208 09d7 11       		.uleb128 0x11
 5209 09d8 B73B0000 		.4byte	.LASF278
 5210 09dc 2801     		.2byte	0x128
 5211 09de 11       		.uleb128 0x11
 5212 09df D8050000 		.4byte	.LASF279
 5213 09e3 2901     		.2byte	0x129
 5214 09e5 11       		.uleb128 0x11
 5215 09e6 0B3B0000 		.4byte	.LASF280
 5216 09ea 2A01     		.2byte	0x12a
 5217 09ec 11       		.uleb128 0x11
 5218 09ed 22040000 		.4byte	.LASF281
 5219 09f1 2B01     		.2byte	0x12b
 5220 09f3 11       		.uleb128 0x11
 5221 09f4 46040000 		.4byte	.LASF282
 5222 09f8 2C01     		.2byte	0x12c
 5223 09fa 11       		.uleb128 0x11
 5224 09fb CC000000 		.4byte	.LASF283
 5225 09ff 2D01     		.2byte	0x12d
ARM GAS  C:\Users\Administrator\AppData\Local\Temp\ccNQfmEa.s 			page 135


 5226 0a01 11       		.uleb128 0x11
 5227 0a02 09330000 		.4byte	.LASF284
 5228 0a06 2E01     		.2byte	0x12e
 5229 0a08 11       		.uleb128 0x11
 5230 0a09 AB440000 		.4byte	.LASF285
 5231 0a0d 2F01     		.2byte	0x12f
 5232 0a0f 11       		.uleb128 0x11
 5233 0a10 8E070000 		.4byte	.LASF286
 5234 0a14 3001     		.2byte	0x130
 5235 0a16 11       		.uleb128 0x11
 5236 0a17 4C2A0000 		.4byte	.LASF287
 5237 0a1b 3101     		.2byte	0x131
 5238 0a1d 11       		.uleb128 0x11
 5239 0a1e 24020000 		.4byte	.LASF288
 5240 0a22 3201     		.2byte	0x132
 5241 0a24 11       		.uleb128 0x11
 5242 0a25 3D180000 		.4byte	.LASF289
 5243 0a29 3301     		.2byte	0x133
 5244 0a2b 11       		.uleb128 0x11
 5245 0a2c 8C2B0000 		.4byte	.LASF290
 5246 0a30 3401     		.2byte	0x134
 5247 0a32 11       		.uleb128 0x11
 5248 0a33 EE000000 		.4byte	.LASF291
 5249 0a37 3501     		.2byte	0x135
 5250 0a39 11       		.uleb128 0x11
 5251 0a3a D8070000 		.4byte	.LASF292
 5252 0a3e 3601     		.2byte	0x136
 5253 0a40 11       		.uleb128 0x11
 5254 0a41 DF020000 		.4byte	.LASF293
 5255 0a45 3701     		.2byte	0x137
 5256 0a47 11       		.uleb128 0x11
 5257 0a48 8A0A0000 		.4byte	.LASF294
 5258 0a4c 3801     		.2byte	0x138
 5259 0a4e 11       		.uleb128 0x11
 5260 0a4f 4E330000 		.4byte	.LASF295
 5261 0a53 3901     		.2byte	0x139
 5262 0a55 11       		.uleb128 0x11
 5263 0a56 4F3A0000 		.4byte	.LASF296
 5264 0a5a 3A01     		.2byte	0x13a
 5265 0a5c 11       		.uleb128 0x11
 5266 0a5d 3C090000 		.4byte	.LASF297
 5267 0a61 3B01     		.2byte	0x13b
 5268 0a63 11       		.uleb128 0x11
 5269 0a64 022E0000 		.4byte	.LASF298
 5270 0a68 3C01     		.2byte	0x13c
 5271 0a6a 11       		.uleb128 0x11
 5272 0a6b AC3E0000 		.4byte	.LASF299
 5273 0a6f 3D01     		.2byte	0x13d
 5274 0a71 11       		.uleb128 0x11
 5275 0a72 88250000 		.4byte	.LASF300
 5276 0a76 3E01     		.2byte	0x13e
 5277 0a78 11       		.uleb128 0x11
 5278 0a79 013F0000 		.4byte	.LASF301
 5279 0a7d 3F01     		.2byte	0x13f
 5280 0a7f 11       		.uleb128 0x11
 5281 0a80 D3090000 		.4byte	.LASF302
 5282 0a84 4001     		.2byte	0x140
ARM GAS  C:\Users\Administrator\AppData\Local\Temp\ccNQfmEa.s 			page 136


 5283 0a86 11       		.uleb128 0x11
 5284 0a87 E02E0000 		.4byte	.LASF303
 5285 0a8b 4101     		.2byte	0x141
 5286 0a8d 11       		.uleb128 0x11
 5287 0a8e B4410000 		.4byte	.LASF304
 5288 0a92 4201     		.2byte	0x142
 5289 0a94 11       		.uleb128 0x11
 5290 0a95 8F3F0000 		.4byte	.LASF305
 5291 0a99 4301     		.2byte	0x143
 5292 0a9b 11       		.uleb128 0x11
 5293 0a9c 08010000 		.4byte	.LASF306
 5294 0aa0 4401     		.2byte	0x144
 5295 0aa2 11       		.uleb128 0x11
 5296 0aa3 3C3B0000 		.4byte	.LASF307
 5297 0aa7 4501     		.2byte	0x145
 5298 0aa9 11       		.uleb128 0x11
 5299 0aaa 51220000 		.4byte	.LASF308
 5300 0aae 4601     		.2byte	0x146
 5301 0ab0 11       		.uleb128 0x11
 5302 0ab1 95390000 		.4byte	.LASF309
 5303 0ab5 4701     		.2byte	0x147
 5304 0ab7 11       		.uleb128 0x11
 5305 0ab8 D0360000 		.4byte	.LASF310
 5306 0abc 4801     		.2byte	0x148
 5307 0abe 11       		.uleb128 0x11
 5308 0abf 8A020000 		.4byte	.LASF311
 5309 0ac3 4901     		.2byte	0x149
 5310 0ac5 11       		.uleb128 0x11
 5311 0ac6 BF350000 		.4byte	.LASF312
 5312 0aca 4A01     		.2byte	0x14a
 5313 0acc 11       		.uleb128 0x11
 5314 0acd 9E110000 		.4byte	.LASF313
 5315 0ad1 4B01     		.2byte	0x14b
 5316 0ad3 11       		.uleb128 0x11
 5317 0ad4 F90A0000 		.4byte	.LASF314
 5318 0ad8 4C01     		.2byte	0x14c
 5319 0ada 11       		.uleb128 0x11
 5320 0adb D60A0000 		.4byte	.LASF315
 5321 0adf 4D01     		.2byte	0x14d
 5322 0ae1 11       		.uleb128 0x11
 5323 0ae2 59110000 		.4byte	.LASF316
 5324 0ae6 4E01     		.2byte	0x14e
 5325 0ae8 11       		.uleb128 0x11
 5326 0ae9 E8230000 		.4byte	.LASF317
 5327 0aed 4F01     		.2byte	0x14f
 5328 0aef 11       		.uleb128 0x11
 5329 0af0 57430000 		.4byte	.LASF318
 5330 0af4 5001     		.2byte	0x150
 5331 0af6 11       		.uleb128 0x11
 5332 0af7 77170000 		.4byte	.LASF319
 5333 0afb 5101     		.2byte	0x151
 5334 0afd 11       		.uleb128 0x11
 5335 0afe 32330000 		.4byte	.LASF320
 5336 0b02 5201     		.2byte	0x152
 5337 0b04 11       		.uleb128 0x11
 5338 0b05 CB080000 		.4byte	.LASF321
 5339 0b09 5301     		.2byte	0x153
ARM GAS  C:\Users\Administrator\AppData\Local\Temp\ccNQfmEa.s 			page 137


 5340 0b0b 11       		.uleb128 0x11
 5341 0b0c F8010000 		.4byte	.LASF322
 5342 0b10 5401     		.2byte	0x154
 5343 0b12 11       		.uleb128 0x11
 5344 0b13 D8210000 		.4byte	.LASF323
 5345 0b17 5501     		.2byte	0x155
 5346 0b19 11       		.uleb128 0x11
 5347 0b1a 23010000 		.4byte	.LASF324
 5348 0b1e 5601     		.2byte	0x156
 5349 0b20 11       		.uleb128 0x11
 5350 0b21 690B0000 		.4byte	.LASF325
 5351 0b25 5701     		.2byte	0x157
 5352 0b27 11       		.uleb128 0x11
 5353 0b28 00400000 		.4byte	.LASF326
 5354 0b2c 5801     		.2byte	0x158
 5355 0b2e 11       		.uleb128 0x11
 5356 0b2f A71A0000 		.4byte	.LASF327
 5357 0b33 5901     		.2byte	0x159
 5358 0b35 11       		.uleb128 0x11
 5359 0b36 69190000 		.4byte	.LASF328
 5360 0b3a 5A01     		.2byte	0x15a
 5361 0b3c 11       		.uleb128 0x11
 5362 0b3d FD060000 		.4byte	.LASF329
 5363 0b41 5B01     		.2byte	0x15b
 5364 0b43 11       		.uleb128 0x11
 5365 0b44 4F3E0000 		.4byte	.LASF330
 5366 0b48 5C01     		.2byte	0x15c
 5367 0b4a 11       		.uleb128 0x11
 5368 0b4b 3D270000 		.4byte	.LASF331
 5369 0b4f 5D01     		.2byte	0x15d
 5370 0b51 11       		.uleb128 0x11
 5371 0b52 FC220000 		.4byte	.LASF332
 5372 0b56 5E01     		.2byte	0x15e
 5373 0b58 11       		.uleb128 0x11
 5374 0b59 05090000 		.4byte	.LASF333
 5375 0b5d 5F01     		.2byte	0x15f
 5376 0b5f 11       		.uleb128 0x11
 5377 0b60 0D080000 		.4byte	.LASF334
 5378 0b64 6001     		.2byte	0x160
 5379 0b66 11       		.uleb128 0x11
 5380 0b67 48020000 		.4byte	.LASF335
 5381 0b6b 6101     		.2byte	0x161
 5382 0b6d 11       		.uleb128 0x11
 5383 0b6e F2270000 		.4byte	.LASF336
 5384 0b72 6201     		.2byte	0x162
 5385 0b74 11       		.uleb128 0x11
 5386 0b75 80450000 		.4byte	.LASF337
 5387 0b79 6301     		.2byte	0x163
 5388 0b7b 11       		.uleb128 0x11
 5389 0b7c BF1C0000 		.4byte	.LASF338
 5390 0b80 6401     		.2byte	0x164
 5391 0b82 11       		.uleb128 0x11
 5392 0b83 8F190000 		.4byte	.LASF339
 5393 0b87 6501     		.2byte	0x165
 5394 0b89 11       		.uleb128 0x11
 5395 0b8a 1B2A0000 		.4byte	.LASF340
 5396 0b8e 6601     		.2byte	0x166
ARM GAS  C:\Users\Administrator\AppData\Local\Temp\ccNQfmEa.s 			page 138


 5397 0b90 11       		.uleb128 0x11
 5398 0b91 AF3C0000 		.4byte	.LASF341
 5399 0b95 6701     		.2byte	0x167
 5400 0b97 11       		.uleb128 0x11
 5401 0b98 BF330000 		.4byte	.LASF342
 5402 0b9c 6801     		.2byte	0x168
 5403 0b9e 11       		.uleb128 0x11
 5404 0b9f 94040000 		.4byte	.LASF343
 5405 0ba3 6901     		.2byte	0x169
 5406 0ba5 11       		.uleb128 0x11
 5407 0ba6 65320000 		.4byte	.LASF344
 5408 0baa 6A01     		.2byte	0x16a
 5409 0bac 11       		.uleb128 0x11
 5410 0bad B71E0000 		.4byte	.LASF345
 5411 0bb1 6B01     		.2byte	0x16b
 5412 0bb3 11       		.uleb128 0x11
 5413 0bb4 9A210000 		.4byte	.LASF346
 5414 0bb8 6C01     		.2byte	0x16c
 5415 0bba 11       		.uleb128 0x11
 5416 0bbb 6B210000 		.4byte	.LASF347
 5417 0bbf 6D01     		.2byte	0x16d
 5418 0bc1 11       		.uleb128 0x11
 5419 0bc2 17380000 		.4byte	.LASF348
 5420 0bc6 6E01     		.2byte	0x16e
 5421 0bc8 11       		.uleb128 0x11
 5422 0bc9 CD170000 		.4byte	.LASF349
 5423 0bcd 6F01     		.2byte	0x16f
 5424 0bcf 11       		.uleb128 0x11
 5425 0bd0 C2270000 		.4byte	.LASF350
 5426 0bd4 7001     		.2byte	0x170
 5427 0bd6 11       		.uleb128 0x11
 5428 0bd7 FA250000 		.4byte	.LASF351
 5429 0bdb 7101     		.2byte	0x171
 5430 0bdd 11       		.uleb128 0x11
 5431 0bde F62A0000 		.4byte	.LASF352
 5432 0be2 7201     		.2byte	0x172
 5433 0be4 11       		.uleb128 0x11
 5434 0be5 D1370000 		.4byte	.LASF353
 5435 0be9 7301     		.2byte	0x173
 5436 0beb 11       		.uleb128 0x11
 5437 0bec E41C0000 		.4byte	.LASF354
 5438 0bf0 7401     		.2byte	0x174
 5439 0bf2 11       		.uleb128 0x11
 5440 0bf3 A7270000 		.4byte	.LASF355
 5441 0bf7 7501     		.2byte	0x175
 5442 0bf9 11       		.uleb128 0x11
 5443 0bfa 5B280000 		.4byte	.LASF356
 5444 0bfe 7601     		.2byte	0x176
 5445 0c00 11       		.uleb128 0x11
 5446 0c01 AD180000 		.4byte	.LASF357
 5447 0c05 7701     		.2byte	0x177
 5448 0c07 11       		.uleb128 0x11
 5449 0c08 5D0E0000 		.4byte	.LASF358
 5450 0c0c 7801     		.2byte	0x178
 5451 0c0e 11       		.uleb128 0x11
 5452 0c0f 20100000 		.4byte	.LASF359
 5453 0c13 7901     		.2byte	0x179
ARM GAS  C:\Users\Administrator\AppData\Local\Temp\ccNQfmEa.s 			page 139


 5454 0c15 11       		.uleb128 0x11
 5455 0c16 2B1E0000 		.4byte	.LASF360
 5456 0c1a 7A01     		.2byte	0x17a
 5457 0c1c 11       		.uleb128 0x11
 5458 0c1d 0F0D0000 		.4byte	.LASF361
 5459 0c21 7B01     		.2byte	0x17b
 5460 0c23 11       		.uleb128 0x11
 5461 0c24 DB3B0000 		.4byte	.LASF362
 5462 0c28 7C01     		.2byte	0x17c
 5463 0c2a 11       		.uleb128 0x11
 5464 0c2b ED330000 		.4byte	.LASF363
 5465 0c2f 7D01     		.2byte	0x17d
 5466 0c31 11       		.uleb128 0x11
 5467 0c32 661D0000 		.4byte	.LASF364
 5468 0c36 7E01     		.2byte	0x17e
 5469 0c38 11       		.uleb128 0x11
 5470 0c39 F3240000 		.4byte	.LASF365
 5471 0c3d 7F01     		.2byte	0x17f
 5472 0c3f 11       		.uleb128 0x11
 5473 0c40 AF020000 		.4byte	.LASF366
 5474 0c44 8001     		.2byte	0x180
 5475 0c46 11       		.uleb128 0x11
 5476 0c47 622E0000 		.4byte	.LASF367
 5477 0c4b 8101     		.2byte	0x181
 5478 0c4d 11       		.uleb128 0x11
 5479 0c4e 17430000 		.4byte	.LASF368
 5480 0c52 8201     		.2byte	0x182
 5481 0c54 11       		.uleb128 0x11
 5482 0c55 AD3D0000 		.4byte	.LASF369
 5483 0c59 8301     		.2byte	0x183
 5484 0c5b 11       		.uleb128 0x11
 5485 0c5c 6D380000 		.4byte	.LASF370
 5486 0c60 8401     		.2byte	0x184
 5487 0c62 11       		.uleb128 0x11
 5488 0c63 4B030000 		.4byte	.LASF371
 5489 0c67 8501     		.2byte	0x185
 5490 0c69 11       		.uleb128 0x11
 5491 0c6a 7B150000 		.4byte	.LASF372
 5492 0c6e 8601     		.2byte	0x186
 5493 0c70 11       		.uleb128 0x11
 5494 0c71 AA3F0000 		.4byte	.LASF373
 5495 0c75 8701     		.2byte	0x187
 5496 0c77 11       		.uleb128 0x11
 5497 0c78 A6460000 		.4byte	.LASF374
 5498 0c7c 8801     		.2byte	0x188
 5499 0c7e 11       		.uleb128 0x11
 5500 0c7f 9C280000 		.4byte	.LASF375
 5501 0c83 8901     		.2byte	0x189
 5502 0c85 11       		.uleb128 0x11
 5503 0c86 3F450000 		.4byte	.LASF376
 5504 0c8a 8A01     		.2byte	0x18a
 5505 0c8c 11       		.uleb128 0x11
 5506 0c8d 39280000 		.4byte	.LASF377
 5507 0c91 8B01     		.2byte	0x18b
 5508 0c93 11       		.uleb128 0x11
 5509 0c94 3F0F0000 		.4byte	.LASF378
 5510 0c98 8C01     		.2byte	0x18c
ARM GAS  C:\Users\Administrator\AppData\Local\Temp\ccNQfmEa.s 			page 140


 5511 0c9a 11       		.uleb128 0x11
 5512 0c9b 711E0000 		.4byte	.LASF379
 5513 0c9f 8D01     		.2byte	0x18d
 5514 0ca1 11       		.uleb128 0x11
 5515 0ca2 471B0000 		.4byte	.LASF380
 5516 0ca6 8E01     		.2byte	0x18e
 5517 0ca8 11       		.uleb128 0x11
 5518 0ca9 910E0000 		.4byte	.LASF381
 5519 0cad 8F01     		.2byte	0x18f
 5520 0caf 11       		.uleb128 0x11
 5521 0cb0 F4360000 		.4byte	.LASF382
 5522 0cb4 9001     		.2byte	0x190
 5523 0cb6 11       		.uleb128 0x11
 5524 0cb7 2E1F0000 		.4byte	.LASF383
 5525 0cbb 9101     		.2byte	0x191
 5526 0cbd 11       		.uleb128 0x11
 5527 0cbe 6B2F0000 		.4byte	.LASF384
 5528 0cc2 9201     		.2byte	0x192
 5529 0cc4 11       		.uleb128 0x11
 5530 0cc5 65050000 		.4byte	.LASF385
 5531 0cc9 9301     		.2byte	0x193
 5532 0ccb 11       		.uleb128 0x11
 5533 0ccc 91170000 		.4byte	.LASF386
 5534 0cd0 9401     		.2byte	0x194
 5535 0cd2 11       		.uleb128 0x11
 5536 0cd3 421D0000 		.4byte	.LASF387
 5537 0cd7 9501     		.2byte	0x195
 5538 0cd9 11       		.uleb128 0x11
 5539 0cda 2B470000 		.4byte	.LASF388
 5540 0cde 9601     		.2byte	0x196
 5541 0ce0 11       		.uleb128 0x11
 5542 0ce1 202F0000 		.4byte	.LASF389
 5543 0ce5 9701     		.2byte	0x197
 5544 0ce7 11       		.uleb128 0x11
 5545 0ce8 9E2F0000 		.4byte	.LASF390
 5546 0cec 9801     		.2byte	0x198
 5547 0cee 11       		.uleb128 0x11
 5548 0cef D3340000 		.4byte	.LASF391
 5549 0cf3 9901     		.2byte	0x199
 5550 0cf5 11       		.uleb128 0x11
 5551 0cf6 761A0000 		.4byte	.LASF392
 5552 0cfa 9A01     		.2byte	0x19a
 5553 0cfc 11       		.uleb128 0x11
 5554 0cfd 93370000 		.4byte	.LASF393
 5555 0d01 9B01     		.2byte	0x19b
 5556 0d03 11       		.uleb128 0x11
 5557 0d04 620D0000 		.4byte	.LASF394
 5558 0d08 9C01     		.2byte	0x19c
 5559 0d0a 11       		.uleb128 0x11
 5560 0d0b 3C000000 		.4byte	.LASF395
 5561 0d0f 9D01     		.2byte	0x19d
 5562 0d11 11       		.uleb128 0x11
 5563 0d12 283D0000 		.4byte	.LASF396
 5564 0d16 9E01     		.2byte	0x19e
 5565 0d18 11       		.uleb128 0x11
 5566 0d19 D9150000 		.4byte	.LASF397
 5567 0d1d 9F01     		.2byte	0x19f
ARM GAS  C:\Users\Administrator\AppData\Local\Temp\ccNQfmEa.s 			page 141


 5568 0d1f 11       		.uleb128 0x11
 5569 0d20 CB460000 		.4byte	.LASF398
 5570 0d24 A001     		.2byte	0x1a0
 5571 0d26 11       		.uleb128 0x11
 5572 0d27 F7200000 		.4byte	.LASF399
 5573 0d2b A101     		.2byte	0x1a1
 5574 0d2d 11       		.uleb128 0x11
 5575 0d2e 4D240000 		.4byte	.LASF400
 5576 0d32 A201     		.2byte	0x1a2
 5577 0d34 11       		.uleb128 0x11
 5578 0d35 58460000 		.4byte	.LASF401
 5579 0d39 A301     		.2byte	0x1a3
 5580 0d3b 11       		.uleb128 0x11
 5581 0d3c BF390000 		.4byte	.LASF402
 5582 0d40 A401     		.2byte	0x1a4
 5583 0d42 11       		.uleb128 0x11
 5584 0d43 C32B0000 		.4byte	.LASF403
 5585 0d47 A501     		.2byte	0x1a5
 5586 0d49 11       		.uleb128 0x11
 5587 0d4a 252E0000 		.4byte	.LASF404
 5588 0d4e A601     		.2byte	0x1a6
 5589 0d50 11       		.uleb128 0x11
 5590 0d51 C7400000 		.4byte	.LASF405
 5591 0d55 A701     		.2byte	0x1a7
 5592 0d57 11       		.uleb128 0x11
 5593 0d58 641F0000 		.4byte	.LASF406
 5594 0d5c A801     		.2byte	0x1a8
 5595 0d5e 11       		.uleb128 0x11
 5596 0d5f 331A0000 		.4byte	.LASF407
 5597 0d63 A901     		.2byte	0x1a9
 5598 0d65 11       		.uleb128 0x11
 5599 0d66 1B270000 		.4byte	.LASF408
 5600 0d6a AA01     		.2byte	0x1aa
 5601 0d6c 11       		.uleb128 0x11
 5602 0d6d F83D0000 		.4byte	.LASF409
 5603 0d71 AB01     		.2byte	0x1ab
 5604 0d73 11       		.uleb128 0x11
 5605 0d74 89340000 		.4byte	.LASF410
 5606 0d78 AC01     		.2byte	0x1ac
 5607 0d7a 11       		.uleb128 0x11
 5608 0d7b 71040000 		.4byte	.LASF411
 5609 0d7f AD01     		.2byte	0x1ad
 5610 0d81 11       		.uleb128 0x11
 5611 0d82 29310000 		.4byte	.LASF412
 5612 0d86 AE01     		.2byte	0x1ae
 5613 0d88 11       		.uleb128 0x11
 5614 0d89 270B0000 		.4byte	.LASF413
 5615 0d8d AF01     		.2byte	0x1af
 5616 0d8f 11       		.uleb128 0x11
 5617 0d90 C3230000 		.4byte	.LASF414
 5618 0d94 B001     		.2byte	0x1b0
 5619 0d96 11       		.uleb128 0x11
 5620 0d97 B7370000 		.4byte	.LASF415
 5621 0d9b B101     		.2byte	0x1b1
 5622 0d9d 11       		.uleb128 0x11
 5623 0d9e 20070000 		.4byte	.LASF416
 5624 0da2 B201     		.2byte	0x1b2
ARM GAS  C:\Users\Administrator\AppData\Local\Temp\ccNQfmEa.s 			page 142


 5625 0da4 11       		.uleb128 0x11
 5626 0da5 81330000 		.4byte	.LASF417
 5627 0da9 B301     		.2byte	0x1b3
 5628 0dab 11       		.uleb128 0x11
 5629 0dac A3310000 		.4byte	.LASF418
 5630 0db0 B401     		.2byte	0x1b4
 5631 0db2 11       		.uleb128 0x11
 5632 0db3 D31B0000 		.4byte	.LASF419
 5633 0db7 B501     		.2byte	0x1b5
 5634 0db9 11       		.uleb128 0x11
 5635 0dba AB200000 		.4byte	.LASF420
 5636 0dbe B601     		.2byte	0x1b6
 5637 0dc0 11       		.uleb128 0x11
 5638 0dc1 D9260000 		.4byte	.LASF421
 5639 0dc5 B701     		.2byte	0x1b7
 5640 0dc7 11       		.uleb128 0x11
 5641 0dc8 80010000 		.4byte	.LASF422
 5642 0dcc B801     		.2byte	0x1b8
 5643 0dce 11       		.uleb128 0x11
 5644 0dcf 821F0000 		.4byte	.LASF423
 5645 0dd3 B901     		.2byte	0x1b9
 5646 0dd5 11       		.uleb128 0x11
 5647 0dd6 AA360000 		.4byte	.LASF424
 5648 0dda BA01     		.2byte	0x1ba
 5649 0ddc 11       		.uleb128 0x11
 5650 0ddd BD210000 		.4byte	.LASF425
 5651 0de1 BB01     		.2byte	0x1bb
 5652 0de3 11       		.uleb128 0x11
 5653 0de4 6D000000 		.4byte	.LASF426
 5654 0de8 BC01     		.2byte	0x1bc
 5655 0dea 11       		.uleb128 0x11
 5656 0deb 3F070000 		.4byte	.LASF427
 5657 0def BD01     		.2byte	0x1bd
 5658 0df1 11       		.uleb128 0x11
 5659 0df2 E30B0000 		.4byte	.LASF428
 5660 0df6 BE01     		.2byte	0x1be
 5661 0df8 11       		.uleb128 0x11
 5662 0df9 0C170000 		.4byte	.LASF429
 5663 0dfd BF01     		.2byte	0x1bf
 5664 0dff 11       		.uleb128 0x11
 5665 0e00 F9390000 		.4byte	.LASF430
 5666 0e04 C001     		.2byte	0x1c0
 5667 0e06 11       		.uleb128 0x11
 5668 0e07 F5450000 		.4byte	.LASF431
 5669 0e0b C101     		.2byte	0x1c1
 5670 0e0d 11       		.uleb128 0x11
 5671 0e0e 081F0000 		.4byte	.LASF432
 5672 0e12 C201     		.2byte	0x1c2
 5673 0e14 11       		.uleb128 0x11
 5674 0e15 F9100000 		.4byte	.LASF433
 5675 0e19 C301     		.2byte	0x1c3
 5676 0e1b 11       		.uleb128 0x11
 5677 0e1c B3190000 		.4byte	.LASF434
 5678 0e20 C401     		.2byte	0x1c4
 5679 0e22 11       		.uleb128 0x11
 5680 0e23 3C2F0000 		.4byte	.LASF435
 5681 0e27 C501     		.2byte	0x1c5
ARM GAS  C:\Users\Administrator\AppData\Local\Temp\ccNQfmEa.s 			page 143


 5682 0e29 11       		.uleb128 0x11
 5683 0e2a 05050000 		.4byte	.LASF436
 5684 0e2e C601     		.2byte	0x1c6
 5685 0e30 11       		.uleb128 0x11
 5686 0e31 A8380000 		.4byte	.LASF437
 5687 0e35 C701     		.2byte	0x1c7
 5688 0e37 11       		.uleb128 0x11
 5689 0e38 C3110000 		.4byte	.LASF438
 5690 0e3c C801     		.2byte	0x1c8
 5691 0e3e 11       		.uleb128 0x11
 5692 0e3f 3E230000 		.4byte	.LASF439
 5693 0e43 C901     		.2byte	0x1c9
 5694 0e45 11       		.uleb128 0x11
 5695 0e46 F3180000 		.4byte	.LASF440
 5696 0e4a CA01     		.2byte	0x1ca
 5697 0e4c 11       		.uleb128 0x11
 5698 0e4d 24400000 		.4byte	.LASF441
 5699 0e51 CB01     		.2byte	0x1cb
 5700 0e53 11       		.uleb128 0x11
 5701 0e54 D1030000 		.4byte	.LASF442
 5702 0e58 CC01     		.2byte	0x1cc
 5703 0e5a 11       		.uleb128 0x11
 5704 0e5b 61010000 		.4byte	.LASF443
 5705 0e5f CD01     		.2byte	0x1cd
 5706 0e61 11       		.uleb128 0x11
 5707 0e62 FC150000 		.4byte	.LASF444
 5708 0e66 CE01     		.2byte	0x1ce
 5709 0e68 11       		.uleb128 0x11
 5710 0e69 8E130000 		.4byte	.LASF445
 5711 0e6d CF01     		.2byte	0x1cf
 5712 0e6f 11       		.uleb128 0x11
 5713 0e70 D02A0000 		.4byte	.LASF446
 5714 0e74 D001     		.2byte	0x1d0
 5715 0e76 11       		.uleb128 0x11
 5716 0e77 D03D0000 		.4byte	.LASF447
 5717 0e7b D101     		.2byte	0x1d1
 5718 0e7d 11       		.uleb128 0x11
 5719 0e7e 1C280000 		.4byte	.LASF448
 5720 0e82 D201     		.2byte	0x1d2
 5721 0e84 11       		.uleb128 0x11
 5722 0e85 6F370000 		.4byte	.LASF449
 5723 0e89 D301     		.2byte	0x1d3
 5724 0e8b 11       		.uleb128 0x11
 5725 0e8c 63140000 		.4byte	.LASF450
 5726 0e90 D401     		.2byte	0x1d4
 5727 0e92 11       		.uleb128 0x11
 5728 0e93 8A050000 		.4byte	.LASF451
 5729 0e97 D501     		.2byte	0x1d5
 5730 0e99 11       		.uleb128 0x11
 5731 0e9a D80E0000 		.4byte	.LASF452
 5732 0e9e D601     		.2byte	0x1d6
 5733 0ea0 11       		.uleb128 0x11
 5734 0ea1 E8140000 		.4byte	.LASF453
 5735 0ea5 D701     		.2byte	0x1d7
 5736 0ea7 11       		.uleb128 0x11
 5737 0ea8 9F240000 		.4byte	.LASF454
 5738 0eac D801     		.2byte	0x1d8
ARM GAS  C:\Users\Administrator\AppData\Local\Temp\ccNQfmEa.s 			page 144


 5739 0eae 11       		.uleb128 0x11
 5740 0eaf D6100000 		.4byte	.LASF455
 5741 0eb3 D901     		.2byte	0x1d9
 5742 0eb5 11       		.uleb128 0x11
 5743 0eb6 17190000 		.4byte	.LASF456
 5744 0eba DA01     		.2byte	0x1da
 5745 0ebc 11       		.uleb128 0x11
 5746 0ebd C93C0000 		.4byte	.LASF457
 5747 0ec1 DB01     		.2byte	0x1db
 5748 0ec3 11       		.uleb128 0x11
 5749 0ec4 E9160000 		.4byte	.LASF458
 5750 0ec8 DC01     		.2byte	0x1dc
 5751 0eca 11       		.uleb128 0x11
 5752 0ecb 070C0000 		.4byte	.LASF459
 5753 0ecf DD01     		.2byte	0x1dd
 5754 0ed1 11       		.uleb128 0x11
 5755 0ed2 C7300000 		.4byte	.LASF460
 5756 0ed6 DE01     		.2byte	0x1de
 5757 0ed8 11       		.uleb128 0x11
 5758 0ed9 781C0000 		.4byte	.LASF461
 5759 0edd DF01     		.2byte	0x1df
 5760 0edf 11       		.uleb128 0x11
 5761 0ee0 DD0D0000 		.4byte	.LASF462
 5762 0ee4 E001     		.2byte	0x1e0
 5763 0ee6 11       		.uleb128 0x11
 5764 0ee7 CF440000 		.4byte	.LASF463
 5765 0eeb E101     		.2byte	0x1e1
 5766 0eed 11       		.uleb128 0x11
 5767 0eee 22090000 		.4byte	.LASF464
 5768 0ef2 E201     		.2byte	0x1e2
 5769 0ef4 11       		.uleb128 0x11
 5770 0ef5 38290000 		.4byte	.LASF465
 5771 0ef9 E301     		.2byte	0x1e3
 5772 0efb 11       		.uleb128 0x11
 5773 0efc 1A000000 		.4byte	.LASF466
 5774 0f00 E401     		.2byte	0x1e4
 5775 0f02 11       		.uleb128 0x11
 5776 0f03 DD2C0000 		.4byte	.LASF467
 5777 0f07 E501     		.2byte	0x1e5
 5778 0f09 11       		.uleb128 0x11
 5779 0f0a 573D0000 		.4byte	.LASF468
 5780 0f0e E601     		.2byte	0x1e6
 5781 0f10 11       		.uleb128 0x11
 5782 0f11 41050000 		.4byte	.LASF469
 5783 0f15 E701     		.2byte	0x1e7
 5784 0f17 11       		.uleb128 0x11
 5785 0f18 4D360000 		.4byte	.LASF470
 5786 0f1c E801     		.2byte	0x1e8
 5787 0f1e 11       		.uleb128 0x11
 5788 0f1f 93260000 		.4byte	.LASF471
 5789 0f23 E901     		.2byte	0x1e9
 5790 0f25 11       		.uleb128 0x11
 5791 0f26 F2170000 		.4byte	.LASF472
 5792 0f2a EA01     		.2byte	0x1ea
 5793 0f2c 11       		.uleb128 0x11
 5794 0f2d C21F0000 		.4byte	.LASF473
 5795 0f31 EB01     		.2byte	0x1eb
ARM GAS  C:\Users\Administrator\AppData\Local\Temp\ccNQfmEa.s 			page 145


 5796 0f33 11       		.uleb128 0x11
 5797 0f34 932E0000 		.4byte	.LASF474
 5798 0f38 EC01     		.2byte	0x1ec
 5799 0f3a 11       		.uleb128 0x11
 5800 0f3b 06470000 		.4byte	.LASF475
 5801 0f3f ED01     		.2byte	0x1ed
 5802 0f41 11       		.uleb128 0x11
 5803 0f42 181A0000 		.4byte	.LASF476
 5804 0f46 EE01     		.2byte	0x1ee
 5805 0f48 11       		.uleb128 0x11
 5806 0f49 A3010000 		.4byte	.LASF477
 5807 0f4d EF01     		.2byte	0x1ef
 5808 0f4f 11       		.uleb128 0x11
 5809 0f50 122D0000 		.4byte	.LASF478
 5810 0f54 F001     		.2byte	0x1f0
 5811 0f56 11       		.uleb128 0x11
 5812 0f57 54290000 		.4byte	.LASF479
 5813 0f5b F101     		.2byte	0x1f1
 5814 0f5d 11       		.uleb128 0x11
 5815 0f5e 901B0000 		.4byte	.LASF480
 5816 0f62 F201     		.2byte	0x1f2
 5817 0f64 11       		.uleb128 0x11
 5818 0f65 2D390000 		.4byte	.LASF481
 5819 0f69 F301     		.2byte	0x1f3
 5820 0f6b 11       		.uleb128 0x11
 5821 0f6c 25410000 		.4byte	.LASF482
 5822 0f70 F401     		.2byte	0x1f4
 5823 0f72 11       		.uleb128 0x11
 5824 0f73 D6010000 		.4byte	.LASF483
 5825 0f77 F501     		.2byte	0x1f5
 5826 0f79 11       		.uleb128 0x11
 5827 0f7a 4D310000 		.4byte	.LASF484
 5828 0f7e F601     		.2byte	0x1f6
 5829 0f80 11       		.uleb128 0x11
 5830 0f81 75160000 		.4byte	.LASF485
 5831 0f85 F701     		.2byte	0x1f7
 5832 0f87 11       		.uleb128 0x11
 5833 0f88 75180000 		.4byte	.LASF486
 5834 0f8c F801     		.2byte	0x1f8
 5835 0f8e 11       		.uleb128 0x11
 5836 0f8f 1A460000 		.4byte	.LASF487
 5837 0f93 F901     		.2byte	0x1f9
 5838 0f95 11       		.uleb128 0x11
 5839 0f96 DE110000 		.4byte	.LASF488
 5840 0f9a FA01     		.2byte	0x1fa
 5841 0f9c 11       		.uleb128 0x11
 5842 0f9d D90F0000 		.4byte	.LASF489
 5843 0fa1 FB01     		.2byte	0x1fb
 5844 0fa3 11       		.uleb128 0x11
 5845 0fa4 482E0000 		.4byte	.LASF490
 5846 0fa8 00E0     		.2byte	0xe000
 5847 0faa 00       		.byte	0
 5848 0fab 15       		.uleb128 0x15
 5849 0fac F53C0000 		.4byte	.LASF498
 5850 0fb0 01       		.byte	0x1
 5851 0fb1 16       		.byte	0x16
 5852 0fb2 01       		.byte	0x1
ARM GAS  C:\Users\Administrator\AppData\Local\Temp\ccNQfmEa.s 			page 146


 5853 0fb3 0E100000 		.4byte	0x100e
 5854 0fb7 16       		.uleb128 0x16
 5855 0fb8 13220000 		.4byte	.LASF491
 5856 0fbc 01       		.byte	0x1
 5857 0fbd 16       		.byte	0x16
 5858 0fbe 99000000 		.4byte	0x99
 5859 0fc2 16       		.uleb128 0x16
 5860 0fc3 D4020000 		.4byte	.LASF492
 5861 0fc7 01       		.byte	0x1
 5862 0fc8 16       		.byte	0x16
 5863 0fc9 DE000000 		.4byte	0xde
 5864 0fcd 17       		.uleb128 0x17
 5865 0fce 23370000 		.4byte	.LASF493
 5866 0fd2 01       		.byte	0x1
 5867 0fd3 18       		.byte	0x18
 5868 0fd4 EA020000 		.4byte	0x2ea
 5869 0fd8 17       		.uleb128 0x17
 5870 0fd9 CF0F0000 		.4byte	.LASF494
 5871 0fdd 01       		.byte	0x1
 5872 0fde 19       		.byte	0x19
 5873 0fdf 26030000 		.4byte	0x326
 5874 0fe3 17       		.uleb128 0x17
 5875 0fe4 98060000 		.4byte	.LASF495
 5876 0fe8 01       		.byte	0x1
 5877 0fe9 1A       		.byte	0x1a
 5878 0fea 0E100000 		.4byte	0x100e
 5879 0fee 17       		.uleb128 0x17
 5880 0fef A5400000 		.4byte	.LASF496
 5881 0ff3 01       		.byte	0x1
 5882 0ff4 1B       		.byte	0x1b
 5883 0ff5 5C080000 		.4byte	0x85c
 5884 0ff9 18       		.uleb128 0x18
 5885 0ffa 6900     		.ascii	"i\000"
 5886 0ffc 01       		.byte	0x1
 5887 0ffd 1C       		.byte	0x1c
 5888 0ffe 81000000 		.4byte	0x81
 5889 1002 17       		.uleb128 0x17
 5890 1003 F50C0000 		.4byte	.LASF497
 5891 1007 01       		.byte	0x1
 5892 1008 1D       		.byte	0x1d
 5893 1009 14100000 		.4byte	0x1014
 5894 100d 00       		.byte	0
 5895 100e 08       		.uleb128 0x8
 5896 100f 04       		.byte	0x4
 5897 1010 D6030000 		.4byte	0x3d6
 5898 1014 08       		.uleb128 0x8
 5899 1015 04       		.byte	0x4
 5900 1016 1A060000 		.4byte	0x61a
 5901 101a 19       		.uleb128 0x19
 5902 101b A0200000 		.4byte	.LASF499
 5903 101f 01       		.byte	0x1
 5904 1020 D301     		.2byte	0x1d3
 5905 1022 01       		.byte	0x1
 5906 1023 34100000 		.4byte	0x1034
 5907 1027 1A       		.uleb128 0x1a
 5908 1028 C2280000 		.4byte	.LASF500
 5909 102c 01       		.byte	0x1
ARM GAS  C:\Users\Administrator\AppData\Local\Temp\ccNQfmEa.s 			page 147


 5910 102d D501     		.2byte	0x1d5
 5911 102f 8D000000 		.4byte	0x8d
 5912 1033 00       		.byte	0
 5913 1034 1B       		.uleb128 0x1b
 5914 1035 F52D0000 		.4byte	.LASF501
 5915 1039 01       		.byte	0x1
 5916 103a E302     		.2byte	0x2e3
 5917 103c 01       		.byte	0x1
 5918 103d 1B       		.uleb128 0x1b
 5919 103e 4E080000 		.4byte	.LASF502
 5920 1042 01       		.byte	0x1
 5921 1043 2203     		.2byte	0x322
 5922 1045 01       		.byte	0x1
 5923 1046 19       		.uleb128 0x19
 5924 1047 570F0000 		.4byte	.LASF503
 5925 104b 01       		.byte	0x1
 5926 104c 1F07     		.2byte	0x71f
 5927 104e 01       		.byte	0x1
 5928 104f 60100000 		.4byte	0x1060
 5929 1053 1A       		.uleb128 0x1a
 5930 1054 691B0000 		.4byte	.LASF504
 5931 1058 01       		.byte	0x1
 5932 1059 2107     		.2byte	0x721
 5933 105b 99000000 		.4byte	0x99
 5934 105f 00       		.byte	0
 5935 1060 1B       		.uleb128 0x1b
 5936 1061 41370000 		.4byte	.LASF505
 5937 1065 01       		.byte	0x1
 5938 1066 4D07     		.2byte	0x74d
 5939 1068 01       		.byte	0x1
 5940 1069 19       		.uleb128 0x19
 5941 106a E2430000 		.4byte	.LASF506
 5942 106e 01       		.byte	0x1
 5943 106f 6A07     		.2byte	0x76a
 5944 1071 01       		.byte	0x1
 5945 1072 83100000 		.4byte	0x1083
 5946 1076 1A       		.uleb128 0x1a
 5947 1077 691B0000 		.4byte	.LASF504
 5948 107b 01       		.byte	0x1
 5949 107c 6C07     		.2byte	0x76c
 5950 107e 99000000 		.4byte	0x99
 5951 1082 00       		.byte	0
 5952 1083 19       		.uleb128 0x19
 5953 1084 B5400000 		.4byte	.LASF507
 5954 1088 01       		.byte	0x1
 5955 1089 9707     		.2byte	0x797
 5956 108b 01       		.byte	0x1
 5957 108c 9D100000 		.4byte	0x109d
 5958 1090 1A       		.uleb128 0x1a
 5959 1091 691B0000 		.4byte	.LASF504
 5960 1095 01       		.byte	0x1
 5961 1096 9907     		.2byte	0x799
 5962 1098 99000000 		.4byte	0x99
 5963 109c 00       		.byte	0
 5964 109d 1C       		.uleb128 0x1c
 5965 109e AB0F0000 		.4byte	0xfab
 5966 10a2 00000000 		.4byte	.LFB63
ARM GAS  C:\Users\Administrator\AppData\Local\Temp\ccNQfmEa.s 			page 148


 5967 10a6 74000000 		.4byte	.LFE63-.LFB63
 5968 10aa 01       		.uleb128 0x1
 5969 10ab 9C       		.byte	0x9c
 5970 10ac 80110000 		.4byte	0x1180
 5971 10b0 1D       		.uleb128 0x1d
 5972 10b1 B70F0000 		.4byte	0xfb7
 5973 10b5 00000000 		.4byte	.LLST0
 5974 10b9 1D       		.uleb128 0x1d
 5975 10ba C20F0000 		.4byte	0xfc2
 5976 10be 53000000 		.4byte	.LLST1
 5977 10c2 1E       		.uleb128 0x1e
 5978 10c3 CD0F0000 		.4byte	0xfcd
 5979 10c7 1E       		.uleb128 0x1e
 5980 10c8 D80F0000 		.4byte	0xfd8
 5981 10cc 1E       		.uleb128 0x1e
 5982 10cd E30F0000 		.4byte	0xfe3
 5983 10d1 1E       		.uleb128 0x1e
 5984 10d2 EE0F0000 		.4byte	0xfee
 5985 10d6 1E       		.uleb128 0x1e
 5986 10d7 F90F0000 		.4byte	0xff9
 5987 10db 1F       		.uleb128 0x1f
 5988 10dc 02100000 		.4byte	0x1002
 5989 10e0 B1000000 		.4byte	.LLST2
 5990 10e4 20       		.uleb128 0x20
 5991 10e5 22000000 		.4byte	.LBB4
 5992 10e9 3A000000 		.4byte	.LBE4-.LBB4
 5993 10ed 5A110000 		.4byte	0x115a
 5994 10f1 1D       		.uleb128 0x1d
 5995 10f2 B70F0000 		.4byte	0xfb7
 5996 10f6 0F010000 		.4byte	.LLST3
 5997 10fa 1D       		.uleb128 0x1d
 5998 10fb C20F0000 		.4byte	0xfc2
 5999 10ff 23010000 		.4byte	.LLST4
 6000 1103 21       		.uleb128 0x21
 6001 1104 22000000 		.4byte	.LBB5
 6002 1108 3A000000 		.4byte	.LBE5-.LBB5
 6003 110c 1E       		.uleb128 0x1e
 6004 110d CD0F0000 		.4byte	0xfcd
 6005 1111 22       		.uleb128 0x22
 6006 1112 D80F0000 		.4byte	0xfd8
 6007 1116 02       		.uleb128 0x2
 6008 1117 91       		.byte	0x91
 6009 1118 68       		.sleb128 -24
 6010 1119 1E       		.uleb128 0x1e
 6011 111a E30F0000 		.4byte	0xfe3
 6012 111e 22       		.uleb128 0x22
 6013 111f EE0F0000 		.4byte	0xfee
 6014 1123 02       		.uleb128 0x2
 6015 1124 91       		.byte	0x91
 6016 1125 64       		.sleb128 -28
 6017 1126 1F       		.uleb128 0x1f
 6018 1127 F90F0000 		.4byte	0xff9
 6019 112b 44010000 		.4byte	.LLST5
 6020 112f 1E       		.uleb128 0x1e
 6021 1130 02100000 		.4byte	0x1002
 6022 1134 23       		.uleb128 0x23
 6023 1135 30000000 		.4byte	.LVL6
ARM GAS  C:\Users\Administrator\AppData\Local\Temp\ccNQfmEa.s 			page 149


 6024 1139 E72C0000 		.4byte	0x2ce7
 6025 113d 48110000 		.4byte	0x1148
 6026 1141 24       		.uleb128 0x24
 6027 1142 01       		.uleb128 0x1
 6028 1143 50       		.byte	0x50
 6029 1144 02       		.uleb128 0x2
 6030 1145 91       		.byte	0x91
 6031 1146 64       		.sleb128 -28
 6032 1147 00       		.byte	0
 6033 1148 25       		.uleb128 0x25
 6034 1149 46000000 		.4byte	.LVL7
 6035 114d F32C0000 		.4byte	0x2cf3
 6036 1151 24       		.uleb128 0x24
 6037 1152 01       		.uleb128 0x1
 6038 1153 50       		.byte	0x50
 6039 1154 02       		.uleb128 0x2
 6040 1155 75       		.byte	0x75
 6041 1156 00       		.sleb128 0
 6042 1157 00       		.byte	0
 6043 1158 00       		.byte	0
 6044 1159 00       		.byte	0
 6045 115a 26       		.uleb128 0x26
 6046 115b 20000000 		.4byte	.LVL3
 6047 115f FF2C0000 		.4byte	0x2cff
 6048 1163 23       		.uleb128 0x23
 6049 1164 62000000 		.4byte	.LVL11
 6050 1168 0A2D0000 		.4byte	0x2d0a
 6051 116c 76110000 		.4byte	0x1176
 6052 1170 24       		.uleb128 0x24
 6053 1171 01       		.uleb128 0x1
 6054 1172 50       		.byte	0x50
 6055 1173 01       		.uleb128 0x1
 6056 1174 30       		.byte	0x30
 6057 1175 00       		.byte	0
 6058 1176 26       		.uleb128 0x26
 6059 1177 6A000000 		.4byte	.LVL14
 6060 117b 162D0000 		.4byte	0x2d16
 6061 117f 00       		.byte	0
 6062 1180 27       		.uleb128 0x27
 6063 1181 62410000 		.4byte	.LASF510
 6064 1185 01       		.byte	0x1
 6065 1186 CC       		.byte	0xcc
 6066 1187 00000000 		.4byte	.LFB64
 6067 118b 50000000 		.4byte	.LFE64-.LFB64
 6068 118f 01       		.uleb128 0x1
 6069 1190 9C       		.byte	0x9c
 6070 1191 0D120000 		.4byte	0x120d
 6071 1195 28       		.uleb128 0x28
 6072 1196 5F400000 		.4byte	.LASF508
 6073 119a 01       		.byte	0x1
 6074 119b CE       		.byte	0xce
 6075 119c 52060000 		.4byte	0x652
 6076 11a0 65010000 		.4byte	.LLST6
 6077 11a4 28       		.uleb128 0x28
 6078 11a5 EE120000 		.4byte	.LASF509
 6079 11a9 01       		.byte	0x1
 6080 11aa CF       		.byte	0xcf
ARM GAS  C:\Users\Administrator\AppData\Local\Temp\ccNQfmEa.s 			page 150


 6081 11ab 81000000 		.4byte	0x81
 6082 11af 78010000 		.4byte	.LLST7
 6083 11b3 23       		.uleb128 0x23
 6084 11b4 12000000 		.4byte	.LVL15
 6085 11b8 222D0000 		.4byte	0x2d22
 6086 11bc C6110000 		.4byte	0x11c6
 6087 11c0 24       		.uleb128 0x24
 6088 11c1 01       		.uleb128 0x1
 6089 11c2 50       		.byte	0x50
 6090 11c3 01       		.uleb128 0x1
 6091 11c4 33       		.byte	0x33
 6092 11c5 00       		.byte	0
 6093 11c6 26       		.uleb128 0x26
 6094 11c7 18000000 		.4byte	.LVL17
 6095 11cb 2E2D0000 		.4byte	0x2d2e
 6096 11cf 26       		.uleb128 0x26
 6097 11d0 22000000 		.4byte	.LVL19
 6098 11d4 392D0000 		.4byte	0x2d39
 6099 11d8 26       		.uleb128 0x26
 6100 11d9 2A000000 		.4byte	.LVL20
 6101 11dd 452D0000 		.4byte	0x2d45
 6102 11e1 26       		.uleb128 0x26
 6103 11e2 30000000 		.4byte	.LVL21
 6104 11e6 392D0000 		.4byte	0x2d39
 6105 11ea 26       		.uleb128 0x26
 6106 11eb 3A000000 		.4byte	.LVL22
 6107 11ef 392D0000 		.4byte	0x2d39
 6108 11f3 26       		.uleb128 0x26
 6109 11f4 42000000 		.4byte	.LVL23
 6110 11f8 502D0000 		.4byte	0x2d50
 6111 11fc 25       		.uleb128 0x25
 6112 11fd 48000000 		.4byte	.LVL24
 6113 1201 5B2D0000 		.4byte	0x2d5b
 6114 1205 24       		.uleb128 0x24
 6115 1206 01       		.uleb128 0x1
 6116 1207 50       		.byte	0x50
 6117 1208 02       		.uleb128 0x2
 6118 1209 74       		.byte	0x74
 6119 120a 00       		.sleb128 0
 6120 120b 00       		.byte	0
 6121 120c 00       		.byte	0
 6122 120d 29       		.uleb128 0x29
 6123 120e 991A0000 		.4byte	.LASF511
 6124 1212 01       		.byte	0x1
 6125 1213 0801     		.2byte	0x108
 6126 1215 00000000 		.4byte	.LFB65
 6127 1219 1C000000 		.4byte	.LFE65-.LFB65
 6128 121d 01       		.uleb128 0x1
 6129 121e 9C       		.byte	0x9c
 6130 121f 3F120000 		.4byte	0x123f
 6131 1223 26       		.uleb128 0x26
 6132 1224 06000000 		.4byte	.LVL25
 6133 1228 662D0000 		.4byte	0x2d66
 6134 122c 26       		.uleb128 0x26
 6135 122d 0A000000 		.4byte	.LVL26
 6136 1231 712D0000 		.4byte	0x2d71
 6137 1235 26       		.uleb128 0x26
ARM GAS  C:\Users\Administrator\AppData\Local\Temp\ccNQfmEa.s 			page 151


 6138 1236 16000000 		.4byte	.LVL27
 6139 123a 7D2D0000 		.4byte	0x2d7d
 6140 123e 00       		.byte	0
 6141 123f 2A       		.uleb128 0x2a
 6142 1240 B4230000 		.4byte	.LASF512
 6143 1244 01       		.byte	0x1
 6144 1245 3E01     		.2byte	0x13e
 6145 1247 00000000 		.4byte	.LFB67
 6146 124b 20000000 		.4byte	.LFE67-.LFB67
 6147 124f 01       		.uleb128 0x1
 6148 1250 9C       		.byte	0x9c
 6149 1251 91120000 		.4byte	0x1291
 6150 1255 2B       		.uleb128 0x2b
 6151 1256 6D7300   		.ascii	"ms\000"
 6152 1259 01       		.byte	0x1
 6153 125a 3E01     		.2byte	0x13e
 6154 125c 99000000 		.4byte	0x99
 6155 1260 8B010000 		.4byte	.LLST8
 6156 1264 2C       		.uleb128 0x2c
 6157 1265 E1310000 		.4byte	.LASF513
 6158 1269 01       		.byte	0x1
 6159 126a 4001     		.2byte	0x140
 6160 126c 99000000 		.4byte	0x99
 6161 1270 AC010000 		.4byte	.LLST9
 6162 1274 23       		.uleb128 0x23
 6163 1275 16000000 		.4byte	.LVL31
 6164 1279 882D0000 		.4byte	0x2d88
 6165 127d 87120000 		.4byte	0x1287
 6166 1281 24       		.uleb128 0x24
 6167 1282 01       		.uleb128 0x1
 6168 1283 50       		.byte	0x50
 6169 1284 01       		.uleb128 0x1
 6170 1285 35       		.byte	0x35
 6171 1286 00       		.byte	0
 6172 1287 26       		.uleb128 0x26
 6173 1288 1C000000 		.4byte	.LVL33
 6174 128c 0D120000 		.4byte	0x120d
 6175 1290 00       		.byte	0
 6176 1291 29       		.uleb128 0x29
 6177 1292 A9220000 		.4byte	.LASF514
 6178 1296 01       		.byte	0x1
 6179 1297 5001     		.2byte	0x150
 6180 1299 00000000 		.4byte	.LFB68
 6181 129d 16000000 		.4byte	.LFE68-.LFB68
 6182 12a1 01       		.uleb128 0x1
 6183 12a2 9C       		.byte	0x9c
 6184 12a3 DD120000 		.4byte	0x12dd
 6185 12a7 23       		.uleb128 0x23
 6186 12a8 08000000 		.4byte	.LVL35
 6187 12ac 932D0000 		.4byte	0x2d93
 6188 12b0 BA120000 		.4byte	0x12ba
 6189 12b4 24       		.uleb128 0x24
 6190 12b5 01       		.uleb128 0x1
 6191 12b6 50       		.byte	0x50
 6192 12b7 01       		.uleb128 0x1
 6193 12b8 31       		.byte	0x31
 6194 12b9 00       		.byte	0
ARM GAS  C:\Users\Administrator\AppData\Local\Temp\ccNQfmEa.s 			page 152


 6195 12ba 23       		.uleb128 0x23
 6196 12bb 0E000000 		.4byte	.LVL36
 6197 12bf 9E2D0000 		.4byte	0x2d9e
 6198 12c3 CD120000 		.4byte	0x12cd
 6199 12c7 24       		.uleb128 0x24
 6200 12c8 01       		.uleb128 0x1
 6201 12c9 50       		.byte	0x50
 6202 12ca 01       		.uleb128 0x1
 6203 12cb 31       		.byte	0x31
 6204 12cc 00       		.byte	0
 6205 12cd 25       		.uleb128 0x25
 6206 12ce 14000000 		.4byte	.LVL37
 6207 12d2 A92D0000 		.4byte	0x2da9
 6208 12d6 24       		.uleb128 0x24
 6209 12d7 01       		.uleb128 0x1
 6210 12d8 50       		.byte	0x50
 6211 12d9 01       		.uleb128 0x1
 6212 12da 31       		.byte	0x31
 6213 12db 00       		.byte	0
 6214 12dc 00       		.byte	0
 6215 12dd 29       		.uleb128 0x29
 6216 12de A53C0000 		.4byte	.LASF515
 6217 12e2 01       		.byte	0x1
 6218 12e3 5F01     		.2byte	0x15f
 6219 12e5 00000000 		.4byte	.LFB69
 6220 12e9 0E000000 		.4byte	.LFE69-.LFB69
 6221 12ed 01       		.uleb128 0x1
 6222 12ee 9C       		.byte	0x9c
 6223 12ef 0C130000 		.4byte	0x130c
 6224 12f3 26       		.uleb128 0x26
 6225 12f4 06000000 		.4byte	.LVL38
 6226 12f8 91120000 		.4byte	0x1291
 6227 12fc 25       		.uleb128 0x25
 6228 12fd 0C000000 		.4byte	.LVL39
 6229 1301 932D0000 		.4byte	0x2d93
 6230 1305 24       		.uleb128 0x24
 6231 1306 01       		.uleb128 0x1
 6232 1307 50       		.byte	0x50
 6233 1308 01       		.uleb128 0x1
 6234 1309 30       		.byte	0x30
 6235 130a 00       		.byte	0
 6236 130b 00       		.byte	0
 6237 130c 29       		.uleb128 0x29
 6238 130d 9A120000 		.4byte	.LASF516
 6239 1311 01       		.byte	0x1
 6240 1312 6D01     		.2byte	0x16d
 6241 1314 00000000 		.4byte	.LFB70
 6242 1318 0E000000 		.4byte	.LFE70-.LFB70
 6243 131c 01       		.uleb128 0x1
 6244 131d 9C       		.byte	0x9c
 6245 131e 3B130000 		.4byte	0x133b
 6246 1322 26       		.uleb128 0x26
 6247 1323 06000000 		.4byte	.LVL40
 6248 1327 91120000 		.4byte	0x1291
 6249 132b 25       		.uleb128 0x25
 6250 132c 0C000000 		.4byte	.LVL41
 6251 1330 A92D0000 		.4byte	0x2da9
ARM GAS  C:\Users\Administrator\AppData\Local\Temp\ccNQfmEa.s 			page 153


 6252 1334 24       		.uleb128 0x24
 6253 1335 01       		.uleb128 0x1
 6254 1336 50       		.byte	0x50
 6255 1337 01       		.uleb128 0x1
 6256 1338 30       		.byte	0x30
 6257 1339 00       		.byte	0
 6258 133a 00       		.byte	0
 6259 133b 29       		.uleb128 0x29
 6260 133c 99160000 		.4byte	.LASF517
 6261 1340 01       		.byte	0x1
 6262 1341 7B01     		.2byte	0x17b
 6263 1343 00000000 		.4byte	.LFB71
 6264 1347 0E000000 		.4byte	.LFE71-.LFB71
 6265 134b 01       		.uleb128 0x1
 6266 134c 9C       		.byte	0x9c
 6267 134d 6A130000 		.4byte	0x136a
 6268 1351 26       		.uleb128 0x26
 6269 1352 06000000 		.4byte	.LVL42
 6270 1356 91120000 		.4byte	0x1291
 6271 135a 25       		.uleb128 0x25
 6272 135b 0C000000 		.4byte	.LVL43
 6273 135f 9E2D0000 		.4byte	0x2d9e
 6274 1363 24       		.uleb128 0x24
 6275 1364 01       		.uleb128 0x1
 6276 1365 50       		.byte	0x50
 6277 1366 01       		.uleb128 0x1
 6278 1367 30       		.byte	0x30
 6279 1368 00       		.byte	0
 6280 1369 00       		.byte	0
 6281 136a 19       		.uleb128 0x19
 6282 136b C90A0000 		.4byte	.LASF518
 6283 136f 01       		.byte	0x1
 6284 1370 8901     		.2byte	0x189
 6285 1372 01       		.byte	0x1
 6286 1373 84130000 		.4byte	0x1384
 6287 1377 2D       		.uleb128 0x2d
 6288 1378 53746100 		.ascii	"Sta\000"
 6289 137c 01       		.byte	0x1
 6290 137d 8901     		.2byte	0x189
 6291 137f 81000000 		.4byte	0x81
 6292 1383 00       		.byte	0
 6293 1384 1C       		.uleb128 0x1c
 6294 1385 6A130000 		.4byte	0x136a
 6295 1389 00000000 		.4byte	.LFB72
 6296 138d 2A000000 		.4byte	.LFE72-.LFB72
 6297 1391 01       		.uleb128 0x1
 6298 1392 9C       		.byte	0x9c
 6299 1393 C5130000 		.4byte	0x13c5
 6300 1397 1D       		.uleb128 0x1d
 6301 1398 77130000 		.4byte	0x1377
 6302 139c E3010000 		.4byte	.LLST10
 6303 13a0 26       		.uleb128 0x26
 6304 13a1 0A000000 		.4byte	.LVL45
 6305 13a5 91120000 		.4byte	0x1291
 6306 13a9 26       		.uleb128 0x26
 6307 13aa 14000000 		.4byte	.LVL47
 6308 13ae DD120000 		.4byte	0x12dd
ARM GAS  C:\Users\Administrator\AppData\Local\Temp\ccNQfmEa.s 			page 154


 6309 13b2 26       		.uleb128 0x26
 6310 13b3 1E000000 		.4byte	.LVL49
 6311 13b7 0C130000 		.4byte	0x130c
 6312 13bb 26       		.uleb128 0x26
 6313 13bc 28000000 		.4byte	.LVL51
 6314 13c0 3B130000 		.4byte	0x133b
 6315 13c4 00       		.byte	0
 6316 13c5 29       		.uleb128 0x29
 6317 13c6 3B3C0000 		.4byte	.LASF519
 6318 13ca 01       		.byte	0x1
 6319 13cb A501     		.2byte	0x1a5
 6320 13cd 00000000 		.4byte	.LFB73
 6321 13d1 0A000000 		.4byte	.LFE73-.LFB73
 6322 13d5 01       		.uleb128 0x1
 6323 13d6 9C       		.byte	0x9c
 6324 13d7 EB130000 		.4byte	0x13eb
 6325 13db 25       		.uleb128 0x25
 6326 13dc 08000000 		.4byte	.LVL52
 6327 13e0 B42D0000 		.4byte	0x2db4
 6328 13e4 24       		.uleb128 0x24
 6329 13e5 01       		.uleb128 0x1
 6330 13e6 50       		.byte	0x50
 6331 13e7 01       		.uleb128 0x1
 6332 13e8 31       		.byte	0x31
 6333 13e9 00       		.byte	0
 6334 13ea 00       		.byte	0
 6335 13eb 29       		.uleb128 0x29
 6336 13ec 7D110000 		.4byte	.LASF520
 6337 13f0 01       		.byte	0x1
 6338 13f1 B201     		.2byte	0x1b2
 6339 13f3 00000000 		.4byte	.LFB74
 6340 13f7 0A000000 		.4byte	.LFE74-.LFB74
 6341 13fb 01       		.uleb128 0x1
 6342 13fc 9C       		.byte	0x9c
 6343 13fd 11140000 		.4byte	0x1411
 6344 1401 25       		.uleb128 0x25
 6345 1402 08000000 		.4byte	.LVL53
 6346 1406 B42D0000 		.4byte	0x2db4
 6347 140a 24       		.uleb128 0x24
 6348 140b 01       		.uleb128 0x1
 6349 140c 50       		.byte	0x50
 6350 140d 01       		.uleb128 0x1
 6351 140e 30       		.byte	0x30
 6352 140f 00       		.byte	0
 6353 1410 00       		.byte	0
 6354 1411 2E       		.uleb128 0x2e
 6355 1412 550D0000 		.4byte	.LASF711
 6356 1416 01       		.byte	0x1
 6357 1417 BF01     		.2byte	0x1bf
 6358 1419 81000000 		.4byte	0x81
 6359 141d 00000000 		.4byte	.LFB75
 6360 1421 0E000000 		.4byte	.LFE75-.LFB75
 6361 1425 01       		.uleb128 0x1
 6362 1426 9C       		.byte	0x9c
 6363 1427 45140000 		.4byte	0x1445
 6364 142b 2F       		.uleb128 0x2f
 6365 142c 72657400 		.ascii	"ret\000"
ARM GAS  C:\Users\Administrator\AppData\Local\Temp\ccNQfmEa.s 			page 155


 6366 1430 01       		.byte	0x1
 6367 1431 C101     		.2byte	0x1c1
 6368 1433 81000000 		.4byte	0x81
 6369 1437 4F020000 		.4byte	.LLST11
 6370 143b 26       		.uleb128 0x26
 6371 143c 06000000 		.4byte	.LVL55
 6372 1440 BF2D0000 		.4byte	0x2dbf
 6373 1444 00       		.byte	0
 6374 1445 1C       		.uleb128 0x1c
 6375 1446 1A100000 		.4byte	0x101a
 6376 144a 00000000 		.4byte	.LFB76
 6377 144e 3A000000 		.4byte	.LFE76-.LFB76
 6378 1452 01       		.uleb128 0x1
 6379 1453 9C       		.byte	0x9c
 6380 1454 D2140000 		.4byte	0x14d2
 6381 1458 30       		.uleb128 0x30
 6382 1459 27100000 		.4byte	0x1027
 6383 145d 00       		.byte	0
 6384 145e 20       		.uleb128 0x20
 6385 145f 0C000000 		.4byte	.LBB9
 6386 1463 2C000000 		.4byte	.LBE9-.LBB9
 6387 1467 C8140000 		.4byte	0x14c8
 6388 146b 1F       		.uleb128 0x1f
 6389 146c 27100000 		.4byte	0x1027
 6390 1470 6E020000 		.4byte	.LLST12
 6391 1474 23       		.uleb128 0x23
 6392 1475 12000000 		.4byte	.LVL59
 6393 1479 882D0000 		.4byte	0x2d88
 6394 147d 87140000 		.4byte	0x1487
 6395 1481 24       		.uleb128 0x24
 6396 1482 01       		.uleb128 0x1
 6397 1483 50       		.byte	0x50
 6398 1484 01       		.uleb128 0x1
 6399 1485 4E       		.byte	0x4e
 6400 1486 00       		.byte	0
 6401 1487 23       		.uleb128 0x23
 6402 1488 18000000 		.4byte	.LVL60
 6403 148c CA2D0000 		.4byte	0x2dca
 6404 1490 9B140000 		.4byte	0x149b
 6405 1494 24       		.uleb128 0x24
 6406 1495 01       		.uleb128 0x1
 6407 1496 50       		.byte	0x50
 6408 1497 02       		.uleb128 0x2
 6409 1498 74       		.byte	0x74
 6410 1499 00       		.sleb128 0
 6411 149a 00       		.byte	0
 6412 149b 26       		.uleb128 0x26
 6413 149c 1E000000 		.4byte	.LVL62
 6414 14a0 D52D0000 		.4byte	0x2dd5
 6415 14a4 23       		.uleb128 0x23
 6416 14a5 30000000 		.4byte	.LVL64
 6417 14a9 3F120000 		.4byte	0x123f
 6418 14ad B8140000 		.4byte	0x14b8
 6419 14b1 24       		.uleb128 0x24
 6420 14b2 01       		.uleb128 0x1
 6421 14b3 50       		.byte	0x50
 6422 14b4 02       		.uleb128 0x2
ARM GAS  C:\Users\Administrator\AppData\Local\Temp\ccNQfmEa.s 			page 156


 6423 14b5 08       		.byte	0x8
 6424 14b6 64       		.byte	0x64
 6425 14b7 00       		.byte	0
 6426 14b8 25       		.uleb128 0x25
 6427 14b9 38000000 		.4byte	.LVL66
 6428 14bd CA2D0000 		.4byte	0x2dca
 6429 14c1 24       		.uleb128 0x24
 6430 14c2 01       		.uleb128 0x1
 6431 14c3 50       		.byte	0x50
 6432 14c4 01       		.uleb128 0x1
 6433 14c5 30       		.byte	0x30
 6434 14c6 00       		.byte	0
 6435 14c7 00       		.byte	0
 6436 14c8 26       		.uleb128 0x26
 6437 14c9 06000000 		.4byte	.LVL58
 6438 14cd D52D0000 		.4byte	0x2dd5
 6439 14d1 00       		.byte	0
 6440 14d2 29       		.uleb128 0x29
 6441 14d3 402A0000 		.4byte	.LASF521
 6442 14d7 01       		.byte	0x1
 6443 14d8 EC01     		.2byte	0x1ec
 6444 14da 00000000 		.4byte	.LFB77
 6445 14de 9C000000 		.4byte	.LFE77-.LFB77
 6446 14e2 01       		.uleb128 0x1
 6447 14e3 9C       		.byte	0x9c
 6448 14e4 F4150000 		.4byte	0x15f4
 6449 14e8 2C       		.uleb128 0x2c
 6450 14e9 C2280000 		.4byte	.LASF500
 6451 14ed 01       		.byte	0x1
 6452 14ee EE01     		.2byte	0x1ee
 6453 14f0 81000000 		.4byte	0x81
 6454 14f4 96020000 		.4byte	.LLST13
 6455 14f8 26       		.uleb128 0x26
 6456 14f9 06000000 		.4byte	.LVL68
 6457 14fd D52D0000 		.4byte	0x2dd5
 6458 1501 23       		.uleb128 0x23
 6459 1502 12000000 		.4byte	.LVL69
 6460 1506 882D0000 		.4byte	0x2d88
 6461 150a 14150000 		.4byte	0x1514
 6462 150e 24       		.uleb128 0x24
 6463 150f 01       		.uleb128 0x1
 6464 1510 50       		.byte	0x50
 6465 1511 01       		.uleb128 0x1
 6466 1512 4E       		.byte	0x4e
 6467 1513 00       		.byte	0
 6468 1514 23       		.uleb128 0x23
 6469 1515 18000000 		.4byte	.LVL70
 6470 1519 CA2D0000 		.4byte	0x2dca
 6471 151d 28150000 		.4byte	0x1528
 6472 1521 24       		.uleb128 0x24
 6473 1522 01       		.uleb128 0x1
 6474 1523 50       		.byte	0x50
 6475 1524 02       		.uleb128 0x2
 6476 1525 74       		.byte	0x74
 6477 1526 00       		.sleb128 0
 6478 1527 00       		.byte	0
 6479 1528 26       		.uleb128 0x26
ARM GAS  C:\Users\Administrator\AppData\Local\Temp\ccNQfmEa.s 			page 157


 6480 1529 1E000000 		.4byte	.LVL72
 6481 152d D52D0000 		.4byte	0x2dd5
 6482 1531 23       		.uleb128 0x23
 6483 1532 30000000 		.4byte	.LVL74
 6484 1536 3F120000 		.4byte	0x123f
 6485 153a 45150000 		.4byte	0x1545
 6486 153e 24       		.uleb128 0x24
 6487 153f 01       		.uleb128 0x1
 6488 1540 50       		.byte	0x50
 6489 1541 02       		.uleb128 0x2
 6490 1542 08       		.byte	0x8
 6491 1543 64       		.byte	0x64
 6492 1544 00       		.byte	0
 6493 1545 23       		.uleb128 0x23
 6494 1546 38000000 		.4byte	.LVL76
 6495 154a CA2D0000 		.4byte	0x2dca
 6496 154e 58150000 		.4byte	0x1558
 6497 1552 24       		.uleb128 0x24
 6498 1553 01       		.uleb128 0x1
 6499 1554 50       		.byte	0x50
 6500 1555 01       		.uleb128 0x1
 6501 1556 30       		.byte	0x30
 6502 1557 00       		.byte	0
 6503 1558 26       		.uleb128 0x26
 6504 1559 3C000000 		.4byte	.LVL77
 6505 155d E02D0000 		.4byte	0x2de0
 6506 1561 23       		.uleb128 0x23
 6507 1562 42000000 		.4byte	.LVL78
 6508 1566 3F120000 		.4byte	0x123f
 6509 156a 76150000 		.4byte	0x1576
 6510 156e 24       		.uleb128 0x24
 6511 156f 01       		.uleb128 0x1
 6512 1570 50       		.byte	0x50
 6513 1571 03       		.uleb128 0x3
 6514 1572 0A       		.byte	0xa
 6515 1573 B80B     		.2byte	0xbb8
 6516 1575 00       		.byte	0
 6517 1576 26       		.uleb128 0x26
 6518 1577 46000000 		.4byte	.LVL79
 6519 157b EB2D0000 		.4byte	0x2deb
 6520 157f 23       		.uleb128 0x23
 6521 1580 4E000000 		.4byte	.LVL80
 6522 1584 3F120000 		.4byte	0x123f
 6523 1588 94150000 		.4byte	0x1594
 6524 158c 24       		.uleb128 0x24
 6525 158d 01       		.uleb128 0x1
 6526 158e 50       		.byte	0x50
 6527 158f 03       		.uleb128 0x3
 6528 1590 0A       		.byte	0xa
 6529 1591 A00F     		.2byte	0xfa0
 6530 1593 00       		.byte	0
 6531 1594 26       		.uleb128 0x26
 6532 1595 60000000 		.4byte	.LVL81
 6533 1599 F62D0000 		.4byte	0x2df6
 6534 159d 23       		.uleb128 0x23
 6535 159e 6C000000 		.4byte	.LVL82
 6536 15a2 3F120000 		.4byte	0x123f
ARM GAS  C:\Users\Administrator\AppData\Local\Temp\ccNQfmEa.s 			page 158


 6537 15a6 B2150000 		.4byte	0x15b2
 6538 15aa 24       		.uleb128 0x24
 6539 15ab 01       		.uleb128 0x1
 6540 15ac 50       		.byte	0x50
 6541 15ad 03       		.uleb128 0x3
 6542 15ae 0A       		.byte	0xa
 6543 15af F401     		.2byte	0x1f4
 6544 15b1 00       		.byte	0
 6545 15b2 26       		.uleb128 0x26
 6546 15b3 70000000 		.4byte	.LVL83
 6547 15b7 012E0000 		.4byte	0x2e01
 6548 15bb 26       		.uleb128 0x26
 6549 15bc 74000000 		.4byte	.LVL84
 6550 15c0 0C2E0000 		.4byte	0x2e0c
 6551 15c4 23       		.uleb128 0x23
 6552 15c5 7C000000 		.4byte	.LVL85
 6553 15c9 3F120000 		.4byte	0x123f
 6554 15cd D9150000 		.4byte	0x15d9
 6555 15d1 24       		.uleb128 0x24
 6556 15d2 01       		.uleb128 0x1
 6557 15d3 50       		.byte	0x50
 6558 15d4 03       		.uleb128 0x3
 6559 15d5 0A       		.byte	0xa
 6560 15d6 F401     		.2byte	0x1f4
 6561 15d8 00       		.byte	0
 6562 15d9 26       		.uleb128 0x26
 6563 15da 80000000 		.4byte	.LVL86
 6564 15de 172E0000 		.4byte	0x2e17
 6565 15e2 25       		.uleb128 0x25
 6566 15e3 88000000 		.4byte	.LVL87
 6567 15e7 3F120000 		.4byte	0x123f
 6568 15eb 24       		.uleb128 0x24
 6569 15ec 01       		.uleb128 0x1
 6570 15ed 50       		.byte	0x50
 6571 15ee 03       		.uleb128 0x3
 6572 15ef 0A       		.byte	0xa
 6573 15f0 DC05     		.2byte	0x5dc
 6574 15f2 00       		.byte	0
 6575 15f3 00       		.byte	0
 6576 15f4 29       		.uleb128 0x29
 6577 15f5 3F350000 		.4byte	.LASF522
 6578 15f9 01       		.byte	0x1
 6579 15fa 1D02     		.2byte	0x21d
 6580 15fc 00000000 		.4byte	.LFB78
 6581 1600 74000000 		.4byte	.LFE78-.LFB78
 6582 1604 01       		.uleb128 0x1
 6583 1605 9C       		.byte	0x9c
 6584 1606 C1160000 		.4byte	0x16c1
 6585 160a 26       		.uleb128 0x26
 6586 160b 06000000 		.4byte	.LVL88
 6587 160f 1A100000 		.4byte	0x101a
 6588 1613 26       		.uleb128 0x26
 6589 1614 0C000000 		.4byte	.LVL89
 6590 1618 222E0000 		.4byte	0x2e22
 6591 161c 26       		.uleb128 0x26
 6592 161d 10000000 		.4byte	.LVL90
 6593 1621 2D2E0000 		.4byte	0x2e2d
ARM GAS  C:\Users\Administrator\AppData\Local\Temp\ccNQfmEa.s 			page 159


 6594 1625 26       		.uleb128 0x26
 6595 1626 14000000 		.4byte	.LVL91
 6596 162a E02D0000 		.4byte	0x2de0
 6597 162e 23       		.uleb128 0x23
 6598 162f 1C000000 		.4byte	.LVL92
 6599 1633 3F120000 		.4byte	0x123f
 6600 1637 43160000 		.4byte	0x1643
 6601 163b 24       		.uleb128 0x24
 6602 163c 01       		.uleb128 0x1
 6603 163d 50       		.byte	0x50
 6604 163e 03       		.uleb128 0x3
 6605 163f 0A       		.byte	0xa
 6606 1640 D007     		.2byte	0x7d0
 6607 1642 00       		.byte	0
 6608 1643 26       		.uleb128 0x26
 6609 1644 20000000 		.4byte	.LVL93
 6610 1648 EB2D0000 		.4byte	0x2deb
 6611 164c 23       		.uleb128 0x23
 6612 164d 28000000 		.4byte	.LVL94
 6613 1651 3F120000 		.4byte	0x123f
 6614 1655 61160000 		.4byte	0x1661
 6615 1659 24       		.uleb128 0x24
 6616 165a 01       		.uleb128 0x1
 6617 165b 50       		.byte	0x50
 6618 165c 03       		.uleb128 0x3
 6619 165d 0A       		.byte	0xa
 6620 165e A00F     		.2byte	0xfa0
 6621 1660 00       		.byte	0
 6622 1661 26       		.uleb128 0x26
 6623 1662 3A000000 		.4byte	.LVL95
 6624 1666 F62D0000 		.4byte	0x2df6
 6625 166a 23       		.uleb128 0x23
 6626 166b 46000000 		.4byte	.LVL96
 6627 166f 3F120000 		.4byte	0x123f
 6628 1673 7F160000 		.4byte	0x167f
 6629 1677 24       		.uleb128 0x24
 6630 1678 01       		.uleb128 0x1
 6631 1679 50       		.byte	0x50
 6632 167a 03       		.uleb128 0x3
 6633 167b 0A       		.byte	0xa
 6634 167c F401     		.2byte	0x1f4
 6635 167e 00       		.byte	0
 6636 167f 26       		.uleb128 0x26
 6637 1680 4A000000 		.4byte	.LVL97
 6638 1684 012E0000 		.4byte	0x2e01
 6639 1688 26       		.uleb128 0x26
 6640 1689 4E000000 		.4byte	.LVL98
 6641 168d 0C2E0000 		.4byte	0x2e0c
 6642 1691 23       		.uleb128 0x23
 6643 1692 56000000 		.4byte	.LVL99
 6644 1696 3F120000 		.4byte	0x123f
 6645 169a A6160000 		.4byte	0x16a6
 6646 169e 24       		.uleb128 0x24
 6647 169f 01       		.uleb128 0x1
 6648 16a0 50       		.byte	0x50
 6649 16a1 03       		.uleb128 0x3
 6650 16a2 0A       		.byte	0xa
ARM GAS  C:\Users\Administrator\AppData\Local\Temp\ccNQfmEa.s 			page 160


 6651 16a3 F401     		.2byte	0x1f4
 6652 16a5 00       		.byte	0
 6653 16a6 26       		.uleb128 0x26
 6654 16a7 5A000000 		.4byte	.LVL100
 6655 16ab 172E0000 		.4byte	0x2e17
 6656 16af 25       		.uleb128 0x25
 6657 16b0 62000000 		.4byte	.LVL101
 6658 16b4 3F120000 		.4byte	0x123f
 6659 16b8 24       		.uleb128 0x24
 6660 16b9 01       		.uleb128 0x1
 6661 16ba 50       		.byte	0x50
 6662 16bb 03       		.uleb128 0x3
 6663 16bc 0A       		.byte	0xa
 6664 16bd DC05     		.2byte	0x5dc
 6665 16bf 00       		.byte	0
 6666 16c0 00       		.byte	0
 6667 16c1 29       		.uleb128 0x29
 6668 16c2 2F180000 		.4byte	.LASF523
 6669 16c6 01       		.byte	0x1
 6670 16c7 4802     		.2byte	0x248
 6671 16c9 00000000 		.4byte	.LFB79
 6672 16cd 3C000000 		.4byte	.LFE79-.LFB79
 6673 16d1 01       		.uleb128 0x1
 6674 16d2 9C       		.byte	0x9c
 6675 16d3 3B170000 		.4byte	0x173b
 6676 16d7 2C       		.uleb128 0x2c
 6677 16d8 C2280000 		.4byte	.LASF500
 6678 16dc 01       		.byte	0x1
 6679 16dd 4A02     		.2byte	0x24a
 6680 16df 81000000 		.4byte	0x81
 6681 16e3 CA020000 		.4byte	.LLST14
 6682 16e7 26       		.uleb128 0x26
 6683 16e8 06000000 		.4byte	.LVL103
 6684 16ec D52D0000 		.4byte	0x2dd5
 6685 16f0 26       		.uleb128 0x26
 6686 16f1 10000000 		.4byte	.LVL104
 6687 16f5 CA2D0000 		.4byte	0x2dca
 6688 16f9 26       		.uleb128 0x26
 6689 16fa 16000000 		.4byte	.LVL106
 6690 16fe D52D0000 		.4byte	0x2dd5
 6691 1702 23       		.uleb128 0x23
 6692 1703 28000000 		.4byte	.LVL108
 6693 1707 3F120000 		.4byte	0x123f
 6694 170b 16170000 		.4byte	0x1716
 6695 170f 24       		.uleb128 0x24
 6696 1710 01       		.uleb128 0x1
 6697 1711 50       		.byte	0x50
 6698 1712 02       		.uleb128 0x2
 6699 1713 08       		.byte	0x8
 6700 1714 64       		.byte	0x64
 6701 1715 00       		.byte	0
 6702 1716 23       		.uleb128 0x23
 6703 1717 30000000 		.4byte	.LVL110
 6704 171b CA2D0000 		.4byte	0x2dca
 6705 171f 29170000 		.4byte	0x1729
 6706 1723 24       		.uleb128 0x24
 6707 1724 01       		.uleb128 0x1
ARM GAS  C:\Users\Administrator\AppData\Local\Temp\ccNQfmEa.s 			page 161


 6708 1725 50       		.byte	0x50
 6709 1726 01       		.uleb128 0x1
 6710 1727 30       		.byte	0x30
 6711 1728 00       		.byte	0
 6712 1729 25       		.uleb128 0x25
 6713 172a 36000000 		.4byte	.LVL111
 6714 172e 3F120000 		.4byte	0x123f
 6715 1732 24       		.uleb128 0x24
 6716 1733 01       		.uleb128 0x1
 6717 1734 50       		.byte	0x50
 6718 1735 03       		.uleb128 0x3
 6719 1736 0A       		.byte	0xa
 6720 1737 1027     		.2byte	0x2710
 6721 1739 00       		.byte	0
 6722 173a 00       		.byte	0
 6723 173b 29       		.uleb128 0x29
 6724 173c 1B410000 		.4byte	.LASF524
 6725 1740 01       		.byte	0x1
 6726 1741 6102     		.2byte	0x261
 6727 1743 00000000 		.4byte	.LFB80
 6728 1747 16000000 		.4byte	.LFE80-.LFB80
 6729 174b 01       		.uleb128 0x1
 6730 174c 9C       		.byte	0x9c
 6731 174d 87170000 		.4byte	0x1787
 6732 1751 23       		.uleb128 0x23
 6733 1752 08000000 		.4byte	.LVL112
 6734 1756 382E0000 		.4byte	0x2e38
 6735 175a 64170000 		.4byte	0x1764
 6736 175e 24       		.uleb128 0x24
 6737 175f 01       		.uleb128 0x1
 6738 1760 50       		.byte	0x50
 6739 1761 01       		.uleb128 0x1
 6740 1762 31       		.byte	0x31
 6741 1763 00       		.byte	0
 6742 1764 23       		.uleb128 0x23
 6743 1765 0E000000 		.4byte	.LVL113
 6744 1769 3F120000 		.4byte	0x123f
 6745 176d 77170000 		.4byte	0x1777
 6746 1771 24       		.uleb128 0x24
 6747 1772 01       		.uleb128 0x1
 6748 1773 50       		.byte	0x50
 6749 1774 01       		.uleb128 0x1
 6750 1775 49       		.byte	0x49
 6751 1776 00       		.byte	0
 6752 1777 25       		.uleb128 0x25
 6753 1778 14000000 		.4byte	.LVL114
 6754 177c 382E0000 		.4byte	0x2e38
 6755 1780 24       		.uleb128 0x24
 6756 1781 01       		.uleb128 0x1
 6757 1782 50       		.byte	0x50
 6758 1783 01       		.uleb128 0x1
 6759 1784 30       		.byte	0x30
 6760 1785 00       		.byte	0
 6761 1786 00       		.byte	0
 6762 1787 31       		.uleb128 0x31
 6763 1788 74220000 		.4byte	.LASF525
 6764 178c 01       		.byte	0x1
ARM GAS  C:\Users\Administrator\AppData\Local\Temp\ccNQfmEa.s 			page 162


 6765 178d 7002     		.2byte	0x270
 6766 178f 00000000 		.4byte	.LFB81
 6767 1793 14000000 		.4byte	.LFE81-.LFB81
 6768 1797 01       		.uleb128 0x1
 6769 1798 9C       		.byte	0x9c
 6770 1799 31       		.uleb128 0x31
 6771 179a 1C110000 		.4byte	.LASF526
 6772 179e 01       		.byte	0x1
 6773 179f 8002     		.2byte	0x280
 6774 17a1 00000000 		.4byte	.LFB82
 6775 17a5 1C000000 		.4byte	.LFE82-.LFB82
 6776 17a9 01       		.uleb128 0x1
 6777 17aa 9C       		.byte	0x9c
 6778 17ab 31       		.uleb128 0x31
 6779 17ac 490E0000 		.4byte	.LASF527
 6780 17b0 01       		.byte	0x1
 6781 17b1 9102     		.2byte	0x291
 6782 17b3 00000000 		.4byte	.LFB83
 6783 17b7 18000000 		.4byte	.LFE83-.LFB83
 6784 17bb 01       		.uleb128 0x1
 6785 17bc 9C       		.byte	0x9c
 6786 17bd 31       		.uleb128 0x31
 6787 17be E4270000 		.4byte	.LASF528
 6788 17c2 01       		.byte	0x1
 6789 17c3 A102     		.2byte	0x2a1
 6790 17c5 00000000 		.4byte	.LFB84
 6791 17c9 18000000 		.4byte	.LFE84-.LFB84
 6792 17cd 01       		.uleb128 0x1
 6793 17ce 9C       		.byte	0x9c
 6794 17cf 31       		.uleb128 0x31
 6795 17d0 6B020000 		.4byte	.LASF529
 6796 17d4 01       		.byte	0x1
 6797 17d5 B202     		.2byte	0x2b2
 6798 17d7 00000000 		.4byte	.LFB85
 6799 17db 18000000 		.4byte	.LFE85-.LFB85
 6800 17df 01       		.uleb128 0x1
 6801 17e0 9C       		.byte	0x9c
 6802 17e1 31       		.uleb128 0x31
 6803 17e2 1B0B0000 		.4byte	.LASF530
 6804 17e6 01       		.byte	0x1
 6805 17e7 C302     		.2byte	0x2c3
 6806 17e9 00000000 		.4byte	.LFB86
 6807 17ed 14000000 		.4byte	.LFE86-.LFB86
 6808 17f1 01       		.uleb128 0x1
 6809 17f2 9C       		.byte	0x9c
 6810 17f3 31       		.uleb128 0x31
 6811 17f4 281B0000 		.4byte	.LASF531
 6812 17f8 01       		.byte	0x1
 6813 17f9 D302     		.2byte	0x2d3
 6814 17fb 00000000 		.4byte	.LFB87
 6815 17ff 14000000 		.4byte	.LFE87-.LFB87
 6816 1803 01       		.uleb128 0x1
 6817 1804 9C       		.byte	0x9c
 6818 1805 1C       		.uleb128 0x1c
 6819 1806 34100000 		.4byte	0x1034
 6820 180a 00000000 		.4byte	.LFB88
 6821 180e 24000000 		.4byte	.LFE88-.LFB88
ARM GAS  C:\Users\Administrator\AppData\Local\Temp\ccNQfmEa.s 			page 163


 6822 1812 01       		.uleb128 0x1
 6823 1813 9C       		.byte	0x9c
 6824 1814 22180000 		.4byte	0x1822
 6825 1818 26       		.uleb128 0x26
 6826 1819 18000000 		.4byte	.LVL115
 6827 181d 432E0000 		.4byte	0x2e43
 6828 1821 00       		.byte	0
 6829 1822 29       		.uleb128 0x29
 6830 1823 7C460000 		.4byte	.LASF532
 6831 1827 01       		.byte	0x1
 6832 1828 F402     		.2byte	0x2f4
 6833 182a 00000000 		.4byte	.LFB89
 6834 182e 78000000 		.4byte	.LFE89-.LFB89
 6835 1832 01       		.uleb128 0x1
 6836 1833 9C       		.byte	0x9c
 6837 1834 C0180000 		.4byte	0x18c0
 6838 1838 32       		.uleb128 0x32
 6839 1839 746D7000 		.ascii	"tmp\000"
 6840 183d 01       		.byte	0x1
 6841 183e F602     		.2byte	0x2f6
 6842 1840 C0180000 		.4byte	0x18c0
 6843 1844 02       		.uleb128 0x2
 6844 1845 91       		.byte	0x91
 6845 1846 74       		.sleb128 -12
 6846 1847 2C       		.uleb128 0x2c
 6847 1848 272B0000 		.4byte	.LASF533
 6848 184c 01       		.byte	0x1
 6849 184d F702     		.2byte	0x2f7
 6850 184f 81000000 		.4byte	0x81
 6851 1853 FE020000 		.4byte	.LLST15
 6852 1857 2C       		.uleb128 0x2c
 6853 1858 BF300000 		.4byte	.LASF534
 6854 185c 01       		.byte	0x1
 6855 185d F802     		.2byte	0x2f8
 6856 185f 8D000000 		.4byte	0x8d
 6857 1863 2A030000 		.4byte	.LLST16
 6858 1867 23       		.uleb128 0x23
 6859 1868 0E000000 		.4byte	.LVL116
 6860 186c 4E2E0000 		.4byte	0x2e4e
 6861 1870 85180000 		.4byte	0x1885
 6862 1874 24       		.uleb128 0x24
 6863 1875 01       		.uleb128 0x1
 6864 1876 50       		.byte	0x50
 6865 1877 02       		.uleb128 0x2
 6866 1878 74       		.byte	0x74
 6867 1879 00       		.sleb128 0
 6868 187a 24       		.uleb128 0x24
 6869 187b 01       		.uleb128 0x1
 6870 187c 51       		.byte	0x51
 6871 187d 01       		.uleb128 0x1
 6872 187e 30       		.byte	0x30
 6873 187f 24       		.uleb128 0x24
 6874 1880 01       		.uleb128 0x1
 6875 1881 52       		.byte	0x52
 6876 1882 01       		.uleb128 0x1
 6877 1883 33       		.byte	0x33
 6878 1884 00       		.byte	0
ARM GAS  C:\Users\Administrator\AppData\Local\Temp\ccNQfmEa.s 			page 164


 6879 1885 23       		.uleb128 0x23
 6880 1886 2C000000 		.4byte	.LVL117
 6881 188a 572E0000 		.4byte	0x2e57
 6882 188e A2180000 		.4byte	0x18a2
 6883 1892 24       		.uleb128 0x24
 6884 1893 01       		.uleb128 0x1
 6885 1894 50       		.byte	0x50
 6886 1895 02       		.uleb128 0x2
 6887 1896 74       		.byte	0x74
 6888 1897 00       		.sleb128 0
 6889 1898 24       		.uleb128 0x24
 6890 1899 01       		.uleb128 0x1
 6891 189a 51       		.byte	0x51
 6892 189b 05       		.uleb128 0x5
 6893 189c 0C       		.byte	0xc
 6894 189d 03910100 		.4byte	0x19103
 6895 18a1 00       		.byte	0
 6896 18a2 26       		.uleb128 0x26
 6897 18a3 52000000 		.4byte	.LVL122
 6898 18a7 622E0000 		.4byte	0x2e62
 6899 18ab 25       		.uleb128 0x25
 6900 18ac 5A000000 		.4byte	.LVL123
 6901 18b0 6D2E0000 		.4byte	0x2e6d
 6902 18b4 24       		.uleb128 0x24
 6903 18b5 01       		.uleb128 0x1
 6904 18b6 50       		.byte	0x50
 6905 18b7 01       		.uleb128 0x1
 6906 18b8 30       		.byte	0x30
 6907 18b9 24       		.uleb128 0x24
 6908 18ba 01       		.uleb128 0x1
 6909 18bb 51       		.byte	0x51
 6910 18bc 01       		.uleb128 0x1
 6911 18bd 3D       		.byte	0x3d
 6912 18be 00       		.byte	0
 6913 18bf 00       		.byte	0
 6914 18c0 0B       		.uleb128 0xb
 6915 18c1 81000000 		.4byte	0x81
 6916 18c5 D0180000 		.4byte	0x18d0
 6917 18c9 0C       		.uleb128 0xc
 6918 18ca D7000000 		.4byte	0xd7
 6919 18ce 02       		.byte	0x2
 6920 18cf 00       		.byte	0
 6921 18d0 1C       		.uleb128 0x1c
 6922 18d1 3D100000 		.4byte	0x103d
 6923 18d5 00000000 		.4byte	.LFB90
 6924 18d9 28000000 		.4byte	.LFE90-.LFB90
 6925 18dd 01       		.uleb128 0x1
 6926 18de 9C       		.byte	0x9c
 6927 18df F6180000 		.4byte	0x18f6
 6928 18e3 26       		.uleb128 0x26
 6929 18e4 06000000 		.4byte	.LVL125
 6930 18e8 0D120000 		.4byte	0x120d
 6931 18ec 26       		.uleb128 0x26
 6932 18ed 1A000000 		.4byte	.LVL126
 6933 18f1 782E0000 		.4byte	0x2e78
 6934 18f5 00       		.byte	0
 6935 18f6 29       		.uleb128 0x29
ARM GAS  C:\Users\Administrator\AppData\Local\Temp\ccNQfmEa.s 			page 165


 6936 18f7 8D0B0000 		.4byte	.LASF535
 6937 18fb 01       		.byte	0x1
 6938 18fc 3803     		.2byte	0x338
 6939 18fe 00000000 		.4byte	.LFB91
 6940 1902 18030000 		.4byte	.LFE91-.LFB91
 6941 1906 01       		.uleb128 0x1
 6942 1907 9C       		.byte	0x9c
 6943 1908 B61B0000 		.4byte	0x1bb6
 6944 190c 2F       		.uleb128 0x2f
 6945 190d 72657400 		.ascii	"ret\000"
 6946 1911 01       		.byte	0x1
 6947 1912 3A03     		.2byte	0x33a
 6948 1914 81000000 		.4byte	0x81
 6949 1918 7D030000 		.4byte	.LLST17
 6950 191c 33       		.uleb128 0x33
 6951 191d C2280000 		.4byte	.LASF500
 6952 1921 01       		.byte	0x1
 6953 1922 3B03     		.2byte	0x33b
 6954 1924 99000000 		.4byte	0x99
 6955 1928 00       		.byte	0
 6956 1929 34       		.uleb128 0x34
 6957 192a 6A130000 		.4byte	0x136a
 6958 192e 4E000000 		.4byte	.LBB38
 6959 1932 04000000 		.4byte	.LBE38-.LBB38
 6960 1936 01       		.byte	0x1
 6961 1937 5E03     		.2byte	0x35e
 6962 1939 50190000 		.4byte	0x1950
 6963 193d 1D       		.uleb128 0x1d
 6964 193e 77130000 		.4byte	0x1377
 6965 1942 BC030000 		.4byte	.LLST18
 6966 1946 26       		.uleb128 0x26
 6967 1947 52000000 		.4byte	.LVL133
 6968 194b DD120000 		.4byte	0x12dd
 6969 194f 00       		.byte	0
 6970 1950 34       		.uleb128 0x34
 6971 1951 6A130000 		.4byte	0x136a
 6972 1955 92000000 		.4byte	.LBB40
 6973 1959 04000000 		.4byte	.LBE40-.LBB40
 6974 195d 01       		.byte	0x1
 6975 195e 7603     		.2byte	0x376
 6976 1960 77190000 		.4byte	0x1977
 6977 1964 1D       		.uleb128 0x1d
 6978 1965 77130000 		.4byte	0x1377
 6979 1969 D0030000 		.4byte	.LLST19
 6980 196d 26       		.uleb128 0x26
 6981 196e 96000000 		.4byte	.LVL137
 6982 1972 DD120000 		.4byte	0x12dd
 6983 1976 00       		.byte	0
 6984 1977 34       		.uleb128 0x34
 6985 1978 6A130000 		.4byte	0x136a
 6986 197c C0000000 		.4byte	.LBB42
 6987 1980 04000000 		.4byte	.LBE42-.LBB42
 6988 1984 01       		.byte	0x1
 6989 1985 8803     		.2byte	0x388
 6990 1987 9E190000 		.4byte	0x199e
 6991 198b 1D       		.uleb128 0x1d
 6992 198c 77130000 		.4byte	0x1377
ARM GAS  C:\Users\Administrator\AppData\Local\Temp\ccNQfmEa.s 			page 166


 6993 1990 E4030000 		.4byte	.LLST20
 6994 1994 26       		.uleb128 0x26
 6995 1995 C4000000 		.4byte	.LVL140
 6996 1999 DD120000 		.4byte	0x12dd
 6997 199d 00       		.byte	0
 6998 199e 34       		.uleb128 0x34
 6999 199f 6A130000 		.4byte	0x136a
 7000 19a3 F6000000 		.4byte	.LBB44
 7001 19a7 04000000 		.4byte	.LBE44-.LBB44
 7002 19ab 01       		.byte	0x1
 7003 19ac A003     		.2byte	0x3a0
 7004 19ae C5190000 		.4byte	0x19c5
 7005 19b2 1D       		.uleb128 0x1d
 7006 19b3 77130000 		.4byte	0x1377
 7007 19b7 F8030000 		.4byte	.LLST21
 7008 19bb 26       		.uleb128 0x26
 7009 19bc FA000000 		.4byte	.LVL144
 7010 19c0 DD120000 		.4byte	0x12dd
 7011 19c4 00       		.byte	0
 7012 19c5 34       		.uleb128 0x34
 7013 19c6 6A130000 		.4byte	0x136a
 7014 19ca 3C010000 		.4byte	.LBB46
 7015 19ce 04000000 		.4byte	.LBE46-.LBB46
 7016 19d2 01       		.byte	0x1
 7017 19d3 B503     		.2byte	0x3b5
 7018 19d5 EC190000 		.4byte	0x19ec
 7019 19d9 1D       		.uleb128 0x1d
 7020 19da 77130000 		.4byte	0x1377
 7021 19de 0C040000 		.4byte	.LLST22
 7022 19e2 26       		.uleb128 0x26
 7023 19e3 40010000 		.4byte	.LVL148
 7024 19e7 DD120000 		.4byte	0x12dd
 7025 19eb 00       		.byte	0
 7026 19ec 34       		.uleb128 0x34
 7027 19ed 6A130000 		.4byte	0x136a
 7028 19f1 6A010000 		.4byte	.LBB48
 7029 19f5 04000000 		.4byte	.LBE48-.LBB48
 7030 19f9 01       		.byte	0x1
 7031 19fa E603     		.2byte	0x3e6
 7032 19fc 131A0000 		.4byte	0x1a13
 7033 1a00 1D       		.uleb128 0x1d
 7034 1a01 77130000 		.4byte	0x1377
 7035 1a05 20040000 		.4byte	.LLST23
 7036 1a09 26       		.uleb128 0x26
 7037 1a0a 6E010000 		.4byte	.LVL151
 7038 1a0e 0C130000 		.4byte	0x130c
 7039 1a12 00       		.byte	0
 7040 1a13 34       		.uleb128 0x34
 7041 1a14 6A130000 		.4byte	0x136a
 7042 1a18 E6010000 		.4byte	.LBB50
 7043 1a1c 04000000 		.4byte	.LBE50-.LBB50
 7044 1a20 01       		.byte	0x1
 7045 1a21 0C04     		.2byte	0x40c
 7046 1a23 3A1A0000 		.4byte	0x1a3a
 7047 1a27 1D       		.uleb128 0x1d
 7048 1a28 77130000 		.4byte	0x1377
 7049 1a2c 34040000 		.4byte	.LLST24
ARM GAS  C:\Users\Administrator\AppData\Local\Temp\ccNQfmEa.s 			page 167


 7050 1a30 26       		.uleb128 0x26
 7051 1a31 EA010000 		.4byte	.LVL160
 7052 1a35 DD120000 		.4byte	0x12dd
 7053 1a39 00       		.byte	0
 7054 1a3a 34       		.uleb128 0x34
 7055 1a3b 6A130000 		.4byte	0x136a
 7056 1a3f 0A020000 		.4byte	.LBB52
 7057 1a43 04000000 		.4byte	.LBE52-.LBB52
 7058 1a47 01       		.byte	0x1
 7059 1a48 2D04     		.2byte	0x42d
 7060 1a4a 611A0000 		.4byte	0x1a61
 7061 1a4e 1D       		.uleb128 0x1d
 7062 1a4f 77130000 		.4byte	0x1377
 7063 1a53 48040000 		.4byte	.LLST25
 7064 1a57 26       		.uleb128 0x26
 7065 1a58 0E020000 		.4byte	.LVL165
 7066 1a5c DD120000 		.4byte	0x12dd
 7067 1a60 00       		.byte	0
 7068 1a61 34       		.uleb128 0x34
 7069 1a62 6A130000 		.4byte	0x136a
 7070 1a66 3E020000 		.4byte	.LBB54
 7071 1a6a 04000000 		.4byte	.LBE54-.LBB54
 7072 1a6e 01       		.byte	0x1
 7073 1a6f 4504     		.2byte	0x445
 7074 1a71 881A0000 		.4byte	0x1a88
 7075 1a75 1D       		.uleb128 0x1d
 7076 1a76 77130000 		.4byte	0x1377
 7077 1a7a 5C040000 		.4byte	.LLST26
 7078 1a7e 26       		.uleb128 0x26
 7079 1a7f 42020000 		.4byte	.LVL169
 7080 1a83 DD120000 		.4byte	0x12dd
 7081 1a87 00       		.byte	0
 7082 1a88 34       		.uleb128 0x34
 7083 1a89 6A130000 		.4byte	0x136a
 7084 1a8d 78020000 		.4byte	.LBB56
 7085 1a91 04000000 		.4byte	.LBE56-.LBB56
 7086 1a95 01       		.byte	0x1
 7087 1a96 5A04     		.2byte	0x45a
 7088 1a98 AF1A0000 		.4byte	0x1aaf
 7089 1a9c 1D       		.uleb128 0x1d
 7090 1a9d 77130000 		.4byte	0x1377
 7091 1aa1 70040000 		.4byte	.LLST27
 7092 1aa5 26       		.uleb128 0x26
 7093 1aa6 7C020000 		.4byte	.LVL173
 7094 1aaa 3B130000 		.4byte	0x133b
 7095 1aae 00       		.byte	0
 7096 1aaf 26       		.uleb128 0x26
 7097 1ab0 16000000 		.4byte	.LVL128
 7098 1ab4 782E0000 		.4byte	0x2e78
 7099 1ab8 26       		.uleb128 0x26
 7100 1ab9 2C000000 		.4byte	.LVL129
 7101 1abd D52D0000 		.4byte	0x2dd5
 7102 1ac1 26       		.uleb128 0x26
 7103 1ac2 38000000 		.4byte	.LVL130
 7104 1ac6 34100000 		.4byte	0x1034
 7105 1aca 26       		.uleb128 0x26
 7106 1acb 3C000000 		.4byte	.LVL131
ARM GAS  C:\Users\Administrator\AppData\Local\Temp\ccNQfmEa.s 			page 168


 7107 1acf 832E0000 		.4byte	0x2e83
 7108 1ad3 26       		.uleb128 0x26
 7109 1ad4 78000000 		.4byte	.LVL134
 7110 1ad8 8F2E0000 		.4byte	0x2e8f
 7111 1adc 26       		.uleb128 0x26
 7112 1add B4000000 		.4byte	.LVL138
 7113 1ae1 9A2E0000 		.4byte	0x2e9a
 7114 1ae5 26       		.uleb128 0x26
 7115 1ae6 E2000000 		.4byte	.LVL141
 7116 1aea A52E0000 		.4byte	0x2ea5
 7117 1aee 26       		.uleb128 0x26
 7118 1aef 1E010000 		.4byte	.LVL145
 7119 1af3 B02E0000 		.4byte	0x2eb0
 7120 1af7 26       		.uleb128 0x26
 7121 1af8 5E010000 		.4byte	.LVL149
 7122 1afc BB2E0000 		.4byte	0x2ebb
 7123 1b00 26       		.uleb128 0x26
 7124 1b01 88010000 		.4byte	.LVL152
 7125 1b05 11140000 		.4byte	0x1411
 7126 1b09 26       		.uleb128 0x26
 7127 1b0a 8E010000 		.4byte	.LVL153
 7128 1b0e C62E0000 		.4byte	0x2ec6
 7129 1b12 26       		.uleb128 0x26
 7130 1b13 98010000 		.4byte	.LVL154
 7131 1b17 832E0000 		.4byte	0x2e83
 7132 1b1b 26       		.uleb128 0x26
 7133 1b1c BA010000 		.4byte	.LVL155
 7134 1b20 11140000 		.4byte	0x1411
 7135 1b24 26       		.uleb128 0x26
 7136 1b25 C0010000 		.4byte	.LVL156
 7137 1b29 C62E0000 		.4byte	0x2ec6
 7138 1b2d 26       		.uleb128 0x26
 7139 1b2e CA010000 		.4byte	.LVL157
 7140 1b32 832E0000 		.4byte	0x2e83
 7141 1b36 26       		.uleb128 0x26
 7142 1b37 DA010000 		.4byte	.LVL158
 7143 1b3b D12E0000 		.4byte	0x2ed1
 7144 1b3f 26       		.uleb128 0x26
 7145 1b40 EE010000 		.4byte	.LVL161
 7146 1b44 A52E0000 		.4byte	0x2ea5
 7147 1b48 26       		.uleb128 0x26
 7148 1b49 F2010000 		.4byte	.LVL162
 7149 1b4d C1160000 		.4byte	0x16c1
 7150 1b51 26       		.uleb128 0x26
 7151 1b52 FE010000 		.4byte	.LVL163
 7152 1b56 34100000 		.4byte	0x1034
 7153 1b5a 26       		.uleb128 0x26
 7154 1b5b 2C020000 		.4byte	.LVL166
 7155 1b5f A52E0000 		.4byte	0x2ea5
 7156 1b63 26       		.uleb128 0x26
 7157 1b64 60020000 		.4byte	.LVL170
 7158 1b68 DC2E0000 		.4byte	0x2edc
 7159 1b6c 26       		.uleb128 0x26
 7160 1b6d 80020000 		.4byte	.LVL174
 7161 1b71 E72E0000 		.4byte	0x2ee7
 7162 1b75 23       		.uleb128 0x23
 7163 1b76 8A020000 		.4byte	.LVL175
ARM GAS  C:\Users\Administrator\AppData\Local\Temp\ccNQfmEa.s 			page 169


 7164 1b7a F22E0000 		.4byte	0x2ef2
 7165 1b7e 881B0000 		.4byte	0x1b88
 7166 1b82 24       		.uleb128 0x24
 7167 1b83 01       		.uleb128 0x1
 7168 1b84 50       		.byte	0x50
 7169 1b85 01       		.uleb128 0x1
 7170 1b86 31       		.byte	0x31
 7171 1b87 00       		.byte	0
 7172 1b88 26       		.uleb128 0x26
 7173 1b89 B4020000 		.4byte	.LVL176
 7174 1b8d A52E0000 		.4byte	0x2ea5
 7175 1b91 26       		.uleb128 0x26
 7176 1b92 BC020000 		.4byte	.LVL177
 7177 1b96 E72E0000 		.4byte	0x2ee7
 7178 1b9a 26       		.uleb128 0x26
 7179 1b9b C4020000 		.4byte	.LVL178
 7180 1b9f F22E0000 		.4byte	0x2ef2
 7181 1ba3 26       		.uleb128 0x26
 7182 1ba4 D2020000 		.4byte	.LVL179
 7183 1ba8 A52E0000 		.4byte	0x2ea5
 7184 1bac 26       		.uleb128 0x26
 7185 1bad DC020000 		.4byte	.LVL180
 7186 1bb1 FD2E0000 		.4byte	0x2efd
 7187 1bb5 00       		.byte	0
 7188 1bb6 29       		.uleb128 0x29
 7189 1bb7 E9440000 		.4byte	.LASF536
 7190 1bbb 01       		.byte	0x1
 7191 1bbc 7C05     		.2byte	0x57c
 7192 1bbe 00000000 		.4byte	.LFB92
 7193 1bc2 50010000 		.4byte	.LFE92-.LFB92
 7194 1bc6 01       		.uleb128 0x1
 7195 1bc7 9C       		.byte	0x9c
 7196 1bc8 021E0000 		.4byte	0x1e02
 7197 1bcc 2F       		.uleb128 0x2f
 7198 1bcd 6900     		.ascii	"i\000"
 7199 1bcf 01       		.byte	0x1
 7200 1bd0 7E05     		.2byte	0x57e
 7201 1bd2 81000000 		.4byte	0x81
 7202 1bd6 84040000 		.4byte	.LLST28
 7203 1bda 35       		.uleb128 0x35
 7204 1bdb 643F0000 		.4byte	.LASF537
 7205 1bdf 01       		.byte	0x1
 7206 1be0 8005     		.2byte	0x580
 7207 1be2 0B010000 		.4byte	0x10b
 7208 1be6 02       		.uleb128 0x2
 7209 1be7 91       		.byte	0x91
 7210 1be8 44       		.sleb128 -60
 7211 1be9 35       		.uleb128 0x35
 7212 1bea C71D0000 		.4byte	.LASF538
 7213 1bee 01       		.byte	0x1
 7214 1bef 8105     		.2byte	0x581
 7215 1bf1 1B010000 		.4byte	0x11b
 7216 1bf5 02       		.uleb128 0x2
 7217 1bf6 91       		.byte	0x91
 7218 1bf7 40       		.sleb128 -64
 7219 1bf8 2C       		.uleb128 0x2c
 7220 1bf9 691B0000 		.4byte	.LASF504
ARM GAS  C:\Users\Administrator\AppData\Local\Temp\ccNQfmEa.s 			page 170


 7221 1bfd 01       		.byte	0x1
 7222 1bfe 8205     		.2byte	0x582
 7223 1c00 99000000 		.4byte	0x99
 7224 1c04 BC040000 		.4byte	.LLST29
 7225 1c08 35       		.uleb128 0x35
 7226 1c09 A82D0000 		.4byte	.LASF23
 7227 1c0d 01       		.byte	0x1
 7228 1c0e 8305     		.2byte	0x583
 7229 1c10 2B010000 		.4byte	0x12b
 7230 1c14 02       		.uleb128 0x2
 7231 1c15 91       		.byte	0x91
 7232 1c16 4C       		.sleb128 -52
 7233 1c17 35       		.uleb128 0x35
 7234 1c18 93300000 		.4byte	.LASF539
 7235 1c1c 01       		.byte	0x1
 7236 1c1d 8405     		.2byte	0x584
 7237 1c1f 67010000 		.4byte	0x167
 7238 1c23 02       		.uleb128 0x2
 7239 1c24 91       		.byte	0x91
 7240 1c25 58       		.sleb128 -40
 7241 1c26 36       		.uleb128 0x36
 7242 1c27 852D0000 		.4byte	.LASF712
 7243 1c2b 01       		.byte	0x1
 7244 1c2c C705     		.2byte	0x5c7
 7245 1c2e 18010000 		.4byte	.LDL1
 7246 1c32 23       		.uleb128 0x23
 7247 1c33 10000000 		.4byte	.LVL181
 7248 1c37 4E2E0000 		.4byte	0x2e4e
 7249 1c3b 501C0000 		.4byte	0x1c50
 7250 1c3f 24       		.uleb128 0x24
 7251 1c40 01       		.uleb128 0x1
 7252 1c41 50       		.byte	0x50
 7253 1c42 02       		.uleb128 0x2
 7254 1c43 74       		.byte	0x74
 7255 1c44 00       		.sleb128 0
 7256 1c45 24       		.uleb128 0x24
 7257 1c46 01       		.uleb128 0x1
 7258 1c47 51       		.byte	0x51
 7259 1c48 01       		.uleb128 0x1
 7260 1c49 30       		.byte	0x30
 7261 1c4a 24       		.uleb128 0x24
 7262 1c4b 01       		.uleb128 0x1
 7263 1c4c 52       		.byte	0x52
 7264 1c4d 01       		.uleb128 0x1
 7265 1c4e 38       		.byte	0x38
 7266 1c4f 00       		.byte	0
 7267 1c50 23       		.uleb128 0x23
 7268 1c51 26000000 		.4byte	.LVL182
 7269 1c55 082F0000 		.4byte	0x2f08
 7270 1c59 641C0000 		.4byte	0x1c64
 7271 1c5d 24       		.uleb128 0x24
 7272 1c5e 01       		.uleb128 0x1
 7273 1c5f 50       		.byte	0x50
 7274 1c60 02       		.uleb128 0x2
 7275 1c61 74       		.byte	0x74
 7276 1c62 00       		.sleb128 0
 7277 1c63 00       		.byte	0
ARM GAS  C:\Users\Administrator\AppData\Local\Temp\ccNQfmEa.s 			page 171


 7278 1c64 26       		.uleb128 0x26
 7279 1c65 2E000000 		.4byte	.LVL184
 7280 1c69 91120000 		.4byte	0x1291
 7281 1c6d 23       		.uleb128 0x23
 7282 1c6e 34000000 		.4byte	.LVL185
 7283 1c72 3F120000 		.4byte	0x123f
 7284 1c76 811C0000 		.4byte	0x1c81
 7285 1c7a 24       		.uleb128 0x24
 7286 1c7b 01       		.uleb128 0x1
 7287 1c7c 50       		.byte	0x50
 7288 1c7d 02       		.uleb128 0x2
 7289 1c7e 08       		.byte	0x8
 7290 1c7f 64       		.byte	0x64
 7291 1c80 00       		.byte	0
 7292 1c81 26       		.uleb128 0x26
 7293 1c82 38000000 		.4byte	.LVL186
 7294 1c86 3B130000 		.4byte	0x133b
 7295 1c8a 23       		.uleb128 0x23
 7296 1c8b 3E000000 		.4byte	.LVL187
 7297 1c8f 3F120000 		.4byte	0x123f
 7298 1c93 9E1C0000 		.4byte	0x1c9e
 7299 1c97 24       		.uleb128 0x24
 7300 1c98 01       		.uleb128 0x1
 7301 1c99 50       		.byte	0x50
 7302 1c9a 02       		.uleb128 0x2
 7303 1c9b 08       		.byte	0x8
 7304 1c9c 64       		.byte	0x64
 7305 1c9d 00       		.byte	0
 7306 1c9e 26       		.uleb128 0x26
 7307 1c9f 42000000 		.4byte	.LVL188
 7308 1ca3 91120000 		.4byte	0x1291
 7309 1ca7 23       		.uleb128 0x23
 7310 1ca8 48000000 		.4byte	.LVL189
 7311 1cac 3F120000 		.4byte	0x123f
 7312 1cb0 BB1C0000 		.4byte	0x1cbb
 7313 1cb4 24       		.uleb128 0x24
 7314 1cb5 01       		.uleb128 0x1
 7315 1cb6 50       		.byte	0x50
 7316 1cb7 02       		.uleb128 0x2
 7317 1cb8 08       		.byte	0x8
 7318 1cb9 64       		.byte	0x64
 7319 1cba 00       		.byte	0
 7320 1cbb 26       		.uleb128 0x26
 7321 1cbc 4C000000 		.4byte	.LVL190
 7322 1cc0 3B130000 		.4byte	0x133b
 7323 1cc4 23       		.uleb128 0x23
 7324 1cc5 52000000 		.4byte	.LVL191
 7325 1cc9 3F120000 		.4byte	0x123f
 7326 1ccd D81C0000 		.4byte	0x1cd8
 7327 1cd1 24       		.uleb128 0x24
 7328 1cd2 01       		.uleb128 0x1
 7329 1cd3 50       		.byte	0x50
 7330 1cd4 02       		.uleb128 0x2
 7331 1cd5 08       		.byte	0x8
 7332 1cd6 64       		.byte	0x64
 7333 1cd7 00       		.byte	0
 7334 1cd8 26       		.uleb128 0x26
ARM GAS  C:\Users\Administrator\AppData\Local\Temp\ccNQfmEa.s 			page 172


 7335 1cd9 56000000 		.4byte	.LVL192
 7336 1cdd 832E0000 		.4byte	0x2e83
 7337 1ce1 23       		.uleb128 0x23
 7338 1ce2 78000000 		.4byte	.LVL194
 7339 1ce6 132F0000 		.4byte	0x2f13
 7340 1cea F51C0000 		.4byte	0x1cf5
 7341 1cee 24       		.uleb128 0x24
 7342 1cef 01       		.uleb128 0x1
 7343 1cf0 50       		.byte	0x50
 7344 1cf1 02       		.uleb128 0x2
 7345 1cf2 91       		.byte	0x91
 7346 1cf3 4C       		.sleb128 -52
 7347 1cf4 00       		.byte	0
 7348 1cf5 23       		.uleb128 0x23
 7349 1cf6 88000000 		.4byte	.LVL196
 7350 1cfa 1E2F0000 		.4byte	0x2f1e
 7351 1cfe 0E1D0000 		.4byte	0x1d0e
 7352 1d02 24       		.uleb128 0x24
 7353 1d03 01       		.uleb128 0x1
 7354 1d04 50       		.byte	0x50
 7355 1d05 02       		.uleb128 0x2
 7356 1d06 74       		.byte	0x74
 7357 1d07 00       		.sleb128 0
 7358 1d08 24       		.uleb128 0x24
 7359 1d09 01       		.uleb128 0x1
 7360 1d0a 51       		.byte	0x51
 7361 1d0b 01       		.uleb128 0x1
 7362 1d0c 38       		.byte	0x38
 7363 1d0d 00       		.byte	0
 7364 1d0e 26       		.uleb128 0x26
 7365 1d0f 92000000 		.4byte	.LVL198
 7366 1d13 0C130000 		.4byte	0x130c
 7367 1d17 26       		.uleb128 0x26
 7368 1d18 96000000 		.4byte	.LVL199
 7369 1d1c C5130000 		.4byte	0x13c5
 7370 1d20 23       		.uleb128 0x23
 7371 1d21 9C000000 		.4byte	.LVL200
 7372 1d25 292F0000 		.4byte	0x2f29
 7373 1d29 331D0000 		.4byte	0x1d33
 7374 1d2d 24       		.uleb128 0x24
 7375 1d2e 01       		.uleb128 0x1
 7376 1d2f 50       		.byte	0x50
 7377 1d30 01       		.uleb128 0x1
 7378 1d31 3A       		.byte	0x3a
 7379 1d32 00       		.byte	0
 7380 1d33 26       		.uleb128 0x26
 7381 1d34 A0000000 		.4byte	.LVL201
 7382 1d38 832E0000 		.4byte	0x2e83
 7383 1d3c 23       		.uleb128 0x23
 7384 1d3d B2000000 		.4byte	.LVL203
 7385 1d41 4E2E0000 		.4byte	0x2e4e
 7386 1d45 5A1D0000 		.4byte	0x1d5a
 7387 1d49 24       		.uleb128 0x24
 7388 1d4a 01       		.uleb128 0x1
 7389 1d4b 50       		.byte	0x50
 7390 1d4c 02       		.uleb128 0x2
 7391 1d4d 75       		.byte	0x75
ARM GAS  C:\Users\Administrator\AppData\Local\Temp\ccNQfmEa.s 			page 173


 7392 1d4e 00       		.sleb128 0
 7393 1d4f 24       		.uleb128 0x24
 7394 1d50 01       		.uleb128 0x1
 7395 1d51 51       		.byte	0x51
 7396 1d52 01       		.uleb128 0x1
 7397 1d53 30       		.byte	0x30
 7398 1d54 24       		.uleb128 0x24
 7399 1d55 01       		.uleb128 0x1
 7400 1d56 52       		.byte	0x52
 7401 1d57 01       		.uleb128 0x1
 7402 1d58 40       		.byte	0x40
 7403 1d59 00       		.byte	0
 7404 1d5a 23       		.uleb128 0x23
 7405 1d5b CA000000 		.4byte	.LVL204
 7406 1d5f 342F0000 		.4byte	0x2f34
 7407 1d63 731D0000 		.4byte	0x1d73
 7408 1d67 24       		.uleb128 0x24
 7409 1d68 01       		.uleb128 0x1
 7410 1d69 50       		.byte	0x50
 7411 1d6a 02       		.uleb128 0x2
 7412 1d6b 75       		.byte	0x75
 7413 1d6c 00       		.sleb128 0
 7414 1d6d 24       		.uleb128 0x24
 7415 1d6e 01       		.uleb128 0x1
 7416 1d6f 51       		.byte	0x51
 7417 1d70 01       		.uleb128 0x1
 7418 1d71 37       		.byte	0x37
 7419 1d72 00       		.byte	0
 7420 1d73 26       		.uleb128 0x26
 7421 1d74 D6000000 		.4byte	.LVL205
 7422 1d78 832E0000 		.4byte	0x2e83
 7423 1d7c 23       		.uleb128 0x23
 7424 1d7d EC000000 		.4byte	.LVL208
 7425 1d81 3F2F0000 		.4byte	0x2f3f
 7426 1d85 9A1D0000 		.4byte	0x1d9a
 7427 1d89 24       		.uleb128 0x24
 7428 1d8a 01       		.uleb128 0x1
 7429 1d8b 50       		.byte	0x50
 7430 1d8c 02       		.uleb128 0x2
 7431 1d8d 75       		.byte	0x75
 7432 1d8e 00       		.sleb128 0
 7433 1d8f 24       		.uleb128 0x24
 7434 1d90 01       		.uleb128 0x1
 7435 1d91 51       		.byte	0x51
 7436 1d92 01       		.uleb128 0x1
 7437 1d93 38       		.byte	0x38
 7438 1d94 24       		.uleb128 0x24
 7439 1d95 01       		.uleb128 0x1
 7440 1d96 52       		.byte	0x52
 7441 1d97 01       		.uleb128 0x1
 7442 1d98 37       		.byte	0x37
 7443 1d99 00       		.byte	0
 7444 1d9a 23       		.uleb128 0x23
 7445 1d9b F4000000 		.4byte	.LVL209
 7446 1d9f 3F120000 		.4byte	0x123f
 7447 1da3 AF1D0000 		.4byte	0x1daf
 7448 1da7 24       		.uleb128 0x24
ARM GAS  C:\Users\Administrator\AppData\Local\Temp\ccNQfmEa.s 			page 174


 7449 1da8 01       		.uleb128 0x1
 7450 1da9 50       		.byte	0x50
 7451 1daa 03       		.uleb128 0x3
 7452 1dab 0A       		.byte	0xa
 7453 1dac E803     		.2byte	0x3e8
 7454 1dae 00       		.byte	0
 7455 1daf 26       		.uleb128 0x26
 7456 1db0 F8000000 		.4byte	.LVL210
 7457 1db4 EB130000 		.4byte	0x13eb
 7458 1db8 26       		.uleb128 0x26
 7459 1db9 04010000 		.4byte	.LVL211
 7460 1dbd DD120000 		.4byte	0x12dd
 7461 1dc1 23       		.uleb128 0x23
 7462 1dc2 0A010000 		.4byte	.LVL212
 7463 1dc6 292F0000 		.4byte	0x2f29
 7464 1dca D41D0000 		.4byte	0x1dd4
 7465 1dce 24       		.uleb128 0x24
 7466 1dcf 01       		.uleb128 0x1
 7467 1dd0 50       		.byte	0x50
 7468 1dd1 01       		.uleb128 0x1
 7469 1dd2 3B       		.byte	0x3b
 7470 1dd3 00       		.byte	0
 7471 1dd4 23       		.uleb128 0x23
 7472 1dd5 12010000 		.4byte	.LVL213
 7473 1dd9 3F120000 		.4byte	0x123f
 7474 1ddd E91D0000 		.4byte	0x1de9
 7475 1de1 24       		.uleb128 0x24
 7476 1de2 01       		.uleb128 0x1
 7477 1de3 50       		.byte	0x50
 7478 1de4 03       		.uleb128 0x3
 7479 1de5 0A       		.byte	0xa
 7480 1de6 2003     		.2byte	0x320
 7481 1de8 00       		.byte	0
 7482 1de9 26       		.uleb128 0x26
 7483 1dea 18010000 		.4byte	.LVL214
 7484 1dee 6A130000 		.4byte	0x136a
 7485 1df2 25       		.uleb128 0x25
 7486 1df3 32010000 		.4byte	.LVL215
 7487 1df7 622E0000 		.4byte	0x2e62
 7488 1dfb 24       		.uleb128 0x24
 7489 1dfc 01       		.uleb128 0x1
 7490 1dfd 50       		.byte	0x50
 7491 1dfe 01       		.uleb128 0x1
 7492 1dff 33       		.byte	0x33
 7493 1e00 00       		.byte	0
 7494 1e01 00       		.byte	0
 7495 1e02 29       		.uleb128 0x29
 7496 1e03 020D0000 		.4byte	.LASF540
 7497 1e07 01       		.byte	0x1
 7498 1e08 4506     		.2byte	0x645
 7499 1e0a 00000000 		.4byte	.LFB93
 7500 1e0e C0000000 		.4byte	.LFE93-.LFB93
 7501 1e12 01       		.uleb128 0x1
 7502 1e13 9C       		.byte	0x9c
 7503 1e14 661F0000 		.4byte	0x1f66
 7504 1e18 35       		.uleb128 0x35
 7505 1e19 643F0000 		.4byte	.LASF537
ARM GAS  C:\Users\Administrator\AppData\Local\Temp\ccNQfmEa.s 			page 175


 7506 1e1d 01       		.byte	0x1
 7507 1e1e 4706     		.2byte	0x647
 7508 1e20 0B010000 		.4byte	0x10b
 7509 1e24 02       		.uleb128 0x2
 7510 1e25 91       		.byte	0x91
 7511 1e26 60       		.sleb128 -32
 7512 1e27 35       		.uleb128 0x35
 7513 1e28 C71D0000 		.4byte	.LASF538
 7514 1e2c 01       		.byte	0x1
 7515 1e2d 4806     		.2byte	0x648
 7516 1e2f 1B010000 		.4byte	0x11b
 7517 1e33 02       		.uleb128 0x2
 7518 1e34 91       		.byte	0x91
 7519 1e35 5C       		.sleb128 -36
 7520 1e36 2C       		.uleb128 0x2c
 7521 1e37 691B0000 		.4byte	.LASF504
 7522 1e3b 01       		.byte	0x1
 7523 1e3c 4906     		.2byte	0x649
 7524 1e3e 99000000 		.4byte	0x99
 7525 1e42 05050000 		.4byte	.LLST30
 7526 1e46 35       		.uleb128 0x35
 7527 1e47 4A3D0000 		.4byte	.LASF541
 7528 1e4b 01       		.byte	0x1
 7529 1e4c 4A06     		.2byte	0x64a
 7530 1e4e 67010000 		.4byte	0x167
 7531 1e52 02       		.uleb128 0x2
 7532 1e53 91       		.byte	0x91
 7533 1e54 68       		.sleb128 -24
 7534 1e55 23       		.uleb128 0x23
 7535 1e56 0E000000 		.4byte	.LVL216
 7536 1e5a 4A2F0000 		.4byte	0x2f4a
 7537 1e5e 771E0000 		.4byte	0x1e77
 7538 1e62 24       		.uleb128 0x24
 7539 1e63 01       		.uleb128 0x1
 7540 1e64 50       		.byte	0x50
 7541 1e65 02       		.uleb128 0x2
 7542 1e66 91       		.byte	0x91
 7543 1e67 60       		.sleb128 -32
 7544 1e68 24       		.uleb128 0x24
 7545 1e69 01       		.uleb128 0x1
 7546 1e6a 51       		.byte	0x51
 7547 1e6b 05       		.uleb128 0x5
 7548 1e6c 03       		.byte	0x3
 7549 1e6d 00000000 		.4byte	.LANCHOR1
 7550 1e71 24       		.uleb128 0x24
 7551 1e72 01       		.uleb128 0x1
 7552 1e73 52       		.byte	0x52
 7553 1e74 01       		.uleb128 0x1
 7554 1e75 38       		.byte	0x38
 7555 1e76 00       		.byte	0
 7556 1e77 26       		.uleb128 0x26
 7557 1e78 12000000 		.4byte	.LVL217
 7558 1e7c 532F0000 		.4byte	0x2f53
 7559 1e80 26       		.uleb128 0x26
 7560 1e81 1C000000 		.4byte	.LVL218
 7561 1e85 3F120000 		.4byte	0x123f
 7562 1e89 26       		.uleb128 0x26
ARM GAS  C:\Users\Administrator\AppData\Local\Temp\ccNQfmEa.s 			page 176


 7563 1e8a 20000000 		.4byte	.LVL219
 7564 1e8e 532F0000 		.4byte	0x2f53
 7565 1e92 26       		.uleb128 0x26
 7566 1e93 28000000 		.4byte	.LVL220
 7567 1e97 0C130000 		.4byte	0x130c
 7568 1e9b 26       		.uleb128 0x26
 7569 1e9c 2C000000 		.4byte	.LVL221
 7570 1ea0 C5130000 		.4byte	0x13c5
 7571 1ea4 23       		.uleb128 0x23
 7572 1ea5 32000000 		.4byte	.LVL222
 7573 1ea9 292F0000 		.4byte	0x2f29
 7574 1ead B71E0000 		.4byte	0x1eb7
 7575 1eb1 24       		.uleb128 0x24
 7576 1eb2 01       		.uleb128 0x1
 7577 1eb3 50       		.byte	0x50
 7578 1eb4 01       		.uleb128 0x1
 7579 1eb5 3A       		.byte	0x3a
 7580 1eb6 00       		.byte	0
 7581 1eb7 26       		.uleb128 0x26
 7582 1eb8 36000000 		.4byte	.LVL223
 7583 1ebc 832E0000 		.4byte	0x2e83
 7584 1ec0 23       		.uleb128 0x23
 7585 1ec1 56000000 		.4byte	.LVL225
 7586 1ec5 4E2E0000 		.4byte	0x2e4e
 7587 1ec9 DF1E0000 		.4byte	0x1edf
 7588 1ecd 24       		.uleb128 0x24
 7589 1ece 01       		.uleb128 0x1
 7590 1ecf 50       		.byte	0x50
 7591 1ed0 02       		.uleb128 0x2
 7592 1ed1 91       		.byte	0x91
 7593 1ed2 68       		.sleb128 -24
 7594 1ed3 24       		.uleb128 0x24
 7595 1ed4 01       		.uleb128 0x1
 7596 1ed5 51       		.byte	0x51
 7597 1ed6 02       		.uleb128 0x2
 7598 1ed7 74       		.byte	0x74
 7599 1ed8 00       		.sleb128 0
 7600 1ed9 24       		.uleb128 0x24
 7601 1eda 01       		.uleb128 0x1
 7602 1edb 52       		.byte	0x52
 7603 1edc 01       		.uleb128 0x1
 7604 1edd 40       		.byte	0x40
 7605 1ede 00       		.byte	0
 7606 1edf 23       		.uleb128 0x23
 7607 1ee0 60000000 		.4byte	.LVL226
 7608 1ee4 4A2F0000 		.4byte	0x2f4a
 7609 1ee8 FE1E0000 		.4byte	0x1efe
 7610 1eec 24       		.uleb128 0x24
 7611 1eed 01       		.uleb128 0x1
 7612 1eee 50       		.byte	0x50
 7613 1eef 02       		.uleb128 0x2
 7614 1ef0 91       		.byte	0x91
 7615 1ef1 68       		.sleb128 -24
 7616 1ef2 24       		.uleb128 0x24
 7617 1ef3 01       		.uleb128 0x1
 7618 1ef4 51       		.byte	0x51
 7619 1ef5 02       		.uleb128 0x2
ARM GAS  C:\Users\Administrator\AppData\Local\Temp\ccNQfmEa.s 			page 177


 7620 1ef6 91       		.byte	0x91
 7621 1ef7 60       		.sleb128 -32
 7622 1ef8 24       		.uleb128 0x24
 7623 1ef9 01       		.uleb128 0x1
 7624 1efa 52       		.byte	0x52
 7625 1efb 01       		.uleb128 0x1
 7626 1efc 38       		.byte	0x38
 7627 1efd 00       		.byte	0
 7628 1efe 23       		.uleb128 0x23
 7629 1eff 70000000 		.4byte	.LVL227
 7630 1f03 342F0000 		.4byte	0x2f34
 7631 1f07 171F0000 		.4byte	0x1f17
 7632 1f0b 24       		.uleb128 0x24
 7633 1f0c 01       		.uleb128 0x1
 7634 1f0d 50       		.byte	0x50
 7635 1f0e 02       		.uleb128 0x2
 7636 1f0f 91       		.byte	0x91
 7637 1f10 68       		.sleb128 -24
 7638 1f11 24       		.uleb128 0x24
 7639 1f12 01       		.uleb128 0x1
 7640 1f13 51       		.byte	0x51
 7641 1f14 01       		.uleb128 0x1
 7642 1f15 38       		.byte	0x38
 7643 1f16 00       		.byte	0
 7644 1f17 26       		.uleb128 0x26
 7645 1f18 7C000000 		.4byte	.LVL228
 7646 1f1c 832E0000 		.4byte	0x2e83
 7647 1f20 23       		.uleb128 0x23
 7648 1f21 92000000 		.4byte	.LVL231
 7649 1f25 3F2F0000 		.4byte	0x2f3f
 7650 1f29 3E1F0000 		.4byte	0x1f3e
 7651 1f2d 24       		.uleb128 0x24
 7652 1f2e 01       		.uleb128 0x1
 7653 1f2f 50       		.byte	0x50
 7654 1f30 02       		.uleb128 0x2
 7655 1f31 91       		.byte	0x91
 7656 1f32 68       		.sleb128 -24
 7657 1f33 24       		.uleb128 0x24
 7658 1f34 01       		.uleb128 0x1
 7659 1f35 51       		.byte	0x51
 7660 1f36 01       		.uleb128 0x1
 7661 1f37 38       		.byte	0x38
 7662 1f38 24       		.uleb128 0x24
 7663 1f39 01       		.uleb128 0x1
 7664 1f3a 52       		.byte	0x52
 7665 1f3b 01       		.uleb128 0x1
 7666 1f3c 38       		.byte	0x38
 7667 1f3d 00       		.byte	0
 7668 1f3e 23       		.uleb128 0x23
 7669 1f3f 9A000000 		.4byte	.LVL232
 7670 1f43 3F120000 		.4byte	0x123f
 7671 1f47 531F0000 		.4byte	0x1f53
 7672 1f4b 24       		.uleb128 0x24
 7673 1f4c 01       		.uleb128 0x1
 7674 1f4d 50       		.byte	0x50
 7675 1f4e 03       		.uleb128 0x3
 7676 1f4f 0A       		.byte	0xa
ARM GAS  C:\Users\Administrator\AppData\Local\Temp\ccNQfmEa.s 			page 178


 7677 1f50 E803     		.2byte	0x3e8
 7678 1f52 00       		.byte	0
 7679 1f53 26       		.uleb128 0x26
 7680 1f54 9E000000 		.4byte	.LVL233
 7681 1f58 EB130000 		.4byte	0x13eb
 7682 1f5c 26       		.uleb128 0x26
 7683 1f5d A6000000 		.4byte	.LVL234
 7684 1f61 6A130000 		.4byte	0x136a
 7685 1f65 00       		.byte	0
 7686 1f66 29       		.uleb128 0x29
 7687 1f67 E1390000 		.4byte	.LASF542
 7688 1f6b 01       		.byte	0x1
 7689 1f6c B306     		.2byte	0x6b3
 7690 1f6e 00000000 		.4byte	.LFB94
 7691 1f72 08010000 		.4byte	.LFE94-.LFB94
 7692 1f76 01       		.uleb128 0x1
 7693 1f77 9C       		.byte	0x9c
 7694 1f78 A5200000 		.4byte	0x20a5
 7695 1f7c 35       		.uleb128 0x35
 7696 1f7d 643F0000 		.4byte	.LASF537
 7697 1f81 01       		.byte	0x1
 7698 1f82 B506     		.2byte	0x6b5
 7699 1f84 0B010000 		.4byte	0x10b
 7700 1f88 02       		.uleb128 0x2
 7701 1f89 91       		.byte	0x91
 7702 1f8a 58       		.sleb128 -40
 7703 1f8b 35       		.uleb128 0x35
 7704 1f8c C71D0000 		.4byte	.LASF538
 7705 1f90 01       		.byte	0x1
 7706 1f91 B606     		.2byte	0x6b6
 7707 1f93 1B010000 		.4byte	0x11b
 7708 1f97 02       		.uleb128 0x2
 7709 1f98 91       		.byte	0x91
 7710 1f99 54       		.sleb128 -44
 7711 1f9a 2C       		.uleb128 0x2c
 7712 1f9b 691B0000 		.4byte	.LASF504
 7713 1f9f 01       		.byte	0x1
 7714 1fa0 B706     		.2byte	0x6b7
 7715 1fa2 99000000 		.4byte	0x99
 7716 1fa6 43050000 		.4byte	.LLST31
 7717 1faa 35       		.uleb128 0x35
 7718 1fab 0C000000 		.4byte	.LASF543
 7719 1faf 01       		.byte	0x1
 7720 1fb0 B806     		.2byte	0x6b8
 7721 1fb2 67010000 		.4byte	0x167
 7722 1fb6 02       		.uleb128 0x2
 7723 1fb7 91       		.byte	0x91
 7724 1fb8 60       		.sleb128 -32
 7725 1fb9 23       		.uleb128 0x23
 7726 1fba 10000000 		.4byte	.LVL235
 7727 1fbe 4A2F0000 		.4byte	0x2f4a
 7728 1fc2 DB1F0000 		.4byte	0x1fdb
 7729 1fc6 24       		.uleb128 0x24
 7730 1fc7 01       		.uleb128 0x1
 7731 1fc8 50       		.byte	0x50
 7732 1fc9 02       		.uleb128 0x2
 7733 1fca 91       		.byte	0x91
ARM GAS  C:\Users\Administrator\AppData\Local\Temp\ccNQfmEa.s 			page 179


 7734 1fcb 58       		.sleb128 -40
 7735 1fcc 24       		.uleb128 0x24
 7736 1fcd 01       		.uleb128 0x1
 7737 1fce 51       		.byte	0x51
 7738 1fcf 05       		.uleb128 0x5
 7739 1fd0 03       		.byte	0x3
 7740 1fd1 08000000 		.4byte	.LANCHOR1+8
 7741 1fd5 24       		.uleb128 0x24
 7742 1fd6 01       		.uleb128 0x1
 7743 1fd7 52       		.byte	0x52
 7744 1fd8 01       		.uleb128 0x1
 7745 1fd9 38       		.byte	0x38
 7746 1fda 00       		.byte	0
 7747 1fdb 26       		.uleb128 0x26
 7748 1fdc 14000000 		.4byte	.LVL236
 7749 1fe0 5E2F0000 		.4byte	0x2f5e
 7750 1fe4 26       		.uleb128 0x26
 7751 1fe5 22000000 		.4byte	.LVL237
 7752 1fe9 3F120000 		.4byte	0x123f
 7753 1fed 26       		.uleb128 0x26
 7754 1fee 26000000 		.4byte	.LVL238
 7755 1ff2 5E2F0000 		.4byte	0x2f5e
 7756 1ff6 26       		.uleb128 0x26
 7757 1ff7 2E000000 		.4byte	.LVL239
 7758 1ffb C5130000 		.4byte	0x13c5
 7759 1fff 26       		.uleb128 0x26
 7760 2000 48000000 		.4byte	.LVL240
 7761 2004 832E0000 		.4byte	0x2e83
 7762 2008 23       		.uleb128 0x23
 7763 2009 62000000 		.4byte	.LVL242
 7764 200d 622E0000 		.4byte	0x2e62
 7765 2011 1C200000 		.4byte	0x201c
 7766 2015 24       		.uleb128 0x24
 7767 2016 01       		.uleb128 0x1
 7768 2017 50       		.byte	0x50
 7769 2018 02       		.uleb128 0x2
 7770 2019 76       		.byte	0x76
 7771 201a 00       		.sleb128 0
 7772 201b 00       		.byte	0
 7773 201c 26       		.uleb128 0x26
 7774 201d 80000000 		.4byte	.LVL243
 7775 2021 832E0000 		.4byte	0x2e83
 7776 2025 23       		.uleb128 0x23
 7777 2026 A8000000 		.4byte	.LVL245
 7778 202a 4E2E0000 		.4byte	0x2e4e
 7779 202e 43200000 		.4byte	0x2043
 7780 2032 24       		.uleb128 0x24
 7781 2033 01       		.uleb128 0x1
 7782 2034 50       		.byte	0x50
 7783 2035 02       		.uleb128 0x2
 7784 2036 91       		.byte	0x91
 7785 2037 60       		.sleb128 -32
 7786 2038 24       		.uleb128 0x24
 7787 2039 01       		.uleb128 0x1
 7788 203a 51       		.byte	0x51
 7789 203b 01       		.uleb128 0x1
 7790 203c 30       		.byte	0x30
ARM GAS  C:\Users\Administrator\AppData\Local\Temp\ccNQfmEa.s 			page 180


 7791 203d 24       		.uleb128 0x24
 7792 203e 01       		.uleb128 0x1
 7793 203f 52       		.byte	0x52
 7794 2040 01       		.uleb128 0x1
 7795 2041 40       		.byte	0x40
 7796 2042 00       		.byte	0
 7797 2043 23       		.uleb128 0x23
 7798 2044 B2000000 		.4byte	.LVL246
 7799 2048 4A2F0000 		.4byte	0x2f4a
 7800 204c 62200000 		.4byte	0x2062
 7801 2050 24       		.uleb128 0x24
 7802 2051 01       		.uleb128 0x1
 7803 2052 50       		.byte	0x50
 7804 2053 02       		.uleb128 0x2
 7805 2054 91       		.byte	0x91
 7806 2055 60       		.sleb128 -32
 7807 2056 24       		.uleb128 0x24
 7808 2057 01       		.uleb128 0x1
 7809 2058 51       		.byte	0x51
 7810 2059 02       		.uleb128 0x2
 7811 205a 91       		.byte	0x91
 7812 205b 58       		.sleb128 -40
 7813 205c 24       		.uleb128 0x24
 7814 205d 01       		.uleb128 0x1
 7815 205e 52       		.byte	0x52
 7816 205f 01       		.uleb128 0x1
 7817 2060 38       		.byte	0x38
 7818 2061 00       		.byte	0
 7819 2062 23       		.uleb128 0x23
 7820 2063 C4000000 		.4byte	.LVL247
 7821 2067 342F0000 		.4byte	0x2f34
 7822 206b 7C200000 		.4byte	0x207c
 7823 206f 24       		.uleb128 0x24
 7824 2070 01       		.uleb128 0x1
 7825 2071 50       		.byte	0x50
 7826 2072 02       		.uleb128 0x2
 7827 2073 91       		.byte	0x91
 7828 2074 60       		.sleb128 -32
 7829 2075 24       		.uleb128 0x24
 7830 2076 01       		.uleb128 0x1
 7831 2077 51       		.byte	0x51
 7832 2078 02       		.uleb128 0x2
 7833 2079 75       		.byte	0x75
 7834 207a 00       		.sleb128 0
 7835 207b 00       		.byte	0
 7836 207c 23       		.uleb128 0x23
 7837 207d CE000000 		.4byte	.LVL248
 7838 2081 3F2F0000 		.4byte	0x2f3f
 7839 2085 9B200000 		.4byte	0x209b
 7840 2089 24       		.uleb128 0x24
 7841 208a 01       		.uleb128 0x1
 7842 208b 50       		.byte	0x50
 7843 208c 02       		.uleb128 0x2
 7844 208d 91       		.byte	0x91
 7845 208e 60       		.sleb128 -32
 7846 208f 24       		.uleb128 0x24
 7847 2090 01       		.uleb128 0x1
ARM GAS  C:\Users\Administrator\AppData\Local\Temp\ccNQfmEa.s 			page 181


 7848 2091 51       		.byte	0x51
 7849 2092 01       		.uleb128 0x1
 7850 2093 38       		.byte	0x38
 7851 2094 24       		.uleb128 0x24
 7852 2095 01       		.uleb128 0x1
 7853 2096 52       		.byte	0x52
 7854 2097 02       		.uleb128 0x2
 7855 2098 75       		.byte	0x75
 7856 2099 00       		.sleb128 0
 7857 209a 00       		.byte	0
 7858 209b 26       		.uleb128 0x26
 7859 209c DE000000 		.4byte	.LVL249
 7860 20a0 EB130000 		.4byte	0x13eb
 7861 20a4 00       		.byte	0
 7862 20a5 1C       		.uleb128 0x1c
 7863 20a6 46100000 		.4byte	0x1046
 7864 20aa 00000000 		.4byte	.LFB95
 7865 20ae 7C000000 		.4byte	.LFE95-.LFB95
 7866 20b2 01       		.uleb128 0x1
 7867 20b3 9C       		.byte	0x9c
 7868 20b4 11210000 		.4byte	0x2111
 7869 20b8 1F       		.uleb128 0x1f
 7870 20b9 53100000 		.4byte	0x1053
 7871 20bd 61050000 		.4byte	.LLST32
 7872 20c1 20       		.uleb128 0x20
 7873 20c2 4E000000 		.4byte	.LBB61
 7874 20c6 10000000 		.4byte	.LBE61-.LBB61
 7875 20ca E3200000 		.4byte	0x20e3
 7876 20ce 1E       		.uleb128 0x1e
 7877 20cf 53100000 		.4byte	0x1053
 7878 20d3 25       		.uleb128 0x25
 7879 20d4 5C000000 		.4byte	.LVL257
 7880 20d8 622E0000 		.4byte	0x2e62
 7881 20dc 24       		.uleb128 0x24
 7882 20dd 01       		.uleb128 0x1
 7883 20de 50       		.byte	0x50
 7884 20df 01       		.uleb128 0x1
 7885 20e0 32       		.byte	0x32
 7886 20e1 00       		.byte	0
 7887 20e2 00       		.byte	0
 7888 20e3 26       		.uleb128 0x26
 7889 20e4 06000000 		.4byte	.LVL251
 7890 20e8 692F0000 		.4byte	0x2f69
 7891 20ec 26       		.uleb128 0x26
 7892 20ed 10000000 		.4byte	.LVL252
 7893 20f1 3F120000 		.4byte	0x123f
 7894 20f5 26       		.uleb128 0x26
 7895 20f6 14000000 		.4byte	.LVL253
 7896 20fa 692F0000 		.4byte	0x2f69
 7897 20fe 26       		.uleb128 0x26
 7898 20ff 36000000 		.4byte	.LVL254
 7899 2103 292F0000 		.4byte	0x2f29
 7900 2107 26       		.uleb128 0x26
 7901 2108 3A000000 		.4byte	.LVL255
 7902 210c 832E0000 		.4byte	0x2e83
 7903 2110 00       		.byte	0
 7904 2111 1C       		.uleb128 0x1c
ARM GAS  C:\Users\Administrator\AppData\Local\Temp\ccNQfmEa.s 			page 182


 7905 2112 60100000 		.4byte	0x1060
 7906 2116 00000000 		.4byte	.LFB96
 7907 211a 40000000 		.4byte	.LFE96-.LFB96
 7908 211e 01       		.uleb128 0x1
 7909 211f 9C       		.byte	0x9c
 7910 2120 49210000 		.4byte	0x2149
 7911 2124 26       		.uleb128 0x26
 7912 2125 0E000000 		.4byte	.LVL260
 7913 2129 692F0000 		.4byte	0x2f69
 7914 212d 26       		.uleb128 0x26
 7915 212e 18000000 		.4byte	.LVL261
 7916 2132 3F120000 		.4byte	0x123f
 7917 2136 26       		.uleb128 0x26
 7918 2137 1C000000 		.4byte	.LVL262
 7919 213b 692F0000 		.4byte	0x2f69
 7920 213f 26       		.uleb128 0x26
 7921 2140 34000000 		.4byte	.LVL263
 7922 2144 292F0000 		.4byte	0x2f29
 7923 2148 00       		.byte	0
 7924 2149 29       		.uleb128 0x29
 7925 214a 9D1C0000 		.4byte	.LASF544
 7926 214e 01       		.byte	0x1
 7927 214f 1D01     		.2byte	0x11d
 7928 2151 00000000 		.4byte	.LFB66
 7929 2155 40000000 		.4byte	.LFE66-.LFB66
 7930 2159 01       		.uleb128 0x1
 7931 215a 9C       		.byte	0x9c
 7932 215b 9B210000 		.4byte	0x219b
 7933 215f 2F       		.uleb128 0x2f
 7934 2160 6900     		.ascii	"i\000"
 7935 2162 01       		.byte	0x1
 7936 2163 1F01     		.2byte	0x11f
 7937 2165 8D000000 		.4byte	0x8d
 7938 2169 8C050000 		.4byte	.LLST33
 7939 216d 26       		.uleb128 0x26
 7940 216e 06000000 		.4byte	.LVL264
 7941 2172 662D0000 		.4byte	0x2d66
 7942 2176 26       		.uleb128 0x26
 7943 2177 10000000 		.4byte	.LVL267
 7944 217b 712D0000 		.4byte	0x2d71
 7945 217f 26       		.uleb128 0x26
 7946 2180 20000000 		.4byte	.LVL268
 7947 2184 7D2D0000 		.4byte	0x2d7d
 7948 2188 26       		.uleb128 0x26
 7949 2189 32000000 		.4byte	.LVL269
 7950 218d B61B0000 		.4byte	0x1bb6
 7951 2191 26       		.uleb128 0x26
 7952 2192 36000000 		.4byte	.LVL270
 7953 2196 60100000 		.4byte	0x1060
 7954 219a 00       		.byte	0
 7955 219b 1C       		.uleb128 0x1c
 7956 219c 69100000 		.4byte	0x1069
 7957 21a0 00000000 		.4byte	.LFB97
 7958 21a4 58000000 		.4byte	.LFE97-.LFB97
 7959 21a8 01       		.uleb128 0x1
 7960 21a9 9C       		.byte	0x9c
 7961 21aa FE210000 		.4byte	0x21fe
ARM GAS  C:\Users\Administrator\AppData\Local\Temp\ccNQfmEa.s 			page 183


 7962 21ae 1F       		.uleb128 0x1f
 7963 21af 76100000 		.4byte	0x1076
 7964 21b3 B0050000 		.4byte	.LLST34
 7965 21b7 20       		.uleb128 0x20
 7966 21b8 34000000 		.4byte	.LBB69
 7967 21bc 0A000000 		.4byte	.LBE69-.LBB69
 7968 21c0 D9210000 		.4byte	0x21d9
 7969 21c4 1E       		.uleb128 0x1e
 7970 21c5 76100000 		.4byte	0x1076
 7971 21c9 25       		.uleb128 0x25
 7972 21ca 3E000000 		.4byte	.LVL277
 7973 21ce 622E0000 		.4byte	0x2e62
 7974 21d2 24       		.uleb128 0x24
 7975 21d3 01       		.uleb128 0x1
 7976 21d4 50       		.byte	0x50
 7977 21d5 01       		.uleb128 0x1
 7978 21d6 34       		.byte	0x34
 7979 21d7 00       		.byte	0
 7980 21d8 00       		.byte	0
 7981 21d9 26       		.uleb128 0x26
 7982 21da 06000000 		.4byte	.LVL272
 7983 21de 11140000 		.4byte	0x1411
 7984 21e2 26       		.uleb128 0x26
 7985 21e3 12000000 		.4byte	.LVL273
 7986 21e7 3F120000 		.4byte	0x123f
 7987 21eb 26       		.uleb128 0x26
 7988 21ec 16000000 		.4byte	.LVL274
 7989 21f0 11140000 		.4byte	0x1411
 7990 21f4 26       		.uleb128 0x26
 7991 21f5 26000000 		.4byte	.LVL275
 7992 21f9 832E0000 		.4byte	0x2e83
 7993 21fd 00       		.byte	0
 7994 21fe 1C       		.uleb128 0x1c
 7995 21ff 83100000 		.4byte	0x1083
 7996 2203 00000000 		.4byte	.LFB98
 7997 2207 48000000 		.4byte	.LFE98-.LFB98
 7998 220b 01       		.uleb128 0x1
 7999 220c 9C       		.byte	0x9c
 8000 220d 46220000 		.4byte	0x2246
 8001 2211 1F       		.uleb128 0x1f
 8002 2212 90100000 		.4byte	0x1090
 8003 2216 CF050000 		.4byte	.LLST35
 8004 221a 20       		.uleb128 0x20
 8005 221b 1C000000 		.4byte	.LBB73
 8006 221f 14000000 		.4byte	.LBE73-.LBB73
 8007 2223 3C220000 		.4byte	0x223c
 8008 2227 1E       		.uleb128 0x1e
 8009 2228 90100000 		.4byte	0x1090
 8010 222c 25       		.uleb128 0x25
 8011 222d 26000000 		.4byte	.LVL280
 8012 2231 622E0000 		.4byte	0x2e62
 8013 2235 24       		.uleb128 0x24
 8014 2236 01       		.uleb128 0x1
 8015 2237 50       		.byte	0x50
 8016 2238 01       		.uleb128 0x1
 8017 2239 37       		.byte	0x37
 8018 223a 00       		.byte	0
ARM GAS  C:\Users\Administrator\AppData\Local\Temp\ccNQfmEa.s 			page 184


 8019 223b 00       		.byte	0
 8020 223c 26       		.uleb128 0x26
 8021 223d 0E000000 		.4byte	.LVL278
 8022 2241 832E0000 		.4byte	0x2e83
 8023 2245 00       		.byte	0
 8024 2246 2A       		.uleb128 0x2a
 8025 2247 232C0000 		.4byte	.LASF545
 8026 224b 01       		.byte	0x1
 8027 224c B807     		.2byte	0x7b8
 8028 224e 00000000 		.4byte	.LFB99
 8029 2252 10010000 		.4byte	.LFE99-.LFB99
 8030 2256 01       		.uleb128 0x1
 8031 2257 9C       		.byte	0x9c
 8032 2258 2C230000 		.4byte	0x232c
 8033 225c 2C       		.uleb128 0x2c
 8034 225d 9D330000 		.4byte	.LASF546
 8035 2261 01       		.byte	0x1
 8036 2262 BA07     		.2byte	0x7ba
 8037 2264 8D000000 		.4byte	0x8d
 8038 2268 E2050000 		.4byte	.LLST36
 8039 226c 35       		.uleb128 0x35
 8040 226d 89260000 		.4byte	.LASF547
 8041 2271 01       		.byte	0x1
 8042 2272 BB07     		.2byte	0x7bb
 8043 2274 2C230000 		.4byte	0x232c
 8044 2278 03       		.uleb128 0x3
 8045 2279 91       		.byte	0x91
 8046 227a E87D     		.sleb128 -280
 8047 227c 35       		.uleb128 0x35
 8048 227d 01120000 		.4byte	.LASF548
 8049 2281 01       		.byte	0x1
 8050 2282 BC07     		.2byte	0x7bc
 8051 2284 67010000 		.4byte	0x167
 8052 2288 03       		.uleb128 0x3
 8053 2289 91       		.byte	0x91
 8054 228a D87D     		.sleb128 -296
 8055 228c 2F       		.uleb128 0x2f
 8056 228d 6900     		.ascii	"i\000"
 8057 228f 01       		.byte	0x1
 8058 2290 BD07     		.2byte	0x7bd
 8059 2292 8D000000 		.4byte	0x8d
 8060 2296 0A060000 		.4byte	.LLST37
 8061 229a 23       		.uleb128 0x23
 8062 229b 12000000 		.4byte	.LVL282
 8063 229f 4E2E0000 		.4byte	0x2e4e
 8064 22a3 BA220000 		.4byte	0x22ba
 8065 22a7 24       		.uleb128 0x24
 8066 22a8 01       		.uleb128 0x1
 8067 22a9 50       		.byte	0x50
 8068 22aa 02       		.uleb128 0x2
 8069 22ab 76       		.byte	0x76
 8070 22ac 00       		.sleb128 0
 8071 22ad 24       		.uleb128 0x24
 8072 22ae 01       		.uleb128 0x1
 8073 22af 51       		.byte	0x51
 8074 22b0 01       		.uleb128 0x1
 8075 22b1 30       		.byte	0x30
ARM GAS  C:\Users\Administrator\AppData\Local\Temp\ccNQfmEa.s 			page 185


 8076 22b2 24       		.uleb128 0x24
 8077 22b3 01       		.uleb128 0x1
 8078 22b4 52       		.byte	0x52
 8079 22b5 03       		.uleb128 0x3
 8080 22b6 0A       		.byte	0xa
 8081 22b7 0001     		.2byte	0x100
 8082 22b9 00       		.byte	0
 8083 22ba 26       		.uleb128 0x26
 8084 22bb 20000000 		.4byte	.LVL283
 8085 22bf 832E0000 		.4byte	0x2e83
 8086 22c3 26       		.uleb128 0x26
 8087 22c4 3E000000 		.4byte	.LVL284
 8088 22c8 742F0000 		.4byte	0x2f74
 8089 22cc 23       		.uleb128 0x23
 8090 22cd 52000000 		.4byte	.LVL286
 8091 22d1 572E0000 		.4byte	0x2e57
 8092 22d5 E7220000 		.4byte	0x22e7
 8093 22d9 24       		.uleb128 0x24
 8094 22da 01       		.uleb128 0x1
 8095 22db 50       		.byte	0x50
 8096 22dc 02       		.uleb128 0x2
 8097 22dd 76       		.byte	0x76
 8098 22de 00       		.sleb128 0
 8099 22df 24       		.uleb128 0x24
 8100 22e0 01       		.uleb128 0x1
 8101 22e1 52       		.byte	0x52
 8102 22e2 03       		.uleb128 0x3
 8103 22e3 0A       		.byte	0xa
 8104 22e4 0001     		.2byte	0x100
 8105 22e6 00       		.byte	0
 8106 22e7 23       		.uleb128 0x23
 8107 22e8 BA000000 		.4byte	.LVL293
 8108 22ec 7F2F0000 		.4byte	0x2f7f
 8109 22f0 FA220000 		.4byte	0x22fa
 8110 22f4 24       		.uleb128 0x24
 8111 22f5 01       		.uleb128 0x1
 8112 22f6 51       		.byte	0x51
 8113 22f7 01       		.uleb128 0x1
 8114 22f8 31       		.byte	0x31
 8115 22f9 00       		.byte	0
 8116 22fa 23       		.uleb128 0x23
 8117 22fb C6000000 		.4byte	.LVL294
 8118 22ff 8A2F0000 		.4byte	0x2f8a
 8119 2303 15230000 		.4byte	0x2315
 8120 2307 24       		.uleb128 0x24
 8121 2308 01       		.uleb128 0x1
 8122 2309 50       		.byte	0x50
 8123 230a 02       		.uleb128 0x2
 8124 230b 75       		.byte	0x75
 8125 230c 00       		.sleb128 0
 8126 230d 24       		.uleb128 0x24
 8127 230e 01       		.uleb128 0x1
 8128 230f 51       		.byte	0x51
 8129 2310 03       		.uleb128 0x3
 8130 2311 91       		.byte	0x91
 8131 2312 D87D     		.sleb128 -296
 8132 2314 00       		.byte	0
ARM GAS  C:\Users\Administrator\AppData\Local\Temp\ccNQfmEa.s 			page 186


 8133 2315 25       		.uleb128 0x25
 8134 2316 DC000000 		.4byte	.LVL295
 8135 231a 3F2F0000 		.4byte	0x2f3f
 8136 231e 24       		.uleb128 0x24
 8137 231f 01       		.uleb128 0x1
 8138 2320 50       		.byte	0x50
 8139 2321 03       		.uleb128 0x3
 8140 2322 91       		.byte	0x91
 8141 2323 D87D     		.sleb128 -296
 8142 2325 24       		.uleb128 0x24
 8143 2326 01       		.uleb128 0x1
 8144 2327 51       		.byte	0x51
 8145 2328 01       		.uleb128 0x1
 8146 2329 38       		.byte	0x38
 8147 232a 00       		.byte	0
 8148 232b 00       		.byte	0
 8149 232c 0B       		.uleb128 0xb
 8150 232d 81000000 		.4byte	0x81
 8151 2331 3C230000 		.4byte	0x233c
 8152 2335 0C       		.uleb128 0xc
 8153 2336 D7000000 		.4byte	0xd7
 8154 233a FF       		.byte	0xff
 8155 233b 00       		.byte	0
 8156 233c 29       		.uleb128 0x29
 8157 233d 330D0000 		.4byte	.LASF549
 8158 2341 01       		.byte	0x1
 8159 2342 0C08     		.2byte	0x80c
 8160 2344 00000000 		.4byte	.LFB100
 8161 2348 78000000 		.4byte	.LFE100-.LFB100
 8162 234c 01       		.uleb128 0x1
 8163 234d 9C       		.byte	0x9c
 8164 234e C2230000 		.4byte	0x23c2
 8165 2352 2B       		.uleb128 0x2b
 8166 2353 6D616300 		.ascii	"mac\000"
 8167 2357 01       		.byte	0x1
 8168 2358 0C08     		.2byte	0x80c
 8169 235a C2230000 		.4byte	0x23c2
 8170 235e 59060000 		.4byte	.LLST38
 8171 2362 37       		.uleb128 0x37
 8172 2363 90390000 		.4byte	.LASF550
 8173 2367 01       		.byte	0x1
 8174 2368 0C08     		.2byte	0x80c
 8175 236a C2230000 		.4byte	0x23c2
 8176 236e 9E060000 		.4byte	.LLST39
 8177 2372 2F       		.uleb128 0x2f
 8178 2373 6900     		.ascii	"i\000"
 8179 2375 01       		.byte	0x1
 8180 2376 0E08     		.2byte	0x80e
 8181 2378 81000000 		.4byte	0x81
 8182 237c CA060000 		.4byte	.LLST40
 8183 2380 35       		.uleb128 0x35
 8184 2381 1F160000 		.4byte	.LASF551
 8185 2385 01       		.byte	0x1
 8186 2386 0F08     		.2byte	0x80f
 8187 2388 C8230000 		.4byte	0x23c8
 8188 238c 02       		.uleb128 0x2
 8189 238d 91       		.byte	0x91
ARM GAS  C:\Users\Administrator\AppData\Local\Temp\ccNQfmEa.s 			page 187


 8190 238e 58       		.sleb128 -40
 8191 238f 23       		.uleb128 0x23
 8192 2390 14000000 		.4byte	.LVL301
 8193 2394 4A2F0000 		.4byte	0x2f4a
 8194 2398 B1230000 		.4byte	0x23b1
 8195 239c 24       		.uleb128 0x24
 8196 239d 01       		.uleb128 0x1
 8197 239e 50       		.byte	0x50
 8198 239f 02       		.uleb128 0x2
 8199 23a0 7D       		.byte	0x7d
 8200 23a1 00       		.sleb128 0
 8201 23a2 24       		.uleb128 0x24
 8202 23a3 01       		.uleb128 0x1
 8203 23a4 51       		.byte	0x51
 8204 23a5 05       		.uleb128 0x5
 8205 23a6 03       		.byte	0x3
 8206 23a7 10000000 		.4byte	.LANCHOR1+16
 8207 23ab 24       		.uleb128 0x24
 8208 23ac 01       		.uleb128 0x1
 8209 23ad 52       		.byte	0x52
 8210 23ae 01       		.uleb128 0x1
 8211 23af 3D       		.byte	0x3d
 8212 23b0 00       		.byte	0
 8213 23b1 25       		.uleb128 0x25
 8214 23b2 60000000 		.4byte	.LVL308
 8215 23b6 952F0000 		.4byte	0x2f95
 8216 23ba 24       		.uleb128 0x24
 8217 23bb 01       		.uleb128 0x1
 8218 23bc 50       		.byte	0x50
 8219 23bd 02       		.uleb128 0x2
 8220 23be 7D       		.byte	0x7d
 8221 23bf 00       		.sleb128 0
 8222 23c0 00       		.byte	0
 8223 23c1 00       		.byte	0
 8224 23c2 08       		.uleb128 0x8
 8225 23c3 04       		.byte	0x4
 8226 23c4 B3000000 		.4byte	0xb3
 8227 23c8 0B       		.uleb128 0xb
 8228 23c9 81000000 		.4byte	0x81
 8229 23cd D8230000 		.4byte	0x23d8
 8230 23d1 0C       		.uleb128 0xc
 8231 23d2 D7000000 		.4byte	0xd7
 8232 23d6 0C       		.byte	0xc
 8233 23d7 00       		.byte	0
 8234 23d8 29       		.uleb128 0x29
 8235 23d9 20050000 		.4byte	.LASF552
 8236 23dd 01       		.byte	0x1
 8237 23de 3B08     		.2byte	0x83b
 8238 23e0 00000000 		.4byte	.LFB101
 8239 23e4 B4000000 		.4byte	.LFE101-.LFB101
 8240 23e8 01       		.uleb128 0x1
 8241 23e9 9C       		.byte	0x9c
 8242 23ea DF240000 		.4byte	0x24df
 8243 23ee 2B       		.uleb128 0x2b
 8244 23ef 6D616300 		.ascii	"mac\000"
 8245 23f3 01       		.byte	0x1
 8246 23f4 3B08     		.2byte	0x83b
ARM GAS  C:\Users\Administrator\AppData\Local\Temp\ccNQfmEa.s 			page 188


 8247 23f6 E0000000 		.4byte	0xe0
 8248 23fa EB060000 		.4byte	.LLST41
 8249 23fe 37       		.uleb128 0x37
 8250 23ff 90390000 		.4byte	.LASF550
 8251 2403 01       		.byte	0x1
 8252 2404 3B08     		.2byte	0x83b
 8253 2406 E0000000 		.4byte	0xe0
 8254 240a 17070000 		.4byte	.LLST42
 8255 240e 2F       		.uleb128 0x2f
 8256 240f 6900     		.ascii	"i\000"
 8257 2411 01       		.byte	0x1
 8258 2412 3D08     		.2byte	0x83d
 8259 2414 81000000 		.4byte	0x81
 8260 2418 44070000 		.4byte	.LLST43
 8261 241c 35       		.uleb128 0x35
 8262 241d B9420000 		.4byte	.LASF553
 8263 2421 01       		.byte	0x1
 8264 2422 3E08     		.2byte	0x83e
 8265 2424 16030000 		.4byte	0x316
 8266 2428 02       		.uleb128 0x2
 8267 2429 91       		.byte	0x91
 8268 242a 58       		.sleb128 -40
 8269 242b 35       		.uleb128 0x35
 8270 242c 272B0000 		.4byte	.LASF533
 8271 2430 01       		.byte	0x1
 8272 2431 3F08     		.2byte	0x83f
 8273 2433 81000000 		.4byte	0x81
 8274 2437 02       		.uleb128 0x2
 8275 2438 91       		.byte	0x91
 8276 2439 57       		.sleb128 -41
 8277 243a 35       		.uleb128 0x35
 8278 243b 642F0000 		.4byte	.LASF554
 8279 243f 01       		.byte	0x1
 8280 2440 4008     		.2byte	0x840
 8281 2442 0B010000 		.4byte	0x10b
 8282 2446 02       		.uleb128 0x2
 8283 2447 91       		.byte	0x91
 8284 2448 60       		.sleb128 -32
 8285 2449 23       		.uleb128 0x23
 8286 244a 14000000 		.4byte	.LVL313
 8287 244e 4E2E0000 		.4byte	0x2e4e
 8288 2452 67240000 		.4byte	0x2467
 8289 2456 24       		.uleb128 0x24
 8290 2457 01       		.uleb128 0x1
 8291 2458 50       		.byte	0x50
 8292 2459 02       		.uleb128 0x2
 8293 245a 76       		.byte	0x76
 8294 245b 00       		.sleb128 0
 8295 245c 24       		.uleb128 0x24
 8296 245d 01       		.uleb128 0x1
 8297 245e 51       		.byte	0x51
 8298 245f 01       		.uleb128 0x1
 8299 2460 30       		.byte	0x30
 8300 2461 24       		.uleb128 0x24
 8301 2462 01       		.uleb128 0x1
 8302 2463 52       		.byte	0x52
 8303 2464 01       		.uleb128 0x1
ARM GAS  C:\Users\Administrator\AppData\Local\Temp\ccNQfmEa.s 			page 189


 8304 2465 36       		.byte	0x36
 8305 2466 00       		.byte	0
 8306 2467 23       		.uleb128 0x23
 8307 2468 26000000 		.4byte	.LVL314
 8308 246c 4E2E0000 		.4byte	0x2e4e
 8309 2470 85240000 		.4byte	0x2485
 8310 2474 24       		.uleb128 0x24
 8311 2475 01       		.uleb128 0x1
 8312 2476 50       		.byte	0x50
 8313 2477 02       		.uleb128 0x2
 8314 2478 74       		.byte	0x74
 8315 2479 00       		.sleb128 0
 8316 247a 24       		.uleb128 0x24
 8317 247b 01       		.uleb128 0x1
 8318 247c 51       		.byte	0x51
 8319 247d 01       		.uleb128 0x1
 8320 247e 30       		.byte	0x30
 8321 247f 24       		.uleb128 0x24
 8322 2480 01       		.uleb128 0x1
 8323 2481 52       		.byte	0x52
 8324 2482 01       		.uleb128 0x1
 8325 2483 38       		.byte	0x38
 8326 2484 00       		.byte	0
 8327 2485 23       		.uleb128 0x23
 8328 2486 30000000 		.4byte	.LVL315
 8329 248a 572E0000 		.4byte	0x2e57
 8330 248e A7240000 		.4byte	0x24a7
 8331 2492 24       		.uleb128 0x24
 8332 2493 01       		.uleb128 0x1
 8333 2494 50       		.byte	0x50
 8334 2495 02       		.uleb128 0x2
 8335 2496 77       		.byte	0x77
 8336 2497 00       		.sleb128 0
 8337 2498 24       		.uleb128 0x24
 8338 2499 01       		.uleb128 0x1
 8339 249a 51       		.byte	0x51
 8340 249b 05       		.uleb128 0x5
 8341 249c 0C       		.byte	0xc
 8342 249d 06920100 		.4byte	0x19206
 8343 24a1 24       		.uleb128 0x24
 8344 24a2 01       		.uleb128 0x1
 8345 24a3 52       		.byte	0x52
 8346 24a4 01       		.uleb128 0x1
 8347 24a5 31       		.byte	0x31
 8348 24a6 00       		.byte	0
 8349 24a7 23       		.uleb128 0x23
 8350 24a8 3C000000 		.4byte	.LVL316
 8351 24ac 572E0000 		.4byte	0x2e57
 8352 24b0 C8240000 		.4byte	0x24c8
 8353 24b4 24       		.uleb128 0x24
 8354 24b5 01       		.uleb128 0x1
 8355 24b6 50       		.byte	0x50
 8356 24b7 02       		.uleb128 0x2
 8357 24b8 76       		.byte	0x76
 8358 24b9 00       		.sleb128 0
 8359 24ba 24       		.uleb128 0x24
 8360 24bb 01       		.uleb128 0x1
ARM GAS  C:\Users\Administrator\AppData\Local\Temp\ccNQfmEa.s 			page 190


 8361 24bc 51       		.byte	0x51
 8362 24bd 04       		.uleb128 0x4
 8363 24be 08       		.byte	0x8
 8364 24bf C9       		.byte	0xc9
 8365 24c0 39       		.byte	0x39
 8366 24c1 24       		.byte	0x24
 8367 24c2 24       		.uleb128 0x24
 8368 24c3 01       		.uleb128 0x1
 8369 24c4 52       		.byte	0x52
 8370 24c5 01       		.uleb128 0x1
 8371 24c6 36       		.byte	0x36
 8372 24c7 00       		.byte	0
 8373 24c8 25       		.uleb128 0x25
 8374 24c9 56000000 		.4byte	.LVL317
 8375 24cd 4A2F0000 		.4byte	0x2f4a
 8376 24d1 24       		.uleb128 0x24
 8377 24d2 01       		.uleb128 0x1
 8378 24d3 50       		.byte	0x50
 8379 24d4 02       		.uleb128 0x2
 8380 24d5 75       		.byte	0x75
 8381 24d6 00       		.sleb128 0
 8382 24d7 24       		.uleb128 0x24
 8383 24d8 01       		.uleb128 0x1
 8384 24d9 51       		.byte	0x51
 8385 24da 02       		.uleb128 0x2
 8386 24db 76       		.byte	0x76
 8387 24dc 00       		.sleb128 0
 8388 24dd 00       		.byte	0
 8389 24de 00       		.byte	0
 8390 24df 38       		.uleb128 0x38
 8391 24e0 D80C0000 		.4byte	.LASF713
 8392 24e4 01       		.byte	0x1
 8393 24e5 8208     		.2byte	0x882
 8394 24e7 68000000 		.4byte	0x68
 8395 24eb 00000000 		.4byte	.LFB102
 8396 24ef 38010000 		.4byte	.LFE102-.LFB102
 8397 24f3 01       		.uleb128 0x1
 8398 24f4 9C       		.byte	0x9c
 8399 24f5 69270000 		.4byte	0x2769
 8400 24f9 2F       		.uleb128 0x2f
 8401 24fa 72657400 		.ascii	"ret\000"
 8402 24fe 01       		.byte	0x1
 8403 24ff 8408     		.2byte	0x884
 8404 2501 81000000 		.4byte	0x81
 8405 2505 70070000 		.4byte	.LLST44
 8406 2509 39       		.uleb128 0x39
 8407 250a 6900     		.ascii	"i\000"
 8408 250c 01       		.byte	0x1
 8409 250d 8408     		.2byte	0x884
 8410 250f 81000000 		.4byte	0x81
 8411 2513 2F       		.uleb128 0x2f
 8412 2514 746D7000 		.ascii	"tmp\000"
 8413 2518 01       		.byte	0x1
 8414 2519 8408     		.2byte	0x884
 8415 251b 81000000 		.4byte	0x81
 8416 251f 99070000 		.4byte	.LLST45
 8417 2523 2C       		.uleb128 0x2c
ARM GAS  C:\Users\Administrator\AppData\Local\Temp\ccNQfmEa.s 			page 191


 8418 2524 C2280000 		.4byte	.LASF500
 8419 2528 01       		.byte	0x1
 8420 2529 8408     		.2byte	0x884
 8421 252b 81000000 		.4byte	0x81
 8422 252f B7070000 		.4byte	.LLST46
 8423 2533 35       		.uleb128 0x35
 8424 2534 B2140000 		.4byte	.LASF555
 8425 2538 01       		.byte	0x1
 8426 2539 8508     		.2byte	0x885
 8427 253b 16030000 		.4byte	0x316
 8428 253f 02       		.uleb128 0x2
 8429 2540 91       		.byte	0x91
 8430 2541 5C       		.sleb128 -36
 8431 2542 35       		.uleb128 0x35
 8432 2543 3C060000 		.4byte	.LASF556
 8433 2547 01       		.byte	0x1
 8434 2548 8608     		.2byte	0x886
 8435 254a 69270000 		.4byte	0x2769
 8436 254e 02       		.uleb128 0x2
 8437 254f 91       		.byte	0x91
 8438 2550 64       		.sleb128 -28
 8439 2551 34       		.uleb128 0x34
 8440 2552 6A130000 		.4byte	0x136a
 8441 2556 2A000000 		.4byte	.LBB76
 8442 255a 04000000 		.4byte	.LBE76-.LBB76
 8443 255e 01       		.byte	0x1
 8444 255f 9608     		.2byte	0x896
 8445 2561 78250000 		.4byte	0x2578
 8446 2565 1D       		.uleb128 0x1d
 8447 2566 77130000 		.4byte	0x1377
 8448 256a DA070000 		.4byte	.LLST47
 8449 256e 26       		.uleb128 0x26
 8450 256f 2E000000 		.4byte	.LVL327
 8451 2573 DD120000 		.4byte	0x12dd
 8452 2577 00       		.byte	0
 8453 2578 23       		.uleb128 0x23
 8454 2579 12000000 		.4byte	.LVL323
 8455 257d 4A2F0000 		.4byte	0x2f4a
 8456 2581 97250000 		.4byte	0x2597
 8457 2585 24       		.uleb128 0x24
 8458 2586 01       		.uleb128 0x1
 8459 2587 50       		.byte	0x50
 8460 2588 02       		.uleb128 0x2
 8461 2589 91       		.byte	0x91
 8462 258a 5C       		.sleb128 -36
 8463 258b 24       		.uleb128 0x24
 8464 258c 01       		.uleb128 0x1
 8465 258d 51       		.byte	0x51
 8466 258e 02       		.uleb128 0x2
 8467 258f 74       		.byte	0x74
 8468 2590 1D       		.sleb128 29
 8469 2591 24       		.uleb128 0x24
 8470 2592 01       		.uleb128 0x1
 8471 2593 52       		.byte	0x52
 8472 2594 01       		.uleb128 0x1
 8473 2595 36       		.byte	0x36
 8474 2596 00       		.byte	0
ARM GAS  C:\Users\Administrator\AppData\Local\Temp\ccNQfmEa.s 			page 192


 8475 2597 23       		.uleb128 0x23
 8476 2598 1E000000 		.4byte	.LVL324
 8477 259c 4A2F0000 		.4byte	0x2f4a
 8478 25a0 B6250000 		.4byte	0x25b6
 8479 25a4 24       		.uleb128 0x24
 8480 25a5 01       		.uleb128 0x1
 8481 25a6 50       		.byte	0x50
 8482 25a7 02       		.uleb128 0x2
 8483 25a8 91       		.byte	0x91
 8484 25a9 64       		.sleb128 -28
 8485 25aa 24       		.uleb128 0x24
 8486 25ab 01       		.uleb128 0x1
 8487 25ac 51       		.byte	0x51
 8488 25ad 02       		.uleb128 0x2
 8489 25ae 74       		.byte	0x74
 8490 25af 23       		.sleb128 35
 8491 25b0 24       		.uleb128 0x24
 8492 25b1 01       		.uleb128 0x1
 8493 25b2 52       		.byte	0x52
 8494 25b3 01       		.uleb128 0x1
 8495 25b4 3A       		.byte	0x3a
 8496 25b5 00       		.byte	0
 8497 25b6 26       		.uleb128 0x26
 8498 25b7 22000000 		.4byte	.LVL325
 8499 25bb A12F0000 		.4byte	0x2fa1
 8500 25bf 26       		.uleb128 0x26
 8501 25c0 32000000 		.4byte	.LVL328
 8502 25c4 EB130000 		.4byte	0x13eb
 8503 25c8 26       		.uleb128 0x26
 8504 25c9 38000000 		.4byte	.LVL329
 8505 25cd AD2F0000 		.4byte	0x2fad
 8506 25d1 26       		.uleb128 0x26
 8507 25d2 3C000000 		.4byte	.LVL330
 8508 25d6 B82F0000 		.4byte	0x2fb8
 8509 25da 23       		.uleb128 0x23
 8510 25db 42000000 		.4byte	.LVL331
 8511 25df C32F0000 		.4byte	0x2fc3
 8512 25e3 ED250000 		.4byte	0x25ed
 8513 25e7 24       		.uleb128 0x24
 8514 25e8 01       		.uleb128 0x1
 8515 25e9 50       		.byte	0x50
 8516 25ea 01       		.uleb128 0x1
 8517 25eb 30       		.byte	0x30
 8518 25ec 00       		.byte	0
 8519 25ed 26       		.uleb128 0x26
 8520 25ee 48000000 		.4byte	.LVL332
 8521 25f2 CE2F0000 		.4byte	0x2fce
 8522 25f6 26       		.uleb128 0x26
 8523 25f7 4C000000 		.4byte	.LVL333
 8524 25fb D92F0000 		.4byte	0x2fd9
 8525 25ff 26       		.uleb128 0x26
 8526 2600 50000000 		.4byte	.LVL334
 8527 2604 E52F0000 		.4byte	0x2fe5
 8528 2608 23       		.uleb128 0x23
 8529 2609 56000000 		.4byte	.LVL335
 8530 260d F02F0000 		.4byte	0x2ff0
 8531 2611 1B260000 		.4byte	0x261b
ARM GAS  C:\Users\Administrator\AppData\Local\Temp\ccNQfmEa.s 			page 193


 8532 2615 24       		.uleb128 0x24
 8533 2616 01       		.uleb128 0x1
 8534 2617 50       		.byte	0x50
 8535 2618 01       		.uleb128 0x1
 8536 2619 49       		.byte	0x49
 8537 261a 00       		.byte	0
 8538 261b 26       		.uleb128 0x26
 8539 261c 62000000 		.4byte	.LVL336
 8540 2620 FB2F0000 		.4byte	0x2ffb
 8541 2624 26       		.uleb128 0x26
 8542 2625 70000000 		.4byte	.LVL340
 8543 2629 292F0000 		.4byte	0x2f29
 8544 262d 23       		.uleb128 0x23
 8545 262e 76000000 		.4byte	.LVL341
 8546 2632 CA2D0000 		.4byte	0x2dca
 8547 2636 41260000 		.4byte	0x2641
 8548 263a 24       		.uleb128 0x24
 8549 263b 01       		.uleb128 0x1
 8550 263c 50       		.byte	0x50
 8551 263d 02       		.uleb128 0x2
 8552 263e 75       		.byte	0x75
 8553 263f 00       		.sleb128 0
 8554 2640 00       		.byte	0
 8555 2641 23       		.uleb128 0x23
 8556 2642 82000000 		.4byte	.LVL344
 8557 2646 882D0000 		.4byte	0x2d88
 8558 264a 55260000 		.4byte	0x2655
 8559 264e 24       		.uleb128 0x24
 8560 264f 01       		.uleb128 0x1
 8561 2650 50       		.byte	0x50
 8562 2651 02       		.uleb128 0x2
 8563 2652 08       		.byte	0x8
 8564 2653 64       		.byte	0x64
 8565 2654 00       		.byte	0
 8566 2655 26       		.uleb128 0x26
 8567 2656 86000000 		.4byte	.LVL345
 8568 265a 662D0000 		.4byte	0x2d66
 8569 265e 23       		.uleb128 0x23
 8570 265f 90000000 		.4byte	.LVL346
 8571 2663 CA2D0000 		.4byte	0x2dca
 8572 2667 72260000 		.4byte	0x2672
 8573 266b 24       		.uleb128 0x24
 8574 266c 01       		.uleb128 0x1
 8575 266d 50       		.byte	0x50
 8576 266e 02       		.uleb128 0x2
 8577 266f 75       		.byte	0x75
 8578 2670 00       		.sleb128 0
 8579 2671 00       		.byte	0
 8580 2672 26       		.uleb128 0x26
 8581 2673 A4000000 		.4byte	.LVL347
 8582 2677 06300000 		.4byte	0x3006
 8583 267b 26       		.uleb128 0x26
 8584 267c AC000000 		.4byte	.LVL348
 8585 2680 12300000 		.4byte	0x3012
 8586 2684 26       		.uleb128 0x26
 8587 2685 B0000000 		.4byte	.LVL349
 8588 2689 1E300000 		.4byte	0x301e
ARM GAS  C:\Users\Administrator\AppData\Local\Temp\ccNQfmEa.s 			page 194


 8589 268d 23       		.uleb128 0x23
 8590 268e B8000000 		.4byte	.LVL350
 8591 2692 D8230000 		.4byte	0x23d8
 8592 2696 A7260000 		.4byte	0x26a7
 8593 269a 24       		.uleb128 0x24
 8594 269b 01       		.uleb128 0x1
 8595 269c 50       		.byte	0x50
 8596 269d 02       		.uleb128 0x2
 8597 269e 91       		.byte	0x91
 8598 269f 5C       		.sleb128 -36
 8599 26a0 24       		.uleb128 0x24
 8600 26a1 01       		.uleb128 0x1
 8601 26a2 51       		.byte	0x51
 8602 26a3 02       		.uleb128 0x2
 8603 26a4 91       		.byte	0x91
 8604 26a5 64       		.sleb128 -28
 8605 26a6 00       		.byte	0
 8606 26a7 23       		.uleb128 0x23
 8607 26a8 C0000000 		.4byte	.LVL351
 8608 26ac 3C230000 		.4byte	0x233c
 8609 26b0 C1260000 		.4byte	0x26c1
 8610 26b4 24       		.uleb128 0x24
 8611 26b5 01       		.uleb128 0x1
 8612 26b6 50       		.byte	0x50
 8613 26b7 02       		.uleb128 0x2
 8614 26b8 91       		.byte	0x91
 8615 26b9 5C       		.sleb128 -36
 8616 26ba 24       		.uleb128 0x24
 8617 26bb 01       		.uleb128 0x1
 8618 26bc 51       		.byte	0x51
 8619 26bd 02       		.uleb128 0x2
 8620 26be 91       		.byte	0x91
 8621 26bf 64       		.sleb128 -28
 8622 26c0 00       		.byte	0
 8623 26c1 23       		.uleb128 0x23
 8624 26c2 C6000000 		.4byte	.LVL352
 8625 26c6 29300000 		.4byte	0x3029
 8626 26ca D8260000 		.4byte	0x26d8
 8627 26ce 24       		.uleb128 0x24
 8628 26cf 01       		.uleb128 0x1
 8629 26d0 50       		.byte	0x50
 8630 26d1 05       		.uleb128 0x5
 8631 26d2 03       		.byte	0x3
 8632 26d3 00000000 		.4byte	AppCallback
 8633 26d7 00       		.byte	0
 8634 26d8 26       		.uleb128 0x26
 8635 26d9 CA000000 		.4byte	.LVL353
 8636 26dd F4150000 		.4byte	0x15f4
 8637 26e1 26       		.uleb128 0x26
 8638 26e2 CE000000 		.4byte	.LVL354
 8639 26e6 35300000 		.4byte	0x3035
 8640 26ea 26       		.uleb128 0x26
 8641 26eb D6000000 		.4byte	.LVL355
 8642 26ef 40300000 		.4byte	0x3040
 8643 26f3 26       		.uleb128 0x26
 8644 26f4 DA000000 		.4byte	.LVL356
 8645 26f8 4B300000 		.4byte	0x304b
ARM GAS  C:\Users\Administrator\AppData\Local\Temp\ccNQfmEa.s 			page 195


 8646 26fc 26       		.uleb128 0x26
 8647 26fd E2000000 		.4byte	.LVL357
 8648 2701 A52E0000 		.4byte	0x2ea5
 8649 2705 26       		.uleb128 0x26
 8650 2706 E8000000 		.4byte	.LVL359
 8651 270a 56300000 		.4byte	0x3056
 8652 270e 26       		.uleb128 0x26
 8653 270f F0000000 		.4byte	.LVL360
 8654 2713 3D100000 		.4byte	0x103d
 8655 2717 26       		.uleb128 0x26
 8656 2718 F4000000 		.4byte	.LVL361
 8657 271c F6180000 		.4byte	0x18f6
 8658 2720 26       		.uleb128 0x26
 8659 2721 F8000000 		.4byte	.LVL362
 8660 2725 B61B0000 		.4byte	0x1bb6
 8661 2729 26       		.uleb128 0x26
 8662 272a FC000000 		.4byte	.LVL363
 8663 272e 021E0000 		.4byte	0x1e02
 8664 2732 26       		.uleb128 0x26
 8665 2733 00010000 		.4byte	.LVL364
 8666 2737 46100000 		.4byte	0x1046
 8667 273b 26       		.uleb128 0x26
 8668 273c 04010000 		.4byte	.LVL365
 8669 2740 69100000 		.4byte	0x1069
 8670 2744 26       		.uleb128 0x26
 8671 2745 08010000 		.4byte	.LVL366
 8672 2749 83100000 		.4byte	0x1083
 8673 274d 26       		.uleb128 0x26
 8674 274e 0C010000 		.4byte	.LVL367
 8675 2752 661F0000 		.4byte	0x1f66
 8676 2756 26       		.uleb128 0x26
 8677 2757 10010000 		.4byte	.LVL368
 8678 275b 34100000 		.4byte	0x1034
 8679 275f 26       		.uleb128 0x26
 8680 2760 16010000 		.4byte	.LVL369
 8681 2764 6A130000 		.4byte	0x136a
 8682 2768 00       		.byte	0
 8683 2769 0B       		.uleb128 0xb
 8684 276a 81000000 		.4byte	0x81
 8685 276e 79270000 		.4byte	0x2779
 8686 2772 0C       		.uleb128 0xc
 8687 2773 D7000000 		.4byte	0xd7
 8688 2777 09       		.byte	0x9
 8689 2778 00       		.byte	0
 8690 2779 0B       		.uleb128 0xb
 8691 277a 89270000 		.4byte	0x2789
 8692 277e 89270000 		.4byte	0x2789
 8693 2782 0C       		.uleb128 0xc
 8694 2783 D7000000 		.4byte	0xd7
 8695 2787 0B       		.byte	0xb
 8696 2788 00       		.byte	0
 8697 2789 3A       		.uleb128 0x3a
 8698 278a 8D000000 		.4byte	0x8d
 8699 278e 3B       		.uleb128 0x3b
 8700 278f 18180000 		.4byte	.LASF557
 8701 2793 07       		.byte	0x7
 8702 2794 E001     		.2byte	0x1e0
ARM GAS  C:\Users\Administrator\AppData\Local\Temp\ccNQfmEa.s 			page 196


 8703 2796 9A270000 		.4byte	0x279a
 8704 279a 3A       		.uleb128 0x3a
 8705 279b 79270000 		.4byte	0x2779
 8706 279f 3C       		.uleb128 0x3c
 8707 27a0 3F080000 		.4byte	.LASF558
 8708 27a4 08       		.byte	0x8
 8709 27a5 0C       		.byte	0xc
 8710 27a6 81000000 		.4byte	0x81
 8711 27aa 05       		.uleb128 0x5
 8712 27ab 03       		.byte	0x3
 8713 27ac 00000000 		.4byte	system_version
 8714 27b0 3C       		.uleb128 0x3c
 8715 27b1 72460000 		.4byte	.LASF559
 8716 27b5 08       		.byte	0x8
 8717 27b6 0E       		.byte	0xe
 8718 27b7 81000000 		.4byte	0x81
 8719 27bb 05       		.uleb128 0x5
 8720 27bc 03       		.byte	0x3
 8721 27bd 00000000 		.4byte	LED_State
 8722 27c1 3C       		.uleb128 0x3c
 8723 27c2 40320000 		.4byte	.LASF560
 8724 27c6 08       		.byte	0x8
 8725 27c7 0F       		.byte	0xf
 8726 27c8 81000000 		.4byte	0x81
 8727 27cc 05       		.uleb128 0x5
 8728 27cd 03       		.byte	0x3
 8729 27ce 00000000 		.4byte	gprs_state
 8730 27d2 3C       		.uleb128 0x3c
 8731 27d3 1D260000 		.4byte	.LASF561
 8732 27d7 08       		.byte	0x8
 8733 27d8 10       		.byte	0x10
 8734 27d9 81000000 		.4byte	0x81
 8735 27dd 05       		.uleb128 0x5
 8736 27de 03       		.byte	0x3
 8737 27df 00000000 		.4byte	EnterGuide_State
 8738 27e3 3C       		.uleb128 0x3c
 8739 27e4 23150000 		.4byte	.LASF562
 8740 27e8 08       		.byte	0x8
 8741 27e9 11       		.byte	0x11
 8742 27ea 81000000 		.4byte	0x81
 8743 27ee 05       		.uleb128 0x5
 8744 27ef 03       		.byte	0x3
 8745 27f0 00000000 		.4byte	SendMacFlag
 8746 27f4 0B       		.uleb128 0xb
 8747 27f5 81000000 		.4byte	0x81
 8748 27f9 04280000 		.4byte	0x2804
 8749 27fd 0C       		.uleb128 0xc
 8750 27fe D7000000 		.4byte	0xd7
 8751 2802 C7       		.byte	0xc7
 8752 2803 00       		.byte	0
 8753 2804 3C       		.uleb128 0x3c
 8754 2805 B30D0000 		.4byte	.LASF563
 8755 2809 08       		.byte	0x8
 8756 280a 13       		.byte	0x13
 8757 280b F4270000 		.4byte	0x27f4
 8758 280f 05       		.uleb128 0x5
 8759 2810 03       		.byte	0x3
ARM GAS  C:\Users\Administrator\AppData\Local\Temp\ccNQfmEa.s 			page 197


 8760 2811 00000000 		.4byte	domain
 8761 2815 3C       		.uleb128 0x3c
 8762 2816 79430000 		.4byte	.LASF564
 8763 281a 08       		.byte	0x8
 8764 281b 14       		.byte	0x14
 8765 281c F4270000 		.4byte	0x27f4
 8766 2820 05       		.uleb128 0x5
 8767 2821 03       		.byte	0x3
 8768 2822 00000000 		.4byte	pre_ip
 8769 2826 3C       		.uleb128 0x3c
 8770 2827 C32E0000 		.4byte	.LASF565
 8771 282b 08       		.byte	0x8
 8772 282c 15       		.byte	0x15
 8773 282d 16030000 		.4byte	0x316
 8774 2831 05       		.uleb128 0x5
 8775 2832 03       		.byte	0x3
 8776 2833 00000000 		.4byte	pre_port
 8777 2837 0B       		.uleb128 0xb
 8778 2838 81000000 		.4byte	0x81
 8779 283c 47280000 		.4byte	0x2847
 8780 2840 0C       		.uleb128 0xc
 8781 2841 D7000000 		.4byte	0xd7
 8782 2845 0F       		.byte	0xf
 8783 2846 00       		.byte	0
 8784 2847 3C       		.uleb128 0x3c
 8785 2848 381D0000 		.4byte	.LASF566
 8786 284c 08       		.byte	0x8
 8787 284d 17       		.byte	0x17
 8788 284e 37280000 		.4byte	0x2837
 8789 2852 05       		.uleb128 0x5
 8790 2853 03       		.byte	0x3
 8791 2854 00000000 		.4byte	update_ip
 8792 2858 0B       		.uleb128 0xb
 8793 2859 81000000 		.4byte	0x81
 8794 285d 68280000 		.4byte	0x2868
 8795 2861 0C       		.uleb128 0xc
 8796 2862 D7000000 		.4byte	0xd7
 8797 2866 04       		.byte	0x4
 8798 2867 00       		.byte	0
 8799 2868 3C       		.uleb128 0x3c
 8800 2869 020A0000 		.4byte	.LASF567
 8801 286d 08       		.byte	0x8
 8802 286e 18       		.byte	0x18
 8803 286f 58280000 		.4byte	0x2858
 8804 2873 05       		.uleb128 0x5
 8805 2874 03       		.byte	0x3
 8806 2875 00000000 		.4byte	update_port
 8807 2879 3C       		.uleb128 0x3c
 8808 287a 0C270000 		.4byte	.LASF568
 8809 287e 08       		.byte	0x8
 8810 287f 19       		.byte	0x19
 8811 2880 8D000000 		.4byte	0x8d
 8812 2884 05       		.uleb128 0x5
 8813 2885 03       		.byte	0x3
 8814 2886 00000000 		.4byte	update_version
 8815 288a 3C       		.uleb128 0x3c
 8816 288b 0F2A0000 		.4byte	.LASF569
ARM GAS  C:\Users\Administrator\AppData\Local\Temp\ccNQfmEa.s 			page 198


 8817 288f 08       		.byte	0x8
 8818 2890 1A       		.byte	0x1a
 8819 2891 81000000 		.4byte	0x81
 8820 2895 05       		.uleb128 0x5
 8821 2896 03       		.byte	0x3
 8822 2897 00000000 		.4byte	update_flag
 8823 289b 3C       		.uleb128 0x3c
 8824 289c E93A0000 		.4byte	.LASF570
 8825 28a0 08       		.byte	0x8
 8826 28a1 1B       		.byte	0x1b
 8827 28a2 81000000 		.4byte	0x81
 8828 28a6 05       		.uleb128 0x5
 8829 28a7 03       		.byte	0x3
 8830 28a8 00000000 		.4byte	update_report
 8831 28ac 3C       		.uleb128 0x3c
 8832 28ad 0F410000 		.4byte	.LASF571
 8833 28b1 08       		.byte	0x8
 8834 28b2 1D       		.byte	0x1d
 8835 28b3 8D000000 		.4byte	0x8d
 8836 28b7 05       		.uleb128 0x5
 8837 28b8 03       		.byte	0x3
 8838 28b9 00000000 		.4byte	update_page
 8839 28bd 3C       		.uleb128 0x3c
 8840 28be 2E3B0000 		.4byte	.LASF572
 8841 28c2 08       		.byte	0x8
 8842 28c3 23       		.byte	0x23
 8843 28c4 99000000 		.4byte	0x99
 8844 28c8 05       		.uleb128 0x5
 8845 28c9 03       		.byte	0x3
 8846 28ca 00000000 		.4byte	update_offset
 8847 28ce 3C       		.uleb128 0x3c
 8848 28cf 11210000 		.4byte	.LASF573
 8849 28d3 08       		.byte	0x8
 8850 28d4 24       		.byte	0x24
 8851 28d5 99000000 		.4byte	0x99
 8852 28d9 05       		.uleb128 0x5
 8853 28da 03       		.byte	0x3
 8854 28db 00000000 		.4byte	Image_size
 8855 28df 3C       		.uleb128 0x3c
 8856 28e0 47170000 		.4byte	.LASF574
 8857 28e4 08       		.byte	0x8
 8858 28e5 26       		.byte	0x26
 8859 28e6 C6000000 		.4byte	0xc6
 8860 28ea 05       		.uleb128 0x5
 8861 28eb 03       		.byte	0x3
 8862 28ec 00000000 		.4byte	Read_Mac_Flag
 8863 28f0 0B       		.uleb128 0xb
 8864 28f1 C6000000 		.4byte	0xc6
 8865 28f5 00290000 		.4byte	0x2900
 8866 28f9 0C       		.uleb128 0xc
 8867 28fa D7000000 		.4byte	0xd7
 8868 28fe 05       		.byte	0x5
 8869 28ff 00       		.byte	0
 8870 2900 3C       		.uleb128 0x3c
 8871 2901 85420000 		.4byte	.LASF575
 8872 2905 08       		.byte	0x8
 8873 2906 27       		.byte	0x27
ARM GAS  C:\Users\Administrator\AppData\Local\Temp\ccNQfmEa.s 			page 199


 8874 2907 11290000 		.4byte	0x2911
 8875 290b 05       		.uleb128 0x5
 8876 290c 03       		.byte	0x3
 8877 290d 00000000 		.4byte	Mac_Addr
 8878 2911 06       		.uleb128 0x6
 8879 2912 F0280000 		.4byte	0x28f0
 8880 2916 3C       		.uleb128 0x3c
 8881 2917 B8260000 		.4byte	.LASF576
 8882 291b 08       		.byte	0x8
 8883 291c 29       		.byte	0x29
 8884 291d CB000000 		.4byte	0xcb
 8885 2921 05       		.uleb128 0x5
 8886 2922 03       		.byte	0x3
 8887 2923 00000000 		.4byte	wait_timeout
 8888 2927 3C       		.uleb128 0x3c
 8889 2928 7F2B0000 		.4byte	.LASF577
 8890 292c 08       		.byte	0x8
 8891 292d 2A       		.byte	0x2a
 8892 292e CB000000 		.4byte	0xcb
 8893 2932 05       		.uleb128 0x5
 8894 2933 03       		.byte	0x3
 8895 2934 00000000 		.4byte	recv_timeout
 8896 2938 0B       		.uleb128 0xb
 8897 2939 48290000 		.4byte	0x2948
 8898 293d 48290000 		.4byte	0x2948
 8899 2941 0C       		.uleb128 0xc
 8900 2942 D7000000 		.4byte	0xd7
 8901 2946 3F       		.byte	0x3f
 8902 2947 00       		.byte	0
 8903 2948 06       		.uleb128 0x6
 8904 2949 BF000000 		.4byte	0xbf
 8905 294d 3C       		.uleb128 0x3c
 8906 294e 40200000 		.4byte	.LASF578
 8907 2952 08       		.byte	0x8
 8908 2953 2C       		.byte	0x2c
 8909 2954 5E290000 		.4byte	0x295e
 8910 2958 05       		.uleb128 0x5
 8911 2959 03       		.byte	0x3
 8912 295a 00000000 		.4byte	GPRS_AT_Buf
 8913 295e 06       		.uleb128 0x6
 8914 295f 38290000 		.4byte	0x2938
 8915 2963 3C       		.uleb128 0x3c
 8916 2964 7E390000 		.4byte	.LASF579
 8917 2968 08       		.byte	0x8
 8918 2969 2D       		.byte	0x2d
 8919 296a C6000000 		.4byte	0xc6
 8920 296e 05       		.uleb128 0x5
 8921 296f 03       		.byte	0x3
 8922 2970 00000000 		.4byte	GPRS_AT_RecFinish
 8923 2974 3C       		.uleb128 0x3c
 8924 2975 4F010000 		.4byte	.LASF580
 8925 2979 08       		.byte	0x8
 8926 297a 2F       		.byte	0x2f
 8927 297b C6000000 		.4byte	0xc6
 8928 297f 05       		.uleb128 0x5
 8929 2980 03       		.byte	0x3
 8930 2981 00000000 		.4byte	GPRSCmdParseFlag1
ARM GAS  C:\Users\Administrator\AppData\Local\Temp\ccNQfmEa.s 			page 200


 8931 2985 3C       		.uleb128 0x3c
 8932 2986 8D240000 		.4byte	.LASF581
 8933 298a 08       		.byte	0x8
 8934 298b 30       		.byte	0x30
 8935 298c C6000000 		.4byte	0xc6
 8936 2990 05       		.uleb128 0x5
 8937 2991 03       		.byte	0x3
 8938 2992 00000000 		.4byte	GPRSCmdParseFlag2
 8939 2996 0B       		.uleb128 0xb
 8940 2997 C6000000 		.4byte	0xc6
 8941 299b A7290000 		.4byte	0x29a7
 8942 299f 3D       		.uleb128 0x3d
 8943 29a0 D7000000 		.4byte	0xd7
 8944 29a4 1904     		.2byte	0x419
 8945 29a6 00       		.byte	0
 8946 29a7 3C       		.uleb128 0x3c
 8947 29a8 A5330000 		.4byte	.LASF582
 8948 29ac 08       		.byte	0x8
 8949 29ad 31       		.byte	0x31
 8950 29ae B8290000 		.4byte	0x29b8
 8951 29b2 05       		.uleb128 0x5
 8952 29b3 03       		.byte	0x3
 8953 29b4 00000000 		.4byte	GPRSCmd_buf1
 8954 29b8 06       		.uleb128 0x6
 8955 29b9 96290000 		.4byte	0x2996
 8956 29bd 3C       		.uleb128 0x3c
 8957 29be B2330000 		.4byte	.LASF583
 8958 29c2 08       		.byte	0x8
 8959 29c3 32       		.byte	0x32
 8960 29c4 CE290000 		.4byte	0x29ce
 8961 29c8 05       		.uleb128 0x5
 8962 29c9 03       		.byte	0x3
 8963 29ca 00000000 		.4byte	GPRSCmd_buf2
 8964 29ce 06       		.uleb128 0x6
 8965 29cf 96290000 		.4byte	0x2996
 8966 29d3 3C       		.uleb128 0x3c
 8967 29d4 50350000 		.4byte	.LASF584
 8968 29d8 09       		.byte	0x9
 8969 29d9 1A       		.byte	0x1a
 8970 29da 8D000000 		.4byte	0x8d
 8971 29de 05       		.uleb128 0x5
 8972 29df 03       		.byte	0x3
 8973 29e0 00000000 		.4byte	CurrentCommandPktTotalSize
 8974 29e4 3C       		.uleb128 0x3c
 8975 29e5 8F2F0000 		.4byte	.LASF585
 8976 29e9 09       		.byte	0x9
 8977 29ea 1B       		.byte	0x1b
 8978 29eb 81000000 		.4byte	0x81
 8979 29ef 05       		.uleb128 0x5
 8980 29f0 03       		.byte	0x3
 8981 29f1 00000000 		.4byte	CurrentDataNum
 8982 29f5 0B       		.uleb128 0xb
 8983 29f6 81000000 		.4byte	0x81
 8984 29fa 062A0000 		.4byte	0x2a06
 8985 29fe 3D       		.uleb128 0x3d
 8986 29ff D7000000 		.4byte	0xd7
 8987 2a03 1904     		.2byte	0x419
ARM GAS  C:\Users\Administrator\AppData\Local\Temp\ccNQfmEa.s 			page 201


 8988 2a05 00       		.byte	0
 8989 2a06 3C       		.uleb128 0x3c
 8990 2a07 1A020000 		.4byte	.LASF586
 8991 2a0b 09       		.byte	0x9
 8992 2a0c 1C       		.byte	0x1c
 8993 2a0d F5290000 		.4byte	0x29f5
 8994 2a11 05       		.uleb128 0x5
 8995 2a12 03       		.byte	0x3
 8996 2a13 00000000 		.4byte	BleCmdBuf
 8997 2a17 3C       		.uleb128 0x3c
 8998 2a18 B31B0000 		.4byte	.LASF587
 8999 2a1c 09       		.byte	0x9
 9000 2a1d 1D       		.byte	0x1d
 9001 2a1e 81000000 		.4byte	0x81
 9002 2a22 05       		.uleb128 0x5
 9003 2a23 03       		.byte	0x3
 9004 2a24 00000000 		.4byte	BleCmdValidFlag
 9005 2a28 3C       		.uleb128 0x3c
 9006 2a29 283A0000 		.4byte	.LASF588
 9007 2a2d 08       		.byte	0x8
 9008 2a2e 39       		.byte	0x39
 9009 2a2f 99000000 		.4byte	0x99
 9010 2a33 05       		.uleb128 0x5
 9011 2a34 03       		.byte	0x3
 9012 2a35 00000000 		.4byte	cur_time
 9013 2a39 3C       		.uleb128 0x3c
 9014 2a3a DB330000 		.4byte	.LASF589
 9015 2a3e 08       		.byte	0x8
 9016 2a3f 3A       		.byte	0x3a
 9017 2a40 99000000 		.4byte	0x99
 9018 2a44 05       		.uleb128 0x5
 9019 2a45 03       		.byte	0x3
 9020 2a46 00000000 		.4byte	next_network_time
 9021 2a4a 3C       		.uleb128 0x3c
 9022 2a4b BF340000 		.4byte	.LASF590
 9023 2a4f 08       		.byte	0x8
 9024 2a50 3B       		.byte	0x3b
 9025 2a51 99000000 		.4byte	0x99
 9026 2a55 05       		.uleb128 0x5
 9027 2a56 03       		.byte	0x3
 9028 2a57 00000000 		.4byte	next_heartbeat_time
 9029 2a5b 3C       		.uleb128 0x3c
 9030 2a5c 8F380000 		.4byte	.LASF591
 9031 2a60 08       		.byte	0x8
 9032 2a61 3C       		.byte	0x3c
 9033 2a62 99000000 		.4byte	0x99
 9034 2a66 05       		.uleb128 0x5
 9035 2a67 03       		.byte	0x3
 9036 2a68 00000000 		.4byte	next_gprs_operation_time
 9037 2a6c 3C       		.uleb128 0x3c
 9038 2a6d E7060000 		.4byte	.LASF592
 9039 2a71 08       		.byte	0x8
 9040 2a72 3D       		.byte	0x3d
 9041 2a73 99000000 		.4byte	0x99
 9042 2a77 05       		.uleb128 0x5
 9043 2a78 03       		.byte	0x3
 9044 2a79 00000000 		.4byte	next_gprs_upload_time
ARM GAS  C:\Users\Administrator\AppData\Local\Temp\ccNQfmEa.s 			page 202


 9045 2a7d 3C       		.uleb128 0x3c
 9046 2a7e 28060000 		.4byte	.LASF593
 9047 2a82 08       		.byte	0x8
 9048 2a83 3E       		.byte	0x3e
 9049 2a84 99000000 		.4byte	0x99
 9050 2a88 05       		.uleb128 0x5
 9051 2a89 03       		.byte	0x3
 9052 2a8a 00000000 		.4byte	next_allupload_time
 9053 2a8e 3C       		.uleb128 0x3c
 9054 2a8f 86060000 		.4byte	.LASF594
 9055 2a93 08       		.byte	0x8
 9056 2a94 3F       		.byte	0x3f
 9057 2a95 99000000 		.4byte	0x99
 9058 2a99 05       		.uleb128 0x5
 9059 2a9a 03       		.byte	0x3
 9060 2a9b 00000000 		.4byte	next_keyopen_time
 9061 2a9f 3C       		.uleb128 0x3c
 9062 2aa0 31300000 		.4byte	.LASF595
 9063 2aa4 08       		.byte	0x8
 9064 2aa5 40       		.byte	0x40
 9065 2aa6 8D000000 		.4byte	0x8d
 9066 2aaa 05       		.uleb128 0x5
 9067 2aab 03       		.byte	0x3
 9068 2aac 00000000 		.4byte	openinfopage_offset
 9069 2ab0 3C       		.uleb128 0x3c
 9070 2ab1 04430000 		.4byte	.LASF596
 9071 2ab5 08       		.byte	0x8
 9072 2ab6 41       		.byte	0x41
 9073 2ab7 81000000 		.4byte	0x81
 9074 2abb 05       		.uleb128 0x5
 9075 2abc 03       		.byte	0x3
 9076 2abd 00000000 		.4byte	uploadpolling_stop
 9077 2ac1 3C       		.uleb128 0x3c
 9078 2ac2 630C0000 		.4byte	.LASF597
 9079 2ac6 08       		.byte	0x8
 9080 2ac7 42       		.byte	0x42
 9081 2ac8 99000000 		.4byte	0x99
 9082 2acc 05       		.uleb128 0x5
 9083 2acd 03       		.byte	0x3
 9084 2ace 00000000 		.4byte	next_firealarm_time
 9085 2ad2 3C       		.uleb128 0x3c
 9086 2ad3 B5290000 		.4byte	.LASF598
 9087 2ad7 08       		.byte	0x8
 9088 2ad8 44       		.byte	0x44
 9089 2ad9 99000000 		.4byte	0x99
 9090 2add 05       		.uleb128 0x5
 9091 2ade 03       		.byte	0x3
 9092 2adf 00000000 		.4byte	last_readcardtime
 9093 2ae3 3C       		.uleb128 0x3c
 9094 2ae4 A4160000 		.4byte	.LASF599
 9095 2ae8 08       		.byte	0x8
 9096 2ae9 45       		.byte	0x45
 9097 2aea 99000000 		.4byte	0x99
 9098 2aee 05       		.uleb128 0x5
 9099 2aef 03       		.byte	0x3
 9100 2af0 00000000 		.4byte	defendalarm_time
 9101 2af4 3C       		.uleb128 0x3c
ARM GAS  C:\Users\Administrator\AppData\Local\Temp\ccNQfmEa.s 			page 203


 9102 2af5 8D210000 		.4byte	.LASF600
 9103 2af9 08       		.byte	0x8
 9104 2afa 46       		.byte	0x46
 9105 2afb 99000000 		.4byte	0x99
 9106 2aff 05       		.uleb128 0x5
 9107 2b00 03       		.byte	0x3
 9108 2b01 00000000 		.4byte	MgCheck_time
 9109 2b05 3C       		.uleb128 0x3c
 9110 2b06 811B0000 		.4byte	.LASF601
 9111 2b0a 08       		.byte	0x8
 9112 2b0b 47       		.byte	0x47
 9113 2b0c 99000000 		.4byte	0x99
 9114 2b10 05       		.uleb128 0x5
 9115 2b11 03       		.byte	0x3
 9116 2b12 00000000 		.4byte	FireCheck_time
 9117 2b16 3C       		.uleb128 0x3c
 9118 2b17 6A340000 		.4byte	.LASF602
 9119 2b1b 08       		.byte	0x8
 9120 2b1c 49       		.byte	0x49
 9121 2b1d 81000000 		.4byte	0x81
 9122 2b21 05       		.uleb128 0x5
 9123 2b22 03       		.byte	0x3
 9124 2b23 00000000 		.4byte	uploadflag_cnt
 9125 2b27 3C       		.uleb128 0x3c
 9126 2b28 07390000 		.4byte	.LASF603
 9127 2b2c 08       		.byte	0x8
 9128 2b2d 4A       		.byte	0x4a
 9129 2b2e 8D000000 		.4byte	0x8d
 9130 2b32 05       		.uleb128 0x5
 9131 2b33 03       		.byte	0x3
 9132 2b34 00000000 		.4byte	last_index
 9133 2b38 3C       		.uleb128 0x3c
 9134 2b39 B21D0000 		.4byte	.LASF604
 9135 2b3d 08       		.byte	0x8
 9136 2b3e 4B       		.byte	0x4b
 9137 2b3f 81000000 		.4byte	0x81
 9138 2b43 05       		.uleb128 0x5
 9139 2b44 03       		.byte	0x3
 9140 2b45 00000000 		.4byte	update_timeout_count
 9141 2b49 3C       		.uleb128 0x3c
 9142 2b4a F73A0000 		.4byte	.LASF605
 9143 2b4e 08       		.byte	0x8
 9144 2b4f 4C       		.byte	0x4c
 9145 2b50 CB000000 		.4byte	0xcb
 9146 2b54 05       		.uleb128 0x5
 9147 2b55 03       		.byte	0x3
 9148 2b56 00000000 		.4byte	update_timeout_time
 9149 2b5a 3C       		.uleb128 0x3c
 9150 2b5b 8E460000 		.4byte	.LASF606
 9151 2b5f 08       		.byte	0x8
 9152 2b60 4E       		.byte	0x4e
 9153 2b61 81000000 		.4byte	0x81
 9154 2b65 05       		.uleb128 0x5
 9155 2b66 03       		.byte	0x3
 9156 2b67 00000000 		.4byte	gprs_operation_ErrCount
 9157 2b6b 3C       		.uleb128 0x3c
 9158 2b6c CC2E0000 		.4byte	.LASF607
ARM GAS  C:\Users\Administrator\AppData\Local\Temp\ccNQfmEa.s 			page 204


 9159 2b70 08       		.byte	0x8
 9160 2b71 4F       		.byte	0x4f
 9161 2b72 81000000 		.4byte	0x81
 9162 2b76 05       		.uleb128 0x5
 9163 2b77 03       		.byte	0x3
 9164 2b78 00000000 		.4byte	heartbeat_SendCount
 9165 2b7c 3C       		.uleb128 0x3c
 9166 2b7d 62160000 		.4byte	.LASF608
 9167 2b81 08       		.byte	0x8
 9168 2b82 50       		.byte	0x50
 9169 2b83 CB000000 		.4byte	0xcb
 9170 2b87 05       		.uleb128 0x5
 9171 2b88 03       		.byte	0x3
 9172 2b89 00000000 		.4byte	heartbeat_lasttime
 9173 2b8d 3C       		.uleb128 0x3c
 9174 2b8e 87100000 		.4byte	.LASF609
 9175 2b92 08       		.byte	0x8
 9176 2b93 51       		.byte	0x51
 9177 2b94 CB000000 		.4byte	0xcb
 9178 2b98 05       		.uleb128 0x5
 9179 2b99 03       		.byte	0x3
 9180 2b9a 00000000 		.4byte	CardCheck_CountTime
 9181 2b9e 3C       		.uleb128 0x3c
 9182 2b9f F6340000 		.4byte	.LASF610
 9183 2ba3 08       		.byte	0x8
 9184 2ba4 53       		.byte	0x53
 9185 2ba5 81000000 		.4byte	0x81
 9186 2ba9 05       		.uleb128 0x5
 9187 2baa 03       		.byte	0x3
 9188 2bab 00000000 		.4byte	Card_ErrCount
 9189 2baf 3C       		.uleb128 0x3c
 9190 2bb0 00000000 		.4byte	.LASF611
 9191 2bb4 08       		.byte	0x8
 9192 2bb5 54       		.byte	0x54
 9193 2bb6 81000000 		.4byte	0x81
 9194 2bba 05       		.uleb128 0x5
 9195 2bbb 03       		.byte	0x3
 9196 2bbc 00000000 		.4byte	flag_reboot
 9197 2bc0 3C       		.uleb128 0x3c
 9198 2bc1 15290000 		.4byte	.LASF612
 9199 2bc5 08       		.byte	0x8
 9200 2bc6 55       		.byte	0x55
 9201 2bc7 81000000 		.4byte	0x81
 9202 2bcb 05       		.uleb128 0x5
 9203 2bcc 03       		.byte	0x3
 9204 2bcd 00000000 		.4byte	stop_reboot
 9205 2bd1 3C       		.uleb128 0x3c
 9206 2bd2 1C320000 		.4byte	.LASF613
 9207 2bd6 08       		.byte	0x8
 9208 2bd7 56       		.byte	0x56
 9209 2bd8 81000000 		.4byte	0x81
 9210 2bdc 05       		.uleb128 0x5
 9211 2bdd 03       		.byte	0x3
 9212 2bde 00000000 		.4byte	reboot_count
 9213 2be2 3C       		.uleb128 0x3c
 9214 2be3 833D0000 		.4byte	.LASF614
 9215 2be7 08       		.byte	0x8
ARM GAS  C:\Users\Administrator\AppData\Local\Temp\ccNQfmEa.s 			page 205


 9216 2be8 57       		.byte	0x57
 9217 2be9 99000000 		.4byte	0x99
 9218 2bed 05       		.uleb128 0x5
 9219 2bee 03       		.byte	0x3
 9220 2bef 00000000 		.4byte	mem_var
 9221 2bf3 3C       		.uleb128 0x3c
 9222 2bf4 361B0000 		.4byte	.LASF615
 9223 2bf8 08       		.byte	0x8
 9224 2bf9 58       		.byte	0x58
 9225 2bfa 81000000 		.4byte	0x81
 9226 2bfe 05       		.uleb128 0x5
 9227 2bff 03       		.byte	0x3
 9228 2c00 00000000 		.4byte	next_defend_flag
 9229 2c04 3C       		.uleb128 0x3c
 9230 2c05 FE290000 		.4byte	.LASF616
 9231 2c09 08       		.byte	0x8
 9232 2c0a 59       		.byte	0x59
 9233 2c0b 81000000 		.4byte	0x81
 9234 2c0f 05       		.uleb128 0x5
 9235 2c10 03       		.byte	0x3
 9236 2c11 00000000 		.4byte	Code_Action_flag
 9237 2c15 3C       		.uleb128 0x3c
 9238 2c16 EB370000 		.4byte	.LASF617
 9239 2c1a 08       		.byte	0x8
 9240 2c1b 5A       		.byte	0x5a
 9241 2c1c 81000000 		.4byte	0x81
 9242 2c20 05       		.uleb128 0x5
 9243 2c21 03       		.byte	0x3
 9244 2c22 00000000 		.4byte	once_poweron_flag
 9245 2c26 3C       		.uleb128 0x3c
 9246 2c27 19220000 		.4byte	.LASF618
 9247 2c2b 08       		.byte	0x8
 9248 2c2c 5B       		.byte	0x5b
 9249 2c2d 81000000 		.4byte	0x81
 9250 2c31 05       		.uleb128 0x5
 9251 2c32 03       		.byte	0x3
 9252 2c33 00000000 		.4byte	firealarm_flag
 9253 2c37 3C       		.uleb128 0x3c
 9254 2c38 9D2A0000 		.4byte	.LASF619
 9255 2c3c 0A       		.byte	0xa
 9256 2c3d 0A       		.byte	0xa
 9257 2c3e 76000000 		.4byte	0x76
 9258 2c42 05       		.uleb128 0x5
 9259 2c43 03       		.byte	0x3
 9260 2c44 00000000 		.4byte	ADCResultCenter
 9261 2c48 3B       		.uleb128 0x3b
 9262 2c49 21290000 		.4byte	.LASF620
 9263 2c4d 06       		.byte	0x6
 9264 2c4e 640D     		.2byte	0xd64
 9265 2c50 72050000 		.4byte	0x572
 9266 2c54 3B       		.uleb128 0x3b
 9267 2c55 C40C0000 		.4byte	.LASF621
 9268 2c59 06       		.byte	0x6
 9269 2c5a BF0D     		.2byte	0xdbf
 9270 2c5c 26030000 		.4byte	0x326
 9271 2c60 3B       		.uleb128 0x3b
 9272 2c61 DA410000 		.4byte	.LASF622
ARM GAS  C:\Users\Administrator\AppData\Local\Temp\ccNQfmEa.s 			page 206


 9273 2c65 06       		.byte	0x6
 9274 2c66 C40D     		.2byte	0xdc4
 9275 2c68 D0060000 		.4byte	0x6d0
 9276 2c6c 3B       		.uleb128 0x3b
 9277 2c6d 17250000 		.4byte	.LASF623
 9278 2c71 06       		.byte	0x6
 9279 2c72 C30D     		.2byte	0xdc3
 9280 2c74 86070000 		.4byte	0x786
 9281 2c78 3B       		.uleb128 0x3b
 9282 2c79 002D0000 		.4byte	.LASF624
 9283 2c7d 06       		.byte	0x6
 9284 2c7e C50D     		.2byte	0xdc5
 9285 2c80 B6070000 		.4byte	0x7b6
 9286 2c84 0B       		.uleb128 0xb
 9287 2c85 76000000 		.4byte	0x76
 9288 2c89 942C0000 		.4byte	0x2c94
 9289 2c8d 0C       		.uleb128 0xc
 9290 2c8e D7000000 		.4byte	0xd7
 9291 2c92 01       		.byte	0x1
 9292 2c93 00       		.byte	0
 9293 2c94 3C       		.uleb128 0x3c
 9294 2c95 FE1E0000 		.4byte	.LASF625
 9295 2c99 0B       		.byte	0xb
 9296 2c9a 06       		.byte	0x6
 9297 2c9b 842C0000 		.4byte	0x2c84
 9298 2c9f 05       		.uleb128 0x5
 9299 2ca0 03       		.byte	0x3
 9300 2ca1 00000000 		.4byte	picc_atqa
 9301 2ca5 0B       		.uleb128 0xb
 9302 2ca6 76000000 		.4byte	0x76
 9303 2caa B52C0000 		.4byte	0x2cb5
 9304 2cae 0C       		.uleb128 0xc
 9305 2caf D7000000 		.4byte	0xd7
 9306 2cb3 0E       		.byte	0xe
 9307 2cb4 00       		.byte	0
 9308 2cb5 3C       		.uleb128 0x3c
 9309 2cb6 B6350000 		.4byte	.LASF626
 9310 2cba 0B       		.byte	0xb
 9311 2cbb 06       		.byte	0x6
 9312 2cbc A52C0000 		.4byte	0x2ca5
 9313 2cc0 05       		.uleb128 0x5
 9314 2cc1 03       		.byte	0x3
 9315 2cc2 00000000 		.4byte	picc_uid
 9316 2cc6 0B       		.uleb128 0xb
 9317 2cc7 76000000 		.4byte	0x76
 9318 2ccb D62C0000 		.4byte	0x2cd6
 9319 2ccf 0C       		.uleb128 0xc
 9320 2cd0 D7000000 		.4byte	0xd7
 9321 2cd4 02       		.byte	0x2
 9322 2cd5 00       		.byte	0
 9323 2cd6 3C       		.uleb128 0x3c
 9324 2cd7 CC1A0000 		.4byte	.LASF627
 9325 2cdb 0B       		.byte	0xb
 9326 2cdc 06       		.byte	0x6
 9327 2cdd C62C0000 		.4byte	0x2cc6
 9328 2ce1 05       		.uleb128 0x5
 9329 2ce2 03       		.byte	0x3
ARM GAS  C:\Users\Administrator\AppData\Local\Temp\ccNQfmEa.s 			page 207


 9330 2ce3 00000000 		.4byte	picc_sak
 9331 2ce7 3E       		.uleb128 0x3e
 9332 2ce8 740A0000 		.4byte	.LASF628
 9333 2cec 740A0000 		.4byte	.LASF628
 9334 2cf0 06       		.byte	0x6
 9335 2cf1 810D     		.2byte	0xd81
 9336 2cf3 3E       		.uleb128 0x3e
 9337 2cf4 5D0A0000 		.4byte	.LASF629
 9338 2cf8 5D0A0000 		.4byte	.LASF629
 9339 2cfc 06       		.byte	0x6
 9340 2cfd 630D     		.2byte	0xd63
 9341 2cff 3F       		.uleb128 0x3f
 9342 2d00 73150000 		.4byte	.LASF630
 9343 2d04 73150000 		.4byte	.LASF630
 9344 2d08 09       		.byte	0x9
 9345 2d09 23       		.byte	0x23
 9346 2d0a 3E       		.uleb128 0x3e
 9347 2d0b FE120000 		.4byte	.LASF631
 9348 2d0f FE120000 		.4byte	.LASF631
 9349 2d13 06       		.byte	0x6
 9350 2d14 620D     		.2byte	0xd62
 9351 2d16 3E       		.uleb128 0x3e
 9352 2d17 B6090000 		.4byte	.LASF632
 9353 2d1b B6090000 		.4byte	.LASF632
 9354 2d1f 06       		.byte	0x6
 9355 2d20 870D     		.2byte	0xd87
 9356 2d22 3E       		.uleb128 0x3e
 9357 2d23 72330000 		.4byte	.LASF633
 9358 2d27 72330000 		.4byte	.LASF633
 9359 2d2b 06       		.byte	0x6
 9360 2d2c 660D     		.2byte	0xd66
 9361 2d2e 3F       		.uleb128 0x3f
 9362 2d2f 7C2E0000 		.4byte	.LASF634
 9363 2d33 7C2E0000 		.4byte	.LASF634
 9364 2d37 0C       		.byte	0xc
 9365 2d38 E5       		.byte	0xe5
 9366 2d39 3E       		.uleb128 0x3e
 9367 2d3a B6250000 		.4byte	.LASF635
 9368 2d3e B6250000 		.4byte	.LASF635
 9369 2d42 06       		.byte	0x6
 9370 2d43 670D     		.2byte	0xd67
 9371 2d45 3F       		.uleb128 0x3f
 9372 2d46 C5380000 		.4byte	.LASF636
 9373 2d4a C5380000 		.4byte	.LASF636
 9374 2d4e 0D       		.byte	0xd
 9375 2d4f 57       		.byte	0x57
 9376 2d50 3F       		.uleb128 0x3f
 9377 2d51 480D0000 		.4byte	.LASF637
 9378 2d55 480D0000 		.4byte	.LASF637
 9379 2d59 0D       		.byte	0xd
 9380 2d5a 56       		.byte	0x56
 9381 2d5b 3F       		.uleb128 0x3f
 9382 2d5c B7430000 		.4byte	.LASF638
 9383 2d60 B7430000 		.4byte	.LASF638
 9384 2d64 0C       		.byte	0xc
 9385 2d65 E6       		.byte	0xe6
 9386 2d66 3F       		.uleb128 0x3f
ARM GAS  C:\Users\Administrator\AppData\Local\Temp\ccNQfmEa.s 			page 208


 9387 2d67 140E0000 		.4byte	.LASF639
 9388 2d6b 140E0000 		.4byte	.LASF639
 9389 2d6f 0E       		.byte	0xe
 9390 2d70 18       		.byte	0x18
 9391 2d71 3E       		.uleb128 0x3e
 9392 2d72 2D370000 		.4byte	.LASF640
 9393 2d76 2D370000 		.4byte	.LASF640
 9394 2d7a 06       		.byte	0x6
 9395 2d7b 680D     		.2byte	0xd68
 9396 2d7d 3F       		.uleb128 0x3f
 9397 2d7e 4D140000 		.4byte	.LASF641
 9398 2d82 4D140000 		.4byte	.LASF641
 9399 2d86 0F       		.byte	0xf
 9400 2d87 81       		.byte	0x81
 9401 2d88 3F       		.uleb128 0x3f
 9402 2d89 4B320000 		.4byte	.LASF642
 9403 2d8d 4B320000 		.4byte	.LASF642
 9404 2d91 0C       		.byte	0xc
 9405 2d92 D9       		.byte	0xd9
 9406 2d93 3F       		.uleb128 0x3f
 9407 2d94 09240000 		.4byte	.LASF643
 9408 2d98 09240000 		.4byte	.LASF643
 9409 2d9c 10       		.byte	0x10
 9410 2d9d 33       		.byte	0x33
 9411 2d9e 3F       		.uleb128 0x3f
 9412 2d9f 10340000 		.4byte	.LASF644
 9413 2da3 10340000 		.4byte	.LASF644
 9414 2da7 11       		.byte	0x11
 9415 2da8 33       		.byte	0x33
 9416 2da9 3F       		.uleb128 0x3f
 9417 2daa 4C200000 		.4byte	.LASF645
 9418 2dae 4C200000 		.4byte	.LASF645
 9419 2db2 12       		.byte	0x12
 9420 2db3 33       		.byte	0x33
 9421 2db4 3F       		.uleb128 0x3f
 9422 2db5 BC000000 		.4byte	.LASF646
 9423 2db9 BC000000 		.4byte	.LASF646
 9424 2dbd 13       		.byte	0x13
 9425 2dbe 33       		.byte	0x33
 9426 2dbf 3F       		.uleb128 0x3f
 9427 2dc0 733E0000 		.4byte	.LASF647
 9428 2dc4 733E0000 		.4byte	.LASF647
 9429 2dc8 14       		.byte	0x14
 9430 2dc9 32       		.byte	0x32
 9431 2dca 3F       		.uleb128 0x3f
 9432 2dcb 79440000 		.4byte	.LASF648
 9433 2dcf 79440000 		.4byte	.LASF648
 9434 2dd3 15       		.byte	0x15
 9435 2dd4 33       		.byte	0x33
 9436 2dd5 3F       		.uleb128 0x3f
 9437 2dd6 80220000 		.4byte	.LASF649
 9438 2dda 80220000 		.4byte	.LASF649
 9439 2dde 16       		.byte	0x16
 9440 2ddf 32       		.byte	0x32
 9441 2de0 3F       		.uleb128 0x3f
 9442 2de1 AB1C0000 		.4byte	.LASF650
 9443 2de5 AB1C0000 		.4byte	.LASF650
ARM GAS  C:\Users\Administrator\AppData\Local\Temp\ccNQfmEa.s 			page 209


 9444 2de9 17       		.byte	0x17
 9445 2dea 3C       		.byte	0x3c
 9446 2deb 3F       		.uleb128 0x3f
 9447 2dec 17310000 		.4byte	.LASF651
 9448 2df0 17310000 		.4byte	.LASF651
 9449 2df4 17       		.byte	0x17
 9450 2df5 3D       		.byte	0x3d
 9451 2df6 3F       		.uleb128 0x3f
 9452 2df7 00420000 		.4byte	.LASF652
 9453 2dfb 00420000 		.4byte	.LASF652
 9454 2dff 17       		.byte	0x17
 9455 2e00 3E       		.byte	0x3e
 9456 2e01 3F       		.uleb128 0x3f
 9457 2e02 70310000 		.4byte	.LASF653
 9458 2e06 70310000 		.4byte	.LASF653
 9459 2e0a 17       		.byte	0x17
 9460 2e0b 3F       		.byte	0x3f
 9461 2e0c 3F       		.uleb128 0x3f
 9462 2e0d EF460000 		.4byte	.LASF654
 9463 2e11 EF460000 		.4byte	.LASF654
 9464 2e15 17       		.byte	0x17
 9465 2e16 41       		.byte	0x41
 9466 2e17 3F       		.uleb128 0x3f
 9467 2e18 88320000 		.4byte	.LASF655
 9468 2e1c 88320000 		.4byte	.LASF655
 9469 2e20 17       		.byte	0x17
 9470 2e21 42       		.byte	0x42
 9471 2e22 3F       		.uleb128 0x3f
 9472 2e23 87110000 		.4byte	.LASF656
 9473 2e27 87110000 		.4byte	.LASF656
 9474 2e2b 18       		.byte	0x18
 9475 2e2c 18       		.byte	0x18
 9476 2e2d 3F       		.uleb128 0x3f
 9477 2e2e C00F0000 		.4byte	.LASF657
 9478 2e32 C00F0000 		.4byte	.LASF657
 9479 2e36 19       		.byte	0x19
 9480 2e37 72       		.byte	0x72
 9481 2e38 3F       		.uleb128 0x3f
 9482 2e39 30050000 		.4byte	.LASF658
 9483 2e3d 30050000 		.4byte	.LASF658
 9484 2e41 1A       		.byte	0x1a
 9485 2e42 33       		.byte	0x33
 9486 2e43 3F       		.uleb128 0x3f
 9487 2e44 20030000 		.4byte	.LASF659
 9488 2e48 20030000 		.4byte	.LASF659
 9489 2e4c 0C       		.byte	0xc
 9490 2e4d E4       		.byte	0xe4
 9491 2e4e 40       		.uleb128 0x40
 9492 2e4f 04350000 		.4byte	.LASF682
 9493 2e53 04350000 		.4byte	.LASF682
 9494 2e57 3F       		.uleb128 0x3f
 9495 2e58 A52C0000 		.4byte	.LASF660
 9496 2e5c A52C0000 		.4byte	.LASF660
 9497 2e60 1B       		.byte	0x1b
 9498 2e61 53       		.byte	0x53
 9499 2e62 3F       		.uleb128 0x3f
 9500 2e63 E62B0000 		.4byte	.LASF661
ARM GAS  C:\Users\Administrator\AppData\Local\Temp\ccNQfmEa.s 			page 210


 9501 2e67 E62B0000 		.4byte	.LASF661
 9502 2e6b 0F       		.byte	0xf
 9503 2e6c 7D       		.byte	0x7d
 9504 2e6d 3F       		.uleb128 0x3f
 9505 2e6e CE3F0000 		.4byte	.LASF662
 9506 2e72 CE3F0000 		.4byte	.LASF662
 9507 2e76 05       		.byte	0x5
 9508 2e77 7A       		.byte	0x7a
 9509 2e78 3F       		.uleb128 0x3f
 9510 2e79 013D0000 		.4byte	.LASF663
 9511 2e7d 013D0000 		.4byte	.LASF663
 9512 2e81 0F       		.byte	0xf
 9513 2e82 80       		.byte	0x80
 9514 2e83 3E       		.uleb128 0x3e
 9515 2e84 76350000 		.4byte	.LASF664
 9516 2e88 76350000 		.4byte	.LASF664
 9517 2e8c 07       		.byte	0x7
 9518 2e8d EF01     		.2byte	0x1ef
 9519 2e8f 3F       		.uleb128 0x3f
 9520 2e90 54380000 		.4byte	.LASF665
 9521 2e94 54380000 		.4byte	.LASF665
 9522 2e98 17       		.byte	0x17
 9523 2e99 47       		.byte	0x47
 9524 2e9a 3F       		.uleb128 0x3f
 9525 2e9b C7290000 		.4byte	.LASF666
 9526 2e9f C7290000 		.4byte	.LASF666
 9527 2ea3 0F       		.byte	0xf
 9528 2ea4 78       		.byte	0x78
 9529 2ea5 3F       		.uleb128 0x3f
 9530 2ea6 80430000 		.4byte	.LASF667
 9531 2eaa 80430000 		.4byte	.LASF667
 9532 2eae 17       		.byte	0x17
 9533 2eaf 44       		.byte	0x44
 9534 2eb0 3F       		.uleb128 0x3f
 9535 2eb1 0E360000 		.4byte	.LASF668
 9536 2eb5 0E360000 		.4byte	.LASF668
 9537 2eb9 17       		.byte	0x17
 9538 2eba 48       		.byte	0x48
 9539 2ebb 3F       		.uleb128 0x3f
 9540 2ebc 30140000 		.4byte	.LASF669
 9541 2ec0 30140000 		.4byte	.LASF669
 9542 2ec4 0F       		.byte	0xf
 9543 2ec5 79       		.byte	0x79
 9544 2ec6 3F       		.uleb128 0x3f
 9545 2ec7 7B020000 		.4byte	.LASF670
 9546 2ecb 7B020000 		.4byte	.LASF670
 9547 2ecf 0F       		.byte	0xf
 9548 2ed0 7B       		.byte	0x7b
 9549 2ed1 3F       		.uleb128 0x3f
 9550 2ed2 9E030000 		.4byte	.LASF671
 9551 2ed6 9E030000 		.4byte	.LASF671
 9552 2eda 17       		.byte	0x17
 9553 2edb 4B       		.byte	0x4b
 9554 2edc 3F       		.uleb128 0x3f
 9555 2edd 85230000 		.4byte	.LASF672
 9556 2ee1 85230000 		.4byte	.LASF672
 9557 2ee5 17       		.byte	0x17
ARM GAS  C:\Users\Administrator\AppData\Local\Temp\ccNQfmEa.s 			page 211


 9558 2ee6 49       		.byte	0x49
 9559 2ee7 3F       		.uleb128 0x3f
 9560 2ee8 C5420000 		.4byte	.LASF673
 9561 2eec C5420000 		.4byte	.LASF673
 9562 2ef0 0F       		.byte	0xf
 9563 2ef1 77       		.byte	0x77
 9564 2ef2 3F       		.uleb128 0x3f
 9565 2ef3 8E030000 		.4byte	.LASF674
 9566 2ef7 8E030000 		.4byte	.LASF674
 9567 2efb 0F       		.byte	0xf
 9568 2efc 7E       		.byte	0x7e
 9569 2efd 3F       		.uleb128 0x3f
 9570 2efe EE410000 		.4byte	.LASF675
 9571 2f02 EE410000 		.4byte	.LASF675
 9572 2f06 1C       		.byte	0x1c
 9573 2f07 59       		.byte	0x59
 9574 2f08 3F       		.uleb128 0x3f
 9575 2f09 D6380000 		.4byte	.LASF676
 9576 2f0d D6380000 		.4byte	.LASF676
 9577 2f11 1D       		.byte	0x1d
 9578 2f12 21       		.byte	0x21
 9579 2f13 3F       		.uleb128 0x3f
 9580 2f14 45150000 		.4byte	.LASF677
 9581 2f18 45150000 		.4byte	.LASF677
 9582 2f1c 05       		.byte	0x5
 9583 2f1d 60       		.byte	0x60
 9584 2f1e 3F       		.uleb128 0x3f
 9585 2f1f 2C250000 		.4byte	.LASF678
 9586 2f23 2C250000 		.4byte	.LASF678
 9587 2f27 1E       		.byte	0x1e
 9588 2f28 76       		.byte	0x76
 9589 2f29 3F       		.uleb128 0x3f
 9590 2f2a 80290000 		.4byte	.LASF679
 9591 2f2e 80290000 		.4byte	.LASF679
 9592 2f32 1F       		.byte	0x1f
 9593 2f33 2A       		.byte	0x2a
 9594 2f34 3F       		.uleb128 0x3f
 9595 2f35 97320000 		.4byte	.LASF680
 9596 2f39 97320000 		.4byte	.LASF680
 9597 2f3d 05       		.byte	0x5
 9598 2f3e 69       		.byte	0x69
 9599 2f3f 3F       		.uleb128 0x3f
 9600 2f40 F3440000 		.4byte	.LASF681
 9601 2f44 F3440000 		.4byte	.LASF681
 9602 2f48 0F       		.byte	0xf
 9603 2f49 7A       		.byte	0x7a
 9604 2f4a 40       		.uleb128 0x40
 9605 2f4b 81250000 		.4byte	.LASF683
 9606 2f4f 81250000 		.4byte	.LASF683
 9607 2f53 3F       		.uleb128 0x3f
 9608 2f54 DB160000 		.4byte	.LASF684
 9609 2f58 DB160000 		.4byte	.LASF684
 9610 2f5c 20       		.byte	0x20
 9611 2f5d 32       		.byte	0x32
 9612 2f5e 3F       		.uleb128 0x3f
 9613 2f5f 721B0000 		.4byte	.LASF685
 9614 2f63 721B0000 		.4byte	.LASF685
ARM GAS  C:\Users\Administrator\AppData\Local\Temp\ccNQfmEa.s 			page 212


 9615 2f67 21       		.byte	0x21
 9616 2f68 32       		.byte	0x32
 9617 2f69 3F       		.uleb128 0x3f
 9618 2f6a B12B0000 		.4byte	.LASF686
 9619 2f6e B12B0000 		.4byte	.LASF686
 9620 2f72 22       		.byte	0x22
 9621 2f73 32       		.byte	0x32
 9622 2f74 3F       		.uleb128 0x3f
 9623 2f75 A6320000 		.4byte	.LASF687
 9624 2f79 A6320000 		.4byte	.LASF687
 9625 2f7d 05       		.byte	0x5
 9626 2f7e 68       		.byte	0x68
 9627 2f7f 3F       		.uleb128 0x3f
 9628 2f80 2B0C0000 		.4byte	.LASF688
 9629 2f84 2B0C0000 		.4byte	.LASF688
 9630 2f88 05       		.byte	0x5
 9631 2f89 63       		.byte	0x63
 9632 2f8a 3F       		.uleb128 0x3f
 9633 2f8b 8B440000 		.4byte	.LASF689
 9634 2f8f 8B440000 		.4byte	.LASF689
 9635 2f93 05       		.byte	0x5
 9636 2f94 6A       		.byte	0x6a
 9637 2f95 3E       		.uleb128 0x3e
 9638 2f96 393A0000 		.4byte	.LASF690
 9639 2f9a 393A0000 		.4byte	.LASF690
 9640 2f9e 06       		.byte	0x6
 9641 2f9f A90D     		.2byte	0xda9
 9642 2fa1 3E       		.uleb128 0x3e
 9643 2fa2 49160000 		.4byte	.LASF691
 9644 2fa6 49160000 		.4byte	.LASF691
 9645 2faa 06       		.byte	0x6
 9646 2fab E10D     		.2byte	0xde1
 9647 2fad 3F       		.uleb128 0x3f
 9648 2fae 79340000 		.4byte	.LASF692
 9649 2fb2 79340000 		.4byte	.LASF692
 9650 2fb6 23       		.byte	0x23
 9651 2fb7 18       		.byte	0x18
 9652 2fb8 3F       		.uleb128 0x3f
 9653 2fb9 EB3C0000 		.4byte	.LASF693
 9654 2fbd EB3C0000 		.4byte	.LASF693
 9655 2fc1 0E       		.byte	0xe
 9656 2fc2 17       		.byte	0x17
 9657 2fc3 3F       		.uleb128 0x3f
 9658 2fc4 99440000 		.4byte	.LASF694
 9659 2fc8 99440000 		.4byte	.LASF694
 9660 2fcc 24       		.byte	0x24
 9661 2fcd 33       		.byte	0x33
 9662 2fce 3F       		.uleb128 0x3f
 9663 2fcf C0010000 		.4byte	.LASF695
 9664 2fd3 C0010000 		.4byte	.LASF695
 9665 2fd7 25       		.byte	0x25
 9666 2fd8 18       		.byte	0x18
 9667 2fd9 3E       		.uleb128 0x3e
 9668 2fda 7F0E0000 		.4byte	.LASF696
 9669 2fde 7F0E0000 		.4byte	.LASF696
 9670 2fe2 26       		.byte	0x26
 9671 2fe3 3201     		.2byte	0x132
ARM GAS  C:\Users\Administrator\AppData\Local\Temp\ccNQfmEa.s 			page 213


 9672 2fe5 3F       		.uleb128 0x3f
 9673 2fe6 D70B0000 		.4byte	.LASF697
 9674 2fea D70B0000 		.4byte	.LASF697
 9675 2fee 1B       		.byte	0x1b
 9676 2fef 4B       		.byte	0x4b
 9677 2ff0 3F       		.uleb128 0x3f
 9678 2ff1 8A000000 		.4byte	.LASF698
 9679 2ff5 8A000000 		.4byte	.LASF698
 9680 2ff9 0C       		.byte	0xc
 9681 2ffa E8       		.byte	0xe8
 9682 2ffb 3F       		.uleb128 0x3f
 9683 2ffc 1F300000 		.4byte	.LASF699
 9684 3000 1F300000 		.4byte	.LASF699
 9685 3004 05       		.byte	0x5
 9686 3005 78       		.byte	0x78
 9687 3006 3E       		.uleb128 0x3e
 9688 3007 A7060000 		.4byte	.LASF700
 9689 300b A7060000 		.4byte	.LASF700
 9690 300f 07       		.byte	0x7
 9691 3010 EB01     		.2byte	0x1eb
 9692 3012 3E       		.uleb128 0x3e
 9693 3013 6E390000 		.4byte	.LASF701
 9694 3017 6E390000 		.4byte	.LASF701
 9695 301b 07       		.byte	0x7
 9696 301c EE01     		.2byte	0x1ee
 9697 301e 3F       		.uleb128 0x3f
 9698 301f 7A3D0000 		.4byte	.LASF702
 9699 3023 7A3D0000 		.4byte	.LASF702
 9700 3027 1E       		.byte	0x1e
 9701 3028 6F       		.byte	0x6f
 9702 3029 3E       		.uleb128 0x3e
 9703 302a 17370000 		.4byte	.LASF703
 9704 302e 17370000 		.4byte	.LASF703
 9705 3032 06       		.byte	0x6
 9706 3033 610D     		.2byte	0xd61
 9707 3035 3F       		.uleb128 0x3f
 9708 3036 F4070000 		.4byte	.LASF704
 9709 303a F4070000 		.4byte	.LASF704
 9710 303e 17       		.byte	0x17
 9711 303f 40       		.byte	0x40
 9712 3040 3F       		.uleb128 0x3f
 9713 3041 970B0000 		.4byte	.LASF705
 9714 3045 970B0000 		.4byte	.LASF705
 9715 3049 17       		.byte	0x17
 9716 304a 46       		.byte	0x46
 9717 304b 3F       		.uleb128 0x3f
 9718 304c 813B0000 		.4byte	.LASF706
 9719 3050 813B0000 		.4byte	.LASF706
 9720 3054 17       		.byte	0x17
 9721 3055 43       		.byte	0x43
 9722 3056 3F       		.uleb128 0x3f
 9723 3057 C5260000 		.4byte	.LASF707
 9724 305b C5260000 		.4byte	.LASF707
 9725 305f 17       		.byte	0x17
 9726 3060 45       		.byte	0x45
 9727 3061 00       		.byte	0
 9728              		.section	.debug_abbrev,"",%progbits
ARM GAS  C:\Users\Administrator\AppData\Local\Temp\ccNQfmEa.s 			page 214


 9729              	.Ldebug_abbrev0:
 9730 0000 01       		.uleb128 0x1
 9731 0001 11       		.uleb128 0x11
 9732 0002 01       		.byte	0x1
 9733 0003 25       		.uleb128 0x25
 9734 0004 0E       		.uleb128 0xe
 9735 0005 13       		.uleb128 0x13
 9736 0006 0B       		.uleb128 0xb
 9737 0007 03       		.uleb128 0x3
 9738 0008 0E       		.uleb128 0xe
 9739 0009 1B       		.uleb128 0x1b
 9740 000a 0E       		.uleb128 0xe
 9741 000b 55       		.uleb128 0x55
 9742 000c 17       		.uleb128 0x17
 9743 000d 11       		.uleb128 0x11
 9744 000e 01       		.uleb128 0x1
 9745 000f 10       		.uleb128 0x10
 9746 0010 17       		.uleb128 0x17
 9747 0011 00       		.byte	0
 9748 0012 00       		.byte	0
 9749 0013 02       		.uleb128 0x2
 9750 0014 24       		.uleb128 0x24
 9751 0015 00       		.byte	0
 9752 0016 0B       		.uleb128 0xb
 9753 0017 0B       		.uleb128 0xb
 9754 0018 3E       		.uleb128 0x3e
 9755 0019 0B       		.uleb128 0xb
 9756 001a 03       		.uleb128 0x3
 9757 001b 0E       		.uleb128 0xe
 9758 001c 00       		.byte	0
 9759 001d 00       		.byte	0
 9760 001e 03       		.uleb128 0x3
 9761 001f 16       		.uleb128 0x16
 9762 0020 00       		.byte	0
 9763 0021 03       		.uleb128 0x3
 9764 0022 0E       		.uleb128 0xe
 9765 0023 3A       		.uleb128 0x3a
 9766 0024 0B       		.uleb128 0xb
 9767 0025 3B       		.uleb128 0x3b
 9768 0026 0B       		.uleb128 0xb
 9769 0027 49       		.uleb128 0x49
 9770 0028 13       		.uleb128 0x13
 9771 0029 00       		.byte	0
 9772 002a 00       		.byte	0
 9773 002b 04       		.uleb128 0x4
 9774 002c 24       		.uleb128 0x24
 9775 002d 00       		.byte	0
 9776 002e 0B       		.uleb128 0xb
 9777 002f 0B       		.uleb128 0xb
 9778 0030 3E       		.uleb128 0x3e
 9779 0031 0B       		.uleb128 0xb
 9780 0032 03       		.uleb128 0x3
 9781 0033 08       		.uleb128 0x8
 9782 0034 00       		.byte	0
 9783 0035 00       		.byte	0
 9784 0036 05       		.uleb128 0x5
 9785 0037 16       		.uleb128 0x16
ARM GAS  C:\Users\Administrator\AppData\Local\Temp\ccNQfmEa.s 			page 215


 9786 0038 00       		.byte	0
 9787 0039 03       		.uleb128 0x3
 9788 003a 0E       		.uleb128 0xe
 9789 003b 3A       		.uleb128 0x3a
 9790 003c 0B       		.uleb128 0xb
 9791 003d 3B       		.uleb128 0x3b
 9792 003e 05       		.uleb128 0x5
 9793 003f 49       		.uleb128 0x49
 9794 0040 13       		.uleb128 0x13
 9795 0041 00       		.byte	0
 9796 0042 00       		.byte	0
 9797 0043 06       		.uleb128 0x6
 9798 0044 35       		.uleb128 0x35
 9799 0045 00       		.byte	0
 9800 0046 49       		.uleb128 0x49
 9801 0047 13       		.uleb128 0x13
 9802 0048 00       		.byte	0
 9803 0049 00       		.byte	0
 9804 004a 07       		.uleb128 0x7
 9805 004b 0F       		.uleb128 0xf
 9806 004c 00       		.byte	0
 9807 004d 0B       		.uleb128 0xb
 9808 004e 0B       		.uleb128 0xb
 9809 004f 00       		.byte	0
 9810 0050 00       		.byte	0
 9811 0051 08       		.uleb128 0x8
 9812 0052 0F       		.uleb128 0xf
 9813 0053 00       		.byte	0
 9814 0054 0B       		.uleb128 0xb
 9815 0055 0B       		.uleb128 0xb
 9816 0056 49       		.uleb128 0x49
 9817 0057 13       		.uleb128 0x13
 9818 0058 00       		.byte	0
 9819 0059 00       		.byte	0
 9820 005a 09       		.uleb128 0x9
 9821 005b 13       		.uleb128 0x13
 9822 005c 01       		.byte	0x1
 9823 005d 03       		.uleb128 0x3
 9824 005e 0E       		.uleb128 0xe
 9825 005f 0B       		.uleb128 0xb
 9826 0060 0B       		.uleb128 0xb
 9827 0061 3A       		.uleb128 0x3a
 9828 0062 0B       		.uleb128 0xb
 9829 0063 3B       		.uleb128 0x3b
 9830 0064 0B       		.uleb128 0xb
 9831 0065 01       		.uleb128 0x1
 9832 0066 13       		.uleb128 0x13
 9833 0067 00       		.byte	0
 9834 0068 00       		.byte	0
 9835 0069 0A       		.uleb128 0xa
 9836 006a 0D       		.uleb128 0xd
 9837 006b 00       		.byte	0
 9838 006c 03       		.uleb128 0x3
 9839 006d 0E       		.uleb128 0xe
 9840 006e 3A       		.uleb128 0x3a
 9841 006f 0B       		.uleb128 0xb
 9842 0070 3B       		.uleb128 0x3b
ARM GAS  C:\Users\Administrator\AppData\Local\Temp\ccNQfmEa.s 			page 216


 9843 0071 0B       		.uleb128 0xb
 9844 0072 49       		.uleb128 0x49
 9845 0073 13       		.uleb128 0x13
 9846 0074 38       		.uleb128 0x38
 9847 0075 0B       		.uleb128 0xb
 9848 0076 00       		.byte	0
 9849 0077 00       		.byte	0
 9850 0078 0B       		.uleb128 0xb
 9851 0079 01       		.uleb128 0x1
 9852 007a 01       		.byte	0x1
 9853 007b 49       		.uleb128 0x49
 9854 007c 13       		.uleb128 0x13
 9855 007d 01       		.uleb128 0x1
 9856 007e 13       		.uleb128 0x13
 9857 007f 00       		.byte	0
 9858 0080 00       		.byte	0
 9859 0081 0C       		.uleb128 0xc
 9860 0082 21       		.uleb128 0x21
 9861 0083 00       		.byte	0
 9862 0084 49       		.uleb128 0x49
 9863 0085 13       		.uleb128 0x13
 9864 0086 2F       		.uleb128 0x2f
 9865 0087 0B       		.uleb128 0xb
 9866 0088 00       		.byte	0
 9867 0089 00       		.byte	0
 9868 008a 0D       		.uleb128 0xd
 9869 008b 13       		.uleb128 0x13
 9870 008c 01       		.byte	0x1
 9871 008d 0B       		.uleb128 0xb
 9872 008e 0B       		.uleb128 0xb
 9873 008f 3A       		.uleb128 0x3a
 9874 0090 0B       		.uleb128 0xb
 9875 0091 3B       		.uleb128 0x3b
 9876 0092 0B       		.uleb128 0xb
 9877 0093 01       		.uleb128 0x1
 9878 0094 13       		.uleb128 0x13
 9879 0095 00       		.byte	0
 9880 0096 00       		.byte	0
 9881 0097 0E       		.uleb128 0xe
 9882 0098 0D       		.uleb128 0xd
 9883 0099 00       		.byte	0
 9884 009a 03       		.uleb128 0x3
 9885 009b 08       		.uleb128 0x8
 9886 009c 3A       		.uleb128 0x3a
 9887 009d 0B       		.uleb128 0xb
 9888 009e 3B       		.uleb128 0x3b
 9889 009f 0B       		.uleb128 0xb
 9890 00a0 49       		.uleb128 0x49
 9891 00a1 13       		.uleb128 0x13
 9892 00a2 38       		.uleb128 0x38
 9893 00a3 0B       		.uleb128 0xb
 9894 00a4 00       		.byte	0
 9895 00a5 00       		.byte	0
 9896 00a6 0F       		.uleb128 0xf
 9897 00a7 04       		.uleb128 0x4
 9898 00a8 01       		.byte	0x1
 9899 00a9 0B       		.uleb128 0xb
ARM GAS  C:\Users\Administrator\AppData\Local\Temp\ccNQfmEa.s 			page 217


 9900 00aa 0B       		.uleb128 0xb
 9901 00ab 49       		.uleb128 0x49
 9902 00ac 13       		.uleb128 0x13
 9903 00ad 3A       		.uleb128 0x3a
 9904 00ae 0B       		.uleb128 0xb
 9905 00af 3B       		.uleb128 0x3b
 9906 00b0 0B       		.uleb128 0xb
 9907 00b1 01       		.uleb128 0x1
 9908 00b2 13       		.uleb128 0x13
 9909 00b3 00       		.byte	0
 9910 00b4 00       		.byte	0
 9911 00b5 10       		.uleb128 0x10
 9912 00b6 28       		.uleb128 0x28
 9913 00b7 00       		.byte	0
 9914 00b8 03       		.uleb128 0x3
 9915 00b9 0E       		.uleb128 0xe
 9916 00ba 1C       		.uleb128 0x1c
 9917 00bb 0B       		.uleb128 0xb
 9918 00bc 00       		.byte	0
 9919 00bd 00       		.byte	0
 9920 00be 11       		.uleb128 0x11
 9921 00bf 28       		.uleb128 0x28
 9922 00c0 00       		.byte	0
 9923 00c1 03       		.uleb128 0x3
 9924 00c2 0E       		.uleb128 0xe
 9925 00c3 1C       		.uleb128 0x1c
 9926 00c4 05       		.uleb128 0x5
 9927 00c5 00       		.byte	0
 9928 00c6 00       		.byte	0
 9929 00c7 12       		.uleb128 0x12
 9930 00c8 13       		.uleb128 0x13
 9931 00c9 01       		.byte	0x1
 9932 00ca 0B       		.uleb128 0xb
 9933 00cb 0B       		.uleb128 0xb
 9934 00cc 3A       		.uleb128 0x3a
 9935 00cd 0B       		.uleb128 0xb
 9936 00ce 3B       		.uleb128 0x3b
 9937 00cf 05       		.uleb128 0x5
 9938 00d0 01       		.uleb128 0x1
 9939 00d1 13       		.uleb128 0x13
 9940 00d2 00       		.byte	0
 9941 00d3 00       		.byte	0
 9942 00d4 13       		.uleb128 0x13
 9943 00d5 0D       		.uleb128 0xd
 9944 00d6 00       		.byte	0
 9945 00d7 03       		.uleb128 0x3
 9946 00d8 0E       		.uleb128 0xe
 9947 00d9 3A       		.uleb128 0x3a
 9948 00da 0B       		.uleb128 0xb
 9949 00db 3B       		.uleb128 0x3b
 9950 00dc 05       		.uleb128 0x5
 9951 00dd 49       		.uleb128 0x49
 9952 00de 13       		.uleb128 0x13
 9953 00df 38       		.uleb128 0x38
 9954 00e0 0B       		.uleb128 0xb
 9955 00e1 00       		.byte	0
 9956 00e2 00       		.byte	0
ARM GAS  C:\Users\Administrator\AppData\Local\Temp\ccNQfmEa.s 			page 218


 9957 00e3 14       		.uleb128 0x14
 9958 00e4 04       		.uleb128 0x4
 9959 00e5 01       		.byte	0x1
 9960 00e6 0B       		.uleb128 0xb
 9961 00e7 0B       		.uleb128 0xb
 9962 00e8 49       		.uleb128 0x49
 9963 00e9 13       		.uleb128 0x13
 9964 00ea 3A       		.uleb128 0x3a
 9965 00eb 0B       		.uleb128 0xb
 9966 00ec 3B       		.uleb128 0x3b
 9967 00ed 05       		.uleb128 0x5
 9968 00ee 01       		.uleb128 0x1
 9969 00ef 13       		.uleb128 0x13
 9970 00f0 00       		.byte	0
 9971 00f1 00       		.byte	0
 9972 00f2 15       		.uleb128 0x15
 9973 00f3 2E       		.uleb128 0x2e
 9974 00f4 01       		.byte	0x1
 9975 00f5 3F       		.uleb128 0x3f
 9976 00f6 19       		.uleb128 0x19
 9977 00f7 03       		.uleb128 0x3
 9978 00f8 0E       		.uleb128 0xe
 9979 00f9 3A       		.uleb128 0x3a
 9980 00fa 0B       		.uleb128 0xb
 9981 00fb 3B       		.uleb128 0x3b
 9982 00fc 0B       		.uleb128 0xb
 9983 00fd 27       		.uleb128 0x27
 9984 00fe 19       		.uleb128 0x19
 9985 00ff 20       		.uleb128 0x20
 9986 0100 0B       		.uleb128 0xb
 9987 0101 01       		.uleb128 0x1
 9988 0102 13       		.uleb128 0x13
 9989 0103 00       		.byte	0
 9990 0104 00       		.byte	0
 9991 0105 16       		.uleb128 0x16
 9992 0106 05       		.uleb128 0x5
 9993 0107 00       		.byte	0
 9994 0108 03       		.uleb128 0x3
 9995 0109 0E       		.uleb128 0xe
 9996 010a 3A       		.uleb128 0x3a
 9997 010b 0B       		.uleb128 0xb
 9998 010c 3B       		.uleb128 0x3b
 9999 010d 0B       		.uleb128 0xb
 10000 010e 49       		.uleb128 0x49
 10001 010f 13       		.uleb128 0x13
 10002 0110 00       		.byte	0
 10003 0111 00       		.byte	0
 10004 0112 17       		.uleb128 0x17
 10005 0113 34       		.uleb128 0x34
 10006 0114 00       		.byte	0
 10007 0115 03       		.uleb128 0x3
 10008 0116 0E       		.uleb128 0xe
 10009 0117 3A       		.uleb128 0x3a
 10010 0118 0B       		.uleb128 0xb
 10011 0119 3B       		.uleb128 0x3b
 10012 011a 0B       		.uleb128 0xb
 10013 011b 49       		.uleb128 0x49
ARM GAS  C:\Users\Administrator\AppData\Local\Temp\ccNQfmEa.s 			page 219


 10014 011c 13       		.uleb128 0x13
 10015 011d 00       		.byte	0
 10016 011e 00       		.byte	0
 10017 011f 18       		.uleb128 0x18
 10018 0120 34       		.uleb128 0x34
 10019 0121 00       		.byte	0
 10020 0122 03       		.uleb128 0x3
 10021 0123 08       		.uleb128 0x8
 10022 0124 3A       		.uleb128 0x3a
 10023 0125 0B       		.uleb128 0xb
 10024 0126 3B       		.uleb128 0x3b
 10025 0127 0B       		.uleb128 0xb
 10026 0128 49       		.uleb128 0x49
 10027 0129 13       		.uleb128 0x13
 10028 012a 00       		.byte	0
 10029 012b 00       		.byte	0
 10030 012c 19       		.uleb128 0x19
 10031 012d 2E       		.uleb128 0x2e
 10032 012e 01       		.byte	0x1
 10033 012f 3F       		.uleb128 0x3f
 10034 0130 19       		.uleb128 0x19
 10035 0131 03       		.uleb128 0x3
 10036 0132 0E       		.uleb128 0xe
 10037 0133 3A       		.uleb128 0x3a
 10038 0134 0B       		.uleb128 0xb
 10039 0135 3B       		.uleb128 0x3b
 10040 0136 05       		.uleb128 0x5
 10041 0137 27       		.uleb128 0x27
 10042 0138 19       		.uleb128 0x19
 10043 0139 20       		.uleb128 0x20
 10044 013a 0B       		.uleb128 0xb
 10045 013b 01       		.uleb128 0x1
 10046 013c 13       		.uleb128 0x13
 10047 013d 00       		.byte	0
 10048 013e 00       		.byte	0
 10049 013f 1A       		.uleb128 0x1a
 10050 0140 34       		.uleb128 0x34
 10051 0141 00       		.byte	0
 10052 0142 03       		.uleb128 0x3
 10053 0143 0E       		.uleb128 0xe
 10054 0144 3A       		.uleb128 0x3a
 10055 0145 0B       		.uleb128 0xb
 10056 0146 3B       		.uleb128 0x3b
 10057 0147 05       		.uleb128 0x5
 10058 0148 49       		.uleb128 0x49
 10059 0149 13       		.uleb128 0x13
 10060 014a 00       		.byte	0
 10061 014b 00       		.byte	0
 10062 014c 1B       		.uleb128 0x1b
 10063 014d 2E       		.uleb128 0x2e
 10064 014e 00       		.byte	0
 10065 014f 3F       		.uleb128 0x3f
 10066 0150 19       		.uleb128 0x19
 10067 0151 03       		.uleb128 0x3
 10068 0152 0E       		.uleb128 0xe
 10069 0153 3A       		.uleb128 0x3a
 10070 0154 0B       		.uleb128 0xb
ARM GAS  C:\Users\Administrator\AppData\Local\Temp\ccNQfmEa.s 			page 220


 10071 0155 3B       		.uleb128 0x3b
 10072 0156 05       		.uleb128 0x5
 10073 0157 27       		.uleb128 0x27
 10074 0158 19       		.uleb128 0x19
 10075 0159 20       		.uleb128 0x20
 10076 015a 0B       		.uleb128 0xb
 10077 015b 00       		.byte	0
 10078 015c 00       		.byte	0
 10079 015d 1C       		.uleb128 0x1c
 10080 015e 2E       		.uleb128 0x2e
 10081 015f 01       		.byte	0x1
 10082 0160 31       		.uleb128 0x31
 10083 0161 13       		.uleb128 0x13
 10084 0162 11       		.uleb128 0x11
 10085 0163 01       		.uleb128 0x1
 10086 0164 12       		.uleb128 0x12
 10087 0165 06       		.uleb128 0x6
 10088 0166 40       		.uleb128 0x40
 10089 0167 18       		.uleb128 0x18
 10090 0168 9742     		.uleb128 0x2117
 10091 016a 19       		.uleb128 0x19
 10092 016b 01       		.uleb128 0x1
 10093 016c 13       		.uleb128 0x13
 10094 016d 00       		.byte	0
 10095 016e 00       		.byte	0
 10096 016f 1D       		.uleb128 0x1d
 10097 0170 05       		.uleb128 0x5
 10098 0171 00       		.byte	0
 10099 0172 31       		.uleb128 0x31
 10100 0173 13       		.uleb128 0x13
 10101 0174 02       		.uleb128 0x2
 10102 0175 17       		.uleb128 0x17
 10103 0176 00       		.byte	0
 10104 0177 00       		.byte	0
 10105 0178 1E       		.uleb128 0x1e
 10106 0179 34       		.uleb128 0x34
 10107 017a 00       		.byte	0
 10108 017b 31       		.uleb128 0x31
 10109 017c 13       		.uleb128 0x13
 10110 017d 00       		.byte	0
 10111 017e 00       		.byte	0
 10112 017f 1F       		.uleb128 0x1f
 10113 0180 34       		.uleb128 0x34
 10114 0181 00       		.byte	0
 10115 0182 31       		.uleb128 0x31
 10116 0183 13       		.uleb128 0x13
 10117 0184 02       		.uleb128 0x2
 10118 0185 17       		.uleb128 0x17
 10119 0186 00       		.byte	0
 10120 0187 00       		.byte	0
 10121 0188 20       		.uleb128 0x20
 10122 0189 0B       		.uleb128 0xb
 10123 018a 01       		.byte	0x1
 10124 018b 11       		.uleb128 0x11
 10125 018c 01       		.uleb128 0x1
 10126 018d 12       		.uleb128 0x12
 10127 018e 06       		.uleb128 0x6
ARM GAS  C:\Users\Administrator\AppData\Local\Temp\ccNQfmEa.s 			page 221


 10128 018f 01       		.uleb128 0x1
 10129 0190 13       		.uleb128 0x13
 10130 0191 00       		.byte	0
 10131 0192 00       		.byte	0
 10132 0193 21       		.uleb128 0x21
 10133 0194 0B       		.uleb128 0xb
 10134 0195 01       		.byte	0x1
 10135 0196 11       		.uleb128 0x11
 10136 0197 01       		.uleb128 0x1
 10137 0198 12       		.uleb128 0x12
 10138 0199 06       		.uleb128 0x6
 10139 019a 00       		.byte	0
 10140 019b 00       		.byte	0
 10141 019c 22       		.uleb128 0x22
 10142 019d 34       		.uleb128 0x34
 10143 019e 00       		.byte	0
 10144 019f 31       		.uleb128 0x31
 10145 01a0 13       		.uleb128 0x13
 10146 01a1 02       		.uleb128 0x2
 10147 01a2 18       		.uleb128 0x18
 10148 01a3 00       		.byte	0
 10149 01a4 00       		.byte	0
 10150 01a5 23       		.uleb128 0x23
 10151 01a6 898201   		.uleb128 0x4109
 10152 01a9 01       		.byte	0x1
 10153 01aa 11       		.uleb128 0x11
 10154 01ab 01       		.uleb128 0x1
 10155 01ac 31       		.uleb128 0x31
 10156 01ad 13       		.uleb128 0x13
 10157 01ae 01       		.uleb128 0x1
 10158 01af 13       		.uleb128 0x13
 10159 01b0 00       		.byte	0
 10160 01b1 00       		.byte	0
 10161 01b2 24       		.uleb128 0x24
 10162 01b3 8A8201   		.uleb128 0x410a
 10163 01b6 00       		.byte	0
 10164 01b7 02       		.uleb128 0x2
 10165 01b8 18       		.uleb128 0x18
 10166 01b9 9142     		.uleb128 0x2111
 10167 01bb 18       		.uleb128 0x18
 10168 01bc 00       		.byte	0
 10169 01bd 00       		.byte	0
 10170 01be 25       		.uleb128 0x25
 10171 01bf 898201   		.uleb128 0x4109
 10172 01c2 01       		.byte	0x1
 10173 01c3 11       		.uleb128 0x11
 10174 01c4 01       		.uleb128 0x1
 10175 01c5 31       		.uleb128 0x31
 10176 01c6 13       		.uleb128 0x13
 10177 01c7 00       		.byte	0
 10178 01c8 00       		.byte	0
 10179 01c9 26       		.uleb128 0x26
 10180 01ca 898201   		.uleb128 0x4109
 10181 01cd 00       		.byte	0
 10182 01ce 11       		.uleb128 0x11
 10183 01cf 01       		.uleb128 0x1
 10184 01d0 31       		.uleb128 0x31
ARM GAS  C:\Users\Administrator\AppData\Local\Temp\ccNQfmEa.s 			page 222


 10185 01d1 13       		.uleb128 0x13
 10186 01d2 00       		.byte	0
 10187 01d3 00       		.byte	0
 10188 01d4 27       		.uleb128 0x27
 10189 01d5 2E       		.uleb128 0x2e
 10190 01d6 01       		.byte	0x1
 10191 01d7 3F       		.uleb128 0x3f
 10192 01d8 19       		.uleb128 0x19
 10193 01d9 03       		.uleb128 0x3
 10194 01da 0E       		.uleb128 0xe
 10195 01db 3A       		.uleb128 0x3a
 10196 01dc 0B       		.uleb128 0xb
 10197 01dd 3B       		.uleb128 0x3b
 10198 01de 0B       		.uleb128 0xb
 10199 01df 27       		.uleb128 0x27
 10200 01e0 19       		.uleb128 0x19
 10201 01e1 11       		.uleb128 0x11
 10202 01e2 01       		.uleb128 0x1
 10203 01e3 12       		.uleb128 0x12
 10204 01e4 06       		.uleb128 0x6
 10205 01e5 40       		.uleb128 0x40
 10206 01e6 18       		.uleb128 0x18
 10207 01e7 9742     		.uleb128 0x2117
 10208 01e9 19       		.uleb128 0x19
 10209 01ea 01       		.uleb128 0x1
 10210 01eb 13       		.uleb128 0x13
 10211 01ec 00       		.byte	0
 10212 01ed 00       		.byte	0
 10213 01ee 28       		.uleb128 0x28
 10214 01ef 34       		.uleb128 0x34
 10215 01f0 00       		.byte	0
 10216 01f1 03       		.uleb128 0x3
 10217 01f2 0E       		.uleb128 0xe
 10218 01f3 3A       		.uleb128 0x3a
 10219 01f4 0B       		.uleb128 0xb
 10220 01f5 3B       		.uleb128 0x3b
 10221 01f6 0B       		.uleb128 0xb
 10222 01f7 49       		.uleb128 0x49
 10223 01f8 13       		.uleb128 0x13
 10224 01f9 02       		.uleb128 0x2
 10225 01fa 17       		.uleb128 0x17
 10226 01fb 00       		.byte	0
 10227 01fc 00       		.byte	0
 10228 01fd 29       		.uleb128 0x29
 10229 01fe 2E       		.uleb128 0x2e
 10230 01ff 01       		.byte	0x1
 10231 0200 3F       		.uleb128 0x3f
 10232 0201 19       		.uleb128 0x19
 10233 0202 03       		.uleb128 0x3
 10234 0203 0E       		.uleb128 0xe
 10235 0204 3A       		.uleb128 0x3a
 10236 0205 0B       		.uleb128 0xb
 10237 0206 3B       		.uleb128 0x3b
 10238 0207 05       		.uleb128 0x5
 10239 0208 27       		.uleb128 0x27
 10240 0209 19       		.uleb128 0x19
 10241 020a 11       		.uleb128 0x11
ARM GAS  C:\Users\Administrator\AppData\Local\Temp\ccNQfmEa.s 			page 223


 10242 020b 01       		.uleb128 0x1
 10243 020c 12       		.uleb128 0x12
 10244 020d 06       		.uleb128 0x6
 10245 020e 40       		.uleb128 0x40
 10246 020f 18       		.uleb128 0x18
 10247 0210 9742     		.uleb128 0x2117
 10248 0212 19       		.uleb128 0x19
 10249 0213 01       		.uleb128 0x1
 10250 0214 13       		.uleb128 0x13
 10251 0215 00       		.byte	0
 10252 0216 00       		.byte	0
 10253 0217 2A       		.uleb128 0x2a
 10254 0218 2E       		.uleb128 0x2e
 10255 0219 01       		.byte	0x1
 10256 021a 3F       		.uleb128 0x3f
 10257 021b 19       		.uleb128 0x19
 10258 021c 03       		.uleb128 0x3
 10259 021d 0E       		.uleb128 0xe
 10260 021e 3A       		.uleb128 0x3a
 10261 021f 0B       		.uleb128 0xb
 10262 0220 3B       		.uleb128 0x3b
 10263 0221 05       		.uleb128 0x5
 10264 0222 27       		.uleb128 0x27
 10265 0223 19       		.uleb128 0x19
 10266 0224 11       		.uleb128 0x11
 10267 0225 01       		.uleb128 0x1
 10268 0226 12       		.uleb128 0x12
 10269 0227 06       		.uleb128 0x6
 10270 0228 40       		.uleb128 0x40
 10271 0229 18       		.uleb128 0x18
 10272 022a 9642     		.uleb128 0x2116
 10273 022c 19       		.uleb128 0x19
 10274 022d 01       		.uleb128 0x1
 10275 022e 13       		.uleb128 0x13
 10276 022f 00       		.byte	0
 10277 0230 00       		.byte	0
 10278 0231 2B       		.uleb128 0x2b
 10279 0232 05       		.uleb128 0x5
 10280 0233 00       		.byte	0
 10281 0234 03       		.uleb128 0x3
 10282 0235 08       		.uleb128 0x8
 10283 0236 3A       		.uleb128 0x3a
 10284 0237 0B       		.uleb128 0xb
 10285 0238 3B       		.uleb128 0x3b
 10286 0239 05       		.uleb128 0x5
 10287 023a 49       		.uleb128 0x49
 10288 023b 13       		.uleb128 0x13
 10289 023c 02       		.uleb128 0x2
 10290 023d 17       		.uleb128 0x17
 10291 023e 00       		.byte	0
 10292 023f 00       		.byte	0
 10293 0240 2C       		.uleb128 0x2c
 10294 0241 34       		.uleb128 0x34
 10295 0242 00       		.byte	0
 10296 0243 03       		.uleb128 0x3
 10297 0244 0E       		.uleb128 0xe
 10298 0245 3A       		.uleb128 0x3a
ARM GAS  C:\Users\Administrator\AppData\Local\Temp\ccNQfmEa.s 			page 224


 10299 0246 0B       		.uleb128 0xb
 10300 0247 3B       		.uleb128 0x3b
 10301 0248 05       		.uleb128 0x5
 10302 0249 49       		.uleb128 0x49
 10303 024a 13       		.uleb128 0x13
 10304 024b 02       		.uleb128 0x2
 10305 024c 17       		.uleb128 0x17
 10306 024d 00       		.byte	0
 10307 024e 00       		.byte	0
 10308 024f 2D       		.uleb128 0x2d
 10309 0250 05       		.uleb128 0x5
 10310 0251 00       		.byte	0
 10311 0252 03       		.uleb128 0x3
 10312 0253 08       		.uleb128 0x8
 10313 0254 3A       		.uleb128 0x3a
 10314 0255 0B       		.uleb128 0xb
 10315 0256 3B       		.uleb128 0x3b
 10316 0257 05       		.uleb128 0x5
 10317 0258 49       		.uleb128 0x49
 10318 0259 13       		.uleb128 0x13
 10319 025a 00       		.byte	0
 10320 025b 00       		.byte	0
 10321 025c 2E       		.uleb128 0x2e
 10322 025d 2E       		.uleb128 0x2e
 10323 025e 01       		.byte	0x1
 10324 025f 3F       		.uleb128 0x3f
 10325 0260 19       		.uleb128 0x19
 10326 0261 03       		.uleb128 0x3
 10327 0262 0E       		.uleb128 0xe
 10328 0263 3A       		.uleb128 0x3a
 10329 0264 0B       		.uleb128 0xb
 10330 0265 3B       		.uleb128 0x3b
 10331 0266 05       		.uleb128 0x5
 10332 0267 27       		.uleb128 0x27
 10333 0268 19       		.uleb128 0x19
 10334 0269 49       		.uleb128 0x49
 10335 026a 13       		.uleb128 0x13
 10336 026b 11       		.uleb128 0x11
 10337 026c 01       		.uleb128 0x1
 10338 026d 12       		.uleb128 0x12
 10339 026e 06       		.uleb128 0x6
 10340 026f 40       		.uleb128 0x40
 10341 0270 18       		.uleb128 0x18
 10342 0271 9742     		.uleb128 0x2117
 10343 0273 19       		.uleb128 0x19
 10344 0274 01       		.uleb128 0x1
 10345 0275 13       		.uleb128 0x13
 10346 0276 00       		.byte	0
 10347 0277 00       		.byte	0
 10348 0278 2F       		.uleb128 0x2f
 10349 0279 34       		.uleb128 0x34
 10350 027a 00       		.byte	0
 10351 027b 03       		.uleb128 0x3
 10352 027c 08       		.uleb128 0x8
 10353 027d 3A       		.uleb128 0x3a
 10354 027e 0B       		.uleb128 0xb
 10355 027f 3B       		.uleb128 0x3b
ARM GAS  C:\Users\Administrator\AppData\Local\Temp\ccNQfmEa.s 			page 225


 10356 0280 05       		.uleb128 0x5
 10357 0281 49       		.uleb128 0x49
 10358 0282 13       		.uleb128 0x13
 10359 0283 02       		.uleb128 0x2
 10360 0284 17       		.uleb128 0x17
 10361 0285 00       		.byte	0
 10362 0286 00       		.byte	0
 10363 0287 30       		.uleb128 0x30
 10364 0288 34       		.uleb128 0x34
 10365 0289 00       		.byte	0
 10366 028a 31       		.uleb128 0x31
 10367 028b 13       		.uleb128 0x13
 10368 028c 1C       		.uleb128 0x1c
 10369 028d 0B       		.uleb128 0xb
 10370 028e 00       		.byte	0
 10371 028f 00       		.byte	0
 10372 0290 31       		.uleb128 0x31
 10373 0291 2E       		.uleb128 0x2e
 10374 0292 00       		.byte	0
 10375 0293 3F       		.uleb128 0x3f
 10376 0294 19       		.uleb128 0x19
 10377 0295 03       		.uleb128 0x3
 10378 0296 0E       		.uleb128 0xe
 10379 0297 3A       		.uleb128 0x3a
 10380 0298 0B       		.uleb128 0xb
 10381 0299 3B       		.uleb128 0x3b
 10382 029a 05       		.uleb128 0x5
 10383 029b 27       		.uleb128 0x27
 10384 029c 19       		.uleb128 0x19
 10385 029d 11       		.uleb128 0x11
 10386 029e 01       		.uleb128 0x1
 10387 029f 12       		.uleb128 0x12
 10388 02a0 06       		.uleb128 0x6
 10389 02a1 40       		.uleb128 0x40
 10390 02a2 18       		.uleb128 0x18
 10391 02a3 9742     		.uleb128 0x2117
 10392 02a5 19       		.uleb128 0x19
 10393 02a6 00       		.byte	0
 10394 02a7 00       		.byte	0
 10395 02a8 32       		.uleb128 0x32
 10396 02a9 34       		.uleb128 0x34
 10397 02aa 00       		.byte	0
 10398 02ab 03       		.uleb128 0x3
 10399 02ac 08       		.uleb128 0x8
 10400 02ad 3A       		.uleb128 0x3a
 10401 02ae 0B       		.uleb128 0xb
 10402 02af 3B       		.uleb128 0x3b
 10403 02b0 05       		.uleb128 0x5
 10404 02b1 49       		.uleb128 0x49
 10405 02b2 13       		.uleb128 0x13
 10406 02b3 02       		.uleb128 0x2
 10407 02b4 18       		.uleb128 0x18
 10408 02b5 00       		.byte	0
 10409 02b6 00       		.byte	0
 10410 02b7 33       		.uleb128 0x33
 10411 02b8 34       		.uleb128 0x34
 10412 02b9 00       		.byte	0
ARM GAS  C:\Users\Administrator\AppData\Local\Temp\ccNQfmEa.s 			page 226


 10413 02ba 03       		.uleb128 0x3
 10414 02bb 0E       		.uleb128 0xe
 10415 02bc 3A       		.uleb128 0x3a
 10416 02bd 0B       		.uleb128 0xb
 10417 02be 3B       		.uleb128 0x3b
 10418 02bf 05       		.uleb128 0x5
 10419 02c0 49       		.uleb128 0x49
 10420 02c1 13       		.uleb128 0x13
 10421 02c2 1C       		.uleb128 0x1c
 10422 02c3 0B       		.uleb128 0xb
 10423 02c4 00       		.byte	0
 10424 02c5 00       		.byte	0
 10425 02c6 34       		.uleb128 0x34
 10426 02c7 1D       		.uleb128 0x1d
 10427 02c8 01       		.byte	0x1
 10428 02c9 31       		.uleb128 0x31
 10429 02ca 13       		.uleb128 0x13
 10430 02cb 11       		.uleb128 0x11
 10431 02cc 01       		.uleb128 0x1
 10432 02cd 12       		.uleb128 0x12
 10433 02ce 06       		.uleb128 0x6
 10434 02cf 58       		.uleb128 0x58
 10435 02d0 0B       		.uleb128 0xb
 10436 02d1 59       		.uleb128 0x59
 10437 02d2 05       		.uleb128 0x5
 10438 02d3 01       		.uleb128 0x1
 10439 02d4 13       		.uleb128 0x13
 10440 02d5 00       		.byte	0
 10441 02d6 00       		.byte	0
 10442 02d7 35       		.uleb128 0x35
 10443 02d8 34       		.uleb128 0x34
 10444 02d9 00       		.byte	0
 10445 02da 03       		.uleb128 0x3
 10446 02db 0E       		.uleb128 0xe
 10447 02dc 3A       		.uleb128 0x3a
 10448 02dd 0B       		.uleb128 0xb
 10449 02de 3B       		.uleb128 0x3b
 10450 02df 05       		.uleb128 0x5
 10451 02e0 49       		.uleb128 0x49
 10452 02e1 13       		.uleb128 0x13
 10453 02e2 02       		.uleb128 0x2
 10454 02e3 18       		.uleb128 0x18
 10455 02e4 00       		.byte	0
 10456 02e5 00       		.byte	0
 10457 02e6 36       		.uleb128 0x36
 10458 02e7 0A       		.uleb128 0xa
 10459 02e8 00       		.byte	0
 10460 02e9 03       		.uleb128 0x3
 10461 02ea 0E       		.uleb128 0xe
 10462 02eb 3A       		.uleb128 0x3a
 10463 02ec 0B       		.uleb128 0xb
 10464 02ed 3B       		.uleb128 0x3b
 10465 02ee 05       		.uleb128 0x5
 10466 02ef 11       		.uleb128 0x11
 10467 02f0 01       		.uleb128 0x1
 10468 02f1 00       		.byte	0
 10469 02f2 00       		.byte	0
ARM GAS  C:\Users\Administrator\AppData\Local\Temp\ccNQfmEa.s 			page 227


 10470 02f3 37       		.uleb128 0x37
 10471 02f4 05       		.uleb128 0x5
 10472 02f5 00       		.byte	0
 10473 02f6 03       		.uleb128 0x3
 10474 02f7 0E       		.uleb128 0xe
 10475 02f8 3A       		.uleb128 0x3a
 10476 02f9 0B       		.uleb128 0xb
 10477 02fa 3B       		.uleb128 0x3b
 10478 02fb 05       		.uleb128 0x5
 10479 02fc 49       		.uleb128 0x49
 10480 02fd 13       		.uleb128 0x13
 10481 02fe 02       		.uleb128 0x2
 10482 02ff 17       		.uleb128 0x17
 10483 0300 00       		.byte	0
 10484 0301 00       		.byte	0
 10485 0302 38       		.uleb128 0x38
 10486 0303 2E       		.uleb128 0x2e
 10487 0304 01       		.byte	0x1
 10488 0305 3F       		.uleb128 0x3f
 10489 0306 19       		.uleb128 0x19
 10490 0307 03       		.uleb128 0x3
 10491 0308 0E       		.uleb128 0xe
 10492 0309 3A       		.uleb128 0x3a
 10493 030a 0B       		.uleb128 0xb
 10494 030b 3B       		.uleb128 0x3b
 10495 030c 05       		.uleb128 0x5
 10496 030d 27       		.uleb128 0x27
 10497 030e 19       		.uleb128 0x19
 10498 030f 49       		.uleb128 0x49
 10499 0310 13       		.uleb128 0x13
 10500 0311 8701     		.uleb128 0x87
 10501 0313 19       		.uleb128 0x19
 10502 0314 11       		.uleb128 0x11
 10503 0315 01       		.uleb128 0x1
 10504 0316 12       		.uleb128 0x12
 10505 0317 06       		.uleb128 0x6
 10506 0318 40       		.uleb128 0x40
 10507 0319 18       		.uleb128 0x18
 10508 031a 9742     		.uleb128 0x2117
 10509 031c 19       		.uleb128 0x19
 10510 031d 01       		.uleb128 0x1
 10511 031e 13       		.uleb128 0x13
 10512 031f 00       		.byte	0
 10513 0320 00       		.byte	0
 10514 0321 39       		.uleb128 0x39
 10515 0322 34       		.uleb128 0x34
 10516 0323 00       		.byte	0
 10517 0324 03       		.uleb128 0x3
 10518 0325 08       		.uleb128 0x8
 10519 0326 3A       		.uleb128 0x3a
 10520 0327 0B       		.uleb128 0xb
 10521 0328 3B       		.uleb128 0x3b
 10522 0329 05       		.uleb128 0x5
 10523 032a 49       		.uleb128 0x49
 10524 032b 13       		.uleb128 0x13
 10525 032c 00       		.byte	0
 10526 032d 00       		.byte	0
ARM GAS  C:\Users\Administrator\AppData\Local\Temp\ccNQfmEa.s 			page 228


 10527 032e 3A       		.uleb128 0x3a
 10528 032f 26       		.uleb128 0x26
 10529 0330 00       		.byte	0
 10530 0331 49       		.uleb128 0x49
 10531 0332 13       		.uleb128 0x13
 10532 0333 00       		.byte	0
 10533 0334 00       		.byte	0
 10534 0335 3B       		.uleb128 0x3b
 10535 0336 34       		.uleb128 0x34
 10536 0337 00       		.byte	0
 10537 0338 03       		.uleb128 0x3
 10538 0339 0E       		.uleb128 0xe
 10539 033a 3A       		.uleb128 0x3a
 10540 033b 0B       		.uleb128 0xb
 10541 033c 3B       		.uleb128 0x3b
 10542 033d 05       		.uleb128 0x5
 10543 033e 49       		.uleb128 0x49
 10544 033f 13       		.uleb128 0x13
 10545 0340 3F       		.uleb128 0x3f
 10546 0341 19       		.uleb128 0x19
 10547 0342 3C       		.uleb128 0x3c
 10548 0343 19       		.uleb128 0x19
 10549 0344 00       		.byte	0
 10550 0345 00       		.byte	0
 10551 0346 3C       		.uleb128 0x3c
 10552 0347 34       		.uleb128 0x34
 10553 0348 00       		.byte	0
 10554 0349 03       		.uleb128 0x3
 10555 034a 0E       		.uleb128 0xe
 10556 034b 3A       		.uleb128 0x3a
 10557 034c 0B       		.uleb128 0xb
 10558 034d 3B       		.uleb128 0x3b
 10559 034e 0B       		.uleb128 0xb
 10560 034f 49       		.uleb128 0x49
 10561 0350 13       		.uleb128 0x13
 10562 0351 3F       		.uleb128 0x3f
 10563 0352 19       		.uleb128 0x19
 10564 0353 02       		.uleb128 0x2
 10565 0354 18       		.uleb128 0x18
 10566 0355 00       		.byte	0
 10567 0356 00       		.byte	0
 10568 0357 3D       		.uleb128 0x3d
 10569 0358 21       		.uleb128 0x21
 10570 0359 00       		.byte	0
 10571 035a 49       		.uleb128 0x49
 10572 035b 13       		.uleb128 0x13
 10573 035c 2F       		.uleb128 0x2f
 10574 035d 05       		.uleb128 0x5
 10575 035e 00       		.byte	0
 10576 035f 00       		.byte	0
 10577 0360 3E       		.uleb128 0x3e
 10578 0361 2E       		.uleb128 0x2e
 10579 0362 00       		.byte	0
 10580 0363 3F       		.uleb128 0x3f
 10581 0364 19       		.uleb128 0x19
 10582 0365 3C       		.uleb128 0x3c
 10583 0366 19       		.uleb128 0x19
ARM GAS  C:\Users\Administrator\AppData\Local\Temp\ccNQfmEa.s 			page 229


 10584 0367 6E       		.uleb128 0x6e
 10585 0368 0E       		.uleb128 0xe
 10586 0369 03       		.uleb128 0x3
 10587 036a 0E       		.uleb128 0xe
 10588 036b 3A       		.uleb128 0x3a
 10589 036c 0B       		.uleb128 0xb
 10590 036d 3B       		.uleb128 0x3b
 10591 036e 05       		.uleb128 0x5
 10592 036f 00       		.byte	0
 10593 0370 00       		.byte	0
 10594 0371 3F       		.uleb128 0x3f
 10595 0372 2E       		.uleb128 0x2e
 10596 0373 00       		.byte	0
 10597 0374 3F       		.uleb128 0x3f
 10598 0375 19       		.uleb128 0x19
 10599 0376 3C       		.uleb128 0x3c
 10600 0377 19       		.uleb128 0x19
 10601 0378 6E       		.uleb128 0x6e
 10602 0379 0E       		.uleb128 0xe
 10603 037a 03       		.uleb128 0x3
 10604 037b 0E       		.uleb128 0xe
 10605 037c 3A       		.uleb128 0x3a
 10606 037d 0B       		.uleb128 0xb
 10607 037e 3B       		.uleb128 0x3b
 10608 037f 0B       		.uleb128 0xb
 10609 0380 00       		.byte	0
 10610 0381 00       		.byte	0
 10611 0382 40       		.uleb128 0x40
 10612 0383 2E       		.uleb128 0x2e
 10613 0384 00       		.byte	0
 10614 0385 3F       		.uleb128 0x3f
 10615 0386 19       		.uleb128 0x19
 10616 0387 3C       		.uleb128 0x3c
 10617 0388 19       		.uleb128 0x19
 10618 0389 6E       		.uleb128 0x6e
 10619 038a 0E       		.uleb128 0xe
 10620 038b 03       		.uleb128 0x3
 10621 038c 0E       		.uleb128 0xe
 10622 038d 00       		.byte	0
 10623 038e 00       		.byte	0
 10624 038f 00       		.byte	0
 10625              		.section	.debug_loc,"",%progbits
 10626              	.Ldebug_loc0:
 10627              	.LLST0:
 10628 0000 00000000 		.4byte	.LVL0
 10629 0004 1C000000 		.4byte	.LVL2
 10630 0008 0100     		.2byte	0x1
 10631 000a 50       		.byte	0x50
 10632 000b 1C000000 		.4byte	.LVL2
 10633 000f 22000000 		.4byte	.LVL4
 10634 0013 0400     		.2byte	0x4
 10635 0015 F3       		.byte	0xf3
 10636 0016 01       		.uleb128 0x1
 10637 0017 50       		.byte	0x50
 10638 0018 9F       		.byte	0x9f
 10639 0019 22000000 		.4byte	.LVL4
 10640 001d 26000000 		.4byte	.LVL5
ARM GAS  C:\Users\Administrator\AppData\Local\Temp\ccNQfmEa.s 			page 230


 10641 0021 0100     		.2byte	0x1
 10642 0023 50       		.byte	0x50
 10643 0024 26000000 		.4byte	.LVL5
 10644 0028 64000000 		.4byte	.LVL12
 10645 002c 0400     		.2byte	0x4
 10646 002e F3       		.byte	0xf3
 10647 002f 01       		.uleb128 0x1
 10648 0030 50       		.byte	0x50
 10649 0031 9F       		.byte	0x9f
 10650 0032 64000000 		.4byte	.LVL12
 10651 0036 66000000 		.4byte	.LVL13
 10652 003a 0100     		.2byte	0x1
 10653 003c 50       		.byte	0x50
 10654 003d 66000000 		.4byte	.LVL13
 10655 0041 74000000 		.4byte	.LFE63
 10656 0045 0400     		.2byte	0x4
 10657 0047 F3       		.byte	0xf3
 10658 0048 01       		.uleb128 0x1
 10659 0049 50       		.byte	0x50
 10660 004a 9F       		.byte	0x9f
 10661 004b 00000000 		.4byte	0
 10662 004f 00000000 		.4byte	0
 10663              	.LLST1:
 10664 0053 00000000 		.4byte	.LVL0
 10665 0057 1A000000 		.4byte	.LVL1
 10666 005b 0100     		.2byte	0x1
 10667 005d 51       		.byte	0x51
 10668 005e 1A000000 		.4byte	.LVL1
 10669 0062 1F000000 		.4byte	.LVL3-1
 10670 0066 0100     		.2byte	0x1
 10671 0068 53       		.byte	0x53
 10672 0069 1F000000 		.4byte	.LVL3-1
 10673 006d 22000000 		.4byte	.LVL4
 10674 0071 0400     		.2byte	0x4
 10675 0073 F3       		.byte	0xf3
 10676 0074 01       		.uleb128 0x1
 10677 0075 51       		.byte	0x51
 10678 0076 9F       		.byte	0x9f
 10679 0077 22000000 		.4byte	.LVL4
 10680 007b 2F000000 		.4byte	.LVL6-1
 10681 007f 0100     		.2byte	0x1
 10682 0081 51       		.byte	0x51
 10683 0082 2F000000 		.4byte	.LVL6-1
 10684 0086 64000000 		.4byte	.LVL12
 10685 008a 0400     		.2byte	0x4
 10686 008c F3       		.byte	0xf3
 10687 008d 01       		.uleb128 0x1
 10688 008e 51       		.byte	0x51
 10689 008f 9F       		.byte	0x9f
 10690 0090 64000000 		.4byte	.LVL12
 10691 0094 69000000 		.4byte	.LVL14-1
 10692 0098 0100     		.2byte	0x1
 10693 009a 51       		.byte	0x51
 10694 009b 69000000 		.4byte	.LVL14-1
 10695 009f 74000000 		.4byte	.LFE63
 10696 00a3 0400     		.2byte	0x4
 10697 00a5 F3       		.byte	0xf3
ARM GAS  C:\Users\Administrator\AppData\Local\Temp\ccNQfmEa.s 			page 231


 10698 00a6 01       		.uleb128 0x1
 10699 00a7 51       		.byte	0x51
 10700 00a8 9F       		.byte	0x9f
 10701 00a9 00000000 		.4byte	0
 10702 00ad 00000000 		.4byte	0
 10703              	.LLST2:
 10704 00b1 00000000 		.4byte	.LVL0
 10705 00b5 1A000000 		.4byte	.LVL1
 10706 00b9 0100     		.2byte	0x1
 10707 00bb 51       		.byte	0x51
 10708 00bc 1A000000 		.4byte	.LVL1
 10709 00c0 1F000000 		.4byte	.LVL3-1
 10710 00c4 0100     		.2byte	0x1
 10711 00c6 53       		.byte	0x53
 10712 00c7 1F000000 		.4byte	.LVL3-1
 10713 00cb 22000000 		.4byte	.LVL4
 10714 00cf 0400     		.2byte	0x4
 10715 00d1 F3       		.byte	0xf3
 10716 00d2 01       		.uleb128 0x1
 10717 00d3 51       		.byte	0x51
 10718 00d4 9F       		.byte	0x9f
 10719 00d5 22000000 		.4byte	.LVL4
 10720 00d9 2F000000 		.4byte	.LVL6-1
 10721 00dd 0100     		.2byte	0x1
 10722 00df 51       		.byte	0x51
 10723 00e0 2F000000 		.4byte	.LVL6-1
 10724 00e4 64000000 		.4byte	.LVL12
 10725 00e8 0400     		.2byte	0x4
 10726 00ea F3       		.byte	0xf3
 10727 00eb 01       		.uleb128 0x1
 10728 00ec 51       		.byte	0x51
 10729 00ed 9F       		.byte	0x9f
 10730 00ee 64000000 		.4byte	.LVL12
 10731 00f2 69000000 		.4byte	.LVL14-1
 10732 00f6 0100     		.2byte	0x1
 10733 00f8 51       		.byte	0x51
 10734 00f9 69000000 		.4byte	.LVL14-1
 10735 00fd 74000000 		.4byte	.LFE63
 10736 0101 0400     		.2byte	0x4
 10737 0103 F3       		.byte	0xf3
 10738 0104 01       		.uleb128 0x1
 10739 0105 51       		.byte	0x51
 10740 0106 9F       		.byte	0x9f
 10741 0107 00000000 		.4byte	0
 10742 010b 00000000 		.4byte	0
 10743              	.LLST3:
 10744 010f 22000000 		.4byte	.LVL4
 10745 0113 5C000000 		.4byte	.LVL10
 10746 0117 0200     		.2byte	0x2
 10747 0119 31       		.byte	0x31
 10748 011a 9F       		.byte	0x9f
 10749 011b 00000000 		.4byte	0
 10750 011f 00000000 		.4byte	0
 10751              	.LLST4:
 10752 0123 22000000 		.4byte	.LVL4
 10753 0127 2F000000 		.4byte	.LVL6-1
 10754 012b 0100     		.2byte	0x1
ARM GAS  C:\Users\Administrator\AppData\Local\Temp\ccNQfmEa.s 			page 232


 10755 012d 51       		.byte	0x51
 10756 012e 2F000000 		.4byte	.LVL6-1
 10757 0132 5C000000 		.4byte	.LVL10
 10758 0136 0400     		.2byte	0x4
 10759 0138 F3       		.byte	0xf3
 10760 0139 01       		.uleb128 0x1
 10761 013a 51       		.byte	0x51
 10762 013b 9F       		.byte	0x9f
 10763 013c 00000000 		.4byte	0
 10764 0140 00000000 		.4byte	0
 10765              	.LLST5:
 10766 0144 46000000 		.4byte	.LVL7
 10767 0148 4A000000 		.4byte	.LVL8
 10768 014c 0200     		.2byte	0x2
 10769 014e 36       		.byte	0x36
 10770 014f 9F       		.byte	0x9f
 10771 0150 4A000000 		.4byte	.LVL8
 10772 0154 52000000 		.4byte	.LVL9
 10773 0158 0300     		.2byte	0x3
 10774 015a 73       		.byte	0x73
 10775 015b 06       		.sleb128 6
 10776 015c 9F       		.byte	0x9f
 10777 015d 00000000 		.4byte	0
 10778 0161 00000000 		.4byte	0
 10779              	.LLST6:
 10780 0165 14000000 		.4byte	.LVL16
 10781 0169 48000000 		.4byte	.LVL24
 10782 016d 0100     		.2byte	0x1
 10783 016f 55       		.byte	0x55
 10784 0170 00000000 		.4byte	0
 10785 0174 00000000 		.4byte	0
 10786              	.LLST7:
 10787 0178 1A000000 		.4byte	.LVL18
 10788 017c 48000000 		.4byte	.LVL24
 10789 0180 0100     		.2byte	0x1
 10790 0182 54       		.byte	0x54
 10791 0183 00000000 		.4byte	0
 10792 0187 00000000 		.4byte	0
 10793              	.LLST8:
 10794 018b 00000000 		.4byte	.LVL28
 10795 018f 07000000 		.4byte	.LVL29-1
 10796 0193 0100     		.2byte	0x1
 10797 0195 50       		.byte	0x50
 10798 0196 07000000 		.4byte	.LVL29-1
 10799 019a 20000000 		.4byte	.LFE67
 10800 019e 0400     		.2byte	0x4
 10801 01a0 F3       		.byte	0xf3
 10802 01a1 01       		.uleb128 0x1
 10803 01a2 50       		.byte	0x50
 10804 01a3 9F       		.byte	0x9f
 10805 01a4 00000000 		.4byte	0
 10806 01a8 00000000 		.4byte	0
 10807              	.LLST9:
 10808 01ac 00000000 		.4byte	.LVL28
 10809 01b0 0C000000 		.4byte	.LVL30
 10810 01b4 0200     		.2byte	0x2
 10811 01b6 30       		.byte	0x30
ARM GAS  C:\Users\Administrator\AppData\Local\Temp\ccNQfmEa.s 			page 233


 10812 01b7 9F       		.byte	0x9f
 10813 01b8 0C000000 		.4byte	.LVL30
 10814 01bc 18000000 		.4byte	.LVL32
 10815 01c0 0100     		.2byte	0x1
 10816 01c2 54       		.byte	0x54
 10817 01c3 18000000 		.4byte	.LVL32
 10818 01c7 1C000000 		.4byte	.LVL33
 10819 01cb 0300     		.2byte	0x3
 10820 01cd 74       		.byte	0x74
 10821 01ce 7F       		.sleb128 -1
 10822 01cf 9F       		.byte	0x9f
 10823 01d0 1C000000 		.4byte	.LVL33
 10824 01d4 1E000000 		.4byte	.LVL34
 10825 01d8 0100     		.2byte	0x1
 10826 01da 54       		.byte	0x54
 10827 01db 00000000 		.4byte	0
 10828 01df 00000000 		.4byte	0
 10829              	.LLST10:
 10830 01e3 00000000 		.4byte	.LVL44
 10831 01e7 09000000 		.4byte	.LVL45-1
 10832 01eb 0100     		.2byte	0x1
 10833 01ed 50       		.byte	0x50
 10834 01ee 09000000 		.4byte	.LVL45-1
 10835 01f2 0C000000 		.4byte	.LVL46
 10836 01f6 0400     		.2byte	0x4
 10837 01f8 F3       		.byte	0xf3
 10838 01f9 01       		.uleb128 0x1
 10839 01fa 50       		.byte	0x50
 10840 01fb 9F       		.byte	0x9f
 10841 01fc 0C000000 		.4byte	.LVL46
 10842 0200 13000000 		.4byte	.LVL47-1
 10843 0204 0100     		.2byte	0x1
 10844 0206 50       		.byte	0x50
 10845 0207 13000000 		.4byte	.LVL47-1
 10846 020b 16000000 		.4byte	.LVL48
 10847 020f 0400     		.2byte	0x4
 10848 0211 F3       		.byte	0xf3
 10849 0212 01       		.uleb128 0x1
 10850 0213 50       		.byte	0x50
 10851 0214 9F       		.byte	0x9f
 10852 0215 16000000 		.4byte	.LVL48
 10853 0219 1D000000 		.4byte	.LVL49-1
 10854 021d 0100     		.2byte	0x1
 10855 021f 50       		.byte	0x50
 10856 0220 1D000000 		.4byte	.LVL49-1
 10857 0224 20000000 		.4byte	.LVL50
 10858 0228 0400     		.2byte	0x4
 10859 022a F3       		.byte	0xf3
 10860 022b 01       		.uleb128 0x1
 10861 022c 50       		.byte	0x50
 10862 022d 9F       		.byte	0x9f
 10863 022e 20000000 		.4byte	.LVL50
 10864 0232 27000000 		.4byte	.LVL51-1
 10865 0236 0100     		.2byte	0x1
 10866 0238 50       		.byte	0x50
 10867 0239 27000000 		.4byte	.LVL51-1
 10868 023d 2A000000 		.4byte	.LFE72
ARM GAS  C:\Users\Administrator\AppData\Local\Temp\ccNQfmEa.s 			page 234


 10869 0241 0400     		.2byte	0x4
 10870 0243 F3       		.byte	0xf3
 10871 0244 01       		.uleb128 0x1
 10872 0245 50       		.byte	0x50
 10873 0246 9F       		.byte	0x9f
 10874 0247 00000000 		.4byte	0
 10875 024b 00000000 		.4byte	0
 10876              	.LLST11:
 10877 024f 00000000 		.4byte	.LVL54
 10878 0253 0C000000 		.4byte	.LVL56
 10879 0257 0200     		.2byte	0x2
 10880 0259 30       		.byte	0x30
 10881 025a 9F       		.byte	0x9f
 10882 025b 0C000000 		.4byte	.LVL56
 10883 025f 0E000000 		.4byte	.LFE75
 10884 0263 0100     		.2byte	0x1
 10885 0265 50       		.byte	0x50
 10886 0266 00000000 		.4byte	0
 10887 026a 00000000 		.4byte	0
 10888              	.LLST12:
 10889 026e 1A000000 		.4byte	.LVL61
 10890 0272 24000000 		.4byte	.LVL63
 10891 0276 0600     		.2byte	0x6
 10892 0278 08       		.byte	0x8
 10893 0279 20       		.byte	0x20
 10894 027a 74       		.byte	0x74
 10895 027b 00       		.sleb128 0
 10896 027c 1C       		.byte	0x1c
 10897 027d 9F       		.byte	0x9f
 10898 027e 30000000 		.4byte	.LVL64
 10899 0282 32000000 		.4byte	.LVL65
 10900 0286 0600     		.2byte	0x6
 10901 0288 08       		.byte	0x8
 10902 0289 20       		.byte	0x20
 10903 028a 74       		.byte	0x74
 10904 028b 00       		.sleb128 0
 10905 028c 1C       		.byte	0x1c
 10906 028d 9F       		.byte	0x9f
 10907 028e 00000000 		.4byte	0
 10908 0292 00000000 		.4byte	0
 10909              	.LLST13:
 10910 0296 00000000 		.4byte	.LVL67
 10911 029a 1A000000 		.4byte	.LVL71
 10912 029e 0200     		.2byte	0x2
 10913 02a0 30       		.byte	0x30
 10914 02a1 9F       		.byte	0x9f
 10915 02a2 1A000000 		.4byte	.LVL71
 10916 02a6 24000000 		.4byte	.LVL73
 10917 02aa 0600     		.2byte	0x6
 10918 02ac 08       		.byte	0x8
 10919 02ad 20       		.byte	0x20
 10920 02ae 74       		.byte	0x74
 10921 02af 00       		.sleb128 0
 10922 02b0 1C       		.byte	0x1c
 10923 02b1 9F       		.byte	0x9f
 10924 02b2 30000000 		.4byte	.LVL74
 10925 02b6 32000000 		.4byte	.LVL75
ARM GAS  C:\Users\Administrator\AppData\Local\Temp\ccNQfmEa.s 			page 235


 10926 02ba 0600     		.2byte	0x6
 10927 02bc 08       		.byte	0x8
 10928 02bd 20       		.byte	0x20
 10929 02be 74       		.byte	0x74
 10930 02bf 00       		.sleb128 0
 10931 02c0 1C       		.byte	0x1c
 10932 02c1 9F       		.byte	0x9f
 10933 02c2 00000000 		.4byte	0
 10934 02c6 00000000 		.4byte	0
 10935              	.LLST14:
 10936 02ca 00000000 		.4byte	.LVL102
 10937 02ce 12000000 		.4byte	.LVL105
 10938 02d2 0200     		.2byte	0x2
 10939 02d4 30       		.byte	0x30
 10940 02d5 9F       		.byte	0x9f
 10941 02d6 12000000 		.4byte	.LVL105
 10942 02da 1C000000 		.4byte	.LVL107
 10943 02de 0600     		.2byte	0x6
 10944 02e0 08       		.byte	0x8
 10945 02e1 20       		.byte	0x20
 10946 02e2 74       		.byte	0x74
 10947 02e3 00       		.sleb128 0
 10948 02e4 1C       		.byte	0x1c
 10949 02e5 9F       		.byte	0x9f
 10950 02e6 28000000 		.4byte	.LVL108
 10951 02ea 2A000000 		.4byte	.LVL109
 10952 02ee 0600     		.2byte	0x6
 10953 02f0 08       		.byte	0x8
 10954 02f1 20       		.byte	0x20
 10955 02f2 74       		.byte	0x74
 10956 02f3 00       		.sleb128 0
 10957 02f4 1C       		.byte	0x1c
 10958 02f5 9F       		.byte	0x9f
 10959 02f6 00000000 		.4byte	0
 10960 02fa 00000000 		.4byte	0
 10961              	.LLST15:
 10962 02fe 0E000000 		.4byte	.LVL116
 10963 0302 2C000000 		.4byte	.LVL117
 10964 0306 0200     		.2byte	0x2
 10965 0308 30       		.byte	0x30
 10966 0309 9F       		.byte	0x9f
 10967 030a 2C000000 		.4byte	.LVL117
 10968 030e 51000000 		.4byte	.LVL122-1
 10969 0312 0200     		.2byte	0x2
 10970 0314 91       		.byte	0x91
 10971 0315 76       		.sleb128 -10
 10972 0316 52000000 		.4byte	.LVL122
 10973 031a 60000000 		.4byte	.LVL124
 10974 031e 0200     		.2byte	0x2
 10975 0320 30       		.byte	0x30
 10976 0321 9F       		.byte	0x9f
 10977 0322 00000000 		.4byte	0
 10978 0326 00000000 		.4byte	0
 10979              	.LLST16:
 10980 032a 3A000000 		.4byte	.LVL118
 10981 032e 42000000 		.4byte	.LVL119
 10982 0332 0100     		.2byte	0x1
ARM GAS  C:\Users\Administrator\AppData\Local\Temp\ccNQfmEa.s 			page 236


 10983 0334 53       		.byte	0x53
 10984 0335 42000000 		.4byte	.LVL119
 10985 0339 44000000 		.4byte	.LVL120
 10986 033d 0300     		.2byte	0x3
 10987 033f 73       		.byte	0x73
 10988 0340 04       		.sleb128 4
 10989 0341 9F       		.byte	0x9f
 10990 0342 44000000 		.4byte	.LVL120
 10991 0346 4A000000 		.4byte	.LVL121
 10992 034a 0100     		.2byte	0x1
 10993 034c 53       		.byte	0x53
 10994 034d 4A000000 		.4byte	.LVL121
 10995 0351 51000000 		.4byte	.LVL122-1
 10996 0355 1200     		.2byte	0x12
 10997 0357 74       		.byte	0x74
 10998 0358 00       		.sleb128 0
 10999 0359 94       		.byte	0x94
 11000 035a 01       		.byte	0x1
 11001 035b 08       		.byte	0x8
 11002 035c FF       		.byte	0xff
 11003 035d 1A       		.byte	0x1a
 11004 035e 38       		.byte	0x38
 11005 035f 24       		.byte	0x24
 11006 0360 74       		.byte	0x74
 11007 0361 01       		.sleb128 1
 11008 0362 94       		.byte	0x94
 11009 0363 01       		.byte	0x1
 11010 0364 08       		.byte	0x8
 11011 0365 FF       		.byte	0xff
 11012 0366 1A       		.byte	0x1a
 11013 0367 21       		.byte	0x21
 11014 0368 9F       		.byte	0x9f
 11015 0369 52000000 		.4byte	.LVL122
 11016 036d 60000000 		.4byte	.LVL124
 11017 0371 0200     		.2byte	0x2
 11018 0373 3D       		.byte	0x3d
 11019 0374 9F       		.byte	0x9f
 11020 0375 00000000 		.4byte	0
 11021 0379 00000000 		.4byte	0
 11022              	.LLST17:
 11023 037d 78000000 		.4byte	.LVL134
 11024 0381 8A000000 		.4byte	.LVL135
 11025 0385 0100     		.2byte	0x1
 11026 0387 50       		.byte	0x50
 11027 0388 E2000000 		.4byte	.LVL141
 11028 038c EC000000 		.4byte	.LVL142
 11029 0390 0100     		.2byte	0x1
 11030 0392 50       		.byte	0x50
 11031 0393 1E010000 		.4byte	.LVL145
 11032 0397 32010000 		.4byte	.LVL146
 11033 039b 0100     		.2byte	0x1
 11034 039d 50       		.byte	0x50
 11035 039e 2C020000 		.4byte	.LVL166
 11036 03a2 34020000 		.4byte	.LVL167
 11037 03a6 0100     		.2byte	0x1
 11038 03a8 50       		.byte	0x50
 11039 03a9 60020000 		.4byte	.LVL170
ARM GAS  C:\Users\Administrator\AppData\Local\Temp\ccNQfmEa.s 			page 237


 11040 03ad 6E020000 		.4byte	.LVL171
 11041 03b1 0100     		.2byte	0x1
 11042 03b3 50       		.byte	0x50
 11043 03b4 00000000 		.4byte	0
 11044 03b8 00000000 		.4byte	0
 11045              	.LLST18:
 11046 03bc 4E000000 		.4byte	.LVL132
 11047 03c0 52000000 		.4byte	.LVL133
 11048 03c4 0200     		.2byte	0x2
 11049 03c6 31       		.byte	0x31
 11050 03c7 9F       		.byte	0x9f
 11051 03c8 00000000 		.4byte	0
 11052 03cc 00000000 		.4byte	0
 11053              	.LLST19:
 11054 03d0 92000000 		.4byte	.LVL136
 11055 03d4 96000000 		.4byte	.LVL137
 11056 03d8 0200     		.2byte	0x2
 11057 03da 31       		.byte	0x31
 11058 03db 9F       		.byte	0x9f
 11059 03dc 00000000 		.4byte	0
 11060 03e0 00000000 		.4byte	0
 11061              	.LLST20:
 11062 03e4 C0000000 		.4byte	.LVL139
 11063 03e8 C4000000 		.4byte	.LVL140
 11064 03ec 0200     		.2byte	0x2
 11065 03ee 31       		.byte	0x31
 11066 03ef 9F       		.byte	0x9f
 11067 03f0 00000000 		.4byte	0
 11068 03f4 00000000 		.4byte	0
 11069              	.LLST21:
 11070 03f8 F6000000 		.4byte	.LVL143
 11071 03fc FA000000 		.4byte	.LVL144
 11072 0400 0200     		.2byte	0x2
 11073 0402 31       		.byte	0x31
 11074 0403 9F       		.byte	0x9f
 11075 0404 00000000 		.4byte	0
 11076 0408 00000000 		.4byte	0
 11077              	.LLST22:
 11078 040c 3C010000 		.4byte	.LVL147
 11079 0410 40010000 		.4byte	.LVL148
 11080 0414 0200     		.2byte	0x2
 11081 0416 31       		.byte	0x31
 11082 0417 9F       		.byte	0x9f
 11083 0418 00000000 		.4byte	0
 11084 041c 00000000 		.4byte	0
 11085              	.LLST23:
 11086 0420 6A010000 		.4byte	.LVL150
 11087 0424 6E010000 		.4byte	.LVL151
 11088 0428 0200     		.2byte	0x2
 11089 042a 32       		.byte	0x32
 11090 042b 9F       		.byte	0x9f
 11091 042c 00000000 		.4byte	0
 11092 0430 00000000 		.4byte	0
 11093              	.LLST24:
 11094 0434 E6010000 		.4byte	.LVL159
 11095 0438 EA010000 		.4byte	.LVL160
 11096 043c 0200     		.2byte	0x2
ARM GAS  C:\Users\Administrator\AppData\Local\Temp\ccNQfmEa.s 			page 238


 11097 043e 31       		.byte	0x31
 11098 043f 9F       		.byte	0x9f
 11099 0440 00000000 		.4byte	0
 11100 0444 00000000 		.4byte	0
 11101              	.LLST25:
 11102 0448 0A020000 		.4byte	.LVL164
 11103 044c 0E020000 		.4byte	.LVL165
 11104 0450 0200     		.2byte	0x2
 11105 0452 31       		.byte	0x31
 11106 0453 9F       		.byte	0x9f
 11107 0454 00000000 		.4byte	0
 11108 0458 00000000 		.4byte	0
 11109              	.LLST26:
 11110 045c 3E020000 		.4byte	.LVL168
 11111 0460 42020000 		.4byte	.LVL169
 11112 0464 0200     		.2byte	0x2
 11113 0466 31       		.byte	0x31
 11114 0467 9F       		.byte	0x9f
 11115 0468 00000000 		.4byte	0
 11116 046c 00000000 		.4byte	0
 11117              	.LLST27:
 11118 0470 78020000 		.4byte	.LVL172
 11119 0474 7C020000 		.4byte	.LVL173
 11120 0478 0200     		.2byte	0x2
 11121 047a 33       		.byte	0x33
 11122 047b 9F       		.byte	0x9f
 11123 047c 00000000 		.4byte	0
 11124 0480 00000000 		.4byte	0
 11125              	.LLST28:
 11126 0484 2A000000 		.4byte	.LVL183
 11127 0488 3E000000 		.4byte	.LVL187
 11128 048c 0200     		.2byte	0x2
 11129 048e 30       		.byte	0x30
 11130 048f 9F       		.byte	0x9f
 11131 0490 3E000000 		.4byte	.LVL187
 11132 0494 52000000 		.4byte	.LVL191
 11133 0498 0200     		.2byte	0x2
 11134 049a 31       		.byte	0x31
 11135 049b 9F       		.byte	0x9f
 11136 049c 52000000 		.4byte	.LVL191
 11137 04a0 80000000 		.4byte	.LVL195
 11138 04a4 0200     		.2byte	0x2
 11139 04a6 32       		.byte	0x32
 11140 04a7 9F       		.byte	0x9f
 11141 04a8 8E000000 		.4byte	.LVL197
 11142 04ac 32010000 		.4byte	.LVL215
 11143 04b0 0200     		.2byte	0x2
 11144 04b2 32       		.byte	0x32
 11145 04b3 9F       		.byte	0x9f
 11146 04b4 00000000 		.4byte	0
 11147 04b8 00000000 		.4byte	0
 11148              	.LLST29:
 11149 04bc 56000000 		.4byte	.LVL192
 11150 04c0 66000000 		.4byte	.LVL193
 11151 04c4 0100     		.2byte	0x1
 11152 04c6 50       		.byte	0x50
 11153 04c7 A0000000 		.4byte	.LVL201
ARM GAS  C:\Users\Administrator\AppData\Local\Temp\ccNQfmEa.s 			page 239


 11154 04cb AE000000 		.4byte	.LVL202
 11155 04cf 0100     		.2byte	0x1
 11156 04d1 50       		.byte	0x50
 11157 04d2 D6000000 		.4byte	.LVL205
 11158 04d6 E0000000 		.4byte	.LVL206
 11159 04da 0100     		.2byte	0x1
 11160 04dc 50       		.byte	0x50
 11161 04dd E0000000 		.4byte	.LVL206
 11162 04e1 E8000000 		.4byte	.LVL207
 11163 04e5 0300     		.2byte	0x3
 11164 04e7 70       		.byte	0x70
 11165 04e8 71       		.sleb128 -15
 11166 04e9 9F       		.byte	0x9f
 11167 04ea E8000000 		.4byte	.LVL207
 11168 04ee EB000000 		.4byte	.LVL208-1
 11169 04f2 0900     		.2byte	0x9
 11170 04f4 03       		.byte	0x3
 11171 04f5 00000000 		.4byte	next_allupload_time
 11172 04f9 06       		.byte	0x6
 11173 04fa 3F       		.byte	0x3f
 11174 04fb 1C       		.byte	0x1c
 11175 04fc 9F       		.byte	0x9f
 11176 04fd 00000000 		.4byte	0
 11177 0501 00000000 		.4byte	0
 11178              	.LLST30:
 11179 0505 36000000 		.4byte	.LVL223
 11180 0509 52000000 		.4byte	.LVL224
 11181 050d 0100     		.2byte	0x1
 11182 050f 50       		.byte	0x50
 11183 0510 7C000000 		.4byte	.LVL228
 11184 0514 88000000 		.4byte	.LVL229
 11185 0518 0100     		.2byte	0x1
 11186 051a 50       		.byte	0x50
 11187 051b 88000000 		.4byte	.LVL229
 11188 051f 8E000000 		.4byte	.LVL230
 11189 0523 0300     		.2byte	0x3
 11190 0525 70       		.byte	0x70
 11191 0526 71       		.sleb128 -15
 11192 0527 9F       		.byte	0x9f
 11193 0528 8E000000 		.4byte	.LVL230
 11194 052c 91000000 		.4byte	.LVL231-1
 11195 0530 0900     		.2byte	0x9
 11196 0532 03       		.byte	0x3
 11197 0533 00000000 		.4byte	next_allupload_time
 11198 0537 06       		.byte	0x6
 11199 0538 3F       		.byte	0x3f
 11200 0539 1C       		.byte	0x1c
 11201 053a 9F       		.byte	0x9f
 11202 053b 00000000 		.4byte	0
 11203 053f 00000000 		.4byte	0
 11204              	.LLST31:
 11205 0543 48000000 		.4byte	.LVL240
 11206 0547 5C000000 		.4byte	.LVL241
 11207 054b 0100     		.2byte	0x1
 11208 054d 50       		.byte	0x50
 11209 054e 80000000 		.4byte	.LVL243
 11210 0552 A4000000 		.4byte	.LVL244
ARM GAS  C:\Users\Administrator\AppData\Local\Temp\ccNQfmEa.s 			page 240


 11211 0556 0100     		.2byte	0x1
 11212 0558 50       		.byte	0x50
 11213 0559 00000000 		.4byte	0
 11214 055d 00000000 		.4byte	0
 11215              	.LLST32:
 11216 0561 00000000 		.4byte	.LVL250
 11217 0565 3A000000 		.4byte	.LVL255
 11218 0569 0200     		.2byte	0x2
 11219 056b 30       		.byte	0x30
 11220 056c 9F       		.byte	0x9f
 11221 056d 3A000000 		.4byte	.LVL255
 11222 0571 50000000 		.4byte	.LVL256
 11223 0575 0100     		.2byte	0x1
 11224 0577 50       		.byte	0x50
 11225 0578 5E000000 		.4byte	.LVL258
 11226 057c 64000000 		.4byte	.LVL259
 11227 0580 0200     		.2byte	0x2
 11228 0582 30       		.byte	0x30
 11229 0583 9F       		.byte	0x9f
 11230 0584 00000000 		.4byte	0
 11231 0588 00000000 		.4byte	0
 11232              	.LLST33:
 11233 058c 06000000 		.4byte	.LVL264
 11234 0590 08000000 		.4byte	.LVL265
 11235 0594 0200     		.2byte	0x2
 11236 0596 30       		.byte	0x30
 11237 0597 9F       		.byte	0x9f
 11238 0598 08000000 		.4byte	.LVL265
 11239 059c 0A000000 		.4byte	.LVL266
 11240 05a0 0600     		.2byte	0x6
 11241 05a2 08       		.byte	0x8
 11242 05a3 32       		.byte	0x32
 11243 05a4 74       		.byte	0x74
 11244 05a5 00       		.sleb128 0
 11245 05a6 1C       		.byte	0x1c
 11246 05a7 9F       		.byte	0x9f
 11247 05a8 00000000 		.4byte	0
 11248 05ac 00000000 		.4byte	0
 11249              	.LLST34:
 11250 05b0 00000000 		.4byte	.LVL271
 11251 05b4 26000000 		.4byte	.LVL275
 11252 05b8 0200     		.2byte	0x2
 11253 05ba 30       		.byte	0x30
 11254 05bb 9F       		.byte	0x9f
 11255 05bc 26000000 		.4byte	.LVL275
 11256 05c0 36000000 		.4byte	.LVL276
 11257 05c4 0100     		.2byte	0x1
 11258 05c6 50       		.byte	0x50
 11259 05c7 00000000 		.4byte	0
 11260 05cb 00000000 		.4byte	0
 11261              	.LLST35:
 11262 05cf 0E000000 		.4byte	.LVL278
 11263 05d3 1E000000 		.4byte	.LVL279
 11264 05d7 0100     		.2byte	0x1
 11265 05d9 50       		.byte	0x50
 11266 05da 00000000 		.4byte	0
 11267 05de 00000000 		.4byte	0
ARM GAS  C:\Users\Administrator\AppData\Local\Temp\ccNQfmEa.s 			page 241


 11268              	.LLST36:
 11269 05e2 00000000 		.4byte	.LVL281
 11270 05e6 44000000 		.4byte	.LVL285
 11271 05ea 0200     		.2byte	0x2
 11272 05ec 30       		.byte	0x30
 11273 05ed 9F       		.byte	0x9f
 11274 05ee 44000000 		.4byte	.LVL285
 11275 05f2 EC000000 		.4byte	.LVL297
 11276 05f6 0A00     		.2byte	0xa
 11277 05f8 91       		.byte	0x91
 11278 05f9 C47D     		.sleb128 -316
 11279 05fb 94       		.byte	0x94
 11280 05fc 02       		.byte	0x2
 11281 05fd 0A       		.byte	0xa
 11282 05fe 8813     		.2byte	0x1388
 11283 0600 1D       		.byte	0x1d
 11284 0601 9F       		.byte	0x9f
 11285 0602 00000000 		.4byte	0
 11286 0606 00000000 		.4byte	0
 11287              	.LLST37:
 11288 060a 52000000 		.4byte	.LVL286
 11289 060e 5A000000 		.4byte	.LVL287
 11290 0612 0200     		.2byte	0x2
 11291 0614 30       		.byte	0x30
 11292 0615 9F       		.byte	0x9f
 11293 0616 5E000000 		.4byte	.LVL288
 11294 061a 62000000 		.4byte	.LVL289
 11295 061e 0100     		.2byte	0x1
 11296 0620 55       		.byte	0x55
 11297 0621 62000000 		.4byte	.LVL289
 11298 0625 64000000 		.4byte	.LVL290
 11299 0629 0300     		.2byte	0x3
 11300 062b 74       		.byte	0x74
 11301 062c 01       		.sleb128 1
 11302 062d 9F       		.byte	0x9f
 11303 062e 64000000 		.4byte	.LVL290
 11304 0632 90000000 		.4byte	.LVL292
 11305 0636 0300     		.2byte	0x3
 11306 0638 75       		.byte	0x75
 11307 0639 01       		.sleb128 1
 11308 063a 9F       		.byte	0x9f
 11309 063b 90000000 		.4byte	.LVL292
 11310 063f DC000000 		.4byte	.LVL295
 11311 0643 0100     		.2byte	0x1
 11312 0645 55       		.byte	0x55
 11313 0646 E8000000 		.4byte	.LVL296
 11314 064a EC000000 		.4byte	.LVL297
 11315 064e 0100     		.2byte	0x1
 11316 0650 55       		.byte	0x55
 11317 0651 00000000 		.4byte	0
 11318 0655 00000000 		.4byte	0
 11319              	.LLST38:
 11320 0659 00000000 		.4byte	.LVL298
 11321 065d 10000000 		.4byte	.LVL300
 11322 0661 0100     		.2byte	0x1
 11323 0663 50       		.byte	0x50
 11324 0664 10000000 		.4byte	.LVL300
ARM GAS  C:\Users\Administrator\AppData\Local\Temp\ccNQfmEa.s 			page 242


 11325 0668 22000000 		.4byte	.LVL302
 11326 066c 0100     		.2byte	0x1
 11327 066e 55       		.byte	0x55
 11328 066f 22000000 		.4byte	.LVL302
 11329 0673 26000000 		.4byte	.LVL303
 11330 0677 0400     		.2byte	0x4
 11331 0679 F3       		.byte	0xf3
 11332 067a 01       		.uleb128 0x1
 11333 067b 50       		.byte	0x50
 11334 067c 9F       		.byte	0x9f
 11335 067d 26000000 		.4byte	.LVL303
 11336 0681 40000000 		.4byte	.LVL306
 11337 0685 0100     		.2byte	0x1
 11338 0687 55       		.byte	0x55
 11339 0688 40000000 		.4byte	.LVL306
 11340 068c 78000000 		.4byte	.LFE100
 11341 0690 0400     		.2byte	0x4
 11342 0692 F3       		.byte	0xf3
 11343 0693 01       		.uleb128 0x1
 11344 0694 50       		.byte	0x50
 11345 0695 9F       		.byte	0x9f
 11346 0696 00000000 		.4byte	0
 11347 069a 00000000 		.4byte	0
 11348              	.LLST39:
 11349 069e 00000000 		.4byte	.LVL298
 11350 06a2 06000000 		.4byte	.LVL299
 11351 06a6 0100     		.2byte	0x1
 11352 06a8 51       		.byte	0x51
 11353 06a9 06000000 		.4byte	.LVL299
 11354 06ad 62000000 		.4byte	.LVL309
 11355 06b1 0100     		.2byte	0x1
 11356 06b3 54       		.byte	0x54
 11357 06b4 62000000 		.4byte	.LVL309
 11358 06b8 78000000 		.4byte	.LFE100
 11359 06bc 0400     		.2byte	0x4
 11360 06be F3       		.byte	0xf3
 11361 06bf 01       		.uleb128 0x1
 11362 06c0 51       		.byte	0x51
 11363 06c1 9F       		.byte	0x9f
 11364 06c2 00000000 		.4byte	0
 11365 06c6 00000000 		.4byte	0
 11366              	.LLST40:
 11367 06ca 2A000000 		.4byte	.LVL304
 11368 06ce 38000000 		.4byte	.LVL305
 11369 06d2 0400     		.2byte	0x4
 11370 06d4 73       		.byte	0x73
 11371 06d5 00       		.sleb128 0
 11372 06d6 1F       		.byte	0x1f
 11373 06d7 9F       		.byte	0x9f
 11374 06d8 40000000 		.4byte	.LVL306
 11375 06dc 54000000 		.4byte	.LVL307
 11376 06e0 0100     		.2byte	0x1
 11377 06e2 53       		.byte	0x53
 11378 06e3 00000000 		.4byte	0
 11379 06e7 00000000 		.4byte	0
 11380              	.LLST41:
 11381 06eb 00000000 		.4byte	.LVL310
ARM GAS  C:\Users\Administrator\AppData\Local\Temp\ccNQfmEa.s 			page 243


 11382 06ef 10000000 		.4byte	.LVL312
 11383 06f3 0100     		.2byte	0x1
 11384 06f5 50       		.byte	0x50
 11385 06f6 10000000 		.4byte	.LVL312
 11386 06fa AE000000 		.4byte	.LVL322
 11387 06fe 0100     		.2byte	0x1
 11388 0700 55       		.byte	0x55
 11389 0701 AE000000 		.4byte	.LVL322
 11390 0705 B4000000 		.4byte	.LFE101
 11391 0709 0400     		.2byte	0x4
 11392 070b F3       		.byte	0xf3
 11393 070c 01       		.uleb128 0x1
 11394 070d 50       		.byte	0x50
 11395 070e 9F       		.byte	0x9f
 11396 070f 00000000 		.4byte	0
 11397 0713 00000000 		.4byte	0
 11398              	.LLST42:
 11399 0717 00000000 		.4byte	.LVL310
 11400 071b 0C000000 		.4byte	.LVL311
 11401 071f 0100     		.2byte	0x1
 11402 0721 51       		.byte	0x51
 11403 0722 0C000000 		.4byte	.LVL311
 11404 0726 88000000 		.4byte	.LVL319
 11405 072a 0200     		.2byte	0x2
 11406 072c 91       		.byte	0x91
 11407 072d 4C       		.sleb128 -52
 11408 072e 88000000 		.4byte	.LVL319
 11409 0732 B4000000 		.4byte	.LFE101
 11410 0736 0400     		.2byte	0x4
 11411 0738 F3       		.byte	0xf3
 11412 0739 01       		.uleb128 0x1
 11413 073a 51       		.byte	0x51
 11414 073b 9F       		.byte	0x9f
 11415 073c 00000000 		.4byte	0
 11416 0740 00000000 		.4byte	0
 11417              	.LLST43:
 11418 0744 82000000 		.4byte	.LVL318
 11419 0748 88000000 		.4byte	.LVL319
 11420 074c 0200     		.2byte	0x2
 11421 074e 30       		.byte	0x30
 11422 074f 9F       		.byte	0x9f
 11423 0750 88000000 		.4byte	.LVL319
 11424 0754 A6000000 		.4byte	.LVL320
 11425 0758 0100     		.2byte	0x1
 11426 075a 52       		.byte	0x52
 11427 075b A6000000 		.4byte	.LVL320
 11428 075f A8000000 		.4byte	.LVL321
 11429 0763 0300     		.2byte	0x3
 11430 0765 72       		.byte	0x72
 11431 0766 01       		.sleb128 1
 11432 0767 9F       		.byte	0x9f
 11433 0768 00000000 		.4byte	0
 11434 076c 00000000 		.4byte	0
 11435              	.LLST44:
 11436 0770 CE000000 		.4byte	.LVL354
 11437 0774 D5000000 		.4byte	.LVL355-1
 11438 0778 0100     		.2byte	0x1
ARM GAS  C:\Users\Administrator\AppData\Local\Temp\ccNQfmEa.s 			page 244


 11439 077a 50       		.byte	0x50
 11440 077b DA000000 		.4byte	.LVL356
 11441 077f E1000000 		.4byte	.LVL357-1
 11442 0783 0100     		.2byte	0x1
 11443 0785 50       		.byte	0x50
 11444 0786 E4000000 		.4byte	.LVL358
 11445 078a E7000000 		.4byte	.LVL359-1
 11446 078e 0100     		.2byte	0x1
 11447 0790 50       		.byte	0x50
 11448 0791 00000000 		.4byte	0
 11449 0795 00000000 		.4byte	0
 11450              	.LLST45:
 11451 0799 62000000 		.4byte	.LVL336
 11452 079d 68000000 		.4byte	.LVL337
 11453 07a1 0100     		.2byte	0x1
 11454 07a3 50       		.byte	0x50
 11455 07a4 6A000000 		.4byte	.LVL338
 11456 07a8 6C000000 		.4byte	.LVL339
 11457 07ac 0100     		.2byte	0x1
 11458 07ae 50       		.byte	0x50
 11459 07af 00000000 		.4byte	0
 11460 07b3 00000000 		.4byte	0
 11461              	.LLST46:
 11462 07b7 76000000 		.4byte	.LVL341
 11463 07bb 78000000 		.4byte	.LVL342
 11464 07bf 0200     		.2byte	0x2
 11465 07c1 30       		.byte	0x30
 11466 07c2 9F       		.byte	0x9f
 11467 07c3 78000000 		.4byte	.LVL342
 11468 07c7 7A000000 		.4byte	.LVL343
 11469 07cb 0500     		.2byte	0x5
 11470 07cd 4F       		.byte	0x4f
 11471 07ce 75       		.byte	0x75
 11472 07cf 00       		.sleb128 0
 11473 07d0 1C       		.byte	0x1c
 11474 07d1 9F       		.byte	0x9f
 11475 07d2 00000000 		.4byte	0
 11476 07d6 00000000 		.4byte	0
 11477              	.LLST47:
 11478 07da 2A000000 		.4byte	.LVL326
 11479 07de 2E000000 		.4byte	.LVL327
 11480 07e2 0200     		.2byte	0x2
 11481 07e4 31       		.byte	0x31
 11482 07e5 9F       		.byte	0x9f
 11483 07e6 00000000 		.4byte	0
 11484 07ea 00000000 		.4byte	0
 11485              		.section	.debug_aranges,"",%progbits
 11486 0000 54010000 		.4byte	0x154
 11487 0004 0200     		.2byte	0x2
 11488 0006 00000000 		.4byte	.Ldebug_info0
 11489 000a 04       		.byte	0x4
 11490 000b 00       		.byte	0
 11491 000c 0000     		.2byte	0
 11492 000e 0000     		.2byte	0
 11493 0010 00000000 		.4byte	.LFB63
 11494 0014 74000000 		.4byte	.LFE63-.LFB63
 11495 0018 00000000 		.4byte	.LFB64
ARM GAS  C:\Users\Administrator\AppData\Local\Temp\ccNQfmEa.s 			page 245


 11496 001c 50000000 		.4byte	.LFE64-.LFB64
 11497 0020 00000000 		.4byte	.LFB65
 11498 0024 1C000000 		.4byte	.LFE65-.LFB65
 11499 0028 00000000 		.4byte	.LFB67
 11500 002c 20000000 		.4byte	.LFE67-.LFB67
 11501 0030 00000000 		.4byte	.LFB68
 11502 0034 16000000 		.4byte	.LFE68-.LFB68
 11503 0038 00000000 		.4byte	.LFB69
 11504 003c 0E000000 		.4byte	.LFE69-.LFB69
 11505 0040 00000000 		.4byte	.LFB70
 11506 0044 0E000000 		.4byte	.LFE70-.LFB70
 11507 0048 00000000 		.4byte	.LFB71
 11508 004c 0E000000 		.4byte	.LFE71-.LFB71
 11509 0050 00000000 		.4byte	.LFB72
 11510 0054 2A000000 		.4byte	.LFE72-.LFB72
 11511 0058 00000000 		.4byte	.LFB73
 11512 005c 0A000000 		.4byte	.LFE73-.LFB73
 11513 0060 00000000 		.4byte	.LFB74
 11514 0064 0A000000 		.4byte	.LFE74-.LFB74
 11515 0068 00000000 		.4byte	.LFB75
 11516 006c 0E000000 		.4byte	.LFE75-.LFB75
 11517 0070 00000000 		.4byte	.LFB76
 11518 0074 3A000000 		.4byte	.LFE76-.LFB76
 11519 0078 00000000 		.4byte	.LFB77
 11520 007c 9C000000 		.4byte	.LFE77-.LFB77
 11521 0080 00000000 		.4byte	.LFB78
 11522 0084 74000000 		.4byte	.LFE78-.LFB78
 11523 0088 00000000 		.4byte	.LFB79
 11524 008c 3C000000 		.4byte	.LFE79-.LFB79
 11525 0090 00000000 		.4byte	.LFB80
 11526 0094 16000000 		.4byte	.LFE80-.LFB80
 11527 0098 00000000 		.4byte	.LFB81
 11528 009c 14000000 		.4byte	.LFE81-.LFB81
 11529 00a0 00000000 		.4byte	.LFB82
 11530 00a4 1C000000 		.4byte	.LFE82-.LFB82
 11531 00a8 00000000 		.4byte	.LFB83
 11532 00ac 18000000 		.4byte	.LFE83-.LFB83
 11533 00b0 00000000 		.4byte	.LFB84
 11534 00b4 18000000 		.4byte	.LFE84-.LFB84
 11535 00b8 00000000 		.4byte	.LFB85
 11536 00bc 18000000 		.4byte	.LFE85-.LFB85
 11537 00c0 00000000 		.4byte	.LFB86
 11538 00c4 14000000 		.4byte	.LFE86-.LFB86
 11539 00c8 00000000 		.4byte	.LFB87
 11540 00cc 14000000 		.4byte	.LFE87-.LFB87
 11541 00d0 00000000 		.4byte	.LFB88
 11542 00d4 24000000 		.4byte	.LFE88-.LFB88
 11543 00d8 00000000 		.4byte	.LFB89
 11544 00dc 78000000 		.4byte	.LFE89-.LFB89
 11545 00e0 00000000 		.4byte	.LFB90
 11546 00e4 28000000 		.4byte	.LFE90-.LFB90
 11547 00e8 00000000 		.4byte	.LFB91
 11548 00ec 18030000 		.4byte	.LFE91-.LFB91
 11549 00f0 00000000 		.4byte	.LFB92
 11550 00f4 50010000 		.4byte	.LFE92-.LFB92
 11551 00f8 00000000 		.4byte	.LFB93
 11552 00fc C0000000 		.4byte	.LFE93-.LFB93
ARM GAS  C:\Users\Administrator\AppData\Local\Temp\ccNQfmEa.s 			page 246


 11553 0100 00000000 		.4byte	.LFB94
 11554 0104 08010000 		.4byte	.LFE94-.LFB94
 11555 0108 00000000 		.4byte	.LFB95
 11556 010c 7C000000 		.4byte	.LFE95-.LFB95
 11557 0110 00000000 		.4byte	.LFB96
 11558 0114 40000000 		.4byte	.LFE96-.LFB96
 11559 0118 00000000 		.4byte	.LFB66
 11560 011c 40000000 		.4byte	.LFE66-.LFB66
 11561 0120 00000000 		.4byte	.LFB97
 11562 0124 58000000 		.4byte	.LFE97-.LFB97
 11563 0128 00000000 		.4byte	.LFB98
 11564 012c 48000000 		.4byte	.LFE98-.LFB98
 11565 0130 00000000 		.4byte	.LFB99
 11566 0134 10010000 		.4byte	.LFE99-.LFB99
 11567 0138 00000000 		.4byte	.LFB100
 11568 013c 78000000 		.4byte	.LFE100-.LFB100
 11569 0140 00000000 		.4byte	.LFB101
 11570 0144 B4000000 		.4byte	.LFE101-.LFB101
 11571 0148 00000000 		.4byte	.LFB102
 11572 014c 38010000 		.4byte	.LFE102-.LFB102
 11573 0150 00000000 		.4byte	0
 11574 0154 00000000 		.4byte	0
 11575              		.section	.debug_ranges,"",%progbits
 11576              	.Ldebug_ranges0:
 11577 0000 00000000 		.4byte	.LFB63
 11578 0004 74000000 		.4byte	.LFE63
 11579 0008 00000000 		.4byte	.LFB64
 11580 000c 50000000 		.4byte	.LFE64
 11581 0010 00000000 		.4byte	.LFB65
 11582 0014 1C000000 		.4byte	.LFE65
 11583 0018 00000000 		.4byte	.LFB67
 11584 001c 20000000 		.4byte	.LFE67
 11585 0020 00000000 		.4byte	.LFB68
 11586 0024 16000000 		.4byte	.LFE68
 11587 0028 00000000 		.4byte	.LFB69
 11588 002c 0E000000 		.4byte	.LFE69
 11589 0030 00000000 		.4byte	.LFB70
 11590 0034 0E000000 		.4byte	.LFE70
 11591 0038 00000000 		.4byte	.LFB71
 11592 003c 0E000000 		.4byte	.LFE71
 11593 0040 00000000 		.4byte	.LFB72
 11594 0044 2A000000 		.4byte	.LFE72
 11595 0048 00000000 		.4byte	.LFB73
 11596 004c 0A000000 		.4byte	.LFE73
 11597 0050 00000000 		.4byte	.LFB74
 11598 0054 0A000000 		.4byte	.LFE74
 11599 0058 00000000 		.4byte	.LFB75
 11600 005c 0E000000 		.4byte	.LFE75
 11601 0060 00000000 		.4byte	.LFB76
 11602 0064 3A000000 		.4byte	.LFE76
 11603 0068 00000000 		.4byte	.LFB77
 11604 006c 9C000000 		.4byte	.LFE77
 11605 0070 00000000 		.4byte	.LFB78
 11606 0074 74000000 		.4byte	.LFE78
 11607 0078 00000000 		.4byte	.LFB79
 11608 007c 3C000000 		.4byte	.LFE79
 11609 0080 00000000 		.4byte	.LFB80
ARM GAS  C:\Users\Administrator\AppData\Local\Temp\ccNQfmEa.s 			page 247


 11610 0084 16000000 		.4byte	.LFE80
 11611 0088 00000000 		.4byte	.LFB81
 11612 008c 14000000 		.4byte	.LFE81
 11613 0090 00000000 		.4byte	.LFB82
 11614 0094 1C000000 		.4byte	.LFE82
 11615 0098 00000000 		.4byte	.LFB83
 11616 009c 18000000 		.4byte	.LFE83
 11617 00a0 00000000 		.4byte	.LFB84
 11618 00a4 18000000 		.4byte	.LFE84
 11619 00a8 00000000 		.4byte	.LFB85
 11620 00ac 18000000 		.4byte	.LFE85
 11621 00b0 00000000 		.4byte	.LFB86
 11622 00b4 14000000 		.4byte	.LFE86
 11623 00b8 00000000 		.4byte	.LFB87
 11624 00bc 14000000 		.4byte	.LFE87
 11625 00c0 00000000 		.4byte	.LFB88
 11626 00c4 24000000 		.4byte	.LFE88
 11627 00c8 00000000 		.4byte	.LFB89
 11628 00cc 78000000 		.4byte	.LFE89
 11629 00d0 00000000 		.4byte	.LFB90
 11630 00d4 28000000 		.4byte	.LFE90
 11631 00d8 00000000 		.4byte	.LFB91
 11632 00dc 18030000 		.4byte	.LFE91
 11633 00e0 00000000 		.4byte	.LFB92
 11634 00e4 50010000 		.4byte	.LFE92
 11635 00e8 00000000 		.4byte	.LFB93
 11636 00ec C0000000 		.4byte	.LFE93
 11637 00f0 00000000 		.4byte	.LFB94
 11638 00f4 08010000 		.4byte	.LFE94
 11639 00f8 00000000 		.4byte	.LFB95
 11640 00fc 7C000000 		.4byte	.LFE95
 11641 0100 00000000 		.4byte	.LFB96
 11642 0104 40000000 		.4byte	.LFE96
 11643 0108 00000000 		.4byte	.LFB66
 11644 010c 40000000 		.4byte	.LFE66
 11645 0110 00000000 		.4byte	.LFB97
 11646 0114 58000000 		.4byte	.LFE97
 11647 0118 00000000 		.4byte	.LFB98
 11648 011c 48000000 		.4byte	.LFE98
 11649 0120 00000000 		.4byte	.LFB99
 11650 0124 10010000 		.4byte	.LFE99
 11651 0128 00000000 		.4byte	.LFB100
 11652 012c 78000000 		.4byte	.LFE100
 11653 0130 00000000 		.4byte	.LFB101
 11654 0134 B4000000 		.4byte	.LFE101
 11655 0138 00000000 		.4byte	.LFB102
 11656 013c 38010000 		.4byte	.LFE102
 11657 0140 00000000 		.4byte	0
 11658 0144 00000000 		.4byte	0
 11659              		.section	.debug_line,"",%progbits
 11660              	.Ldebug_line0:
 11661 0000 830A0000 		.section	.debug_str,"MS",%progbits,1
 11661      02000604 
 11661      00000201 
 11661      FB0E0D00 
 11661      01010101 
 11662              	.LASF611:
ARM GAS  C:\Users\Administrator\AppData\Local\Temp\ccNQfmEa.s 			page 248


 11663 0000 666C6167 		.ascii	"flag_reboot\000"
 11663      5F726562 
 11663      6F6F7400 
 11664              	.LASF543:
 11665 000c 6F70656E 		.ascii	"openInfo_FIRE\000"
 11665      496E666F 
 11665      5F464952 
 11665      4500
 11666              	.LASF466:
 11667 001a 4359424C 		.ascii	"CYBLE_EVT_UDSC_READ_CHAR_RESPONSE\000"
 11667      455F4556 
 11667      545F5544 
 11667      53435F52 
 11667      4541445F 
 11668              	.LASF395:
 11669 003c 4359424C 		.ascii	"CYBLE_EVT_HTSS_NOTIFICATION_DISABLED\000"
 11669      455F4556 
 11669      545F4854 
 11669      53535F4E 
 11669      4F544946 
 11670              	.LASF209:
 11671 0061 7363616E 		.ascii	"scanRspData\000"
 11671      52737044 
 11671      61746100 
 11672              	.LASF426:
 11673 006d 4359424C 		.ascii	"CYBLE_EVT_PASSC_NOTIFICATION\000"
 11673      455F4556 
 11673      545F5041 
 11673      5353435F 
 11673      4E4F5449 
 11674              	.LASF698:
 11675 008a 43795379 		.ascii	"CySysGetResetReason\000"
 11675      73476574 
 11675      52657365 
 11675      74526561 
 11675      736F6E00 
 11676              	.LASF237:
 11677 009e 4359424C 		.ascii	"CYBLE_DIS_CHAR_COUNT\000"
 11677      455F4449 
 11677      535F4348 
 11677      41525F43 
 11677      4F554E54 
 11678              	.LASF19:
 11679 00b3 73697A65 		.ascii	"sizetype\000"
 11679      74797065 
 11679      00
 11680              	.LASF646:
 11681 00bc 444F4F52 		.ascii	"DOOR_OPEN_Write\000"
 11681      5F4F5045 
 11681      4E5F5772 
 11681      69746500 
 11682              	.LASF283:
 11683 00cc 4359424C 		.ascii	"CYBLE_EVT_BCSC_READ_CHAR_RESPONSE\000"
 11683      455F4556 
 11683      545F4243 
 11683      53435F52 
 11683      4541445F 
ARM GAS  C:\Users\Administrator\AppData\Local\Temp\ccNQfmEa.s 			page 249


 11684              	.LASF291:
 11685 00ee 4359424C 		.ascii	"CYBLE_EVT_BLSC_INDICATION\000"
 11685      455F4556 
 11685      545F424C 
 11685      53435F49 
 11685      4E444943 
 11686              	.LASF306:
 11687 0108 4359424C 		.ascii	"CYBLE_EVT_CGMSC_INDICATION\000"
 11687      455F4556 
 11687      545F4347 
 11687      4D53435F 
 11687      494E4449 
 11688              	.LASF324:
 11689 0123 4359424C 		.ascii	"CYBLE_EVT_CPSC_READ_DESCR_RESPONSE\000"
 11689      455F4556 
 11689      545F4350 
 11689      53435F52 
 11689      4541445F 
 11690              	.LASF100:
 11691 0146 656B6579 		.ascii	"ekeySize\000"
 11691      53697A65 
 11691      00
 11692              	.LASF580:
 11693 014f 47505253 		.ascii	"GPRSCmdParseFlag1\000"
 11693      436D6450 
 11693      61727365 
 11693      466C6167 
 11693      3100
 11694              	.LASF443:
 11695 0161 4359424C 		.ascii	"CYBLE_EVT_RTUSS_WRITE_CHAR_CMD\000"
 11695      455F4556 
 11695      545F5254 
 11695      5553535F 
 11695      57524954 
 11696              	.LASF422:
 11697 0180 4359424C 		.ascii	"CYBLE_EVT_NDCSC_READ_CHAR_RESPONSE\000"
 11697      455F4556 
 11697      545F4E44 
 11697      4353435F 
 11697      52454144 
 11698              	.LASF477:
 11699 01a3 4359424C 		.ascii	"CYBLE_EVT_WPTSC_NOTIFICATION\000"
 11699      455F4556 
 11699      545F5750 
 11699      5453435F 
 11699      4E4F5449 
 11700              	.LASF695:
 11701 01c0 54696D65 		.ascii	"Timer_INT_ISR_StartEx\000"
 11701      725F494E 
 11701      545F4953 
 11701      525F5374 
 11701      61727445 
 11702              	.LASF483:
 11703 01d6 4359424C 		.ascii	"CYBLE_EVT_WSSS_INDICATION_ENABLED\000"
 11703      455F4556 
 11703      545F5753 
 11703      53535F49 
ARM GAS  C:\Users\Administrator\AppData\Local\Temp\ccNQfmEa.s 			page 250


 11703      4E444943 
 11704              	.LASF322:
 11705 01f8 4359424C 		.ascii	"CYBLE_EVT_CPSC_READ_CHAR_RESPONSE\000"
 11705      455F4556 
 11705      545F4350 
 11705      53435F52 
 11705      4541445F 
 11706              	.LASF586:
 11707 021a 426C6543 		.ascii	"BleCmdBuf\000"
 11707      6D644275 
 11707      6600
 11708              	.LASF288:
 11709 0224 4359424C 		.ascii	"CYBLE_EVT_BLSS_INDICATION_CONFIRMED\000"
 11709      455F4556 
 11709      545F424C 
 11709      53535F49 
 11709      4E444943 
 11710              	.LASF335:
 11711 0248 4359424C 		.ascii	"CYBLE_EVT_CSCSC_READ_CHAR_RESPONSE\000"
 11711      455F4556 
 11711      545F4353 
 11711      4353435F 
 11711      52454144 
 11712              	.LASF529:
 11713 026b 46697265 		.ascii	"FireCheck_Count\000"
 11713      43686563 
 11713      6B5F436F 
 11713      756E7400 
 11714              	.LASF670:
 11715 027b 73656E64 		.ascii	"send_heartbeat\000"
 11715      5F686561 
 11715      72746265 
 11715      617400
 11716              	.LASF311:
 11717 028a 4359424C 		.ascii	"CYBLE_EVT_CGMSC_WRITE_DESCR_RESPONSE\000"
 11717      455F4556 
 11717      545F4347 
 11717      4D53435F 
 11717      57524954 
 11718              	.LASF366:
 11719 02af 4359424C 		.ascii	"CYBLE_EVT_GLSS_NOTIFICATION_DISABLED\000"
 11719      455F4556 
 11719      545F474C 
 11719      53535F4E 
 11719      4F544946 
 11720              	.LASF492:
 11721 02d4 6576656E 		.ascii	"eventParam\000"
 11721      74506172 
 11721      616D00
 11722              	.LASF293:
 11723 02df 4359424C 		.ascii	"CYBLE_EVT_BLSC_READ_CHAR_RESPONSE\000"
 11723      455F4556 
 11723      545F424C 
 11723      53435F52 
 11723      4541445F 
 11724              	.LASF116:
 11725 0301 4359424C 		.ascii	"CYBLE_EVT_GAP_DEVICE_CONNECTED\000"
ARM GAS  C:\Users\Administrator\AppData\Local\Temp\ccNQfmEa.s 			page 251


 11725      455F4556 
 11725      545F4741 
 11725      505F4445 
 11725      56494345 
 11726              	.LASF659:
 11727 0320 4379536F 		.ascii	"CySoftwareReset\000"
 11727      66747761 
 11727      72655265 
 11727      73657400 
 11728              	.LASF123:
 11729 0330 4359424C 		.ascii	"CYBLE_EVT_GATT_CONNECT_IND\000"
 11729      455F4556 
 11729      545F4741 
 11729      54545F43 
 11729      4F4E4E45 
 11730              	.LASF371:
 11731 034b 4359424C 		.ascii	"CYBLE_EVT_GLSC_WRITE_CHAR_RESPONSE\000"
 11731      455F4556 
 11731      545F474C 
 11731      53435F57 
 11731      52495445 
 11732              	.LASF186:
 11733 036e 4359424C 		.ascii	"CYBLE_BLESS_STATE_ECO_ON\000"
 11733      455F424C 
 11733      4553535F 
 11733      53544154 
 11733      455F4543 
 11734              	.LASF13:
 11735 0387 75696E74 		.ascii	"uint32\000"
 11735      333200
 11736              	.LASF674:
 11737 038e 73656E64 		.ascii	"send_update_req\000"
 11737      5F757064 
 11737      6174655F 
 11737      72657100 
 11738              	.LASF671:
 11739 039e 47505253 		.ascii	"GPRS_CheckIfRecvClosed\000"
 11739      5F436865 
 11739      636B4966 
 11739      52656376 
 11739      436C6F73 
 11740              	.LASF189:
 11741 03b5 4359424C 		.ascii	"CYBLE_BLESS_STATE_HIBERNATE\000"
 11741      455F424C 
 11741      4553535F 
 11741      53544154 
 11741      455F4849 
 11742              	.LASF442:
 11743 03d1 4359424C 		.ascii	"CYBLE_EVT_RSCSC_WRITE_DESCR_RESPONSE\000"
 11743      455F4556 
 11743      545F5253 
 11743      4353435F 
 11743      57524954 
 11744              	.LASF195:
 11745 03f6 4359424C 		.ascii	"CYBLE_GAPP_CONNECTABLE_HIGH_DC_DIRECTED_ADV\000"
 11745      455F4741 
 11745      50505F43 
ARM GAS  C:\Users\Administrator\AppData\Local\Temp\ccNQfmEa.s 			page 252


 11745      4F4E4E45 
 11745      43544142 
 11746              	.LASF281:
 11747 0422 4359424C 		.ascii	"CYBLE_EVT_BCSS_INDICATION_CONFIRMED\000"
 11747      455F4556 
 11747      545F4243 
 11747      53535F49 
 11747      4E444943 
 11748              	.LASF282:
 11749 0446 4359424C 		.ascii	"CYBLE_EVT_BCSC_INDICATION\000"
 11749      455F4556 
 11749      545F4243 
 11749      53435F49 
 11749      4E444943 
 11750              	.LASF225:
 11751 0460 626C6550 		.ascii	"blePwrLevelInDbm\000"
 11751      77724C65 
 11751      76656C49 
 11751      6E44626D 
 11751      00
 11752              	.LASF411:
 11753 0471 4359424C 		.ascii	"CYBLE_EVT_LNSS_INDICATION_DISABLED\000"
 11753      455F4556 
 11753      545F4C4E 
 11753      53535F49 
 11753      4E444943 
 11754              	.LASF343:
 11755 0494 4359424C 		.ascii	"CYBLE_EVT_CTSC_READ_CHAR_RESPONSE\000"
 11755      455F4556 
 11755      545F4354 
 11755      53435F52 
 11755      4541445F 
 11756              	.LASF252:
 11757 04b6 4359424C 		.ascii	"CYBLE_EVT_GATTC_SRVC_DISCOVERY_COMPLETE\000"
 11757      455F4556 
 11757      545F4741 
 11757      5454435F 
 11757      53525643 
 11758              	.LASF248:
 11759 04de 4359424C 		.ascii	"CYBLE_EVT_GATTC_DESCR_DISCOVERY_FAILED\000"
 11759      455F4556 
 11759      545F4741 
 11759      5454435F 
 11759      44455343 
 11760              	.LASF436:
 11761 0505 4359424C 		.ascii	"CYBLE_EVT_RSCSS_CHAR_WRITE\000"
 11761      455F4556 
 11761      545F5253 
 11761      4353535F 
 11761      43484152 
 11762              	.LASF552:
 11763 0520 6D61635F 		.ascii	"mac_conver_name\000"
 11763      636F6E76 
 11763      65725F6E 
 11763      616D6500 
 11764              	.LASF658:
 11765 0530 47505253 		.ascii	"GPRS_RESET_Write\000"
ARM GAS  C:\Users\Administrator\AppData\Local\Temp\ccNQfmEa.s 			page 253


 11765      5F524553 
 11765      45545F57 
 11765      72697465 
 11765      00
 11766              	.LASF469:
 11767 0541 4359424C 		.ascii	"CYBLE_EVT_UDSC_WRITE_DESCR_RESPONSE\000"
 11767      455F4556 
 11767      545F5544 
 11767      53435F57 
 11767      52495445 
 11768              	.LASF385:
 11769 0565 4359424C 		.ascii	"CYBLE_EVT_HIDSC_WRITE_DESCR_RESPONSE\000"
 11769      455F4556 
 11769      545F4849 
 11769      4453435F 
 11769      57524954 
 11770              	.LASF451:
 11771 058a 4359424C 		.ascii	"CYBLE_EVT_TPSS_NOTIFICATION_ENABLED\000"
 11771      455F4556 
 11771      545F5450 
 11771      53535F4E 
 11771      4F544946 
 11772              	.LASF66:
 11773 05ae 4359424C 		.ascii	"CYBLE_ERROR_GATT_DB_UUID_FRMT_UNSUPPORTED\000"
 11773      455F4552 
 11773      524F525F 
 11773      47415454 
 11773      5F44425F 
 11774              	.LASF279:
 11775 05d8 4359424C 		.ascii	"CYBLE_EVT_BCSS_INDICATION_ENABLED\000"
 11775      455F4556 
 11775      545F4243 
 11775      53535F49 
 11775      4E444943 
 11776              	.LASF46:
 11777 05fa 4359424C 		.ascii	"CYBLE_ERROR_L2CAP_CONNECTION_ENTITY_NOT_FOUND\000"
 11777      455F4552 
 11777      524F525F 
 11777      4C324341 
 11777      505F434F 
 11778              	.LASF593:
 11779 0628 6E657874 		.ascii	"next_allupload_time\000"
 11779      5F616C6C 
 11779      75706C6F 
 11779      61645F74 
 11779      696D6500 
 11780              	.LASF556:
 11781 063c 7365746E 		.ascii	"setname\000"
 11781      616D6500 
 11782              	.LASF71:
 11783 0644 4359424C 		.ascii	"CYBLE_ERROR_MIC_AUTH_FAILED\000"
 11783      455F4552 
 11783      524F525F 
 11783      4D49435F 
 11783      41555448 
 11784              	.LASF247:
 11785 0660 4359424C 		.ascii	"CYBLE_EVT_GATTC_CHAR_DISCOVERY_FAILED\000"
ARM GAS  C:\Users\Administrator\AppData\Local\Temp\ccNQfmEa.s 			page 254


 11785      455F4556 
 11785      545F4741 
 11785      5454435F 
 11785      43484152 
 11786              	.LASF594:
 11787 0686 6E657874 		.ascii	"next_keyopen_time\000"
 11787      5F6B6579 
 11787      6F70656E 
 11787      5F74696D 
 11787      6500
 11788              	.LASF495:
 11789 0698 61757468 		.ascii	"authInfo\000"
 11789      496E666F 
 11789      00
 11790              	.LASF16:
 11791 06a1 63686172 		.ascii	"char8\000"
 11791      3800
 11792              	.LASF700:
 11793 06a7 5254435F 		.ascii	"RTC_Start\000"
 11793      53746172 
 11793      7400
 11794              	.LASF154:
 11795 06b1 4359424C 		.ascii	"CYBLE_EVT_L2CAP_CBFC_RX_CREDIT_IND\000"
 11795      455F4556 
 11795      545F4C32 
 11795      4341505F 
 11795      43424643 
 11796              	.LASF29:
 11797 06d4 4359424C 		.ascii	"CYBLE_GATT_VALUE_T\000"
 11797      455F4741 
 11797      54545F56 
 11797      414C5545 
 11797      5F5400
 11798              	.LASF592:
 11799 06e7 6E657874 		.ascii	"next_gprs_upload_time\000"
 11799      5F677072 
 11799      735F7570 
 11799      6C6F6164 
 11799      5F74696D 
 11800              	.LASF329:
 11801 06fd 4359424C 		.ascii	"CYBLE_EVT_CSCSS_INDICATION_ENABLED\000"
 11801      455F4556 
 11801      545F4353 
 11801      4353535F 
 11801      494E4449 
 11802              	.LASF416:
 11803 0720 4359424C 		.ascii	"CYBLE_EVT_LNSC_INDICATION\000"
 11803      455F4556 
 11803      545F4C4E 
 11803      53435F49 
 11803      4E444943 
 11804              	.LASF82:
 11805 073a 74797065 		.ascii	"type\000"
 11805      00
 11806              	.LASF427:
 11807 073f 4359424C 		.ascii	"CYBLE_EVT_PASSC_READ_CHAR_RESPONSE\000"
 11807      455F4556 
ARM GAS  C:\Users\Administrator\AppData\Local\Temp\ccNQfmEa.s 			page 255


 11807      545F5041 
 11807      5353435F 
 11807      52454144 
 11808              	.LASF95:
 11809 0762 4359424C 		.ascii	"CYBLE_GAP_AUTH_ERROR_AUTHENTICATION_TIMEOUT\000"
 11809      455F4741 
 11809      505F4155 
 11809      54485F45 
 11809      52524F52 
 11810              	.LASF286:
 11811 078e 4359424C 		.ascii	"CYBLE_EVT_BLSS_INDICATION_ENABLED\000"
 11811      455F4556 
 11811      545F424C 
 11811      53535F49 
 11811      4E444943 
 11812              	.LASF92:
 11813 07b0 4359424C 		.ascii	"CYBLE_GAP_AUTH_ERROR_UNSPECIFIED_REASON\000"
 11813      455F4741 
 11813      505F4155 
 11813      54485F45 
 11813      52524F52 
 11814              	.LASF292:
 11815 07d8 4359424C 		.ascii	"CYBLE_EVT_BLSC_NOTIFICATION\000"
 11815      455F4556 
 11815      545F424C 
 11815      53435F4E 
 11815      4F544946 
 11816              	.LASF704:
 11817 07f4 47505253 		.ascii	"GPRS_TestAndWaitCommonOK\000"
 11817      5F546573 
 11817      74416E64 
 11817      57616974 
 11817      436F6D6D 
 11818              	.LASF334:
 11819 080d 4359424C 		.ascii	"CYBLE_EVT_CSCSC_INDICATION\000"
 11819      455F4556 
 11819      545F4353 
 11819      4353435F 
 11819      494E4449 
 11820              	.LASF232:
 11821 0828 4359424C 		.ascii	"CYBLE_DIS_FIRMWARE_REV\000"
 11821      455F4449 
 11821      535F4649 
 11821      524D5741 
 11821      52455F52 
 11822              	.LASF558:
 11823 083f 73797374 		.ascii	"system_version\000"
 11823      656D5F76 
 11823      65727369 
 11823      6F6E00
 11824              	.LASF502:
 11825 084e 424C455F 		.ascii	"BLE_Tick\000"
 11825      5469636B 
 11825      00
 11826              	.LASF140:
 11827 0857 4359424C 		.ascii	"CYBLE_EVT_GATTC_HANDLE_VALUE_NTF\000"
 11827      455F4556 
ARM GAS  C:\Users\Administrator\AppData\Local\Temp\ccNQfmEa.s 			page 256


 11827      545F4741 
 11827      5454435F 
 11827      48414E44 
 11828              	.LASF110:
 11829 0878 4359424C 		.ascii	"CYBLE_EVT_GAP_AUTH_REQ\000"
 11829      455F4556 
 11829      545F4741 
 11829      505F4155 
 11829      54485F52 
 11830              	.LASF254:
 11831 088f 4359424C 		.ascii	"CYBLE_EVT_GATTC_CHAR_DISCOVERY_COMPLETE\000"
 11831      455F4556 
 11831      545F4741 
 11831      5454435F 
 11831      43484152 
 11832              	.LASF168:
 11833 08b7 4359424C 		.ascii	"CYBLE_CONN_HANDLE_T\000"
 11833      455F434F 
 11833      4E4E5F48 
 11833      414E444C 
 11833      455F5400 
 11834              	.LASF321:
 11835 08cb 4359424C 		.ascii	"CYBLE_EVT_CPSC_INDICATION\000"
 11835      455F4556 
 11835      545F4350 
 11835      53435F49 
 11835      4E444943 
 11836              	.LASF41:
 11837 08e5 4359424C 		.ascii	"CYBLE_ERROR_BT_ON_NOT_COMPLETED\000"
 11837      455F4552 
 11837      524F525F 
 11837      42545F4F 
 11837      4E5F4E4F 
 11838              	.LASF333:
 11839 0905 4359424C 		.ascii	"CYBLE_EVT_CSCSC_NOTIFICATION\000"
 11839      455F4556 
 11839      545F4353 
 11839      4353435F 
 11839      4E4F5449 
 11840              	.LASF464:
 11841 0922 4359424C 		.ascii	"CYBLE_EVT_UDSC_INDICATION\000"
 11841      455F4556 
 11841      545F5544 
 11841      53435F49 
 11841      4E444943 
 11842              	.LASF297:
 11843 093c 4359424C 		.ascii	"CYBLE_EVT_BMSC_READ_CHAR_RESPONSE\000"
 11843      455F4556 
 11843      545F424D 
 11843      53435F52 
 11843      4541445F 
 11844              	.LASF215:
 11845 095e 4359424C 		.ascii	"CYBLE_LL_PWR_LVL_NEG_3_DBM\000"
 11845      455F4C4C 
 11845      5F505752 
 11845      5F4C564C 
 11845      5F4E4547 
ARM GAS  C:\Users\Administrator\AppData\Local\Temp\ccNQfmEa.s 			page 257


 11846              	.LASF64:
 11847 0979 4359424C 		.ascii	"CYBLE_ERROR_GATT_DB_INVALID_INSTANCE\000"
 11847      455F4552 
 11847      524F525F 
 11847      47415454 
 11847      5F44425F 
 11848              	.LASF163:
 11849 099e 4359424C 		.ascii	"CYBLE_STATE_ADVERTISING\000"
 11849      455F5354 
 11849      4154455F 
 11849      41445645 
 11849      52544953 
 11850              	.LASF632:
 11851 09b6 4379426C 		.ascii	"CyBle_GattsWriteRsp\000"
 11851      655F4761 
 11851      74747357 
 11851      72697465 
 11851      52737000 
 11852              	.LASF166:
 11853 09ca 62644861 		.ascii	"bdHandle\000"
 11853      6E646C65 
 11853      00
 11854              	.LASF302:
 11855 09d3 4359424C 		.ascii	"CYBLE_EVT_CGMSS_INDICATION_CONFIRMED\000"
 11855      455F4556 
 11855      545F4347 
 11855      4D53535F 
 11855      494E4449 
 11856              	.LASF9:
 11857 09f8 5F5F7569 		.ascii	"__uint8_t\000"
 11857      6E74385F 
 11857      7400
 11858              	.LASF567:
 11859 0a02 75706461 		.ascii	"update_port\000"
 11859      74655F70 
 11859      6F727400 
 11860              	.LASF263:
 11861 0a0e 4359424C 		.ascii	"CYBLE_EVT_ANCSC_WRITE_DESCR_RESPONSE\000"
 11861      455F4556 
 11861      545F414E 
 11861      4353435F 
 11861      57524954 
 11862              	.LASF85:
 11863 0a33 4359424C 		.ascii	"CYBLE_GAP_AUTH_ERROR_PASSKEY_ENTRY_FAILED\000"
 11863      455F4741 
 11863      505F4155 
 11863      54485F45 
 11863      52524F52 
 11864              	.LASF629:
 11865 0a5d 4379426C 		.ascii	"CyBle_GetDeviceAddress\000"
 11865      655F4765 
 11865      74446576 
 11865      69636541 
 11865      64647265 
 11866              	.LASF628:
 11867 0a74 4379426C 		.ascii	"CyBle_SetTxPowerLevel\000"
 11867      655F5365 
ARM GAS  C:\Users\Administrator\AppData\Local\Temp\ccNQfmEa.s 			page 258


 11867      74547850 
 11867      6F776572 
 11867      4C657665 
 11868              	.LASF294:
 11869 0a8a 4359424C 		.ascii	"CYBLE_EVT_BLSC_READ_DESCR_RESPONSE\000"
 11869      455F4556 
 11869      545F424C 
 11869      53435F52 
 11869      4541445F 
 11870              	.LASF213:
 11871 0aad 4359424C 		.ascii	"CYBLE_LL_PWR_LVL_NEG_12_DBM\000"
 11871      455F4C4C 
 11871      5F505752 
 11871      5F4C564C 
 11871      5F4E4547 
 11872              	.LASF518:
 11873 0ac9 4C65645F 		.ascii	"Led_SetState\000"
 11873      53657453 
 11873      74617465 
 11873      00
 11874              	.LASF315:
 11875 0ad6 4359424C 		.ascii	"CYBLE_EVT_CPSS_INDICATION_DISABLED\000"
 11875      455F4556 
 11875      545F4350 
 11875      53535F49 
 11875      4E444943 
 11876              	.LASF314:
 11877 0af9 4359424C 		.ascii	"CYBLE_EVT_CPSS_INDICATION_ENABLED\000"
 11877      455F4556 
 11877      545F4350 
 11877      53535F49 
 11877      4E444943 
 11878              	.LASF530:
 11879 0b1b 52656376 		.ascii	"RecvTimeOut\000"
 11879      54696D65 
 11879      4F757400 
 11880              	.LASF413:
 11881 0b27 4359424C 		.ascii	"CYBLE_EVT_LNSS_NOTIFICATION_ENABLED\000"
 11881      455F4556 
 11881      545F4C4E 
 11881      53535F4E 
 11881      4F544946 
 11882              	.LASF136:
 11883 0b4b 4359424C 		.ascii	"CYBLE_EVT_GATTS_WRITE_CMD_REQ\000"
 11883      455F4556 
 11883      545F4741 
 11883      5454535F 
 11883      57524954 
 11884              	.LASF325:
 11885 0b69 4359424C 		.ascii	"CYBLE_EVT_CPSC_WRITE_DESCR_RESPONSE\000"
 11885      455F4556 
 11885      545F4350 
 11885      53435F57 
 11885      52495445 
 11886              	.LASF535:
 11887 0b8d 47505253 		.ascii	"GPRS_Tick\000"
 11887      5F546963 
ARM GAS  C:\Users\Administrator\AppData\Local\Temp\ccNQfmEa.s 			page 259


 11887      6B00
 11888              	.LASF705:
 11889 0b97 47505253 		.ascii	"GPRS_OpenNetworkLED\000"
 11889      5F4F7065 
 11889      6E4E6574 
 11889      776F726B 
 11889      4C454400 
 11890              	.LASF4:
 11891 0bab 6C6F6E67 		.ascii	"long int\000"
 11891      20696E74 
 11891      00
 11892              	.LASF260:
 11893 0bb4 4359424C 		.ascii	"CYBLE_EVT_ANCSC_READ_CHAR_RESPONSE\000"
 11893      455F4556 
 11893      545F414E 
 11893      4353435F 
 11893      52454144 
 11894              	.LASF697:
 11895 0bd7 57323551 		.ascii	"W25QXX_Init\000"
 11895      58585F49 
 11895      6E697400 
 11896              	.LASF428:
 11897 0be3 4359424C 		.ascii	"CYBLE_EVT_PASSC_WRITE_CHAR_RESPONSE\000"
 11897      455F4556 
 11897      545F5041 
 11897      5353435F 
 11897      57524954 
 11898              	.LASF459:
 11899 0c07 4359424C 		.ascii	"CYBLE_EVT_UDSS_INDICATION_CONFIRMED\000"
 11899      455F4556 
 11899      545F5544 
 11899      53535F49 
 11899      4E444943 
 11900              	.LASF688:
 11901 0c2b 57726974 		.ascii	"Write_Open_UploadFlag\000"
 11901      655F4F70 
 11901      656E5F55 
 11901      706C6F61 
 11901      64466C61 
 11902              	.LASF240:
 11903 0c41 4359424C 		.ascii	"CYBLE_LONG_TERM_KEY_REQUEST_REPLY\000"
 11903      455F4C4F 
 11903      4E475F54 
 11903      45524D5F 
 11903      4B45595F 
 11904              	.LASF597:
 11905 0c63 6E657874 		.ascii	"next_firealarm_time\000"
 11905      5F666972 
 11905      65616C61 
 11905      726D5F74 
 11905      696D6500 
 11906              	.LASF104:
 11907 0c77 4359424C 		.ascii	"CYBLE_EVT_STACK_ON\000"
 11907      455F4556 
 11907      545F5354 
 11907      41434B5F 
 11907      4F4E00
ARM GAS  C:\Users\Administrator\AppData\Local\Temp\ccNQfmEa.s 			page 260


 11908              	.LASF49:
 11909 0c8a 4359424C 		.ascii	"CYBLE_ERROR_L2CAP_PSM_NOT_IN_RANGE\000"
 11909      455F4552 
 11909      524F525F 
 11909      4C324341 
 11909      505F5053 
 11910              	.LASF231:
 11911 0cad 4359424C 		.ascii	"CYBLE_DIS_HARDWARE_REV\000"
 11911      455F4449 
 11911      535F4841 
 11911      52445741 
 11911      52455F52 
 11912              	.LASF621:
 11913 0cc4 6379426C 		.ascii	"cyBle_deviceAddress\000"
 11913      655F6465 
 11913      76696365 
 11913      41646472 
 11913      65737300 
 11914              	.LASF713:
 11915 0cd8 6D61696E 		.ascii	"main\000"
 11915      00
 11916              	.LASF185:
 11917 0cdd 4359424C 		.ascii	"CYBLE_BLESS_STATE_SLEEP\000"
 11917      455F424C 
 11917      4553535F 
 11917      53544154 
 11917      455F534C 
 11918              	.LASF497:
 11919 0cf5 6C6F6361 		.ascii	"locationWCRP\000"
 11919      74696F6E 
 11919      57435250 
 11919      00
 11920              	.LASF540:
 11921 0d02 4B65794F 		.ascii	"KeyOpen_Tick\000"
 11921      70656E5F 
 11921      5469636B 
 11921      00
 11922              	.LASF361:
 11923 0d0f 4359424C 		.ascii	"CYBLE_EVT_ESSC_WRITE_DESCR_RESPONSE\000"
 11923      455F4556 
 11923      545F4553 
 11923      53435F57 
 11923      52495445 
 11924              	.LASF549:
 11925 0d33 5365745F 		.ascii	"Set_DeviceMacAndName\000"
 11925      44657669 
 11925      63654D61 
 11925      63416E64 
 11925      4E616D65 
 11926              	.LASF637:
 11927 0d48 43795379 		.ascii	"CySysPmSleep\000"
 11927      73506D53 
 11927      6C656570 
 11927      00
 11928              	.LASF711:
 11929 0d55 47657444 		.ascii	"GetDoorState\000"
 11929      6F6F7253 
ARM GAS  C:\Users\Administrator\AppData\Local\Temp\ccNQfmEa.s 			page 261


 11929      74617465 
 11929      00
 11930              	.LASF394:
 11931 0d62 4359424C 		.ascii	"CYBLE_EVT_HTSS_NOTIFICATION_ENABLED\000"
 11931      455F4556 
 11931      545F4854 
 11931      53535F4E 
 11931      4F544946 
 11932              	.LASF88:
 11933 0d86 4359424C 		.ascii	"CYBLE_GAP_AUTH_ERROR_CONFIRM_VALUE_NOT_MATCH\000"
 11933      455F4741 
 11933      505F4155 
 11933      54485F45 
 11933      52524F52 
 11934              	.LASF563:
 11935 0db3 646F6D61 		.ascii	"domain\000"
 11935      696E00
 11936              	.LASF78:
 11937 0dba 4359424C 		.ascii	"CYBLE_ERROR_CHAR_IS_NOT_DISCOVERED\000"
 11937      455F4552 
 11937      524F525F 
 11937      43484152 
 11937      5F49535F 
 11938              	.LASF462:
 11939 0ddd 4359424C 		.ascii	"CYBLE_EVT_UDSS_READ_CHAR\000"
 11939      455F4556 
 11939      545F5544 
 11939      53535F52 
 11939      4541445F 
 11940              	.LASF184:
 11941 0df6 4359424C 		.ascii	"CYBLE_BLESS_STATE_EVENT_CLOSE\000"
 11941      455F424C 
 11941      4553535F 
 11941      53544154 
 11941      455F4556 
 11942              	.LASF639:
 11943 0e14 5744545F 		.ascii	"WDT_FeedDog\000"
 11943      46656564 
 11943      446F6700 
 11944              	.LASF172:
 11945 0e20 4359424C 		.ascii	"CYBLE_GATT_HANDLE_VALUE_PAIR_T\000"
 11945      455F4741 
 11945      54545F48 
 11945      414E444C 
 11945      455F5641 
 11946              	.LASF226:
 11947 0e3f 626C6553 		.ascii	"bleSsChId\000"
 11947      73436849 
 11947      6400
 11948              	.LASF527:
 11949 0e49 44656665 		.ascii	"Defendalarm_TimeOut\000"
 11949      6E64616C 
 11949      61726D5F 
 11949      54696D65 
 11949      4F757400 
 11950              	.LASF358:
 11951 0e5d 4359424C 		.ascii	"CYBLE_EVT_ESSC_READ_CHAR_RESPONSE\000"
ARM GAS  C:\Users\Administrator\AppData\Local\Temp\ccNQfmEa.s 			page 262


 11951      455F4556 
 11951      545F4553 
 11951      53435F52 
 11951      4541445F 
 11952              	.LASF696:
 11953 0e7f 54696D65 		.ascii	"Timer_100ms_Start\000"
 11953      725F3130 
 11953      306D735F 
 11953      53746172 
 11953      7400
 11954              	.LASF381:
 11955 0e91 4359424C 		.ascii	"CYBLE_EVT_HIDSC_NOTIFICATION\000"
 11955      455F4556 
 11955      545F4849 
 11955      4453435F 
 11955      4E4F5449 
 11956              	.LASF197:
 11957 0eae 4359424C 		.ascii	"CYBLE_GAPP_NON_CONNECTABLE_UNDIRECTED_ADV\000"
 11957      455F4741 
 11957      50505F4E 
 11957      4F4E5F43 
 11957      4F4E4E45 
 11958              	.LASF452:
 11959 0ed8 4359424C 		.ascii	"CYBLE_EVT_TPSS_NOTIFICATION_DISABLED\000"
 11959      455F4556 
 11959      545F5450 
 11959      53535F4E 
 11959      4F544946 
 11960              	.LASF148:
 11961 0efd 4359424C 		.ascii	"CYBLE_EVT_L2CAP_COMMAND_REJ\000"
 11961      455F4556 
 11961      545F4C32 
 11961      4341505F 
 11961      434F4D4D 
 11962              	.LASF245:
 11963 0f19 4359424C 		.ascii	"CYBLE_EVT_GATTC_SRVC_DISCOVERY_FAILED\000"
 11963      455F4556 
 11963      545F4741 
 11963      5454435F 
 11963      53525643 
 11964              	.LASF378:
 11965 0f3f 4359424C 		.ascii	"CYBLE_EVT_HIDSS_SUSPEND\000"
 11965      455F4556 
 11965      545F4849 
 11965      4453535F 
 11965      53555350 
 11966              	.LASF503:
 11967 0f57 44656665 		.ascii	"DefendAlarm_Tick\000"
 11967      6E64416C 
 11967      61726D5F 
 11967      5469636B 
 11967      00
 11968              	.LASF61:
 11969 0f68 4359424C 		.ascii	"CYBLE_ERROR_GATT_DB_INVALID_ATTR_HANDLE\000"
 11969      455F4552 
 11969      524F525F 
 11969      47415454 
ARM GAS  C:\Users\Administrator\AppData\Local\Temp\ccNQfmEa.s 			page 263


 11969      5F44425F 
 11970              	.LASF0:
 11971 0f90 7369676E 		.ascii	"signed char\000"
 11971      65642063 
 11971      68617200 
 11972              	.LASF212:
 11973 0f9c 4359424C 		.ascii	"CYBLE_LL_PWR_LVL_NEG_18_DBM\000"
 11973      455F4C4C 
 11973      5F505752 
 11973      5F4C564C 
 11973      5F4E4547 
 11974              	.LASF10:
 11975 0fb8 75696E74 		.ascii	"uint8_t\000"
 11975      385F7400 
 11976              	.LASF657:
 11977 0fc0 55415254 		.ascii	"UART_433_Start\000"
 11977      5F343333 
 11977      5F537461 
 11977      727400
 11978              	.LASF494:
 11979 0fcf 6C6F6361 		.ascii	"localAddr\000"
 11979      6C416464 
 11979      7200
 11980              	.LASF489:
 11981 0fd9 4359424C 		.ascii	"CYBLE_EVT_WSSC_WRITE_DESCR_RESPONSE\000"
 11981      455F4556 
 11981      545F5753 
 11981      53435F57 
 11981      52495445 
 11982              	.LASF277:
 11983 0ffd 4359424C 		.ascii	"CYBLE_EVT_BASC_READ_DESCR_RESPONSE\000"
 11983      455F4556 
 11983      545F4241 
 11983      53435F52 
 11983      4541445F 
 11984              	.LASF359:
 11985 1020 4359424C 		.ascii	"CYBLE_EVT_ESSC_WRITE_CHAR_RESPONSE\000"
 11985      455F4556 
 11985      545F4553 
 11985      53435F57 
 11985      52495445 
 11986              	.LASF106:
 11987 1043 4359424C 		.ascii	"CYBLE_EVT_HARDWARE_ERROR\000"
 11987      455F4556 
 11987      545F4841 
 11987      52445741 
 11987      52455F45 
 11988              	.LASF30:
 11989 105c 4359424C 		.ascii	"CYBLE_ERROR_OK\000"
 11989      455F4552 
 11989      524F525F 
 11989      4F4B00
 11990              	.LASF224:
 11991 106b 4359424C 		.ascii	"CYBLE_BLESS_PHY_CH_GRP_ID_T\000"
 11991      455F424C 
 11991      4553535F 
 11991      5048595F 
ARM GAS  C:\Users\Administrator\AppData\Local\Temp\ccNQfmEa.s 			page 264


 11991      43485F47 
 11992              	.LASF609:
 11993 1087 43617264 		.ascii	"CardCheck_CountTime\000"
 11993      43686563 
 11993      6B5F436F 
 11993      756E7454 
 11993      696D6500 
 11994              	.LASF127:
 11995 109b 4359424C 		.ascii	"CYBLE_EVT_GATTC_READ_BY_GROUP_TYPE_RSP\000"
 11995      455F4556 
 11995      545F4741 
 11995      5454435F 
 11995      52454144 
 11996              	.LASF160:
 11997 10c2 4359424C 		.ascii	"CYBLE_STATE_STOPPED\000"
 11997      455F5354 
 11997      4154455F 
 11997      53544F50 
 11997      50454400 
 11998              	.LASF455:
 11999 10d6 4359424C 		.ascii	"CYBLE_EVT_TPSC_READ_DESCR_RESPONSE\000"
 11999      455F4556 
 11999      545F5450 
 11999      53435F52 
 11999      4541445F 
 12000              	.LASF433:
 12001 10f9 4359424C 		.ascii	"CYBLE_EVT_RSCSS_INDICATION_ENABLED\000"
 12001      455F4556 
 12001      545F5253 
 12001      4353535F 
 12001      494E4449 
 12002              	.LASF526:
 12003 111c 43617264 		.ascii	"CardCheckTimeOut\000"
 12003      43686563 
 12003      6B54696D 
 12003      654F7574 
 12003      00
 12004              	.LASF1:
 12005 112d 756E7369 		.ascii	"unsigned char\000"
 12005      676E6564 
 12005      20636861 
 12005      7200
 12006              	.LASF126:
 12007 113b 4359424C 		.ascii	"CYBLE_EVT_GATTC_XCHNG_MTU_RSP\000"
 12007      455F4556 
 12007      545F4741 
 12007      5454435F 
 12007      5843484E 
 12008              	.LASF316:
 12009 1159 4359424C 		.ascii	"CYBLE_EVT_CPSS_INDICATION_CONFIRMED\000"
 12009      455F4556 
 12009      545F4350 
 12009      53535F49 
 12009      4E444943 
 12010              	.LASF520:
 12011 117d 446F6F72 		.ascii	"DoorClose\000"
 12011      436C6F73 
ARM GAS  C:\Users\Administrator\AppData\Local\Temp\ccNQfmEa.s 			page 265


 12011      6500
 12012              	.LASF656:
 12013 1187 636D6434 		.ascii	"cmd433_INT_ISR_StartEx\000"
 12013      33335F49 
 12013      4E545F49 
 12013      53525F53 
 12013      74617274 
 12014              	.LASF313:
 12015 119e 4359424C 		.ascii	"CYBLE_EVT_CPSS_NOTIFICATION_DISABLED\000"
 12015      455F4556 
 12015      545F4350 
 12015      53535F4E 
 12015      4F544946 
 12016              	.LASF438:
 12017 11c3 4359424C 		.ascii	"CYBLE_EVT_RSCSC_INDICATION\000"
 12017      455F4556 
 12017      545F5253 
 12017      4353435F 
 12017      494E4449 
 12018              	.LASF488:
 12019 11de 4359424C 		.ascii	"CYBLE_EVT_WSSC_READ_DESCR_RESPONSE\000"
 12019      455F4556 
 12019      545F5753 
 12019      53435F52 
 12019      4541445F 
 12020              	.LASF548:
 12021 1201 72657065 		.ascii	"repet_info\000"
 12021      745F696E 
 12021      666F00
 12022              	.LASF708:
 12023 120c 474E5520 		.ascii	"GNU C11 5.4.1 20160609 (release) [ARM/embedded-5-br"
 12023      43313120 
 12023      352E342E 
 12023      31203230 
 12023      31363036 
 12024 123f 616E6368 		.ascii	"anch revision 237715] -mcpu=cortex-m0 -mthumb -g -O"
 12024      20726576 
 12024      6973696F 
 12024      6E203233 
 12024      37373135 
 12025 1272 73202D66 		.ascii	"s -ffunction-sections -ffat-lto-objects\000"
 12025      66756E63 
 12025      74696F6E 
 12025      2D736563 
 12025      74696F6E 
 12026              	.LASF516:
 12027 129a 4C65645F 		.ascii	"Led_GreenON\000"
 12027      47726565 
 12027      6E4F4E00 
 12028              	.LASF155:
 12029 12a6 4359424C 		.ascii	"CYBLE_EVT_L2CAP_CBFC_TX_CREDIT_IND\000"
 12029      455F4556 
 12029      545F4C32 
 12029      4341505F 
 12029      43424643 
 12030              	.LASF48:
 12031 12c9 4359424C 		.ascii	"CYBLE_ERROR_L2CAP_NOT_ENOUGH_CREDITS\000"
ARM GAS  C:\Users\Administrator\AppData\Local\Temp\ccNQfmEa.s 			page 266


 12031      455F4552 
 12031      524F525F 
 12031      4C324341 
 12031      505F4E4F 
 12032              	.LASF509:
 12033 12ee 696E7465 		.ascii	"interruptStatus\000"
 12033      72727570 
 12033      74537461 
 12033      74757300 
 12034              	.LASF631:
 12035 12fe 4379426C 		.ascii	"CyBle_GappStartAdvertisement\000"
 12035      655F4761 
 12035      70705374 
 12035      61727441 
 12035      64766572 
 12036              	.LASF244:
 12037 131b 4359424C 		.ascii	"CYBLE_EVT_GATTC_INDICATION\000"
 12037      455F4556 
 12037      545F4741 
 12037      5454435F 
 12037      494E4449 
 12038              	.LASF94:
 12039 1336 4359424C 		.ascii	"CYBLE_GAP_AUTH_ERROR_INVALID_PARAMETERS\000"
 12039      455F4741 
 12039      505F4155 
 12039      54485F45 
 12039      52524F52 
 12040              	.LASF183:
 12041 135e 4359424C 		.ascii	"CYBLE_BLESS_STATE_ACTIVE\000"
 12041      455F424C 
 12041      4553535F 
 12041      53544154 
 12041      455F4143 
 12042              	.LASF193:
 12043 1377 4359424C 		.ascii	"CYBLE_GAPP_DISC_DATA_T\000"
 12043      455F4741 
 12043      50505F44 
 12043      4953435F 
 12043      44415441 
 12044              	.LASF445:
 12045 138e 4359424C 		.ascii	"CYBLE_EVT_SCPSS_NOTIFICATION_ENABLED\000"
 12045      455F4556 
 12045      545F5343 
 12045      5053535F 
 12045      4E4F5449 
 12046              	.LASF152:
 12047 13b3 4359424C 		.ascii	"CYBLE_EVT_L2CAP_CBFC_DISCONN_CNF\000"
 12047      455F4556 
 12047      545F4C32 
 12047      4341505F 
 12047      43424643 
 12048              	.LASF130:
 12049 13d4 4359424C 		.ascii	"CYBLE_EVT_GATTC_FIND_BY_TYPE_VALUE_RSP\000"
 12049      455F4556 
 12049      545F4741 
 12049      5454435F 
 12049      46494E44 
ARM GAS  C:\Users\Administrator\AppData\Local\Temp\ccNQfmEa.s 			page 267


 12050              	.LASF256:
 12051 13fb 4359424C 		.ascii	"CYBLE_EVT_ANCSS_NOTIFICATION_ENABLED\000"
 12051      455F4556 
 12051      545F414E 
 12051      4353535F 
 12051      4E4F5449 
 12052              	.LASF182:
 12053 1420 4359424C 		.ascii	"CYBLE_LP_MODE_T\000"
 12053      455F4C50 
 12053      5F4D4F44 
 12053      455F5400 
 12054              	.LASF669:
 12055 1430 73656E64 		.ascii	"send_send_mac_and_get_blekey\000"
 12055      5F73656E 
 12055      645F6D61 
 12055      635F616E 
 12055      645F6765 
 12056              	.LASF641:
 12057 144d 50726F74 		.ascii	"Protocol_CmdParse_BLE\000"
 12057      6F636F6C 
 12057      5F436D64 
 12057      50617273 
 12057      655F424C 
 12058              	.LASF450:
 12059 1463 4359424C 		.ascii	"CYBLE_EVT_SCPSC_WRITE_DESCR_RESPONSE\000"
 12059      455F4556 
 12059      545F5343 
 12059      5053435F 
 12059      57524954 
 12060              	.LASF26:
 12061 1488 73656E64 		.ascii	"send_time\000"
 12061      5F74696D 
 12061      6500
 12062              	.LASF17:
 12063 1492 63686172 		.ascii	"char\000"
 12063      00
 12064              	.LASF216:
 12065 1497 4359424C 		.ascii	"CYBLE_LL_PWR_LVL_NEG_2_DBM\000"
 12065      455F4C4C 
 12065      5F505752 
 12065      5F4C564C 
 12065      5F4E4547 
 12066              	.LASF555:
 12067 14b2 7365746D 		.ascii	"setmac\000"
 12067      616300
 12068              	.LASF51:
 12069 14b9 4359424C 		.ascii	"CYBLE_ERROR_GATT_DB_NULL_PARAMETER_NOT_ALLOWED\000"
 12069      455F4552 
 12069      524F525F 
 12069      47415454 
 12069      5F44425F 
 12070              	.LASF453:
 12071 14e8 4359424C 		.ascii	"CYBLE_EVT_TPSC_NOTIFICATION\000"
 12071      455F4556 
 12071      545F5450 
 12071      53435F4E 
 12071      4F544946 
ARM GAS  C:\Users\Administrator\AppData\Local\Temp\ccNQfmEa.s 			page 268


 12072              	.LASF133:
 12073 1504 4359424C 		.ascii	"CYBLE_EVT_GATTC_READ_MULTI_RSP\000"
 12073      455F4556 
 12073      545F4741 
 12073      5454435F 
 12073      52454144 
 12074              	.LASF562:
 12075 1523 53656E64 		.ascii	"SendMacFlag\000"
 12075      4D616346 
 12075      6C616700 
 12076              	.LASF102:
 12077 152f 4359424C 		.ascii	"CYBLE_GAP_AUTH_INFO_T\000"
 12077      455F4741 
 12077      505F4155 
 12077      54485F49 
 12077      4E464F5F 
 12078              	.LASF677:
 12079 1545 55736572 		.ascii	"UserData_Judge_If_Open\000"
 12079      44617461 
 12079      5F4A7564 
 12079      67655F49 
 12079      665F4F70 
 12080              	.LASF103:
 12081 155c 4359424C 		.ascii	"CYBLE_EVT_HOST_INVALID\000"
 12081      455F4556 
 12081      545F484F 
 12081      53545F49 
 12081      4E56414C 
 12082              	.LASF630:
 12083 1573 426C6552 		.ascii	"BleRecv\000"
 12083      65637600 
 12084              	.LASF372:
 12085 157b 4359424C 		.ascii	"CYBLE_EVT_GLSC_READ_DESCR_RESPONSE\000"
 12085      455F4556 
 12085      545F474C 
 12085      53435F52 
 12085      4541445F 
 12086              	.LASF37:
 12087 159e 4359424C 		.ascii	"CYBLE_ERROR_NO_DEVICE_ENTITY\000"
 12087      455F4552 
 12087      524F525F 
 12087      4E4F5F44 
 12087      45564943 
 12088              	.LASF132:
 12089 15bb 4359424C 		.ascii	"CYBLE_EVT_GATTC_READ_BLOB_RSP\000"
 12089      455F4556 
 12089      545F4741 
 12089      5454435F 
 12089      52454144 
 12090              	.LASF397:
 12091 15d9 4359424C 		.ascii	"CYBLE_EVT_HTSS_INDICATION_DISABLED\000"
 12091      455F4556 
 12091      545F4854 
 12091      53535F49 
 12091      4E444943 
 12092              	.LASF444:
 12093 15fc 4359424C 		.ascii	"CYBLE_EVT_RTUSC_READ_CHAR_RESPONSE\000"
ARM GAS  C:\Users\Administrator\AppData\Local\Temp\ccNQfmEa.s 			page 269


 12093      455F4556 
 12093      545F5254 
 12093      5553435F 
 12093      52454144 
 12094              	.LASF551:
 12095 161f 6C6F6361 		.ascii	"local_name\000"
 12095      6C5F6E61 
 12095      6D6500
 12096              	.LASF139:
 12097 162a 4359424C 		.ascii	"CYBLE_EVT_GATTC_EXEC_WRITE_RSP\000"
 12097      455F4556 
 12097      545F4741 
 12097      5454435F 
 12097      45584543 
 12098              	.LASF691:
 12099 1649 496E6974 		.ascii	"InitializeBootloaderSRAM\000"
 12099      69616C69 
 12099      7A65426F 
 12099      6F746C6F 
 12099      61646572 
 12100              	.LASF608:
 12101 1662 68656172 		.ascii	"heartbeat_lasttime\000"
 12101      74626561 
 12101      745F6C61 
 12101      73747469 
 12101      6D6500
 12102              	.LASF485:
 12103 1675 4359424C 		.ascii	"CYBLE_EVT_WSSS_INDICATION_CONFIRMED\000"
 12103      455F4556 
 12103      545F5753 
 12103      53535F49 
 12103      4E444943 
 12104              	.LASF517:
 12105 1699 4C65645F 		.ascii	"Led_BlueON\000"
 12105      426C7565 
 12105      4F4E00
 12106              	.LASF599:
 12107 16a4 64656665 		.ascii	"defendalarm_time\000"
 12107      6E64616C 
 12107      61726D5F 
 12107      74696D65 
 12107      00
 12108              	.LASF59:
 12109 16b5 4359424C 		.ascii	"CYBLE_ERROR_GATT_DB_INVALID_OPERATION\000"
 12109      455F4552 
 12109      524F525F 
 12109      47415454 
 12109      5F44425F 
 12110              	.LASF684:
 12111 16db 4B45595F 		.ascii	"KEY_OPEN_Read\000"
 12111      4F50454E 
 12111      5F526561 
 12111      6400
 12112              	.LASF458:
 12113 16e9 4359424C 		.ascii	"CYBLE_EVT_UDSS_INDICATION_DISABLED\000"
 12113      455F4556 
 12113      545F5544 
ARM GAS  C:\Users\Administrator\AppData\Local\Temp\ccNQfmEa.s 			page 270


 12113      53535F49 
 12113      4E444943 
 12114              	.LASF429:
 12115 170c 4359424C 		.ascii	"CYBLE_EVT_PASSC_READ_DESCR_RESPONSE\000"
 12115      455F4556 
 12115      545F5041 
 12115      5353435F 
 12115      52454144 
 12116              	.LASF233:
 12117 1730 4359424C 		.ascii	"CYBLE_DIS_SOFTWARE_REV\000"
 12117      455F4449 
 12117      535F534F 
 12117      46545741 
 12117      52455F52 
 12118              	.LASF574:
 12119 1747 52656164 		.ascii	"Read_Mac_Flag\000"
 12119      5F4D6163 
 12119      5F466C61 
 12119      6700
 12120              	.LASF144:
 12121 1755 4359424C 		.ascii	"CYBLE_EVT_GATTC_STOP_CMD_COMPLETE\000"
 12121      455F4556 
 12121      545F4741 
 12121      5454435F 
 12121      53544F50 
 12122              	.LASF319:
 12123 1777 4359424C 		.ascii	"CYBLE_EVT_CPSS_CHAR_WRITE\000"
 12123      455F4556 
 12123      545F4350 
 12123      53535F43 
 12123      4841525F 
 12124              	.LASF386:
 12125 1791 4359424C 		.ascii	"CYBLE_EVT_HRSS_ENERGY_EXPENDED_RESET\000"
 12125      455F4556 
 12125      545F4852 
 12125      53535F45 
 12125      4E455247 
 12126              	.LASF229:
 12127 17b6 4359424C 		.ascii	"CYBLE_DIS_MODEL_NUMBER\000"
 12127      455F4449 
 12127      535F4D4F 
 12127      44454C5F 
 12127      4E554D42 
 12128              	.LASF349:
 12129 17cd 4359424C 		.ascii	"CYBLE_EVT_ESSS_NOTIFICATION_DISABLED\000"
 12129      455F4556 
 12129      545F4553 
 12129      53535F4E 
 12129      4F544946 
 12130              	.LASF472:
 12131 17f2 4359424C 		.ascii	"CYBLE_EVT_WPTSS_NOTIFICATION_DISABLED\000"
 12131      455F4556 
 12131      545F5750 
 12131      5453535F 
 12131      4E4F5449 
 12132              	.LASF557:
 12133 1818 5254435F 		.ascii	"RTC_daysBeforeMonthTbl\000"
ARM GAS  C:\Users\Administrator\AppData\Local\Temp\ccNQfmEa.s 			page 271


 12133      64617973 
 12133      4265666F 
 12133      72654D6F 
 12133      6E746854 
 12134              	.LASF523:
 12135 182f 47505253 		.ascii	"GPRSPowerDown\000"
 12135      506F7765 
 12135      72446F77 
 12135      6E00
 12136              	.LASF289:
 12137 183d 4359424C 		.ascii	"CYBLE_EVT_BLSS_NOTIFICATION_ENABLED\000"
 12137      455F4556 
 12137      545F424C 
 12137      53535F4E 
 12137      4F544946 
 12138              	.LASF234:
 12139 1861 4359424C 		.ascii	"CYBLE_DIS_SYSTEM_ID\000"
 12139      455F4449 
 12139      535F5359 
 12139      5354454D 
 12139      5F494400 
 12140              	.LASF486:
 12141 1875 4359424C 		.ascii	"CYBLE_EVT_WSSC_INDICATION\000"
 12141      455F4556 
 12141      545F5753 
 12141      53435F49 
 12141      4E444943 
 12142              	.LASF31:
 12143 188f 4359424C 		.ascii	"CYBLE_ERROR_INVALID_PARAMETER\000"
 12143      455F4552 
 12143      524F525F 
 12143      494E5641 
 12143      4C49445F 
 12144              	.LASF357:
 12145 18ad 4359424C 		.ascii	"CYBLE_EVT_ESSC_INDICATION\000"
 12145      455F4556 
 12145      545F4553 
 12145      53435F49 
 12145      4E444943 
 12146              	.LASF53:
 12147 18c7 4359424C 		.ascii	"CYBLE_ERROR_GATT_DB_INSUFFICIENT_BUFFER_LEN\000"
 12147      455F4552 
 12147      524F525F 
 12147      47415454 
 12147      5F44425F 
 12148              	.LASF440:
 12149 18f3 4359424C 		.ascii	"CYBLE_EVT_RSCSC_WRITE_CHAR_RESPONSE\000"
 12149      455F4556 
 12149      545F5253 
 12149      4353435F 
 12149      57524954 
 12150              	.LASF456:
 12151 1917 4359424C 		.ascii	"CYBLE_EVT_TPSC_WRITE_DESCR_RESPONSE\000"
 12151      455F4556 
 12151      545F5450 
 12151      53435F57 
 12151      52495445 
ARM GAS  C:\Users\Administrator\AppData\Local\Temp\ccNQfmEa.s 			page 272


 12152              	.LASF63:
 12153 193b 4359424C 		.ascii	"CYBLE_ERROR_GATT_DB_INSUFFICIENT_ENC_KEY_SIZE\000"
 12153      455F4552 
 12153      524F525F 
 12153      47415454 
 12153      5F44425F 
 12154              	.LASF328:
 12155 1969 4359424C 		.ascii	"CYBLE_EVT_CSCSS_NOTIFICATION_DISABLED\000"
 12155      455F4556 
 12155      545F4353 
 12155      4353535F 
 12155      4E4F5449 
 12156              	.LASF339:
 12157 198f 4359424C 		.ascii	"CYBLE_EVT_CTSS_NOTIFICATION_ENABLED\000"
 12157      455F4556 
 12157      545F4354 
 12157      53535F4E 
 12157      4F544946 
 12158              	.LASF434:
 12159 19b3 4359424C 		.ascii	"CYBLE_EVT_RSCSS_INDICATION_DISABLED\000"
 12159      455F4556 
 12159      545F5253 
 12159      4353535F 
 12159      494E4449 
 12160              	.LASF75:
 12161 19d7 4359424C 		.ascii	"CYBLE_DESCR_DISC_DONE\000"
 12161      455F4445 
 12161      5343525F 
 12161      44495343 
 12161      5F444F4E 
 12162              	.LASF198:
 12163 19ed 4359424C 		.ascii	"CYBLE_GAPP_CONNECTABLE_LOW_DC_DIRECTED_ADV\000"
 12163      455F4741 
 12163      50505F43 
 12163      4F4E4E45 
 12163      43544142 
 12164              	.LASF476:
 12165 1a18 4359424C 		.ascii	"CYBLE_EVT_WPTSS_WRITE_CHAR\000"
 12165      455F4556 
 12165      545F5750 
 12165      5453535F 
 12165      57524954 
 12166              	.LASF407:
 12167 1a33 4359424C 		.ascii	"CYBLE_EVT_LLSS_WRITE_CHAR_REQ\000"
 12167      455F4556 
 12167      545F4C4C 
 12167      53535F57 
 12167      52495445 
 12168              	.LASF33:
 12169 1a51 4359424C 		.ascii	"CYBLE_ERROR_MEMORY_ALLOCATION_FAILED\000"
 12169      455F4552 
 12169      524F525F 
 12169      4D454D4F 
 12169      52595F41 
 12170              	.LASF392:
 12171 1a76 4359424C 		.ascii	"CYBLE_EVT_HRSC_READ_DESCR_RESPONSE\000"
 12171      455F4556 
ARM GAS  C:\Users\Administrator\AppData\Local\Temp\ccNQfmEa.s 			page 273


 12171      545F4852 
 12171      53435F52 
 12171      4541445F 
 12172              	.LASF511:
 12173 1a99 626C655F 		.ascii	"ble_heartbeat\000"
 12173      68656172 
 12173      74626561 
 12173      7400
 12174              	.LASF327:
 12175 1aa7 4359424C 		.ascii	"CYBLE_EVT_CSCSS_NOTIFICATION_ENABLED\000"
 12175      455F4556 
 12175      545F4353 
 12175      4353535F 
 12175      4E4F5449 
 12176              	.LASF627:
 12177 1acc 70696363 		.ascii	"picc_sak\000"
 12177      5F73616B 
 12177      00
 12178              	.LASF710:
 12179 1ad5 473A5C50 		.ascii	"G:\\Psoc4_prj\\7.rental_house\\18-05-03\\EntranceGu"
 12179      736F6334 
 12179      5F70726A 
 12179      5C372E72 
 12179      656E7461 
 12180 1b04 6172645F 		.ascii	"ard_180512-1624\\EntranceGuard.cydsn\000"
 12180      31383035 
 12180      31322D31 
 12180      3632345C 
 12180      456E7472 
 12181              	.LASF531:
 12182 1b28 55706461 		.ascii	"UpdateTimeOut\000"
 12182      74655469 
 12182      6D654F75 
 12182      7400
 12183              	.LASF615:
 12184 1b36 6E657874 		.ascii	"next_defend_flag\000"
 12184      5F646566 
 12184      656E645F 
 12184      666C6167 
 12184      00
 12185              	.LASF380:
 12186 1b47 4359424C 		.ascii	"CYBLE_EVT_HIDSS_REPORT_CHAR_WRITE\000"
 12186      455F4556 
 12186      545F4849 
 12186      4453535F 
 12186      5245504F 
 12187              	.LASF504:
 12188 1b69 74696D65 		.ascii	"time_tmp\000"
 12188      5F746D70 
 12188      00
 12189              	.LASF685:
 12190 1b72 46495245 		.ascii	"FIRE_OPEN_Read\000"
 12190      5F4F5045 
 12190      4E5F5265 
 12190      616400
 12191              	.LASF601:
 12192 1b81 46697265 		.ascii	"FireCheck_time\000"
ARM GAS  C:\Users\Administrator\AppData\Local\Temp\ccNQfmEa.s 			page 274


 12192      43686563 
 12192      6B5F7469 
 12192      6D6500
 12193              	.LASF480:
 12194 1b90 4359424C 		.ascii	"CYBLE_EVT_WPTSC_READ_CHAR_RESPONSE\000"
 12194      455F4556 
 12194      545F5750 
 12194      5453435F 
 12194      52454144 
 12195              	.LASF587:
 12196 1bb3 426C6543 		.ascii	"BleCmdValidFlag\000"
 12196      6D645661 
 12196      6C696446 
 12196      6C616700 
 12197              	.LASF72:
 12198 1bc3 4359424C 		.ascii	"CYBLE_ERROR_MAX\000"
 12198      455F4552 
 12198      524F525F 
 12198      4D415800 
 12199              	.LASF419:
 12200 1bd3 4359424C 		.ascii	"CYBLE_EVT_LNSC_WRITE_CHAR_RESPONSE\000"
 12200      455F4556 
 12200      545F4C4E 
 12200      53435F57 
 12200      52495445 
 12201              	.LASF178:
 12202 1bf6 4359424C 		.ascii	"CYBLE_BLESS_SLEEP\000"
 12202      455F424C 
 12202      4553535F 
 12202      534C4545 
 12202      5000
 12203              	.LASF147:
 12204 1c08 4359424C 		.ascii	"CYBLE_EVT_L2CAP_CONN_PARAM_UPDATE_RSP\000"
 12204      455F4556 
 12204      545F4C32 
 12204      4341505F 
 12204      434F4E4E 
 12205              	.LASF96:
 12206 1c2e 4359424C 		.ascii	"CYBLE_GAP_AUTH_ERROR_LINK_DISCONNECTED\000"
 12206      455F4741 
 12206      505F4155 
 12206      54485F45 
 12206      52524F52 
 12207              	.LASF270:
 12208 1c55 4359424C 		.ascii	"CYBLE_EVT_ANSC_WRITE_CHAR_RESPONSE\000"
 12208      455F4556 
 12208      545F414E 
 12208      53435F57 
 12208      52495445 
 12209              	.LASF461:
 12210 1c78 4359424C 		.ascii	"CYBLE_EVT_UDSS_NOTIFICATION_DISABLED\000"
 12210      455F4556 
 12210      545F5544 
 12210      53535F4E 
 12210      4F544946 
 12211              	.LASF544:
 12212 1c9d 7379735F 		.ascii	"sys_heartbeat\000"
ARM GAS  C:\Users\Administrator\AppData\Local\Temp\ccNQfmEa.s 			page 275


 12212      68656172 
 12212      74626561 
 12212      7400
 12213              	.LASF650:
 12214 1cab 47505253 		.ascii	"GPRS_WaitInitFinish\000"
 12214      5F576169 
 12214      74496E69 
 12214      7446696E 
 12214      69736800 
 12215              	.LASF338:
 12216 1cbf 4359424C 		.ascii	"CYBLE_EVT_CSCSC_WRITE_DESCR_RESPONSE\000"
 12216      455F4556 
 12216      545F4353 
 12216      4353435F 
 12216      57524954 
 12217              	.LASF354:
 12218 1ce4 4359424C 		.ascii	"CYBLE_EVT_ESSS_EXEC_WRITE_REQ\000"
 12218      455F4556 
 12218      545F4553 
 12218      53535F45 
 12218      5845435F 
 12219              	.LASF25:
 12220 1d02 6F70656E 		.ascii	"open_time\000"
 12220      5F74696D 
 12220      6500
 12221              	.LASF181:
 12222 1d0c 4359424C 		.ascii	"CYBLE_BLESS_INVALID\000"
 12222      455F424C 
 12222      4553535F 
 12222      494E5641 
 12222      4C494400 
 12223              	.LASF208:
 12224 1d20 4359424C 		.ascii	"CYBLE_GAPP_DISC_PARAM_T\000"
 12224      455F4741 
 12224      50505F44 
 12224      4953435F 
 12224      50415241 
 12225              	.LASF566:
 12226 1d38 75706461 		.ascii	"update_ip\000"
 12226      74655F69 
 12226      7000
 12227              	.LASF387:
 12228 1d42 4359424C 		.ascii	"CYBLE_EVT_HRSS_NOTIFICATION_ENABLED\000"
 12228      455F4556 
 12228      545F4852 
 12228      53535F4E 
 12228      4F544946 
 12229              	.LASF364:
 12230 1d66 4359424C 		.ascii	"CYBLE_EVT_GLSS_INDICATION_CONFIRMED\000"
 12230      455F4556 
 12230      545F474C 
 12230      53535F49 
 12230      4E444943 
 12231              	.LASF57:
 12232 1d8a 4359424C 		.ascii	"CYBLE_ERROR_GATT_DB_HANDLE_NOT_IN_RANGE\000"
 12232      455F4552 
 12232      524F525F 
ARM GAS  C:\Users\Administrator\AppData\Local\Temp\ccNQfmEa.s 			page 276


 12232      47415454 
 12232      5F44425F 
 12233              	.LASF604:
 12234 1db2 75706461 		.ascii	"update_timeout_count\000"
 12234      74655F74 
 12234      696D656F 
 12234      75745F63 
 12234      6F756E74 
 12235              	.LASF538:
 12236 1dc7 6172725F 		.ascii	"arr_time\000"
 12236      74696D65 
 12236      00
 12237              	.LASF54:
 12238 1dd0 4359424C 		.ascii	"CYBLE_ERROR_GATT_DB_MORE_MATCHING_RESULT_FOUND\000"
 12238      455F4552 
 12238      524F525F 
 12238      47415454 
 12238      5F44425F 
 12239              	.LASF113:
 12240 1dff 4359424C 		.ascii	"CYBLE_EVT_GAP_AUTH_COMPLETE\000"
 12240      455F4556 
 12240      545F4741 
 12240      505F4155 
 12240      54485F43 
 12241              	.LASF207:
 12242 1e1b 61647646 		.ascii	"advFilterPolicy\000"
 12242      696C7465 
 12242      72506F6C 
 12242      69637900 
 12243              	.LASF360:
 12244 1e2b 4359424C 		.ascii	"CYBLE_EVT_ESSC_READ_DESCR_RESPONSE\000"
 12244      455F4556 
 12244      545F4553 
 12244      53435F52 
 12244      4541445F 
 12245              	.LASF20:
 12246 1e4e 63617264 		.ascii	"card_uid\000"
 12246      5F756964 
 12246      00
 12247              	.LASF114:
 12248 1e57 4359424C 		.ascii	"CYBLE_EVT_GAP_AUTH_FAILED\000"
 12248      455F4556 
 12248      545F4741 
 12248      505F4155 
 12248      54485F46 
 12249              	.LASF379:
 12250 1e71 4359424C 		.ascii	"CYBLE_EVT_HIDSS_EXIT_SUSPEND\000"
 12250      455F4556 
 12250      545F4849 
 12250      4453535F 
 12250      45584954 
 12251              	.LASF27:
 12252 1e8e 6F70656E 		.ascii	"open_door_t\000"
 12252      5F646F6F 
 12252      725F7400 
 12253              	.LASF73:
 12254 1e9a 4359424C 		.ascii	"CYBLE_INCL_DISC_DONE\000"
ARM GAS  C:\Users\Administrator\AppData\Local\Temp\ccNQfmEa.s 			page 277


 12254      455F494E 
 12254      434C5F44 
 12254      4953435F 
 12254      444F4E45 
 12255              	.LASF202:
 12256 1eaf 61647654 		.ascii	"advType\000"
 12256      79706500 
 12257              	.LASF345:
 12258 1eb7 4359424C 		.ascii	"CYBLE_EVT_CTSC_WRITE_DESCR_RESPONSE\000"
 12258      455F4556 
 12258      545F4354 
 12258      53435F57 
 12258      52495445 
 12259              	.LASF34:
 12260 1edb 4359424C 		.ascii	"CYBLE_ERROR_INSUFFICIENT_RESOURCES\000"
 12260      455F4552 
 12260      524F525F 
 12260      494E5355 
 12260      46464943 
 12261              	.LASF625:
 12262 1efe 70696363 		.ascii	"picc_atqa\000"
 12262      5F617471 
 12262      6100
 12263              	.LASF432:
 12264 1f08 4359424C 		.ascii	"CYBLE_EVT_RSCSS_NOTIFICATION_DISABLED\000"
 12264      455F4556 
 12264      545F5253 
 12264      4353535F 
 12264      4E4F5449 
 12265              	.LASF383:
 12266 1f2e 4359424C 		.ascii	"CYBLE_EVT_HIDSC_WRITE_CHAR_RESPONSE\000"
 12266      455F4556 
 12266      545F4849 
 12266      4453435F 
 12266      57524954 
 12267              	.LASF5:
 12268 1f52 6C6F6E67 		.ascii	"long unsigned int\000"
 12268      20756E73 
 12268      69676E65 
 12268      6420696E 
 12268      7400
 12269              	.LASF406:
 12270 1f64 4359424C 		.ascii	"CYBLE_EVT_IASS_WRITE_CHAR_CMD\000"
 12270      455F4556 
 12270      545F4941 
 12270      53535F57 
 12270      52495445 
 12271              	.LASF423:
 12272 1f82 4359424C 		.ascii	"CYBLE_EVT_PASSS_NOTIFICATION_ENABLED\000"
 12272      455F4556 
 12272      545F5041 
 12272      5353535F 
 12272      4E4F5449 
 12273              	.LASF217:
 12274 1fa7 4359424C 		.ascii	"CYBLE_LL_PWR_LVL_NEG_1_DBM\000"
 12274      455F4C4C 
 12274      5F505752 
ARM GAS  C:\Users\Administrator\AppData\Local\Temp\ccNQfmEa.s 			page 278


 12274      5F4C564C 
 12274      5F4E4547 
 12275              	.LASF473:
 12276 1fc2 4359424C 		.ascii	"CYBLE_EVT_WPTSS_INDICATION_ENABLED\000"
 12276      455F4556 
 12276      545F5750 
 12276      5453535F 
 12276      494E4449 
 12277              	.LASF91:
 12278 1fe5 4359424C 		.ascii	"CYBLE_GAP_AUTH_ERROR_COMMAND_NOT_SUPPORTED\000"
 12278      455F4741 
 12278      505F4155 
 12278      54485F45 
 12278      52524F52 
 12279              	.LASF87:
 12280 2010 4359424C 		.ascii	"CYBLE_GAP_AUTH_ERROR_AUTHENTICATION_REQ_NOT_MET\000"
 12280      455F4741 
 12280      505F4155 
 12280      54485F45 
 12280      52524F52 
 12281              	.LASF578:
 12282 2040 47505253 		.ascii	"GPRS_AT_Buf\000"
 12282      5F41545F 
 12282      42756600 
 12283              	.LASF645:
 12284 204c 4C45445F 		.ascii	"LED_GREEN_Write\000"
 12284      47524545 
 12284      4E5F5772 
 12284      69746500 
 12285              	.LASF67:
 12286 205c 4359424C 		.ascii	"CYBLE_ERROR_GATT_DB_TYPE_MISMATCH\000"
 12286      455F4552 
 12286      524F525F 
 12286      47415454 
 12286      5F44425F 
 12287              	.LASF269:
 12288 207e 4359424C 		.ascii	"CYBLE_EVT_ANSC_READ_CHAR_RESPONSE\000"
 12288      455F4556 
 12288      545F414E 
 12288      53435F52 
 12288      4541445F 
 12289              	.LASF499:
 12290 20a0 47505253 		.ascii	"GPRS_SetON\000"
 12290      5F536574 
 12290      4F4E00
 12291              	.LASF420:
 12292 20ab 4359424C 		.ascii	"CYBLE_EVT_LNSC_READ_DESCR_RESPONSE\000"
 12292      455F4556 
 12292      545F4C4E 
 12292      53435F52 
 12292      4541445F 
 12293              	.LASF44:
 12294 20ce 4359424C 		.ascii	"CYBLE_ERROR_L2CAP_PSM_ALREADY_REGISTERED\000"
 12294      455F4552 
 12294      524F525F 
 12294      4C324341 
 12294      505F5053 
ARM GAS  C:\Users\Administrator\AppData\Local\Temp\ccNQfmEa.s 			page 279


 12295              	.LASF399:
 12296 20f7 4359424C 		.ascii	"CYBLE_EVT_HTSS_CHAR_WRITE\000"
 12296      455F4556 
 12296      545F4854 
 12296      53535F43 
 12296      4841525F 
 12297              	.LASF573:
 12298 2111 496D6167 		.ascii	"Image_size\000"
 12298      655F7369 
 12298      7A6500
 12299              	.LASF52:
 12300 211c 4359424C 		.ascii	"CYBLE_ERROR_GATT_DB_UNSUPPORTED_GROUP_TYPE\000"
 12300      455F4552 
 12300      524F525F 
 12300      47415454 
 12300      5F44425F 
 12301              	.LASF273:
 12302 2147 4359424C 		.ascii	"CYBLE_EVT_BASS_NOTIFICATION_ENABLED\000"
 12302      455F4556 
 12302      545F4241 
 12302      53535F4E 
 12302      4F544946 
 12303              	.LASF347:
 12304 216b 4359424C 		.ascii	"CYBLE_EVT_DISC_READ_CHAR_RESPONSE\000"
 12304      455F4556 
 12304      545F4449 
 12304      53435F52 
 12304      4541445F 
 12305              	.LASF600:
 12306 218d 4D674368 		.ascii	"MgCheck_time\000"
 12306      65636B5F 
 12306      74696D65 
 12306      00
 12307              	.LASF346:
 12308 219a 4359424C 		.ascii	"CYBLE_EVT_CTSC_WRITE_CHAR_RESPONSE\000"
 12308      455F4556 
 12308      545F4354 
 12308      53435F57 
 12308      52495445 
 12309              	.LASF425:
 12310 21bd 4359424C 		.ascii	"CYBLE_EVT_PASSS_WRITE_CHAR\000"
 12310      455F4556 
 12310      545F5041 
 12310      5353535F 
 12310      57524954 
 12311              	.LASF323:
 12312 21d8 4359424C 		.ascii	"CYBLE_EVT_CPSC_WRITE_CHAR_RESPONSE\000"
 12312      455F4556 
 12312      545F4350 
 12312      53435F57 
 12312      52495445 
 12313              	.LASF230:
 12314 21fb 4359424C 		.ascii	"CYBLE_DIS_SERIAL_NUMBER\000"
 12314      455F4449 
 12314      535F5345 
 12314      5249414C 
 12314      5F4E554D 
ARM GAS  C:\Users\Administrator\AppData\Local\Temp\ccNQfmEa.s 			page 280


 12315              	.LASF491:
 12316 2213 6576656E 		.ascii	"event\000"
 12316      7400
 12317              	.LASF618:
 12318 2219 66697265 		.ascii	"firealarm_flag\000"
 12318      616C6172 
 12318      6D5F666C 
 12318      616700
 12319              	.LASF119:
 12320 2228 4359424C 		.ascii	"CYBLE_EVT_GAP_CONNECTION_UPDATE_COMPLETE\000"
 12320      455F4556 
 12320      545F4741 
 12320      505F434F 
 12320      4E4E4543 
 12321              	.LASF308:
 12322 2251 4359424C 		.ascii	"CYBLE_EVT_CGMSC_READ_CHAR_RESPONSE\000"
 12322      455F4556 
 12322      545F4347 
 12322      4D53435F 
 12322      52454144 
 12323              	.LASF525:
 12324 2274 57616974 		.ascii	"WaitTimeOut\000"
 12324      54696D65 
 12324      4F757400 
 12325              	.LASF649:
 12326 2280 47505253 		.ascii	"GPRS_STATE_Read\000"
 12326      5F535441 
 12326      54455F52 
 12326      65616400 
 12327              	.LASF161:
 12328 2290 4359424C 		.ascii	"CYBLE_STATE_INITIALIZING\000"
 12328      455F5354 
 12328      4154455F 
 12328      494E4954 
 12328      49414C49 
 12329              	.LASF514:
 12330 22a9 4C65645F 		.ascii	"Led_AllOff\000"
 12330      416C6C4F 
 12330      666600
 12331              	.LASF93:
 12332 22b4 4359424C 		.ascii	"CYBLE_GAP_AUTH_ERROR_REPEATED_ATTEMPTS\000"
 12332      455F4741 
 12332      505F4155 
 12332      54485F45 
 12332      52524F52 
 12333              	.LASF151:
 12334 22db 4359424C 		.ascii	"CYBLE_EVT_L2CAP_CBFC_DISCONN_IND\000"
 12334      455F4556 
 12334      545F4C32 
 12334      4341505F 
 12334      43424643 
 12335              	.LASF332:
 12336 22fc 4359424C 		.ascii	"CYBLE_EVT_CSCSS_CHAR_WRITE\000"
 12336      455F4556 
 12336      545F4353 
 12336      4353535F 
 12336      43484152 
ARM GAS  C:\Users\Administrator\AppData\Local\Temp\ccNQfmEa.s 			page 281


 12337              	.LASF55:
 12338 2317 4359424C 		.ascii	"CYBLE_ERROR_GATT_DB_NO_MATCHING_RESULT\000"
 12338      455F4552 
 12338      524F525F 
 12338      47415454 
 12338      5F44425F 
 12339              	.LASF439:
 12340 233e 4359424C 		.ascii	"CYBLE_EVT_RSCSC_READ_CHAR_RESPONSE\000"
 12340      455F4556 
 12340      545F5253 
 12340      4353435F 
 12340      52454144 
 12341              	.LASF111:
 12342 2361 4359424C 		.ascii	"CYBLE_EVT_GAP_PASSKEY_ENTRY_REQUEST\000"
 12342      455F4556 
 12342      545F4741 
 12342      505F5041 
 12342      53534B45 
 12343              	.LASF672:
 12344 2385 47505253 		.ascii	"GPRS_ConnectUpdateServer\000"
 12344      5F436F6E 
 12344      6E656374 
 12344      55706461 
 12344      74655365 
 12345              	.LASF220:
 12346 239e 4359424C 		.ascii	"CYBLE_BLESS_PWR_LVL_T\000"
 12346      455F424C 
 12346      4553535F 
 12346      5057525F 
 12346      4C564C5F 
 12347              	.LASF512:
 12348 23b4 64656C61 		.ascii	"delay_with_ble\000"
 12348      795F7769 
 12348      74685F62 
 12348      6C6500
 12349              	.LASF414:
 12350 23c3 4359424C 		.ascii	"CYBLE_EVT_LNSS_NOTIFICATION_DISABLED\000"
 12350      455F4556 
 12350      545F4C4E 
 12350      53535F4E 
 12350      4F544946 
 12351              	.LASF317:
 12352 23e8 4359424C 		.ascii	"CYBLE_EVT_CPSS_BROADCAST_ENABLED\000"
 12352      455F4556 
 12352      545F4350 
 12352      53535F42 
 12352      524F4144 
 12353              	.LASF643:
 12354 2409 4C45445F 		.ascii	"LED_RED_Write\000"
 12354      5245445F 
 12354      57726974 
 12354      6500
 12355              	.LASF90:
 12356 2417 4359424C 		.ascii	"CYBLE_GAP_AUTH_ERROR_INSUFFICIENT_ENCRYPTION_KEY_SI"
 12356      455F4741 
 12356      505F4155 
 12356      54485F45 
ARM GAS  C:\Users\Administrator\AppData\Local\Temp\ccNQfmEa.s 			page 282


 12356      52524F52 
 12357 244a 5A4500   		.ascii	"ZE\000"
 12358              	.LASF400:
 12359 244d 4359424C 		.ascii	"CYBLE_EVT_HTSC_NOTIFICATION\000"
 12359      455F4556 
 12359      545F4854 
 12359      53435F4E 
 12359      4F544946 
 12360              	.LASF6:
 12361 2469 6C6F6E67 		.ascii	"long long int\000"
 12361      206C6F6E 
 12361      6720696E 
 12361      7400
 12362              	.LASF179:
 12363 2477 4359424C 		.ascii	"CYBLE_BLESS_DEEPSLEEP\000"
 12363      455F424C 
 12363      4553535F 
 12363      44454550 
 12363      534C4545 
 12364              	.LASF581:
 12365 248d 47505253 		.ascii	"GPRSCmdParseFlag2\000"
 12365      436D6450 
 12365      61727365 
 12365      466C6167 
 12365      3200
 12366              	.LASF454:
 12367 249f 4359424C 		.ascii	"CYBLE_EVT_TPSC_READ_CHAR_RESPONSE\000"
 12367      455F4556 
 12367      545F5450 
 12367      53435F52 
 12367      4541445F 
 12368              	.LASF236:
 12369 24c1 4359424C 		.ascii	"CYBLE_DIS_PNP_ID\000"
 12369      455F4449 
 12369      535F504E 
 12369      505F4944 
 12369      00
 12370              	.LASF250:
 12371 24d2 4359424C 		.ascii	"CYBLE_EVT_GATTC_CHAR_DUPLICATION\000"
 12371      455F4556 
 12371      545F4741 
 12371      5454435F 
 12371      43484152 
 12372              	.LASF365:
 12373 24f3 4359424C 		.ascii	"CYBLE_EVT_GLSS_NOTIFICATION_ENABLED\000"
 12373      455F4556 
 12373      545F474C 
 12373      53535F4E 
 12373      4F544946 
 12374              	.LASF623:
 12375 2517 6379426C 		.ascii	"cyBle_discoveryParam\000"
 12375      655F6469 
 12375      73636F76 
 12375      65727950 
 12375      6172616D 
 12376              	.LASF678:
 12377 252c 6E66635F 		.ascii	"nfc_detect_type_b\000"
ARM GAS  C:\Users\Administrator\AppData\Local\Temp\ccNQfmEa.s 			page 283


 12377      64657465 
 12377      63745F74 
 12377      7970655F 
 12377      6200
 12378              	.LASF45:
 12379 253e 4359424C 		.ascii	"CYBLE_ERROR_L2CAP_PSM_NOT_REGISTERED\000"
 12379      455F4552 
 12379      524F525F 
 12379      4C324341 
 12379      505F5053 
 12380              	.LASF35:
 12381 2563 4359424C 		.ascii	"CYBLE_ERROR_OOB_NOT_AVAILABLE\000"
 12381      455F4552 
 12381      524F525F 
 12381      4F4F425F 
 12381      4E4F545F 
 12382              	.LASF683:
 12383 2581 6D656D63 		.ascii	"memcpy\000"
 12383      707900
 12384              	.LASF300:
 12385 2588 4359424C 		.ascii	"CYBLE_EVT_CGMSS_INDICATION_ENABLED\000"
 12385      455F4556 
 12385      545F4347 
 12385      4D53535F 
 12385      494E4449 
 12386              	.LASF200:
 12387 25ab 61647649 		.ascii	"advIntvMin\000"
 12387      6E74764D 
 12387      696E00
 12388              	.LASF635:
 12389 25b6 4379426C 		.ascii	"CyBle_GetBleSsState\000"
 12389      655F4765 
 12389      74426C65 
 12389      53735374 
 12389      61746500 
 12390              	.LASF15:
 12391 25ca 646F7562 		.ascii	"double\000"
 12391      6C6500
 12392              	.LASF709:
 12393 25d1 6D61696E 		.ascii	"main.c\000"
 12393      2E6300
 12394              	.LASF69:
 12395 25d8 4359424C 		.ascii	"CYBLE_ERROR_DEVICE_ALREADY_EXISTS\000"
 12395      455F4552 
 12395      524F525F 
 12395      44455649 
 12395      43455F41 
 12396              	.LASF351:
 12397 25fa 4359424C 		.ascii	"CYBLE_EVT_ESSS_INDICATION_DISABLED\000"
 12397      455F4556 
 12397      545F4553 
 12397      53535F49 
 12397      4E444943 
 12398              	.LASF561:
 12399 261d 456E7465 		.ascii	"EnterGuide_State\000"
 12399      72477569 
 12399      64655F53 
ARM GAS  C:\Users\Administrator\AppData\Local\Temp\ccNQfmEa.s 			page 284


 12399      74617465 
 12399      00
 12400              	.LASF157:
 12401 262e 4359424C 		.ascii	"CYBLE_EVT_PENDING_FLASH_WRITE\000"
 12401      455F4556 
 12401      545F5045 
 12401      4E44494E 
 12401      475F464C 
 12402              	.LASF253:
 12403 264c 4359424C 		.ascii	"CYBLE_EVT_GATTC_INCL_DISCOVERY_COMPLETE\000"
 12403      455F4556 
 12403      545F4741 
 12403      5454435F 
 12403      494E434C 
 12404              	.LASF219:
 12405 2674 4359424C 		.ascii	"CYBLE_LL_PWR_LVL_MAX\000"
 12405      455F4C4C 
 12405      5F505752 
 12405      5F4C564C 
 12405      5F4D4158 
 12406              	.LASF547:
 12407 2689 6F70656E 		.ascii	"open_flag\000"
 12407      5F666C61 
 12407      6700
 12408              	.LASF471:
 12409 2693 4359424C 		.ascii	"CYBLE_EVT_WPTSS_NOTIFICATION_ENABLED\000"
 12409      455F4556 
 12409      545F5750 
 12409      5453535F 
 12409      4E4F5449 
 12410              	.LASF576:
 12411 26b8 77616974 		.ascii	"wait_timeout\000"
 12411      5F74696D 
 12411      656F7574 
 12411      00
 12412              	.LASF707:
 12413 26c5 47505253 		.ascii	"GPRS_SetConnectMode\000"
 12413      5F536574 
 12413      436F6E6E 
 12413      6563744D 
 12413      6F646500 
 12414              	.LASF421:
 12415 26d9 4359424C 		.ascii	"CYBLE_EVT_LNSC_WRITE_DESCR_RESPONSE\000"
 12415      455F4556 
 12415      545F4C4E 
 12415      53435F57 
 12415      52495445 
 12416              	.LASF204:
 12417 26fd 64697265 		.ascii	"directAddrType\000"
 12417      63744164 
 12417      64725479 
 12417      706500
 12418              	.LASF568:
 12419 270c 75706461 		.ascii	"update_version\000"
 12419      74655F76 
 12419      65727369 
 12419      6F6E00
ARM GAS  C:\Users\Administrator\AppData\Local\Temp\ccNQfmEa.s 			page 285


 12420              	.LASF408:
 12421 271b 4359424C 		.ascii	"CYBLE_EVT_LLSC_READ_CHAR_RESPONSE\000"
 12421      455F4556 
 12421      545F4C4C 
 12421      53435F52 
 12421      4541445F 
 12422              	.LASF331:
 12423 273d 4359424C 		.ascii	"CYBLE_EVT_CSCSS_INDICATION_CONFIRMATION\000"
 12423      455F4556 
 12423      545F4353 
 12423      4353535F 
 12423      494E4449 
 12424              	.LASF47:
 12425 2765 4359424C 		.ascii	"CYBLE_ERROR_L2CAP_CHANNEL_NOT_FOUND\000"
 12425      455F4552 
 12425      524F525F 
 12425      4C324341 
 12425      505F4348 
 12426              	.LASF38:
 12427 2789 4359424C 		.ascii	"CYBLE_ERROR_REPEATED_ATTEMPTS\000"
 12427      455F4552 
 12427      524F525F 
 12427      52455045 
 12427      41544544 
 12428              	.LASF355:
 12429 27a7 4359424C 		.ascii	"CYBLE_EVT_ESSS_DESCR_WRITE\000"
 12429      455F4556 
 12429      545F4553 
 12429      53535F44 
 12429      45534352 
 12430              	.LASF350:
 12431 27c2 4359424C 		.ascii	"CYBLE_EVT_ESSS_INDICATION_ENABLED\000"
 12431      455F4556 
 12431      545F4553 
 12431      53535F49 
 12431      4E444943 
 12432              	.LASF528:
 12433 27e4 4D674368 		.ascii	"MgCheck_Count\000"
 12433      65636B5F 
 12433      436F756E 
 12433      7400
 12434              	.LASF336:
 12435 27f2 4359424C 		.ascii	"CYBLE_EVT_CSCSC_WRITE_CHAR_RESPONSE\000"
 12435      455F4556 
 12435      545F4353 
 12435      4353435F 
 12435      57524954 
 12436              	.LASF14:
 12437 2816 666C6F61 		.ascii	"float\000"
 12437      7400
 12438              	.LASF448:
 12439 281c 4359424C 		.ascii	"CYBLE_EVT_SCPSC_NOTIFICATION\000"
 12439      455F4556 
 12439      545F5343 
 12439      5053435F 
 12439      4E4F5449 
 12440              	.LASF377:
ARM GAS  C:\Users\Administrator\AppData\Local\Temp\ccNQfmEa.s 			page 286


 12441 2839 4359424C 		.ascii	"CYBLE_EVT_HIDSS_REPORT_MODE_ENTER\000"
 12441      455F4556 
 12441      545F4849 
 12441      4453535F 
 12441      5245504F 
 12442              	.LASF356:
 12443 285b 4359424C 		.ascii	"CYBLE_EVT_ESSC_NOTIFICATION\000"
 12443      455F4556 
 12443      545F4553 
 12443      53435F4E 
 12443      4F544946 
 12444              	.LASF70:
 12445 2877 4359424C 		.ascii	"CYBLE_ERROR_FLASH_WRITE_NOT_PERMITED\000"
 12445      455F4552 
 12445      524F525F 
 12445      464C4153 
 12445      485F5752 
 12446              	.LASF375:
 12447 289c 4359424C 		.ascii	"CYBLE_EVT_HIDSS_NOTIFICATION_DISABLED\000"
 12447      455F4556 
 12447      545F4849 
 12447      4453535F 
 12447      4E4F5449 
 12448              	.LASF500:
 12449 28c2 636F756E 		.ascii	"count\000"
 12449      7400
 12450              	.LASF145:
 12451 28c8 4359424C 		.ascii	"CYBLE_EVT_GATTS_READ_CHAR_VAL_ACCESS_REQ\000"
 12451      455F4556 
 12451      545F4741 
 12451      5454535F 
 12451      52454144 
 12452              	.LASF262:
 12453 28f1 4359424C 		.ascii	"CYBLE_EVT_ANCSC_READ_DESCR_RESPONSE\000"
 12453      455F4556 
 12453      545F414E 
 12453      4353435F 
 12453      52454144 
 12454              	.LASF612:
 12455 2915 73746F70 		.ascii	"stop_reboot\000"
 12455      5F726562 
 12455      6F6F7400 
 12456              	.LASF620:
 12457 2921 6379426C 		.ascii	"cyBle_state\000"
 12457      655F7374 
 12457      61746500 
 12458              	.LASF171:
 12459 292d 61747472 		.ascii	"attrHandle\000"
 12459      48616E64 
 12459      6C6500
 12460              	.LASF465:
 12461 2938 4359424C 		.ascii	"CYBLE_EVT_UDSC_NOTIFICATION\000"
 12461      455F4556 
 12461      545F5544 
 12461      53435F4E 
 12461      4F544946 
 12462              	.LASF479:
ARM GAS  C:\Users\Administrator\AppData\Local\Temp\ccNQfmEa.s 			page 287


 12463 2954 4359424C 		.ascii	"CYBLE_EVT_WPTSC_WRITE_CHAR_RESPONSE\000"
 12463      455F4556 
 12463      545F5750 
 12463      5453435F 
 12463      57524954 
 12464              	.LASF99:
 12465 2978 626F6E64 		.ascii	"bonding\000"
 12465      696E6700 
 12466              	.LASF679:
 12467 2980 566F6963 		.ascii	"VoicePlay\000"
 12467      65506C61 
 12467      7900
 12468              	.LASF175:
 12469 298a 4359424C 		.ascii	"CYBLE_GATTS_WRITE_REQ_PARAM_T\000"
 12469      455F4741 
 12469      5454535F 
 12469      57524954 
 12469      455F5245 
 12470              	.LASF8:
 12471 29a8 756E7369 		.ascii	"unsigned int\000"
 12471      676E6564 
 12471      20696E74 
 12471      00
 12472              	.LASF598:
 12473 29b5 6C617374 		.ascii	"last_readcardtime\000"
 12473      5F726561 
 12473      64636172 
 12473      6474696D 
 12473      6500
 12474              	.LASF666:
 12475 29c7 73656E64 		.ascii	"send_get_pre_service_ip\000"
 12475      5F676574 
 12475      5F707265 
 12475      5F736572 
 12475      76696365 
 12476              	.LASF137:
 12477 29df 4359424C 		.ascii	"CYBLE_EVT_GATTS_PREP_WRITE_REQ\000"
 12477      455F4556 
 12477      545F4741 
 12477      5454535F 
 12477      50524550 
 12478              	.LASF616:
 12479 29fe 436F6465 		.ascii	"Code_Action_flag\000"
 12479      5F416374 
 12479      696F6E5F 
 12479      666C6167 
 12479      00
 12480              	.LASF569:
 12481 2a0f 75706461 		.ascii	"update_flag\000"
 12481      74655F66 
 12481      6C616700 
 12482              	.LASF340:
 12483 2a1b 4359424C 		.ascii	"CYBLE_EVT_CTSS_NOTIFICATION_DISABLED\000"
 12483      455F4556 
 12483      545F4354 
 12483      53535F4E 
 12483      4F544946 
ARM GAS  C:\Users\Administrator\AppData\Local\Temp\ccNQfmEa.s 			page 288


 12484              	.LASF521:
 12485 2a40 47505253 		.ascii	"GPRSPowerOn\000"
 12485      506F7765 
 12485      724F6E00 
 12486              	.LASF287:
 12487 2a4c 4359424C 		.ascii	"CYBLE_EVT_BLSS_INDICATION_DISABLED\000"
 12487      455F4556 
 12487      545F424C 
 12487      53535F49 
 12487      4E444943 
 12488              	.LASF235:
 12489 2a6f 4359424C 		.ascii	"CYBLE_DIS_REG_CERT_DATA\000"
 12489      455F4449 
 12489      535F5245 
 12489      475F4345 
 12489      52545F44 
 12490              	.LASF222:
 12491 2a87 4359424C 		.ascii	"CYBLE_LL_CONN_CH_TYPE\000"
 12491      455F4C4C 
 12491      5F434F4E 
 12491      4E5F4348 
 12491      5F545950 
 12492              	.LASF619:
 12493 2a9d 41444352 		.ascii	"ADCResultCenter\000"
 12493      6573756C 
 12493      7443656E 
 12493      74657200 
 12494              	.LASF50:
 12495 2aad 4359424C 		.ascii	"CYBLE_ERROR_GATT_DB_INVALID_OFFSET\000"
 12495      455F4552 
 12495      524F525F 
 12495      47415454 
 12495      5F44425F 
 12496              	.LASF446:
 12497 2ad0 4359424C 		.ascii	"CYBLE_EVT_SCPSS_NOTIFICATION_DISABLED\000"
 12497      455F4556 
 12497      545F5343 
 12497      5053535F 
 12497      4E4F5449 
 12498              	.LASF352:
 12499 2af6 4359424C 		.ascii	"CYBLE_EVT_ESSS_INDICATION_CONFIRMATION\000"
 12499      455F4556 
 12499      545F4553 
 12499      53535F49 
 12499      4E444943 
 12500              	.LASF24:
 12501 2b1d 6F70656E 		.ascii	"open_door\000"
 12501      5F646F6F 
 12501      7200
 12502              	.LASF533:
 12503 2b27 666C6167 		.ascii	"flag\000"
 12503      00
 12504              	.LASF21:
 12505 2b2c 76616C69 		.ascii	"valid_time\000"
 12505      645F7469 
 12505      6D6500
 12506              	.LASF238:
ARM GAS  C:\Users\Administrator\AppData\Local\Temp\ccNQfmEa.s 			page 289


 12507 2b37 4359424C 		.ascii	"CYBLE_AUTHENTICATION_REQUEST_REPLY\000"
 12507      455F4155 
 12507      5448454E 
 12507      54494341 
 12507      54494F4E 
 12508              	.LASF43:
 12509 2b5a 4359424C 		.ascii	"CYBLE_ERROR_L2CAP_PSM_WRONG_ENCODING\000"
 12509      455F4552 
 12509      524F525F 
 12509      4C324341 
 12509      505F5053 
 12510              	.LASF577:
 12511 2b7f 72656376 		.ascii	"recv_timeout\000"
 12511      5F74696D 
 12511      656F7574 
 12511      00
 12512              	.LASF290:
 12513 2b8c 4359424C 		.ascii	"CYBLE_EVT_BLSS_NOTIFICATION_DISABLED\000"
 12513      455F4556 
 12513      545F424C 
 12513      53535F4E 
 12513      4F544946 
 12514              	.LASF686:
 12515 2bb1 44454645 		.ascii	"DEFEND_ALARM_Read\000"
 12515      4E445F41 
 12515      4C41524D 
 12515      5F526561 
 12515      6400
 12516              	.LASF403:
 12517 2bc3 4359424C 		.ascii	"CYBLE_EVT_HTSC_WRITE_CHAR_RESPONSE\000"
 12517      455F4556 
 12517      545F4854 
 12517      53435F57 
 12517      52495445 
 12518              	.LASF661:
 12519 2be6 73656E64 		.ascii	"send_alarm_info\000"
 12519      5F616C61 
 12519      726D5F69 
 12519      6E666F00 
 12520              	.LASF159:
 12521 2bf6 4359424C 		.ascii	"CYBLE_EVT_MAX\000"
 12521      455F4556 
 12521      545F4D41 
 12521      5800
 12522              	.LASF120:
 12523 2c04 4359424C 		.ascii	"CYBLE_EVT_GAPC_SCAN_START_STOP\000"
 12523      455F4556 
 12523      545F4741 
 12523      50435F53 
 12523      43414E5F 
 12524              	.LASF545:
 12525 2c23 55706C6F 		.ascii	"UploadOpenInfo_Tick\000"
 12525      61644F70 
 12525      656E496E 
 12525      666F5F54 
 12525      69636B00 
 12526              	.LASF265:
ARM GAS  C:\Users\Administrator\AppData\Local\Temp\ccNQfmEa.s 			page 290


 12527 2c37 4359424C 		.ascii	"CYBLE_EVT_ANSS_NOTIFICATION_ENABLED\000"
 12527      455F4556 
 12527      545F414E 
 12527      53535F4E 
 12527      4F544946 
 12528              	.LASF199:
 12529 2c5b 4359424C 		.ascii	"CYBLE_GAPP_ADV_T\000"
 12529      455F4741 
 12529      50505F41 
 12529      44565F54 
 12529      00
 12530              	.LASF97:
 12531 2c6c 4359424C 		.ascii	"CYBLE_GAP_AUTH_FAILED_REASON_T\000"
 12531      455F4741 
 12531      505F4155 
 12531      54485F46 
 12531      41494C45 
 12532              	.LASF134:
 12533 2c8b 4359424C 		.ascii	"CYBLE_EVT_GATTS_WRITE_REQ\000"
 12533      455F4556 
 12533      545F4741 
 12533      5454535F 
 12533      57524954 
 12534              	.LASF660:
 12535 2ca5 57323551 		.ascii	"W25QXX_Read\000"
 12535      58585F52 
 12535      65616400 
 12536              	.LASF191:
 12537 2cb1 61647644 		.ascii	"advData\000"
 12537      61746100 
 12538              	.LASF143:
 12539 2cb9 4359424C 		.ascii	"CYBLE_EVT_GATTS_DATA_SIGNED_CMD_REQ\000"
 12539      455F4556 
 12539      545F4741 
 12539      5454535F 
 12539      44415441 
 12540              	.LASF467:
 12541 2cdd 4359424C 		.ascii	"CYBLE_EVT_UDSC_WRITE_CHAR_RESPONSE\000"
 12541      455F4556 
 12541      545F5544 
 12541      53435F57 
 12541      52495445 
 12542              	.LASF624:
 12543 2d00 6379426C 		.ascii	"cyBle_scanRspData\000"
 12543      655F7363 
 12543      616E5273 
 12543      70446174 
 12543      6100
 12544              	.LASF478:
 12545 2d12 4359424C 		.ascii	"CYBLE_EVT_WPTSC_INDICATION\000"
 12545      455F4556 
 12545      545F5750 
 12545      5453435F 
 12545      494E4449 
 12546              	.LASF112:
 12547 2d2d 4359424C 		.ascii	"CYBLE_EVT_GAP_PASSKEY_DISPLAY_REQUEST\000"
 12547      455F4556 
ARM GAS  C:\Users\Administrator\AppData\Local\Temp\ccNQfmEa.s 			page 291


 12547      545F4741 
 12547      505F5041 
 12547      53534B45 
 12548              	.LASF77:
 12549 2d53 4359424C 		.ascii	"CYBLE_ERROR_IND_DISABLED\000"
 12549      455F4552 
 12549      524F525F 
 12549      494E445F 
 12549      44495341 
 12550              	.LASF76:
 12551 2d6c 4359424C 		.ascii	"CYBLE_ERROR_NTF_DISABLED\000"
 12551      455F4552 
 12551      524F525F 
 12551      4E54465F 
 12551      44495341 
 12552              	.LASF712:
 12553 2d85 4572725F 		.ascii	"Err_Check\000"
 12553      43686563 
 12553      6B00
 12554              	.LASF131:
 12555 2d8f 4359424C 		.ascii	"CYBLE_EVT_GATTC_READ_RSP\000"
 12555      455F4556 
 12555      545F4741 
 12555      5454435F 
 12555      52454144 
 12556              	.LASF23:
 12557 2da8 75736572 		.ascii	"user_info\000"
 12557      5F696E66 
 12557      6F00
 12558              	.LASF56:
 12559 2db2 4359424C 		.ascii	"CYBLE_ERROR_GATT_DB_HANDLE_NOT_FOUND\000"
 12559      455F4552 
 12559      524F525F 
 12559      47415454 
 12559      5F44425F 
 12560              	.LASF150:
 12561 2dd7 4359424C 		.ascii	"CYBLE_EVT_L2CAP_CBFC_CONN_CNF\000"
 12561      455F4556 
 12561      545F4C32 
 12561      4341505F 
 12561      43424643 
 12562              	.LASF501:
 12563 2df5 5265626F 		.ascii	"Reboot_Check\000"
 12563      6F745F43 
 12563      6865636B 
 12563      00
 12564              	.LASF298:
 12565 2e02 4359424C 		.ascii	"CYBLE_EVT_BMSC_WRITE_CHAR_RESPONSE\000"
 12565      455F4556 
 12565      545F424D 
 12565      53435F57 
 12565      52495445 
 12566              	.LASF404:
 12567 2e25 4359424C 		.ascii	"CYBLE_EVT_HTSC_READ_DESCR_RESPONSE\000"
 12567      455F4556 
 12567      545F4854 
 12567      53435F52 
ARM GAS  C:\Users\Administrator\AppData\Local\Temp\ccNQfmEa.s 			page 292


 12567      4541445F 
 12568              	.LASF490:
 12569 2e48 4359424C 		.ascii	"CYBLE_DEBUG_EVT_BLESS_INT\000"
 12569      455F4445 
 12569      4255475F 
 12569      4556545F 
 12569      424C4553 
 12570              	.LASF367:
 12571 2e62 4359424C 		.ascii	"CYBLE_EVT_GLSS_WRITE_CHAR\000"
 12571      455F4556 
 12571      545F474C 
 12571      53535F57 
 12571      52495445 
 12572              	.LASF634:
 12573 2e7c 4379456E 		.ascii	"CyEnterCriticalSection\000"
 12573      74657243 
 12573      72697469 
 12573      63616C53 
 12573      65637469 
 12574              	.LASF474:
 12575 2e93 4359424C 		.ascii	"CYBLE_EVT_WPTSS_INDICATION_DISABLED\000"
 12575      455F4556 
 12575      545F5750 
 12575      5453535F 
 12575      494E4449 
 12576              	.LASF18:
 12577 2eb7 6C6F6E67 		.ascii	"long double\000"
 12577      20646F75 
 12577      626C6500 
 12578              	.LASF565:
 12579 2ec3 7072655F 		.ascii	"pre_port\000"
 12579      706F7274 
 12579      00
 12580              	.LASF607:
 12581 2ecc 68656172 		.ascii	"heartbeat_SendCount\000"
 12581      74626561 
 12581      745F5365 
 12581      6E64436F 
 12581      756E7400 
 12582              	.LASF303:
 12583 2ee0 4359424C 		.ascii	"CYBLE_EVT_CGMSS_NOTIFICATION_ENABLED\000"
 12583      455F4556 
 12583      545F4347 
 12583      4D53535F 
 12583      4E4F5449 
 12584              	.LASF214:
 12585 2f05 4359424C 		.ascii	"CYBLE_LL_PWR_LVL_NEG_6_DBM\000"
 12585      455F4C4C 
 12585      5F505752 
 12585      5F4C564C 
 12585      5F4E4547 
 12586              	.LASF389:
 12587 2f20 4359424C 		.ascii	"CYBLE_EVT_HRSC_NOTIFICATION\000"
 12587      455F4556 
 12587      545F4852 
 12587      53435F4E 
 12587      4F544946 
ARM GAS  C:\Users\Administrator\AppData\Local\Temp\ccNQfmEa.s 			page 293


 12588              	.LASF435:
 12589 2f3c 4359424C 		.ascii	"CYBLE_EVT_RSCSS_INDICATION_CONFIRMATION\000"
 12589      455F4556 
 12589      545F5253 
 12589      4353535F 
 12589      494E4449 
 12590              	.LASF554:
 12591 2f64 746D706D 		.ascii	"tmpmac\000"
 12591      616300
 12592              	.LASF384:
 12593 2f6b 4359424C 		.ascii	"CYBLE_EVT_HIDSC_READ_DESCR_RESPONSE\000"
 12593      455F4556 
 12593      545F4849 
 12593      4453435F 
 12593      52454144 
 12594              	.LASF585:
 12595 2f8f 43757272 		.ascii	"CurrentDataNum\000"
 12595      656E7444 
 12595      6174614E 
 12595      756D00
 12596              	.LASF390:
 12597 2f9e 4359424C 		.ascii	"CYBLE_EVT_HRSC_READ_CHAR_RESPONSE\000"
 12597      455F4556 
 12597      545F4852 
 12597      53435F52 
 12597      4541445F 
 12598              	.LASF275:
 12599 2fc0 4359424C 		.ascii	"CYBLE_EVT_BASC_NOTIFICATION\000"
 12599      455F4556 
 12599      545F4241 
 12599      53435F4E 
 12599      4F544946 
 12600              	.LASF84:
 12601 2fdc 4359424C 		.ascii	"CYBLE_GAP_AUTH_ERROR_NONE\000"
 12601      455F4741 
 12601      505F4155 
 12601      54485F45 
 12601      52524F52 
 12602              	.LASF118:
 12603 2ff6 4359424C 		.ascii	"CYBLE_EVT_GAP_ENCRYPT_CHANGE\000"
 12603      455F4556 
 12603      545F4741 
 12603      505F454E 
 12603      43525950 
 12604              	.LASF22:
 12605 3013 75736572 		.ascii	"user_info_t\000"
 12605      5F696E66 
 12605      6F5F7400 
 12606              	.LASF699:
 12607 301f 52656164 		.ascii	"Read_CenterIpType\000"
 12607      5F43656E 
 12607      74657249 
 12607      70547970 
 12607      6500
 12608              	.LASF595:
 12609 3031 6F70656E 		.ascii	"openinfopage_offset\000"
 12609      696E666F 
ARM GAS  C:\Users\Administrator\AppData\Local\Temp\ccNQfmEa.s 			page 294


 12609      70616765 
 12609      5F6F6666 
 12609      73657400 
 12610              	.LASF68:
 12611 3045 4359424C 		.ascii	"CYBLE_ERROR_GATT_DB_INSUFFICIENT_ENCRYPTION\000"
 12611      455F4552 
 12611      524F525F 
 12611      47415454 
 12611      5F44425F 
 12612              	.LASF251:
 12613 3071 4359424C 		.ascii	"CYBLE_EVT_GATTC_DESCR_DUPLICATION\000"
 12613      455F4556 
 12613      545F4741 
 12613      5454435F 
 12613      44455343 
 12614              	.LASF539:
 12615 3093 6F70656E 		.ascii	"openInfo_card\000"
 12615      496E666F 
 12615      5F636172 
 12615      6400
 12616              	.LASF125:
 12617 30a1 4359424C 		.ascii	"CYBLE_EVT_GATTS_XCNHG_MTU_REQ\000"
 12617      455F4556 
 12617      545F4741 
 12617      5454535F 
 12617      58434E48 
 12618              	.LASF534:
 12619 30bf 6669726D 		.ascii	"firmver\000"
 12619      76657200 
 12620              	.LASF460:
 12621 30c7 4359424C 		.ascii	"CYBLE_EVT_UDSS_NOTIFICATION_ENABLED\000"
 12621      455F4556 
 12621      545F5544 
 12621      53535F4E 
 12621      4F544946 
 12622              	.LASF86:
 12623 30eb 4359424C 		.ascii	"CYBLE_GAP_AUTH_ERROR_OOB_DATA_NOT_AVAILABLE\000"
 12623      455F4741 
 12623      505F4155 
 12623      54485F45 
 12623      52524F52 
 12624              	.LASF651:
 12625 3117 47505253 		.ascii	"GPRS_QuerySimCard\000"
 12625      5F517565 
 12625      72795369 
 12625      6D436172 
 12625      6400
 12626              	.LASF412:
 12627 3129 4359424C 		.ascii	"CYBLE_EVT_LNSS_INDICATION_CONFIRMED\000"
 12627      455F4556 
 12627      545F4C4E 
 12627      53535F49 
 12627      4E444943 
 12628              	.LASF484:
 12629 314d 4359424C 		.ascii	"CYBLE_EVT_WSSS_INDICATION_DISABLED\000"
 12629      455F4556 
 12629      545F5753 
ARM GAS  C:\Users\Administrator\AppData\Local\Temp\ccNQfmEa.s 			page 295


 12629      53535F49 
 12629      4E444943 
 12630              	.LASF653:
 12631 3170 47505253 		.ascii	"GPRS_QueryRssi\000"
 12631      5F517565 
 12631      72795273 
 12631      736900
 12632              	.LASF272:
 12633 317f 4359424C 		.ascii	"CYBLE_EVT_ANSC_WRITE_DESCR_RESPONSE\000"
 12633      455F4556 
 12633      545F414E 
 12633      53435F57 
 12633      52495445 
 12634              	.LASF418:
 12635 31a3 4359424C 		.ascii	"CYBLE_EVT_LNSC_READ_CHAR_RESPONSE\000"
 12635      455F4556 
 12635      545F4C4E 
 12635      53435F52 
 12635      4541445F 
 12636              	.LASF228:
 12637 31c5 4359424C 		.ascii	"CYBLE_DIS_MANUFACTURER_NAME\000"
 12637      455F4449 
 12637      535F4D41 
 12637      4E554641 
 12637      43545552 
 12638              	.LASF513:
 12639 31e1 6C6F6F70 		.ascii	"loop\000"
 12639      00
 12640              	.LASF177:
 12641 31e6 4359424C 		.ascii	"CYBLE_BLESS_ACTIVE\000"
 12641      455F424C 
 12641      4553535F 
 12641      41435449 
 12641      564500
 12642              	.LASF242:
 12643 31f9 4359424C 		.ascii	"CYBLE_EVT_GATTS_INDICATION_ENABLED\000"
 12643      455F4556 
 12643      545F4741 
 12643      5454535F 
 12643      494E4449 
 12644              	.LASF613:
 12645 321c 7265626F 		.ascii	"reboot_count\000"
 12645      6F745F63 
 12645      6F756E74 
 12645      00
 12646              	.LASF7:
 12647 3229 6C6F6E67 		.ascii	"long long unsigned int\000"
 12647      206C6F6E 
 12647      6720756E 
 12647      7369676E 
 12647      65642069 
 12648              	.LASF560:
 12649 3240 67707273 		.ascii	"gprs_state\000"
 12649      5F737461 
 12649      746500
 12650              	.LASF642:
 12651 324b 43794465 		.ascii	"CyDelay\000"
ARM GAS  C:\Users\Administrator\AppData\Local\Temp\ccNQfmEa.s 			page 296


 12651      6C617900 
 12652              	.LASF105:
 12653 3253 4359424C 		.ascii	"CYBLE_EVT_TIMEOUT\000"
 12653      455F4556 
 12653      545F5449 
 12653      4D454F55 
 12653      5400
 12654              	.LASF344:
 12655 3265 4359424C 		.ascii	"CYBLE_EVT_CTSC_READ_DESCR_RESPONSE\000"
 12655      455F4556 
 12655      545F4354 
 12655      53435F52 
 12655      4541445F 
 12656              	.LASF655:
 12657 3288 47505253 		.ascii	"GPRS_SetActive\000"
 12657      5F536574 
 12657      41637469 
 12657      766500
 12658              	.LASF680:
 12659 3297 57726974 		.ascii	"Write_OpenInfo\000"
 12659      655F4F70 
 12659      656E496E 
 12659      666F00
 12660              	.LASF687:
 12661 32a6 52656164 		.ascii	"Read_Open_Qty\000"
 12661      5F4F7065 
 12661      6E5F5174 
 12661      7900
 12662              	.LASF79:
 12663 32b4 4359424C 		.ascii	"CYBLE_ERROR_INVALID_STATE\000"
 12663      455F4552 
 12663      524F525F 
 12663      494E5641 
 12663      4C49445F 
 12664              	.LASF169:
 12665 32ce 4359424C 		.ascii	"CYBLE_GATT_DB_ATTR_HANDLE_T\000"
 12665      455F4741 
 12665      54545F44 
 12665      425F4154 
 12665      54525F48 
 12666              	.LASF153:
 12667 32ea 4359424C 		.ascii	"CYBLE_EVT_L2CAP_CBFC_DATA_READ\000"
 12667      455F4556 
 12667      545F4C32 
 12667      4341505F 
 12667      43424643 
 12668              	.LASF284:
 12669 3309 4359424C 		.ascii	"CYBLE_EVT_BCSC_READ_DESCR_RESPONSE\000"
 12669      455F4556 
 12669      545F4243 
 12669      53435F52 
 12669      4541445F 
 12670              	.LASF170:
 12671 332c 76616C75 		.ascii	"value\000"
 12671      6500
 12672              	.LASF320:
 12673 3332 4359424C 		.ascii	"CYBLE_EVT_CPSC_NOTIFICATION\000"
ARM GAS  C:\Users\Administrator\AppData\Local\Temp\ccNQfmEa.s 			page 297


 12673      455F4556 
 12673      545F4350 
 12673      53435F4E 
 12673      4F544946 
 12674              	.LASF295:
 12675 334e 4359424C 		.ascii	"CYBLE_EVT_BLSC_WRITE_DESCR_RESPONSE\000"
 12675      455F4556 
 12675      545F424C 
 12675      53435F57 
 12675      52495445 
 12676              	.LASF633:
 12677 3372 4379426C 		.ascii	"CyBle_EnterLPM\000"
 12677      655F456E 
 12677      7465724C 
 12677      504D00
 12678              	.LASF417:
 12679 3381 4359424C 		.ascii	"CYBLE_EVT_LNSC_NOTIFICATION\000"
 12679      455F4556 
 12679      545F4C4E 
 12679      53435F4E 
 12679      4F544946 
 12680              	.LASF546:
 12681 339d 4F70656E 		.ascii	"OpenQty\000"
 12681      51747900 
 12682              	.LASF582:
 12683 33a5 47505253 		.ascii	"GPRSCmd_buf1\000"
 12683      436D645F 
 12683      62756631 
 12683      00
 12684              	.LASF583:
 12685 33b2 47505253 		.ascii	"GPRSCmd_buf2\000"
 12685      436D645F 
 12685      62756632 
 12685      00
 12686              	.LASF342:
 12687 33bf 4359424C 		.ascii	"CYBLE_EVT_CTSC_NOTIFICATION\000"
 12687      455F4556 
 12687      545F4354 
 12687      53435F4E 
 12687      4F544946 
 12688              	.LASF589:
 12689 33db 6E657874 		.ascii	"next_network_time\000"
 12689      5F6E6574 
 12689      776F726B 
 12689      5F74696D 
 12689      6500
 12690              	.LASF363:
 12691 33ed 4359424C 		.ascii	"CYBLE_EVT_GLSS_INDICATION_DISABLED\000"
 12691      455F4556 
 12691      545F474C 
 12691      53535F49 
 12691      4E444943 
 12692              	.LASF644:
 12693 3410 4C45445F 		.ascii	"LED_BLUE_Write\000"
 12693      424C5545 
 12693      5F577269 
 12693      746500
ARM GAS  C:\Users\Administrator\AppData\Local\Temp\ccNQfmEa.s 			page 298


 12694              	.LASF249:
 12695 341f 4359424C 		.ascii	"CYBLE_EVT_GATTC_SRVC_DUPLICATION\000"
 12695      455F4556 
 12695      545F4741 
 12695      5454435F 
 12695      53525643 
 12696              	.LASF58:
 12697 3440 4359424C 		.ascii	"CYBLE_ERROR_GATT_DB_HANDLE_IN_GROUP_RANGE\000"
 12697      455F4552 
 12697      524F525F 
 12697      47415454 
 12697      5F44425F 
 12698              	.LASF602:
 12699 346a 75706C6F 		.ascii	"uploadflag_cnt\000"
 12699      6164666C 
 12699      61675F63 
 12699      6E7400
 12700              	.LASF692:
 12701 3479 5744545F 		.ascii	"WDT_ISR_StartEx\000"
 12701      4953525F 
 12701      53746172 
 12701      74457800 
 12702              	.LASF410:
 12703 3489 4359424C 		.ascii	"CYBLE_EVT_LNSS_INDICATION_ENABLED\000"
 12703      455F4556 
 12703      545F4C4E 
 12703      53535F49 
 12703      4E444943 
 12704              	.LASF83:
 12705 34ab 4359424C 		.ascii	"CYBLE_GAP_BD_ADDR_T\000"
 12705      455F4741 
 12705      505F4244 
 12705      5F414444 
 12705      525F5400 
 12706              	.LASF590:
 12707 34bf 6E657874 		.ascii	"next_heartbeat_time\000"
 12707      5F686561 
 12707      72746265 
 12707      61745F74 
 12707      696D6500 
 12708              	.LASF391:
 12709 34d3 4359424C 		.ascii	"CYBLE_EVT_HRSC_WRITE_CHAR_RESPONSE\000"
 12709      455F4556 
 12709      545F4852 
 12709      53435F57 
 12709      52495445 
 12710              	.LASF610:
 12711 34f6 43617264 		.ascii	"Card_ErrCount\000"
 12711      5F457272 
 12711      436F756E 
 12711      7400
 12712              	.LASF682:
 12713 3504 6D656D73 		.ascii	"memset\000"
 12713      657400
 12714              	.LASF174:
 12715 350b 68616E64 		.ascii	"handleValPair\000"
 12715      6C655661 
ARM GAS  C:\Users\Administrator\AppData\Local\Temp\ccNQfmEa.s 			page 299


 12715      6C506169 
 12715      7200
 12716              	.LASF257:
 12717 3519 4359424C 		.ascii	"CYBLE_EVT_ANCSS_NOTIFICATION_DISABLED\000"
 12717      455F4556 
 12717      545F414E 
 12717      4353535F 
 12717      4E4F5449 
 12718              	.LASF522:
 12719 353f 47505253 		.ascii	"GPRSPowerOn_0321\000"
 12719      506F7765 
 12719      724F6E5F 
 12719      30333231 
 12719      00
 12720              	.LASF584:
 12721 3550 43757272 		.ascii	"CurrentCommandPktTotalSize\000"
 12721      656E7443 
 12721      6F6D6D61 
 12721      6E64506B 
 12721      74546F74 
 12722              	.LASF173:
 12723 356b 636F6E6E 		.ascii	"connHandle\000"
 12723      48616E64 
 12723      6C6500
 12724              	.LASF664:
 12725 3576 5254435F 		.ascii	"RTC_GetUnixTime\000"
 12725      47657455 
 12725      6E697854 
 12725      696D6500 
 12726              	.LASF274:
 12727 3586 4359424C 		.ascii	"CYBLE_EVT_BASS_NOTIFICATION_DISABLED\000"
 12727      455F4556 
 12727      545F4241 
 12727      53535F4E 
 12727      4F544946 
 12728              	.LASF192:
 12729 35ab 61647644 		.ascii	"advDataLen\000"
 12729      6174614C 
 12729      656E00
 12730              	.LASF626:
 12731 35b6 70696363 		.ascii	"picc_uid\000"
 12731      5F756964 
 12731      00
 12732              	.LASF312:
 12733 35bf 4359424C 		.ascii	"CYBLE_EVT_CPSS_NOTIFICATION_ENABLED\000"
 12733      455F4556 
 12733      545F4350 
 12733      53535F4E 
 12733      4F544946 
 12734              	.LASF89:
 12735 35e3 4359424C 		.ascii	"CYBLE_GAP_AUTH_ERROR_PAIRING_NOT_SUPPORTED\000"
 12735      455F4741 
 12735      505F4155 
 12735      54485F45 
 12735      52524F52 
 12736              	.LASF668:
 12737 360e 47505253 		.ascii	"GPRS_ConnectPreServer\000"
ARM GAS  C:\Users\Administrator\AppData\Local\Temp\ccNQfmEa.s 			page 300


 12737      5F436F6E 
 12737      6E656374 
 12737      50726553 
 12737      65727665 
 12738              	.LASF60:
 12739 3624 4359424C 		.ascii	"CYBLE_ERROR_GATT_DB_UUID_NOT_IN_BT_SPACE\000"
 12739      455F4552 
 12739      524F525F 
 12739      47415454 
 12739      5F44425F 
 12740              	.LASF470:
 12741 364d 4359424C 		.ascii	"CYBLE_EVT_UDSC_ERROR_RESPONSE\000"
 12741      455F4556 
 12741      545F5544 
 12741      53435F45 
 12741      52524F52 
 12742              	.LASF129:
 12743 366b 4359424C 		.ascii	"CYBLE_EVT_GATTC_FIND_INFO_RSP\000"
 12743      455F4556 
 12743      545F4741 
 12743      5454435F 
 12743      46494E44 
 12744              	.LASF128:
 12745 3689 4359424C 		.ascii	"CYBLE_EVT_GATTC_READ_BY_TYPE_RSP\000"
 12745      455F4556 
 12745      545F4741 
 12745      5454435F 
 12745      52454144 
 12746              	.LASF424:
 12747 36aa 4359424C 		.ascii	"CYBLE_EVT_PASSS_NOTIFICATION_DISABLED\000"
 12747      455F4556 
 12747      545F5041 
 12747      5353535F 
 12747      4E4F5449 
 12748              	.LASF310:
 12749 36d0 4359424C 		.ascii	"CYBLE_EVT_CGMSC_READ_DESCR_RESPONSE\000"
 12749      455F4556 
 12749      545F4347 
 12749      4D53435F 
 12749      52454144 
 12750              	.LASF382:
 12751 36f4 4359424C 		.ascii	"CYBLE_EVT_HIDSC_READ_CHAR_RESPONSE\000"
 12751      455F4556 
 12751      545F4849 
 12751      4453435F 
 12751      52454144 
 12752              	.LASF703:
 12753 3717 4379426C 		.ascii	"CyBle_Start\000"
 12753      655F5374 
 12753      61727400 
 12754              	.LASF493:
 12755 3723 61706952 		.ascii	"apiResult\000"
 12755      6573756C 
 12755      7400
 12756              	.LASF640:
 12757 372d 4379426C 		.ascii	"CyBle_ProcessEvents\000"
 12757      655F5072 
ARM GAS  C:\Users\Administrator\AppData\Local\Temp\ccNQfmEa.s 			page 301


 12757      6F636573 
 12757      73457665 
 12757      6E747300 
 12758              	.LASF505:
 12759 3741 44656665 		.ascii	"Defend_Tick\000"
 12759      6E645F54 
 12759      69636B00 
 12760              	.LASF117:
 12761 374d 4359424C 		.ascii	"CYBLE_EVT_GAP_DEVICE_DISCONNECTED\000"
 12761      455F4556 
 12761      545F4741 
 12761      505F4445 
 12761      56494345 
 12762              	.LASF449:
 12763 376f 4359424C 		.ascii	"CYBLE_EVT_SCPSC_READ_DESCR_RESPONSE\000"
 12763      455F4556 
 12763      545F5343 
 12763      5053435F 
 12763      52454144 
 12764              	.LASF393:
 12765 3793 4359424C 		.ascii	"CYBLE_EVT_HRSC_WRITE_DESCR_RESPONSE\000"
 12765      455F4556 
 12765      545F4852 
 12765      53435F57 
 12765      52495445 
 12766              	.LASF415:
 12767 37b7 4359424C 		.ascii	"CYBLE_EVT_LNSS_WRITE_CHAR\000"
 12767      455F4556 
 12767      545F4C4E 
 12767      53535F57 
 12767      52495445 
 12768              	.LASF353:
 12769 37d1 4359424C 		.ascii	"CYBLE_EVT_ESSS_CHAR_WRITE\000"
 12769      455F4556 
 12769      545F4553 
 12769      53535F43 
 12769      4841525F 
 12770              	.LASF617:
 12771 37eb 6F6E6365 		.ascii	"once_poweron_flag\000"
 12771      5F706F77 
 12771      65726F6E 
 12771      5F666C61 
 12771      6700
 12772              	.LASF135:
 12773 37fd 4359424C 		.ascii	"CYBLE_EVT_GATTC_WRITE_RSP\000"
 12773      455F4556 
 12773      545F4741 
 12773      5454435F 
 12773      57524954 
 12774              	.LASF348:
 12775 3817 4359424C 		.ascii	"CYBLE_EVT_ESSS_NOTIFICATION_ENABLED\000"
 12775      455F4556 
 12775      545F4553 
 12775      53535F4E 
 12775      4F544946 
 12776              	.LASF164:
 12777 383b 4359424C 		.ascii	"CYBLE_STATE_DISCONNECTED\000"
ARM GAS  C:\Users\Administrator\AppData\Local\Temp\ccNQfmEa.s 			page 302


 12777      455F5354 
 12777      4154455F 
 12777      44495343 
 12777      4F4E4E45 
 12778              	.LASF665:
 12779 3854 47505253 		.ascii	"GPRS_ConnectCenterServer\000"
 12779      5F436F6E 
 12779      6E656374 
 12779      43656E74 
 12779      65725365 
 12780              	.LASF370:
 12781 386d 4359424C 		.ascii	"CYBLE_EVT_GLSC_READ_CHAR_RESPONSE\000"
 12781      455F4556 
 12781      545F474C 
 12781      53435F52 
 12781      4541445F 
 12782              	.LASF591:
 12783 388f 6E657874 		.ascii	"next_gprs_operation_time\000"
 12783      5F677072 
 12783      735F6F70 
 12783      65726174 
 12783      696F6E5F 
 12784              	.LASF437:
 12785 38a8 4359424C 		.ascii	"CYBLE_EVT_RSCSC_NOTIFICATION\000"
 12785      455F4556 
 12785      545F5253 
 12785      4353435F 
 12785      4E4F5449 
 12786              	.LASF636:
 12787 38c5 43795379 		.ascii	"CySysPmDeepSleep\000"
 12787      73506D44 
 12787      65657053 
 12787      6C656570 
 12787      00
 12788              	.LASF676:
 12789 38d6 43617264 		.ascii	"CardScan\000"
 12789      5363616E 
 12789      00
 12790              	.LASF115:
 12791 38df 4359424C 		.ascii	"CYBLE_EVT_GAPP_ADVERTISEMENT_START_STOP\000"
 12791      455F4556 
 12791      545F4741 
 12791      50505F41 
 12791      44564552 
 12792              	.LASF603:
 12793 3907 6C617374 		.ascii	"last_index\000"
 12793      5F696E64 
 12793      657800
 12794              	.LASF211:
 12795 3912 4359424C 		.ascii	"CYBLE_GAPP_SCAN_RSP_DATA_T\000"
 12795      455F4741 
 12795      50505F53 
 12795      43414E5F 
 12795      5253505F 
 12796              	.LASF481:
 12797 392d 4359424C 		.ascii	"CYBLE_EVT_WPTSC_READ_DESCR_RESPONSE\000"
 12797      455F4556 
ARM GAS  C:\Users\Administrator\AppData\Local\Temp\ccNQfmEa.s 			page 303


 12797      545F5750 
 12797      5453435F 
 12797      52454144 
 12798              	.LASF259:
 12799 3951 4359424C 		.ascii	"CYBLE_EVT_ANCSC_NOTIFICATION\000"
 12799      455F4556 
 12799      545F414E 
 12799      4353435F 
 12799      4E4F5449 
 12800              	.LASF701:
 12801 396e 5254435F 		.ascii	"RTC_SetUnixTime\000"
 12801      53657455 
 12801      6E697854 
 12801      696D6500 
 12802              	.LASF579:
 12803 397e 47505253 		.ascii	"GPRS_AT_RecFinish\000"
 12803      5F41545F 
 12803      52656346 
 12803      696E6973 
 12803      6800
 12804              	.LASF550:
 12805 3990 6E616D65 		.ascii	"name\000"
 12805      00
 12806              	.LASF309:
 12807 3995 4359424C 		.ascii	"CYBLE_EVT_CGMSC_WRITE_CHAR_RESPONSE\000"
 12807      455F4556 
 12807      545F4347 
 12807      4D53435F 
 12807      57524954 
 12808              	.LASF11:
 12809 39b9 75696E74 		.ascii	"uint8\000"
 12809      3800
 12810              	.LASF402:
 12811 39bf 4359424C 		.ascii	"CYBLE_EVT_HTSC_READ_CHAR_RESPONSE\000"
 12811      455F4556 
 12811      545F4854 
 12811      53435F52 
 12811      4541445F 
 12812              	.LASF542:
 12813 39e1 46697265 		.ascii	"FireAlarm_Tick\000"
 12813      416C6172 
 12813      6D5F5469 
 12813      636B00
 12814              	.LASF98:
 12815 39f0 73656375 		.ascii	"security\000"
 12815      72697479 
 12815      00
 12816              	.LASF430:
 12817 39f9 4359424C 		.ascii	"CYBLE_EVT_PASSC_WRITE_DESCR_RESPONSE\000"
 12817      455F4556 
 12817      545F5041 
 12817      5353435F 
 12817      57524954 
 12818              	.LASF2:
 12819 3a1e 73686F72 		.ascii	"short int\000"
 12819      7420696E 
 12819      7400
ARM GAS  C:\Users\Administrator\AppData\Local\Temp\ccNQfmEa.s 			page 304


 12820              	.LASF588:
 12821 3a28 6375725F 		.ascii	"cur_time\000"
 12821      74696D65 
 12821      00
 12822              	.LASF101:
 12823 3a31 61757468 		.ascii	"authErr\000"
 12823      45727200 
 12824              	.LASF690:
 12825 3a39 4379426C 		.ascii	"CyBle_GapSetLocalName\000"
 12825      655F4761 
 12825      70536574 
 12825      4C6F6361 
 12825      6C4E616D 
 12826              	.LASF296:
 12827 3a4f 4359424C 		.ascii	"CYBLE_EVT_BMSS_WRITE_CHAR\000"
 12827      455F4556 
 12827      545F424D 
 12827      53535F57 
 12827      52495445 
 12828              	.LASF271:
 12829 3a69 4359424C 		.ascii	"CYBLE_EVT_ANSC_READ_DESCR_RESPONSE\000"
 12829      455F4556 
 12829      545F414E 
 12829      53435F52 
 12829      4541445F 
 12830              	.LASF243:
 12831 3a8c 4359424C 		.ascii	"CYBLE_EVT_GATTS_INDICATION_DISABLED\000"
 12831      455F4556 
 12831      545F4741 
 12831      5454535F 
 12831      494E4449 
 12832              	.LASF210:
 12833 3ab0 7363616E 		.ascii	"scanRspDataLen\000"
 12833      52737044 
 12833      6174614C 
 12833      656E00
 12834              	.LASF62:
 12835 3abf 4359424C 		.ascii	"CYBLE_ERROR_GATT_DB_INSUFFICIENT_SECURITY\000"
 12835      455F4552 
 12835      524F525F 
 12835      47415454 
 12835      5F44425F 
 12836              	.LASF570:
 12837 3ae9 75706461 		.ascii	"update_report\000"
 12837      74655F72 
 12837      65706F72 
 12837      7400
 12838              	.LASF605:
 12839 3af7 75706461 		.ascii	"update_timeout_time\000"
 12839      74655F74 
 12839      696D656F 
 12839      75745F74 
 12839      696D6500 
 12840              	.LASF280:
 12841 3b0b 4359424C 		.ascii	"CYBLE_EVT_BCSS_INDICATION_DISABLED\000"
 12841      455F4556 
 12841      545F4243 
ARM GAS  C:\Users\Administrator\AppData\Local\Temp\ccNQfmEa.s 			page 305


 12841      53535F49 
 12841      4E444943 
 12842              	.LASF572:
 12843 3b2e 75706461 		.ascii	"update_offset\000"
 12843      74655F6F 
 12843      66667365 
 12843      7400
 12844              	.LASF307:
 12845 3b3c 4359424C 		.ascii	"CYBLE_EVT_CGMSC_NOTIFICATION\000"
 12845      455F4556 
 12845      545F4347 
 12845      4D53435F 
 12845      4E4F5449 
 12846              	.LASF122:
 12847 3b59 4359424C 		.ascii	"CYBLE_EVT_GATTC_ERROR_RSP\000"
 12847      455F4556 
 12847      545F4741 
 12847      5454435F 
 12847      4552524F 
 12848              	.LASF165:
 12849 3b73 4359424C 		.ascii	"CYBLE_STATE_T\000"
 12849      455F5354 
 12849      4154455F 
 12849      5400
 12850              	.LASF706:
 12851 3b81 47505253 		.ascii	"GPRS_CheckConnectState\000"
 12851      5F436865 
 12851      636B436F 
 12851      6E6E6563 
 12851      74537461 
 12852              	.LASF264:
 12853 3b98 4359424C 		.ascii	"CYBLE_EVT_ANCSC_ERROR_RESPONSE\000"
 12853      455F4556 
 12853      545F414E 
 12853      4353435F 
 12853      4552524F 
 12854              	.LASF278:
 12855 3bb7 4359424C 		.ascii	"CYBLE_EVT_BASC_WRITE_DESCR_RESPONSE\000"
 12855      455F4556 
 12855      545F4241 
 12855      53435F57 
 12855      52495445 
 12856              	.LASF362:
 12857 3bdb 4359424C 		.ascii	"CYBLE_EVT_GLSS_INDICATION_ENABLED\000"
 12857      455F4556 
 12857      545F474C 
 12857      53535F49 
 12857      4E444943 
 12858              	.LASF267:
 12859 3bfd 4359424C 		.ascii	"CYBLE_EVT_ANSS_CHAR_WRITE\000"
 12859      455F4556 
 12859      545F414E 
 12859      53535F43 
 12859      4841525F 
 12860              	.LASF196:
 12861 3c17 4359424C 		.ascii	"CYBLE_GAPP_SCANNABLE_UNDIRECTED_ADV\000"
 12861      455F4741 
ARM GAS  C:\Users\Administrator\AppData\Local\Temp\ccNQfmEa.s 			page 306


 12861      50505F53 
 12861      43414E4E 
 12861      41424C45 
 12862              	.LASF519:
 12863 3c3b 446F6F72 		.ascii	"DoorOpen\000"
 12863      4F70656E 
 12863      00
 12864              	.LASF149:
 12865 3c44 4359424C 		.ascii	"CYBLE_EVT_L2CAP_CBFC_CONN_IND\000"
 12865      455F4556 
 12865      545F4C32 
 12865      4341505F 
 12865      43424643 
 12866              	.LASF138:
 12867 3c62 4359424C 		.ascii	"CYBLE_EVT_GATTS_EXEC_WRITE_REQ\000"
 12867      455F4556 
 12867      545F4741 
 12867      5454535F 
 12867      45584543 
 12868              	.LASF109:
 12869 3c81 4359424C 		.ascii	"CYBLE_EVT_GAPC_SCAN_PROGRESS_RESULT\000"
 12869      455F4556 
 12869      545F4741 
 12869      50435F53 
 12869      43414E5F 
 12870              	.LASF515:
 12871 3ca5 4C65645F 		.ascii	"Led_RedON\000"
 12871      5265644F 
 12871      4E00
 12872              	.LASF341:
 12873 3caf 4359424C 		.ascii	"CYBLE_EVT_CTSS_CHAR_WRITE\000"
 12873      455F4556 
 12873      545F4354 
 12873      53535F43 
 12873      4841525F 
 12874              	.LASF457:
 12875 3cc9 4359424C 		.ascii	"CYBLE_EVT_UDSS_INDICATION_ENABLED\000"
 12875      455F4556 
 12875      545F5544 
 12875      53535F49 
 12875      4E444943 
 12876              	.LASF693:
 12877 3ceb 5744545F 		.ascii	"WDT_Start\000"
 12877      53746172 
 12877      7400
 12878              	.LASF498:
 12879 3cf5 41707043 		.ascii	"AppCallback\000"
 12879      616C6C62 
 12879      61636B00 
 12880              	.LASF663:
 12881 3d01 50726F74 		.ascii	"Protocol_CmdParse\000"
 12881      6F636F6C 
 12881      5F436D64 
 12881      50617273 
 12881      6500
 12882              	.LASF39:
 12883 3d13 4359424C 		.ascii	"CYBLE_ERROR_GAP_ROLE\000"
ARM GAS  C:\Users\Administrator\AppData\Local\Temp\ccNQfmEa.s 			page 307


 12883      455F4552 
 12883      524F525F 
 12883      4741505F 
 12883      524F4C45 
 12884              	.LASF396:
 12885 3d28 4359424C 		.ascii	"CYBLE_EVT_HTSS_INDICATION_ENABLED\000"
 12885      455F4556 
 12885      545F4854 
 12885      53535F49 
 12885      4E444943 
 12886              	.LASF541:
 12887 3d4a 6F70656E 		.ascii	"openInfo_Key\000"
 12887      496E666F 
 12887      5F4B6579 
 12887      00
 12888              	.LASF468:
 12889 3d57 4359424C 		.ascii	"CYBLE_EVT_UDSC_READ_DESCR_RESPONSE\000"
 12889      455F4556 
 12889      545F5544 
 12889      53435F52 
 12889      4541445F 
 12890              	.LASF702:
 12891 3d7a 6E66635F 		.ascii	"nfc_init\000"
 12891      696E6974 
 12891      00
 12892              	.LASF614:
 12893 3d83 6D656D5F 		.ascii	"mem_var\000"
 12893      76617200 
 12894              	.LASF276:
 12895 3d8b 4359424C 		.ascii	"CYBLE_EVT_BASC_READ_CHAR_RESPONSE\000"
 12895      455F4556 
 12895      545F4241 
 12895      53435F52 
 12895      4541445F 
 12896              	.LASF369:
 12897 3dad 4359424C 		.ascii	"CYBLE_EVT_GLSC_NOTIFICATION\000"
 12897      455F4556 
 12897      545F474C 
 12897      53435F4E 
 12897      4F544946 
 12898              	.LASF81:
 12899 3dc9 62644164 		.ascii	"bdAddr\000"
 12899      647200
 12900              	.LASF447:
 12901 3dd0 4359424C 		.ascii	"CYBLE_EVT_SCPSS_SCAN_INT_WIN_CHAR_WRITE\000"
 12901      455F4556 
 12901      545F5343 
 12901      5053535F 
 12901      5343414E 
 12902              	.LASF409:
 12903 3df8 4359424C 		.ascii	"CYBLE_EVT_LLSC_WRITE_CHAR_RESPONSE\000"
 12903      455F4556 
 12903      545F4C4C 
 12903      53435F57 
 12903      52495445 
 12904              	.LASF187:
 12905 3e1b 4359424C 		.ascii	"CYBLE_BLESS_STATE_ECO_STABLE\000"
ARM GAS  C:\Users\Administrator\AppData\Local\Temp\ccNQfmEa.s 			page 308


 12905      455F424C 
 12905      4553535F 
 12905      53544154 
 12905      455F4543 
 12906              	.LASF218:
 12907 3e38 4359424C 		.ascii	"CYBLE_LL_PWR_LVL_0_DBM\000"
 12907      455F4C4C 
 12907      5F505752 
 12907      5F4C564C 
 12907      5F305F44 
 12908              	.LASF330:
 12909 3e4f 4359424C 		.ascii	"CYBLE_EVT_CSCSS_INDICATION_DISABLED\000"
 12909      455F4556 
 12909      545F4353 
 12909      4353535F 
 12909      494E4449 
 12910              	.LASF647:
 12911 3e73 4D475F53 		.ascii	"MG_STATE_Read\000"
 12911      54415445 
 12911      5F526561 
 12911      6400
 12912              	.LASF180:
 12913 3e81 4359424C 		.ascii	"CYBLE_BLESS_HIBERNATE\000"
 12913      455F424C 
 12913      4553535F 
 12913      48494245 
 12913      524E4154 
 12914              	.LASF221:
 12915 3e97 4359424C 		.ascii	"CYBLE_LL_ADV_CH_TYPE\000"
 12915      455F4C4C 
 12915      5F414456 
 12915      5F43485F 
 12915      54595045 
 12916              	.LASF299:
 12917 3eac 4359424C 		.ascii	"CYBLE_EVT_BMSC_READ_DESCR_RESPONSE\000"
 12917      455F4556 
 12917      545F424D 
 12917      53435F52 
 12917      4541445F 
 12918              	.LASF158:
 12919 3ecf 4359424C 		.ascii	"CYBLE_EVT_LE_PING_AUTH_TIMEOUT\000"
 12919      455F4556 
 12919      545F4C45 
 12919      5F50494E 
 12919      475F4155 
 12920              	.LASF80:
 12921 3eee 4359424C 		.ascii	"CYBLE_API_RESULT_T\000"
 12921      455F4150 
 12921      495F5245 
 12921      53554C54 
 12921      5F5400
 12922              	.LASF301:
 12923 3f01 4359424C 		.ascii	"CYBLE_EVT_CGMSS_INDICATION_DISABLED\000"
 12923      455F4556 
 12923      545F4347 
 12923      4D53535F 
 12923      494E4449 
ARM GAS  C:\Users\Administrator\AppData\Local\Temp\ccNQfmEa.s 			page 309


 12924              	.LASF190:
 12925 3f25 4359424C 		.ascii	"CYBLE_BLESS_STATE_INVALID\000"
 12925      455F424C 
 12925      4553535F 
 12925      53544154 
 12925      455F494E 
 12926              	.LASF266:
 12927 3f3f 4359424C 		.ascii	"CYBLE_EVT_ANSS_NOTIFICATION_DISABLED\000"
 12927      455F4556 
 12927      545F414E 
 12927      53535F4E 
 12927      4F544946 
 12928              	.LASF537:
 12929 3f64 63617264 		.ascii	"card_id\000"
 12929      5F696400 
 12930              	.LASF255:
 12931 3f6c 4359424C 		.ascii	"CYBLE_EVT_GATTC_DISCOVERY_COMPLETE\000"
 12931      455F4556 
 12931      545F4741 
 12931      5454435F 
 12931      44495343 
 12932              	.LASF305:
 12933 3f8f 4359424C 		.ascii	"CYBLE_EVT_CGMSS_WRITE_CHAR\000"
 12933      455F4556 
 12933      545F4347 
 12933      4D53535F 
 12933      57524954 
 12934              	.LASF373:
 12935 3faa 4359424C 		.ascii	"CYBLE_EVT_GLSC_WRITE_DESCR_RESPONSE\000"
 12935      455F4556 
 12935      545F474C 
 12935      53435F57 
 12935      52495445 
 12936              	.LASF662:
 12937 3fce 57726974 		.ascii	"Write_UpdateInfo\000"
 12937      655F5570 
 12937      64617465 
 12937      496E666F 
 12937      00
 12938              	.LASF141:
 12939 3fdf 4359424C 		.ascii	"CYBLE_EVT_GATTC_HANDLE_VALUE_IND\000"
 12939      455F4556 
 12939      545F4741 
 12939      5454435F 
 12939      48414E44 
 12940              	.LASF326:
 12941 4000 4359424C 		.ascii	"CYBLE_EVT_CPSC_SCAN_PROGRESS_RESULT\000"
 12941      455F4556 
 12941      545F4350 
 12941      53435F53 
 12941      43414E5F 
 12942              	.LASF441:
 12943 4024 4359424C 		.ascii	"CYBLE_EVT_RSCSC_READ_DESCR_RESPONSE\000"
 12943      455F4556 
 12943      545F5253 
 12943      4353435F 
 12943      52454144 
ARM GAS  C:\Users\Administrator\AppData\Local\Temp\ccNQfmEa.s 			page 310


 12944              	.LASF42:
 12945 4048 4359424C 		.ascii	"CYBLE_ERROR_SEC_FAILED\000"
 12945      455F4552 
 12945      524F525F 
 12945      5345435F 
 12945      4641494C 
 12946              	.LASF508:
 12947 405f 626C654D 		.ascii	"bleMode\000"
 12947      6F646500 
 12948              	.LASF108:
 12949 4067 4359424C 		.ascii	"CYBLE_EVT_STACK_BUSY_STATUS\000"
 12949      455F4556 
 12949      545F5354 
 12949      41434B5F 
 12949      42555359 
 12950              	.LASF176:
 12951 4083 4359424C 		.ascii	"CYBLE_GATTS_WRITE_CMD_REQ_PARAM_T\000"
 12951      455F4741 
 12951      5454535F 
 12951      57524954 
 12951      455F434D 
 12952              	.LASF496:
 12953 40a5 626C6553 		.ascii	"bleSsPowerLevel\000"
 12953      73506F77 
 12953      65724C65 
 12953      76656C00 
 12954              	.LASF507:
 12955 40b5 506F7765 		.ascii	"PowerOnCheck_Tick\000"
 12955      724F6E43 
 12955      6865636B 
 12955      5F546963 
 12955      6B00
 12956              	.LASF405:
 12957 40c7 4359424C 		.ascii	"CYBLE_EVT_HTSC_WRITE_DESCR_RESPONSE\000"
 12957      455F4556 
 12957      545F4854 
 12957      53435F57 
 12957      52495445 
 12958              	.LASF121:
 12959 40eb 4359424C 		.ascii	"CYBLE_EVT_GAP_KEYINFO_EXCHNGE_CMPLT\000"
 12959      455F4556 
 12959      545F4741 
 12959      505F4B45 
 12959      59494E46 
 12960              	.LASF571:
 12961 410f 75706461 		.ascii	"update_page\000"
 12961      74655F70 
 12961      61676500 
 12962              	.LASF524:
 12963 411b 52657365 		.ascii	"ResetGPRS\000"
 12963      74475052 
 12963      5300
 12964              	.LASF482:
 12965 4125 4359424C 		.ascii	"CYBLE_EVT_WPTSC_WRITE_DESCR_RESPONSE\000"
 12965      455F4556 
 12965      545F5750 
 12965      5453435F 
ARM GAS  C:\Users\Administrator\AppData\Local\Temp\ccNQfmEa.s 			page 311


 12965      57524954 
 12966              	.LASF227:
 12967 414a 4359424C 		.ascii	"CYBLE_BLESS_PWR_IN_DB_T\000"
 12967      455F424C 
 12967      4553535F 
 12967      5057525F 
 12967      494E5F44 
 12968              	.LASF510:
 12969 4162 4C6F7750 		.ascii	"LowPowerImplementation\000"
 12969      6F776572 
 12969      496D706C 
 12969      656D656E 
 12969      74617469 
 12970              	.LASF223:
 12971 4179 4359424C 		.ascii	"CYBLE_LL_MAX_CH_TYPE\000"
 12971      455F4C4C 
 12971      5F4D4158 
 12971      5F43485F 
 12971      54595045 
 12972              	.LASF146:
 12973 418e 4359424C 		.ascii	"CYBLE_EVT_L2CAP_CONN_PARAM_UPDATE_REQ\000"
 12973      455F4556 
 12973      545F4C32 
 12973      4341505F 
 12973      434F4E4E 
 12974              	.LASF304:
 12975 41b4 4359424C 		.ascii	"CYBLE_EVT_CGMSS_NOTIFICATION_DISABLED\000"
 12975      455F4556 
 12975      545F4347 
 12975      4D53535F 
 12975      4E4F5449 
 12976              	.LASF622:
 12977 41da 6379426C 		.ascii	"cyBle_discoveryData\000"
 12977      655F6469 
 12977      73636F76 
 12977      65727944 
 12977      61746100 
 12978              	.LASF675:
 12979 41ee 426F6F74 		.ascii	"Bootloadable_Load\000"
 12979      6C6F6164 
 12979      61626C65 
 12979      5F4C6F61 
 12979      6400
 12980              	.LASF652:
 12981 4200 47505253 		.ascii	"GPRS_QueryCREG\000"
 12981      5F517565 
 12981      72794352 
 12981      454700
 12982              	.LASF74:
 12983 420f 4359424C 		.ascii	"CYBLE_CHAR_DISC_DONE\000"
 12983      455F4348 
 12983      41525F44 
 12983      4953435F 
 12983      444F4E45 
 12984              	.LASF246:
 12985 4224 4359424C 		.ascii	"CYBLE_EVT_GATTC_INCL_DISCOVERY_FAILED\000"
 12985      455F4556 
ARM GAS  C:\Users\Administrator\AppData\Local\Temp\ccNQfmEa.s 			page 312


 12985      545F4741 
 12985      5454435F 
 12985      494E434C 
 12986              	.LASF3:
 12987 424a 73686F72 		.ascii	"short unsigned int\000"
 12987      7420756E 
 12987      7369676E 
 12987      65642069 
 12987      6E7400
 12988              	.LASF65:
 12989 425d 4359424C 		.ascii	"CYBLE_ERROR_GATT_DB_INCORRECT_UUID_FRMT\000"
 12989      455F4552 
 12989      524F525F 
 12989      47415454 
 12989      5F44425F 
 12990              	.LASF575:
 12991 4285 4D61635F 		.ascii	"Mac_Addr\000"
 12991      41646472 
 12991      00
 12992              	.LASF205:
 12993 428e 64697265 		.ascii	"directAddr\000"
 12993      63744164 
 12993      647200
 12994              	.LASF162:
 12995 4299 4359424C 		.ascii	"CYBLE_STATE_CONNECTED\000"
 12995      455F5354 
 12995      4154455F 
 12995      434F4E4E 
 12995      45435445 
 12996              	.LASF28:
 12997 42af 61637475 		.ascii	"actualLen\000"
 12997      616C4C65 
 12997      6E00
 12998              	.LASF553:
 12999 42b9 6D61635F 		.ascii	"mac_inflash\000"
 12999      696E666C 
 12999      61736800 
 13000              	.LASF673:
 13001 42c5 436D645F 		.ascii	"Cmd_Protocol_ParaInit\000"
 13001      50726F74 
 13001      6F636F6C 
 13001      5F506172 
 13001      61496E69 
 13002              	.LASF206:
 13003 42db 61647643 		.ascii	"advChannelMap\000"
 13003      68616E6E 
 13003      656C4D61 
 13003      7000
 13004              	.LASF258:
 13005 42e9 4359424C 		.ascii	"CYBLE_EVT_ANCSS_WRITE_CHAR\000"
 13005      455F4556 
 13005      545F414E 
 13005      4353535F 
 13005      57524954 
 13006              	.LASF596:
 13007 4304 75706C6F 		.ascii	"uploadpolling_stop\000"
 13007      6164706F 
ARM GAS  C:\Users\Administrator\AppData\Local\Temp\ccNQfmEa.s 			page 313


 13007      6C6C696E 
 13007      675F7374 
 13007      6F7000
 13008              	.LASF368:
 13009 4317 4359424C 		.ascii	"CYBLE_EVT_GLSC_INDICATION\000"
 13009      455F4556 
 13009      545F474C 
 13009      53435F49 
 13009      4E444943 
 13010              	.LASF194:
 13011 4331 4359424C 		.ascii	"CYBLE_GAPP_CONNECTABLE_UNDIRECTED_ADV\000"
 13011      455F4741 
 13011      50505F43 
 13011      4F4E4E45 
 13011      43544142 
 13012              	.LASF318:
 13013 4357 4359424C 		.ascii	"CYBLE_EVT_CPSS_BROADCAST_DISABLED\000"
 13013      455F4556 
 13013      545F4350 
 13013      53535F42 
 13013      524F4144 
 13014              	.LASF564:
 13015 4379 7072655F 		.ascii	"pre_ip\000"
 13015      697000
 13016              	.LASF667:
 13017 4380 47505253 		.ascii	"GPRS_ClosedConnect\000"
 13017      5F436C6F 
 13017      73656443 
 13017      6F6E6E65 
 13017      637400
 13018              	.LASF167:
 13019 4393 61747449 		.ascii	"attId\000"
 13019      6400
 13020              	.LASF32:
 13021 4399 4359424C 		.ascii	"CYBLE_ERROR_INVALID_OPERATION\000"
 13021      455F4552 
 13021      524F525F 
 13021      494E5641 
 13021      4C49445F 
 13022              	.LASF638:
 13023 43b7 43794578 		.ascii	"CyExitCriticalSection\000"
 13023      69744372 
 13023      69746963 
 13023      616C5365 
 13023      6374696F 
 13024              	.LASF107:
 13025 43cd 4359424C 		.ascii	"CYBLE_EVT_HCI_STATUS\000"
 13025      455F4556 
 13025      545F4843 
 13025      495F5354 
 13025      41545553 
 13026              	.LASF506:
 13027 43e2 4D674368 		.ascii	"MgCheck_Tick\000"
 13027      65636B5F 
 13027      5469636B 
 13027      00
 13028              	.LASF124:
ARM GAS  C:\Users\Administrator\AppData\Local\Temp\ccNQfmEa.s 			page 314


 13029 43ef 4359424C 		.ascii	"CYBLE_EVT_GATT_DISCONNECT_IND\000"
 13029      455F4556 
 13029      545F4741 
 13029      54545F44 
 13029      4953434F 
 13030              	.LASF241:
 13031 440d 4359424C 		.ascii	"CYBLE_KEY_EXCHANGE_INFO_REQUEST_REPLY\000"
 13031      455F4B45 
 13031      595F4558 
 13031      4348414E 
 13031      47455F49 
 13032              	.LASF156:
 13033 4433 4359424C 		.ascii	"CYBLE_EVT_L2CAP_CBFC_DATA_WRITE_IND\000"
 13033      455F4556 
 13033      545F4C32 
 13033      4341505F 
 13033      43424643 
 13034              	.LASF239:
 13035 4457 4359424C 		.ascii	"CYBLE_PASSKEY_ENTRY_REQUEST_REPLY\000"
 13035      455F5041 
 13035      53534B45 
 13035      595F454E 
 13035      5452595F 
 13036              	.LASF648:
 13037 4479 47505253 		.ascii	"GPRS_PWRKEY_Write\000"
 13037      5F505752 
 13037      4B45595F 
 13037      57726974 
 13037      6500
 13038              	.LASF689:
 13039 448b 52656164 		.ascii	"Read_OpenInfo\000"
 13039      5F4F7065 
 13039      6E496E66 
 13039      6F00
 13040              	.LASF694:
 13041 4499 55415254 		.ascii	"UART_433_tx_Write\000"
 13041      5F343333 
 13041      5F74785F 
 13041      57726974 
 13041      6500
 13042              	.LASF285:
 13043 44ab 4359424C 		.ascii	"CYBLE_EVT_BCSC_WRITE_DESCR_RESPONSE\000"
 13043      455F4556 
 13043      545F4243 
 13043      53435F57 
 13043      52495445 
 13044              	.LASF463:
 13045 44cf 4359424C 		.ascii	"CYBLE_EVT_UDSS_WRITE_CHAR\000"
 13045      455F4556 
 13045      545F5544 
 13045      53535F57 
 13045      52495445 
 13046              	.LASF536:
 13047 44e9 43415244 		.ascii	"CARD_Tick\000"
 13047      5F546963 
 13047      6B00
 13048              	.LASF681:
ARM GAS  C:\Users\Administrator\AppData\Local\Temp\ccNQfmEa.s 			page 315


 13049 44f3 73656E64 		.ascii	"send_upload_open_info\000"
 13049      5F75706C 
 13049      6F61645F 
 13049      6F70656E 
 13049      5F696E66 
 13050              	.LASF268:
 13051 4509 4359424C 		.ascii	"CYBLE_EVT_ANSC_NOTIFICATION\000"
 13051      455F4556 
 13051      545F414E 
 13051      53435F4E 
 13051      4F544946 
 13052              	.LASF36:
 13053 4525 4359424C 		.ascii	"CYBLE_ERROR_NO_CONNECTION\000"
 13053      455F4552 
 13053      524F525F 
 13053      4E4F5F43 
 13053      4F4E4E45 
 13054              	.LASF376:
 13055 453f 4359424C 		.ascii	"CYBLE_EVT_HIDSS_BOOT_MODE_ENTER\000"
 13055      455F4556 
 13055      545F4849 
 13055      4453535F 
 13055      424F4F54 
 13056              	.LASF142:
 13057 455f 4359424C 		.ascii	"CYBLE_EVT_GATTS_HANDLE_VALUE_CNF\000"
 13057      455F4556 
 13057      545F4741 
 13057      5454535F 
 13057      48414E44 
 13058              	.LASF337:
 13059 4580 4359424C 		.ascii	"CYBLE_EVT_CSCSC_READ_DESCR_RESPONSE\000"
 13059      455F4556 
 13059      545F4353 
 13059      4353435F 
 13059      52454144 
 13060              	.LASF12:
 13061 45a4 75696E74 		.ascii	"uint16\000"
 13061      313600
 13062              	.LASF261:
 13063 45ab 4359424C 		.ascii	"CYBLE_EVT_ANCSC_WRITE_CHAR_RESPONSE\000"
 13063      455F4556 
 13063      545F414E 
 13063      4353435F 
 13063      57524954 
 13064              	.LASF203:
 13065 45cf 6F776E41 		.ascii	"ownAddrType\000"
 13065      64647254 
 13065      79706500 
 13066              	.LASF40:
 13067 45db 4359424C 		.ascii	"CYBLE_ERROR_TX_POWER_READ\000"
 13067      455F4552 
 13067      524F525F 
 13067      54585F50 
 13067      4F574552 
 13068              	.LASF431:
 13069 45f5 4359424C 		.ascii	"CYBLE_EVT_RSCSS_NOTIFICATION_ENABLED\000"
 13069      455F4556 
ARM GAS  C:\Users\Administrator\AppData\Local\Temp\ccNQfmEa.s 			page 316


 13069      545F5253 
 13069      4353535F 
 13069      4E4F5449 
 13070              	.LASF487:
 13071 461a 4359424C 		.ascii	"CYBLE_EVT_WSSC_READ_CHAR_RESPONSE\000"
 13071      455F4556 
 13071      545F5753 
 13071      53435F52 
 13071      4541445F 
 13072              	.LASF188:
 13073 463c 4359424C 		.ascii	"CYBLE_BLESS_STATE_DEEPSLEEP\000"
 13073      455F424C 
 13073      4553535F 
 13073      53544154 
 13073      455F4445 
 13074              	.LASF401:
 13075 4658 4359424C 		.ascii	"CYBLE_EVT_HTSC_INDICATION\000"
 13075      455F4556 
 13075      545F4854 
 13075      53435F49 
 13075      4E444943 
 13076              	.LASF559:
 13077 4672 4C45445F 		.ascii	"LED_State\000"
 13077      53746174 
 13077      6500
 13078              	.LASF532:
 13079 467c 55706461 		.ascii	"Updatealarm_check\000"
 13079      7465616C 
 13079      61726D5F 
 13079      63686563 
 13079      6B00
 13080              	.LASF606:
 13081 468e 67707273 		.ascii	"gprs_operation_ErrCount\000"
 13081      5F6F7065 
 13081      72617469 
 13081      6F6E5F45 
 13081      7272436F 
 13082              	.LASF374:
 13083 46a6 4359424C 		.ascii	"CYBLE_EVT_HIDSS_NOTIFICATION_ENABLED\000"
 13083      455F4556 
 13083      545F4849 
 13083      4453535F 
 13083      4E4F5449 
 13084              	.LASF398:
 13085 46cb 4359424C 		.ascii	"CYBLE_EVT_HTSS_INDICATION_CONFIRMED\000"
 13085      455F4556 
 13085      545F4854 
 13085      53535F49 
 13085      4E444943 
 13086              	.LASF654:
 13087 46ef 47505253 		.ascii	"GPRS_SetAPN\000"
 13087      5F536574 
 13087      41504E00 
 13088              	.LASF201:
 13089 46fb 61647649 		.ascii	"advIntvMax\000"
 13089      6E74764D 
 13089      617800
ARM GAS  C:\Users\Administrator\AppData\Local\Temp\ccNQfmEa.s 			page 317


 13090              	.LASF475:
 13091 4706 4359424C 		.ascii	"CYBLE_EVT_WPTSS_INDICATION_CONFIRMED\000"
 13091      455F4556 
 13091      545F5750 
 13091      5453535F 
 13091      494E4449 
 13092              	.LASF388:
 13093 472b 4359424C 		.ascii	"CYBLE_EVT_HRSS_NOTIFICATION_DISABLED\000"
 13093      455F4556 
 13093      545F4852 
 13093      53535F4E 
 13093      4F544946 
 13094              		.ident	"GCC: (GNU Tools for ARM Embedded Processors) 5.4.1 20160609 (release) [ARM/embedded-5-bran
