ARM GAS  C:\Users\Administrator\AppData\Local\Temp\ccFc2yHX.s 			page 1


   1              		.syntax unified
   2              		.cpu cortex-m0
   3              		.fpu softvfp
   4              		.eabi_attribute 20, 1
   5              		.eabi_attribute 21, 1
   6              		.eabi_attribute 23, 3
   7              		.eabi_attribute 24, 1
   8              		.eabi_attribute 25, 1
   9              		.eabi_attribute 26, 1
  10              		.eabi_attribute 30, 4
  11              		.eabi_attribute 34, 0
  12              		.eabi_attribute 18, 4
  13              		.thumb
  14              		.syntax unified
  15              		.file	"OTAMandatory.c"
  16              		.text
  17              	.Ltext0:
  18              		.cfi_sections	.debug_frame
  19              		.section	.text.Bootloader_Start_c,"ax",%progbits
  20              		.align	1
  21              		.global	Bootloader_Start_c
  22              		.code	16
  23              		.thumb_func
  24              		.type	Bootloader_Start_c, %function
  25              	Bootloader_Start_c:
  26              	.LFB63:
  27              		.file 1 "OTAMandatory.c"
   1:OTAMandatory.c **** /*******************************************************************************
   2:OTAMandatory.c **** * File Name: OTAMandatory.c
   3:OTAMandatory.c **** *
   4:OTAMandatory.c **** * Version: 1.30
   5:OTAMandatory.c **** *
   6:OTAMandatory.c **** * Description:
   7:OTAMandatory.c **** *  Provides an API that implement core functionality of OTA.
   8:OTAMandatory.c **** *
   9:OTAMandatory.c **** * Hardware Dependency:
  10:OTAMandatory.c **** *  CY8CKIT-042 BLE
  11:OTAMandatory.c **** *
  12:OTAMandatory.c **** ********************************************************************************
  13:OTAMandatory.c **** * Copyright 2014-2015, Cypress Semiconductor Corporation. All rights reserved.
  14:OTAMandatory.c **** * This software is owned by Cypress Semiconductor Corporation and is protected
  15:OTAMandatory.c **** * by and subject to worldwide patent and copyright laws and treaties.
  16:OTAMandatory.c **** * Therefore, you may use this software only as provided in the license agreement
  17:OTAMandatory.c **** * accompanying the software package from which you obtained this software.
  18:OTAMandatory.c **** * CYPRESS AND ITS SUPPLIERS MAKE NO WARRANTY OF ANY KIND, EXPRESS OR IMPLIED,
  19:OTAMandatory.c **** * WITH REGARD TO THIS SOFTWARE, INCLUDING, BUT NOT LIMITED TO, NONINFRINGEMENT,
  20:OTAMandatory.c **** * IMPLIED WARRANTIES OF MERCHANTABILITY AND FITNESS FOR A PARTICULAR PURPOSE.
  21:OTAMandatory.c **** *******************************************************************************/
  22:OTAMandatory.c **** #include "cytypes.h"
  23:OTAMandatory.c **** #include "OTAMandatory.h"
  24:OTAMandatory.c **** #include "debug.h"
  25:OTAMandatory.c **** #include "common.h"
  26:OTAMandatory.c **** 
  27:OTAMandatory.c **** #if defined(__ARMCC_VERSION)
  28:OTAMandatory.c ****     /*******************************************************************************
  29:OTAMandatory.c ****     * Following code implements re-initialization of separate RAM segment containing
  30:OTAMandatory.c ****     * data that is required for BLE Stack operation.
ARM GAS  C:\Users\Administrator\AppData\Local\Temp\ccFc2yHX.s 			page 2


  31:OTAMandatory.c ****     * This code is used in case of MDK compiler.
  32:OTAMandatory.c ****     *******************************************************************************/
  33:OTAMandatory.c ****     __attribute__ ((section(".bootloaderruntype"), zero_init))
  34:OTAMandatory.c ****     volatile uint32 CyReturnToBootloaddableAddress;
  35:OTAMandatory.c ****     extern void Bootloader__main(void);
  36:OTAMandatory.c ****     void InitializeBootloaderSRAM(void);
  37:OTAMandatory.c ****     extern int main(void);
  38:OTAMandatory.c ****     extern int $Super$$main(void);
  39:OTAMandatory.c ****     extern void initialize_psoc(void);
  40:OTAMandatory.c **** 
  41:OTAMandatory.c ****     /*******************************************************************************
  42:OTAMandatory.c ****     * Function Name: _platform_post_lib_init()
  43:OTAMandatory.c ****     ********************************************************************************
  44:OTAMandatory.c ****     *
  45:OTAMandatory.c ****     * Summary:
  46:OTAMandatory.c ****     *   This function is called by MDK compiler startup code.
  47:OTAMandatory.c ****     *
  48:OTAMandatory.c ****     * Parameters:
  49:OTAMandatory.c ****     *   None
  50:OTAMandatory.c ****     *
  51:OTAMandatory.c ****     *******************************************************************************/
  52:OTAMandatory.c ****     void _platform_post_lib_init()
  53:OTAMandatory.c ****     {
  54:OTAMandatory.c ****         initialize_psoc();
  55:OTAMandatory.c ****         InitializeBootloaderSRAM();
  56:OTAMandatory.c ****     }
  57:OTAMandatory.c **** #elif defined (__GNUC__)
  58:OTAMandatory.c ****     /*******************************************************************************
  59:OTAMandatory.c ****     * Following code implements re-initialization of separate RAM segment containing
  60:OTAMandatory.c ****     * data that is required for BLE Stack operation.
  61:OTAMandatory.c ****     * This code is used in case of GCC compiler
  62:OTAMandatory.c ****     *******************************************************************************/
  63:OTAMandatory.c ****     extern void Bootloader__libc_init_array(void);
  64:OTAMandatory.c ****     typedef unsigned char __cy_byte_align8 __attribute ((aligned (8)));
  65:OTAMandatory.c ****     struct __cy_region
  66:OTAMandatory.c ****     {
  67:OTAMandatory.c ****         __cy_byte_align8 *init; /* Initial contents of this region.  */
  68:OTAMandatory.c ****         __cy_byte_align8 *data; /* Start address of region.  */
  69:OTAMandatory.c ****         size_t init_size;       /* Size of initial data.  */
  70:OTAMandatory.c ****         size_t zero_size;       /* Additional size to be zeroed.  */
  71:OTAMandatory.c ****     };
  72:OTAMandatory.c ****     extern const struct __cy_region Bootloader__cy_regions[];
  73:OTAMandatory.c ****     extern const char Bootloader__cy_region_num __attribute__((weak));
  74:OTAMandatory.c ****     
  75:OTAMandatory.c ****     
  76:OTAMandatory.c ****     #define Bootloader__cy_region_num ((size_t)&Bootloader__cy_region_num)
  77:OTAMandatory.c ****     
  78:OTAMandatory.c **** 
  79:OTAMandatory.c ****     /*******************************************************************************
  80:OTAMandatory.c ****     * Function Name: Bootloader_Start_c()
  81:OTAMandatory.c ****     ********************************************************************************
  82:OTAMandatory.c ****     *
  83:OTAMandatory.c ****     * Summary:
  84:OTAMandatory.c ****     *   This function initializes bootloader RAM .bss section. It is required for 
  85:OTAMandatory.c ****     *   BLE Stack operation.
  86:OTAMandatory.c ****     *
  87:OTAMandatory.c ****     * Parameters:
ARM GAS  C:\Users\Administrator\AppData\Local\Temp\ccFc2yHX.s 			page 3


  88:OTAMandatory.c ****     *   None
  89:OTAMandatory.c ****     *
  90:OTAMandatory.c ****     *******************************************************************************/
  91:OTAMandatory.c ****     void Bootloader_Start_c(void)
  92:OTAMandatory.c ****     {
  28              		.loc 1 92 0
  29              		.cfi_startproc
  30              		@ args = 0, pretend = 0, frame = 0
  31              		@ frame_needed = 0, uses_anonymous_args = 0
  32              	.LVL0:
  33 0000 F0B5     		push	{r4, r5, r6, r7, lr}
  34              		.cfi_def_cfa_offset 20
  35              		.cfi_offset 4, -20
  36              		.cfi_offset 5, -16
  37              		.cfi_offset 6, -12
  38              		.cfi_offset 7, -8
  39              		.cfi_offset 14, -4
  40              	.LBB2:
  93:OTAMandatory.c ****         unsigned regions = Bootloader__cy_region_num;
  94:OTAMandatory.c ****         const struct __cy_region *rptr = Bootloader__cy_regions;
  95:OTAMandatory.c **** 
  96:OTAMandatory.c ****         /* Initialize memory */
  97:OTAMandatory.c ****         for (regions = Bootloader__cy_region_num; regions != 0u; regions--)
  98:OTAMandatory.c ****         {
  99:OTAMandatory.c ****             uint32 *src = (uint32 *)rptr->init;
 100:OTAMandatory.c ****             uint32 *dst = (uint32 *)rptr->data;
 101:OTAMandatory.c ****             unsigned limit = rptr->init_size;
 102:OTAMandatory.c ****             unsigned count;
 103:OTAMandatory.c **** 
 104:OTAMandatory.c ****             for (count = 0u; count != limit; count += sizeof (uint32))
 105:OTAMandatory.c ****             {
 106:OTAMandatory.c ****                 *dst = *src;
 107:OTAMandatory.c ****                 dst++;
 108:OTAMandatory.c ****                 src++;
 109:OTAMandatory.c ****             }
 110:OTAMandatory.c ****             limit = rptr->zero_size;
 111:OTAMandatory.c ****             for (count = 0u; count != limit; count += sizeof (uint32))
 112:OTAMandatory.c ****             {
 113:OTAMandatory.c ****                 *dst = 0u;
  41              		.loc 1 113 0
  42 0002 0025     		movs	r5, #0
  43 0004 0D49     		ldr	r1, .L12
  44              	.LBE2:
  94:OTAMandatory.c **** 
  45              		.loc 1 94 0
  46 0006 0E4B     		ldr	r3, .L12+4
  47 0008 0139     		subs	r1, r1, #1
  48              	.LVL1:
  49              	.L2:
  97:OTAMandatory.c ****         {
  50              		.loc 1 97 0 discriminator 1
  51 000a 4A1C     		adds	r2, r1, #1
  52 000c 14D0     		beq	.L9
  53              	.LBB3:
 104:OTAMandatory.c ****             {
  54              		.loc 1 104 0
  55 000e 0022     		movs	r2, #0
ARM GAS  C:\Users\Administrator\AppData\Local\Temp\ccFc2yHX.s 			page 4


  99:OTAMandatory.c ****             uint32 *dst = (uint32 *)rptr->data;
  56              		.loc 1 99 0
  57 0010 1F68     		ldr	r7, [r3]
  58              	.LVL2:
 100:OTAMandatory.c ****             unsigned limit = rptr->init_size;
  59              		.loc 1 100 0
  60 0012 5C68     		ldr	r4, [r3, #4]
  61              	.LVL3:
 101:OTAMandatory.c ****             unsigned count;
  62              		.loc 1 101 0
  63 0014 9E68     		ldr	r6, [r3, #8]
  64              	.LVL4:
  65              	.L3:
  66 0016 A018     		adds	r0, r4, r2
  67              	.LVL5:
 104:OTAMandatory.c ****             {
  68              		.loc 1 104 0 discriminator 1
  69 0018 B242     		cmp	r2, r6
  70 001a 03D0     		beq	.L10
 106:OTAMandatory.c ****                 dst++;
  71              		.loc 1 106 0 discriminator 3
  72 001c B858     		ldr	r0, [r7, r2]
  73              	.LVL6:
  74 001e A050     		str	r0, [r4, r2]
  75              	.LVL7:
 104:OTAMandatory.c ****             {
  76              		.loc 1 104 0 discriminator 3
  77 0020 0432     		adds	r2, r2, #4
  78              	.LVL8:
  79 0022 F8E7     		b	.L3
  80              	.LVL9:
  81              	.L10:
 111:OTAMandatory.c ****             {
  82              		.loc 1 111 0
  83 0024 0200     		movs	r2, r0
  84              	.LVL10:
 110:OTAMandatory.c ****             for (count = 0u; count != limit; count += sizeof (uint32))
  85              		.loc 1 110 0
  86 0026 DE68     		ldr	r6, [r3, #12]
  87              	.LVL11:
  88              	.L5:
 111:OTAMandatory.c ****             {
  89              		.loc 1 111 0 discriminator 1
  90 0028 141A     		subs	r4, r2, r0
  91              	.LVL12:
  92 002a A642     		cmp	r6, r4
  93 002c 01D0     		beq	.L11
  94              		.loc 1 113 0 discriminator 3
  95 002e 20C2     		stmia	r2!, {r5}
  96              	.LVL13:
  97 0030 FAE7     		b	.L5
  98              	.LVL14:
  99              	.L11:
 114:OTAMandatory.c ****                 dst++;
 115:OTAMandatory.c ****             }
 116:OTAMandatory.c **** 
 117:OTAMandatory.c ****             rptr++;
ARM GAS  C:\Users\Administrator\AppData\Local\Temp\ccFc2yHX.s 			page 5


 100              		.loc 1 117 0 discriminator 2
 101 0032 1033     		adds	r3, r3, #16
 102              	.LVL15:
 103 0034 0139     		subs	r1, r1, #1
 104              	.LVL16:
 105 0036 E8E7     		b	.L2
 106              	.LVL17:
 107              	.L9:
 108              	.LBE3:
 118:OTAMandatory.c ****         }
 119:OTAMandatory.c **** 
 120:OTAMandatory.c ****         /* Invoke static objects constructors using Bootloader__libc_init_array() function call her
 121:OTAMandatory.c ****          * if they are needed.
 122:OTAMandatory.c ****          */
 123:OTAMandatory.c **** }   
 109              		.loc 1 123 0
 110              		@ sp needed
 111 0038 F0BD     		pop	{r4, r5, r6, r7, pc}
 112              	.L13:
 113 003a C046     		.align	2
 114              	.L12:
 115 003c 00000000 		.word	Bootloader__cy_region_num
 116 0040 00000000 		.word	Bootloader__cy_regions
 117              		.cfi_endproc
 118              	.LFE63:
 119              		.size	Bootloader_Start_c, .-Bootloader_Start_c
 120              		.section	.text.InitializeBootloaderSRAM,"ax",%progbits
 121              		.align	1
 122              		.global	InitializeBootloaderSRAM
 123              		.code	16
 124              		.thumb_func
 125              		.type	InitializeBootloaderSRAM, %function
 126              	InitializeBootloaderSRAM:
 127              	.LFB64:
 124:OTAMandatory.c **** #elif defined (__ICCARM__)
 125:OTAMandatory.c ****     /*******************************************************************************
 126:OTAMandatory.c ****     * Following code implements re-initialization of separate RAM segment containing
 127:OTAMandatory.c ****     * data that is required for BLE Stack operation.
 128:OTAMandatory.c ****     * This code is used in case of IAR compiler.
 129:OTAMandatory.c ****     *******************************************************************************/
 130:OTAMandatory.c ****     extern void Bootloader__iar_data_init3(void);
 131:OTAMandatory.c **** #endif  /* (__ARMCC_VERSION) */
 132:OTAMandatory.c **** 
 133:OTAMandatory.c **** 
 134:OTAMandatory.c **** /*******************************************************************************
 135:OTAMandatory.c **** * Function Name: Bootloader_Start_c()
 136:OTAMandatory.c **** ********************************************************************************
 137:OTAMandatory.c **** *
 138:OTAMandatory.c **** * Summary:
 139:OTAMandatory.c **** *   This function triggers initialization of bootloader RAM .bss section.
 140:OTAMandatory.c **** *   It is required for BLE Stack operation. This function should be called from
 141:OTAMandatory.c **** *   main() prior BLE component start.
 142:OTAMandatory.c **** *
 143:OTAMandatory.c **** * Parameters:
 144:OTAMandatory.c **** *   None
 145:OTAMandatory.c **** *
 146:OTAMandatory.c **** *******************************************************************************/
ARM GAS  C:\Users\Administrator\AppData\Local\Temp\ccFc2yHX.s 			page 6


 147:OTAMandatory.c **** void InitializeBootloaderSRAM()
 148:OTAMandatory.c **** {
 128              		.loc 1 148 0
 129              		.cfi_startproc
 130              		@ args = 0, pretend = 0, frame = 0
 131              		@ frame_needed = 0, uses_anonymous_args = 0
 132 0000 10B5     		push	{r4, lr}
 133              		.cfi_def_cfa_offset 8
 134              		.cfi_offset 4, -8
 135              		.cfi_offset 14, -4
 149:OTAMandatory.c **** #if defined(__ARMCC_VERSION)
 150:OTAMandatory.c ****     CyReturnToBootloaddableAddress = (uint32)$Super$$main;
 151:OTAMandatory.c ****     Bootloader__main();
 152:OTAMandatory.c **** #elif defined (__GNUC__)
 153:OTAMandatory.c ****     Bootloader_Start_c();
 136              		.loc 1 153 0
 137 0002 FFF7FEFF 		bl	Bootloader_Start_c
 138              	.LVL18:
 154:OTAMandatory.c **** #elif defined (__ICCARM__)
 155:OTAMandatory.c ****     Bootloader__iar_data_init3();
 156:OTAMandatory.c **** #endif /* defined(__ARMCC_VERSION) */
 157:OTAMandatory.c **** }
 139              		.loc 1 157 0
 140              		@ sp needed
 141 0006 10BD     		pop	{r4, pc}
 142              		.cfi_endproc
 143              	.LFE64:
 144              		.size	InitializeBootloaderSRAM, .-InitializeBootloaderSRAM
 145              		.section	.text.ConfigureSharedPins,"ax",%progbits
 146              		.align	1
 147              		.global	ConfigureSharedPins
 148              		.code	16
 149              		.thumb_func
 150              		.type	ConfigureSharedPins, %function
 151              	ConfigureSharedPins:
 152              	.LFB65:
 158:OTAMandatory.c **** 
 159:OTAMandatory.c **** 
 160:OTAMandatory.c **** /*******************************************************************************
 161:OTAMandatory.c **** * Function Name: ConfigureSharedPins()
 162:OTAMandatory.c **** ********************************************************************************
 163:OTAMandatory.c **** *
 164:OTAMandatory.c **** * Summary:
 165:OTAMandatory.c **** *   This function configures shared pins.
 166:OTAMandatory.c **** *
 167:OTAMandatory.c **** * Parameters:
 168:OTAMandatory.c **** *   None
 169:OTAMandatory.c **** *
 170:OTAMandatory.c **** *******************************************************************************/
 171:OTAMandatory.c **** void ConfigureSharedPins()
 172:OTAMandatory.c **** {
 153              		.loc 1 172 0
 154              		.cfi_startproc
 155              		@ args = 0, pretend = 0, frame = 0
 156              		@ frame_needed = 0, uses_anonymous_args = 0
 157 0000 10B5     		push	{r4, lr}
 158              		.cfi_def_cfa_offset 8
ARM GAS  C:\Users\Administrator\AppData\Local\Temp\ccFc2yHX.s 			page 7


 159              		.cfi_offset 4, -8
 160              		.cfi_offset 14, -4
 173:OTAMandatory.c **** #if 0
 174:OTAMandatory.c ****     Disconnect_LED_SetDriveMode(LED_1_DM_RES_UP);
 175:OTAMandatory.c ****     Advertising_LED_SetDriveMode(LED_1_DM_RES_UP);
 176:OTAMandatory.c ****     CapsLock_LED_SetDriveMode(LED_1_DM_RES_UP);
 177:OTAMandatory.c ****     Disconnect_LED_Write(LED_OFF);
 178:OTAMandatory.c ****     Advertising_LED_Write(LED_OFF);
 179:OTAMandatory.c ****     CapsLock_LED_Write(LED_OFF);
 180:OTAMandatory.c **** #endif
 181:OTAMandatory.c **** //    Bootloader_Service_Activation_SetDriveMode(LED_1_DM_RES_UP);
 182:OTAMandatory.c ****     Bootloader_Service_Activation_Write(1);
 161              		.loc 1 182 0
 162 0002 0120     		movs	r0, #1
 163 0004 FFF7FEFF 		bl	Bootloader_Service_Activation_Write
 164              	.LVL19:
 183:OTAMandatory.c **** }
 165              		.loc 1 183 0
 166              		@ sp needed
 167 0008 10BD     		pop	{r4, pc}
 168              		.cfi_endproc
 169              	.LFE65:
 170              		.size	ConfigureSharedPins, .-ConfigureSharedPins
 171              		.section	.text.BootloaderSwitch,"ax",%progbits
 172              		.align	1
 173              		.global	BootloaderSwitch
 174              		.code	16
 175              		.thumb_func
 176              		.type	BootloaderSwitch, %function
 177              	BootloaderSwitch:
 178              	.LFB66:
 184:OTAMandatory.c **** 
 185:OTAMandatory.c **** 
 186:OTAMandatory.c **** /*******************************************************************************
 187:OTAMandatory.c **** * Function Name: BootloaderSwitch()
 188:OTAMandatory.c **** ********************************************************************************
 189:OTAMandatory.c **** *
 190:OTAMandatory.c **** * Summary:
 191:OTAMandatory.c **** *   This function polls SW2 button and if it is pressed - shedules bootloader 
 192:OTAMandatory.c **** *   project launch. That action includes sotware reset.
 193:OTAMandatory.c **** *
 194:OTAMandatory.c **** * Parameters:
 195:OTAMandatory.c **** *   None
 196:OTAMandatory.c **** *
 197:OTAMandatory.c **** *******************************************************************************/
 198:OTAMandatory.c **** void BootloaderSwitch()
 199:OTAMandatory.c **** {
 179              		.loc 1 199 0
 180              		.cfi_startproc
 181              		@ args = 0, pretend = 0, frame = 0
 182              		@ frame_needed = 0, uses_anonymous_args = 0
 200:OTAMandatory.c **** 
 201:OTAMandatory.c ****     DBG_PRINTF("Bootloader activation button pressed \r\n");
 202:OTAMandatory.c ****     DBG_PRINTF("Switching to bootloader application... \r\n");
 203:OTAMandatory.c ****     CyDelay(500);
 183              		.loc 1 203 0
 184 0000 FA20     		movs	r0, #250
ARM GAS  C:\Users\Administrator\AppData\Local\Temp\ccFc2yHX.s 			page 8


 199:OTAMandatory.c **** 
 185              		.loc 1 199 0
 186 0002 10B5     		push	{r4, lr}
 187              		.cfi_def_cfa_offset 8
 188              		.cfi_offset 4, -8
 189              		.cfi_offset 14, -4
 190              		.loc 1 203 0
 191 0004 4000     		lsls	r0, r0, #1
 192 0006 FFF7FEFF 		bl	CyDelay
 193              	.LVL20:
 204:OTAMandatory.c **** 
 205:OTAMandatory.c ****     CyBle_Shutdown(); /* stop all ongoing activities */
 194              		.loc 1 205 0
 195 000a FFF7FEFF 		bl	CyBle_Shutdown
 196              	.LVL21:
 206:OTAMandatory.c ****     CyBle_ProcessEvents(); /* process all pending events */
 197              		.loc 1 206 0
 198 000e FFF7FEFF 		bl	CyBle_ProcessEvents
 199              	.LVL22:
 207:OTAMandatory.c ****     CyBle_SetState(CYBLE_STATE_STOPPED);
 200              		.loc 1 207 0
 201 0012 0022     		movs	r2, #0
 202 0014 024B     		ldr	r3, .L17
 203 0016 1A70     		strb	r2, [r3]
 208:OTAMandatory.c **** //           CySysWdtUnlock();
 209:OTAMandatory.c **** //            CySysWdtDisable(WDT_COUNTER_MASK);
 210:OTAMandatory.c ****     CyGlobalIntDisable;
 204              		.loc 1 210 0
 205              		.syntax divided
 206              	@ 210 "OTAMandatory.c" 1
 207 0018 72B6     		CPSID   i
 208              	@ 0 "" 2
 211:OTAMandatory.c ****     Bootloadable_Load();
 209              		.loc 1 211 0
 210              		.thumb
 211              		.syntax unified
 212 001a FFF7FEFF 		bl	Bootloadable_Load
 213              	.LVL23:
 212:OTAMandatory.c **** }
 214              		.loc 1 212 0
 215              		@ sp needed
 216 001e 10BD     		pop	{r4, pc}
 217              	.L18:
 218              		.align	2
 219              	.L17:
 220 0020 00000000 		.word	cyBle_state
 221              		.cfi_endproc
 222              	.LFE66:
 223              		.size	BootloaderSwitch, .-BootloaderSwitch
 224              		.section	.text.ConfigureServices,"ax",%progbits
 225              		.align	1
 226              		.global	ConfigureServices
 227              		.code	16
 228              		.thumb_func
 229              		.type	ConfigureServices, %function
 230              	ConfigureServices:
 231              	.LFB67:
ARM GAS  C:\Users\Administrator\AppData\Local\Temp\ccFc2yHX.s 			page 9


 213:OTAMandatory.c **** 
 214:OTAMandatory.c **** 
 215:OTAMandatory.c **** /*******************************************************************************
 216:OTAMandatory.c **** * Function Name: ConfigureServices()
 217:OTAMandatory.c **** ********************************************************************************
 218:OTAMandatory.c **** *
 219:OTAMandatory.c **** * Summary:
 220:OTAMandatory.c **** *   This function configures BLE component services to match required
 221:OTAMandatory.c **** *   configuration.
 222:OTAMandatory.c **** *
 223:OTAMandatory.c **** * Parameters:
 224:OTAMandatory.c **** *   None
 225:OTAMandatory.c **** *
 226:OTAMandatory.c **** *******************************************************************************/
 227:OTAMandatory.c **** void ConfigureServices()
 228:OTAMandatory.c **** {
 232              		.loc 1 228 0
 233              		.cfi_startproc
 234              		@ args = 0, pretend = 0, frame = 0
 235              		@ frame_needed = 0, uses_anonymous_args = 0
 236              		@ link register save eliminated.
 229:OTAMandatory.c **** //    CyBle_GattsDisableAttribute(CYBLE_BTS_SERVICE_HANDLE);
 230:OTAMandatory.c **** 
 231:OTAMandatory.c **** #if defined(__ICCARM__)
 232:OTAMandatory.c ****     CyBle_GattsEnableAttribute(CYBLE_HID_SERVICE_HANDLE);
 233:OTAMandatory.c ****     CyBle_GattsEnableAttribute(CYBLE_DIS_SERVICE_HANDLE);
 234:OTAMandatory.c ****     CyBle_GattsEnableAttribute(CYBLE_BAS_SERVICE_HANDLE);
 235:OTAMandatory.c ****     CyBle_GattsEnableAttribute(CYBLE_SCPS_SERVICE_HANDLE);
 236:OTAMandatory.c **** #endif /* defined(__ICCARM__) */
 237:OTAMandatory.c **** }
 237              		.loc 1 237 0
 238              		@ sp needed
 239 0000 7047     		bx	lr
 240              		.cfi_endproc
 241              	.LFE67:
 242              		.size	ConfigureServices, .-ConfigureServices
 243              		.weak	Bootloader__cy_region_num
 244              		.text
 245              	.Letext0:
 246              		.file 2 "Generated_Source\\PSoC4/cytypes.h"
 247              		.file 3 "OTAMandatory.h"
 248              		.file 4 "c:\\program files (x86)\\cypress\\psoc creator\\4.1\\psoc creator\\import\\gnu\\arm\\5.4.
 249              		.file 5 "Generated_Source\\PSoC4/RTC.h"
 250              		.file 6 "Generated_Source\\PSoC4/CyLib.h"
 251              		.file 7 "Generated_Source\\PSoC4/Bootloadable.h"