ARM GAS  C:\Users\Administrator\AppData\Local\Temp\cci9wPBI.s 			page 1


   1              		.syntax unified
   2              		.cpu cortex-m0
   3              		.fpu softvfp
   4              		.eabi_attribute 20, 1
   5              		.eabi_attribute 21, 1
   6              		.eabi_attribute 23, 3
   7              		.eabi_attribute 24, 1
   8              		.eabi_attribute 25, 1
   9              		.eabi_attribute 26, 1
  10              		.eabi_attribute 30, 4
  11              		.eabi_attribute 34, 0
  12              		.eabi_attribute 18, 4
  13              		.thumb
  14              		.syntax unified
  15              		.file	"Uart433.c"
  16              		.text
  17              	.Ltext0:
  18              		.cfi_sections	.debug_frame
  19              		.section	.text.Uart433Send,"ax",%progbits
  20              		.align	1
  21              		.global	Uart433Send
  22              		.code	16
  23              		.thumb_func
  24              		.type	Uart433Send, %function
  25              	Uart433Send:
  26              	.LFB63:
  27              		.file 1 "Code\\Device\\GPRS\\Uart433.c"
   1:Code\Device\GPRS/Uart433.c **** //*************************************************************************************************
   2:Code\Device\GPRS/Uart433.c **** // File name		: Protocol_CmdParse.c
   3:Code\Device\GPRS/Uart433.c **** // Description		: GPRS命令解析的相关函数
   4:Code\Device\GPRS/Uart433.c **** // Author			: Keno
   5:Code\Device\GPRS/Uart433.c **** // Date				: 2016.8.8
   6:Code\Device\GPRS/Uart433.c **** // Version			: V02
   7:Code\Device\GPRS/Uart433.c **** //-------------------------------------------------------------------------------------------------
   8:Code\Device\GPRS/Uart433.c **** // Info				: 
   9:Code\Device\GPRS/Uart433.c **** //*************************************************************************************************
  10:Code\Device\GPRS/Uart433.c **** #include "Uart433.h"
  11:Code\Device\GPRS/Uart433.c **** #include "config.h"
  12:Code\Device\GPRS/Uart433.c **** 
  13:Code\Device\GPRS/Uart433.c **** 
  14:Code\Device\GPRS/Uart433.c **** //******************************************* 外部变量声明 ****************************************
  15:Code\Device\GPRS/Uart433.c **** extern volatile char  GPRS_AT_Buf[64];      					// AT指令缓存，用于AT指令解析			//
  16:Code\Device\GPRS/Uart433.c **** extern volatile uint8 GPRS_AT_RecFinish;
  17:Code\Device\GPRS/Uart433.c **** 
  18:Code\Device\GPRS/Uart433.c **** extern volatile uint8 GPRSCmdParseFlag1;
  19:Code\Device\GPRS/Uart433.c **** extern volatile uint8 GPRSCmdParseFlag2;
  20:Code\Device\GPRS/Uart433.c **** extern volatile uint8 GPRSCmd_buf1[DATABUF_SIZE];
  21:Code\Device\GPRS/Uart433.c **** extern volatile uint8 GPRSCmd_buf2[DATABUF_SIZE];
  22:Code\Device\GPRS/Uart433.c **** 
  23:Code\Device\GPRS/Uart433.c **** 
  24:Code\Device\GPRS/Uart433.c **** 
  25:Code\Device\GPRS/Uart433.c **** //********************************************* 变量声明 ******************************************
  26:Code\Device\GPRS/Uart433.c **** volatile uint8  RecvType = 0;
  27:Code\Device\GPRS/Uart433.c **** 
  28:Code\Device\GPRS/Uart433.c **** volatile char   GPRS_AT_RecBuf[64];
  29:Code\Device\GPRS/Uart433.c **** volatile uint8  AT_RecvSta;
  30:Code\Device\GPRS/Uart433.c **** volatile uint8  AT_index;
ARM GAS  C:\Users\Administrator\AppData\Local\Temp\cci9wPBI.s 			page 2


  31:Code\Device\GPRS/Uart433.c **** 
  32:Code\Device\GPRS/Uart433.c **** volatile uint8  CmdRev_buf[DATABUF_SIZE];
  33:Code\Device\GPRS/Uart433.c **** volatile uint16 Cmd_Baglen;
  34:Code\Device\GPRS/Uart433.c **** volatile uint8  Cmd_Revsta;
  35:Code\Device\GPRS/Uart433.c **** volatile uint16 Cmd_index;
  36:Code\Device\GPRS/Uart433.c **** 
  37:Code\Device\GPRS/Uart433.c **** 
  38:Code\Device\GPRS/Uart433.c **** 
  39:Code\Device\GPRS/Uart433.c **** //*************************************************************************************************
  40:Code\Device\GPRS/Uart433.c **** // Function name	: Uart433Send
  41:Code\Device\GPRS/Uart433.c **** // Description		: 串口发送指定大小的数据
  42:Code\Device\GPRS/Uart433.c **** // Parameter		: *data
  43:Code\Device\GPRS/Uart433.c **** //					: size
  44:Code\Device\GPRS/Uart433.c **** // Return			: none
  45:Code\Device\GPRS/Uart433.c **** //-------------------------------------------------------------------------------------------------
  46:Code\Device\GPRS/Uart433.c **** // Info				: 通用的发送数据给GPRS模块的函数.
  47:Code\Device\GPRS/Uart433.c **** //*************************************************************************************************
  48:Code\Device\GPRS/Uart433.c **** void Uart433Send(uint8 *data, uint16 size)
  49:Code\Device\GPRS/Uart433.c **** {
  28              		.loc 1 49 0
  29              		.cfi_startproc
  30              		@ args = 0, pretend = 0, frame = 0
  31              		@ frame_needed = 0, uses_anonymous_args = 0
  32              	.LVL0:
  33 0000 70B5     		push	{r4, r5, r6, lr}
  34              		.cfi_def_cfa_offset 16
  35              		.cfi_offset 4, -16
  36              		.cfi_offset 5, -12
  37              		.cfi_offset 6, -8
  38              		.cfi_offset 14, -4
  39 0002 0400     		movs	r4, r0
  40 0004 4518     		adds	r5, r0, r1
  41              	.LVL1:
  42              	.L2:
  50:Code\Device\GPRS/Uart433.c ****     uint16 i;
  51:Code\Device\GPRS/Uart433.c ****     
  52:Code\Device\GPRS/Uart433.c ****     for (i = 0; i < size; i++)
  43              		.loc 1 52 0 discriminator 1
  44 0006 AC42     		cmp	r4, r5
  45 0008 04D0     		beq	.L5
  53:Code\Device\GPRS/Uart433.c ****     {
  54:Code\Device\GPRS/Uart433.c **** 		UART_433_UartPutChar(data[i]);
  46              		.loc 1 54 0 discriminator 3
  47 000a 2078     		ldrb	r0, [r4]
  48 000c FFF7FEFF 		bl	UART_433_SpiUartWriteTxData
  49              	.LVL2:
  50 0010 0134     		adds	r4, r4, #1
  51              	.LVL3:
  52 0012 F8E7     		b	.L2
  53              	.LVL4:
  54              	.L5:
  55:Code\Device\GPRS/Uart433.c ****     }
  56:Code\Device\GPRS/Uart433.c **** }
  55              		.loc 1 56 0
  56              		@ sp needed
  57              	.LVL5:
  58 0014 70BD     		pop	{r4, r5, r6, pc}
ARM GAS  C:\Users\Administrator\AppData\Local\Temp\cci9wPBI.s 			page 3


  59              		.cfi_endproc
  60              	.LFE63:
  61              		.size	Uart433Send, .-Uart433Send
  62              		.section	.text.Uart433Recv,"ax",%progbits
  63              		.align	1
  64              		.global	Uart433Recv
  65              		.code	16
  66              		.thumb_func
  67              		.type	Uart433Recv, %function
  68              	Uart433Recv:
  69              	.LFB64:
  57:Code\Device\GPRS/Uart433.c **** 
  58:Code\Device\GPRS/Uart433.c **** //*************************************************************************************************
  59:Code\Device\GPRS/Uart433.c **** // Function name	: Uart433Recv
  60:Code\Device\GPRS/Uart433.c **** // Description		: 串口接收GPRS模块的数据
  61:Code\Device\GPRS/Uart433.c **** // Parameter		: none
  62:Code\Device\GPRS/Uart433.c **** // Return			: none
  63:Code\Device\GPRS/Uart433.c **** //-------------------------------------------------------------------------------------------------
  64:Code\Device\GPRS/Uart433.c **** // Info				: 在串口中断中调用
  65:Code\Device\GPRS/Uart433.c **** //-------------------------------------------------------------------------------------------------
  66:Code\Device\GPRS/Uart433.c **** // 注意				: '>'括号后没有换行；
  67:Code\Device\GPRS/Uart433.c **** //*************************************************************************************************
  68:Code\Device\GPRS/Uart433.c **** void Uart433Recv(uint8 uData)
  69:Code\Device\GPRS/Uart433.c **** {
  70              		.loc 1 69 0
  71              		.cfi_startproc
  72              		@ args = 0, pretend = 0, frame = 0
  73              		@ frame_needed = 0, uses_anonymous_args = 0
  74              	.LVL6:
  75 0000 70B5     		push	{r4, r5, r6, lr}
  76              		.cfi_def_cfa_offset 16
  77              		.cfi_offset 4, -16
  78              		.cfi_offset 5, -12
  79              		.cfi_offset 6, -8
  80              		.cfi_offset 14, -4
  70:Code\Device\GPRS/Uart433.c **** 	switch (AT_RecvSta)
  81              		.loc 1 70 0
  82 0002 684B     		ldr	r3, .L32
  69:Code\Device\GPRS/Uart433.c **** 	switch (AT_RecvSta)
  83              		.loc 1 69 0
  84 0004 0400     		movs	r4, r0
  85              		.loc 1 70 0
  86 0006 1878     		ldrb	r0, [r3]
  87              	.LVL7:
  88 0008 C0B2     		uxtb	r0, r0
  89 000a 0428     		cmp	r0, #4
  90 000c 5FD8     		bhi	.L7
  91 000e FFF7FEFF 		bl	__gnu_thumb1_case_uqi
  92              	.L9:
  93 0012 03       		.byte	(.L8-.L9)/2
  94 0013 13       		.byte	(.L10-.L9)/2
  95 0014 20       		.byte	(.L11-.L9)/2
  96 0015 5E       		.byte	(.L7-.L9)/2
  97 0016 3E       		.byte	(.L12-.L9)/2
  98 0017 00       		.p2align 1
  99              	.L8:
  71:Code\Device\GPRS/Uart433.c **** 	{
ARM GAS  C:\Users\Administrator\AppData\Local\Temp\cci9wPBI.s 			page 4


  72:Code\Device\GPRS/Uart433.c **** 		case HEAD_R:
  73:Code\Device\GPRS/Uart433.c **** 			if ((uData == '\r') && (RecvType == 0))
 100              		.loc 1 73 0
 101 0018 0D2C     		cmp	r4, #13
 102 001a 58D1     		bne	.L7
 103              		.loc 1 73 0 is_stmt 0 discriminator 1
 104 001c 6249     		ldr	r1, .L32+4
 105 001e 0A78     		ldrb	r2, [r1]
 106 0020 D2B2     		uxtb	r2, r2
 107 0022 002A     		cmp	r2, #0
 108 0024 53D1     		bne	.L7
  74:Code\Device\GPRS/Uart433.c **** 			{
  75:Code\Device\GPRS/Uart433.c **** 				RecvType = 1;
 109              		.loc 1 75 0 is_stmt 1
 110 0026 0120     		movs	r0, #1
 111 0028 0870     		strb	r0, [r1]
  76:Code\Device\GPRS/Uart433.c **** 				AT_index = 0;
 112              		.loc 1 76 0
 113 002a 6049     		ldr	r1, .L32+8
 114 002c 0A70     		strb	r2, [r1]
  77:Code\Device\GPRS/Uart433.c **** 				AT_RecvSta = HEAD_N;
 115              		.loc 1 77 0
 116 002e 1870     		strb	r0, [r3]
  78:Code\Device\GPRS/Uart433.c **** 				GPRS_AT_RecBuf[AT_index++] = uData;
 117              		.loc 1 78 0
 118 0030 0B78     		ldrb	r3, [r1]
 119 0032 DBB2     		uxtb	r3, r3
 120 0034 1A18     		adds	r2, r3, r0
 121 0036 07E0     		b	.L27
 122              	.L10:
  79:Code\Device\GPRS/Uart433.c **** 			}
  80:Code\Device\GPRS/Uart433.c **** 			break;
  81:Code\Device\GPRS/Uart433.c **** 		case HEAD_N:
  82:Code\Device\GPRS/Uart433.c **** 			if (uData == '\n')
 123              		.loc 1 82 0
 124 0038 0A2C     		cmp	r4, #10
 125 003a 48D1     		bne	.L7
  83:Code\Device\GPRS/Uart433.c **** 			{
  84:Code\Device\GPRS/Uart433.c **** 				AT_RecvSta = REV_DATA;
 126              		.loc 1 84 0
 127 003c 0222     		movs	r2, #2
  85:Code\Device\GPRS/Uart433.c **** 				GPRS_AT_RecBuf[AT_index++] = uData;
 128              		.loc 1 85 0
 129 003e 5B49     		ldr	r1, .L32+8
  84:Code\Device\GPRS/Uart433.c **** 				GPRS_AT_RecBuf[AT_index++] = uData;
 130              		.loc 1 84 0
 131 0040 1A70     		strb	r2, [r3]
 132              		.loc 1 85 0
 133 0042 0B78     		ldrb	r3, [r1]
 134 0044 DBB2     		uxtb	r3, r3
 135 0046 5A1C     		adds	r2, r3, #1
 136              	.L27:
 137 0048 D2B2     		uxtb	r2, r2
 138 004a 0A70     		strb	r2, [r1]
 139 004c 584A     		ldr	r2, .L32+12
 140 004e D454     		strb	r4, [r2, r3]
 141 0050 3DE0     		b	.L7
ARM GAS  C:\Users\Administrator\AppData\Local\Temp\cci9wPBI.s 			page 5


 142              	.L11:
 143 0052 564A     		ldr	r2, .L32+8
 144 0054 564D     		ldr	r5, .L32+12
  86:Code\Device\GPRS/Uart433.c **** 			}
  87:Code\Device\GPRS/Uart433.c **** 			break;
  88:Code\Device\GPRS/Uart433.c **** 		case REV_DATA:
  89:Code\Device\GPRS/Uart433.c **** 			if (uData == '>')
  90:Code\Device\GPRS/Uart433.c **** 			{
  91:Code\Device\GPRS/Uart433.c **** 				GPRS_AT_RecBuf[AT_index++] = uData;
 145              		.loc 1 91 0
 146 0056 1178     		ldrb	r1, [r2]
 147 0058 C9B2     		uxtb	r1, r1
 148 005a 481C     		adds	r0, r1, #1
 149 005c C0B2     		uxtb	r0, r0
 150 005e 1070     		strb	r0, [r2]
 151 0060 6C54     		strb	r4, [r5, r1]
  89:Code\Device\GPRS/Uart433.c **** 			{
 152              		.loc 1 89 0
 153 0062 3E2C     		cmp	r4, #62
 154 0064 0ED1     		bne	.L15
  92:Code\Device\GPRS/Uart433.c **** 				AT_RecvSta = HEAD_R;
 155              		.loc 1 92 0
 156 0066 0026     		movs	r6, #0
 157 0068 1E70     		strb	r6, [r3]
  93:Code\Device\GPRS/Uart433.c **** 				AT_index = 0;
 158              		.loc 1 93 0
 159 006a 1670     		strb	r6, [r2]
  94:Code\Device\GPRS/Uart433.c **** 				GPRS_AT_RecFinish = 1;
 160              		.loc 1 94 0
 161 006c 0122     		movs	r2, #1
 162 006e 514B     		ldr	r3, .L32+16
  95:Code\Device\GPRS/Uart433.c **** 				memcpy((uint8 *)GPRS_AT_Buf, (uint8 *)GPRS_AT_RecBuf, sizeof(GPRS_AT_RecBuf));
 163              		.loc 1 95 0
 164 0070 2900     		movs	r1, r5
  94:Code\Device\GPRS/Uart433.c **** 				GPRS_AT_RecFinish = 1;
 165              		.loc 1 94 0
 166 0072 1A70     		strb	r2, [r3]
 167              		.loc 1 95 0
 168 0074 5048     		ldr	r0, .L32+20
 169 0076 3F32     		adds	r2, r2, #63
 170 0078 FFF7FEFF 		bl	memcpy
 171              	.LVL8:
  96:Code\Device\GPRS/Uart433.c **** 				memset((uint8 *)GPRS_AT_RecBuf, 0, sizeof(GPRS_AT_RecBuf));
 172              		.loc 1 96 0
 173 007c 4022     		movs	r2, #64
 174 007e 3100     		movs	r1, r6
 175 0080 2800     		movs	r0, r5
 176 0082 22E0     		b	.L28
 177              	.L15:
  97:Code\Device\GPRS/Uart433.c **** 			}
  98:Code\Device\GPRS/Uart433.c **** 			else
  99:Code\Device\GPRS/Uart433.c **** 			{
 100:Code\Device\GPRS/Uart433.c **** 				GPRS_AT_RecBuf[AT_index++] = uData;
 101:Code\Device\GPRS/Uart433.c **** 				if (uData == '\r')
 178              		.loc 1 101 0
 179 0084 0D2C     		cmp	r4, #13
 180 0086 22D1     		bne	.L7
ARM GAS  C:\Users\Administrator\AppData\Local\Temp\cci9wPBI.s 			page 6


 102:Code\Device\GPRS/Uart433.c **** 				{
 103:Code\Device\GPRS/Uart433.c **** 					AT_RecvSta = TAIL_N;
 181              		.loc 1 103 0
 182 0088 0422     		movs	r2, #4
 183 008a 1A70     		strb	r2, [r3]
 184 008c 1FE0     		b	.L7
 185              	.L12:
 104:Code\Device\GPRS/Uart433.c **** 				}
 105:Code\Device\GPRS/Uart433.c **** 			}
 106:Code\Device\GPRS/Uart433.c **** 			break;
 107:Code\Device\GPRS/Uart433.c **** 		case TAIL_N:
 108:Code\Device\GPRS/Uart433.c **** 			if (uData == '\n')
 186              		.loc 1 108 0
 187 008e 0A2C     		cmp	r4, #10
 188 0090 1DD1     		bne	.L7
 109:Code\Device\GPRS/Uart433.c **** 			{
 110:Code\Device\GPRS/Uart433.c **** 				GPRS_AT_RecBuf[AT_index++] = uData;
 189              		.loc 1 110 0
 190 0092 4649     		ldr	r1, .L32+8
 191 0094 464E     		ldr	r6, .L32+12
 192 0096 0A78     		ldrb	r2, [r1]
 193 0098 D2B2     		uxtb	r2, r2
 194 009a 501C     		adds	r0, r2, #1
 195 009c C0B2     		uxtb	r0, r0
 196 009e 0870     		strb	r0, [r1]
 197 00a0 B454     		strb	r4, [r6, r2]
 111:Code\Device\GPRS/Uart433.c **** 				AT_RecvSta = HEAD_R;
 198              		.loc 1 111 0
 199 00a2 0022     		movs	r2, #0
 200 00a4 1A70     		strb	r2, [r3]
 112:Code\Device\GPRS/Uart433.c **** 				AT_index = 0;
 113:Code\Device\GPRS/Uart433.c **** 				RecvType = 0;
 201              		.loc 1 113 0
 202 00a6 404B     		ldr	r3, .L32+4
 112:Code\Device\GPRS/Uart433.c **** 				AT_index = 0;
 203              		.loc 1 112 0
 204 00a8 0A70     		strb	r2, [r1]
 205              		.loc 1 113 0
 206 00aa 1A70     		strb	r2, [r3]
 114:Code\Device\GPRS/Uart433.c **** 				if (GPRS_AT_RecFinish == 0)
 207              		.loc 1 114 0
 208 00ac 414B     		ldr	r3, .L32+16
 209 00ae 1D78     		ldrb	r5, [r3]
 210 00b0 EDB2     		uxtb	r5, r5
 211 00b2 9542     		cmp	r5, r2
 212 00b4 0BD1     		bne	.L7
 115:Code\Device\GPRS/Uart433.c **** 				{
 116:Code\Device\GPRS/Uart433.c **** 					GPRS_AT_RecFinish = 1;
 213              		.loc 1 116 0
 214 00b6 0132     		adds	r2, r2, #1
 215 00b8 1A70     		strb	r2, [r3]
 117:Code\Device\GPRS/Uart433.c **** 					memcpy((uint8 *)GPRS_AT_Buf, (uint8 *)GPRS_AT_RecBuf, sizeof(GPRS_AT_RecBuf));
 216              		.loc 1 117 0
 217 00ba 3100     		movs	r1, r6
 218 00bc 3F32     		adds	r2, r2, #63
 219 00be 3E48     		ldr	r0, .L32+20
 220 00c0 FFF7FEFF 		bl	memcpy
ARM GAS  C:\Users\Administrator\AppData\Local\Temp\cci9wPBI.s 			page 7


 221              	.LVL9:
 118:Code\Device\GPRS/Uart433.c **** 					memset((uint8 *)GPRS_AT_RecBuf, 0, sizeof(GPRS_AT_RecBuf));
 222              		.loc 1 118 0
 223 00c4 4022     		movs	r2, #64
 224 00c6 2900     		movs	r1, r5
 225 00c8 3000     		movs	r0, r6
 226              	.L28:
 227 00ca FFF7FEFF 		bl	memset
 228              	.LVL10:
 229              	.L7:
 119:Code\Device\GPRS/Uart433.c **** 				}
 120:Code\Device\GPRS/Uart433.c **** 			}
 121:Code\Device\GPRS/Uart433.c **** 			break;
 122:Code\Device\GPRS/Uart433.c **** 		default:
 123:Code\Device\GPRS/Uart433.c **** 			break;
 124:Code\Device\GPRS/Uart433.c **** 	}
 125:Code\Device\GPRS/Uart433.c **** 		
 126:Code\Device\GPRS/Uart433.c **** 	switch (Cmd_Revsta)
 230              		.loc 1 126 0
 231 00ce 3B4B     		ldr	r3, .L32+24
 232 00d0 1878     		ldrb	r0, [r3]
 233 00d2 C0B2     		uxtb	r0, r0
 234 00d4 0428     		cmp	r0, #4
 235 00d6 64D8     		bhi	.L6
 236 00d8 FFF7FEFF 		bl	__gnu_thumb1_case_uqi
 237              	.L18:
 238 00dc 03       		.byte	(.L17-.L18)/2
 239 00dd 14       		.byte	(.L19-.L18)/2
 240 00de 21       		.byte	(.L20-.L18)/2
 241 00df 23       		.byte	(.L21-.L18)/2
 242 00e0 34       		.byte	(.L22-.L18)/2
 243 00e1 00       		.p2align 1
 244              	.L17:
 127:Code\Device\GPRS/Uart433.c **** 	{
 128:Code\Device\GPRS/Uart433.c **** 		case HEX_EF:
 129:Code\Device\GPRS/Uart433.c **** 			if ((uData == 0xef) && (RecvType == 0))
 245              		.loc 1 129 0
 246 00e2 EF2C     		cmp	r4, #239
 247 00e4 5DD1     		bne	.L6
 248              		.loc 1 129 0 is_stmt 0 discriminator 1
 249 00e6 3049     		ldr	r1, .L32+4
 250 00e8 0A78     		ldrb	r2, [r1]
 251 00ea D2B2     		uxtb	r2, r2
 252 00ec 002A     		cmp	r2, #0
 253 00ee 58D1     		bne	.L6
 130:Code\Device\GPRS/Uart433.c **** 			{
 131:Code\Device\GPRS/Uart433.c **** 				RecvType = 2;
 254              		.loc 1 131 0 is_stmt 1
 255 00f0 0220     		movs	r0, #2
 256 00f2 0870     		strb	r0, [r1]
 132:Code\Device\GPRS/Uart433.c **** 				Cmd_index = 0;
 257              		.loc 1 132 0
 258 00f4 3249     		ldr	r1, .L32+28
 259 00f6 0A80     		strh	r2, [r1]
 133:Code\Device\GPRS/Uart433.c **** 				Cmd_Revsta = HEX_3A;
 260              		.loc 1 133 0
 261 00f8 0132     		adds	r2, r2, #1
ARM GAS  C:\Users\Administrator\AppData\Local\Temp\cci9wPBI.s 			page 8


 262 00fa 1A70     		strb	r2, [r3]
 134:Code\Device\GPRS/Uart433.c **** 				CmdRev_buf[Cmd_index++] = uData;
 263              		.loc 1 134 0
 264 00fc 0B88     		ldrh	r3, [r1]
 265 00fe 9BB2     		uxth	r3, r3
 266 0100 9A18     		adds	r2, r3, r2
 267 0102 07E0     		b	.L30
 268              	.L19:
 135:Code\Device\GPRS/Uart433.c **** 			}
 136:Code\Device\GPRS/Uart433.c **** 			break;
 137:Code\Device\GPRS/Uart433.c **** 		case HEX_3A:
 138:Code\Device\GPRS/Uart433.c **** 			if (uData == 0x3a)
 269              		.loc 1 138 0
 270 0104 3A2C     		cmp	r4, #58
 271 0106 4CD1     		bne	.L6
 139:Code\Device\GPRS/Uart433.c **** 			{
 140:Code\Device\GPRS/Uart433.c **** 				Cmd_Revsta = HEX_LEN_H;
 272              		.loc 1 140 0
 273 0108 0222     		movs	r2, #2
 274              	.L31:
 141:Code\Device\GPRS/Uart433.c **** 				CmdRev_buf[Cmd_index++] = uData;
 275              		.loc 1 141 0
 276 010a 2D49     		ldr	r1, .L32+28
 140:Code\Device\GPRS/Uart433.c **** 				CmdRev_buf[Cmd_index++] = uData;
 277              		.loc 1 140 0
 278 010c 1A70     		strb	r2, [r3]
 279              		.loc 1 141 0
 280 010e 0B88     		ldrh	r3, [r1]
 281 0110 9BB2     		uxth	r3, r3
 282 0112 5A1C     		adds	r2, r3, #1
 283              	.L30:
 284 0114 92B2     		uxth	r2, r2
 285 0116 0A80     		strh	r2, [r1]
 286 0118 2A4A     		ldr	r2, .L32+32
 287 011a D454     		strb	r4, [r2, r3]
 288 011c 41E0     		b	.L6
 289              	.L20:
 142:Code\Device\GPRS/Uart433.c **** 			}
 143:Code\Device\GPRS/Uart433.c **** 			break;
 144:Code\Device\GPRS/Uart433.c **** 		case HEX_LEN_H:
 145:Code\Device\GPRS/Uart433.c **** 			Cmd_Revsta = HEX_LEN_L;
 290              		.loc 1 145 0
 291 011e 0322     		movs	r2, #3
 292 0120 F3E7     		b	.L31
 293              	.L21:
 146:Code\Device\GPRS/Uart433.c **** 			CmdRev_buf[Cmd_index++] = uData;
 147:Code\Device\GPRS/Uart433.c **** 			break;
 148:Code\Device\GPRS/Uart433.c **** 		case HEX_LEN_L:
 149:Code\Device\GPRS/Uart433.c **** 			Cmd_Revsta = HEX_DATA;
 294              		.loc 1 149 0
 295 0122 0422     		movs	r2, #4
 150:Code\Device\GPRS/Uart433.c **** 			CmdRev_buf[Cmd_index++] = uData;
 296              		.loc 1 150 0
 297 0124 2649     		ldr	r1, .L32+28
 149:Code\Device\GPRS/Uart433.c **** 			CmdRev_buf[Cmd_index++] = uData;
 298              		.loc 1 149 0
 299 0126 1A70     		strb	r2, [r3]
ARM GAS  C:\Users\Administrator\AppData\Local\Temp\cci9wPBI.s 			page 9


 300              		.loc 1 150 0
 301 0128 0B88     		ldrh	r3, [r1]
 302 012a 9BB2     		uxth	r3, r3
 303 012c 5A1C     		adds	r2, r3, #1
 304 012e 92B2     		uxth	r2, r2
 305 0130 0A80     		strh	r2, [r1]
 306 0132 244A     		ldr	r2, .L32+32
 307 0134 D454     		strb	r4, [r2, r3]
 151:Code\Device\GPRS/Uart433.c **** 			Cmd_Baglen = (CmdRev_buf[2] << 8) | CmdRev_buf[3];
 308              		.loc 1 151 0
 309 0136 9378     		ldrb	r3, [r2, #2]
 310 0138 D278     		ldrb	r2, [r2, #3]
 311 013a 1B02     		lsls	r3, r3, #8
 312 013c 1343     		orrs	r3, r2
 313 013e 224A     		ldr	r2, .L32+36
 314 0140 1380     		strh	r3, [r2]
 152:Code\Device\GPRS/Uart433.c **** 			break;
 315              		.loc 1 152 0
 316 0142 2EE0     		b	.L6
 317              	.L22:
 153:Code\Device\GPRS/Uart433.c **** 		case HEX_DATA:
 154:Code\Device\GPRS/Uart433.c **** 			CmdRev_buf[Cmd_index++] = uData;
 318              		.loc 1 154 0
 319 0144 1E4A     		ldr	r2, .L32+28
 155:Code\Device\GPRS/Uart433.c **** 			if (Cmd_index == Cmd_Baglen + 4)
 320              		.loc 1 155 0
 321 0146 204D     		ldr	r5, .L32+36
 154:Code\Device\GPRS/Uart433.c **** 			if (Cmd_index == Cmd_Baglen + 4)
 322              		.loc 1 154 0
 323 0148 1188     		ldrh	r1, [r2]
 324 014a 89B2     		uxth	r1, r1
 325 014c 481C     		adds	r0, r1, #1
 326 014e 80B2     		uxth	r0, r0
 327 0150 1080     		strh	r0, [r2]
 328 0152 1C48     		ldr	r0, .L32+32
 329 0154 4454     		strb	r4, [r0, r1]
 330              		.loc 1 155 0
 331 0156 1688     		ldrh	r6, [r2]
 332 0158 2988     		ldrh	r1, [r5]
 333 015a 0400     		movs	r4, r0
 334 015c 0431     		adds	r1, r1, #4
 335 015e 8E42     		cmp	r6, r1
 336 0160 1FD1     		bne	.L6
 156:Code\Device\GPRS/Uart433.c **** 			{
 157:Code\Device\GPRS/Uart433.c **** 				Cmd_Revsta = HEX_EF;
 337              		.loc 1 157 0
 338 0162 0021     		movs	r1, #0
 339 0164 1970     		strb	r1, [r3]
 158:Code\Device\GPRS/Uart433.c **** 				Cmd_index = 0;
 159:Code\Device\GPRS/Uart433.c **** 				RecvType = 0;
 340              		.loc 1 159 0
 341 0166 104B     		ldr	r3, .L32+4
 160:Code\Device\GPRS/Uart433.c **** 				
 161:Code\Device\GPRS/Uart433.c **** 				if (GPRSCmdParseFlag1 == 0)
 342              		.loc 1 161 0
 343 0168 184E     		ldr	r6, .L32+40
 158:Code\Device\GPRS/Uart433.c **** 				Cmd_index = 0;
ARM GAS  C:\Users\Administrator\AppData\Local\Temp\cci9wPBI.s 			page 10


 344              		.loc 1 158 0
 345 016a 1180     		strh	r1, [r2]
 159:Code\Device\GPRS/Uart433.c **** 				
 346              		.loc 1 159 0
 347 016c 1970     		strb	r1, [r3]
 348              		.loc 1 161 0
 349 016e 3378     		ldrb	r3, [r6]
 350 0170 8B42     		cmp	r3, r1
 351 0172 04D1     		bne	.L25
 162:Code\Device\GPRS/Uart433.c **** 				{
 163:Code\Device\GPRS/Uart433.c **** 					memcpy((uint8 *)GPRSCmd_buf1, (uint8 *)CmdRev_buf, Cmd_Baglen + 4);
 352              		.loc 1 163 0
 353 0174 2A88     		ldrh	r2, [r5]
 354 0176 0100     		movs	r1, r0
 355 0178 0432     		adds	r2, r2, #4
 356 017a 1548     		ldr	r0, .L32+44
 357 017c 07E0     		b	.L29
 358              	.L25:
 164:Code\Device\GPRS/Uart433.c **** 					GPRSCmdParseFlag1 = 1;
 165:Code\Device\GPRS/Uart433.c **** 				}
 166:Code\Device\GPRS/Uart433.c **** 				else if(GPRSCmdParseFlag2 == 0)
 359              		.loc 1 166 0
 360 017e 154E     		ldr	r6, .L32+48
 361 0180 3378     		ldrb	r3, [r6]
 362 0182 002B     		cmp	r3, #0
 363 0184 07D1     		bne	.L26
 167:Code\Device\GPRS/Uart433.c **** 				{
 168:Code\Device\GPRS/Uart433.c **** 					// 
 169:Code\Device\GPRS/Uart433.c **** 					memcpy((uint8 *)GPRSCmd_buf2, (uint8 *)CmdRev_buf, Cmd_Baglen + 4);
 364              		.loc 1 169 0
 365 0186 2A88     		ldrh	r2, [r5]
 366 0188 0100     		movs	r1, r0
 367 018a 1348     		ldr	r0, .L32+52
 368 018c 0432     		adds	r2, r2, #4
 369              	.L29:
 370 018e FFF7FEFF 		bl	memcpy
 371              	.LVL11:
 170:Code\Device\GPRS/Uart433.c **** 					GPRSCmdParseFlag2 = 1;
 372              		.loc 1 170 0
 373 0192 0123     		movs	r3, #1
 374 0194 3370     		strb	r3, [r6]
 375              	.L26:
 171:Code\Device\GPRS/Uart433.c **** 				}
 172:Code\Device\GPRS/Uart433.c **** 				Cmd_Baglen = 0;
 376              		.loc 1 172 0
 377 0196 0021     		movs	r1, #0
 173:Code\Device\GPRS/Uart433.c **** 				memset((uint8 *)CmdRev_buf, 0, sizeof(CmdRev_buf));
 378              		.loc 1 173 0
 379 0198 104A     		ldr	r2, .L32+56
 380 019a 2000     		movs	r0, r4
 172:Code\Device\GPRS/Uart433.c **** 				memset((uint8 *)CmdRev_buf, 0, sizeof(CmdRev_buf));
 381              		.loc 1 172 0
 382 019c 2980     		strh	r1, [r5]
 383              		.loc 1 173 0
 384 019e FFF7FEFF 		bl	memset
 385              	.LVL12:
 386              	.L6:
ARM GAS  C:\Users\Administrator\AppData\Local\Temp\cci9wPBI.s 			page 11


 174:Code\Device\GPRS/Uart433.c **** 			}
 175:Code\Device\GPRS/Uart433.c **** 			break;
 176:Code\Device\GPRS/Uart433.c **** 		default:
 177:Code\Device\GPRS/Uart433.c **** 			break;
 178:Code\Device\GPRS/Uart433.c **** 	}
 179:Code\Device\GPRS/Uart433.c **** }
 387              		.loc 1 179 0
 388              		@ sp needed
 389 01a2 70BD     		pop	{r4, r5, r6, pc}
 390              	.L33:
 391              		.align	2
 392              	.L32:
 393 01a4 00000000 		.word	AT_RecvSta
 394 01a8 00000000 		.word	.LANCHOR0
 395 01ac 00000000 		.word	AT_index
 396 01b0 00000000 		.word	GPRS_AT_RecBuf
 397 01b4 00000000 		.word	GPRS_AT_RecFinish
 398 01b8 00000000 		.word	GPRS_AT_Buf
 399 01bc 00000000 		.word	Cmd_Revsta
 400 01c0 00000000 		.word	Cmd_index
 401 01c4 00000000 		.word	CmdRev_buf
 402 01c8 00000000 		.word	Cmd_Baglen
 403 01cc 00000000 		.word	GPRSCmdParseFlag1
 404 01d0 00000000 		.word	GPRSCmd_buf1
 405 01d4 00000000 		.word	GPRSCmdParseFlag2
 406 01d8 00000000 		.word	GPRSCmd_buf2
 407 01dc 1A040000 		.word	1050
 408              		.cfi_endproc
 409              	.LFE64:
 410              		.size	Uart433Recv, .-Uart433Recv
 411              		.comm	Cmd_index,2,2
 412              		.comm	Cmd_Revsta,1,1
 413              		.comm	Cmd_Baglen,2,2
 414              		.comm	CmdRev_buf,1050,1
 415              		.comm	AT_index,1,1
 416              		.comm	AT_RecvSta,1,1
 417              		.comm	GPRS_AT_RecBuf,64,1
 418              		.global	RecvType
 419              		.bss
 420              		.set	.LANCHOR0,. + 0
 421              		.type	RecvType, %object
 422              		.size	RecvType, 1
 423              	RecvType:
 424 0000 00       		.space	1
 425              		.text
 426              	.Letext0:
 427              		.file 2 "Generated_Source\\PSoC4/cytypes.h"
 428              		.file 3 "Generated_Source\\PSoC4/RTC.h"
 429              		.file 4 "Generated_Source\\PSoC4/UART_433_SPI_UART.h"