ARM GAS  C:\Users\Administrator\AppData\Local\Temp\ccO3nPvy.s 			page 1


   1              		.syntax unified
   2              		.cpu cortex-m0
   3              		.fpu softvfp
   4              		.eabi_attribute 20, 1
   5              		.eabi_attribute 21, 1
   6              		.eabi_attribute 23, 3
   7              		.eabi_attribute 24, 1
   8              		.eabi_attribute 25, 1
   9              		.eabi_attribute 26, 1
  10              		.eabi_attribute 30, 4
  11              		.eabi_attribute 34, 0
  12              		.eabi_attribute 18, 4
  13              		.thumb
  14              		.syntax unified
  15              		.file	"UART_433_UART.c"
  16              		.text
  17              	.Ltext0:
  18              		.cfi_sections	.debug_frame
  19              		.section	.text.UART_433_UartInit,"ax",%progbits
  20              		.align	1
  21              		.global	UART_433_UartInit
  22              		.code	16
  23              		.thumb_func
  24              		.type	UART_433_UartInit, %function
  25              	UART_433_UartInit:
  26              	.LFB2:
  27              		.file 1 "Generated_Source\\PSoC4\\UART_433_UART.c"
   1:Generated_Source\PSoC4/UART_433_UART.c **** /***************************************************************************//**
   2:Generated_Source\PSoC4/UART_433_UART.c **** * \file UART_433_UART.c
   3:Generated_Source\PSoC4/UART_433_UART.c **** * \version 4.0
   4:Generated_Source\PSoC4/UART_433_UART.c **** *
   5:Generated_Source\PSoC4/UART_433_UART.c **** * \brief
   6:Generated_Source\PSoC4/UART_433_UART.c **** *  This file provides the source code to the API for the SCB Component in
   7:Generated_Source\PSoC4/UART_433_UART.c **** *  UART mode.
   8:Generated_Source\PSoC4/UART_433_UART.c **** *
   9:Generated_Source\PSoC4/UART_433_UART.c **** * Note:
  10:Generated_Source\PSoC4/UART_433_UART.c **** *
  11:Generated_Source\PSoC4/UART_433_UART.c **** *******************************************************************************
  12:Generated_Source\PSoC4/UART_433_UART.c **** * \copyright
  13:Generated_Source\PSoC4/UART_433_UART.c **** * Copyright 2013-2017, Cypress Semiconductor Corporation.  All rights reserved.
  14:Generated_Source\PSoC4/UART_433_UART.c **** * You may use this file only in accordance with the license, terms, conditions,
  15:Generated_Source\PSoC4/UART_433_UART.c **** * disclaimers, and limitations in the end user license agreement accompanying
  16:Generated_Source\PSoC4/UART_433_UART.c **** * the software package with which this file was provided.
  17:Generated_Source\PSoC4/UART_433_UART.c **** *******************************************************************************/
  18:Generated_Source\PSoC4/UART_433_UART.c **** 
  19:Generated_Source\PSoC4/UART_433_UART.c **** #include "UART_433_PVT.h"
  20:Generated_Source\PSoC4/UART_433_UART.c **** #include "UART_433_SPI_UART_PVT.h"
  21:Generated_Source\PSoC4/UART_433_UART.c **** 
  22:Generated_Source\PSoC4/UART_433_UART.c **** 
  23:Generated_Source\PSoC4/UART_433_UART.c **** #if (UART_433_UART_WAKE_ENABLE_CONST && UART_433_UART_RX_WAKEUP_IRQ)
  24:Generated_Source\PSoC4/UART_433_UART.c ****     /**
  25:Generated_Source\PSoC4/UART_433_UART.c ****     * \addtogroup group_globals
  26:Generated_Source\PSoC4/UART_433_UART.c ****     * \{
  27:Generated_Source\PSoC4/UART_433_UART.c ****     */
  28:Generated_Source\PSoC4/UART_433_UART.c ****     /** This global variable determines whether to enable Skip Start
  29:Generated_Source\PSoC4/UART_433_UART.c ****     * functionality when UART_433_Sleep() function is called:
  30:Generated_Source\PSoC4/UART_433_UART.c ****     * 0 ¨C disable, other values ¨C enable. Default value is 1.
ARM GAS  C:\Users\Administrator\AppData\Local\Temp\ccO3nPvy.s 			page 2


  31:Generated_Source\PSoC4/UART_433_UART.c ****     * It is only available when Enable wakeup from Deep Sleep Mode is enabled.
  32:Generated_Source\PSoC4/UART_433_UART.c ****     */
  33:Generated_Source\PSoC4/UART_433_UART.c ****     uint8 UART_433_skipStart = 1u;
  34:Generated_Source\PSoC4/UART_433_UART.c ****     /** \} globals */
  35:Generated_Source\PSoC4/UART_433_UART.c **** #endif /* (UART_433_UART_WAKE_ENABLE_CONST && UART_433_UART_RX_WAKEUP_IRQ) */
  36:Generated_Source\PSoC4/UART_433_UART.c **** 
  37:Generated_Source\PSoC4/UART_433_UART.c **** #if(UART_433_SCB_MODE_UNCONFIG_CONST_CFG)
  38:Generated_Source\PSoC4/UART_433_UART.c **** 
  39:Generated_Source\PSoC4/UART_433_UART.c ****     /***************************************
  40:Generated_Source\PSoC4/UART_433_UART.c ****     *  Configuration Structure Initialization
  41:Generated_Source\PSoC4/UART_433_UART.c ****     ***************************************/
  42:Generated_Source\PSoC4/UART_433_UART.c **** 
  43:Generated_Source\PSoC4/UART_433_UART.c ****     const UART_433_UART_INIT_STRUCT UART_433_configUart =
  44:Generated_Source\PSoC4/UART_433_UART.c ****     {
  45:Generated_Source\PSoC4/UART_433_UART.c ****         UART_433_UART_SUB_MODE,
  46:Generated_Source\PSoC4/UART_433_UART.c ****         UART_433_UART_DIRECTION,
  47:Generated_Source\PSoC4/UART_433_UART.c ****         UART_433_UART_DATA_BITS_NUM,
  48:Generated_Source\PSoC4/UART_433_UART.c ****         UART_433_UART_PARITY_TYPE,
  49:Generated_Source\PSoC4/UART_433_UART.c ****         UART_433_UART_STOP_BITS_NUM,
  50:Generated_Source\PSoC4/UART_433_UART.c ****         UART_433_UART_OVS_FACTOR,
  51:Generated_Source\PSoC4/UART_433_UART.c ****         UART_433_UART_IRDA_LOW_POWER,
  52:Generated_Source\PSoC4/UART_433_UART.c ****         UART_433_UART_MEDIAN_FILTER_ENABLE,
  53:Generated_Source\PSoC4/UART_433_UART.c ****         UART_433_UART_RETRY_ON_NACK,
  54:Generated_Source\PSoC4/UART_433_UART.c ****         UART_433_UART_IRDA_POLARITY,
  55:Generated_Source\PSoC4/UART_433_UART.c ****         UART_433_UART_DROP_ON_PARITY_ERR,
  56:Generated_Source\PSoC4/UART_433_UART.c ****         UART_433_UART_DROP_ON_FRAME_ERR,
  57:Generated_Source\PSoC4/UART_433_UART.c ****         UART_433_UART_WAKE_ENABLE,
  58:Generated_Source\PSoC4/UART_433_UART.c ****         0u,
  59:Generated_Source\PSoC4/UART_433_UART.c ****         NULL,
  60:Generated_Source\PSoC4/UART_433_UART.c ****         0u,
  61:Generated_Source\PSoC4/UART_433_UART.c ****         NULL,
  62:Generated_Source\PSoC4/UART_433_UART.c ****         UART_433_UART_MP_MODE_ENABLE,
  63:Generated_Source\PSoC4/UART_433_UART.c ****         UART_433_UART_MP_ACCEPT_ADDRESS,
  64:Generated_Source\PSoC4/UART_433_UART.c ****         UART_433_UART_MP_RX_ADDRESS,
  65:Generated_Source\PSoC4/UART_433_UART.c ****         UART_433_UART_MP_RX_ADDRESS_MASK,
  66:Generated_Source\PSoC4/UART_433_UART.c ****         (uint32) UART_433_SCB_IRQ_INTERNAL,
  67:Generated_Source\PSoC4/UART_433_UART.c ****         UART_433_UART_INTR_RX_MASK,
  68:Generated_Source\PSoC4/UART_433_UART.c ****         UART_433_UART_RX_TRIGGER_LEVEL,
  69:Generated_Source\PSoC4/UART_433_UART.c ****         UART_433_UART_INTR_TX_MASK,
  70:Generated_Source\PSoC4/UART_433_UART.c ****         UART_433_UART_TX_TRIGGER_LEVEL,
  71:Generated_Source\PSoC4/UART_433_UART.c ****         (uint8) UART_433_UART_BYTE_MODE_ENABLE,
  72:Generated_Source\PSoC4/UART_433_UART.c ****         (uint8) UART_433_UART_CTS_ENABLE,
  73:Generated_Source\PSoC4/UART_433_UART.c ****         (uint8) UART_433_UART_CTS_POLARITY,
  74:Generated_Source\PSoC4/UART_433_UART.c ****         (uint8) UART_433_UART_RTS_POLARITY,
  75:Generated_Source\PSoC4/UART_433_UART.c ****         (uint8) UART_433_UART_RTS_FIFO_LEVEL,
  76:Generated_Source\PSoC4/UART_433_UART.c ****         (uint8) UART_433_UART_RX_BREAK_WIDTH
  77:Generated_Source\PSoC4/UART_433_UART.c ****     };
  78:Generated_Source\PSoC4/UART_433_UART.c **** 
  79:Generated_Source\PSoC4/UART_433_UART.c **** 
  80:Generated_Source\PSoC4/UART_433_UART.c ****     /*******************************************************************************
  81:Generated_Source\PSoC4/UART_433_UART.c ****     * Function Name: UART_433_UartInit
  82:Generated_Source\PSoC4/UART_433_UART.c ****     ****************************************************************************//**
  83:Generated_Source\PSoC4/UART_433_UART.c ****     *
  84:Generated_Source\PSoC4/UART_433_UART.c ****     *  Configures the UART_433 for UART operation.
  85:Generated_Source\PSoC4/UART_433_UART.c ****     *
  86:Generated_Source\PSoC4/UART_433_UART.c ****     *  This function is intended specifically to be used when the UART_433
  87:Generated_Source\PSoC4/UART_433_UART.c ****     *  configuration is set to ¡°Unconfigured UART_433¡± in the customizer.
ARM GAS  C:\Users\Administrator\AppData\Local\Temp\ccO3nPvy.s 			page 3


  88:Generated_Source\PSoC4/UART_433_UART.c ****     *  After initializing the UART_433 in UART mode using this function,
  89:Generated_Source\PSoC4/UART_433_UART.c ****     *  the component can be enabled using the UART_433_Start() or
  90:Generated_Source\PSoC4/UART_433_UART.c ****     * UART_433_Enable() function.
  91:Generated_Source\PSoC4/UART_433_UART.c ****     *  This function uses a pointer to a structure that provides the configuration
  92:Generated_Source\PSoC4/UART_433_UART.c ****     *  settings. This structure contains the same information that would otherwise
  93:Generated_Source\PSoC4/UART_433_UART.c ****     *  be provided by the customizer settings.
  94:Generated_Source\PSoC4/UART_433_UART.c ****     *
  95:Generated_Source\PSoC4/UART_433_UART.c ****     *  \param config: pointer to a structure that contains the following list of
  96:Generated_Source\PSoC4/UART_433_UART.c ****     *   fields. These fields match the selections available in the customizer.
  97:Generated_Source\PSoC4/UART_433_UART.c ****     *   Refer to the customizer for further description of the settings.
  98:Generated_Source\PSoC4/UART_433_UART.c ****     *
  99:Generated_Source\PSoC4/UART_433_UART.c ****     *******************************************************************************/
 100:Generated_Source\PSoC4/UART_433_UART.c ****     void UART_433_UartInit(const UART_433_UART_INIT_STRUCT *config)
 101:Generated_Source\PSoC4/UART_433_UART.c ****     {
 102:Generated_Source\PSoC4/UART_433_UART.c ****         uint32 pinsConfig;
 103:Generated_Source\PSoC4/UART_433_UART.c **** 
 104:Generated_Source\PSoC4/UART_433_UART.c ****         if (NULL == config)
 105:Generated_Source\PSoC4/UART_433_UART.c ****         {
 106:Generated_Source\PSoC4/UART_433_UART.c ****             CYASSERT(0u != 0u); /* Halt execution due to bad function parameter */
 107:Generated_Source\PSoC4/UART_433_UART.c ****         }
 108:Generated_Source\PSoC4/UART_433_UART.c ****         else
 109:Generated_Source\PSoC4/UART_433_UART.c ****         {
 110:Generated_Source\PSoC4/UART_433_UART.c ****             /* Get direction to configure UART pins: TX, RX or TX+RX */
 111:Generated_Source\PSoC4/UART_433_UART.c ****             pinsConfig  = config->direction;
 112:Generated_Source\PSoC4/UART_433_UART.c **** 
 113:Generated_Source\PSoC4/UART_433_UART.c ****         #if !(UART_433_CY_SCBIP_V0 || UART_433_CY_SCBIP_V1)
 114:Generated_Source\PSoC4/UART_433_UART.c ****             /* Add RTS and CTS pins to configure */
 115:Generated_Source\PSoC4/UART_433_UART.c ****             pinsConfig |= (0u != config->rtsRxFifoLevel) ? (UART_433_UART_RTS_PIN_ENABLE) : (0u);
 116:Generated_Source\PSoC4/UART_433_UART.c ****             pinsConfig |= (0u != config->enableCts)      ? (UART_433_UART_CTS_PIN_ENABLE) : (0u);
 117:Generated_Source\PSoC4/UART_433_UART.c ****         #endif /* !(UART_433_CY_SCBIP_V0 || UART_433_CY_SCBIP_V1) */
 118:Generated_Source\PSoC4/UART_433_UART.c **** 
 119:Generated_Source\PSoC4/UART_433_UART.c ****             /* Configure pins */
 120:Generated_Source\PSoC4/UART_433_UART.c ****             UART_433_SetPins(UART_433_SCB_MODE_UART, config->mode, pinsConfig);
 121:Generated_Source\PSoC4/UART_433_UART.c **** 
 122:Generated_Source\PSoC4/UART_433_UART.c ****             /* Store internal configuration */
 123:Generated_Source\PSoC4/UART_433_UART.c ****             UART_433_scbMode       = (uint8) UART_433_SCB_MODE_UART;
 124:Generated_Source\PSoC4/UART_433_UART.c ****             UART_433_scbEnableWake = (uint8) config->enableWake;
 125:Generated_Source\PSoC4/UART_433_UART.c ****             UART_433_scbEnableIntr = (uint8) config->enableInterrupt;
 126:Generated_Source\PSoC4/UART_433_UART.c **** 
 127:Generated_Source\PSoC4/UART_433_UART.c ****             /* Set RX direction internal variables */
 128:Generated_Source\PSoC4/UART_433_UART.c ****             UART_433_rxBuffer      =         config->rxBuffer;
 129:Generated_Source\PSoC4/UART_433_UART.c ****             UART_433_rxDataBits    = (uint8) config->dataBits;
 130:Generated_Source\PSoC4/UART_433_UART.c ****             UART_433_rxBufferSize  =         config->rxBufferSize;
 131:Generated_Source\PSoC4/UART_433_UART.c **** 
 132:Generated_Source\PSoC4/UART_433_UART.c ****             /* Set TX direction internal variables */
 133:Generated_Source\PSoC4/UART_433_UART.c ****             UART_433_txBuffer      =         config->txBuffer;
 134:Generated_Source\PSoC4/UART_433_UART.c ****             UART_433_txDataBits    = (uint8) config->dataBits;
 135:Generated_Source\PSoC4/UART_433_UART.c ****             UART_433_txBufferSize  =         config->txBufferSize;
 136:Generated_Source\PSoC4/UART_433_UART.c **** 
 137:Generated_Source\PSoC4/UART_433_UART.c ****             /* Configure UART interface */
 138:Generated_Source\PSoC4/UART_433_UART.c ****             if(UART_433_UART_MODE_IRDA == config->mode)
 139:Generated_Source\PSoC4/UART_433_UART.c ****             {
 140:Generated_Source\PSoC4/UART_433_UART.c ****                 /* OVS settings: IrDA */
 141:Generated_Source\PSoC4/UART_433_UART.c ****                 UART_433_CTRL_REG  = ((0u != config->enableIrdaLowPower) ?
 142:Generated_Source\PSoC4/UART_433_UART.c ****                                                 (UART_433_UART_GET_CTRL_OVS_IRDA_LP(config->oversam
 143:Generated_Source\PSoC4/UART_433_UART.c ****                                                 (UART_433_CTRL_OVS_IRDA_OVS16));
 144:Generated_Source\PSoC4/UART_433_UART.c ****             }
ARM GAS  C:\Users\Administrator\AppData\Local\Temp\ccO3nPvy.s 			page 4


 145:Generated_Source\PSoC4/UART_433_UART.c ****             else
 146:Generated_Source\PSoC4/UART_433_UART.c ****             {
 147:Generated_Source\PSoC4/UART_433_UART.c ****                 /* OVS settings: UART and SmartCard */
 148:Generated_Source\PSoC4/UART_433_UART.c ****                 UART_433_CTRL_REG  = UART_433_GET_CTRL_OVS(config->oversample);
 149:Generated_Source\PSoC4/UART_433_UART.c ****             }
 150:Generated_Source\PSoC4/UART_433_UART.c **** 
 151:Generated_Source\PSoC4/UART_433_UART.c ****             UART_433_CTRL_REG     |= UART_433_GET_CTRL_BYTE_MODE  (config->enableByteMode)      |
 152:Generated_Source\PSoC4/UART_433_UART.c ****                                              UART_433_GET_CTRL_ADDR_ACCEPT(config->multiprocAcceptA
 153:Generated_Source\PSoC4/UART_433_UART.c ****                                              UART_433_CTRL_UART;
 154:Generated_Source\PSoC4/UART_433_UART.c **** 
 155:Generated_Source\PSoC4/UART_433_UART.c ****             /* Configure sub-mode: UART, SmartCard or IrDA */
 156:Generated_Source\PSoC4/UART_433_UART.c ****             UART_433_UART_CTRL_REG = UART_433_GET_UART_CTRL_MODE(config->mode);
 157:Generated_Source\PSoC4/UART_433_UART.c **** 
 158:Generated_Source\PSoC4/UART_433_UART.c ****             /* Configure RX direction */
 159:Generated_Source\PSoC4/UART_433_UART.c ****             UART_433_UART_RX_CTRL_REG = UART_433_GET_UART_RX_CTRL_MODE(config->stopBits)           
 160:Generated_Source\PSoC4/UART_433_UART.c ****                                         UART_433_GET_UART_RX_CTRL_POLARITY(config->enableInvertedRx
 161:Generated_Source\PSoC4/UART_433_UART.c ****                                         UART_433_GET_UART_RX_CTRL_MP_MODE(config->enableMultiproc) 
 162:Generated_Source\PSoC4/UART_433_UART.c ****                                         UART_433_GET_UART_RX_CTRL_DROP_ON_PARITY_ERR(config->dropOn
 163:Generated_Source\PSoC4/UART_433_UART.c ****                                         UART_433_GET_UART_RX_CTRL_DROP_ON_FRAME_ERR(config->dropOnF
 164:Generated_Source\PSoC4/UART_433_UART.c ****                                         UART_433_GET_UART_RX_CTRL_BREAK_WIDTH(config->breakWidth);
 165:Generated_Source\PSoC4/UART_433_UART.c **** 
 166:Generated_Source\PSoC4/UART_433_UART.c ****             if(UART_433_UART_PARITY_NONE != config->parity)
 167:Generated_Source\PSoC4/UART_433_UART.c ****             {
 168:Generated_Source\PSoC4/UART_433_UART.c ****                UART_433_UART_RX_CTRL_REG |= UART_433_GET_UART_RX_CTRL_PARITY(config->parity) |
 169:Generated_Source\PSoC4/UART_433_UART.c ****                                                     UART_433_UART_RX_CTRL_PARITY_ENABLED;
 170:Generated_Source\PSoC4/UART_433_UART.c ****             }
 171:Generated_Source\PSoC4/UART_433_UART.c **** 
 172:Generated_Source\PSoC4/UART_433_UART.c ****             UART_433_RX_CTRL_REG      = UART_433_GET_RX_CTRL_DATA_WIDTH(config->dataBits)       |
 173:Generated_Source\PSoC4/UART_433_UART.c ****                                                 UART_433_GET_RX_CTRL_MEDIAN(config->enableMedianFil
 174:Generated_Source\PSoC4/UART_433_UART.c ****                                                 UART_433_GET_UART_RX_CTRL_ENABLED(config->direction
 175:Generated_Source\PSoC4/UART_433_UART.c **** 
 176:Generated_Source\PSoC4/UART_433_UART.c ****             UART_433_RX_FIFO_CTRL_REG = UART_433_GET_RX_FIFO_CTRL_TRIGGER_LEVEL(config->rxTriggerLe
 177:Generated_Source\PSoC4/UART_433_UART.c **** 
 178:Generated_Source\PSoC4/UART_433_UART.c ****             /* Configure MP address */
 179:Generated_Source\PSoC4/UART_433_UART.c ****             UART_433_RX_MATCH_REG     = UART_433_GET_RX_MATCH_ADDR(config->multiprocAddr) |
 180:Generated_Source\PSoC4/UART_433_UART.c ****                                                 UART_433_GET_RX_MATCH_MASK(config->multiprocAddrMas
 181:Generated_Source\PSoC4/UART_433_UART.c **** 
 182:Generated_Source\PSoC4/UART_433_UART.c ****             /* Configure RX direction */
 183:Generated_Source\PSoC4/UART_433_UART.c ****             UART_433_UART_TX_CTRL_REG = UART_433_GET_UART_TX_CTRL_MODE(config->stopBits) |
 184:Generated_Source\PSoC4/UART_433_UART.c ****                                                 UART_433_GET_UART_TX_CTRL_RETRY_NACK(config->enable
 185:Generated_Source\PSoC4/UART_433_UART.c **** 
 186:Generated_Source\PSoC4/UART_433_UART.c ****             if(UART_433_UART_PARITY_NONE != config->parity)
 187:Generated_Source\PSoC4/UART_433_UART.c ****             {
 188:Generated_Source\PSoC4/UART_433_UART.c ****                UART_433_UART_TX_CTRL_REG |= UART_433_GET_UART_TX_CTRL_PARITY(config->parity) |
 189:Generated_Source\PSoC4/UART_433_UART.c ****                                                     UART_433_UART_TX_CTRL_PARITY_ENABLED;
 190:Generated_Source\PSoC4/UART_433_UART.c ****             }
 191:Generated_Source\PSoC4/UART_433_UART.c **** 
 192:Generated_Source\PSoC4/UART_433_UART.c ****             UART_433_TX_CTRL_REG      = UART_433_GET_TX_CTRL_DATA_WIDTH(config->dataBits)    |
 193:Generated_Source\PSoC4/UART_433_UART.c ****                                                 UART_433_GET_UART_TX_CTRL_ENABLED(config->direction
 194:Generated_Source\PSoC4/UART_433_UART.c **** 
 195:Generated_Source\PSoC4/UART_433_UART.c ****             UART_433_TX_FIFO_CTRL_REG = UART_433_GET_TX_FIFO_CTRL_TRIGGER_LEVEL(config->txTriggerLe
 196:Generated_Source\PSoC4/UART_433_UART.c **** 
 197:Generated_Source\PSoC4/UART_433_UART.c ****         #if !(UART_433_CY_SCBIP_V0 || UART_433_CY_SCBIP_V1)
 198:Generated_Source\PSoC4/UART_433_UART.c ****             UART_433_UART_FLOW_CTRL_REG = UART_433_GET_UART_FLOW_CTRL_CTS_ENABLE(config->enableCts)
 199:Generated_Source\PSoC4/UART_433_UART.c ****                                             UART_433_GET_UART_FLOW_CTRL_CTS_POLARITY (config->ctsPo
 200:Generated_Source\PSoC4/UART_433_UART.c ****                                             UART_433_GET_UART_FLOW_CTRL_RTS_POLARITY (config->rtsPo
 201:Generated_Source\PSoC4/UART_433_UART.c ****                                             UART_433_GET_UART_FLOW_CTRL_TRIGGER_LEVEL(config->rtsRx
ARM GAS  C:\Users\Administrator\AppData\Local\Temp\ccO3nPvy.s 			page 5


 202:Generated_Source\PSoC4/UART_433_UART.c ****         #endif /* !(UART_433_CY_SCBIP_V0 || UART_433_CY_SCBIP_V1) */
 203:Generated_Source\PSoC4/UART_433_UART.c **** 
 204:Generated_Source\PSoC4/UART_433_UART.c ****             /* Configure interrupt with UART handler but do not enable it */
 205:Generated_Source\PSoC4/UART_433_UART.c ****             CyIntDisable    (UART_433_ISR_NUMBER);
 206:Generated_Source\PSoC4/UART_433_UART.c ****             CyIntSetPriority(UART_433_ISR_NUMBER, UART_433_ISR_PRIORITY);
 207:Generated_Source\PSoC4/UART_433_UART.c ****             (void) CyIntSetVector(UART_433_ISR_NUMBER, &UART_433_SPI_UART_ISR);
 208:Generated_Source\PSoC4/UART_433_UART.c **** 
 209:Generated_Source\PSoC4/UART_433_UART.c ****             /* Configure WAKE interrupt */
 210:Generated_Source\PSoC4/UART_433_UART.c ****         #if(UART_433_UART_RX_WAKEUP_IRQ)
 211:Generated_Source\PSoC4/UART_433_UART.c ****             CyIntDisable    (UART_433_RX_WAKE_ISR_NUMBER);
 212:Generated_Source\PSoC4/UART_433_UART.c ****             CyIntSetPriority(UART_433_RX_WAKE_ISR_NUMBER, UART_433_RX_WAKE_ISR_PRIORITY);
 213:Generated_Source\PSoC4/UART_433_UART.c ****             (void) CyIntSetVector(UART_433_RX_WAKE_ISR_NUMBER, &UART_433_UART_WAKEUP_ISR);
 214:Generated_Source\PSoC4/UART_433_UART.c ****         #endif /* (UART_433_UART_RX_WAKEUP_IRQ) */
 215:Generated_Source\PSoC4/UART_433_UART.c **** 
 216:Generated_Source\PSoC4/UART_433_UART.c ****             /* Configure interrupt sources */
 217:Generated_Source\PSoC4/UART_433_UART.c ****             UART_433_INTR_I2C_EC_MASK_REG = UART_433_NO_INTR_SOURCES;
 218:Generated_Source\PSoC4/UART_433_UART.c ****             UART_433_INTR_SPI_EC_MASK_REG = UART_433_NO_INTR_SOURCES;
 219:Generated_Source\PSoC4/UART_433_UART.c ****             UART_433_INTR_SLAVE_MASK_REG  = UART_433_NO_INTR_SOURCES;
 220:Generated_Source\PSoC4/UART_433_UART.c ****             UART_433_INTR_MASTER_MASK_REG = UART_433_NO_INTR_SOURCES;
 221:Generated_Source\PSoC4/UART_433_UART.c ****             UART_433_INTR_RX_MASK_REG     = config->rxInterruptMask;
 222:Generated_Source\PSoC4/UART_433_UART.c ****             UART_433_INTR_TX_MASK_REG     = config->txInterruptMask;
 223:Generated_Source\PSoC4/UART_433_UART.c **** 
 224:Generated_Source\PSoC4/UART_433_UART.c ****             /* Configure TX interrupt sources to restore. */
 225:Generated_Source\PSoC4/UART_433_UART.c ****             UART_433_IntrTxMask = LO16(UART_433_INTR_TX_MASK_REG);
 226:Generated_Source\PSoC4/UART_433_UART.c **** 
 227:Generated_Source\PSoC4/UART_433_UART.c ****             /* Clear RX buffer indexes */
 228:Generated_Source\PSoC4/UART_433_UART.c ****             UART_433_rxBufferHead     = 0u;
 229:Generated_Source\PSoC4/UART_433_UART.c ****             UART_433_rxBufferTail     = 0u;
 230:Generated_Source\PSoC4/UART_433_UART.c ****             UART_433_rxBufferOverflow = 0u;
 231:Generated_Source\PSoC4/UART_433_UART.c **** 
 232:Generated_Source\PSoC4/UART_433_UART.c ****             /* Clear TX buffer indexes */
 233:Generated_Source\PSoC4/UART_433_UART.c ****             UART_433_txBufferHead = 0u;
 234:Generated_Source\PSoC4/UART_433_UART.c ****             UART_433_txBufferTail = 0u;
 235:Generated_Source\PSoC4/UART_433_UART.c ****         }
 236:Generated_Source\PSoC4/UART_433_UART.c ****     }
 237:Generated_Source\PSoC4/UART_433_UART.c **** 
 238:Generated_Source\PSoC4/UART_433_UART.c **** #else
 239:Generated_Source\PSoC4/UART_433_UART.c **** 
 240:Generated_Source\PSoC4/UART_433_UART.c ****     /*******************************************************************************
 241:Generated_Source\PSoC4/UART_433_UART.c ****     * Function Name: UART_433_UartInit
 242:Generated_Source\PSoC4/UART_433_UART.c ****     ****************************************************************************//**
 243:Generated_Source\PSoC4/UART_433_UART.c ****     *
 244:Generated_Source\PSoC4/UART_433_UART.c ****     *  Configures the SCB for the UART operation.
 245:Generated_Source\PSoC4/UART_433_UART.c ****     *
 246:Generated_Source\PSoC4/UART_433_UART.c ****     *******************************************************************************/
 247:Generated_Source\PSoC4/UART_433_UART.c ****     void UART_433_UartInit(void)
 248:Generated_Source\PSoC4/UART_433_UART.c ****     {
  28              		.loc 1 248 0
  29              		.cfi_startproc
  30              		@ args = 0, pretend = 0, frame = 0
  31              		@ frame_needed = 0, uses_anonymous_args = 0
  32              		@ link register save eliminated.
 249:Generated_Source\PSoC4/UART_433_UART.c ****         /* Configure UART interface */
 250:Generated_Source\PSoC4/UART_433_UART.c ****         UART_433_CTRL_REG = UART_433_UART_DEFAULT_CTRL;
  33              		.loc 1 250 0
  34 0000 154A     		ldr	r2, .L2
  35 0002 164B     		ldr	r3, .L2+4
ARM GAS  C:\Users\Administrator\AppData\Local\Temp\ccO3nPvy.s 			page 6


 251:Generated_Source\PSoC4/UART_433_UART.c **** 
 252:Generated_Source\PSoC4/UART_433_UART.c ****         /* Configure sub-mode: UART, SmartCard or IrDA */
 253:Generated_Source\PSoC4/UART_433_UART.c ****         UART_433_UART_CTRL_REG = UART_433_UART_DEFAULT_UART_CTRL;
 254:Generated_Source\PSoC4/UART_433_UART.c **** 
 255:Generated_Source\PSoC4/UART_433_UART.c ****         /* Configure RX direction */
 256:Generated_Source\PSoC4/UART_433_UART.c ****         UART_433_UART_RX_CTRL_REG = UART_433_UART_DEFAULT_UART_RX_CTRL;
 257:Generated_Source\PSoC4/UART_433_UART.c ****         UART_433_RX_CTRL_REG      = UART_433_UART_DEFAULT_RX_CTRL;
 258:Generated_Source\PSoC4/UART_433_UART.c ****         UART_433_RX_FIFO_CTRL_REG = UART_433_UART_DEFAULT_RX_FIFO_CTRL;
  36              		.loc 1 258 0
  37 0004 0720     		movs	r0, #7
 250:Generated_Source\PSoC4/UART_433_UART.c **** 
  38              		.loc 1 250 0
  39 0006 1A60     		str	r2, [r3]
 253:Generated_Source\PSoC4/UART_433_UART.c **** 
  40              		.loc 1 253 0
  41 0008 0023     		movs	r3, #0
  42 000a 154A     		ldr	r2, .L2+8
 256:Generated_Source\PSoC4/UART_433_UART.c ****         UART_433_RX_CTRL_REG      = UART_433_UART_DEFAULT_RX_CTRL;
  43              		.loc 1 256 0
  44 000c 1549     		ldr	r1, .L2+12
 253:Generated_Source\PSoC4/UART_433_UART.c **** 
  45              		.loc 1 253 0
  46 000e 1360     		str	r3, [r2]
 256:Generated_Source\PSoC4/UART_433_UART.c ****         UART_433_RX_CTRL_REG      = UART_433_UART_DEFAULT_RX_CTRL;
  47              		.loc 1 256 0
  48 0010 154A     		ldr	r2, .L2+16
 259:Generated_Source\PSoC4/UART_433_UART.c ****         UART_433_RX_MATCH_REG     = UART_433_UART_DEFAULT_RX_MATCH_REG;
 260:Generated_Source\PSoC4/UART_433_UART.c **** 
 261:Generated_Source\PSoC4/UART_433_UART.c ****         /* Configure TX direction */
 262:Generated_Source\PSoC4/UART_433_UART.c ****         UART_433_UART_TX_CTRL_REG = UART_433_UART_DEFAULT_UART_TX_CTRL;
 263:Generated_Source\PSoC4/UART_433_UART.c ****         UART_433_TX_CTRL_REG      = UART_433_UART_DEFAULT_TX_CTRL;
 264:Generated_Source\PSoC4/UART_433_UART.c ****         UART_433_TX_FIFO_CTRL_REG = UART_433_UART_DEFAULT_TX_FIFO_CTRL;
 265:Generated_Source\PSoC4/UART_433_UART.c **** 
 266:Generated_Source\PSoC4/UART_433_UART.c ****     #if !(UART_433_CY_SCBIP_V0 || UART_433_CY_SCBIP_V1)
 267:Generated_Source\PSoC4/UART_433_UART.c ****         UART_433_UART_FLOW_CTRL_REG = UART_433_UART_DEFAULT_FLOW_CTRL;
 268:Generated_Source\PSoC4/UART_433_UART.c ****     #endif /* !(UART_433_CY_SCBIP_V0 || UART_433_CY_SCBIP_V1) */
 269:Generated_Source\PSoC4/UART_433_UART.c **** 
 270:Generated_Source\PSoC4/UART_433_UART.c ****         /* Configure interrupt with UART handler but do not enable it */
 271:Generated_Source\PSoC4/UART_433_UART.c ****     #if(UART_433_SCB_IRQ_INTERNAL)
 272:Generated_Source\PSoC4/UART_433_UART.c ****         CyIntDisable    (UART_433_ISR_NUMBER);
 273:Generated_Source\PSoC4/UART_433_UART.c ****         CyIntSetPriority(UART_433_ISR_NUMBER, UART_433_ISR_PRIORITY);
 274:Generated_Source\PSoC4/UART_433_UART.c ****         (void) CyIntSetVector(UART_433_ISR_NUMBER, &UART_433_SPI_UART_ISR);
 275:Generated_Source\PSoC4/UART_433_UART.c ****     #endif /* (UART_433_SCB_IRQ_INTERNAL) */
 276:Generated_Source\PSoC4/UART_433_UART.c **** 
 277:Generated_Source\PSoC4/UART_433_UART.c ****         /* Configure WAKE interrupt */
 278:Generated_Source\PSoC4/UART_433_UART.c ****     #if(UART_433_UART_RX_WAKEUP_IRQ)
 279:Generated_Source\PSoC4/UART_433_UART.c ****         CyIntDisable    (UART_433_RX_WAKE_ISR_NUMBER);
 280:Generated_Source\PSoC4/UART_433_UART.c ****         CyIntSetPriority(UART_433_RX_WAKE_ISR_NUMBER, UART_433_RX_WAKE_ISR_PRIORITY);
 281:Generated_Source\PSoC4/UART_433_UART.c ****         (void) CyIntSetVector(UART_433_RX_WAKE_ISR_NUMBER, &UART_433_UART_WAKEUP_ISR);
 282:Generated_Source\PSoC4/UART_433_UART.c ****     #endif /* (UART_433_UART_RX_WAKEUP_IRQ) */
 283:Generated_Source\PSoC4/UART_433_UART.c **** 
 284:Generated_Source\PSoC4/UART_433_UART.c ****         /* Configure interrupt sources */
 285:Generated_Source\PSoC4/UART_433_UART.c ****         UART_433_INTR_I2C_EC_MASK_REG = UART_433_UART_DEFAULT_INTR_I2C_EC_MASK;
 286:Generated_Source\PSoC4/UART_433_UART.c ****         UART_433_INTR_SPI_EC_MASK_REG = UART_433_UART_DEFAULT_INTR_SPI_EC_MASK;
 287:Generated_Source\PSoC4/UART_433_UART.c ****         UART_433_INTR_SLAVE_MASK_REG  = UART_433_UART_DEFAULT_INTR_SLAVE_MASK;
 288:Generated_Source\PSoC4/UART_433_UART.c ****         UART_433_INTR_MASTER_MASK_REG = UART_433_UART_DEFAULT_INTR_MASTER_MASK;
 289:Generated_Source\PSoC4/UART_433_UART.c ****         UART_433_INTR_RX_MASK_REG     = UART_433_UART_DEFAULT_INTR_RX_MASK;
ARM GAS  C:\Users\Administrator\AppData\Local\Temp\ccO3nPvy.s 			page 7


 290:Generated_Source\PSoC4/UART_433_UART.c ****         UART_433_INTR_TX_MASK_REG     = UART_433_UART_DEFAULT_INTR_TX_MASK;
 291:Generated_Source\PSoC4/UART_433_UART.c **** 
 292:Generated_Source\PSoC4/UART_433_UART.c ****         /* Configure TX interrupt sources to restore. */
 293:Generated_Source\PSoC4/UART_433_UART.c ****         UART_433_IntrTxMask = LO16(UART_433_INTR_TX_MASK_REG);
 294:Generated_Source\PSoC4/UART_433_UART.c **** 
 295:Generated_Source\PSoC4/UART_433_UART.c ****     #if(UART_433_INTERNAL_RX_SW_BUFFER_CONST)
 296:Generated_Source\PSoC4/UART_433_UART.c ****         UART_433_rxBufferHead     = 0u;
 297:Generated_Source\PSoC4/UART_433_UART.c ****         UART_433_rxBufferTail     = 0u;
 298:Generated_Source\PSoC4/UART_433_UART.c ****         UART_433_rxBufferOverflow = 0u;
 299:Generated_Source\PSoC4/UART_433_UART.c ****     #endif /* (UART_433_INTERNAL_RX_SW_BUFFER_CONST) */
 300:Generated_Source\PSoC4/UART_433_UART.c **** 
 301:Generated_Source\PSoC4/UART_433_UART.c ****     #if(UART_433_INTERNAL_TX_SW_BUFFER_CONST)
 302:Generated_Source\PSoC4/UART_433_UART.c ****         UART_433_txBufferHead = 0u;
 303:Generated_Source\PSoC4/UART_433_UART.c ****         UART_433_txBufferTail = 0u;
 304:Generated_Source\PSoC4/UART_433_UART.c ****     #endif /* (UART_433_INTERNAL_TX_SW_BUFFER_CONST) */
 305:Generated_Source\PSoC4/UART_433_UART.c ****     }
  49              		.loc 1 305 0
  50              		@ sp needed
 256:Generated_Source\PSoC4/UART_433_UART.c ****         UART_433_RX_CTRL_REG      = UART_433_UART_DEFAULT_RX_CTRL;
  51              		.loc 1 256 0
  52 0012 1160     		str	r1, [r2]
 257:Generated_Source\PSoC4/UART_433_UART.c ****         UART_433_RX_FIFO_CTRL_REG = UART_433_UART_DEFAULT_RX_FIFO_CTRL;
  53              		.loc 1 257 0
  54 0014 154A     		ldr	r2, .L2+20
  55 0016 1649     		ldr	r1, .L2+24
  56 0018 0A60     		str	r2, [r1]
 258:Generated_Source\PSoC4/UART_433_UART.c ****         UART_433_RX_MATCH_REG     = UART_433_UART_DEFAULT_RX_MATCH_REG;
  57              		.loc 1 258 0
  58 001a 1649     		ldr	r1, .L2+28
  59 001c 0860     		str	r0, [r1]
 259:Generated_Source\PSoC4/UART_433_UART.c ****         UART_433_RX_MATCH_REG     = UART_433_UART_DEFAULT_RX_MATCH_REG;
  60              		.loc 1 259 0
  61 001e 1649     		ldr	r1, .L2+32
 262:Generated_Source\PSoC4/UART_433_UART.c ****         UART_433_TX_CTRL_REG      = UART_433_UART_DEFAULT_TX_CTRL;
  62              		.loc 1 262 0
  63 0020 0638     		subs	r0, r0, #6
 259:Generated_Source\PSoC4/UART_433_UART.c **** 
  64              		.loc 1 259 0
  65 0022 0B60     		str	r3, [r1]
 262:Generated_Source\PSoC4/UART_433_UART.c ****         UART_433_TX_CTRL_REG      = UART_433_UART_DEFAULT_TX_CTRL;
  66              		.loc 1 262 0
  67 0024 1549     		ldr	r1, .L2+36
  68 0026 0860     		str	r0, [r1]
 263:Generated_Source\PSoC4/UART_433_UART.c ****         UART_433_TX_FIFO_CTRL_REG = UART_433_UART_DEFAULT_TX_FIFO_CTRL;
  69              		.loc 1 263 0
  70 0028 1549     		ldr	r1, .L2+40
  71 002a 0A60     		str	r2, [r1]
 264:Generated_Source\PSoC4/UART_433_UART.c **** 
  72              		.loc 1 264 0
  73 002c 154A     		ldr	r2, .L2+44
 267:Generated_Source\PSoC4/UART_433_UART.c ****     #endif /* !(UART_433_CY_SCBIP_V0 || UART_433_CY_SCBIP_V1) */
  74              		.loc 1 267 0
  75 002e 1649     		ldr	r1, .L2+48
 264:Generated_Source\PSoC4/UART_433_UART.c **** 
  76              		.loc 1 264 0
  77 0030 1360     		str	r3, [r2]
 267:Generated_Source\PSoC4/UART_433_UART.c ****     #endif /* !(UART_433_CY_SCBIP_V0 || UART_433_CY_SCBIP_V1) */
ARM GAS  C:\Users\Administrator\AppData\Local\Temp\ccO3nPvy.s 			page 8


  78              		.loc 1 267 0
  79 0032 0422     		movs	r2, #4
  80 0034 0A60     		str	r2, [r1]
 285:Generated_Source\PSoC4/UART_433_UART.c ****         UART_433_INTR_SPI_EC_MASK_REG = UART_433_UART_DEFAULT_INTR_SPI_EC_MASK;
  81              		.loc 1 285 0
  82 0036 1549     		ldr	r1, .L2+52
  83 0038 0B60     		str	r3, [r1]
 286:Generated_Source\PSoC4/UART_433_UART.c ****         UART_433_INTR_SLAVE_MASK_REG  = UART_433_UART_DEFAULT_INTR_SLAVE_MASK;
  84              		.loc 1 286 0
  85 003a 1549     		ldr	r1, .L2+56
  86 003c 0B60     		str	r3, [r1]
 287:Generated_Source\PSoC4/UART_433_UART.c ****         UART_433_INTR_MASTER_MASK_REG = UART_433_UART_DEFAULT_INTR_MASTER_MASK;
  87              		.loc 1 287 0
  88 003e 1549     		ldr	r1, .L2+60
  89 0040 0B60     		str	r3, [r1]
 288:Generated_Source\PSoC4/UART_433_UART.c ****         UART_433_INTR_RX_MASK_REG     = UART_433_UART_DEFAULT_INTR_RX_MASK;
  90              		.loc 1 288 0
  91 0042 1549     		ldr	r1, .L2+64
  92 0044 0B60     		str	r3, [r1]
 289:Generated_Source\PSoC4/UART_433_UART.c ****         UART_433_INTR_TX_MASK_REG     = UART_433_UART_DEFAULT_INTR_TX_MASK;
  93              		.loc 1 289 0
  94 0046 1549     		ldr	r1, .L2+68
  95 0048 0A60     		str	r2, [r1]
 290:Generated_Source\PSoC4/UART_433_UART.c **** 
  96              		.loc 1 290 0
  97 004a 154A     		ldr	r2, .L2+72
  98 004c 1360     		str	r3, [r2]
 293:Generated_Source\PSoC4/UART_433_UART.c **** 
  99              		.loc 1 293 0
 100 004e 1268     		ldr	r2, [r2]
 101 0050 144B     		ldr	r3, .L2+76
 102 0052 1A80     		strh	r2, [r3]
 103              		.loc 1 305 0
 104 0054 7047     		bx	lr
 105              	.L3:
 106 0056 C046     		.align	2
 107              	.L2:
 108 0058 0B000002 		.word	33554443
 109 005c 00002440 		.word	1076101120
 110 0060 40002440 		.word	1076101184
 111 0064 01000A00 		.word	655361
 112 0068 48002440 		.word	1076101192
 113 006c 07000080 		.word	-2147483641
 114 0070 00032440 		.word	1076101888
 115 0074 04032440 		.word	1076101892
 116 0078 10032440 		.word	1076101904
 117 007c 44002440 		.word	1076101188
 118 0080 00022440 		.word	1076101632
 119 0084 04022440 		.word	1076101636
 120 0088 50002440 		.word	1076101200
 121 008c 880E2440 		.word	1076104840
 122 0090 C80E2440 		.word	1076104904
 123 0094 480F2440 		.word	1076105032
 124 0098 080F2440 		.word	1076104968
 125 009c C80F2440 		.word	1076105160
 126 00a0 880F2440 		.word	1076105096
 127 00a4 00000000 		.word	UART_433_IntrTxMask
ARM GAS  C:\Users\Administrator\AppData\Local\Temp\ccO3nPvy.s 			page 9


 128              		.cfi_endproc
 129              	.LFE2:
 130              		.size	UART_433_UartInit, .-UART_433_UartInit
 131              		.section	.text.UART_433_UartPostEnable,"ax",%progbits
 132              		.align	1
 133              		.global	UART_433_UartPostEnable
 134              		.code	16
 135              		.thumb_func
 136              		.type	UART_433_UartPostEnable, %function
 137              	UART_433_UartPostEnable:
 138              	.LFB3:
 306:Generated_Source\PSoC4/UART_433_UART.c **** #endif /* (UART_433_SCB_MODE_UNCONFIG_CONST_CFG) */
 307:Generated_Source\PSoC4/UART_433_UART.c **** 
 308:Generated_Source\PSoC4/UART_433_UART.c **** 
 309:Generated_Source\PSoC4/UART_433_UART.c **** /*******************************************************************************
 310:Generated_Source\PSoC4/UART_433_UART.c **** * Function Name: UART_433_UartPostEnable
 311:Generated_Source\PSoC4/UART_433_UART.c **** ****************************************************************************//**
 312:Generated_Source\PSoC4/UART_433_UART.c **** *
 313:Generated_Source\PSoC4/UART_433_UART.c **** *  Restores HSIOM settings for the UART output pins (TX and/or RTS) to be
 314:Generated_Source\PSoC4/UART_433_UART.c **** *  controlled by the SCB UART.
 315:Generated_Source\PSoC4/UART_433_UART.c **** *
 316:Generated_Source\PSoC4/UART_433_UART.c **** *******************************************************************************/
 317:Generated_Source\PSoC4/UART_433_UART.c **** void UART_433_UartPostEnable(void)
 318:Generated_Source\PSoC4/UART_433_UART.c **** {
 139              		.loc 1 318 0
 140              		.cfi_startproc
 141              		@ args = 0, pretend = 0, frame = 0
 142              		@ frame_needed = 0, uses_anonymous_args = 0
 143              		@ link register save eliminated.
 319:Generated_Source\PSoC4/UART_433_UART.c **** #if (UART_433_SCB_MODE_UNCONFIG_CONST_CFG)
 320:Generated_Source\PSoC4/UART_433_UART.c ****     #if (UART_433_TX_SCL_MISO_PIN)
 321:Generated_Source\PSoC4/UART_433_UART.c ****         if (UART_433_CHECK_TX_SCL_MISO_PIN_USED)
 322:Generated_Source\PSoC4/UART_433_UART.c ****         {
 323:Generated_Source\PSoC4/UART_433_UART.c ****             /* Set SCB UART to drive the output pin */
 324:Generated_Source\PSoC4/UART_433_UART.c ****             UART_433_SET_HSIOM_SEL(UART_433_TX_SCL_MISO_HSIOM_REG, UART_433_TX_SCL_MISO_HSIOM_MASK,
 325:Generated_Source\PSoC4/UART_433_UART.c ****                                            UART_433_TX_SCL_MISO_HSIOM_POS, UART_433_TX_SCL_MISO_HSI
 326:Generated_Source\PSoC4/UART_433_UART.c ****         }
 327:Generated_Source\PSoC4/UART_433_UART.c ****     #endif /* (UART_433_TX_SCL_MISO_PIN_PIN) */
 328:Generated_Source\PSoC4/UART_433_UART.c **** 
 329:Generated_Source\PSoC4/UART_433_UART.c ****     #if !(UART_433_CY_SCBIP_V0 || UART_433_CY_SCBIP_V1)
 330:Generated_Source\PSoC4/UART_433_UART.c ****         #if (UART_433_RTS_SS0_PIN)
 331:Generated_Source\PSoC4/UART_433_UART.c ****             if (UART_433_CHECK_RTS_SS0_PIN_USED)
 332:Generated_Source\PSoC4/UART_433_UART.c ****             {
 333:Generated_Source\PSoC4/UART_433_UART.c ****                 /* Set SCB UART to drive the output pin */
 334:Generated_Source\PSoC4/UART_433_UART.c ****                 UART_433_SET_HSIOM_SEL(UART_433_RTS_SS0_HSIOM_REG, UART_433_RTS_SS0_HSIOM_MASK,
 335:Generated_Source\PSoC4/UART_433_UART.c ****                                                UART_433_RTS_SS0_HSIOM_POS, UART_433_RTS_SS0_HSIOM_S
 336:Generated_Source\PSoC4/UART_433_UART.c ****             }
 337:Generated_Source\PSoC4/UART_433_UART.c ****         #endif /* (UART_433_RTS_SS0_PIN) */
 338:Generated_Source\PSoC4/UART_433_UART.c ****     #endif /* !(UART_433_CY_SCBIP_V0 || UART_433_CY_SCBIP_V1) */
 339:Generated_Source\PSoC4/UART_433_UART.c **** 
 340:Generated_Source\PSoC4/UART_433_UART.c **** #else
 341:Generated_Source\PSoC4/UART_433_UART.c ****     #if (UART_433_UART_TX_PIN)
 342:Generated_Source\PSoC4/UART_433_UART.c ****          /* Set SCB UART to drive the output pin */
 343:Generated_Source\PSoC4/UART_433_UART.c ****         UART_433_SET_HSIOM_SEL(UART_433_TX_HSIOM_REG, UART_433_TX_HSIOM_MASK,
 144              		.loc 1 343 0
 145 0000 064A     		ldr	r2, .L5
 146 0002 074B     		ldr	r3, .L5+4
ARM GAS  C:\Users\Administrator\AppData\Local\Temp\ccO3nPvy.s 			page 10


 147 0004 1168     		ldr	r1, [r2]
 344:Generated_Source\PSoC4/UART_433_UART.c ****                                        UART_433_TX_HSIOM_POS, UART_433_TX_HSIOM_SEL_UART);
 345:Generated_Source\PSoC4/UART_433_UART.c ****     #endif /* (UART_433_UART_TX_PIN) */
 346:Generated_Source\PSoC4/UART_433_UART.c **** 
 347:Generated_Source\PSoC4/UART_433_UART.c ****     #if (UART_433_UART_RTS_PIN)
 348:Generated_Source\PSoC4/UART_433_UART.c ****         /* Set SCB UART to drive the output pin */
 349:Generated_Source\PSoC4/UART_433_UART.c ****         UART_433_SET_HSIOM_SEL(UART_433_RTS_HSIOM_REG, UART_433_RTS_HSIOM_MASK,
 350:Generated_Source\PSoC4/UART_433_UART.c ****                                        UART_433_RTS_HSIOM_POS, UART_433_RTS_HSIOM_SEL_UART);
 351:Generated_Source\PSoC4/UART_433_UART.c ****     #endif /* (UART_433_UART_RTS_PIN) */
 352:Generated_Source\PSoC4/UART_433_UART.c **** #endif /* (UART_433_SCB_MODE_UNCONFIG_CONST_CFG) */
 353:Generated_Source\PSoC4/UART_433_UART.c **** 
 354:Generated_Source\PSoC4/UART_433_UART.c ****     /* Restore TX interrupt sources. */
 355:Generated_Source\PSoC4/UART_433_UART.c ****     UART_433_SetTxInterruptMode(UART_433_IntrTxMask);
 356:Generated_Source\PSoC4/UART_433_UART.c **** }
 148              		.loc 1 356 0
 149              		@ sp needed
 343:Generated_Source\PSoC4/UART_433_UART.c ****                                        UART_433_TX_HSIOM_POS, UART_433_TX_HSIOM_SEL_UART);
 150              		.loc 1 343 0
 151 0006 0B40     		ands	r3, r1
 152 0008 9021     		movs	r1, #144
 153 000a 0904     		lsls	r1, r1, #16
 154 000c 0B43     		orrs	r3, r1
 155 000e 1360     		str	r3, [r2]
 355:Generated_Source\PSoC4/UART_433_UART.c **** }
 156              		.loc 1 355 0
 157 0010 044B     		ldr	r3, .L5+8
 158 0012 1A88     		ldrh	r2, [r3]
 159 0014 044B     		ldr	r3, .L5+12
 160 0016 1A60     		str	r2, [r3]
 161              		.loc 1 356 0
 162 0018 7047     		bx	lr
 163              	.L6:
 164 001a C046     		.align	2
 165              	.L5:
 166 001c 00010240 		.word	1073873152
 167 0020 FFFF0FFF 		.word	-15728641
 168 0024 00000000 		.word	UART_433_IntrTxMask
 169 0028 880F2440 		.word	1076105096
 170              		.cfi_endproc
 171              	.LFE3:
 172              		.size	UART_433_UartPostEnable, .-UART_433_UartPostEnable
 173              		.section	.text.UART_433_UartStop,"ax",%progbits
 174              		.align	1
 175              		.global	UART_433_UartStop
 176              		.code	16
 177              		.thumb_func
 178              		.type	UART_433_UartStop, %function
 179              	UART_433_UartStop:
 180              	.LFB4:
 357:Generated_Source\PSoC4/UART_433_UART.c **** 
 358:Generated_Source\PSoC4/UART_433_UART.c **** 
 359:Generated_Source\PSoC4/UART_433_UART.c **** /*******************************************************************************
 360:Generated_Source\PSoC4/UART_433_UART.c **** * Function Name: UART_433_UartStop
 361:Generated_Source\PSoC4/UART_433_UART.c **** ****************************************************************************//**
 362:Generated_Source\PSoC4/UART_433_UART.c **** *
 363:Generated_Source\PSoC4/UART_433_UART.c **** *  Changes the HSIOM settings for the UART output pins (TX and/or RTS) to keep
 364:Generated_Source\PSoC4/UART_433_UART.c **** *  them inactive after the block is disabled. The output pins are controlled by
ARM GAS  C:\Users\Administrator\AppData\Local\Temp\ccO3nPvy.s 			page 11


 365:Generated_Source\PSoC4/UART_433_UART.c **** *  the GPIO data register. Also, the function disables the skip start feature
 366:Generated_Source\PSoC4/UART_433_UART.c **** *  to not cause it to trigger after the component is enabled.
 367:Generated_Source\PSoC4/UART_433_UART.c **** *
 368:Generated_Source\PSoC4/UART_433_UART.c **** *******************************************************************************/
 369:Generated_Source\PSoC4/UART_433_UART.c **** void UART_433_UartStop(void)
 370:Generated_Source\PSoC4/UART_433_UART.c **** {
 181              		.loc 1 370 0
 182              		.cfi_startproc
 183              		@ args = 0, pretend = 0, frame = 0
 184              		@ frame_needed = 0, uses_anonymous_args = 0
 185              		@ link register save eliminated.
 371:Generated_Source\PSoC4/UART_433_UART.c **** #if(UART_433_SCB_MODE_UNCONFIG_CONST_CFG)
 372:Generated_Source\PSoC4/UART_433_UART.c ****     #if (UART_433_TX_SCL_MISO_PIN)
 373:Generated_Source\PSoC4/UART_433_UART.c ****         if (UART_433_CHECK_TX_SCL_MISO_PIN_USED)
 374:Generated_Source\PSoC4/UART_433_UART.c ****         {
 375:Generated_Source\PSoC4/UART_433_UART.c ****             /* Set GPIO to drive output pin */
 376:Generated_Source\PSoC4/UART_433_UART.c ****             UART_433_SET_HSIOM_SEL(UART_433_TX_SCL_MISO_HSIOM_REG, UART_433_TX_SCL_MISO_HSIOM_MASK,
 377:Generated_Source\PSoC4/UART_433_UART.c ****                                            UART_433_TX_SCL_MISO_HSIOM_POS, UART_433_TX_SCL_MISO_HSI
 378:Generated_Source\PSoC4/UART_433_UART.c ****         }
 379:Generated_Source\PSoC4/UART_433_UART.c ****     #endif /* (UART_433_TX_SCL_MISO_PIN_PIN) */
 380:Generated_Source\PSoC4/UART_433_UART.c **** 
 381:Generated_Source\PSoC4/UART_433_UART.c ****     #if !(UART_433_CY_SCBIP_V0 || UART_433_CY_SCBIP_V1)
 382:Generated_Source\PSoC4/UART_433_UART.c ****         #if (UART_433_RTS_SS0_PIN)
 383:Generated_Source\PSoC4/UART_433_UART.c ****             if (UART_433_CHECK_RTS_SS0_PIN_USED)
 384:Generated_Source\PSoC4/UART_433_UART.c ****             {
 385:Generated_Source\PSoC4/UART_433_UART.c ****                 /* Set output pin state after block is disabled */
 386:Generated_Source\PSoC4/UART_433_UART.c ****                 UART_433_uart_rts_spi_ss0_Write(UART_433_GET_UART_RTS_INACTIVE);
 387:Generated_Source\PSoC4/UART_433_UART.c **** 
 388:Generated_Source\PSoC4/UART_433_UART.c ****                 /* Set GPIO to drive output pin */
 389:Generated_Source\PSoC4/UART_433_UART.c ****                 UART_433_SET_HSIOM_SEL(UART_433_RTS_SS0_HSIOM_REG, UART_433_RTS_SS0_HSIOM_MASK,
 390:Generated_Source\PSoC4/UART_433_UART.c ****                                                UART_433_RTS_SS0_HSIOM_POS, UART_433_RTS_SS0_HSIOM_S
 391:Generated_Source\PSoC4/UART_433_UART.c ****             }
 392:Generated_Source\PSoC4/UART_433_UART.c ****         #endif /* (UART_433_RTS_SS0_PIN) */
 393:Generated_Source\PSoC4/UART_433_UART.c ****     #endif /* !(UART_433_CY_SCBIP_V0 || UART_433_CY_SCBIP_V1) */
 394:Generated_Source\PSoC4/UART_433_UART.c **** 
 395:Generated_Source\PSoC4/UART_433_UART.c **** #else
 396:Generated_Source\PSoC4/UART_433_UART.c ****     #if (UART_433_UART_TX_PIN)
 397:Generated_Source\PSoC4/UART_433_UART.c ****         /* Set GPIO to drive output pin */
 398:Generated_Source\PSoC4/UART_433_UART.c ****         UART_433_SET_HSIOM_SEL(UART_433_TX_HSIOM_REG, UART_433_TX_HSIOM_MASK,
 186              		.loc 1 398 0
 187 0000 064A     		ldr	r2, .L8
 188 0002 074B     		ldr	r3, .L8+4
 189 0004 1168     		ldr	r1, [r2]
 399:Generated_Source\PSoC4/UART_433_UART.c ****                                        UART_433_TX_HSIOM_POS, UART_433_TX_HSIOM_SEL_GPIO);
 400:Generated_Source\PSoC4/UART_433_UART.c ****     #endif /* (UART_433_UART_TX_PIN) */
 401:Generated_Source\PSoC4/UART_433_UART.c **** 
 402:Generated_Source\PSoC4/UART_433_UART.c ****     #if (UART_433_UART_RTS_PIN)
 403:Generated_Source\PSoC4/UART_433_UART.c ****         /* Set output pin state after block is disabled */
 404:Generated_Source\PSoC4/UART_433_UART.c ****         UART_433_rts_Write(UART_433_GET_UART_RTS_INACTIVE);
 405:Generated_Source\PSoC4/UART_433_UART.c **** 
 406:Generated_Source\PSoC4/UART_433_UART.c ****         /* Set GPIO to drive output pin */
 407:Generated_Source\PSoC4/UART_433_UART.c ****         UART_433_SET_HSIOM_SEL(UART_433_RTS_HSIOM_REG, UART_433_RTS_HSIOM_MASK,
 408:Generated_Source\PSoC4/UART_433_UART.c ****                                        UART_433_RTS_HSIOM_POS, UART_433_RTS_HSIOM_SEL_GPIO);
 409:Generated_Source\PSoC4/UART_433_UART.c ****     #endif /* (UART_433_UART_RTS_PIN) */
 410:Generated_Source\PSoC4/UART_433_UART.c **** 
 411:Generated_Source\PSoC4/UART_433_UART.c **** #endif /* (UART_433_SCB_MODE_UNCONFIG_CONST_CFG) */
 412:Generated_Source\PSoC4/UART_433_UART.c **** 
ARM GAS  C:\Users\Administrator\AppData\Local\Temp\ccO3nPvy.s 			page 12


 413:Generated_Source\PSoC4/UART_433_UART.c **** #if (UART_433_UART_WAKE_ENABLE_CONST)
 414:Generated_Source\PSoC4/UART_433_UART.c ****     /* Disable skip start feature used for wakeup */
 415:Generated_Source\PSoC4/UART_433_UART.c ****     UART_433_UART_RX_CTRL_REG &= (uint32) ~UART_433_UART_RX_CTRL_SKIP_START;
 416:Generated_Source\PSoC4/UART_433_UART.c **** #endif /* (UART_433_UART_WAKE_ENABLE_CONST) */
 417:Generated_Source\PSoC4/UART_433_UART.c **** 
 418:Generated_Source\PSoC4/UART_433_UART.c ****     /* Store TX interrupt sources (exclude level triggered). */
 419:Generated_Source\PSoC4/UART_433_UART.c ****     UART_433_IntrTxMask = LO16(UART_433_GetTxInterruptMode() & UART_433_INTR_UART_TX_RESTORE);
 420:Generated_Source\PSoC4/UART_433_UART.c **** }
 190              		.loc 1 420 0
 191              		@ sp needed
 398:Generated_Source\PSoC4/UART_433_UART.c ****                                        UART_433_TX_HSIOM_POS, UART_433_TX_HSIOM_SEL_GPIO);
 192              		.loc 1 398 0
 193 0006 0B40     		ands	r3, r1
 194 0008 1360     		str	r3, [r2]
 419:Generated_Source\PSoC4/UART_433_UART.c **** }
 195              		.loc 1 419 0
 196 000a 064B     		ldr	r3, .L8+8
 197 000c 1A68     		ldr	r2, [r3]
 198 000e E423     		movs	r3, #228
 199 0010 DB00     		lsls	r3, r3, #3
 200 0012 1340     		ands	r3, r2
 201 0014 044A     		ldr	r2, .L8+12
 202 0016 1380     		strh	r3, [r2]
 203              		.loc 1 420 0
 204 0018 7047     		bx	lr
 205              	.L9:
 206 001a C046     		.align	2
 207              	.L8:
 208 001c 00010240 		.word	1073873152
 209 0020 FFFF0FFF 		.word	-15728641
 210 0024 880F2440 		.word	1076105096
 211 0028 00000000 		.word	UART_433_IntrTxMask
 212              		.cfi_endproc
 213              	.LFE4:
 214              		.size	UART_433_UartStop, .-UART_433_UartStop
 215              		.section	.text.UART_433_UartSetRxAddress,"ax",%progbits
 216              		.align	1
 217              		.global	UART_433_UartSetRxAddress
 218              		.code	16
 219              		.thumb_func
 220              		.type	UART_433_UartSetRxAddress, %function
 221              	UART_433_UartSetRxAddress:
 222              	.LFB5:
 421:Generated_Source\PSoC4/UART_433_UART.c **** 
 422:Generated_Source\PSoC4/UART_433_UART.c **** 
 423:Generated_Source\PSoC4/UART_433_UART.c **** /*******************************************************************************
 424:Generated_Source\PSoC4/UART_433_UART.c **** * Function Name: UART_433_UartSetRxAddress
 425:Generated_Source\PSoC4/UART_433_UART.c **** ****************************************************************************//**
 426:Generated_Source\PSoC4/UART_433_UART.c **** *
 427:Generated_Source\PSoC4/UART_433_UART.c **** *  Sets the hardware detectable receiver address for the UART in the
 428:Generated_Source\PSoC4/UART_433_UART.c **** *  Multiprocessor mode.
 429:Generated_Source\PSoC4/UART_433_UART.c **** *
 430:Generated_Source\PSoC4/UART_433_UART.c **** *  \param address: Address for hardware address detection.
 431:Generated_Source\PSoC4/UART_433_UART.c **** *
 432:Generated_Source\PSoC4/UART_433_UART.c **** *******************************************************************************/
 433:Generated_Source\PSoC4/UART_433_UART.c **** void UART_433_UartSetRxAddress(uint32 address)
 434:Generated_Source\PSoC4/UART_433_UART.c **** {
ARM GAS  C:\Users\Administrator\AppData\Local\Temp\ccO3nPvy.s 			page 13


 223              		.loc 1 434 0
 224              		.cfi_startproc
 225              		@ args = 0, pretend = 0, frame = 0
 226              		@ frame_needed = 0, uses_anonymous_args = 0
 227              		@ link register save eliminated.
 228              	.LVL0:
 435:Generated_Source\PSoC4/UART_433_UART.c ****      uint32 matchReg;
 436:Generated_Source\PSoC4/UART_433_UART.c **** 
 437:Generated_Source\PSoC4/UART_433_UART.c ****     matchReg = UART_433_RX_MATCH_REG;
 438:Generated_Source\PSoC4/UART_433_UART.c **** 
 439:Generated_Source\PSoC4/UART_433_UART.c ****     matchReg &= ((uint32) ~UART_433_RX_MATCH_ADDR_MASK); /* Clear address bits */
 229              		.loc 1 439 0
 230 0000 FF22     		movs	r2, #255
 437:Generated_Source\PSoC4/UART_433_UART.c **** 
 231              		.loc 1 437 0
 232 0002 0349     		ldr	r1, .L11
 440:Generated_Source\PSoC4/UART_433_UART.c ****     matchReg |= ((uint32)  (address & UART_433_RX_MATCH_ADDR_MASK)); /* Set address  */
 233              		.loc 1 440 0
 234 0004 1040     		ands	r0, r2
 235              	.LVL1:
 437:Generated_Source\PSoC4/UART_433_UART.c **** 
 236              		.loc 1 437 0
 237 0006 0B68     		ldr	r3, [r1]
 238              	.LVL2:
 441:Generated_Source\PSoC4/UART_433_UART.c **** 
 442:Generated_Source\PSoC4/UART_433_UART.c ****     UART_433_RX_MATCH_REG = matchReg;
 443:Generated_Source\PSoC4/UART_433_UART.c **** }
 239              		.loc 1 443 0
 240              		@ sp needed
 439:Generated_Source\PSoC4/UART_433_UART.c ****     matchReg |= ((uint32)  (address & UART_433_RX_MATCH_ADDR_MASK)); /* Set address  */
 241              		.loc 1 439 0
 242 0008 9343     		bics	r3, r2
 243              	.LVL3:
 440:Generated_Source\PSoC4/UART_433_UART.c ****     matchReg |= ((uint32)  (address & UART_433_RX_MATCH_ADDR_MASK)); /* Set address  */
 244              		.loc 1 440 0
 245 000a 1843     		orrs	r0, r3
 246              	.LVL4:
 442:Generated_Source\PSoC4/UART_433_UART.c **** }
 247              		.loc 1 442 0
 248 000c 0860     		str	r0, [r1]
 249              		.loc 1 443 0
 250 000e 7047     		bx	lr
 251              	.L12:
 252              		.align	2
 253              	.L11:
 254 0010 10032440 		.word	1076101904
 255              		.cfi_endproc
 256              	.LFE5:
 257              		.size	UART_433_UartSetRxAddress, .-UART_433_UartSetRxAddress
 258              		.section	.text.UART_433_UartSetRxAddressMask,"ax",%progbits
 259              		.align	1
 260              		.global	UART_433_UartSetRxAddressMask
 261              		.code	16
 262              		.thumb_func
 263              		.type	UART_433_UartSetRxAddressMask, %function
 264              	UART_433_UartSetRxAddressMask:
 265              	.LFB6:
ARM GAS  C:\Users\Administrator\AppData\Local\Temp\ccO3nPvy.s 			page 14


 444:Generated_Source\PSoC4/UART_433_UART.c **** 
 445:Generated_Source\PSoC4/UART_433_UART.c **** 
 446:Generated_Source\PSoC4/UART_433_UART.c **** /*******************************************************************************
 447:Generated_Source\PSoC4/UART_433_UART.c **** * Function Name: UART_433_UartSetRxAddressMask
 448:Generated_Source\PSoC4/UART_433_UART.c **** ****************************************************************************//**
 449:Generated_Source\PSoC4/UART_433_UART.c **** *
 450:Generated_Source\PSoC4/UART_433_UART.c **** *  Sets the hardware address mask for the UART in the Multiprocessor mode.
 451:Generated_Source\PSoC4/UART_433_UART.c **** *
 452:Generated_Source\PSoC4/UART_433_UART.c **** *  \param addressMask: Address mask.
 453:Generated_Source\PSoC4/UART_433_UART.c **** *   - Bit value 0 ¨C excludes bit from address comparison.
 454:Generated_Source\PSoC4/UART_433_UART.c **** *   - Bit value 1 ¨C the bit needs to match with the corresponding bit
 455:Generated_Source\PSoC4/UART_433_UART.c **** *     of the address.
 456:Generated_Source\PSoC4/UART_433_UART.c **** *
 457:Generated_Source\PSoC4/UART_433_UART.c **** *******************************************************************************/
 458:Generated_Source\PSoC4/UART_433_UART.c **** void UART_433_UartSetRxAddressMask(uint32 addressMask)
 459:Generated_Source\PSoC4/UART_433_UART.c **** {
 266              		.loc 1 459 0
 267              		.cfi_startproc
 268              		@ args = 0, pretend = 0, frame = 0
 269              		@ frame_needed = 0, uses_anonymous_args = 0
 270              		@ link register save eliminated.
 271              	.LVL5:
 460:Generated_Source\PSoC4/UART_433_UART.c ****     uint32 matchReg;
 461:Generated_Source\PSoC4/UART_433_UART.c **** 
 462:Generated_Source\PSoC4/UART_433_UART.c ****     matchReg = UART_433_RX_MATCH_REG;
 272              		.loc 1 462 0
 273 0000 034A     		ldr	r2, .L14
 463:Generated_Source\PSoC4/UART_433_UART.c **** 
 464:Generated_Source\PSoC4/UART_433_UART.c ****     matchReg &= ((uint32) ~UART_433_RX_MATCH_MASK_MASK); /* Clear address mask bits */
 274              		.loc 1 464 0
 275 0002 044B     		ldr	r3, .L14+4
 462:Generated_Source\PSoC4/UART_433_UART.c **** 
 276              		.loc 1 462 0
 277 0004 1168     		ldr	r1, [r2]
 278              	.LVL6:
 465:Generated_Source\PSoC4/UART_433_UART.c ****     matchReg |= ((uint32) (addressMask << UART_433_RX_MATCH_MASK_POS));
 279              		.loc 1 465 0
 280 0006 0004     		lsls	r0, r0, #16
 281              	.LVL7:
 464:Generated_Source\PSoC4/UART_433_UART.c ****     matchReg |= ((uint32) (addressMask << UART_433_RX_MATCH_MASK_POS));
 282              		.loc 1 464 0
 283 0008 0B40     		ands	r3, r1
 284              	.LVL8:
 285              		.loc 1 465 0
 286 000a 1843     		orrs	r0, r3
 287              	.LVL9:
 466:Generated_Source\PSoC4/UART_433_UART.c **** 
 467:Generated_Source\PSoC4/UART_433_UART.c ****     UART_433_RX_MATCH_REG = matchReg;
 288              		.loc 1 467 0
 289 000c 1060     		str	r0, [r2]
 468:Generated_Source\PSoC4/UART_433_UART.c **** }
 290              		.loc 1 468 0
 291              		@ sp needed
 292 000e 7047     		bx	lr
 293              	.L15:
 294              		.align	2
 295              	.L14:
ARM GAS  C:\Users\Administrator\AppData\Local\Temp\ccO3nPvy.s 			page 15


 296 0010 10032440 		.word	1076101904
 297 0014 FFFF00FF 		.word	-16711681
 298              		.cfi_endproc
 299              	.LFE6:
 300              		.size	UART_433_UartSetRxAddressMask, .-UART_433_UartSetRxAddressMask
 301              		.section	.text.UART_433_UartGetChar,"ax",%progbits
 302              		.align	1
 303              		.global	UART_433_UartGetChar
 304              		.code	16
 305              		.thumb_func
 306              		.type	UART_433_UartGetChar, %function
 307              	UART_433_UartGetChar:
 308              	.LFB7:
 469:Generated_Source\PSoC4/UART_433_UART.c **** 
 470:Generated_Source\PSoC4/UART_433_UART.c **** 
 471:Generated_Source\PSoC4/UART_433_UART.c **** #if(UART_433_UART_RX_DIRECTION)
 472:Generated_Source\PSoC4/UART_433_UART.c ****     /*******************************************************************************
 473:Generated_Source\PSoC4/UART_433_UART.c ****     * Function Name: UART_433_UartGetChar
 474:Generated_Source\PSoC4/UART_433_UART.c ****     ****************************************************************************//**
 475:Generated_Source\PSoC4/UART_433_UART.c ****     *
 476:Generated_Source\PSoC4/UART_433_UART.c ****     *  Retrieves next data element from receive buffer.
 477:Generated_Source\PSoC4/UART_433_UART.c ****     *  This function is designed for ASCII characters and returns a char where
 478:Generated_Source\PSoC4/UART_433_UART.c ****     *  1 to 255 are valid characters and 0 indicates an error occurred or no data
 479:Generated_Source\PSoC4/UART_433_UART.c ****     *  is present.
 480:Generated_Source\PSoC4/UART_433_UART.c ****     *  - RX software buffer is disabled: Returns data element retrieved from RX
 481:Generated_Source\PSoC4/UART_433_UART.c ****     *    FIFO.
 482:Generated_Source\PSoC4/UART_433_UART.c ****     *  - RX software buffer is enabled: Returns data element from the software
 483:Generated_Source\PSoC4/UART_433_UART.c ****     *    receive buffer.
 484:Generated_Source\PSoC4/UART_433_UART.c ****     *
 485:Generated_Source\PSoC4/UART_433_UART.c ****     *  \return
 486:Generated_Source\PSoC4/UART_433_UART.c ****     *   Next data element from the receive buffer. ASCII character values from
 487:Generated_Source\PSoC4/UART_433_UART.c ****     *   1 to 255 are valid. A returned zero signifies an error condition or no
 488:Generated_Source\PSoC4/UART_433_UART.c ****     *   data available.
 489:Generated_Source\PSoC4/UART_433_UART.c ****     *
 490:Generated_Source\PSoC4/UART_433_UART.c ****     *  \sideeffect
 491:Generated_Source\PSoC4/UART_433_UART.c ****     *   The errors bits may not correspond with reading characters due to
 492:Generated_Source\PSoC4/UART_433_UART.c ****     *   RX FIFO and software buffer usage.
 493:Generated_Source\PSoC4/UART_433_UART.c ****     *   RX software buffer is enabled: The internal software buffer overflow
 494:Generated_Source\PSoC4/UART_433_UART.c ****     *   is not treated as an error condition.
 495:Generated_Source\PSoC4/UART_433_UART.c ****     *   Check UART_433_rxBufferOverflow to capture that error condition.
 496:Generated_Source\PSoC4/UART_433_UART.c ****     *
 497:Generated_Source\PSoC4/UART_433_UART.c ****     *******************************************************************************/
 498:Generated_Source\PSoC4/UART_433_UART.c ****     uint32 UART_433_UartGetChar(void)
 499:Generated_Source\PSoC4/UART_433_UART.c ****     {
 309              		.loc 1 499 0
 310              		.cfi_startproc
 311              		@ args = 0, pretend = 0, frame = 0
 312              		@ frame_needed = 0, uses_anonymous_args = 0
 313              	.LVL10:
 314 0000 10B5     		push	{r4, lr}
 315              		.cfi_def_cfa_offset 8
 316              		.cfi_offset 4, -8
 317              		.cfi_offset 14, -4
 500:Generated_Source\PSoC4/UART_433_UART.c ****         uint32 rxData = 0u;
 501:Generated_Source\PSoC4/UART_433_UART.c **** 
 502:Generated_Source\PSoC4/UART_433_UART.c ****         /* Reads data only if there is data to read */
 503:Generated_Source\PSoC4/UART_433_UART.c ****         if (0u != UART_433_SpiUartGetRxBufferSize())
ARM GAS  C:\Users\Administrator\AppData\Local\Temp\ccO3nPvy.s 			page 16


 318              		.loc 1 503 0
 319 0002 FFF7FEFF 		bl	UART_433_SpiUartGetRxBufferSize
 320              	.LVL11:
 321 0006 0300     		movs	r3, r0
 500:Generated_Source\PSoC4/UART_433_UART.c ****         uint32 rxData = 0u;
 322              		.loc 1 500 0
 323 0008 0020     		movs	r0, #0
 324              		.loc 1 503 0
 325 000a 8342     		cmp	r3, r0
 326 000c 01D0     		beq	.L17
 504:Generated_Source\PSoC4/UART_433_UART.c ****         {
 505:Generated_Source\PSoC4/UART_433_UART.c ****             rxData = UART_433_SpiUartReadRxData();
 327              		.loc 1 505 0
 328 000e FFF7FEFF 		bl	UART_433_SpiUartReadRxData
 329              	.LVL12:
 330              	.L17:
 506:Generated_Source\PSoC4/UART_433_UART.c ****         }
 507:Generated_Source\PSoC4/UART_433_UART.c **** 
 508:Generated_Source\PSoC4/UART_433_UART.c ****         if (UART_433_CHECK_INTR_RX(UART_433_INTR_RX_ERR))
 331              		.loc 1 508 0
 332 0012 D822     		movs	r2, #216
 333 0014 034B     		ldr	r3, .L25
 334 0016 9200     		lsls	r2, r2, #2
 335 0018 1968     		ldr	r1, [r3]
 336 001a 1142     		tst	r1, r2
 337 001c 01D0     		beq	.L18
 338              	.LVL13:
 509:Generated_Source\PSoC4/UART_433_UART.c ****         {
 510:Generated_Source\PSoC4/UART_433_UART.c ****             rxData = 0u; /* Error occurred: returns zero */
 339              		.loc 1 510 0
 340 001e 0020     		movs	r0, #0
 511:Generated_Source\PSoC4/UART_433_UART.c ****             UART_433_ClearRxInterruptSource(UART_433_INTR_RX_ERR);
 341              		.loc 1 511 0
 342 0020 1A60     		str	r2, [r3]
 343              	.LVL14:
 344              	.L18:
 512:Generated_Source\PSoC4/UART_433_UART.c ****         }
 513:Generated_Source\PSoC4/UART_433_UART.c **** 
 514:Generated_Source\PSoC4/UART_433_UART.c ****         return (rxData);
 515:Generated_Source\PSoC4/UART_433_UART.c ****     }
 345              		.loc 1 515 0
 346              		@ sp needed
 347 0022 10BD     		pop	{r4, pc}
 348              	.L26:
 349              		.align	2
 350              	.L25:
 351 0024 C00F2440 		.word	1076105152
 352              		.cfi_endproc
 353              	.LFE7:
 354              		.size	UART_433_UartGetChar, .-UART_433_UartGetChar
 355              		.section	.text.UART_433_UartGetByte,"ax",%progbits
 356              		.align	1
 357              		.global	UART_433_UartGetByte
 358              		.code	16
 359              		.thumb_func
 360              		.type	UART_433_UartGetByte, %function
 361              	UART_433_UartGetByte:
ARM GAS  C:\Users\Administrator\AppData\Local\Temp\ccO3nPvy.s 			page 17


 362              	.LFB8:
 516:Generated_Source\PSoC4/UART_433_UART.c **** 
 517:Generated_Source\PSoC4/UART_433_UART.c **** 
 518:Generated_Source\PSoC4/UART_433_UART.c ****     /*******************************************************************************
 519:Generated_Source\PSoC4/UART_433_UART.c ****     * Function Name: UART_433_UartGetByte
 520:Generated_Source\PSoC4/UART_433_UART.c ****     ****************************************************************************//**
 521:Generated_Source\PSoC4/UART_433_UART.c ****     *
 522:Generated_Source\PSoC4/UART_433_UART.c ****     *  Retrieves the next data element from the receive buffer, returns the
 523:Generated_Source\PSoC4/UART_433_UART.c ****     *  received byte and error condition.
 524:Generated_Source\PSoC4/UART_433_UART.c ****     *   - The RX software buffer is disabled: returns the data element retrieved
 525:Generated_Source\PSoC4/UART_433_UART.c ****     *     from the RX FIFO. Undefined data will be returned if the RX FIFO is
 526:Generated_Source\PSoC4/UART_433_UART.c ****     *     empty.
 527:Generated_Source\PSoC4/UART_433_UART.c ****     *   - The RX software buffer is enabled: returns data element from the
 528:Generated_Source\PSoC4/UART_433_UART.c ****     *     software receive buffer.
 529:Generated_Source\PSoC4/UART_433_UART.c ****     *
 530:Generated_Source\PSoC4/UART_433_UART.c ****     *  \return
 531:Generated_Source\PSoC4/UART_433_UART.c ****     *   Bits 7-0 contain the next data element from the receive buffer and
 532:Generated_Source\PSoC4/UART_433_UART.c ****     *   other bits contain the error condition.
 533:Generated_Source\PSoC4/UART_433_UART.c ****     *   - UART_433_UART_RX_OVERFLOW - Attempt to write to a full
 534:Generated_Source\PSoC4/UART_433_UART.c ****     *     receiver FIFO.
 535:Generated_Source\PSoC4/UART_433_UART.c ****     *   - UART_433_UART_RX_UNDERFLOW    Attempt to read from an empty
 536:Generated_Source\PSoC4/UART_433_UART.c ****     *     receiver FIFO.
 537:Generated_Source\PSoC4/UART_433_UART.c ****     *   - UART_433_UART_RX_FRAME_ERROR - UART framing error detected.
 538:Generated_Source\PSoC4/UART_433_UART.c ****     *   - UART_433_UART_RX_PARITY_ERROR - UART parity error detected.
 539:Generated_Source\PSoC4/UART_433_UART.c ****     *
 540:Generated_Source\PSoC4/UART_433_UART.c ****     *  \sideeffect
 541:Generated_Source\PSoC4/UART_433_UART.c ****     *   The errors bits may not correspond with reading characters due to
 542:Generated_Source\PSoC4/UART_433_UART.c ****     *   RX FIFO and software buffer usage.
 543:Generated_Source\PSoC4/UART_433_UART.c ****     *   RX software buffer is enabled: The internal software buffer overflow
 544:Generated_Source\PSoC4/UART_433_UART.c ****     *   is not treated as an error condition.
 545:Generated_Source\PSoC4/UART_433_UART.c ****     *   Check UART_433_rxBufferOverflow to capture that error condition.
 546:Generated_Source\PSoC4/UART_433_UART.c ****     *
 547:Generated_Source\PSoC4/UART_433_UART.c ****     *******************************************************************************/
 548:Generated_Source\PSoC4/UART_433_UART.c ****     uint32 UART_433_UartGetByte(void)
 549:Generated_Source\PSoC4/UART_433_UART.c ****     {
 363              		.loc 1 549 0
 364              		.cfi_startproc
 365              		@ args = 0, pretend = 0, frame = 0
 366              		@ frame_needed = 0, uses_anonymous_args = 0
 367 0000 10B5     		push	{r4, lr}
 368              		.cfi_def_cfa_offset 8
 369              		.cfi_offset 4, -8
 370              		.cfi_offset 14, -4
 550:Generated_Source\PSoC4/UART_433_UART.c ****         uint32 rxData;
 551:Generated_Source\PSoC4/UART_433_UART.c ****         uint32 tmpStatus;
 552:Generated_Source\PSoC4/UART_433_UART.c **** 
 553:Generated_Source\PSoC4/UART_433_UART.c ****         #if (UART_433_CHECK_RX_SW_BUFFER)
 554:Generated_Source\PSoC4/UART_433_UART.c ****         {
 555:Generated_Source\PSoC4/UART_433_UART.c ****             UART_433_DisableInt();
 556:Generated_Source\PSoC4/UART_433_UART.c ****         }
 557:Generated_Source\PSoC4/UART_433_UART.c ****         #endif
 558:Generated_Source\PSoC4/UART_433_UART.c **** 
 559:Generated_Source\PSoC4/UART_433_UART.c ****         if (0u != UART_433_SpiUartGetRxBufferSize())
 371              		.loc 1 559 0
 372 0002 FFF7FEFF 		bl	UART_433_SpiUartGetRxBufferSize
 373              	.LVL15:
 374 0006 0028     		cmp	r0, #0
ARM GAS  C:\Users\Administrator\AppData\Local\Temp\ccO3nPvy.s 			page 18


 375 0008 02D0     		beq	.L28
 560:Generated_Source\PSoC4/UART_433_UART.c ****         {
 561:Generated_Source\PSoC4/UART_433_UART.c ****             /* Enables interrupt to receive more bytes: at least one byte is in
 562:Generated_Source\PSoC4/UART_433_UART.c ****             * buffer.
 563:Generated_Source\PSoC4/UART_433_UART.c ****             */
 564:Generated_Source\PSoC4/UART_433_UART.c ****             #if (UART_433_CHECK_RX_SW_BUFFER)
 565:Generated_Source\PSoC4/UART_433_UART.c ****             {
 566:Generated_Source\PSoC4/UART_433_UART.c ****                 UART_433_EnableInt();
 567:Generated_Source\PSoC4/UART_433_UART.c ****             }
 568:Generated_Source\PSoC4/UART_433_UART.c ****             #endif
 569:Generated_Source\PSoC4/UART_433_UART.c **** 
 570:Generated_Source\PSoC4/UART_433_UART.c ****             /* Get received byte */
 571:Generated_Source\PSoC4/UART_433_UART.c ****             rxData = UART_433_SpiUartReadRxData();
 376              		.loc 1 571 0
 377 000a FFF7FEFF 		bl	UART_433_SpiUartReadRxData
 378              	.LVL16:
 379 000e 01E0     		b	.L29
 380              	.LVL17:
 381              	.L28:
 572:Generated_Source\PSoC4/UART_433_UART.c ****         }
 573:Generated_Source\PSoC4/UART_433_UART.c ****         else
 574:Generated_Source\PSoC4/UART_433_UART.c ****         {
 575:Generated_Source\PSoC4/UART_433_UART.c ****             /* Reads a byte directly from RX FIFO: underflow is raised in the
 576:Generated_Source\PSoC4/UART_433_UART.c ****             * case of empty. Otherwise the first received byte will be read.
 577:Generated_Source\PSoC4/UART_433_UART.c ****             */
 578:Generated_Source\PSoC4/UART_433_UART.c ****             rxData = UART_433_RX_FIFO_RD_REG;
 382              		.loc 1 578 0
 383 0010 064B     		ldr	r3, .L30
 384 0012 1868     		ldr	r0, [r3]
 385              	.LVL18:
 386              	.L29:
 579:Generated_Source\PSoC4/UART_433_UART.c **** 
 580:Generated_Source\PSoC4/UART_433_UART.c **** 
 581:Generated_Source\PSoC4/UART_433_UART.c ****             /* Enables interrupt to receive more bytes. */
 582:Generated_Source\PSoC4/UART_433_UART.c ****             #if (UART_433_CHECK_RX_SW_BUFFER)
 583:Generated_Source\PSoC4/UART_433_UART.c ****             {
 584:Generated_Source\PSoC4/UART_433_UART.c **** 
 585:Generated_Source\PSoC4/UART_433_UART.c ****                 /* The byte has been read from RX FIFO. Clear RX interrupt to
 586:Generated_Source\PSoC4/UART_433_UART.c ****                 * not involve interrupt handler when RX FIFO is empty.
 587:Generated_Source\PSoC4/UART_433_UART.c ****                 */
 588:Generated_Source\PSoC4/UART_433_UART.c ****                 UART_433_ClearRxInterruptSource(UART_433_INTR_RX_NOT_EMPTY);
 589:Generated_Source\PSoC4/UART_433_UART.c **** 
 590:Generated_Source\PSoC4/UART_433_UART.c ****                 UART_433_EnableInt();
 591:Generated_Source\PSoC4/UART_433_UART.c ****             }
 592:Generated_Source\PSoC4/UART_433_UART.c ****             #endif
 593:Generated_Source\PSoC4/UART_433_UART.c ****         }
 594:Generated_Source\PSoC4/UART_433_UART.c **** 
 595:Generated_Source\PSoC4/UART_433_UART.c ****         /* Get and clear RX error mask */
 596:Generated_Source\PSoC4/UART_433_UART.c ****         tmpStatus = (UART_433_GetRxInterruptSource() & UART_433_INTR_RX_ERR);
 597:Generated_Source\PSoC4/UART_433_UART.c ****         UART_433_ClearRxInterruptSource(UART_433_INTR_RX_ERR);
 387              		.loc 1 597 0
 388 0014 D821     		movs	r1, #216
 596:Generated_Source\PSoC4/UART_433_UART.c ****         UART_433_ClearRxInterruptSource(UART_433_INTR_RX_ERR);
 389              		.loc 1 596 0
 390 0016 064A     		ldr	r2, .L30+4
 391              		.loc 1 597 0
 392 0018 8900     		lsls	r1, r1, #2
ARM GAS  C:\Users\Administrator\AppData\Local\Temp\ccO3nPvy.s 			page 19


 596:Generated_Source\PSoC4/UART_433_UART.c ****         UART_433_ClearRxInterruptSource(UART_433_INTR_RX_ERR);
 393              		.loc 1 596 0
 394 001a 1368     		ldr	r3, [r2]
 395              	.LVL19:
 396              		.loc 1 597 0
 397 001c 1160     		str	r1, [r2]
 398              	.LVL20:
 598:Generated_Source\PSoC4/UART_433_UART.c **** 
 599:Generated_Source\PSoC4/UART_433_UART.c ****         /* Puts together data and error status:
 600:Generated_Source\PSoC4/UART_433_UART.c ****         * MP mode and accept address: 9th bit is set to notify mark.
 601:Generated_Source\PSoC4/UART_433_UART.c ****         */
 602:Generated_Source\PSoC4/UART_433_UART.c ****         rxData |= ((uint32) (tmpStatus << 8u));
 603:Generated_Source\PSoC4/UART_433_UART.c **** 
 604:Generated_Source\PSoC4/UART_433_UART.c ****         return (rxData);
 399              		.loc 1 604 0
 400 001e D822     		movs	r2, #216
 401 0020 1B02     		lsls	r3, r3, #8
 402              	.LVL21:
 403 0022 9202     		lsls	r2, r2, #10
 404 0024 1340     		ands	r3, r2
 405 0026 1843     		orrs	r0, r3
 605:Generated_Source\PSoC4/UART_433_UART.c ****     }
 406              		.loc 1 605 0
 407              		@ sp needed
 408 0028 10BD     		pop	{r4, pc}
 409              	.L31:
 410 002a C046     		.align	2
 411              	.L30:
 412 002c 40032440 		.word	1076101952
 413 0030 C00F2440 		.word	1076105152
 414              		.cfi_endproc
 415              	.LFE8:
 416              		.size	UART_433_UartGetByte, .-UART_433_UartGetByte
 417              		.section	.text.UART_433_UartSetRtsPolarity,"ax",%progbits
 418              		.align	1
 419              		.global	UART_433_UartSetRtsPolarity
 420              		.code	16
 421              		.thumb_func
 422              		.type	UART_433_UartSetRtsPolarity, %function
 423              	UART_433_UartSetRtsPolarity:
 424              	.LFB9:
 606:Generated_Source\PSoC4/UART_433_UART.c **** 
 607:Generated_Source\PSoC4/UART_433_UART.c **** 
 608:Generated_Source\PSoC4/UART_433_UART.c ****     #if !(UART_433_CY_SCBIP_V0 || UART_433_CY_SCBIP_V1)
 609:Generated_Source\PSoC4/UART_433_UART.c ****         /*******************************************************************************
 610:Generated_Source\PSoC4/UART_433_UART.c ****         * Function Name: UART_433_UartSetRtsPolarity
 611:Generated_Source\PSoC4/UART_433_UART.c ****         ****************************************************************************//**
 612:Generated_Source\PSoC4/UART_433_UART.c ****         *
 613:Generated_Source\PSoC4/UART_433_UART.c ****         *  Sets active polarity of RTS output signal.
 614:Generated_Source\PSoC4/UART_433_UART.c ****         *  Only available for PSoC 4100 BLE / PSoC 4200 BLE / PSoC 4100M / PSoC 4200M /
 615:Generated_Source\PSoC4/UART_433_UART.c ****         *  PSoC 4200L / PSoC 4000S / PSoC 4100S / PSoC Analog Coprocessor devices.
 616:Generated_Source\PSoC4/UART_433_UART.c ****         *
 617:Generated_Source\PSoC4/UART_433_UART.c ****         *  \param polarity: Active polarity of RTS output signal.
 618:Generated_Source\PSoC4/UART_433_UART.c ****         *   - UART_433_UART_RTS_ACTIVE_LOW  - RTS signal is active low.
 619:Generated_Source\PSoC4/UART_433_UART.c ****         *   - UART_433_UART_RTS_ACTIVE_HIGH - RTS signal is active high.
 620:Generated_Source\PSoC4/UART_433_UART.c ****         *
 621:Generated_Source\PSoC4/UART_433_UART.c ****         *******************************************************************************/
ARM GAS  C:\Users\Administrator\AppData\Local\Temp\ccO3nPvy.s 			page 20


 622:Generated_Source\PSoC4/UART_433_UART.c ****         void UART_433_UartSetRtsPolarity(uint32 polarity)
 623:Generated_Source\PSoC4/UART_433_UART.c ****         {
 425              		.loc 1 623 0
 426              		.cfi_startproc
 427              		@ args = 0, pretend = 0, frame = 0
 428              		@ frame_needed = 0, uses_anonymous_args = 0
 429              		@ link register save eliminated.
 430              	.LVL22:
 431 0000 064B     		ldr	r3, .L36
 624:Generated_Source\PSoC4/UART_433_UART.c ****             if(0u != polarity)
 432              		.loc 1 624 0
 433 0002 0028     		cmp	r0, #0
 434 0004 04D0     		beq	.L33
 625:Generated_Source\PSoC4/UART_433_UART.c ****             {
 626:Generated_Source\PSoC4/UART_433_UART.c ****                 UART_433_UART_FLOW_CTRL_REG |= (uint32)  UART_433_UART_FLOW_CTRL_RTS_POLARITY;
 435              		.loc 1 626 0
 436 0006 8021     		movs	r1, #128
 437 0008 1A68     		ldr	r2, [r3]
 438 000a 4902     		lsls	r1, r1, #9
 439 000c 0A43     		orrs	r2, r1
 440 000e 02E0     		b	.L35
 441              	.L33:
 627:Generated_Source\PSoC4/UART_433_UART.c ****             }
 628:Generated_Source\PSoC4/UART_433_UART.c ****             else
 629:Generated_Source\PSoC4/UART_433_UART.c ****             {
 630:Generated_Source\PSoC4/UART_433_UART.c ****                 UART_433_UART_FLOW_CTRL_REG &= (uint32) ~UART_433_UART_FLOW_CTRL_RTS_POLARITY;
 442              		.loc 1 630 0
 443 0010 1968     		ldr	r1, [r3]
 444 0012 034A     		ldr	r2, .L36+4
 445 0014 0A40     		ands	r2, r1
 446              	.L35:
 447 0016 1A60     		str	r2, [r3]
 631:Generated_Source\PSoC4/UART_433_UART.c ****             }
 632:Generated_Source\PSoC4/UART_433_UART.c ****         }
 448              		.loc 1 632 0
 449              		@ sp needed
 450 0018 7047     		bx	lr
 451              	.L37:
 452 001a C046     		.align	2
 453              	.L36:
 454 001c 50002440 		.word	1076101200
 455 0020 FFFFFEFF 		.word	-65537
 456              		.cfi_endproc
 457              	.LFE9:
 458              		.size	UART_433_UartSetRtsPolarity, .-UART_433_UartSetRtsPolarity
 459              		.section	.text.UART_433_UartSetRtsFifoLevel,"ax",%progbits
 460              		.align	1
 461              		.global	UART_433_UartSetRtsFifoLevel
 462              		.code	16
 463              		.thumb_func
 464              		.type	UART_433_UartSetRtsFifoLevel, %function
 465              	UART_433_UartSetRtsFifoLevel:
 466              	.LFB10:
 633:Generated_Source\PSoC4/UART_433_UART.c **** 
 634:Generated_Source\PSoC4/UART_433_UART.c **** 
 635:Generated_Source\PSoC4/UART_433_UART.c ****         /*******************************************************************************
 636:Generated_Source\PSoC4/UART_433_UART.c ****         * Function Name: UART_433_UartSetRtsFifoLevel
ARM GAS  C:\Users\Administrator\AppData\Local\Temp\ccO3nPvy.s 			page 21


 637:Generated_Source\PSoC4/UART_433_UART.c ****         ****************************************************************************//**
 638:Generated_Source\PSoC4/UART_433_UART.c ****         *
 639:Generated_Source\PSoC4/UART_433_UART.c ****         *  Sets level in the RX FIFO for RTS signal activation.
 640:Generated_Source\PSoC4/UART_433_UART.c ****         *  While the RX FIFO has fewer entries than the RX FIFO level the RTS signal
 641:Generated_Source\PSoC4/UART_433_UART.c ****         *  remains active, otherwise the RTS signal becomes inactive.
 642:Generated_Source\PSoC4/UART_433_UART.c ****         *  Only available for PSoC 4100 BLE / PSoC 4200 BLE / PSoC 4100M / PSoC 4200M /
 643:Generated_Source\PSoC4/UART_433_UART.c ****         *  PSoC 4200L / PSoC 4000S / PSoC 4100S / PSoC Analog Coprocessor devices.
 644:Generated_Source\PSoC4/UART_433_UART.c ****         *
 645:Generated_Source\PSoC4/UART_433_UART.c ****         *  \param level: Level in the RX FIFO for RTS signal activation.
 646:Generated_Source\PSoC4/UART_433_UART.c ****         *   The range of valid level values is between 0 and RX FIFO depth - 1.
 647:Generated_Source\PSoC4/UART_433_UART.c ****         *   Setting level value to 0 disables RTS signal activation.
 648:Generated_Source\PSoC4/UART_433_UART.c ****         *
 649:Generated_Source\PSoC4/UART_433_UART.c ****         *******************************************************************************/
 650:Generated_Source\PSoC4/UART_433_UART.c ****         void UART_433_UartSetRtsFifoLevel(uint32 level)
 651:Generated_Source\PSoC4/UART_433_UART.c ****         {
 467              		.loc 1 651 0
 468              		.cfi_startproc
 469              		@ args = 0, pretend = 0, frame = 0
 470              		@ frame_needed = 0, uses_anonymous_args = 0
 471              		@ link register save eliminated.
 472              	.LVL23:
 652:Generated_Source\PSoC4/UART_433_UART.c ****             uint32 uartFlowCtrl;
 653:Generated_Source\PSoC4/UART_433_UART.c **** 
 654:Generated_Source\PSoC4/UART_433_UART.c ****             uartFlowCtrl = UART_433_UART_FLOW_CTRL_REG;
 655:Generated_Source\PSoC4/UART_433_UART.c **** 
 656:Generated_Source\PSoC4/UART_433_UART.c ****             uartFlowCtrl &= ((uint32) ~UART_433_UART_FLOW_CTRL_TRIGGER_LEVEL_MASK); /* Clear level 
 473              		.loc 1 656 0
 474 0000 0F22     		movs	r2, #15
 654:Generated_Source\PSoC4/UART_433_UART.c **** 
 475              		.loc 1 654 0
 476 0002 0349     		ldr	r1, .L39
 657:Generated_Source\PSoC4/UART_433_UART.c ****             uartFlowCtrl |= ((uint32) (UART_433_UART_FLOW_CTRL_TRIGGER_LEVEL_MASK & level));
 477              		.loc 1 657 0
 478 0004 1040     		ands	r0, r2
 479              	.LVL24:
 654:Generated_Source\PSoC4/UART_433_UART.c **** 
 480              		.loc 1 654 0
 481 0006 0B68     		ldr	r3, [r1]
 482              	.LVL25:
 658:Generated_Source\PSoC4/UART_433_UART.c **** 
 659:Generated_Source\PSoC4/UART_433_UART.c ****             UART_433_UART_FLOW_CTRL_REG = uartFlowCtrl;
 660:Generated_Source\PSoC4/UART_433_UART.c ****         }
 483              		.loc 1 660 0
 484              		@ sp needed
 656:Generated_Source\PSoC4/UART_433_UART.c ****             uartFlowCtrl |= ((uint32) (UART_433_UART_FLOW_CTRL_TRIGGER_LEVEL_MASK & level));
 485              		.loc 1 656 0
 486 0008 9343     		bics	r3, r2
 487              	.LVL26:
 657:Generated_Source\PSoC4/UART_433_UART.c ****             uartFlowCtrl |= ((uint32) (UART_433_UART_FLOW_CTRL_TRIGGER_LEVEL_MASK & level));
 488              		.loc 1 657 0
 489 000a 1843     		orrs	r0, r3
 490              	.LVL27:
 659:Generated_Source\PSoC4/UART_433_UART.c ****         }
 491              		.loc 1 659 0
 492 000c 0860     		str	r0, [r1]
 493              		.loc 1 660 0
 494 000e 7047     		bx	lr
ARM GAS  C:\Users\Administrator\AppData\Local\Temp\ccO3nPvy.s 			page 22


 495              	.L40:
 496              		.align	2
 497              	.L39:
 498 0010 50002440 		.word	1076101200
 499              		.cfi_endproc
 500              	.LFE10:
 501              		.size	UART_433_UartSetRtsFifoLevel, .-UART_433_UartSetRtsFifoLevel
 502              		.section	.text.UART_433_UartPutString,"ax",%progbits
 503              		.align	1
 504              		.global	UART_433_UartPutString
 505              		.code	16
 506              		.thumb_func
 507              		.type	UART_433_UartPutString, %function
 508              	UART_433_UartPutString:
 509              	.LFB11:
 661:Generated_Source\PSoC4/UART_433_UART.c ****     #endif /* !(UART_433_CY_SCBIP_V0 || UART_433_CY_SCBIP_V1) */
 662:Generated_Source\PSoC4/UART_433_UART.c **** 
 663:Generated_Source\PSoC4/UART_433_UART.c **** #endif /* (UART_433_UART_RX_DIRECTION) */
 664:Generated_Source\PSoC4/UART_433_UART.c **** 
 665:Generated_Source\PSoC4/UART_433_UART.c **** 
 666:Generated_Source\PSoC4/UART_433_UART.c **** #if(UART_433_UART_TX_DIRECTION)
 667:Generated_Source\PSoC4/UART_433_UART.c ****     /*******************************************************************************
 668:Generated_Source\PSoC4/UART_433_UART.c ****     * Function Name: UART_433_UartPutString
 669:Generated_Source\PSoC4/UART_433_UART.c ****     ****************************************************************************//**
 670:Generated_Source\PSoC4/UART_433_UART.c ****     *
 671:Generated_Source\PSoC4/UART_433_UART.c ****     *  Places a NULL terminated string in the transmit buffer to be sent at the
 672:Generated_Source\PSoC4/UART_433_UART.c ****     *  next available bus time.
 673:Generated_Source\PSoC4/UART_433_UART.c ****     *  This function is blocking and waits until there is a space available to put
 674:Generated_Source\PSoC4/UART_433_UART.c ****     *  requested data in transmit buffer.
 675:Generated_Source\PSoC4/UART_433_UART.c ****     *
 676:Generated_Source\PSoC4/UART_433_UART.c ****     *  \param string: pointer to the null terminated string array to be placed in the
 677:Generated_Source\PSoC4/UART_433_UART.c ****     *   transmit buffer.
 678:Generated_Source\PSoC4/UART_433_UART.c ****     *
 679:Generated_Source\PSoC4/UART_433_UART.c ****     *******************************************************************************/
 680:Generated_Source\PSoC4/UART_433_UART.c ****     void UART_433_UartPutString(const char8 string[])
 681:Generated_Source\PSoC4/UART_433_UART.c ****     {
 510              		.loc 1 681 0
 511              		.cfi_startproc
 512              		@ args = 0, pretend = 0, frame = 0
 513              		@ frame_needed = 0, uses_anonymous_args = 0
 514              	.LVL28:
 515 0000 10B5     		push	{r4, lr}
 516              		.cfi_def_cfa_offset 8
 517              		.cfi_offset 4, -8
 518              		.cfi_offset 14, -4
 519 0002 0400     		movs	r4, r0
 520              	.LVL29:
 521              	.L42:
 522 0004 0134     		adds	r4, r4, #1
 523              	.LVL30:
 682:Generated_Source\PSoC4/UART_433_UART.c ****         uint32 bufIndex;
 683:Generated_Source\PSoC4/UART_433_UART.c **** 
 684:Generated_Source\PSoC4/UART_433_UART.c ****         bufIndex = 0u;
 685:Generated_Source\PSoC4/UART_433_UART.c **** 
 686:Generated_Source\PSoC4/UART_433_UART.c ****         /* Blocks the control flow until all data has been sent */
 687:Generated_Source\PSoC4/UART_433_UART.c ****         while(string[bufIndex] != ((char8) 0))
 524              		.loc 1 687 0
ARM GAS  C:\Users\Administrator\AppData\Local\Temp\ccO3nPvy.s 			page 23


 525 0006 631E     		subs	r3, r4, #1
 526 0008 1878     		ldrb	r0, [r3]
 527 000a 0028     		cmp	r0, #0
 528 000c 02D0     		beq	.L44
 688:Generated_Source\PSoC4/UART_433_UART.c ****         {
 689:Generated_Source\PSoC4/UART_433_UART.c ****             UART_433_UartPutChar((uint32) string[bufIndex]);
 529              		.loc 1 689 0
 530 000e FFF7FEFF 		bl	UART_433_SpiUartWriteTxData
 531              	.LVL31:
 532 0012 F7E7     		b	.L42
 533              	.LVL32:
 534              	.L44:
 690:Generated_Source\PSoC4/UART_433_UART.c ****             bufIndex++;
 691:Generated_Source\PSoC4/UART_433_UART.c ****         }
 692:Generated_Source\PSoC4/UART_433_UART.c ****     }
 535              		.loc 1 692 0
 536              		@ sp needed
 537              	.LVL33:
 538 0014 10BD     		pop	{r4, pc}
 539              		.cfi_endproc
 540              	.LFE11:
 541              		.size	UART_433_UartPutString, .-UART_433_UartPutString
 542              		.section	.text.UART_433_UartPutCRLF,"ax",%progbits
 543              		.align	1
 544              		.global	UART_433_UartPutCRLF
 545              		.code	16
 546              		.thumb_func
 547              		.type	UART_433_UartPutCRLF, %function
 548              	UART_433_UartPutCRLF:
 549              	.LFB12:
 693:Generated_Source\PSoC4/UART_433_UART.c **** 
 694:Generated_Source\PSoC4/UART_433_UART.c **** 
 695:Generated_Source\PSoC4/UART_433_UART.c ****     /*******************************************************************************
 696:Generated_Source\PSoC4/UART_433_UART.c ****     * Function Name: UART_433_UartPutCRLF
 697:Generated_Source\PSoC4/UART_433_UART.c ****     ****************************************************************************//**
 698:Generated_Source\PSoC4/UART_433_UART.c ****     *
 699:Generated_Source\PSoC4/UART_433_UART.c ****     *  Places byte of data followed by a carriage return (0x0D) and line feed
 700:Generated_Source\PSoC4/UART_433_UART.c ****     *  (0x0A) in the transmit buffer.
 701:Generated_Source\PSoC4/UART_433_UART.c ****     *  This function is blocking and waits until there is a space available to put
 702:Generated_Source\PSoC4/UART_433_UART.c ****     *  all requested data in transmit buffer.
 703:Generated_Source\PSoC4/UART_433_UART.c ****     *
 704:Generated_Source\PSoC4/UART_433_UART.c ****     *  \param txDataByte: the data to be transmitted.
 705:Generated_Source\PSoC4/UART_433_UART.c ****     *
 706:Generated_Source\PSoC4/UART_433_UART.c ****     *******************************************************************************/
 707:Generated_Source\PSoC4/UART_433_UART.c ****     void UART_433_UartPutCRLF(uint32 txDataByte)
 708:Generated_Source\PSoC4/UART_433_UART.c ****     {
 550              		.loc 1 708 0
 551              		.cfi_startproc
 552              		@ args = 0, pretend = 0, frame = 0
 553              		@ frame_needed = 0, uses_anonymous_args = 0
 554              	.LVL34:
 555 0000 10B5     		push	{r4, lr}
 556              		.cfi_def_cfa_offset 8
 557              		.cfi_offset 4, -8
 558              		.cfi_offset 14, -4
 709:Generated_Source\PSoC4/UART_433_UART.c ****         UART_433_UartPutChar(txDataByte);  /* Blocks control flow until all data has been sent */
 559              		.loc 1 709 0
ARM GAS  C:\Users\Administrator\AppData\Local\Temp\ccO3nPvy.s 			page 24


 560 0002 FFF7FEFF 		bl	UART_433_SpiUartWriteTxData
 561              	.LVL35:
 710:Generated_Source\PSoC4/UART_433_UART.c ****         UART_433_UartPutChar(0x0Du);       /* Blocks control flow until all data has been sent */
 562              		.loc 1 710 0
 563 0006 0D20     		movs	r0, #13
 564 0008 FFF7FEFF 		bl	UART_433_SpiUartWriteTxData
 565              	.LVL36:
 711:Generated_Source\PSoC4/UART_433_UART.c ****         UART_433_UartPutChar(0x0Au);       /* Blocks control flow until all data has been sent */
 566              		.loc 1 711 0
 567 000c 0A20     		movs	r0, #10
 568 000e FFF7FEFF 		bl	UART_433_SpiUartWriteTxData
 569              	.LVL37:
 712:Generated_Source\PSoC4/UART_433_UART.c ****     }
 570              		.loc 1 712 0
 571              		@ sp needed
 572 0012 10BD     		pop	{r4, pc}
 573              		.cfi_endproc
 574              	.LFE12:
 575              		.size	UART_433_UartPutCRLF, .-UART_433_UartPutCRLF
 576              		.section	.text.UART_433_UartEnableCts,"ax",%progbits
 577              		.align	1
 578              		.global	UART_433_UartEnableCts
 579              		.code	16
 580              		.thumb_func
 581              		.type	UART_433_UartEnableCts, %function
 582              	UART_433_UartEnableCts:
 583              	.LFB13:
 713:Generated_Source\PSoC4/UART_433_UART.c **** 
 714:Generated_Source\PSoC4/UART_433_UART.c **** 
 715:Generated_Source\PSoC4/UART_433_UART.c ****     #if !(UART_433_CY_SCBIP_V0 || UART_433_CY_SCBIP_V1)
 716:Generated_Source\PSoC4/UART_433_UART.c ****         /*******************************************************************************
 717:Generated_Source\PSoC4/UART_433_UART.c ****         * Function Name: UART_433SCB_UartEnableCts
 718:Generated_Source\PSoC4/UART_433_UART.c ****         ****************************************************************************//**
 719:Generated_Source\PSoC4/UART_433_UART.c ****         *
 720:Generated_Source\PSoC4/UART_433_UART.c ****         *  Enables usage of CTS input signal by the UART transmitter.
 721:Generated_Source\PSoC4/UART_433_UART.c ****         *  Only available for PSoC 4100 BLE / PSoC 4200 BLE / PSoC 4100M / PSoC 4200M /
 722:Generated_Source\PSoC4/UART_433_UART.c ****         *  PSoC 4200L / PSoC 4000S / PSoC 4100S / PSoC Analog Coprocessor devices.
 723:Generated_Source\PSoC4/UART_433_UART.c ****         *
 724:Generated_Source\PSoC4/UART_433_UART.c ****         *******************************************************************************/
 725:Generated_Source\PSoC4/UART_433_UART.c ****         void UART_433_UartEnableCts(void)
 726:Generated_Source\PSoC4/UART_433_UART.c ****         {
 584              		.loc 1 726 0
 585              		.cfi_startproc
 586              		@ args = 0, pretend = 0, frame = 0
 587              		@ frame_needed = 0, uses_anonymous_args = 0
 588              		@ link register save eliminated.
 727:Generated_Source\PSoC4/UART_433_UART.c ****             UART_433_UART_FLOW_CTRL_REG |= (uint32)  UART_433_UART_FLOW_CTRL_CTS_ENABLE;
 589              		.loc 1 727 0
 590 0000 8021     		movs	r1, #128
 591 0002 034A     		ldr	r2, .L47
 592 0004 8904     		lsls	r1, r1, #18
 593 0006 1368     		ldr	r3, [r2]
 728:Generated_Source\PSoC4/UART_433_UART.c ****         }
 594              		.loc 1 728 0
 595              		@ sp needed
 727:Generated_Source\PSoC4/UART_433_UART.c ****             UART_433_UART_FLOW_CTRL_REG |= (uint32)  UART_433_UART_FLOW_CTRL_CTS_ENABLE;
 596              		.loc 1 727 0
ARM GAS  C:\Users\Administrator\AppData\Local\Temp\ccO3nPvy.s 			page 25


 597 0008 0B43     		orrs	r3, r1
 598 000a 1360     		str	r3, [r2]
 599              		.loc 1 728 0
 600 000c 7047     		bx	lr
 601              	.L48:
 602 000e C046     		.align	2
 603              	.L47:
 604 0010 50002440 		.word	1076101200
 605              		.cfi_endproc
 606              	.LFE13:
 607              		.size	UART_433_UartEnableCts, .-UART_433_UartEnableCts
 608              		.section	.text.UART_433_UartDisableCts,"ax",%progbits
 609              		.align	1
 610              		.global	UART_433_UartDisableCts
 611              		.code	16
 612              		.thumb_func
 613              		.type	UART_433_UartDisableCts, %function
 614              	UART_433_UartDisableCts:
 615              	.LFB14:
 729:Generated_Source\PSoC4/UART_433_UART.c **** 
 730:Generated_Source\PSoC4/UART_433_UART.c **** 
 731:Generated_Source\PSoC4/UART_433_UART.c ****         /*******************************************************************************
 732:Generated_Source\PSoC4/UART_433_UART.c ****         * Function Name: UART_433_UartDisableCts
 733:Generated_Source\PSoC4/UART_433_UART.c ****         ****************************************************************************//**
 734:Generated_Source\PSoC4/UART_433_UART.c ****         *
 735:Generated_Source\PSoC4/UART_433_UART.c ****         *  Disables usage of CTS input signal by the UART transmitter.
 736:Generated_Source\PSoC4/UART_433_UART.c ****         *  Only available for PSoC 4100 BLE / PSoC 4200 BLE / PSoC 4100M / PSoC 4200M /
 737:Generated_Source\PSoC4/UART_433_UART.c ****         *  PSoC 4200L / PSoC 4000S / PSoC 4100S / PSoC Analog Coprocessor devices.
 738:Generated_Source\PSoC4/UART_433_UART.c ****         *
 739:Generated_Source\PSoC4/UART_433_UART.c ****         *******************************************************************************/
 740:Generated_Source\PSoC4/UART_433_UART.c ****         void UART_433_UartDisableCts(void)
 741:Generated_Source\PSoC4/UART_433_UART.c ****         {
 616              		.loc 1 741 0
 617              		.cfi_startproc
 618              		@ args = 0, pretend = 0, frame = 0
 619              		@ frame_needed = 0, uses_anonymous_args = 0
 620              		@ link register save eliminated.
 742:Generated_Source\PSoC4/UART_433_UART.c ****             UART_433_UART_FLOW_CTRL_REG &= (uint32) ~UART_433_UART_FLOW_CTRL_CTS_ENABLE;
 621              		.loc 1 742 0
 622 0000 024A     		ldr	r2, .L50
 623 0002 034B     		ldr	r3, .L50+4
 624 0004 1168     		ldr	r1, [r2]
 743:Generated_Source\PSoC4/UART_433_UART.c ****         }
 625              		.loc 1 743 0
 626              		@ sp needed
 742:Generated_Source\PSoC4/UART_433_UART.c ****             UART_433_UART_FLOW_CTRL_REG &= (uint32) ~UART_433_UART_FLOW_CTRL_CTS_ENABLE;
 627              		.loc 1 742 0
 628 0006 0B40     		ands	r3, r1
 629 0008 1360     		str	r3, [r2]
 630              		.loc 1 743 0
 631 000a 7047     		bx	lr
 632              	.L51:
 633              		.align	2
 634              	.L50:
 635 000c 50002440 		.word	1076101200
 636 0010 FFFFFFFD 		.word	-33554433
 637              		.cfi_endproc
ARM GAS  C:\Users\Administrator\AppData\Local\Temp\ccO3nPvy.s 			page 26


 638              	.LFE14:
 639              		.size	UART_433_UartDisableCts, .-UART_433_UartDisableCts
 640              		.section	.text.UART_433_UartSetCtsPolarity,"ax",%progbits
 641              		.align	1
 642              		.global	UART_433_UartSetCtsPolarity
 643              		.code	16
 644              		.thumb_func
 645              		.type	UART_433_UartSetCtsPolarity, %function
 646              	UART_433_UartSetCtsPolarity:
 647              	.LFB15:
 744:Generated_Source\PSoC4/UART_433_UART.c **** 
 745:Generated_Source\PSoC4/UART_433_UART.c **** 
 746:Generated_Source\PSoC4/UART_433_UART.c ****         /*******************************************************************************
 747:Generated_Source\PSoC4/UART_433_UART.c ****         * Function Name: UART_433_UartSetCtsPolarity
 748:Generated_Source\PSoC4/UART_433_UART.c ****         ****************************************************************************//**
 749:Generated_Source\PSoC4/UART_433_UART.c ****         *
 750:Generated_Source\PSoC4/UART_433_UART.c ****         *  Sets active polarity of CTS input signal.
 751:Generated_Source\PSoC4/UART_433_UART.c ****         *  Only available for PSoC 4100 BLE / PSoC 4200 BLE / PSoC 4100M / PSoC 4200M /
 752:Generated_Source\PSoC4/UART_433_UART.c ****         *  PSoC 4200L / PSoC 4000S / PSoC 4100S / PSoC Analog Coprocessor devices.
 753:Generated_Source\PSoC4/UART_433_UART.c ****         *
 754:Generated_Source\PSoC4/UART_433_UART.c ****         * \param
 755:Generated_Source\PSoC4/UART_433_UART.c ****         * polarity: Active polarity of CTS output signal.
 756:Generated_Source\PSoC4/UART_433_UART.c ****         *   - UART_433_UART_CTS_ACTIVE_LOW  - CTS signal is active low.
 757:Generated_Source\PSoC4/UART_433_UART.c ****         *   - UART_433_UART_CTS_ACTIVE_HIGH - CTS signal is active high.
 758:Generated_Source\PSoC4/UART_433_UART.c ****         *
 759:Generated_Source\PSoC4/UART_433_UART.c ****         *******************************************************************************/
 760:Generated_Source\PSoC4/UART_433_UART.c ****         void UART_433_UartSetCtsPolarity(uint32 polarity)
 761:Generated_Source\PSoC4/UART_433_UART.c ****         {
 648              		.loc 1 761 0
 649              		.cfi_startproc
 650              		@ args = 0, pretend = 0, frame = 0
 651              		@ frame_needed = 0, uses_anonymous_args = 0
 652              		@ link register save eliminated.
 653              	.LVL38:
 654 0000 064B     		ldr	r3, .L56
 762:Generated_Source\PSoC4/UART_433_UART.c ****             if (0u != polarity)
 655              		.loc 1 762 0
 656 0002 0028     		cmp	r0, #0
 657 0004 04D0     		beq	.L53
 763:Generated_Source\PSoC4/UART_433_UART.c ****             {
 764:Generated_Source\PSoC4/UART_433_UART.c ****                 UART_433_UART_FLOW_CTRL_REG |= (uint32)  UART_433_UART_FLOW_CTRL_CTS_POLARITY;
 658              		.loc 1 764 0
 659 0006 8021     		movs	r1, #128
 660 0008 1A68     		ldr	r2, [r3]
 661 000a 4904     		lsls	r1, r1, #17
 662 000c 0A43     		orrs	r2, r1
 663 000e 02E0     		b	.L55
 664              	.L53:
 765:Generated_Source\PSoC4/UART_433_UART.c ****             }
 766:Generated_Source\PSoC4/UART_433_UART.c ****             else
 767:Generated_Source\PSoC4/UART_433_UART.c ****             {
 768:Generated_Source\PSoC4/UART_433_UART.c ****                 UART_433_UART_FLOW_CTRL_REG &= (uint32) ~UART_433_UART_FLOW_CTRL_CTS_POLARITY;
 665              		.loc 1 768 0
 666 0010 1968     		ldr	r1, [r3]
 667 0012 034A     		ldr	r2, .L56+4
 668 0014 0A40     		ands	r2, r1
 669              	.L55:
ARM GAS  C:\Users\Administrator\AppData\Local\Temp\ccO3nPvy.s 			page 27


 670 0016 1A60     		str	r2, [r3]
 769:Generated_Source\PSoC4/UART_433_UART.c ****             }
 770:Generated_Source\PSoC4/UART_433_UART.c ****         }
 671              		.loc 1 770 0
 672              		@ sp needed
 673 0018 7047     		bx	lr
 674              	.L57:
 675 001a C046     		.align	2
 676              	.L56:
 677 001c 50002440 		.word	1076101200
 678 0020 FFFFFFFE 		.word	-16777217
 679              		.cfi_endproc
 680              	.LFE15:
 681              		.size	UART_433_UartSetCtsPolarity, .-UART_433_UartSetCtsPolarity
 682              		.section	.text.UART_433_UartSendBreakBlocking,"ax",%progbits
 683              		.align	1
 684              		.global	UART_433_UartSendBreakBlocking
 685              		.code	16
 686              		.thumb_func
 687              		.type	UART_433_UartSendBreakBlocking, %function
 688              	UART_433_UartSendBreakBlocking:
 689              	.LFB16:
 771:Generated_Source\PSoC4/UART_433_UART.c ****     #endif /* !(UART_433_CY_SCBIP_V0 || UART_433_CY_SCBIP_V1) */
 772:Generated_Source\PSoC4/UART_433_UART.c **** 
 773:Generated_Source\PSoC4/UART_433_UART.c **** 
 774:Generated_Source\PSoC4/UART_433_UART.c ****     /*******************************************************************************
 775:Generated_Source\PSoC4/UART_433_UART.c ****     * Function Name: UART_433_UartSendBreakBlocking
 776:Generated_Source\PSoC4/UART_433_UART.c ****     ****************************************************************************//**
 777:Generated_Source\PSoC4/UART_433_UART.c ****     *
 778:Generated_Source\PSoC4/UART_433_UART.c ****     * Sends a break condition (logic low) of specified width on UART TX line.
 779:Generated_Source\PSoC4/UART_433_UART.c ****     * Blocks until break is completed. Only call this function when UART TX FIFO
 780:Generated_Source\PSoC4/UART_433_UART.c ****     * and shifter are empty.
 781:Generated_Source\PSoC4/UART_433_UART.c ****     *
 782:Generated_Source\PSoC4/UART_433_UART.c ****     * \param breakWidth
 783:Generated_Source\PSoC4/UART_433_UART.c ****     * Width of break condition. Valid range is 4 to 16 bits.
 784:Generated_Source\PSoC4/UART_433_UART.c ****     *
 785:Generated_Source\PSoC4/UART_433_UART.c ****     * \note
 786:Generated_Source\PSoC4/UART_433_UART.c ****     * Before sending break all UART TX interrupt sources are disabled. The state
 787:Generated_Source\PSoC4/UART_433_UART.c ****     * of UART TX interrupt sources is restored before function returns.
 788:Generated_Source\PSoC4/UART_433_UART.c ****     *
 789:Generated_Source\PSoC4/UART_433_UART.c ****     * \sideeffect
 790:Generated_Source\PSoC4/UART_433_UART.c ****     * If this function is called while there is data in the TX FIFO or shifter that
 791:Generated_Source\PSoC4/UART_433_UART.c ****     * data will be shifted out in packets the size of breakWidth.
 792:Generated_Source\PSoC4/UART_433_UART.c ****     *
 793:Generated_Source\PSoC4/UART_433_UART.c ****     *******************************************************************************/
 794:Generated_Source\PSoC4/UART_433_UART.c ****     void UART_433_UartSendBreakBlocking(uint32 breakWidth)
 795:Generated_Source\PSoC4/UART_433_UART.c ****     {
 690              		.loc 1 795 0
 691              		.cfi_startproc
 692              		@ args = 0, pretend = 0, frame = 8
 693              		@ frame_needed = 0, uses_anonymous_args = 0
 694              	.LVL39:
 695 0000 F7B5     		push	{r0, r1, r2, r4, r5, r6, r7, lr}
 696              		.cfi_def_cfa_offset 32
 697              		.cfi_offset 0, -32
 698              		.cfi_offset 1, -28
 699              		.cfi_offset 2, -24
ARM GAS  C:\Users\Administrator\AppData\Local\Temp\ccO3nPvy.s 			page 28


 700              		.cfi_offset 4, -20
 701              		.cfi_offset 5, -16
 702              		.cfi_offset 6, -12
 703              		.cfi_offset 7, -8
 704              		.cfi_offset 14, -4
 796:Generated_Source\PSoC4/UART_433_UART.c ****         uint32 txCtrlReg;
 797:Generated_Source\PSoC4/UART_433_UART.c ****         uint32 txIntrReg;
 798:Generated_Source\PSoC4/UART_433_UART.c **** 
 799:Generated_Source\PSoC4/UART_433_UART.c ****         /* Disable all UART TX interrupt source and clear UART TX Done history */
 800:Generated_Source\PSoC4/UART_433_UART.c ****         txIntrReg = UART_433_GetTxInterruptMode();
 801:Generated_Source\PSoC4/UART_433_UART.c ****         UART_433_SetTxInterruptMode(0u);
 802:Generated_Source\PSoC4/UART_433_UART.c ****         UART_433_ClearTxInterruptSource(UART_433_INTR_TX_UART_DONE);
 705              		.loc 1 802 0
 706 0002 8024     		movs	r4, #128
 801:Generated_Source\PSoC4/UART_433_UART.c ****         UART_433_ClearTxInterruptSource(UART_433_INTR_TX_UART_DONE);
 707              		.loc 1 801 0
 708 0004 0026     		movs	r6, #0
 803:Generated_Source\PSoC4/UART_433_UART.c **** 
 804:Generated_Source\PSoC4/UART_433_UART.c ****         /* Store TX CTRL configuration */
 805:Generated_Source\PSoC4/UART_433_UART.c ****         txCtrlReg = UART_433_TX_CTRL_REG;
 806:Generated_Source\PSoC4/UART_433_UART.c **** 
 807:Generated_Source\PSoC4/UART_433_UART.c ****         /* Set break width */
 808:Generated_Source\PSoC4/UART_433_UART.c ****         UART_433_TX_CTRL_REG = (UART_433_TX_CTRL_REG & (uint32) ~UART_433_TX_CTRL_DATA_WIDTH_MASK) 
 709              		.loc 1 808 0
 710 0006 0F27     		movs	r7, #15
 800:Generated_Source\PSoC4/UART_433_UART.c ****         UART_433_SetTxInterruptMode(0u);
 711              		.loc 1 800 0
 712 0008 0E4A     		ldr	r2, .L62
 802:Generated_Source\PSoC4/UART_433_UART.c **** 
 713              		.loc 1 802 0
 714 000a 0F4D     		ldr	r5, .L62+4
 800:Generated_Source\PSoC4/UART_433_UART.c ****         UART_433_SetTxInterruptMode(0u);
 715              		.loc 1 800 0
 716 000c 1368     		ldr	r3, [r2]
 802:Generated_Source\PSoC4/UART_433_UART.c **** 
 717              		.loc 1 802 0
 718 000e A400     		lsls	r4, r4, #2
 800:Generated_Source\PSoC4/UART_433_UART.c ****         UART_433_SetTxInterruptMode(0u);
 719              		.loc 1 800 0
 720 0010 0193     		str	r3, [sp, #4]
 721              	.LVL40:
 805:Generated_Source\PSoC4/UART_433_UART.c **** 
 722              		.loc 1 805 0
 723 0012 0E4B     		ldr	r3, .L62+8
 724              	.LVL41:
 801:Generated_Source\PSoC4/UART_433_UART.c ****         UART_433_ClearTxInterruptSource(UART_433_INTR_TX_UART_DONE);
 725              		.loc 1 801 0
 726 0014 1660     		str	r6, [r2]
 802:Generated_Source\PSoC4/UART_433_UART.c **** 
 727              		.loc 1 802 0
 728 0016 2C60     		str	r4, [r5]
 805:Generated_Source\PSoC4/UART_433_UART.c **** 
 729              		.loc 1 805 0
 730 0018 1968     		ldr	r1, [r3]
 731              		.loc 1 808 0
 732 001a 0138     		subs	r0, r0, #1
 733              	.LVL42:
ARM GAS  C:\Users\Administrator\AppData\Local\Temp\ccO3nPvy.s 			page 29


 805:Generated_Source\PSoC4/UART_433_UART.c **** 
 734              		.loc 1 805 0
 735 001c 8C46     		mov	ip, r1
 736              	.LVL43:
 737              		.loc 1 808 0
 738 001e 1968     		ldr	r1, [r3]
 739              	.LVL44:
 740 0020 3840     		ands	r0, r7
 741              	.LVL45:
 742 0022 B943     		bics	r1, r7
 743 0024 0843     		orrs	r0, r1
 809:Generated_Source\PSoC4/UART_433_UART.c ****                                         UART_433_GET_TX_CTRL_DATA_WIDTH(breakWidth);
 810:Generated_Source\PSoC4/UART_433_UART.c **** 
 811:Generated_Source\PSoC4/UART_433_UART.c ****         /* Generate break */
 812:Generated_Source\PSoC4/UART_433_UART.c ****         UART_433_TX_FIFO_WR_REG = 0u;
 744              		.loc 1 812 0
 745 0026 0A49     		ldr	r1, .L62+12
 808:Generated_Source\PSoC4/UART_433_UART.c ****                                         UART_433_GET_TX_CTRL_DATA_WIDTH(breakWidth);
 746              		.loc 1 808 0
 747 0028 1860     		str	r0, [r3]
 748              		.loc 1 812 0
 749 002a 0E60     		str	r6, [r1]
 750              	.L59:
 813:Generated_Source\PSoC4/UART_433_UART.c **** 
 814:Generated_Source\PSoC4/UART_433_UART.c ****         /* Wait for break completion */
 815:Generated_Source\PSoC4/UART_433_UART.c ****         while (0u == (UART_433_GetTxInterruptSource() & UART_433_INTR_TX_UART_DONE))
 751              		.loc 1 815 0 discriminator 1
 752 002c 2968     		ldr	r1, [r5]
 753 002e 2142     		tst	r1, r4
 754 0030 FCD0     		beq	.L59
 816:Generated_Source\PSoC4/UART_433_UART.c ****         {
 817:Generated_Source\PSoC4/UART_433_UART.c ****         }
 818:Generated_Source\PSoC4/UART_433_UART.c **** 
 819:Generated_Source\PSoC4/UART_433_UART.c ****         /* Clear all UART TX interrupt sources to  */
 820:Generated_Source\PSoC4/UART_433_UART.c ****         UART_433_ClearTxInterruptSource(UART_433_INTR_TX_ALL);
 755              		.loc 1 820 0
 756 0032 0848     		ldr	r0, .L62+16
 757 0034 0449     		ldr	r1, .L62+4
 821:Generated_Source\PSoC4/UART_433_UART.c **** 
 822:Generated_Source\PSoC4/UART_433_UART.c ****         /* Restore TX interrupt sources and data width */
 823:Generated_Source\PSoC4/UART_433_UART.c ****         UART_433_TX_CTRL_REG = txCtrlReg;
 824:Generated_Source\PSoC4/UART_433_UART.c ****         UART_433_SetTxInterruptMode(txIntrReg);
 825:Generated_Source\PSoC4/UART_433_UART.c ****     }
 758              		.loc 1 825 0
 759              		@ sp needed
 820:Generated_Source\PSoC4/UART_433_UART.c **** 
 760              		.loc 1 820 0
 761 0036 0860     		str	r0, [r1]
 823:Generated_Source\PSoC4/UART_433_UART.c ****         UART_433_SetTxInterruptMode(txIntrReg);
 762              		.loc 1 823 0
 763 0038 6146     		mov	r1, ip
 764 003a 1960     		str	r1, [r3]
 824:Generated_Source\PSoC4/UART_433_UART.c ****     }
 765              		.loc 1 824 0
 766 003c 019B     		ldr	r3, [sp, #4]
 767 003e 1360     		str	r3, [r2]
 768              		.loc 1 825 0
ARM GAS  C:\Users\Administrator\AppData\Local\Temp\ccO3nPvy.s 			page 30


 769 0040 F7BD     		pop	{r0, r1, r2, r4, r5, r6, r7, pc}
 770              	.L63:
 771 0042 C046     		.align	2
 772              	.L62:
 773 0044 880F2440 		.word	1076105096
 774 0048 800F2440 		.word	1076105088
 775 004c 00022440 		.word	1076101632
 776 0050 40022440 		.word	1076101696
 777 0054 F3070000 		.word	2035
 778              		.cfi_endproc
 779              	.LFE16:
 780              		.size	UART_433_UartSendBreakBlocking, .-UART_433_UartSendBreakBlocking
 781              		.text
 782              	.Letext0:
 783              		.file 2 "Generated_Source\\PSoC4/cytypes.h"
 784              		.file 3 "Generated_Source\\PSoC4\\UART_433_SPI_UART.h"
 785              		.file 4 "Generated_Source\\PSoC4\\UART_433_PVT.h"