ARM GAS  C:\Users\Administrator\AppData\Local\Temp\cczTZohT.s 			page 1


   1              		.syntax unified
   2              		.cpu cortex-m0
   3              		.fpu softvfp
   4              		.eabi_attribute 20, 1
   5              		.eabi_attribute 21, 1
   6              		.eabi_attribute 23, 3
   7              		.eabi_attribute 24, 1
   8              		.eabi_attribute 25, 1
   9              		.eabi_attribute 26, 1
  10              		.eabi_attribute 30, 4
  11              		.eabi_attribute 34, 0
  12              		.eabi_attribute 18, 4
  13              		.thumb
  14              		.syntax unified
  15              		.file	"UserWDT.c"
  16              		.text
  17              	.Ltext0:
  18              		.cfi_sections	.debug_frame
  19              		.section	.text.WDT_Start,"ax",%progbits
  20              		.align	1
  21              		.global	WDT_Start
  22              		.code	16
  23              		.thumb_func
  24              		.type	WDT_Start, %function
  25              	WDT_Start:
  26              	.LFB63:
  27              		.file 1 "Code\\Device\\WDT\\UserWDT.c"
   1:Code\Device\WDT/UserWDT.c **** //*************************************************************************************************
   2:Code\Device\WDT/UserWDT.c **** // File name		: UserWDT.c
   3:Code\Device\WDT/UserWDT.c **** // Description		: 看门狗配置的相关函数
   4:Code\Device\WDT/UserWDT.c **** // Author			: Keno
   5:Code\Device\WDT/UserWDT.c **** // Date				: 2016.8.8
   6:Code\Device\WDT/UserWDT.c **** // Version			: V02
   7:Code\Device\WDT/UserWDT.c **** //-------------------------------------------------------------------------------------------------
   8:Code\Device\WDT/UserWDT.c **** // Info				: 
   9:Code\Device\WDT/UserWDT.c **** //*************************************************************************************************
  10:Code\Device\WDT/UserWDT.c **** #include "UserWDT.h"
  11:Code\Device\WDT/UserWDT.c **** 
  12:Code\Device\WDT/UserWDT.c **** 
  13:Code\Device\WDT/UserWDT.c **** 
  14:Code\Device\WDT/UserWDT.c **** //*************************************************************************************************
  15:Code\Device\WDT/UserWDT.c **** // Function name	: SetSysRTCTime
  16:Code\Device\WDT/UserWDT.c **** // Description		: 设置系统RTC时间
  17:Code\Device\WDT/UserWDT.c **** // Parameter		: *arr	: 
  18:Code\Device\WDT/UserWDT.c **** //					: size	
  19:Code\Device\WDT/UserWDT.c **** // Return			: none
  20:Code\Device\WDT/UserWDT.c **** //-------------------------------------------------------------------------------------------------
  21:Code\Device\WDT/UserWDT.c **** // Info				: 
  22:Code\Device\WDT/UserWDT.c **** //*************************************************************************************************
  23:Code\Device\WDT/UserWDT.c **** void WDT_Start(void)
  24:Code\Device\WDT/UserWDT.c **** {  
  28              		.loc 1 24 0
  29              		.cfi_startproc
  30              		@ args = 0, pretend = 0, frame = 0
  31              		@ frame_needed = 0, uses_anonymous_args = 0
  32 0000 10B5     		push	{r4, lr}
  33              		.cfi_def_cfa_offset 8
ARM GAS  C:\Users\Administrator\AppData\Local\Temp\cczTZohT.s 			page 2


  34              		.cfi_offset 4, -8
  35              		.cfi_offset 14, -4
  25:Code\Device\WDT/UserWDT.c **** 	#if 0  //关闭wdt
  26:Code\Device\WDT/UserWDT.c **** 	/* Set WDT counter 0 to generate interrupt on match */
  27:Code\Device\WDT/UserWDT.c **** 	CySysWdtWriteMode(CY_SYS_WDT_COUNTER0, CY_SYS_WDT_MODE_INT);
  28:Code\Device\WDT/UserWDT.c **** 	CySysWdtWriteMatch(CY_SYS_WDT_COUNTER0, WDT_COUNT0_MATCH);
  29:Code\Device\WDT/UserWDT.c **** 	CySysWdtWriteClearOnMatch(CY_SYS_WDT_COUNTER0, 1u);
  30:Code\Device\WDT/UserWDT.c **** 	CySysWdtEnable(CY_SYS_WDT_COUNTER0_MASK);
  31:Code\Device\WDT/UserWDT.c **** 	#endif
  32:Code\Device\WDT/UserWDT.c **** 	
  33:Code\Device\WDT/UserWDT.c **** 	#if 1
  34:Code\Device\WDT/UserWDT.c **** 	CySysWdtWriteMode(CY_SYS_WDT_COUNTER0, CY_SYS_WDT_MODE_INT);
  36              		.loc 1 34 0
  37 0002 0121     		movs	r1, #1
  38 0004 0020     		movs	r0, #0
  39 0006 FFF7FEFF 		bl	CySysWdtSetMode
  40              	.LVL0:
  35:Code\Device\WDT/UserWDT.c **** 	CySysWdtWriteMatch(CY_SYS_WDT_COUNTER0, WDT_COUNT0_MATCH);
  41              		.loc 1 35 0
  42 000a 0E49     		ldr	r1, .L2
  43 000c 0020     		movs	r0, #0
  44 000e FFF7FEFF 		bl	CySysWdtSetMatch
  45              	.LVL1:
  36:Code\Device\WDT/UserWDT.c **** 	CySysWdtWriteClearOnMatch(CY_SYS_WDT_COUNTER0, 1u);	
  46              		.loc 1 36 0
  47 0012 0121     		movs	r1, #1
  48 0014 0020     		movs	r0, #0
  49 0016 FFF7FEFF 		bl	CySysWdtSetClearOnMatch
  50              	.LVL2:
  37:Code\Device\WDT/UserWDT.c **** 	
  38:Code\Device\WDT/UserWDT.c **** 	/* Enable WDT counters 0 and 1 cascade */
  39:Code\Device\WDT/UserWDT.c **** 	CySysWdtWriteCascade(CY_SYS_WDT_CASCADE_01);
  51              		.loc 1 39 0
  52 001a 0820     		movs	r0, #8
  53 001c FFF7FEFF 		bl	CySysWdtSetCascade
  54              	.LVL3:
  40:Code\Device\WDT/UserWDT.c ****     
  41:Code\Device\WDT/UserWDT.c **** 	/* Set WDT counter 1 to generate reset on match */
  42:Code\Device\WDT/UserWDT.c **** 	CySysWdtWriteMatch(CY_SYS_WDT_COUNTER1, WDT_COUNT1_MATCH);
  55              		.loc 1 42 0
  56 0020 0521     		movs	r1, #5
  57 0022 0120     		movs	r0, #1
  58 0024 FFF7FEFF 		bl	CySysWdtSetMatch
  59              	.LVL4:
  43:Code\Device\WDT/UserWDT.c **** 	CySysWdtWriteMode(CY_SYS_WDT_COUNTER1, CY_SYS_WDT_MODE_RESET);
  60              		.loc 1 43 0
  61 0028 0221     		movs	r1, #2
  62 002a 0120     		movs	r0, #1
  63 002c FFF7FEFF 		bl	CySysWdtSetMode
  64              	.LVL5:
  44:Code\Device\WDT/UserWDT.c ****     CySysWdtWriteClearOnMatch(CY_SYS_WDT_COUNTER1, 1u);
  65              		.loc 1 44 0
  66 0030 0121     		movs	r1, #1
  67 0032 0800     		movs	r0, r1
  68 0034 FFF7FEFF 		bl	CySysWdtSetClearOnMatch
  69              	.LVL6:
  45:Code\Device\WDT/UserWDT.c **** 	
ARM GAS  C:\Users\Administrator\AppData\Local\Temp\cczTZohT.s 			page 3


  46:Code\Device\WDT/UserWDT.c **** 	/* Enable WDT counters 0 and 1 */
  47:Code\Device\WDT/UserWDT.c **** 	CySysWdtEnable(CY_SYS_WDT_COUNTER0_MASK | CY_SYS_WDT_COUNTER1_MASK);
  70              		.loc 1 47 0
  71 0038 0220     		movs	r0, #2
  72 003a FF30     		adds	r0, r0, #255
  73 003c FFF7FEFF 		bl	CySysWdtEnable
  74              	.LVL7:
  48:Code\Device\WDT/UserWDT.c **** 	#endif
  49:Code\Device\WDT/UserWDT.c **** }
  75              		.loc 1 49 0
  76              		@ sp needed
  77 0040 10BD     		pop	{r4, pc}
  78              	.L3:
  79 0042 C046     		.align	2
  80              	.L2:
  81 0044 FF7F0000 		.word	32767
  82              		.cfi_endproc
  83              	.LFE63:
  84              		.size	WDT_Start, .-WDT_Start
  85              		.section	.text.WDT_FeedDog,"ax",%progbits
  86              		.align	1
  87              		.global	WDT_FeedDog
  88              		.code	16
  89              		.thumb_func
  90              		.type	WDT_FeedDog, %function
  91              	WDT_FeedDog:
  92              	.LFB64:
  50:Code\Device\WDT/UserWDT.c **** 
  51:Code\Device\WDT/UserWDT.c **** //*************************************************************************************************
  52:Code\Device\WDT/UserWDT.c **** // Function name	: WDT_FeedDog
  53:Code\Device\WDT/UserWDT.c **** // Description		: 设置系统RTC时间
  54:Code\Device\WDT/UserWDT.c **** // Parameter		: *arr	: 
  55:Code\Device\WDT/UserWDT.c **** //					: size	
  56:Code\Device\WDT/UserWDT.c **** // Return			: none
  57:Code\Device\WDT/UserWDT.c **** //-------------------------------------------------------------------------------------------------
  58:Code\Device\WDT/UserWDT.c **** // Info				: 
  59:Code\Device\WDT/UserWDT.c **** //*************************************************************************************************
  60:Code\Device\WDT/UserWDT.c **** void WDT_FeedDog(void)
  61:Code\Device\WDT/UserWDT.c **** {
  93              		.loc 1 61 0
  94              		.cfi_startproc
  95              		@ args = 0, pretend = 0, frame = 0
  96              		@ frame_needed = 0, uses_anonymous_args = 0
  97 0000 10B5     		push	{r4, lr}
  98              		.cfi_def_cfa_offset 8
  99              		.cfi_offset 4, -8
 100              		.cfi_offset 14, -4
  62:Code\Device\WDT/UserWDT.c **** 	CySysWatchdogFeed(CY_SYS_WDT_COUNTER1);
 101              		.loc 1 62 0
 102 0002 0120     		movs	r0, #1
 103 0004 FFF7FEFF 		bl	CySysWatchdogFeed
 104              	.LVL8:
  63:Code\Device\WDT/UserWDT.c **** }
 105              		.loc 1 63 0
 106              		@ sp needed
 107 0008 10BD     		pop	{r4, pc}
 108              		.cfi_endproc
ARM GAS  C:\Users\Administrator\AppData\Local\Temp\cczTZohT.s 			page 4


 109              	.LFE64:
 110              		.size	WDT_FeedDog, .-WDT_FeedDog
 111              		.text
 112              	.Letext0:
 113              		.file 2 "Generated_Source\\PSoC4/cytypes.h"
 114              		.file 3 "Generated_Source\\PSoC4/CyLFClk.h"
 115              		.file 4 "Generated_Source\\PSoC4/RTC.h"