ARM GAS  C:\Users\Administrator\AppData\Local\Temp\ccPIvPLo.s 			page 1


   1              		.syntax unified
   2              		.cpu cortex-m0
   3              		.fpu softvfp
   4              		.eabi_attribute 20, 1
   5              		.eabi_attribute 21, 1
   6              		.eabi_attribute 23, 3
   7              		.eabi_attribute 24, 1
   8              		.eabi_attribute 25, 1
   9              		.eabi_attribute 26, 1
  10              		.eabi_attribute 30, 4
  11              		.eabi_attribute 34, 0
  12              		.eabi_attribute 18, 4
  13              		.thumb
  14              		.syntax unified
  15              		.file	"user_data.c"
  16              		.text
  17              	.Ltext0:
  18              		.cfi_sections	.debug_frame
  19              		.section	.text.user_init_valid_flag,"ax",%progbits
  20              		.align	1
  21              		.global	user_init_valid_flag
  22              		.code	16
  23              		.thumb_func
  24              		.type	user_init_valid_flag, %function
  25              	user_init_valid_flag:
  26              	.LFB63:
  27              		.file 1 "Code\\Device\\W25Q80\\user_data.c"
   1:Code\Device\W25Q80/user_data.c **** //*************************************************************************************************
   2:Code\Device\W25Q80/user_data.c **** // File name		: user_data.c
   3:Code\Device\W25Q80/user_data.c **** // Description		: 用户数据相关的函数
   4:Code\Device\W25Q80/user_data.c **** // Author			: Keno
   5:Code\Device\W25Q80/user_data.c **** // Date				: 2016.8.8
   6:Code\Device\W25Q80/user_data.c **** // Version			: V02
   7:Code\Device\W25Q80/user_data.c **** //-------------------------------------------------------------------------------------------------
   8:Code\Device\W25Q80/user_data.c **** // Info				: 用户编号从0开始，0-499；开门记录也从0开始，0-4999，5000为一周期
   9:Code\Device\W25Q80/user_data.c **** //*************************************************************************************************
  10:Code\Device\W25Q80/user_data.c **** #include "user_data.h"
  11:Code\Device\W25Q80/user_data.c **** 
  12:Code\Device\W25Q80/user_data.c **** 
  13:Code\Device\W25Q80/user_data.c **** int Endpoint_exchange(uint8 card_data[]);
  14:Code\Device\W25Q80/user_data.c **** extern uint8  uploadpolling_stop;										// 轮训上报开门信息 停止位		//
  15:Code\Device\W25Q80/user_data.c **** 
  16:Code\Device\W25Q80/user_data.c **** //===================================== 用户信息存储 ========================================
  17:Code\Device\W25Q80/user_data.c **** 
  18:Code\Device\W25Q80/user_data.c **** //*************************************************************************************************
  19:Code\Device\W25Q80/user_data.c **** // Function name	: user_init_valid_flag
  20:Code\Device\W25Q80/user_data.c **** // Description		: 初始化用户有效位标志，清零所有用户标志位
  21:Code\Device\W25Q80/user_data.c **** // Parameter		: none
  22:Code\Device\W25Q80/user_data.c **** // Return			: none
  23:Code\Device\W25Q80/user_data.c **** //-------------------------------------------------------------------------------------------------
  24:Code\Device\W25Q80/user_data.c **** // Info				: 
  25:Code\Device\W25Q80/user_data.c **** //*************************************************************************************************
  26:Code\Device\W25Q80/user_data.c **** void user_init_valid_flag(void)
  27:Code\Device\W25Q80/user_data.c **** {
  28              		.loc 1 27 0
  29              		.cfi_startproc
  30              		@ args = 0, pretend = 0, frame = 504
ARM GAS  C:\Users\Administrator\AppData\Local\Temp\ccPIvPLo.s 			page 2


  31              		@ frame_needed = 0, uses_anonymous_args = 0
  32 0000 10B5     		push	{r4, lr}
  33              		.cfi_def_cfa_offset 8
  34              		.cfi_offset 4, -8
  35              		.cfi_offset 14, -4
  28:Code\Device\W25Q80/user_data.c **** 	uint8 flag[USER_FLAG_SIZE];
  29:Code\Device\W25Q80/user_data.c **** 	
  30:Code\Device\W25Q80/user_data.c **** 	memset(flag, 0, sizeof(flag));
  36              		.loc 1 30 0
  37 0002 FA24     		movs	r4, #250
  27:Code\Device\W25Q80/user_data.c **** 	uint8 flag[USER_FLAG_SIZE];
  38              		.loc 1 27 0
  39 0004 FEB0     		sub	sp, sp, #504
  40              		.cfi_def_cfa_offset 512
  41              		.loc 1 30 0
  42 0006 6400     		lsls	r4, r4, #1
  43 0008 2200     		movs	r2, r4
  44 000a 0021     		movs	r1, #0
  45 000c 01A8     		add	r0, sp, #4
  46 000e FFF7FEFF 		bl	memset
  47              	.LVL0:
  31:Code\Device\W25Q80/user_data.c **** 	W25QXX_Write(flag, USER_FLAG_BASE, (uint16)sizeof(flag));
  48              		.loc 1 31 0
  49 0012 2200     		movs	r2, r4
  50 0014 0021     		movs	r1, #0
  51 0016 01A8     		add	r0, sp, #4
  52 0018 FFF7FEFF 		bl	W25QXX_Write
  53              	.LVL1:
  32:Code\Device\W25Q80/user_data.c **** }
  54              		.loc 1 32 0
  55 001c 7EB0     		add	sp, sp, #504
  56              		@ sp needed
  57 001e 10BD     		pop	{r4, pc}
  58              		.cfi_endproc
  59              	.LFE63:
  60              		.size	user_init_valid_flag, .-user_init_valid_flag
  61              		.section	.text.user_find_free_id,"ax",%progbits
  62              		.align	1
  63              		.global	user_find_free_id
  64              		.code	16
  65              		.thumb_func
  66              		.type	user_find_free_id, %function
  67              	user_find_free_id:
  68              	.LFB64:
  33:Code\Device\W25Q80/user_data.c **** 
  34:Code\Device\W25Q80/user_data.c **** //*************************************************************************************************
  35:Code\Device\W25Q80/user_data.c **** // Function name	: user_find_free_id
  36:Code\Device\W25Q80/user_data.c **** // Description		: 查找空闲的用户有效位标志 
  37:Code\Device\W25Q80/user_data.c **** // Parameter		: user_id
  38:Code\Device\W25Q80/user_data.c **** // Return			: RET_OK : 找到 / RET_ERR : 未找到
  39:Code\Device\W25Q80/user_data.c **** //-------------------------------------------------------------------------------------------------
  40:Code\Device\W25Q80/user_data.c **** // Info				: 
  41:Code\Device\W25Q80/user_data.c **** //*************************************************************************************************
  42:Code\Device\W25Q80/user_data.c **** uint8 user_find_free_id(uint16 *user_id)
  43:Code\Device\W25Q80/user_data.c **** {
  69              		.loc 1 43 0
  70              		.cfi_startproc
ARM GAS  C:\Users\Administrator\AppData\Local\Temp\ccPIvPLo.s 			page 3


  71              		@ args = 0, pretend = 0, frame = 504
  72              		@ frame_needed = 0, uses_anonymous_args = 0
  73              	.LVL2:
  44:Code\Device\W25Q80/user_data.c **** 	uint16 user_id_local;
  45:Code\Device\W25Q80/user_data.c **** 	uint8 flag[USER_FLAG_SIZE];
  46:Code\Device\W25Q80/user_data.c **** 	
  47:Code\Device\W25Q80/user_data.c **** 	W25QXX_Read(flag, USER_FLAG_BASE, (uint16)sizeof(flag));
  74              		.loc 1 47 0
  75 0000 FA22     		movs	r2, #250
  43:Code\Device\W25Q80/user_data.c **** 	uint16 user_id_local;
  76              		.loc 1 43 0
  77 0002 30B5     		push	{r4, r5, lr}
  78              		.cfi_def_cfa_offset 12
  79              		.cfi_offset 4, -12
  80              		.cfi_offset 5, -8
  81              		.cfi_offset 14, -4
  82 0004 FFB0     		sub	sp, sp, #508
  83              		.cfi_def_cfa_offset 520
  84              		.loc 1 47 0
  85 0006 01AC     		add	r4, sp, #4
  86 0008 0021     		movs	r1, #0
  43:Code\Device\W25Q80/user_data.c **** 	uint16 user_id_local;
  87              		.loc 1 43 0
  88 000a 0500     		movs	r5, r0
  89              		.loc 1 47 0
  90 000c 5200     		lsls	r2, r2, #1
  91 000e 2000     		movs	r0, r4
  92              	.LVL3:
  93 0010 FFF7FEFF 		bl	W25QXX_Read
  94              	.LVL4:
  48:Code\Device\W25Q80/user_data.c **** 	for (user_id_local = 0; user_id_local < MAX_USR_NUM; user_id_local++)
  95              		.loc 1 48 0
  96 0014 FA21     		movs	r1, #250
  47:Code\Device\W25Q80/user_data.c **** 	for (user_id_local = 0; user_id_local < MAX_USR_NUM; user_id_local++)
  97              		.loc 1 47 0
  98 0016 0023     		movs	r3, #0
  99              		.loc 1 48 0
 100 0018 4900     		lsls	r1, r1, #1
 101              	.LVL5:
 102              	.L5:
  49:Code\Device\W25Q80/user_data.c **** 	{
  50:Code\Device\W25Q80/user_data.c **** 		if ((flag[user_id_local] == 0) || (flag[user_id_local] == 0xFF))
 103              		.loc 1 50 0
 104 001a E25C     		ldrb	r2, [r4, r3]
 105 001c 98B2     		uxth	r0, r3
 106              	.LVL6:
 107 001e 013A     		subs	r2, r2, #1
 108 0020 D2B2     		uxtb	r2, r2
 109 0022 FD2A     		cmp	r2, #253
 110 0024 02D9     		bls	.L3
  51:Code\Device\W25Q80/user_data.c **** 		{
  52:Code\Device\W25Q80/user_data.c **** 			*user_id = user_id_local;
 111              		.loc 1 52 0
 112 0026 2880     		strh	r0, [r5]
  53:Code\Device\W25Q80/user_data.c **** 			return RET_OK;
 113              		.loc 1 53 0
 114 0028 0120     		movs	r0, #1
ARM GAS  C:\Users\Administrator\AppData\Local\Temp\ccPIvPLo.s 			page 4


 115              	.LVL7:
 116 002a 03E0     		b	.L4
 117              	.LVL8:
 118              	.L3:
 119 002c 0133     		adds	r3, r3, #1
 120              	.LVL9:
  48:Code\Device\W25Q80/user_data.c **** 	{
 121              		.loc 1 48 0 discriminator 2
 122 002e 8B42     		cmp	r3, r1
 123 0030 F3D1     		bne	.L5
  54:Code\Device\W25Q80/user_data.c **** 		}
  55:Code\Device\W25Q80/user_data.c **** 	}
  56:Code\Device\W25Q80/user_data.c **** 	return RET_ERR;
 124              		.loc 1 56 0
 125 0032 0020     		movs	r0, #0
 126              	.LVL10:
 127              	.L4:
  57:Code\Device\W25Q80/user_data.c **** }
 128              		.loc 1 57 0
 129 0034 7FB0     		add	sp, sp, #508
 130              		@ sp needed
 131              	.LVL11:
 132 0036 30BD     		pop	{r4, r5, pc}
 133              		.cfi_endproc
 134              	.LFE64:
 135              		.size	user_find_free_id, .-user_find_free_id
 136              		.section	.text.user_id_if_valid,"ax",%progbits
 137              		.align	1
 138              		.global	user_id_if_valid
 139              		.code	16
 140              		.thumb_func
 141              		.type	user_id_if_valid, %function
 142              	user_id_if_valid:
 143              	.LFB65:
  58:Code\Device\W25Q80/user_data.c **** 
  59:Code\Device\W25Q80/user_data.c **** //*************************************************************************************************
  60:Code\Device\W25Q80/user_data.c **** // Function name	: user_id_if_valid
  61:Code\Device\W25Q80/user_data.c **** // Description		: 判断对应编号的用户是否存在
  62:Code\Device\W25Q80/user_data.c **** // Parameter		: user_id
  63:Code\Device\W25Q80/user_data.c **** // Return			: none
  64:Code\Device\W25Q80/user_data.c **** //-------------------------------------------------------------------------------------------------
  65:Code\Device\W25Q80/user_data.c **** // Info				: 用户编号从0开始，0-499.
  66:Code\Device\W25Q80/user_data.c **** //*************************************************************************************************
  67:Code\Device\W25Q80/user_data.c **** uint8 user_id_if_valid(uint16 user_id)
  68:Code\Device\W25Q80/user_data.c **** {
 144              		.loc 1 68 0
 145              		.cfi_startproc
 146              		@ args = 0, pretend = 0, frame = 504
 147              		@ frame_needed = 0, uses_anonymous_args = 0
 148              	.LVL12:
  69:Code\Device\W25Q80/user_data.c **** 	uint8 flag[USER_FLAG_SIZE];
  70:Code\Device\W25Q80/user_data.c **** 	
  71:Code\Device\W25Q80/user_data.c **** 	W25QXX_Read(flag, USER_FLAG_BASE, USER_FLAG_SIZE);
 149              		.loc 1 71 0
 150 0000 FA22     		movs	r2, #250
  68:Code\Device\W25Q80/user_data.c **** 	uint8 flag[USER_FLAG_SIZE];
 151              		.loc 1 68 0
ARM GAS  C:\Users\Administrator\AppData\Local\Temp\ccPIvPLo.s 			page 5


 152 0002 30B5     		push	{r4, r5, lr}
 153              		.cfi_def_cfa_offset 12
 154              		.cfi_offset 4, -12
 155              		.cfi_offset 5, -8
 156              		.cfi_offset 14, -4
 157 0004 0500     		movs	r5, r0
 158 0006 FFB0     		sub	sp, sp, #508
 159              		.cfi_def_cfa_offset 520
 160              		.loc 1 71 0
 161 0008 01AC     		add	r4, sp, #4
 162 000a 2000     		movs	r0, r4
 163              	.LVL13:
 164 000c 5200     		lsls	r2, r2, #1
 165 000e 0021     		movs	r1, #0
 166 0010 FFF7FEFF 		bl	W25QXX_Read
 167              	.LVL14:
  72:Code\Device\W25Q80/user_data.c **** 	if (flag[user_id] == TRUE)
  73:Code\Device\W25Q80/user_data.c **** 	{
  74:Code\Device\W25Q80/user_data.c **** 		return TRUE;
 168              		.loc 1 74 0
 169 0014 605D     		ldrb	r0, [r4, r5]
 170 0016 0138     		subs	r0, r0, #1
 171 0018 4342     		rsbs	r3, r0, #0
 172 001a 5841     		adcs	r0, r0, r3
 173 001c C0B2     		uxtb	r0, r0
  75:Code\Device\W25Q80/user_data.c **** 	}
  76:Code\Device\W25Q80/user_data.c **** 	else
  77:Code\Device\W25Q80/user_data.c **** 	{
  78:Code\Device\W25Q80/user_data.c **** 		return FALSE;
  79:Code\Device\W25Q80/user_data.c **** 	}
  80:Code\Device\W25Q80/user_data.c **** }
 174              		.loc 1 80 0
 175 001e 7FB0     		add	sp, sp, #508
 176              		@ sp needed
 177 0020 30BD     		pop	{r4, r5, pc}
 178              		.cfi_endproc
 179              	.LFE65:
 180              		.size	user_id_if_valid, .-user_id_if_valid
 181              		.section	.text.user_get_reg_qty,"ax",%progbits
 182              		.align	1
 183              		.global	user_get_reg_qty
 184              		.code	16
 185              		.thumb_func
 186              		.type	user_get_reg_qty, %function
 187              	user_get_reg_qty:
 188              	.LFB66:
  81:Code\Device\W25Q80/user_data.c **** 
  82:Code\Device\W25Q80/user_data.c **** //*************************************************************************************************
  83:Code\Device\W25Q80/user_data.c **** // Function name	: user_get_reg_qty
  84:Code\Device\W25Q80/user_data.c **** // Description		: 获取已注册用户数量
  85:Code\Device\W25Q80/user_data.c **** // Parameter		: none
  86:Code\Device\W25Q80/user_data.c **** // Return			: qty	: 已注册用户数量
  87:Code\Device\W25Q80/user_data.c **** //-------------------------------------------------------------------------------------------------
  88:Code\Device\W25Q80/user_data.c **** // Info				: 
  89:Code\Device\W25Q80/user_data.c **** //*************************************************************************************************
  90:Code\Device\W25Q80/user_data.c **** uint16 user_get_reg_qty(void)
  91:Code\Device\W25Q80/user_data.c **** {
ARM GAS  C:\Users\Administrator\AppData\Local\Temp\ccPIvPLo.s 			page 6


 189              		.loc 1 91 0
 190              		.cfi_startproc
 191              		@ args = 0, pretend = 0, frame = 504
 192              		@ frame_needed = 0, uses_anonymous_args = 0
 193              	.LVL15:
  92:Code\Device\W25Q80/user_data.c **** 	uint8 flag[USER_FLAG_SIZE];
  93:Code\Device\W25Q80/user_data.c **** 	uint16 user_id_local;
  94:Code\Device\W25Q80/user_data.c **** 	uint16 qty = 0;
  95:Code\Device\W25Q80/user_data.c **** 	
  96:Code\Device\W25Q80/user_data.c **** 	W25QXX_Read(flag, USER_FLAG_BASE, USER_FLAG_SIZE);
 194              		.loc 1 96 0
 195 0000 FA22     		movs	r2, #250
  91:Code\Device\W25Q80/user_data.c **** 	uint8 flag[USER_FLAG_SIZE];
 196              		.loc 1 91 0
 197 0002 10B5     		push	{r4, lr}
 198              		.cfi_def_cfa_offset 8
 199              		.cfi_offset 4, -8
 200              		.cfi_offset 14, -4
 201 0004 FEB0     		sub	sp, sp, #504
 202              		.cfi_def_cfa_offset 512
 203              		.loc 1 96 0
 204 0006 01AC     		add	r4, sp, #4
 205 0008 5200     		lsls	r2, r2, #1
 206 000a 2000     		movs	r0, r4
 207 000c 0021     		movs	r1, #0
 208 000e FFF7FEFF 		bl	W25QXX_Read
 209              	.LVL16:
 210 0012 0023     		movs	r3, #0
  97:Code\Device\W25Q80/user_data.c **** 	for (user_id_local = 0; user_id_local < MAX_USR_NUM; user_id_local++)
 211              		.loc 1 97 0
 212 0014 FA22     		movs	r2, #250
  94:Code\Device\W25Q80/user_data.c **** 	
 213              		.loc 1 94 0
 214 0016 1800     		movs	r0, r3
 215              		.loc 1 97 0
 216 0018 5200     		lsls	r2, r2, #1
 217              	.LVL17:
 218              	.L11:
  98:Code\Device\W25Q80/user_data.c **** 	{
  99:Code\Device\W25Q80/user_data.c **** 		if (flag[user_id_local] == TRUE)
 219              		.loc 1 99 0
 220 001a E15C     		ldrb	r1, [r4, r3]
 221 001c 0129     		cmp	r1, #1
 222 001e 01D1     		bne	.L10
 100:Code\Device\W25Q80/user_data.c **** 		{
 101:Code\Device\W25Q80/user_data.c **** 			qty += 1;
 223              		.loc 1 101 0
 224 0020 0130     		adds	r0, r0, #1
 225              	.LVL18:
 226 0022 80B2     		uxth	r0, r0
 227              	.LVL19:
 228              	.L10:
 229 0024 0133     		adds	r3, r3, #1
 230              	.LVL20:
  97:Code\Device\W25Q80/user_data.c **** 	{
 231              		.loc 1 97 0 discriminator 2
 232 0026 9342     		cmp	r3, r2
ARM GAS  C:\Users\Administrator\AppData\Local\Temp\ccPIvPLo.s 			page 7


 233 0028 F7D1     		bne	.L11
 102:Code\Device\W25Q80/user_data.c **** 		}
 103:Code\Device\W25Q80/user_data.c **** 	}
 104:Code\Device\W25Q80/user_data.c **** 	return qty;
 105:Code\Device\W25Q80/user_data.c **** }
 234              		.loc 1 105 0
 235 002a 7EB0     		add	sp, sp, #504
 236              		@ sp needed
 237 002c 10BD     		pop	{r4, pc}
 238              		.cfi_endproc
 239              	.LFE66:
 240              		.size	user_get_reg_qty, .-user_get_reg_qty
 241              		.section	.text.user_set_valid_flag,"ax",%progbits
 242              		.align	1
 243              		.global	user_set_valid_flag
 244              		.code	16
 245              		.thumb_func
 246              		.type	user_set_valid_flag, %function
 247              	user_set_valid_flag:
 248              	.LFB67:
 106:Code\Device\W25Q80/user_data.c **** 
 107:Code\Device\W25Q80/user_data.c **** //*************************************************************************************************
 108:Code\Device\W25Q80/user_data.c **** // Function name	: user_set_valid_flag
 109:Code\Device\W25Q80/user_data.c **** // Description		: 置位用户有效位标志
 110:Code\Device\W25Q80/user_data.c **** // Parameter		: user_id
 111:Code\Device\W25Q80/user_data.c **** // Return			: none
 112:Code\Device\W25Q80/user_data.c **** //-------------------------------------------------------------------------------------------------
 113:Code\Device\W25Q80/user_data.c **** // Info				: 
 114:Code\Device\W25Q80/user_data.c **** //*************************************************************************************************
 115:Code\Device\W25Q80/user_data.c **** void user_set_valid_flag(uint16 user_id)
 116:Code\Device\W25Q80/user_data.c **** {
 249              		.loc 1 116 0
 250              		.cfi_startproc
 251              		@ args = 0, pretend = 0, frame = 8
 252              		@ frame_needed = 0, uses_anonymous_args = 0
 253              	.LVL21:
 254 0000 07B5     		push	{r0, r1, r2, lr}
 255              		.cfi_def_cfa_offset 16
 256              		.cfi_offset 0, -16
 257              		.cfi_offset 1, -12
 258              		.cfi_offset 2, -8
 259              		.cfi_offset 14, -4
 117:Code\Device\W25Q80/user_data.c **** 	uint8 flag = TRUE;
 260              		.loc 1 117 0
 261 0002 6B46     		mov	r3, sp
 262 0004 0122     		movs	r2, #1
 116:Code\Device\W25Q80/user_data.c **** 	uint8 flag = TRUE;
 263              		.loc 1 116 0
 264 0006 0100     		movs	r1, r0
 265              		.loc 1 117 0
 266 0008 D81D     		adds	r0, r3, #7
 267              	.LVL22:
 268 000a 0270     		strb	r2, [r0]
 118:Code\Device\W25Q80/user_data.c **** 	
 119:Code\Device\W25Q80/user_data.c **** 	W25QXX_Write(&flag, USER_FLAG_BASE + user_id, 1);
 120:Code\Device\W25Q80/user_data.c **** }
 269              		.loc 1 120 0
ARM GAS  C:\Users\Administrator\AppData\Local\Temp\ccPIvPLo.s 			page 8


 270              		@ sp needed
 119:Code\Device\W25Q80/user_data.c **** }
 271              		.loc 1 119 0
 272 000c FFF7FEFF 		bl	W25QXX_Write
 273              	.LVL23:
 274              		.loc 1 120 0
 275 0010 07BD     		pop	{r0, r1, r2, pc}
 276              		.cfi_endproc
 277              	.LFE67:
 278              		.size	user_set_valid_flag, .-user_set_valid_flag
 279              		.section	.text.user_clr_valid_flag,"ax",%progbits
 280              		.align	1
 281              		.global	user_clr_valid_flag
 282              		.code	16
 283              		.thumb_func
 284              		.type	user_clr_valid_flag, %function
 285              	user_clr_valid_flag:
 286              	.LFB68:
 121:Code\Device\W25Q80/user_data.c **** 
 122:Code\Device\W25Q80/user_data.c **** //*************************************************************************************************
 123:Code\Device\W25Q80/user_data.c **** // Function name	: user_clr_valid_flag
 124:Code\Device\W25Q80/user_data.c **** // Description		: 清除用户有效位标志
 125:Code\Device\W25Q80/user_data.c **** // Parameter		: user_id
 126:Code\Device\W25Q80/user_data.c **** // Return			: none
 127:Code\Device\W25Q80/user_data.c **** //-------------------------------------------------------------------------------------------------
 128:Code\Device\W25Q80/user_data.c **** // Info				: 
 129:Code\Device\W25Q80/user_data.c **** //*************************************************************************************************
 130:Code\Device\W25Q80/user_data.c **** void user_clr_valid_flag(uint16 user_id)
 131:Code\Device\W25Q80/user_data.c **** {
 287              		.loc 1 131 0
 288              		.cfi_startproc
 289              		@ args = 0, pretend = 0, frame = 8
 290              		@ frame_needed = 0, uses_anonymous_args = 0
 291              	.LVL24:
 292 0000 07B5     		push	{r0, r1, r2, lr}
 293              		.cfi_def_cfa_offset 16
 294              		.cfi_offset 0, -16
 295              		.cfi_offset 1, -12
 296              		.cfi_offset 2, -8
 297              		.cfi_offset 14, -4
 132:Code\Device\W25Q80/user_data.c **** 	uint8 flag = FALSE;
 298              		.loc 1 132 0
 299 0002 6B46     		mov	r3, sp
 300 0004 0022     		movs	r2, #0
 131:Code\Device\W25Q80/user_data.c **** 	uint8 flag = FALSE;
 301              		.loc 1 131 0
 302 0006 0100     		movs	r1, r0
 303              		.loc 1 132 0
 304 0008 D81D     		adds	r0, r3, #7
 305              	.LVL25:
 306 000a 0270     		strb	r2, [r0]
 133:Code\Device\W25Q80/user_data.c **** 	
 134:Code\Device\W25Q80/user_data.c **** 	W25QXX_Write(&flag, USER_FLAG_BASE + user_id, 1);
 307              		.loc 1 134 0
 308 000c 0132     		adds	r2, r2, #1
 309 000e FFF7FEFF 		bl	W25QXX_Write
 310              	.LVL26:
ARM GAS  C:\Users\Administrator\AppData\Local\Temp\ccPIvPLo.s 			page 9


 135:Code\Device\W25Q80/user_data.c **** }
 311              		.loc 1 135 0
 312              		@ sp needed
 313 0012 07BD     		pop	{r0, r1, r2, pc}
 314              		.cfi_endproc
 315              	.LFE68:
 316              		.size	user_clr_valid_flag, .-user_clr_valid_flag
 317              		.section	.text.user_add_info,"ax",%progbits
 318              		.align	1
 319              		.global	user_add_info
 320              		.code	16
 321              		.thumb_func
 322              		.type	user_add_info, %function
 323              	user_add_info:
 324              	.LFB69:
 136:Code\Device\W25Q80/user_data.c **** 
 137:Code\Device\W25Q80/user_data.c **** //*************************************************************************************************
 138:Code\Device\W25Q80/user_data.c **** // Function name	: user_add_info
 139:Code\Device\W25Q80/user_data.c **** // Description		: 添加新的用户信息
 140:Code\Device\W25Q80/user_data.c **** // Parameter		: user_id，user_info_t
 141:Code\Device\W25Q80/user_data.c **** // Return			: none
 142:Code\Device\W25Q80/user_data.c **** //-------------------------------------------------------------------------------------------------
 143:Code\Device\W25Q80/user_data.c **** // Info				: 
 144:Code\Device\W25Q80/user_data.c **** //*************************************************************************************************
 145:Code\Device\W25Q80/user_data.c **** void user_add_info(uint16 user_id, user_info_t *info)
 146:Code\Device\W25Q80/user_data.c **** {
 325              		.loc 1 146 0
 326              		.cfi_startproc
 327              		@ args = 0, pretend = 0, frame = 0
 328              		@ frame_needed = 0, uses_anonymous_args = 0
 329              	.LVL27:
 330 0000 0B00     		movs	r3, r1
 147:Code\Device\W25Q80/user_data.c **** 	W25QXX_Write((uint8 *)info, USER_INFO_BASE + (sizeof(user_info_t) * user_id), (uint16)sizeof(user_
 331              		.loc 1 147 0
 332 0002 0C22     		movs	r2, #12
 333 0004 0100     		movs	r1, r0
 334              	.LVL28:
 335 0006 8020     		movs	r0, #128
 336              	.LVL29:
 146:Code\Device\W25Q80/user_data.c **** 	W25QXX_Write((uint8 *)info, USER_INFO_BASE + (sizeof(user_info_t) * user_id), (uint16)sizeof(user_
 337              		.loc 1 146 0
 338 0008 10B5     		push	{r4, lr}
 339              		.cfi_def_cfa_offset 8
 340              		.cfi_offset 4, -8
 341              		.cfi_offset 14, -4
 342              		.loc 1 147 0
 343 000a 5143     		muls	r1, r2
 344 000c 8000     		lsls	r0, r0, #2
 345 000e 0918     		adds	r1, r1, r0
 346 0010 1800     		movs	r0, r3
 347 0012 FFF7FEFF 		bl	W25QXX_Write
 348              	.LVL30:
 148:Code\Device\W25Q80/user_data.c **** }
 349              		.loc 1 148 0
 350              		@ sp needed
 351 0016 10BD     		pop	{r4, pc}
 352              		.cfi_endproc
ARM GAS  C:\Users\Administrator\AppData\Local\Temp\ccPIvPLo.s 			page 10


 353              	.LFE69:
 354              		.size	user_add_info, .-user_add_info
 355              		.section	.text.user_del_info,"ax",%progbits
 356              		.align	1
 357              		.global	user_del_info
 358              		.code	16
 359              		.thumb_func
 360              		.type	user_del_info, %function
 361              	user_del_info:
 362              	.LFB70:
 149:Code\Device\W25Q80/user_data.c **** 
 150:Code\Device\W25Q80/user_data.c **** //*************************************************************************************************
 151:Code\Device\W25Q80/user_data.c **** // Function name	: user_del_info
 152:Code\Device\W25Q80/user_data.c **** // Description		: 删除新的用户信息
 153:Code\Device\W25Q80/user_data.c **** // Parameter		: user_id
 154:Code\Device\W25Q80/user_data.c **** // Return			: none
 155:Code\Device\W25Q80/user_data.c **** //-------------------------------------------------------------------------------------------------
 156:Code\Device\W25Q80/user_data.c **** // Info				: 
 157:Code\Device\W25Q80/user_data.c **** //*************************************************************************************************
 158:Code\Device\W25Q80/user_data.c **** void user_del_info(uint16 user_id)
 159:Code\Device\W25Q80/user_data.c **** {
 363              		.loc 1 159 0
 364              		.cfi_startproc
 365              		@ args = 0, pretend = 0, frame = 16
 366              		@ frame_needed = 0, uses_anonymous_args = 0
 367              	.LVL31:
 368 0000 30B5     		push	{r4, r5, lr}
 369              		.cfi_def_cfa_offset 12
 370              		.cfi_offset 4, -12
 371              		.cfi_offset 5, -8
 372              		.cfi_offset 14, -4
 160:Code\Device\W25Q80/user_data.c **** 	uint8_t flag[sizeof(user_info_t)] = {0};
 373              		.loc 1 160 0
 374 0002 0C25     		movs	r5, #12
 159:Code\Device\W25Q80/user_data.c **** 	uint8_t flag[sizeof(user_info_t)] = {0};
 375              		.loc 1 159 0
 376 0004 0400     		movs	r4, r0
 377 0006 85B0     		sub	sp, sp, #20
 378              		.cfi_def_cfa_offset 32
 379              		.loc 1 160 0
 380 0008 2A00     		movs	r2, r5
 381 000a 0021     		movs	r1, #0
 382 000c 01A8     		add	r0, sp, #4
 383              	.LVL32:
 384 000e FFF7FEFF 		bl	memset
 385              	.LVL33:
 161:Code\Device\W25Q80/user_data.c **** 	
 162:Code\Device\W25Q80/user_data.c **** 	W25QXX_Write(flag, USER_INFO_BASE + sizeof(user_info_t) * user_id, (uint16)sizeof(user_info_t));
 386              		.loc 1 162 0
 387 0012 8023     		movs	r3, #128
 388 0014 6C43     		muls	r4, r5
 389 0016 9B00     		lsls	r3, r3, #2
 390 0018 E118     		adds	r1, r4, r3
 391 001a 2A00     		movs	r2, r5
 392 001c 01A8     		add	r0, sp, #4
 393 001e FFF7FEFF 		bl	W25QXX_Write
 394              	.LVL34:
ARM GAS  C:\Users\Administrator\AppData\Local\Temp\ccPIvPLo.s 			page 11


 163:Code\Device\W25Q80/user_data.c **** }
 395              		.loc 1 163 0
 396 0022 05B0     		add	sp, sp, #20
 397              		@ sp needed
 398 0024 30BD     		pop	{r4, r5, pc}
 399              		.cfi_endproc
 400              	.LFE70:
 401              		.size	user_del_info, .-user_del_info
 402              		.section	.text.user_get_info,"ax",%progbits
 403              		.align	1
 404              		.global	user_get_info
 405              		.code	16
 406              		.thumb_func
 407              		.type	user_get_info, %function
 408              	user_get_info:
 409              	.LFB71:
 164:Code\Device\W25Q80/user_data.c **** 
 165:Code\Device\W25Q80/user_data.c **** //*************************************************************************************************
 166:Code\Device\W25Q80/user_data.c **** // Function name	: user_get_info
 167:Code\Device\W25Q80/user_data.c **** // Description		: 根据user_id来获取Info用户信息
 168:Code\Device\W25Q80/user_data.c **** // Parameter		: user_id，user_info_t
 169:Code\Device\W25Q80/user_data.c **** // Return			: none
 170:Code\Device\W25Q80/user_data.c **** //-------------------------------------------------------------------------------------------------
 171:Code\Device\W25Q80/user_data.c **** // Info				: 
 172:Code\Device\W25Q80/user_data.c **** //*************************************************************************************************
 173:Code\Device\W25Q80/user_data.c **** void user_get_info(uint16 user_id, user_info_t *info)
 174:Code\Device\W25Q80/user_data.c **** {
 410              		.loc 1 174 0
 411              		.cfi_startproc
 412              		@ args = 0, pretend = 0, frame = 0
 413              		@ frame_needed = 0, uses_anonymous_args = 0
 414              	.LVL35:
 415 0000 0B00     		movs	r3, r1
 175:Code\Device\W25Q80/user_data.c **** 	W25QXX_Read((uint8 *)info, USER_INFO_BASE + sizeof(user_info_t) * user_id, (uint16)sizeof(user_inf
 416              		.loc 1 175 0
 417 0002 0C22     		movs	r2, #12
 418 0004 0100     		movs	r1, r0
 419              	.LVL36:
 420 0006 8020     		movs	r0, #128
 421              	.LVL37:
 174:Code\Device\W25Q80/user_data.c **** 	W25QXX_Read((uint8 *)info, USER_INFO_BASE + sizeof(user_info_t) * user_id, (uint16)sizeof(user_inf
 422              		.loc 1 174 0
 423 0008 10B5     		push	{r4, lr}
 424              		.cfi_def_cfa_offset 8
 425              		.cfi_offset 4, -8
 426              		.cfi_offset 14, -4
 427              		.loc 1 175 0
 428 000a 5143     		muls	r1, r2
 429 000c 8000     		lsls	r0, r0, #2
 430 000e 0918     		adds	r1, r1, r0
 431 0010 1800     		movs	r0, r3
 432 0012 FFF7FEFF 		bl	W25QXX_Read
 433              	.LVL38:
 176:Code\Device\W25Q80/user_data.c **** }
 434              		.loc 1 176 0
 435              		@ sp needed
 436 0016 10BD     		pop	{r4, pc}
ARM GAS  C:\Users\Administrator\AppData\Local\Temp\ccPIvPLo.s 			page 12


 437              		.cfi_endproc
 438              	.LFE71:
 439              		.size	user_get_info, .-user_get_info
 440              		.section	.text.user_get_card_uid,"ax",%progbits
 441              		.align	1
 442              		.global	user_get_card_uid
 443              		.code	16
 444              		.thumb_func
 445              		.type	user_get_card_uid, %function
 446              	user_get_card_uid:
 447              	.LFB72:
 177:Code\Device\W25Q80/user_data.c **** 
 178:Code\Device\W25Q80/user_data.c **** //*************************************************************************************************
 179:Code\Device\W25Q80/user_data.c **** // Function name	: user_get_card_uid
 180:Code\Device\W25Q80/user_data.c **** // Description		: 根据user_id来获取卡uid
 181:Code\Device\W25Q80/user_data.c **** // Parameter		: user_id，*card_uid
 182:Code\Device\W25Q80/user_data.c **** // Return			: none
 183:Code\Device\W25Q80/user_data.c **** //-------------------------------------------------------------------------------------------------
 184:Code\Device\W25Q80/user_data.c **** // Info				: 
 185:Code\Device\W25Q80/user_data.c **** //*************************************************************************************************
 186:Code\Device\W25Q80/user_data.c **** void user_get_card_uid(uint16 user_id, uint8 *card_uid)
 187:Code\Device\W25Q80/user_data.c **** {
 448              		.loc 1 187 0
 449              		.cfi_startproc
 450              		@ args = 0, pretend = 0, frame = 0
 451              		@ frame_needed = 0, uses_anonymous_args = 0
 452              	.LVL39:
 453 0000 0B00     		movs	r3, r1
 188:Code\Device\W25Q80/user_data.c **** 	W25QXX_Read(card_uid, USER_INFO_BASE + sizeof(user_info_t) * user_id + offsetof(user_info_t, card_
 454              		.loc 1 188 0
 455 0002 0C21     		movs	r1, #12
 456              	.LVL40:
 457 0004 8022     		movs	r2, #128
 458 0006 4143     		muls	r1, r0
 187:Code\Device\W25Q80/user_data.c **** 	W25QXX_Read(card_uid, USER_INFO_BASE + sizeof(user_info_t) * user_id + offsetof(user_info_t, card_
 459              		.loc 1 187 0
 460 0008 10B5     		push	{r4, lr}
 461              		.cfi_def_cfa_offset 8
 462              		.cfi_offset 4, -8
 463              		.cfi_offset 14, -4
 464              		.loc 1 188 0
 465 000a 9200     		lsls	r2, r2, #2
 466 000c 8918     		adds	r1, r1, r2
 467 000e F93A     		subs	r2, r2, #249
 468 0010 FF3A     		subs	r2, r2, #255
 469 0012 1800     		movs	r0, r3
 470              	.LVL41:
 471 0014 FFF7FEFF 		bl	W25QXX_Read
 472              	.LVL42:
 189:Code\Device\W25Q80/user_data.c **** }
 473              		.loc 1 189 0
 474              		@ sp needed
 475 0018 10BD     		pop	{r4, pc}
 476              		.cfi_endproc
 477              	.LFE72:
 478              		.size	user_get_card_uid, .-user_get_card_uid
 479              		.section	.text.user_get_user_id,"ax",%progbits
ARM GAS  C:\Users\Administrator\AppData\Local\Temp\ccPIvPLo.s 			page 13


 480              		.align	1
 481              		.global	user_get_user_id
 482              		.code	16
 483              		.thumb_func
 484              		.type	user_get_user_id, %function
 485              	user_get_user_id:
 486              	.LFB73:
 190:Code\Device\W25Q80/user_data.c **** 
 191:Code\Device\W25Q80/user_data.c **** //*************************************************************************************************
 192:Code\Device\W25Q80/user_data.c **** // Function name	: user_get_user_id
 193:Code\Device\W25Q80/user_data.c **** // Description		: 根据uid信息来获取user_id
 194:Code\Device\W25Q80/user_data.c **** // Parameter		: *user_id ，*card_uid
 195:Code\Device\W25Q80/user_data.c **** // Return			: none
 196:Code\Device\W25Q80/user_data.c **** //-------------------------------------------------------------------------------------------------
 197:Code\Device\W25Q80/user_data.c **** // Info				: 读到卡了，返回卡用户编号
 198:Code\Device\W25Q80/user_data.c **** //					: 没读到卡，返回MAX_USR_NUM
 199:Code\Device\W25Q80/user_data.c **** //*************************************************************************************************
 200:Code\Device\W25Q80/user_data.c **** void user_get_user_id(uint16 *user_id, uint8 *card_uid)
 201:Code\Device\W25Q80/user_data.c **** {
 487              		.loc 1 201 0
 488              		.cfi_startproc
 489              		@ args = 0, pretend = 0, frame = 520
 490              		@ frame_needed = 0, uses_anonymous_args = 0
 491              	.LVL43:
 492 0000 FFB5     		push	{r0, r1, r2, r3, r4, r5, r6, r7, lr}
 493              		.cfi_def_cfa_offset 36
 494              		.cfi_offset 0, -36
 495              		.cfi_offset 1, -32
 496              		.cfi_offset 2, -28
 497              		.cfi_offset 3, -24
 498              		.cfi_offset 4, -20
 499              		.cfi_offset 5, -16
 500              		.cfi_offset 6, -12
 501              		.cfi_offset 7, -8
 502              		.cfi_offset 14, -4
 202:Code\Device\W25Q80/user_data.c **** 	uint16 i;
 203:Code\Device\W25Q80/user_data.c **** 	uint8 ret;
 204:Code\Device\W25Q80/user_data.c **** 	uint8 flag[USER_FLAG_SIZE];
 205:Code\Device\W25Q80/user_data.c **** 	uint8 card_id_eeprom[CARD_UID_LEN];
 206:Code\Device\W25Q80/user_data.c **** 	
 207:Code\Device\W25Q80/user_data.c **** 	W25QXX_Read(flag, USER_FLAG_BASE, USER_FLAG_SIZE);
 503              		.loc 1 207 0
 504 0002 FA22     		movs	r2, #250
 201:Code\Device\W25Q80/user_data.c **** 	uint16 i;
 505              		.loc 1 201 0
 506 0004 FFB0     		sub	sp, sp, #508
 507              		.cfi_def_cfa_offset 544
 508              		.loc 1 207 0
 509 0006 05AE     		add	r6, sp, #20
 201:Code\Device\W25Q80/user_data.c **** 	uint16 i;
 510              		.loc 1 201 0
 511 0008 0191     		str	r1, [sp, #4]
 512 000a 0500     		movs	r5, r0
 513              		.loc 1 207 0
 514 000c 5200     		lsls	r2, r2, #1
 515 000e 0021     		movs	r1, #0
 516              	.LVL44:
ARM GAS  C:\Users\Administrator\AppData\Local\Temp\ccPIvPLo.s 			page 14


 517 0010 3000     		movs	r0, r6
 518              	.LVL45:
 519 0012 FFF7FEFF 		bl	W25QXX_Read
 520              	.LVL46:
 521 0016 0024     		movs	r4, #0
 522              	.LVL47:
 523              	.L22:
 208:Code\Device\W25Q80/user_data.c **** 	for (i = 0; i < USER_FLAG_SIZE; i++)
 209:Code\Device\W25Q80/user_data.c **** 	{
 210:Code\Device\W25Q80/user_data.c **** 		if (flag[i] == TRUE)
 524              		.loc 1 210 0
 525 0018 335D     		ldrb	r3, [r6, r4]
 526 001a A7B2     		uxth	r7, r4
 527              	.LVL48:
 528 001c 012B     		cmp	r3, #1
 529 001e 0DD1     		bne	.L20
 211:Code\Device\W25Q80/user_data.c **** 		{
 212:Code\Device\W25Q80/user_data.c **** 			user_get_card_uid(i, card_id_eeprom);
 530              		.loc 1 212 0
 531 0020 03A9     		add	r1, sp, #12
 532 0022 3800     		movs	r0, r7
 533 0024 FFF7FEFF 		bl	user_get_card_uid
 534              	.LVL49:
 213:Code\Device\W25Q80/user_data.c **** 			ret = memcmp(card_uid, card_id_eeprom, CARD_UID_LEN);
 535              		.loc 1 213 0
 536 0028 0822     		movs	r2, #8
 537 002a 03A9     		add	r1, sp, #12
 538 002c 0198     		ldr	r0, [sp, #4]
 539 002e FFF7FEFF 		bl	memcmp
 540              	.LVL50:
 214:Code\Device\W25Q80/user_data.c **** 			if (ret == 0)											
 541              		.loc 1 214 0
 542 0032 C0B2     		uxtb	r0, r0
 543 0034 0028     		cmp	r0, #0
 544 0036 01D1     		bne	.L20
 215:Code\Device\W25Q80/user_data.c **** 			{
 216:Code\Device\W25Q80/user_data.c **** 				*user_id = i;
 545              		.loc 1 216 0
 546 0038 2F80     		strh	r7, [r5]
 547 003a 05E0     		b	.L19
 548              	.LVL51:
 549              	.L20:
 208:Code\Device\W25Q80/user_data.c **** 	{
 550              		.loc 1 208 0
 551 003c FA23     		movs	r3, #250
 552 003e 0134     		adds	r4, r4, #1
 553              	.LVL52:
 554 0040 5B00     		lsls	r3, r3, #1
 555 0042 9C42     		cmp	r4, r3
 556 0044 E8D1     		bne	.L22
 217:Code\Device\W25Q80/user_data.c **** 				return;
 218:Code\Device\W25Q80/user_data.c **** 			}
 219:Code\Device\W25Q80/user_data.c **** 		}
 220:Code\Device\W25Q80/user_data.c **** 	}
 221:Code\Device\W25Q80/user_data.c **** 	*user_id = MAX_USR_NUM;
 557              		.loc 1 221 0
 558 0046 2C80     		strh	r4, [r5]
ARM GAS  C:\Users\Administrator\AppData\Local\Temp\ccPIvPLo.s 			page 15


 559              	.LVL53:
 560              	.L19:
 222:Code\Device\W25Q80/user_data.c **** }
 561              		.loc 1 222 0
 562 0048 7FB0     		add	sp, sp, #508
 563              		@ sp needed
 564              	.LVL54:
 565 004a FFBD     		pop	{r0, r1, r2, r3, r4, r5, r6, r7, pc}
 566              		.cfi_endproc
 567              	.LFE73:
 568              		.size	user_get_user_id, .-user_get_user_id
 569              		.section	.text.user_get_valid_time,"ax",%progbits
 570              		.align	1
 571              		.global	user_get_valid_time
 572              		.code	16
 573              		.thumb_func
 574              		.type	user_get_valid_time, %function
 575              	user_get_valid_time:
 576              	.LFB74:
 223:Code\Device\W25Q80/user_data.c **** 
 224:Code\Device\W25Q80/user_data.c **** //*************************************************************************************************
 225:Code\Device\W25Q80/user_data.c **** // Function name	: user_get_valid_time
 226:Code\Device\W25Q80/user_data.c **** // Description		: 获取已存用户的有效时间
 227:Code\Device\W25Q80/user_data.c **** // Parameter		: user_id，*valid_time
 228:Code\Device\W25Q80/user_data.c **** // Return			: none
 229:Code\Device\W25Q80/user_data.c **** //-------------------------------------------------------------------------------------------------
 230:Code\Device\W25Q80/user_data.c **** // Info				: 
 231:Code\Device\W25Q80/user_data.c **** //*************************************************************************************************
 232:Code\Device\W25Q80/user_data.c **** void user_get_valid_time(uint16 user_id, uint8 *valid_time)
 233:Code\Device\W25Q80/user_data.c **** {
 577              		.loc 1 233 0
 578              		.cfi_startproc
 579              		@ args = 0, pretend = 0, frame = 0
 580              		@ frame_needed = 0, uses_anonymous_args = 0
 581              	.LVL55:
 582 0000 0B00     		movs	r3, r1
 234:Code\Device\W25Q80/user_data.c **** 	W25QXX_Read(valid_time, USER_INFO_BASE + sizeof(user_info_t) * user_id + offsetof(user_info_t, val
 583              		.loc 1 234 0
 584 0002 0C21     		movs	r1, #12
 585              	.LVL56:
 586 0004 8222     		movs	r2, #130
 233:Code\Device\W25Q80/user_data.c **** 	W25QXX_Read(valid_time, USER_INFO_BASE + sizeof(user_info_t) * user_id + offsetof(user_info_t, val
 587              		.loc 1 233 0
 588 0006 10B5     		push	{r4, lr}
 589              		.cfi_def_cfa_offset 8
 590              		.cfi_offset 4, -8
 591              		.cfi_offset 14, -4
 592              		.loc 1 234 0
 593 0008 4143     		muls	r1, r0
 594 000a 9200     		lsls	r2, r2, #2
 595 000c 8918     		adds	r1, r1, r2
 596 000e 1800     		movs	r0, r3
 597              	.LVL57:
 598 0010 0422     		movs	r2, #4
 599 0012 FFF7FEFF 		bl	W25QXX_Read
 600              	.LVL58:
 235:Code\Device\W25Q80/user_data.c **** }
ARM GAS  C:\Users\Administrator\AppData\Local\Temp\ccPIvPLo.s 			page 16


 601              		.loc 1 235 0
 602              		@ sp needed
 603 0016 10BD     		pop	{r4, pc}
 604              		.cfi_endproc
 605              	.LFE74:
 606              		.size	user_get_valid_time, .-user_get_valid_time
 607              		.section	.text.add_user,"ax",%progbits
 608              		.align	1
 609              		.global	add_user
 610              		.code	16
 611              		.thumb_func
 612              		.type	add_user, %function
 613              	add_user:
 614              	.LFB75:
 236:Code\Device\W25Q80/user_data.c **** 
 237:Code\Device\W25Q80/user_data.c **** //*************************************************************************************************
 238:Code\Device\W25Q80/user_data.c **** // Function name	: add_user
 239:Code\Device\W25Q80/user_data.c **** // Description		: 添加用户信息
 240:Code\Device\W25Q80/user_data.c **** // Parameter		: user_id，*user_info_t
 241:Code\Device\W25Q80/user_data.c **** // Return			: TRUE / FALSE
 242:Code\Device\W25Q80/user_data.c **** //-------------------------------------------------------------------------------------------------
 243:Code\Device\W25Q80/user_data.c **** // Info				: 
 244:Code\Device\W25Q80/user_data.c **** //*************************************************************************************************
 245:Code\Device\W25Q80/user_data.c **** uint8 add_user(uint16 user_id,  user_info_t *info)
 246:Code\Device\W25Q80/user_data.c **** {
 615              		.loc 1 246 0
 616              		.cfi_startproc
 617              		@ args = 0, pretend = 0, frame = 16
 618              		@ frame_needed = 0, uses_anonymous_args = 0
 619              	.LVL59:
 620 0000 30B5     		push	{r4, r5, lr}
 621              		.cfi_def_cfa_offset 12
 622              		.cfi_offset 4, -12
 623              		.cfi_offset 5, -8
 624              		.cfi_offset 14, -4
 625 0002 0400     		movs	r4, r0
 626 0004 0D00     		movs	r5, r1
 627 0006 85B0     		sub	sp, sp, #20
 628              		.cfi_def_cfa_offset 32
 247:Code\Device\W25Q80/user_data.c **** 	user_info_t info_tmp;
 248:Code\Device\W25Q80/user_data.c **** 	
 249:Code\Device\W25Q80/user_data.c **** 	user_add_info(user_id, info);
 629              		.loc 1 249 0
 630 0008 FFF7FEFF 		bl	user_add_info
 631              	.LVL60:
 250:Code\Device\W25Q80/user_data.c **** 	user_get_info(user_id, &info_tmp);
 632              		.loc 1 250 0
 633 000c 01A9     		add	r1, sp, #4
 634 000e 2000     		movs	r0, r4
 635 0010 FFF7FEFF 		bl	user_get_info
 636              	.LVL61:
 251:Code\Device\W25Q80/user_data.c **** 	if (0 == memcmp(info, &info_tmp, sizeof(user_info_t)))
 637              		.loc 1 251 0
 638 0014 0C22     		movs	r2, #12
 639 0016 01A9     		add	r1, sp, #4
 640 0018 2800     		movs	r0, r5
 641 001a FFF7FEFF 		bl	memcmp
ARM GAS  C:\Users\Administrator\AppData\Local\Temp\ccPIvPLo.s 			page 17


 642              	.LVL62:
 252:Code\Device\W25Q80/user_data.c **** 	{
 253:Code\Device\W25Q80/user_data.c **** 		user_set_valid_flag(user_id);
 254:Code\Device\W25Q80/user_data.c **** 		return TRUE;
 255:Code\Device\W25Q80/user_data.c **** 	}
 256:Code\Device\W25Q80/user_data.c **** 	else
 257:Code\Device\W25Q80/user_data.c **** 	{
 258:Code\Device\W25Q80/user_data.c **** 		return FALSE;
 643              		.loc 1 258 0
 644 001e 0023     		movs	r3, #0
 251:Code\Device\W25Q80/user_data.c **** 	if (0 == memcmp(info, &info_tmp, sizeof(user_info_t)))
 645              		.loc 1 251 0
 646 0020 9842     		cmp	r0, r3
 647 0022 03D1     		bne	.L26
 253:Code\Device\W25Q80/user_data.c **** 		return TRUE;
 648              		.loc 1 253 0
 649 0024 2000     		movs	r0, r4
 650 0026 FFF7FEFF 		bl	user_set_valid_flag
 651              	.LVL63:
 254:Code\Device\W25Q80/user_data.c **** 	}
 652              		.loc 1 254 0
 653 002a 0123     		movs	r3, #1
 654              	.L26:
 259:Code\Device\W25Q80/user_data.c **** 	}
 260:Code\Device\W25Q80/user_data.c **** }
 655              		.loc 1 260 0
 656 002c 1800     		movs	r0, r3
 657 002e 05B0     		add	sp, sp, #20
 658              		@ sp needed
 659              	.LVL64:
 660 0030 30BD     		pop	{r4, r5, pc}
 661              		.cfi_endproc
 662              	.LFE75:
 663              		.size	add_user, .-add_user
 664              		.section	.text.chg_user,"ax",%progbits
 665              		.align	1
 666              		.global	chg_user
 667              		.code	16
 668              		.thumb_func
 669              		.type	chg_user, %function
 670              	chg_user:
 671              	.LFB76:
 261:Code\Device\W25Q80/user_data.c **** 
 262:Code\Device\W25Q80/user_data.c **** //*************************************************************************************************
 263:Code\Device\W25Q80/user_data.c **** // Function name	: chg_user
 264:Code\Device\W25Q80/user_data.c **** // Description		: 修改用户信息
 265:Code\Device\W25Q80/user_data.c **** // Parameter		: user_id，*user_info_t
 266:Code\Device\W25Q80/user_data.c **** // Return			: TRUE / FALSE
 267:Code\Device\W25Q80/user_data.c **** //-------------------------------------------------------------------------------------------------
 268:Code\Device\W25Q80/user_data.c **** // Info				: 
 269:Code\Device\W25Q80/user_data.c **** //*************************************************************************************************
 270:Code\Device\W25Q80/user_data.c **** uint8 chg_user(uint16 user_id, user_info_t *info)
 271:Code\Device\W25Q80/user_data.c **** {
 672              		.loc 1 271 0
 673              		.cfi_startproc
 674              		@ args = 0, pretend = 0, frame = 16
 675              		@ frame_needed = 0, uses_anonymous_args = 0
ARM GAS  C:\Users\Administrator\AppData\Local\Temp\ccPIvPLo.s 			page 18


 676              	.LVL65:
 677 0000 30B5     		push	{r4, r5, lr}
 678              		.cfi_def_cfa_offset 12
 679              		.cfi_offset 4, -12
 680              		.cfi_offset 5, -8
 681              		.cfi_offset 14, -4
 682 0002 0500     		movs	r5, r0
 683 0004 0C00     		movs	r4, r1
 684 0006 85B0     		sub	sp, sp, #20
 685              		.cfi_def_cfa_offset 32
 272:Code\Device\W25Q80/user_data.c **** 	user_info_t info_tmp;
 273:Code\Device\W25Q80/user_data.c **** 	
 274:Code\Device\W25Q80/user_data.c **** 	user_add_info(user_id, info);
 686              		.loc 1 274 0
 687 0008 FFF7FEFF 		bl	user_add_info
 688              	.LVL66:
 275:Code\Device\W25Q80/user_data.c **** 	user_get_info(user_id, &info_tmp);
 689              		.loc 1 275 0
 690 000c 01A9     		add	r1, sp, #4
 691 000e 2800     		movs	r0, r5
 692 0010 FFF7FEFF 		bl	user_get_info
 693              	.LVL67:
 276:Code\Device\W25Q80/user_data.c **** 	if (0 == memcmp(info, &info_tmp, sizeof(user_info_t)))
 694              		.loc 1 276 0
 695 0014 0C22     		movs	r2, #12
 696 0016 01A9     		add	r1, sp, #4
 697 0018 2000     		movs	r0, r4
 698 001a FFF7FEFF 		bl	memcmp
 699              	.LVL68:
 700 001e 4342     		rsbs	r3, r0, #0
 701 0020 5841     		adcs	r0, r0, r3
 702 0022 C0B2     		uxtb	r0, r0
 277:Code\Device\W25Q80/user_data.c **** 	{
 278:Code\Device\W25Q80/user_data.c **** 		return TRUE;
 279:Code\Device\W25Q80/user_data.c **** 	}
 280:Code\Device\W25Q80/user_data.c **** 	else
 281:Code\Device\W25Q80/user_data.c **** 	{
 282:Code\Device\W25Q80/user_data.c **** 		return FALSE;
 283:Code\Device\W25Q80/user_data.c **** 	}
 284:Code\Device\W25Q80/user_data.c **** }
 703              		.loc 1 284 0
 704 0024 05B0     		add	sp, sp, #20
 705              		@ sp needed
 706              	.LVL69:
 707 0026 30BD     		pop	{r4, r5, pc}
 708              		.cfi_endproc
 709              	.LFE76:
 710              		.size	chg_user, .-chg_user
 711              		.section	.text.del_user,"ax",%progbits
 712              		.align	1
 713              		.global	del_user
 714              		.code	16
 715              		.thumb_func
 716              		.type	del_user, %function
 717              	del_user:
 718              	.LFB77:
 285:Code\Device\W25Q80/user_data.c **** 
ARM GAS  C:\Users\Administrator\AppData\Local\Temp\ccPIvPLo.s 			page 19


 286:Code\Device\W25Q80/user_data.c **** //*************************************************************************************************
 287:Code\Device\W25Q80/user_data.c **** // Function name	: del_user
 288:Code\Device\W25Q80/user_data.c **** // Description		: 删除用户信息
 289:Code\Device\W25Q80/user_data.c **** // Parameter		: user_id
 290:Code\Device\W25Q80/user_data.c **** // Return			: none
 291:Code\Device\W25Q80/user_data.c **** //-------------------------------------------------------------------------------------------------
 292:Code\Device\W25Q80/user_data.c **** // Info				: 删除后取卡UID和有效期的一个数来验证确认是否删除.
 293:Code\Device\W25Q80/user_data.c **** //-------------------------------------------------------------------------------------------------
 294:Code\Device\W25Q80/user_data.c **** //					: 还可以再写一个根据UID来删除的函数
 295:Code\Device\W25Q80/user_data.c **** //*************************************************************************************************
 296:Code\Device\W25Q80/user_data.c **** uint8 del_user(uint16 user_id)
 297:Code\Device\W25Q80/user_data.c **** {
 719              		.loc 1 297 0
 720              		.cfi_startproc
 721              		@ args = 0, pretend = 0, frame = 16
 722              		@ frame_needed = 0, uses_anonymous_args = 0
 723              	.LVL70:
 724 0000 30B5     		push	{r4, r5, lr}
 725              		.cfi_def_cfa_offset 12
 726              		.cfi_offset 4, -12
 727              		.cfi_offset 5, -8
 728              		.cfi_offset 14, -4
 729 0002 0400     		movs	r4, r0
 730 0004 85B0     		sub	sp, sp, #20
 731              		.cfi_def_cfa_offset 32
 298:Code\Device\W25Q80/user_data.c **** 	user_info_t info_tmp;
 299:Code\Device\W25Q80/user_data.c **** 	
 300:Code\Device\W25Q80/user_data.c **** 	user_del_info(user_id);
 301:Code\Device\W25Q80/user_data.c **** 	user_get_info(user_id, &info_tmp);
 732              		.loc 1 301 0
 733 0006 01AD     		add	r5, sp, #4
 300:Code\Device\W25Q80/user_data.c **** 	user_get_info(user_id, &info_tmp);
 734              		.loc 1 300 0
 735 0008 FFF7FEFF 		bl	user_del_info
 736              	.LVL71:
 737              		.loc 1 301 0
 738 000c 2000     		movs	r0, r4
 739 000e 2900     		movs	r1, r5
 740 0010 FFF7FEFF 		bl	user_get_info
 741              	.LVL72:
 302:Code\Device\W25Q80/user_data.c **** 	if ((info_tmp.card_uid[5] == 0) && (info_tmp.valid_time[3] == 0))
 742              		.loc 1 302 0
 743 0014 6879     		ldrb	r0, [r5, #5]
 744 0016 0028     		cmp	r0, #0
 745 0018 07D1     		bne	.L31
 746              		.loc 1 302 0 is_stmt 0 discriminator 1
 747 001a EB7A     		ldrb	r3, [r5, #11]
 748 001c 002B     		cmp	r3, #0
 749 001e 05D1     		bne	.L30
 303:Code\Device\W25Q80/user_data.c **** 	{
 304:Code\Device\W25Q80/user_data.c **** 		user_clr_valid_flag(user_id);
 750              		.loc 1 304 0 is_stmt 1
 751 0020 2000     		movs	r0, r4
 752 0022 FFF7FEFF 		bl	user_clr_valid_flag
 753              	.LVL73:
 305:Code\Device\W25Q80/user_data.c **** 		return TRUE;
 754              		.loc 1 305 0
ARM GAS  C:\Users\Administrator\AppData\Local\Temp\ccPIvPLo.s 			page 20


 755 0026 0120     		movs	r0, #1
 756 0028 00E0     		b	.L30
 757              	.L31:
 306:Code\Device\W25Q80/user_data.c **** 	}
 307:Code\Device\W25Q80/user_data.c **** 	else
 308:Code\Device\W25Q80/user_data.c **** 	{
 309:Code\Device\W25Q80/user_data.c **** 		return FALSE;
 758              		.loc 1 309 0
 759 002a 0020     		movs	r0, #0
 760              	.L30:
 310:Code\Device\W25Q80/user_data.c **** 	}
 311:Code\Device\W25Q80/user_data.c **** }
 761              		.loc 1 311 0
 762 002c 05B0     		add	sp, sp, #20
 763              		@ sp needed
 764 002e 30BD     		pop	{r4, r5, pc}
 765              		.cfi_endproc
 766              	.LFE77:
 767              		.size	del_user, .-del_user
 768              		.section	.text.clr_user,"ax",%progbits
 769              		.align	1
 770              		.global	clr_user
 771              		.code	16
 772              		.thumb_func
 773              		.type	clr_user, %function
 774              	clr_user:
 775              	.LFB78:
 312:Code\Device\W25Q80/user_data.c **** 
 313:Code\Device\W25Q80/user_data.c **** //*************************************************************************************************
 314:Code\Device\W25Q80/user_data.c **** // Function name	: clr_user
 315:Code\Device\W25Q80/user_data.c **** // Description		: 清空所有用户
 316:Code\Device\W25Q80/user_data.c **** // Parameter		: user_id
 317:Code\Device\W25Q80/user_data.c **** // Return			: none
 318:Code\Device\W25Q80/user_data.c **** //-------------------------------------------------------------------------------------------------
 319:Code\Device\W25Q80/user_data.c **** // Info				: 清空所有用户时，是否保留房东？
 320:Code\Device\W25Q80/user_data.c **** //					: 与平涛沟通后，确认全删，锁不管业务层的处理.170829-19:29.
 321:Code\Device\W25Q80/user_data.c **** //*************************************************************************************************
 322:Code\Device\W25Q80/user_data.c **** uint8 clr_user(void)
 323:Code\Device\W25Q80/user_data.c **** {
 776              		.loc 1 323 0
 777              		.cfi_startproc
 778              		@ args = 0, pretend = 0, frame = 6504
 779              		@ frame_needed = 0, uses_anonymous_args = 0
 780 0000 30B5     		push	{r4, r5, lr}
 781              		.cfi_def_cfa_offset 12
 782              		.cfi_offset 4, -12
 783              		.cfi_offset 5, -8
 784              		.cfi_offset 14, -4
 324:Code\Device\W25Q80/user_data.c **** 	uint8_t userflag[USER_FLAG_SIZE] = {0};
 785              		.loc 1 324 0
 786 0002 FA25     		movs	r5, #250
 323:Code\Device\W25Q80/user_data.c **** 	uint8_t userflag[USER_FLAG_SIZE] = {0};
 787              		.loc 1 323 0
 788 0004 0E4C     		ldr	r4, .L33
 789              		.loc 1 324 0
 790 0006 6D00     		lsls	r5, r5, #1
 323:Code\Device\W25Q80/user_data.c **** 	uint8_t userflag[USER_FLAG_SIZE] = {0};
ARM GAS  C:\Users\Administrator\AppData\Local\Temp\ccPIvPLo.s 			page 21


 791              		.loc 1 323 0
 792 0008 A544     		add	sp, sp, r4
 793              		.cfi_def_cfa_offset 6520
 325:Code\Device\W25Q80/user_data.c **** 	uint8_t userinfo[USER_FLAG_SIZE * sizeof(user_info_t)] = {0};
 794              		.loc 1 325 0
 795 000a 0E4C     		ldr	r4, .L33+4
 324:Code\Device\W25Q80/user_data.c **** 	uint8_t userflag[USER_FLAG_SIZE] = {0};
 796              		.loc 1 324 0
 797 000c 2A00     		movs	r2, r5
 798 000e 0021     		movs	r1, #0
 799 0010 01A8     		add	r0, sp, #4
 800 0012 FFF7FEFF 		bl	memset
 801              	.LVL74:
 802              		.loc 1 325 0
 803 0016 2200     		movs	r2, r4
 804 0018 0021     		movs	r1, #0
 805 001a 7EA8     		add	r0, sp, #504
 806 001c FFF7FEFF 		bl	memset
 807              	.LVL75:
 326:Code\Device\W25Q80/user_data.c **** 	
 327:Code\Device\W25Q80/user_data.c **** 	W25QXX_Write(userflag, USER_FLAG_BASE, USER_FLAG_SIZE);
 808              		.loc 1 327 0
 809 0020 2A00     		movs	r2, r5
 810 0022 01A8     		add	r0, sp, #4
 811 0024 0021     		movs	r1, #0
 812 0026 FFF7FEFF 		bl	W25QXX_Write
 813              	.LVL76:
 328:Code\Device\W25Q80/user_data.c **** 	W25QXX_Write(userinfo, USER_INFO_BASE, MAX_USR_NUM * sizeof(user_info_t));
 814              		.loc 1 328 0
 815 002a 8021     		movs	r1, #128
 816 002c 7EA8     		add	r0, sp, #504
 817 002e 2200     		movs	r2, r4
 818 0030 8900     		lsls	r1, r1, #2
 819 0032 FFF7FEFF 		bl	W25QXX_Write
 820              	.LVL77:
 329:Code\Device\W25Q80/user_data.c **** 	return TRUE;
 330:Code\Device\W25Q80/user_data.c **** }
 821              		.loc 1 330 0
 822 0036 0120     		movs	r0, #1
 823 0038 034B     		ldr	r3, .L33+8
 824 003a 9D44     		add	sp, sp, r3
 825              		@ sp needed
 826 003c 30BD     		pop	{r4, r5, pc}
 827              	.L34:
 828 003e C046     		.align	2
 829              	.L33:
 830 0040 94E6FFFF 		.word	-6508
 831 0044 70170000 		.word	6000
 832 0048 6C190000 		.word	6508
 833              		.cfi_endproc
 834              	.LFE78:
 835              		.size	clr_user, .-clr_user
 836              		.section	.text.UserData_Add_User,"ax",%progbits
 837              		.align	1
 838              		.global	UserData_Add_User
 839              		.code	16
 840              		.thumb_func
ARM GAS  C:\Users\Administrator\AppData\Local\Temp\ccPIvPLo.s 			page 22


 841              		.type	UserData_Add_User, %function
 842              	UserData_Add_User:
 843              	.LFB79:
 331:Code\Device\W25Q80/user_data.c **** 
 332:Code\Device\W25Q80/user_data.c **** //*************************************************************************************************
 333:Code\Device\W25Q80/user_data.c **** // Function name	: UserData_Add_User
 334:Code\Device\W25Q80/user_data.c **** // Description		: 添加用户
 335:Code\Device\W25Q80/user_data.c **** // Parameter		: info	: 用户信息
 336:Code\Device\W25Q80/user_data.c **** // Return			: 处理结果
 337:Code\Device\W25Q80/user_data.c **** //-------------------------------------------------------------------------------------------------
 338:Code\Device\W25Q80/user_data.c **** // Info				: 
 339:Code\Device\W25Q80/user_data.c **** //*************************************************************************************************
 340:Code\Device\W25Q80/user_data.c **** uint8 UserData_Add_User(user_info_t *info)
 341:Code\Device\W25Q80/user_data.c **** {
 844              		.loc 1 341 0
 845              		.cfi_startproc
 846              		@ args = 0, pretend = 0, frame = 8
 847              		@ frame_needed = 0, uses_anonymous_args = 0
 848              	.LVL78:
 849 0000 73B5     		push	{r0, r1, r4, r5, r6, lr}
 850              		.cfi_def_cfa_offset 24
 851              		.cfi_offset 0, -24
 852              		.cfi_offset 1, -20
 853              		.cfi_offset 4, -16
 854              		.cfi_offset 5, -12
 855              		.cfi_offset 6, -8
 856              		.cfi_offset 14, -4
 342:Code\Device\W25Q80/user_data.c **** 	uint16_t user_id = 0;
 857              		.loc 1 342 0
 858 0002 6B46     		mov	r3, sp
 859 0004 0024     		movs	r4, #0
 860 0006 9D1D     		adds	r5, r3, #6
 343:Code\Device\W25Q80/user_data.c **** 	
 344:Code\Device\W25Q80/user_data.c **** 	user_get_user_id(&user_id, info->card_uid);
 861              		.loc 1 344 0
 862 0008 0100     		movs	r1, r0
 341:Code\Device\W25Q80/user_data.c **** 	uint16_t user_id = 0;
 863              		.loc 1 341 0
 864 000a 0600     		movs	r6, r0
 865              		.loc 1 344 0
 866 000c 2800     		movs	r0, r5
 867              	.LVL79:
 342:Code\Device\W25Q80/user_data.c **** 	uint16_t user_id = 0;
 868              		.loc 1 342 0
 869 000e 2C80     		strh	r4, [r5]
 870              		.loc 1 344 0
 871 0010 FFF7FEFF 		bl	user_get_user_id
 872              	.LVL80:
 345:Code\Device\W25Q80/user_data.c **** 	if (user_id < MAX_USR_NUM)
 873              		.loc 1 345 0
 874 0014 F423     		movs	r3, #244
 875 0016 2888     		ldrh	r0, [r5]
 876 0018 FF33     		adds	r3, r3, #255
 877 001a 9842     		cmp	r0, r3
 878 001c 03D8     		bhi	.L36
 346:Code\Device\W25Q80/user_data.c **** 	{
 347:Code\Device\W25Q80/user_data.c **** 		if (TRUE == chg_user(user_id, info))
ARM GAS  C:\Users\Administrator\AppData\Local\Temp\ccPIvPLo.s 			page 23


 879              		.loc 1 347 0
 880 001e 3100     		movs	r1, r6
 881 0020 FFF7FEFF 		bl	chg_user
 882              	.LVL81:
 883 0024 0AE0     		b	.L39
 884              	.L36:
 348:Code\Device\W25Q80/user_data.c **** 		{
 349:Code\Device\W25Q80/user_data.c **** 			return TRUE;
 350:Code\Device\W25Q80/user_data.c **** 		}
 351:Code\Device\W25Q80/user_data.c **** 		else
 352:Code\Device\W25Q80/user_data.c **** 		{
 353:Code\Device\W25Q80/user_data.c **** 			return FALSE;
 354:Code\Device\W25Q80/user_data.c **** 		}
 355:Code\Device\W25Q80/user_data.c **** 	}
 356:Code\Device\W25Q80/user_data.c **** 	else
 357:Code\Device\W25Q80/user_data.c **** 	{
 358:Code\Device\W25Q80/user_data.c **** 		if (RET_OK != (user_find_free_id(&user_id)))
 885              		.loc 1 358 0
 886 0026 2800     		movs	r0, r5
 887 0028 FFF7FEFF 		bl	user_find_free_id
 888              	.LVL82:
 889 002c 0300     		movs	r3, r0
 359:Code\Device\W25Q80/user_data.c **** 		{
 360:Code\Device\W25Q80/user_data.c **** 			return FALSE;
 890              		.loc 1 360 0
 891 002e 2000     		movs	r0, r4
 358:Code\Device\W25Q80/user_data.c **** 		{
 892              		.loc 1 358 0
 893 0030 012B     		cmp	r3, #1
 894 0032 07D1     		bne	.L37
 361:Code\Device\W25Q80/user_data.c **** 		}
 362:Code\Device\W25Q80/user_data.c **** 		else
 363:Code\Device\W25Q80/user_data.c **** 		{
 364:Code\Device\W25Q80/user_data.c **** 			if (TRUE == add_user(user_id, info))
 895              		.loc 1 364 0
 896 0034 2888     		ldrh	r0, [r5]
 897 0036 3100     		movs	r1, r6
 898 0038 FFF7FEFF 		bl	add_user
 899              	.LVL83:
 900              	.L39:
 349:Code\Device\W25Q80/user_data.c **** 		}
 901              		.loc 1 349 0
 902 003c 0138     		subs	r0, r0, #1
 903 003e 4342     		rsbs	r3, r0, #0
 904 0040 5841     		adcs	r0, r0, r3
 905 0042 C0B2     		uxtb	r0, r0
 906              	.L37:
 365:Code\Device\W25Q80/user_data.c **** 			{
 366:Code\Device\W25Q80/user_data.c **** 				return TRUE;
 367:Code\Device\W25Q80/user_data.c **** 			}
 368:Code\Device\W25Q80/user_data.c **** 			else
 369:Code\Device\W25Q80/user_data.c **** 			{
 370:Code\Device\W25Q80/user_data.c **** 				return FALSE;
 371:Code\Device\W25Q80/user_data.c **** 			}
 372:Code\Device\W25Q80/user_data.c **** 		}
 373:Code\Device\W25Q80/user_data.c **** 	}
 374:Code\Device\W25Q80/user_data.c **** }
ARM GAS  C:\Users\Administrator\AppData\Local\Temp\ccPIvPLo.s 			page 24


 907              		.loc 1 374 0
 908              		@ sp needed
 909              	.LVL84:
 910 0044 76BD     		pop	{r1, r2, r4, r5, r6, pc}
 911              		.cfi_endproc
 912              	.LFE79:
 913              		.size	UserData_Add_User, .-UserData_Add_User
 914              		.section	.text.UserData_DEL_User,"ax",%progbits
 915              		.align	1
 916              		.global	UserData_DEL_User
 917              		.code	16
 918              		.thumb_func
 919              		.type	UserData_DEL_User, %function
 920              	UserData_DEL_User:
 921              	.LFB80:
 375:Code\Device\W25Q80/user_data.c **** 
 376:Code\Device\W25Q80/user_data.c **** //*************************************************************************************************
 377:Code\Device\W25Q80/user_data.c **** // Function name	: UserData_DEL_User
 378:Code\Device\W25Q80/user_data.c **** // Description		: 删除用户
 379:Code\Device\W25Q80/user_data.c **** // Parameter		: card_uid
 380:Code\Device\W25Q80/user_data.c **** // Return			: 处理结果
 381:Code\Device\W25Q80/user_data.c **** //-------------------------------------------------------------------------------------------------
 382:Code\Device\W25Q80/user_data.c **** // Info				: 
 383:Code\Device\W25Q80/user_data.c **** //*************************************************************************************************
 384:Code\Device\W25Q80/user_data.c **** uint8 UserData_DEL_User(uint8 *card_uid)
 385:Code\Device\W25Q80/user_data.c **** {
 922              		.loc 1 385 0
 923              		.cfi_startproc
 924              		@ args = 0, pretend = 0, frame = 8
 925              		@ frame_needed = 0, uses_anonymous_args = 0
 926              	.LVL85:
 927 0000 13B5     		push	{r0, r1, r4, lr}
 928              		.cfi_def_cfa_offset 16
 929              		.cfi_offset 0, -16
 930              		.cfi_offset 1, -12
 931              		.cfi_offset 4, -8
 932              		.cfi_offset 14, -4
 386:Code\Device\W25Q80/user_data.c **** 	uint16_t user_id = 0;
 933              		.loc 1 386 0
 934 0002 6B46     		mov	r3, sp
 935 0004 9C1D     		adds	r4, r3, #6
 936 0006 0023     		movs	r3, #0
 385:Code\Device\W25Q80/user_data.c **** 	uint16_t user_id = 0;
 937              		.loc 1 385 0
 938 0008 0100     		movs	r1, r0
 387:Code\Device\W25Q80/user_data.c **** 	
 388:Code\Device\W25Q80/user_data.c **** 	user_get_user_id(&user_id, card_uid);
 939              		.loc 1 388 0
 940 000a 2000     		movs	r0, r4
 941              	.LVL86:
 386:Code\Device\W25Q80/user_data.c **** 	
 942              		.loc 1 386 0
 943 000c 2380     		strh	r3, [r4]
 944              		.loc 1 388 0
 945 000e FFF7FEFF 		bl	user_get_user_id
 946              	.LVL87:
 389:Code\Device\W25Q80/user_data.c **** 	if (user_id >= MAX_USR_NUM)
ARM GAS  C:\Users\Administrator\AppData\Local\Temp\ccPIvPLo.s 			page 25


 947              		.loc 1 389 0
 948 0012 F422     		movs	r2, #244
 949 0014 2388     		ldrh	r3, [r4]
 950 0016 FF32     		adds	r2, r2, #255
 390:Code\Device\W25Q80/user_data.c **** 	{
 391:Code\Device\W25Q80/user_data.c **** 		return 0x10;
 951              		.loc 1 391 0
 952 0018 1020     		movs	r0, #16
 389:Code\Device\W25Q80/user_data.c **** 	if (user_id >= MAX_USR_NUM)
 953              		.loc 1 389 0
 954 001a 9342     		cmp	r3, r2
 955 001c 06D8     		bhi	.L41
 392:Code\Device\W25Q80/user_data.c **** 	}
 393:Code\Device\W25Q80/user_data.c **** 	else
 394:Code\Device\W25Q80/user_data.c **** 	{
 395:Code\Device\W25Q80/user_data.c **** 		if (TRUE == del_user(user_id))
 956              		.loc 1 395 0
 957 001e 1800     		movs	r0, r3
 958 0020 FFF7FEFF 		bl	del_user
 959              	.LVL88:
 391:Code\Device\W25Q80/user_data.c **** 	}
 960              		.loc 1 391 0
 961 0024 0138     		subs	r0, r0, #1
 962 0026 4342     		rsbs	r3, r0, #0
 963 0028 5841     		adcs	r0, r0, r3
 964 002a C0B2     		uxtb	r0, r0
 965              	.L41:
 396:Code\Device\W25Q80/user_data.c **** 		{
 397:Code\Device\W25Q80/user_data.c **** 			return TRUE;
 398:Code\Device\W25Q80/user_data.c **** 		}
 399:Code\Device\W25Q80/user_data.c **** 		else
 400:Code\Device\W25Q80/user_data.c **** 		{
 401:Code\Device\W25Q80/user_data.c **** 			return FALSE;
 402:Code\Device\W25Q80/user_data.c **** 		}
 403:Code\Device\W25Q80/user_data.c **** 	}
 404:Code\Device\W25Q80/user_data.c **** }
 966              		.loc 1 404 0
 967              		@ sp needed
 968 002c 16BD     		pop	{r1, r2, r4, pc}
 969              		.cfi_endproc
 970              	.LFE80:
 971              		.size	UserData_DEL_User, .-UserData_DEL_User
 972              		.section	.text.UserData_CLR_User,"ax",%progbits
 973              		.align	1
 974              		.global	UserData_CLR_User
 975              		.code	16
 976              		.thumb_func
 977              		.type	UserData_CLR_User, %function
 978              	UserData_CLR_User:
 979              	.LFB81:
 405:Code\Device\W25Q80/user_data.c **** 
 406:Code\Device\W25Q80/user_data.c **** //*************************************************************************************************
 407:Code\Device\W25Q80/user_data.c **** // Function name	: UserData_CLR_User
 408:Code\Device\W25Q80/user_data.c **** // Description		: 清空用户
 409:Code\Device\W25Q80/user_data.c **** // Parameter		: none
 410:Code\Device\W25Q80/user_data.c **** // Return			: none
 411:Code\Device\W25Q80/user_data.c **** //-------------------------------------------------------------------------------------------------
ARM GAS  C:\Users\Administrator\AppData\Local\Temp\ccPIvPLo.s 			page 26


 412:Code\Device\W25Q80/user_data.c **** // Info				: 
 413:Code\Device\W25Q80/user_data.c **** //*************************************************************************************************
 414:Code\Device\W25Q80/user_data.c **** uint8 UserData_CLR_User(void)
 415:Code\Device\W25Q80/user_data.c **** {
 980              		.loc 1 415 0
 981              		.cfi_startproc
 982              		@ args = 0, pretend = 0, frame = 0
 983              		@ frame_needed = 0, uses_anonymous_args = 0
 984 0000 10B5     		push	{r4, lr}
 985              		.cfi_def_cfa_offset 8
 986              		.cfi_offset 4, -8
 987              		.cfi_offset 14, -4
 416:Code\Device\W25Q80/user_data.c **** 	return (clr_user());
 988              		.loc 1 416 0
 989 0002 FFF7FEFF 		bl	clr_user
 990              	.LVL89:
 417:Code\Device\W25Q80/user_data.c **** }
 991              		.loc 1 417 0
 992              		@ sp needed
 993 0006 10BD     		pop	{r4, pc}
 994              		.cfi_endproc
 995              	.LFE81:
 996              		.size	UserData_CLR_User, .-UserData_CLR_User
 997              		.section	.text.UserData_Judge_If_Open,"ax",%progbits
 998              		.align	1
 999              		.global	UserData_Judge_If_Open
 1000              		.code	16
 1001              		.thumb_func
 1002              		.type	UserData_Judge_If_Open, %function
 1003              	UserData_Judge_If_Open:
 1004              	.LFB82:
 418:Code\Device\W25Q80/user_data.c **** 
 419:Code\Device\W25Q80/user_data.c **** 
 420:Code\Device\W25Q80/user_data.c **** //*************************************************************************************************
 421:Code\Device\W25Q80/user_data.c **** // Function name	: UserData_Judge_If_Open
 422:Code\Device\W25Q80/user_data.c **** // Description		: 根据用户信息来判断是否能开门
 423:Code\Device\W25Q80/user_data.c **** // Parameter		: info	: 用户信息
 424:Code\Device\W25Q80/user_data.c **** // Return			: none
 425:Code\Device\W25Q80/user_data.c **** //-------------------------------------------------------------------------------------------------
 426:Code\Device\W25Q80/user_data.c **** // Info				: 用户信息包括UID和开门时间
 427:Code\Device\W25Q80/user_data.c **** //*************************************************************************************************
 428:Code\Device\W25Q80/user_data.c **** uint8 UserData_Judge_If_Open(user_info_t *info)
 429:Code\Device\W25Q80/user_data.c **** {
 1005              		.loc 1 429 0
 1006              		.cfi_startproc
 1007              		@ args = 0, pretend = 0, frame = 8
 1008              		@ frame_needed = 0, uses_anonymous_args = 0
 1009              	.LVL90:
 1010 0000 37B5     		push	{r0, r1, r2, r4, r5, lr}
 1011              		.cfi_def_cfa_offset 24
 1012              		.cfi_offset 0, -24
 1013              		.cfi_offset 1, -20
 1014              		.cfi_offset 2, -16
 1015              		.cfi_offset 4, -12
 1016              		.cfi_offset 5, -8
 1017              		.cfi_offset 14, -4
 430:Code\Device\W25Q80/user_data.c **** 	uint16_t user_id = 0;
ARM GAS  C:\Users\Administrator\AppData\Local\Temp\ccPIvPLo.s 			page 27


 1018              		.loc 1 430 0
 1019 0002 6B46     		mov	r3, sp
 1020 0004 9D1C     		adds	r5, r3, #2
 1021 0006 0023     		movs	r3, #0
 431:Code\Device\W25Q80/user_data.c **** 	uint8_t val_time[4] = {0};
 432:Code\Device\W25Q80/user_data.c **** 	
 433:Code\Device\W25Q80/user_data.c **** 	user_get_user_id(&user_id, info->card_uid);
 1022              		.loc 1 433 0
 1023 0008 0100     		movs	r1, r0
 429:Code\Device\W25Q80/user_data.c **** 	uint16_t user_id = 0;
 1024              		.loc 1 429 0
 1025 000a 0400     		movs	r4, r0
 1026              		.loc 1 433 0
 1027 000c 2800     		movs	r0, r5
 1028              	.LVL91:
 430:Code\Device\W25Q80/user_data.c **** 	uint16_t user_id = 0;
 1029              		.loc 1 430 0
 1030 000e 2B80     		strh	r3, [r5]
 431:Code\Device\W25Q80/user_data.c **** 	uint8_t val_time[4] = {0};
 1031              		.loc 1 431 0
 1032 0010 0193     		str	r3, [sp, #4]
 1033              		.loc 1 433 0
 1034 0012 FFF7FEFF 		bl	user_get_user_id
 1035              	.LVL92:
 434:Code\Device\W25Q80/user_data.c **** 	if (user_id < MAX_USR_NUM)
 1036              		.loc 1 434 0
 1037 0016 F423     		movs	r3, #244
 1038 0018 2888     		ldrh	r0, [r5]
 1039 001a FF33     		adds	r3, r3, #255
 435:Code\Device\W25Q80/user_data.c **** 	{
 436:Code\Device\W25Q80/user_data.c **** 		user_get_valid_time(user_id, val_time);
 437:Code\Device\W25Q80/user_data.c **** 		if((BYTE2LONG(val_time[0], val_time[1], val_time[2], val_time[3])) > 
 438:Code\Device\W25Q80/user_data.c **** 		   (BYTE2LONG(info->valid_time[0], info->valid_time[1], info->valid_time[2], info->valid_time[3])
 439:Code\Device\W25Q80/user_data.c **** 		{
 440:Code\Device\W25Q80/user_data.c **** 			DBG_SOFT_PutStr("\nUID OK!");	
 441:Code\Device\W25Q80/user_data.c **** 			return TRUE;
 442:Code\Device\W25Q80/user_data.c **** 		}
 443:Code\Device\W25Q80/user_data.c **** 		else
 444:Code\Device\W25Q80/user_data.c **** 		{
 445:Code\Device\W25Q80/user_data.c **** 			DBG_SOFT_PutStr("\nOut of date!");	
 446:Code\Device\W25Q80/user_data.c **** 			return 0x08;								// 超出有效期
 447:Code\Device\W25Q80/user_data.c **** 		}
 448:Code\Device\W25Q80/user_data.c **** 	}
 449:Code\Device\W25Q80/user_data.c **** 	else
 450:Code\Device\W25Q80/user_data.c **** 	{
 451:Code\Device\W25Q80/user_data.c **** 		DBG_SOFT_PutStr("\nNo UID!");	
 452:Code\Device\W25Q80/user_data.c **** 		return 0x06;									// 不存在
 1040              		.loc 1 452 0
 1041 001c 0622     		movs	r2, #6
 434:Code\Device\W25Q80/user_data.c **** 	if (user_id < MAX_USR_NUM)
 1042              		.loc 1 434 0
 1043 001e 9842     		cmp	r0, r3
 1044 0020 12D8     		bhi	.L45
 436:Code\Device\W25Q80/user_data.c **** 		if((BYTE2LONG(val_time[0], val_time[1], val_time[2], val_time[3])) > 
 1045              		.loc 1 436 0
 1046 0022 01A9     		add	r1, sp, #4
 1047 0024 FFF7FEFF 		bl	user_get_valid_time
ARM GAS  C:\Users\Administrator\AppData\Local\Temp\ccPIvPLo.s 			page 28


 1048              	.LVL93:
 1049 0028 019B     		ldr	r3, [sp, #4]
 1050 002a 19BA     		rev	r1, r3
 437:Code\Device\W25Q80/user_data.c **** 		   (BYTE2LONG(info->valid_time[0], info->valid_time[1], info->valid_time[2], info->valid_time[3])
 1051              		.loc 1 437 0
 1052 002c 237A     		ldrb	r3, [r4, #8]
 1053 002e 1A06     		lsls	r2, r3, #24
 1054 0030 637A     		ldrb	r3, [r4, #9]
 1055 0032 1B04     		lsls	r3, r3, #16
 1056 0034 1343     		orrs	r3, r2
 1057 0036 E27A     		ldrb	r2, [r4, #11]
 1058 0038 1343     		orrs	r3, r2
 1059 003a A27A     		ldrb	r2, [r4, #10]
 1060 003c 1202     		lsls	r2, r2, #8
 1061 003e 1343     		orrs	r3, r2
 446:Code\Device\W25Q80/user_data.c **** 		}
 1062              		.loc 1 446 0
 1063 0040 0822     		movs	r2, #8
 437:Code\Device\W25Q80/user_data.c **** 		   (BYTE2LONG(info->valid_time[0], info->valid_time[1], info->valid_time[2], info->valid_time[3])
 1064              		.loc 1 437 0
 1065 0042 9942     		cmp	r1, r3
 1066 0044 00D9     		bls	.L45
 441:Code\Device\W25Q80/user_data.c **** 		}
 1067              		.loc 1 441 0
 1068 0046 073A     		subs	r2, r2, #7
 1069              	.L45:
 453:Code\Device\W25Q80/user_data.c **** 	}
 454:Code\Device\W25Q80/user_data.c **** }
 1070              		.loc 1 454 0
 1071 0048 1000     		movs	r0, r2
 1072              		@ sp needed
 1073              	.LVL94:
 1074 004a 3EBD     		pop	{r1, r2, r3, r4, r5, pc}
 1075              		.cfi_endproc
 1076              	.LFE82:
 1077              		.size	UserData_Judge_If_Open, .-UserData_Judge_If_Open
 1078              		.global	__aeabi_uidivmod
 1079              		.section	.text.Write_Open_UploadFlag,"ax",%progbits
 1080              		.align	1
 1081              		.global	Write_Open_UploadFlag
 1082              		.code	16
 1083              		.thumb_func
 1084              		.type	Write_Open_UploadFlag, %function
 1085              	Write_Open_UploadFlag:
 1086              	.LFB83:
 455:Code\Device\W25Q80/user_data.c **** 
 456:Code\Device\W25Q80/user_data.c **** 
 457:Code\Device\W25Q80/user_data.c **** 
 458:Code\Device\W25Q80/user_data.c **** //=================================== 开门记录信息存储 ====================================
 459:Code\Device\W25Q80/user_data.c **** 
 460:Code\Device\W25Q80/user_data.c **** //*************************************************************************************************
 461:Code\Device\W25Q80/user_data.c **** // Function name	: Write_Open_UploadFlag
 462:Code\Device\W25Q80/user_data.c **** // Description		: 写开门记录信息上报成功与否标志
 463:Code\Device\W25Q80/user_data.c **** // Parameter		: open_num	: 开门编号
 464:Code\Device\W25Q80/user_data.c **** //					: SendFlag	: 发送标志位
 465:Code\Device\W25Q80/user_data.c **** // Return			: none
 466:Code\Device\W25Q80/user_data.c **** //-------------------------------------------------------------------------------------------------
ARM GAS  C:\Users\Administrator\AppData\Local\Temp\ccPIvPLo.s 			page 29


 467:Code\Device\W25Q80/user_data.c **** // Info				: 
 468:Code\Device\W25Q80/user_data.c **** //*************************************************************************************************
 469:Code\Device\W25Q80/user_data.c **** void Write_Open_UploadFlag(uint16 open_num, uint8 UploadFlag)
 470:Code\Device\W25Q80/user_data.c **** {
 1087              		.loc 1 470 0
 1088              		.cfi_startproc
 1089              		@ args = 0, pretend = 0, frame = 8
 1090              		@ frame_needed = 0, uses_anonymous_args = 0
 1091              	.LVL95:
 1092 0000 73B5     		push	{r0, r1, r4, r5, r6, lr}
 1093              		.cfi_def_cfa_offset 24
 1094              		.cfi_offset 0, -24
 1095              		.cfi_offset 1, -20
 1096              		.cfi_offset 4, -16
 1097              		.cfi_offset 5, -12
 1098              		.cfi_offset 6, -8
 1099              		.cfi_offset 14, -4
 1100              		.loc 1 470 0
 1101 0002 0E00     		movs	r6, r1
 471:Code\Device\W25Q80/user_data.c **** 	uint8 flag;
 472:Code\Device\W25Q80/user_data.c **** 	uint16 tmp;
 473:Code\Device\W25Q80/user_data.c **** 	
 474:Code\Device\W25Q80/user_data.c **** 	tmp = open_num % MAX_OPEN_NUM;
 475:Code\Device\W25Q80/user_data.c **** 	W25QXX_Read((uint8 *)&flag, OPEN_FLAG_BASE + tmp, 1);
 1102              		.loc 1 475 0
 1103 0004 0E49     		ldr	r1, .L52
 1104              	.LVL96:
 1105 0006 FFF7FEFF 		bl	__aeabi_uidivmod
 1106              	.LVL97:
 1107 000a D023     		movs	r3, #208
 1108 000c 8CB2     		uxth	r4, r1
 1109 000e 5B01     		lsls	r3, r3, #5
 1110 0010 E418     		adds	r4, r4, r3
 1111 0012 6B46     		mov	r3, sp
 1112 0014 DD1D     		adds	r5, r3, #7
 1113 0016 0122     		movs	r2, #1
 1114 0018 2100     		movs	r1, r4
 1115 001a 2800     		movs	r0, r5
 1116 001c FFF7FEFF 		bl	W25QXX_Read
 1117              	.LVL98:
 1118 0020 2B78     		ldrb	r3, [r5]
 476:Code\Device\W25Q80/user_data.c **** 	if (UploadFlag == TRUE)
 1119              		.loc 1 476 0
 1120 0022 012E     		cmp	r6, #1
 1121 0024 03D1     		bne	.L49
 477:Code\Device\W25Q80/user_data.c **** 	{
 478:Code\Device\W25Q80/user_data.c **** 		flag |= 0x80;
 1122              		.loc 1 478 0
 1123 0026 8022     		movs	r2, #128
 1124 0028 5242     		rsbs	r2, r2, #0
 1125 002a 1343     		orrs	r3, r2
 1126 002c 01E0     		b	.L51
 1127              	.L49:
 479:Code\Device\W25Q80/user_data.c **** 	}
 480:Code\Device\W25Q80/user_data.c **** 	else
 481:Code\Device\W25Q80/user_data.c **** 	{
 482:Code\Device\W25Q80/user_data.c **** 		flag &= 0x7F;
ARM GAS  C:\Users\Administrator\AppData\Local\Temp\ccPIvPLo.s 			page 30


 1128              		.loc 1 482 0
 1129 002e 7F22     		movs	r2, #127
 1130 0030 1340     		ands	r3, r2
 1131              	.L51:
 483:Code\Device\W25Q80/user_data.c **** 	}
 484:Code\Device\W25Q80/user_data.c **** 	W25QXX_Write((uint8 *)&flag, OPEN_FLAG_BASE + tmp, 1);
 1132              		.loc 1 484 0
 1133 0032 2800     		movs	r0, r5
 1134 0034 0122     		movs	r2, #1
 1135 0036 2100     		movs	r1, r4
 482:Code\Device\W25Q80/user_data.c **** 	}
 1136              		.loc 1 482 0
 1137 0038 2B70     		strb	r3, [r5]
 485:Code\Device\W25Q80/user_data.c **** }
 1138              		.loc 1 485 0
 1139              		@ sp needed
 484:Code\Device\W25Q80/user_data.c **** }
 1140              		.loc 1 484 0
 1141 003a FFF7FEFF 		bl	W25QXX_Write
 1142              	.LVL99:
 1143              		.loc 1 485 0
 1144 003e 73BD     		pop	{r0, r1, r4, r5, r6, pc}
 1145              	.L53:
 1146              		.align	2
 1147              	.L52:
 1148 0040 88130000 		.word	5000
 1149              		.cfi_endproc
 1150              	.LFE83:
 1151              		.size	Write_Open_UploadFlag, .-Write_Open_UploadFlag
 1152              		.section	.text.Read_Open_UploadFlag,"ax",%progbits
 1153              		.align	1
 1154              		.global	Read_Open_UploadFlag
 1155              		.code	16
 1156              		.thumb_func
 1157              		.type	Read_Open_UploadFlag, %function
 1158              	Read_Open_UploadFlag:
 1159              	.LFB84:
 486:Code\Device\W25Q80/user_data.c **** 
 487:Code\Device\W25Q80/user_data.c **** //*************************************************************************************************
 488:Code\Device\W25Q80/user_data.c **** // Function name	: Read_Open_UploadFlag
 489:Code\Device\W25Q80/user_data.c **** // Description		: 读开门记录信息上报成功与否标志
 490:Code\Device\W25Q80/user_data.c **** // Parameter		: open_num	: 开门编号
 491:Code\Device\W25Q80/user_data.c **** // Return			: 上报结果
 492:Code\Device\W25Q80/user_data.c **** //-------------------------------------------------------------------------------------------------
 493:Code\Device\W25Q80/user_data.c **** // Info				: 
 494:Code\Device\W25Q80/user_data.c **** //*************************************************************************************************
 495:Code\Device\W25Q80/user_data.c **** uint8 Read_Open_UploadFlag(uint16 open_num)
 496:Code\Device\W25Q80/user_data.c **** {
 1160              		.loc 1 496 0
 1161              		.cfi_startproc
 1162              		@ args = 0, pretend = 0, frame = 8
 1163              		@ frame_needed = 0, uses_anonymous_args = 0
 1164              	.LVL100:
 1165 0000 13B5     		push	{r0, r1, r4, lr}
 1166              		.cfi_def_cfa_offset 16
 1167              		.cfi_offset 0, -16
 1168              		.cfi_offset 1, -12
ARM GAS  C:\Users\Administrator\AppData\Local\Temp\ccPIvPLo.s 			page 31


 1169              		.cfi_offset 4, -8
 1170              		.cfi_offset 14, -4
 497:Code\Device\W25Q80/user_data.c **** 	uint8 flag;
 498:Code\Device\W25Q80/user_data.c **** 	uint16 tmp;
 499:Code\Device\W25Q80/user_data.c **** 	
 500:Code\Device\W25Q80/user_data.c **** 	tmp = open_num % MAX_OPEN_NUM;
 501:Code\Device\W25Q80/user_data.c **** 	W25QXX_Read((uint8 *)&flag, OPEN_FLAG_BASE + tmp, 1);
 1171              		.loc 1 501 0
 1172 0002 0849     		ldr	r1, .L55
 1173 0004 FFF7FEFF 		bl	__aeabi_uidivmod
 1174              	.LVL101:
 1175 0008 D023     		movs	r3, #208
 1176 000a 89B2     		uxth	r1, r1
 1177 000c 5B01     		lsls	r3, r3, #5
 1178 000e C918     		adds	r1, r1, r3
 1179 0010 6B46     		mov	r3, sp
 1180 0012 DC1D     		adds	r4, r3, #7
 1181 0014 2000     		movs	r0, r4
 1182 0016 0122     		movs	r2, #1
 1183 0018 FFF7FEFF 		bl	W25QXX_Read
 1184              	.LVL102:
 502:Code\Device\W25Q80/user_data.c **** 	if (flag & 0x80)
 503:Code\Device\W25Q80/user_data.c **** 	{
 504:Code\Device\W25Q80/user_data.c **** 		return TRUE;
 1185              		.loc 1 504 0
 1186 001c 2078     		ldrb	r0, [r4]
 505:Code\Device\W25Q80/user_data.c **** 	}
 506:Code\Device\W25Q80/user_data.c **** 	else
 507:Code\Device\W25Q80/user_data.c **** 	{
 508:Code\Device\W25Q80/user_data.c **** 		return FALSE;
 509:Code\Device\W25Q80/user_data.c **** 	}
 510:Code\Device\W25Q80/user_data.c **** }
 1187              		.loc 1 510 0
 1188              		@ sp needed
 504:Code\Device\W25Q80/user_data.c **** 	}
 1189              		.loc 1 504 0
 1190 001e C009     		lsrs	r0, r0, #7
 1191              		.loc 1 510 0
 1192 0020 16BD     		pop	{r1, r2, r4, pc}
 1193              	.L56:
 1194 0022 C046     		.align	2
 1195              	.L55:
 1196 0024 88130000 		.word	5000
 1197              		.cfi_endproc
 1198              	.LFE84:
 1199              		.size	Read_Open_UploadFlag, .-Read_Open_UploadFlag
 1200              		.section	.text.Write_Open_Type,"ax",%progbits
 1201              		.align	1
 1202              		.global	Write_Open_Type
 1203              		.code	16
 1204              		.thumb_func
 1205              		.type	Write_Open_Type, %function
 1206              	Write_Open_Type:
 1207              	.LFB85:
 511:Code\Device\W25Q80/user_data.c **** 
 512:Code\Device\W25Q80/user_data.c **** //*************************************************************************************************
 513:Code\Device\W25Q80/user_data.c **** // Function name	: Write_Open_Type
ARM GAS  C:\Users\Administrator\AppData\Local\Temp\ccPIvPLo.s 			page 32


 514:Code\Device\W25Q80/user_data.c **** // Description		: 写开门记录的开门类型
 515:Code\Device\W25Q80/user_data.c **** // Parameter		: open_num	: 开门编号
 516:Code\Device\W25Q80/user_data.c **** //					: type		: 开门类型
 517:Code\Device\W25Q80/user_data.c **** // Return			: none
 518:Code\Device\W25Q80/user_data.c **** //-------------------------------------------------------------------------------------------------
 519:Code\Device\W25Q80/user_data.c **** // Info				: 
 520:Code\Device\W25Q80/user_data.c **** //*************************************************************************************************
 521:Code\Device\W25Q80/user_data.c **** void Write_Open_Type(uint16 open_num, uint8 type)
 522:Code\Device\W25Q80/user_data.c **** {
 1208              		.loc 1 522 0
 1209              		.cfi_startproc
 1210              		@ args = 0, pretend = 0, frame = 8
 1211              		@ frame_needed = 0, uses_anonymous_args = 0
 1212              	.LVL103:
 1213 0000 13B5     		push	{r0, r1, r4, lr}
 1214              		.cfi_def_cfa_offset 16
 1215              		.cfi_offset 0, -16
 1216              		.cfi_offset 1, -12
 1217              		.cfi_offset 4, -8
 1218              		.cfi_offset 14, -4
 523:Code\Device\W25Q80/user_data.c **** 	uint8 flag;
 524:Code\Device\W25Q80/user_data.c **** 	uint16 tmp;
 525:Code\Device\W25Q80/user_data.c **** 	
 526:Code\Device\W25Q80/user_data.c **** 	tmp = open_num % MAX_OPEN_NUM;
 527:Code\Device\W25Q80/user_data.c **** 	//W25QXX_Read((uint8 *)&flag, OPEN_FLAG_BASE + tmp, 1);
 528:Code\Device\W25Q80/user_data.c **** 	//flag = ((flag & 0x80) | (type & 0x7F));
 529:Code\Device\W25Q80/user_data.c **** 	flag = type;												// @12.06 modify
 1219              		.loc 1 529 0
 1220 0002 6B46     		mov	r3, sp
 1221 0004 D971     		strb	r1, [r3, #7]
 530:Code\Device\W25Q80/user_data.c **** 	W25QXX_Write((uint8 *)&flag, OPEN_FLAG_BASE + tmp, 1);
 1222              		.loc 1 530 0
 1223 0006 0649     		ldr	r1, .L58
 1224              	.LVL104:
 529:Code\Device\W25Q80/user_data.c **** 	W25QXX_Write((uint8 *)&flag, OPEN_FLAG_BASE + tmp, 1);
 1225              		.loc 1 529 0
 1226 0008 DC1D     		adds	r4, r3, #7
 1227              	.LVL105:
 1228              		.loc 1 530 0
 1229 000a FFF7FEFF 		bl	__aeabi_uidivmod
 1230              	.LVL106:
 1231 000e D023     		movs	r3, #208
 1232 0010 89B2     		uxth	r1, r1
 1233 0012 5B01     		lsls	r3, r3, #5
 1234 0014 C918     		adds	r1, r1, r3
 1235 0016 0122     		movs	r2, #1
 1236 0018 2000     		movs	r0, r4
 1237 001a FFF7FEFF 		bl	W25QXX_Write
 1238              	.LVL107:
 531:Code\Device\W25Q80/user_data.c **** }
 1239              		.loc 1 531 0
 1240              		@ sp needed
 1241 001e 13BD     		pop	{r0, r1, r4, pc}
 1242              	.L59:
 1243              		.align	2
 1244              	.L58:
 1245 0020 88130000 		.word	5000
ARM GAS  C:\Users\Administrator\AppData\Local\Temp\ccPIvPLo.s 			page 33


 1246              		.cfi_endproc
 1247              	.LFE85:
 1248              		.size	Write_Open_Type, .-Write_Open_Type
 1249              		.section	.text.Read_Open_Type,"ax",%progbits
 1250              		.align	1
 1251              		.global	Read_Open_Type
 1252              		.code	16
 1253              		.thumb_func
 1254              		.type	Read_Open_Type, %function
 1255              	Read_Open_Type:
 1256              	.LFB86:
 532:Code\Device\W25Q80/user_data.c **** 
 533:Code\Device\W25Q80/user_data.c **** //*************************************************************************************************
 534:Code\Device\W25Q80/user_data.c **** // Function name	: Read_Open_Type
 535:Code\Device\W25Q80/user_data.c **** // Description		: 读开门记录的开门类型
 536:Code\Device\W25Q80/user_data.c **** // Parameter		: open_num	: 开门编号
 537:Code\Device\W25Q80/user_data.c **** // Return			: 开门类型
 538:Code\Device\W25Q80/user_data.c **** //-------------------------------------------------------------------------------------------------
 539:Code\Device\W25Q80/user_data.c **** // Info				: ？？
 540:Code\Device\W25Q80/user_data.c **** //*************************************************************************************************
 541:Code\Device\W25Q80/user_data.c **** uint8 Read_Open_Type(uint16 open_num)
 542:Code\Device\W25Q80/user_data.c **** {
 1257              		.loc 1 542 0
 1258              		.cfi_startproc
 1259              		@ args = 0, pretend = 0, frame = 8
 1260              		@ frame_needed = 0, uses_anonymous_args = 0
 1261              	.LVL108:
 1262 0000 13B5     		push	{r0, r1, r4, lr}
 1263              		.cfi_def_cfa_offset 16
 1264              		.cfi_offset 0, -16
 1265              		.cfi_offset 1, -12
 1266              		.cfi_offset 4, -8
 1267              		.cfi_offset 14, -4
 543:Code\Device\W25Q80/user_data.c **** 	uint8 flag;
 544:Code\Device\W25Q80/user_data.c **** 	uint16 tmp;
 545:Code\Device\W25Q80/user_data.c **** 	
 546:Code\Device\W25Q80/user_data.c **** 	tmp = open_num % MAX_OPEN_NUM;
 547:Code\Device\W25Q80/user_data.c **** 	W25QXX_Read((uint8 *)&flag, OPEN_FLAG_BASE + tmp, 1);
 1268              		.loc 1 547 0
 1269 0002 0849     		ldr	r1, .L61
 1270 0004 FFF7FEFF 		bl	__aeabi_uidivmod
 1271              	.LVL109:
 1272 0008 D023     		movs	r3, #208
 1273 000a 89B2     		uxth	r1, r1
 1274 000c 5B01     		lsls	r3, r3, #5
 1275 000e C918     		adds	r1, r1, r3
 1276 0010 6B46     		mov	r3, sp
 1277 0012 DC1D     		adds	r4, r3, #7
 1278 0014 2000     		movs	r0, r4
 1279 0016 0122     		movs	r2, #1
 1280 0018 FFF7FEFF 		bl	W25QXX_Read
 1281              	.LVL110:
 548:Code\Device\W25Q80/user_data.c **** 	return (flag & 0x7F);
 1282              		.loc 1 548 0
 1283 001c 7F23     		movs	r3, #127
 1284 001e 2078     		ldrb	r0, [r4]
 549:Code\Device\W25Q80/user_data.c **** }
ARM GAS  C:\Users\Administrator\AppData\Local\Temp\ccPIvPLo.s 			page 34


 1285              		.loc 1 549 0
 1286              		@ sp needed
 548:Code\Device\W25Q80/user_data.c **** 	return (flag & 0x7F);
 1287              		.loc 1 548 0
 1288 0020 1840     		ands	r0, r3
 1289              		.loc 1 549 0
 1290 0022 16BD     		pop	{r1, r2, r4, pc}
 1291              	.L62:
 1292              		.align	2
 1293              	.L61:
 1294 0024 88130000 		.word	5000
 1295              		.cfi_endproc
 1296              	.LFE86:
 1297              		.size	Read_Open_Type, .-Read_Open_Type
 1298              		.section	.text.Write_Open_Qty,"ax",%progbits
 1299              		.align	1
 1300              		.global	Write_Open_Qty
 1301              		.code	16
 1302              		.thumb_func
 1303              		.type	Write_Open_Qty, %function
 1304              	Write_Open_Qty:
 1305              	.LFB87:
 550:Code\Device\W25Q80/user_data.c **** 
 551:Code\Device\W25Q80/user_data.c **** //*************************************************************************************************
 552:Code\Device\W25Q80/user_data.c **** // Function name	: Write_Open_Qty
 553:Code\Device\W25Q80/user_data.c **** // Description		: 写开门记录总数量
 554:Code\Device\W25Q80/user_data.c **** // Parameter		: openQty
 555:Code\Device\W25Q80/user_data.c **** // Return			: none
 556:Code\Device\W25Q80/user_data.c **** //-------------------------------------------------------------------------------------------------
 557:Code\Device\W25Q80/user_data.c **** // Info				: 
 558:Code\Device\W25Q80/user_data.c **** //*************************************************************************************************
 559:Code\Device\W25Q80/user_data.c **** void Write_Open_Qty(uint16 openQty)
 560:Code\Device\W25Q80/user_data.c **** {
 1306              		.loc 1 560 0
 1307              		.cfi_startproc
 1308              		@ args = 0, pretend = 0, frame = 8
 1309              		@ frame_needed = 0, uses_anonymous_args = 0
 1310              	.LVL111:
 1311 0000 07B5     		push	{r0, r1, r2, lr}
 1312              		.cfi_def_cfa_offset 16
 1313              		.cfi_offset 0, -16
 1314              		.cfi_offset 1, -12
 1315              		.cfi_offset 2, -8
 1316              		.cfi_offset 14, -4
 561:Code\Device\W25Q80/user_data.c ****     uint8 qty[2];
 562:Code\Device\W25Q80/user_data.c **** 	
 563:Code\Device\W25Q80/user_data.c ****     qty[0] = (openQty >> 8) & 0xff;
 564:Code\Device\W25Q80/user_data.c ****     qty[1] = openQty & 0xff;
 565:Code\Device\W25Q80/user_data.c **** 	W25QXX_Write(qty, OPEN_QTY_BASE, (uint16)sizeof(qty));
 1317              		.loc 1 565 0
 1318 0002 C821     		movs	r1, #200
 563:Code\Device\W25Q80/user_data.c ****     qty[1] = openQty & 0xff;
 1319              		.loc 1 563 0
 1320 0004 01AB     		add	r3, sp, #4
 1321 0006 020A     		lsrs	r2, r0, #8
 1322 0008 1A70     		strb	r2, [r3]
 564:Code\Device\W25Q80/user_data.c **** 	W25QXX_Write(qty, OPEN_QTY_BASE, (uint16)sizeof(qty));
ARM GAS  C:\Users\Administrator\AppData\Local\Temp\ccPIvPLo.s 			page 35


 1323              		.loc 1 564 0
 1324 000a 5870     		strb	r0, [r3, #1]
 1325              		.loc 1 565 0
 1326 000c 0222     		movs	r2, #2
 1327 000e 4902     		lsls	r1, r1, #9
 1328 0010 1800     		movs	r0, r3
 1329              	.LVL112:
 1330 0012 FFF7FEFF 		bl	W25QXX_Write
 1331              	.LVL113:
 566:Code\Device\W25Q80/user_data.c **** }
 1332              		.loc 1 566 0
 1333              		@ sp needed
 1334 0016 07BD     		pop	{r0, r1, r2, pc}
 1335              		.cfi_endproc
 1336              	.LFE87:
 1337              		.size	Write_Open_Qty, .-Write_Open_Qty
 1338              		.section	.text.Read_Open_Qty,"ax",%progbits
 1339              		.align	1
 1340              		.global	Read_Open_Qty
 1341              		.code	16
 1342              		.thumb_func
 1343              		.type	Read_Open_Qty, %function
 1344              	Read_Open_Qty:
 1345              	.LFB88:
 567:Code\Device\W25Q80/user_data.c **** 
 568:Code\Device\W25Q80/user_data.c **** //*************************************************************************************************
 569:Code\Device\W25Q80/user_data.c **** // Function name	: Read_Open_Qty
 570:Code\Device\W25Q80/user_data.c **** // Description		: 读开门记录总数量
 571:Code\Device\W25Q80/user_data.c **** // Parameter		: openQty
 572:Code\Device\W25Q80/user_data.c **** // Return			: openQty
 573:Code\Device\W25Q80/user_data.c **** //-------------------------------------------------------------------------------------------------
 574:Code\Device\W25Q80/user_data.c **** // Info				: 
 575:Code\Device\W25Q80/user_data.c **** //*************************************************************************************************
 576:Code\Device\W25Q80/user_data.c **** uint16 Read_Open_Qty(void)
 577:Code\Device\W25Q80/user_data.c **** {
 1346              		.loc 1 577 0
 1347              		.cfi_startproc
 1348              		@ args = 0, pretend = 0, frame = 8
 1349              		@ frame_needed = 0, uses_anonymous_args = 0
 1350 0000 13B5     		push	{r0, r1, r4, lr}
 1351              		.cfi_def_cfa_offset 16
 1352              		.cfi_offset 0, -16
 1353              		.cfi_offset 1, -12
 1354              		.cfi_offset 4, -8
 1355              		.cfi_offset 14, -4
 578:Code\Device\W25Q80/user_data.c **** 	uint8 qty[2];
 579:Code\Device\W25Q80/user_data.c **** 	
 580:Code\Device\W25Q80/user_data.c **** 	W25QXX_Read(qty, OPEN_QTY_BASE, (uint16)sizeof(qty));
 1356              		.loc 1 580 0
 1357 0002 C821     		movs	r1, #200
 1358 0004 01AC     		add	r4, sp, #4
 1359 0006 2000     		movs	r0, r4
 1360 0008 0222     		movs	r2, #2
 1361 000a 4902     		lsls	r1, r1, #9
 1362 000c FFF7FEFF 		bl	W25QXX_Read
 1363              	.LVL114:
 581:Code\Device\W25Q80/user_data.c **** 	return ((uint16)((qty[0] << 8) | qty[1]));
ARM GAS  C:\Users\Administrator\AppData\Local\Temp\ccPIvPLo.s 			page 36


 1364              		.loc 1 581 0
 1365 0010 2078     		ldrb	r0, [r4]
 1366 0012 6378     		ldrb	r3, [r4, #1]
 1367 0014 0002     		lsls	r0, r0, #8
 1368 0016 1843     		orrs	r0, r3
 582:Code\Device\W25Q80/user_data.c **** }
 1369              		.loc 1 582 0
 1370              		@ sp needed
 1371 0018 16BD     		pop	{r1, r2, r4, pc}
 1372              		.cfi_endproc
 1373              	.LFE88:
 1374              		.size	Read_Open_Qty, .-Read_Open_Qty
 1375              		.section	.text.Write_OpenInfo,"ax",%progbits
 1376              		.align	1
 1377              		.global	Write_OpenInfo
 1378              		.code	16
 1379              		.thumb_func
 1380              		.type	Write_OpenInfo, %function
 1381              	Write_OpenInfo:
 1382              	.LFB89:
 583:Code\Device\W25Q80/user_data.c **** 
 584:Code\Device\W25Q80/user_data.c **** //*************************************************************************************************
 585:Code\Device\W25Q80/user_data.c **** // Function name	: Write_OpenInfo
 586:Code\Device\W25Q80/user_data.c **** // Description		: 写开门记录信息(自带数量处理)
 587:Code\Device\W25Q80/user_data.c **** // Parameter		: openInfo	: 开门信息
 588:Code\Device\W25Q80/user_data.c **** //					: openType	: 开门类型
 589:Code\Device\W25Q80/user_data.c **** // Return			: none
 590:Code\Device\W25Q80/user_data.c **** //-------------------------------------------------------------------------------------------------
 591:Code\Device\W25Q80/user_data.c **** // Info				: 开门记录也从0开始，0-4999，5000为一周期；
 592:Code\Device\W25Q80/user_data.c **** //*************************************************************************************************
 593:Code\Device\W25Q80/user_data.c **** void Write_OpenInfo(open_door_t *openInfo, uint8_t openType)
 594:Code\Device\W25Q80/user_data.c **** {
 1383              		.loc 1 594 0
 1384              		.cfi_startproc
 1385              		@ args = 0, pretend = 0, frame = 32
 1386              		@ frame_needed = 0, uses_anonymous_args = 0
 1387              	.LVL115:
 1388 0000 F0B5     		push	{r4, r5, r6, r7, lr}
 1389              		.cfi_def_cfa_offset 20
 1390              		.cfi_offset 4, -20
 1391              		.cfi_offset 5, -16
 1392              		.cfi_offset 6, -12
 1393              		.cfi_offset 7, -8
 1394              		.cfi_offset 14, -4
 1395 0002 89B0     		sub	sp, sp, #36
 1396              		.cfi_def_cfa_offset 56
 1397              		.loc 1 594 0
 1398 0004 0F00     		movs	r7, r1
 595:Code\Device\W25Q80/user_data.c **** 	uint16 open_qty, tmp;
 596:Code\Device\W25Q80/user_data.c **** 	
 597:Code\Device\W25Q80/user_data.c **** 	open_qty = Read_Open_Qty();										// 读出的数量即是下一个要写的偏移量		//
 598:Code\Device\W25Q80/user_data.c **** 	tmp = open_qty % MAX_OPEN_NUM;
 599:Code\Device\W25Q80/user_data.c **** 	uint8 openinfo_tmp[17] = {0x01};
 1399              		.loc 1 599 0
 1400 0006 1126     		movs	r6, #17
 594:Code\Device\W25Q80/user_data.c **** 	uint16 open_qty, tmp;
 1401              		.loc 1 594 0
ARM GAS  C:\Users\Administrator\AppData\Local\Temp\ccPIvPLo.s 			page 37


 1402 0008 0190     		str	r0, [sp, #4]
 597:Code\Device\W25Q80/user_data.c **** 	tmp = open_qty % MAX_OPEN_NUM;
 1403              		.loc 1 597 0
 1404 000a FFF7FEFF 		bl	Read_Open_Qty
 1405              	.LVL116:
 1406              		.loc 1 599 0
 1407 000e 03AD     		add	r5, sp, #12
 597:Code\Device\W25Q80/user_data.c **** 	tmp = open_qty % MAX_OPEN_NUM;
 1408              		.loc 1 597 0
 1409 0010 0400     		movs	r4, r0
 1410              	.LVL117:
 1411              		.loc 1 599 0
 1412 0012 3200     		movs	r2, r6
 1413 0014 0021     		movs	r1, #0
 1414 0016 2800     		movs	r0, r5
 1415 0018 FFF7FEFF 		bl	memset
 1416              	.LVL118:
 1417 001c 0123     		movs	r3, #1
 1418 001e 2B70     		strb	r3, [r5]
 600:Code\Device\W25Q80/user_data.c **** 	
 601:Code\Device\W25Q80/user_data.c **** 	
 602:Code\Device\W25Q80/user_data.c **** 	memcpy(openinfo_tmp+1,openInfo,16);
 1419              		.loc 1 602 0
 1420 0020 02AB     		add	r3, sp, #8
 1421 0022 1022     		movs	r2, #16
 1422 0024 581D     		adds	r0, r3, #5
 1423 0026 0199     		ldr	r1, [sp, #4]
 1424 0028 FFF7FEFF 		bl	memcpy
 1425              	.LVL119:
 603:Code\Device\W25Q80/user_data.c **** 		#if 0
 604:Code\Device\W25Q80/user_data.c **** 		// 读出写入前的flash数据测试
 605:Code\Device\W25Q80/user_data.c **** 		//W25QXX_Read((uint8 *)&tmp_t, OPEN_INFO_BASE + sizeof(open_door_t) * tmp, (uint16)sizeof(open_do
 606:Code\Device\W25Q80/user_data.c **** 		DBG_SOFT_PutStr("\nTest before write in open date :\n");
 607:Code\Device\W25Q80/user_data.c **** 		DBG_SOFT_PrintfHex((uint8 *)openinfo_tmp,(uint16)sizeof(open_door_t)+1,16);
 608:Code\Device\W25Q80/user_data.c **** 		#endif	
 609:Code\Device\W25Q80/user_data.c **** 		
 610:Code\Device\W25Q80/user_data.c **** 	W25QXX_Write((uint8 *)openinfo_tmp, OPEN_INFO_BASE + (1+sizeof(open_door_t)) * tmp, (uint16)sizeof
 1426              		.loc 1 610 0
 1427 002c 0D49     		ldr	r1, .L70
 1428 002e 2000     		movs	r0, r4
 1429 0030 FFF7FEFF 		bl	__aeabi_uidivmod
 1430              	.LVL120:
 1431 0034 B823     		movs	r3, #184
 1432 0036 89B2     		uxth	r1, r1
 1433 0038 7143     		muls	r1, r6
 1434 003a 9B01     		lsls	r3, r3, #6
 1435 003c C918     		adds	r1, r1, r3
 1436 003e 3200     		movs	r2, r6
 1437 0040 2800     		movs	r0, r5
 1438 0042 FFF7FEFF 		bl	W25QXX_Write
 1439              	.LVL121:
 611:Code\Device\W25Q80/user_data.c **** 	if(openType)
 1440              		.loc 1 611 0
 1441 0046 002F     		cmp	r7, #0
 1442 0048 07D0     		beq	.L66
 612:Code\Device\W25Q80/user_data.c **** 	{
 613:Code\Device\W25Q80/user_data.c **** 		Write_Open_Type(open_qty, openType);						// 写入开门类型信息						//
ARM GAS  C:\Users\Administrator\AppData\Local\Temp\ccPIvPLo.s 			page 38


 1443              		.loc 1 613 0
 1444 004a 2000     		movs	r0, r4
 1445 004c 3900     		movs	r1, r7
 614:Code\Device\W25Q80/user_data.c **** 	
 615:Code\Device\W25Q80/user_data.c **** 		open_qty++;
 616:Code\Device\W25Q80/user_data.c **** 		Write_Open_Qty(open_qty);									// 更新开门数量							//
 1446              		.loc 1 616 0
 1447 004e 0134     		adds	r4, r4, #1
 1448              	.LVL122:
 613:Code\Device\W25Q80/user_data.c **** 	
 1449              		.loc 1 613 0
 1450 0050 FFF7FEFF 		bl	Write_Open_Type
 1451              	.LVL123:
 1452              		.loc 1 616 0
 1453 0054 A0B2     		uxth	r0, r4
 1454 0056 FFF7FEFF 		bl	Write_Open_Qty
 1455              	.LVL124:
 1456              	.L66:
 617:Code\Device\W25Q80/user_data.c **** 	}
 618:Code\Device\W25Q80/user_data.c **** 		#if 0
 619:Code\Device\W25Q80/user_data.c **** 		// 读出写入的flash数据测试
 620:Code\Device\W25Q80/user_data.c **** 		uint8 temp[17] = {0x00};	
 621:Code\Device\W25Q80/user_data.c **** 		W25QXX_Read((uint8 *)temp, OPEN_INFO_BASE + (1+sizeof(open_door_t)) * tmp, (uint16)sizeof(open_do
 622:Code\Device\W25Q80/user_data.c **** 		DBG_SOFT_PutStr("\nTest after write in open date :\n");
 623:Code\Device\W25Q80/user_data.c **** 		DBG_SOFT_PrintfHex((uint8 *)temp,(uint16)sizeof(open_door_t)+1,16);
 624:Code\Device\W25Q80/user_data.c **** 		#endif	
 625:Code\Device\W25Q80/user_data.c **** 	uploadpolling_stop = 0;											// 清除开门信息轮询上报停止位			// 
 1457              		.loc 1 625 0
 1458 005a 0022     		movs	r2, #0
 1459 005c 024B     		ldr	r3, .L70+4
 1460 005e 1A70     		strb	r2, [r3]
 626:Code\Device\W25Q80/user_data.c **** }
 1461              		.loc 1 626 0
 1462 0060 09B0     		add	sp, sp, #36
 1463              		@ sp needed
 1464 0062 F0BD     		pop	{r4, r5, r6, r7, pc}
 1465              	.L71:
 1466              		.align	2
 1467              	.L70:
 1468 0064 88130000 		.word	5000
 1469 0068 00000000 		.word	uploadpolling_stop
 1470              		.cfi_endproc
 1471              	.LFE89:
 1472              		.size	Write_OpenInfo, .-Write_OpenInfo
 1473              		.section	.text.Read_OpenInfo,"ax",%progbits
 1474              		.align	1
 1475              		.global	Read_OpenInfo
 1476              		.code	16
 1477              		.thumb_func
 1478              		.type	Read_OpenInfo, %function
 1479              	Read_OpenInfo:
 1480              	.LFB90:
 627:Code\Device\W25Q80/user_data.c **** 
 628:Code\Device\W25Q80/user_data.c **** //*************************************************************************************************
 629:Code\Device\W25Q80/user_data.c **** // Function name	: Read_OpenInfo
 630:Code\Device\W25Q80/user_data.c **** // Description		: 读开门记录信息
 631:Code\Device\W25Q80/user_data.c **** // Parameter		: open_num	: 开门记录编号
ARM GAS  C:\Users\Administrator\AppData\Local\Temp\ccPIvPLo.s 			page 39


 632:Code\Device\W25Q80/user_data.c **** //					  openInfo	: 读回来的开门信息
 633:Code\Device\W25Q80/user_data.c **** // Return			: none
 634:Code\Device\W25Q80/user_data.c **** //-------------------------------------------------------------------------------------------------
 635:Code\Device\W25Q80/user_data.c **** // Info				: 开门记录也从0开始，0-4999，5000为一周期；
 636:Code\Device\W25Q80/user_data.c **** //*************************************************************************************************
 637:Code\Device\W25Q80/user_data.c **** void Read_OpenInfo(uint16 open_num, open_door_t *openInfo)
 638:Code\Device\W25Q80/user_data.c **** {
 1481              		.loc 1 638 0
 1482              		.cfi_startproc
 1483              		@ args = 0, pretend = 0, frame = 24
 1484              		@ frame_needed = 0, uses_anonymous_args = 0
 1485              	.LVL125:
 1486 0000 70B5     		push	{r4, r5, r6, lr}
 1487              		.cfi_def_cfa_offset 16
 1488              		.cfi_offset 4, -16
 1489              		.cfi_offset 5, -12
 1490              		.cfi_offset 6, -8
 1491              		.cfi_offset 14, -4
 639:Code\Device\W25Q80/user_data.c ****     uint16 tmp;
 640:Code\Device\W25Q80/user_data.c **** 	uint8 data_temp[17] = {0};		//每条开门记录开头加一个标志数据0x01
 1492              		.loc 1 640 0
 1493 0002 1126     		movs	r6, #17
 638:Code\Device\W25Q80/user_data.c ****     uint16 tmp;
 1494              		.loc 1 638 0
 1495 0004 0400     		movs	r4, r0
 1496 0006 86B0     		sub	sp, sp, #24
 1497              		.cfi_def_cfa_offset 40
 1498              		.loc 1 640 0
 1499 0008 3200     		movs	r2, r6
 638:Code\Device\W25Q80/user_data.c ****     uint16 tmp;
 1500              		.loc 1 638 0
 1501 000a 0D00     		movs	r5, r1
 1502              		.loc 1 640 0
 1503 000c 01A8     		add	r0, sp, #4
 1504              	.LVL126:
 1505 000e 0021     		movs	r1, #0
 1506              	.LVL127:
 1507 0010 FFF7FEFF 		bl	memset
 1508              	.LVL128:
 641:Code\Device\W25Q80/user_data.c **** 	uint32 readoff = 0;
 642:Code\Device\W25Q80/user_data.c **** 	
 643:Code\Device\W25Q80/user_data.c **** 	tmp = open_num % MAX_OPEN_NUM;
 644:Code\Device\W25Q80/user_data.c **** 	//W25QXX_Read((uint8 *)data_temp, OPEN_INFO_BASE + (1+sizeof(open_door_t)) * tmp, (uint16)sizeof(o
 645:Code\Device\W25Q80/user_data.c **** 	readoff = (1+sizeof(open_door_t)) * tmp;
 1509              		.loc 1 645 0
 1510 0014 2000     		movs	r0, r4
 1511 0016 1149     		ldr	r1, .L76
 1512 0018 FFF7FEFF 		bl	__aeabi_uidivmod
 1513              	.LVL129:
 1514 001c 8CB2     		uxth	r4, r1
 1515              	.LVL130:
 1516 001e 7443     		muls	r4, r6
 1517              	.LVL131:
 646:Code\Device\W25Q80/user_data.c **** 	if((readoff % 0xff) == 0)
 1518              		.loc 1 646 0
 1519 0020 FF21     		movs	r1, #255
 1520 0022 2000     		movs	r0, r4
ARM GAS  C:\Users\Administrator\AppData\Local\Temp\ccPIvPLo.s 			page 40


 1521 0024 FFF7FEFF 		bl	__aeabi_uidivmod
 1522              	.LVL132:
 1523 0028 0029     		cmp	r1, #0
 1524 002a 05D1     		bne	.L73
 1525              	.LVL133:
 647:Code\Device\W25Q80/user_data.c **** 	{
 648:Code\Device\W25Q80/user_data.c **** 		readoff += 1;
 649:Code\Device\W25Q80/user_data.c **** 		W25QXX_Read((uint8 *)data_temp+1, OPEN_INFO_BASE + (readoff), (sizeof(open_door_t)));
 1526              		.loc 1 649 0
 1527 002c 0C4B     		ldr	r3, .L76+4
 1528 002e 1022     		movs	r2, #16
 1529 0030 E118     		adds	r1, r4, r3
 1530 0032 6B46     		mov	r3, sp
 1531 0034 581D     		adds	r0, r3, #5
 1532 0036 04E0     		b	.L75
 1533              	.LVL134:
 1534              	.L73:
 650:Code\Device\W25Q80/user_data.c **** 	}
 651:Code\Device\W25Q80/user_data.c **** 	else
 652:Code\Device\W25Q80/user_data.c **** 	{
 653:Code\Device\W25Q80/user_data.c **** 		W25QXX_Read((uint8 *)data_temp, OPEN_INFO_BASE + (readoff), (sizeof(open_door_t) + 1));
 1535              		.loc 1 653 0
 1536 0038 B823     		movs	r3, #184
 1537 003a 3200     		movs	r2, r6
 1538 003c 9B01     		lsls	r3, r3, #6
 1539 003e E118     		adds	r1, r4, r3
 1540 0040 01A8     		add	r0, sp, #4
 1541              	.LVL135:
 1542              	.L75:
 1543 0042 FFF7FEFF 		bl	W25QXX_Read
 1544              	.LVL136:
 654:Code\Device\W25Q80/user_data.c **** 	}
 655:Code\Device\W25Q80/user_data.c **** 	
 656:Code\Device\W25Q80/user_data.c **** 	memcpy(openInfo, data_temp+1, sizeof(open_door_t));
 1545              		.loc 1 656 0
 1546 0046 6B46     		mov	r3, sp
 1547 0048 1022     		movs	r2, #16
 1548 004a 591D     		adds	r1, r3, #5
 1549 004c 2800     		movs	r0, r5
 1550 004e FFF7FEFF 		bl	memcpy
 1551              	.LVL137:
 657:Code\Device\W25Q80/user_data.c **** 	
 658:Code\Device\W25Q80/user_data.c **** 	Endpoint_exchange(openInfo->card_uid);									// A卡数据位置转换 @ 18-1-17			//
 1552              		.loc 1 658 0
 1553 0052 2800     		movs	r0, r5
 1554 0054 FFF7FEFF 		bl	Endpoint_exchange
 1555              	.LVL138:
 659:Code\Device\W25Q80/user_data.c **** }
 1556              		.loc 1 659 0
 1557 0058 06B0     		add	sp, sp, #24
 1558              		@ sp needed
 1559              	.LVL139:
 1560 005a 70BD     		pop	{r4, r5, r6, pc}
 1561              	.L77:
 1562              		.align	2
 1563              	.L76:
 1564 005c 88130000 		.word	5000
ARM GAS  C:\Users\Administrator\AppData\Local\Temp\ccPIvPLo.s 			page 41


 1565 0060 012E0000 		.word	11777
 1566              		.cfi_endproc
 1567              	.LFE90:
 1568              		.size	Read_OpenInfo, .-Read_OpenInfo
 1569              		.section	.text.Find_Open_StartNum,"ax",%progbits
 1570              		.align	1
 1571              		.global	Find_Open_StartNum
 1572              		.code	16
 1573              		.thumb_func
 1574              		.type	Find_Open_StartNum, %function
 1575              	Find_Open_StartNum:
 1576              	.LFB91:
 660:Code\Device\W25Q80/user_data.c **** 
 661:Code\Device\W25Q80/user_data.c **** //*************************************************************************************************
 662:Code\Device\W25Q80/user_data.c **** // Function name	: Find_Open_StartNum
 663:Code\Device\W25Q80/user_data.c **** // Description		: 根据开始时间查找开始编号
 664:Code\Device\W25Q80/user_data.c **** // Parameter		: start_time
 665:Code\Device\W25Q80/user_data.c **** // Return			: 开门编号，找不到返回0xFFFF
 666:Code\Device\W25Q80/user_data.c **** //-------------------------------------------------------------------------------------------------
 667:Code\Device\W25Q80/user_data.c **** // Info				: 
 668:Code\Device\W25Q80/user_data.c **** //*************************************************************************************************
 669:Code\Device\W25Q80/user_data.c **** uint16 Find_Open_StartNum(uint32 start_time)
 670:Code\Device\W25Q80/user_data.c **** {
 1577              		.loc 1 670 0
 1578              		.cfi_startproc
 1579              		@ args = 0, pretend = 0, frame = 16
 1580              		@ frame_needed = 0, uses_anonymous_args = 0
 1581              	.LVL140:
 1582 0000 7FB5     		push	{r0, r1, r2, r3, r4, r5, r6, lr}
 1583              		.cfi_def_cfa_offset 32
 1584              		.cfi_offset 0, -32
 1585              		.cfi_offset 1, -28
 1586              		.cfi_offset 2, -24
 1587              		.cfi_offset 3, -20
 1588              		.cfi_offset 4, -16
 1589              		.cfi_offset 5, -12
 1590              		.cfi_offset 6, -8
 1591              		.cfi_offset 14, -4
 1592              		.loc 1 670 0
 1593 0002 0600     		movs	r6, r0
 671:Code\Device\W25Q80/user_data.c **** 	uint16 i, qty;
 672:Code\Device\W25Q80/user_data.c **** 	uint32 tmp1;
 673:Code\Device\W25Q80/user_data.c **** 	open_door_t openTmp;
 674:Code\Device\W25Q80/user_data.c ****     
 675:Code\Device\W25Q80/user_data.c **** 	qty = Read_Open_Qty();
 1594              		.loc 1 675 0
 1595 0004 FFF7FEFF 		bl	Read_Open_Qty
 1596              	.LVL141:
 1597 0008 0500     		movs	r5, r0
 1598              	.LVL142:
 676:Code\Device\W25Q80/user_data.c **** 	if (qty == 0)
 677:Code\Device\W25Q80/user_data.c **** 	{
 678:Code\Device\W25Q80/user_data.c **** 		return 0;
 1599              		.loc 1 678 0
 1600 000a 0020     		movs	r0, #0
 676:Code\Device\W25Q80/user_data.c **** 	if (qty == 0)
 1601              		.loc 1 676 0
ARM GAS  C:\Users\Administrator\AppData\Local\Temp\ccPIvPLo.s 			page 42


 1602 000c 8542     		cmp	r5, r0
 1603 000e 21D0     		beq	.L79
 679:Code\Device\W25Q80/user_data.c **** 	}
 680:Code\Device\W25Q80/user_data.c **** 	else if (qty <= MAX_OPEN_NUM)
 1604              		.loc 1 680 0
 1605 0010 114B     		ldr	r3, .L91
 1606 0012 9D42     		cmp	r5, r3
 1607 0014 0ED8     		bhi	.L80
 1608 0016 0400     		movs	r4, r0
 1609              	.L81:
 1610              	.LVL143:
 681:Code\Device\W25Q80/user_data.c **** 	{
 682:Code\Device\W25Q80/user_data.c **** 		for (i = 0; i < qty; i++)
 683:Code\Device\W25Q80/user_data.c **** 		{
 684:Code\Device\W25Q80/user_data.c **** 			Read_OpenInfo(i, &openTmp);
 1611              		.loc 1 684 0
 1612 0018 6946     		mov	r1, sp
 1613 001a 2000     		movs	r0, r4
 1614 001c FFF7FEFF 		bl	Read_OpenInfo
 1615              	.LVL144:
 1616 0020 029B     		ldr	r3, [sp, #8]
 1617 0022 1BBA     		rev	r3, r3
 1618              	.LVL145:
 685:Code\Device\W25Q80/user_data.c **** 			tmp1 = BYTE2LONG(openTmp.open_time[0], openTmp.open_time[1],
 686:Code\Device\W25Q80/user_data.c **** 			                 openTmp.open_time[2], openTmp.open_time[3]);
 687:Code\Device\W25Q80/user_data.c **** 			if (tmp1 >= start_time)
 1619              		.loc 1 687 0
 1620 0024 B342     		cmp	r3, r6
 1621 0026 14D2     		bcs	.L87
 682:Code\Device\W25Q80/user_data.c **** 		{
 1622              		.loc 1 682 0 discriminator 2
 1623 0028 0134     		adds	r4, r4, #1
 1624              	.LVL146:
 1625 002a A4B2     		uxth	r4, r4
 1626              	.LVL147:
 1627 002c A542     		cmp	r5, r4
 1628 002e F3D1     		bne	.L81
 1629              	.LVL148:
 1630              	.L84:
 688:Code\Device\W25Q80/user_data.c **** 			{
 689:Code\Device\W25Q80/user_data.c **** 				return i;
 690:Code\Device\W25Q80/user_data.c **** 			}
 691:Code\Device\W25Q80/user_data.c **** 		}
 692:Code\Device\W25Q80/user_data.c **** 	}
 693:Code\Device\W25Q80/user_data.c **** 	else
 694:Code\Device\W25Q80/user_data.c **** 	{
 695:Code\Device\W25Q80/user_data.c **** 		for (i = qty - MAX_OPEN_NUM; i < qty; i++)
 696:Code\Device\W25Q80/user_data.c **** 		{
 697:Code\Device\W25Q80/user_data.c **** 			Read_OpenInfo(i, &openTmp);
 698:Code\Device\W25Q80/user_data.c **** 			tmp1 = BYTE2LONG(openTmp.open_time[0], openTmp.open_time[1],
 699:Code\Device\W25Q80/user_data.c **** 							 openTmp.open_time[2], openTmp.open_time[3]);
 700:Code\Device\W25Q80/user_data.c **** 			if (tmp1 >= start_time)
 701:Code\Device\W25Q80/user_data.c **** 			{
 702:Code\Device\W25Q80/user_data.c **** 				return i;
 703:Code\Device\W25Q80/user_data.c **** 			}
 704:Code\Device\W25Q80/user_data.c **** 		}
 705:Code\Device\W25Q80/user_data.c **** 	}
ARM GAS  C:\Users\Administrator\AppData\Local\Temp\ccPIvPLo.s 			page 43


 706:Code\Device\W25Q80/user_data.c **** 	return 0xFFFF;
 1631              		.loc 1 706 0
 1632 0030 0A48     		ldr	r0, .L91+4
 1633 0032 0FE0     		b	.L79
 1634              	.LVL149:
 1635              	.L80:
 695:Code\Device\W25Q80/user_data.c **** 		{
 1636              		.loc 1 695 0
 1637 0034 0A4B     		ldr	r3, .L91+8
 1638 0036 EC18     		adds	r4, r5, r3
 1639              	.L90:
 695:Code\Device\W25Q80/user_data.c **** 		{
 1640              		.loc 1 695 0 is_stmt 0 discriminator 2
 1641 0038 A4B2     		uxth	r4, r4
 1642              	.LVL150:
 1643 003a AC42     		cmp	r4, r5
 1644 003c F8D2     		bcs	.L84
 697:Code\Device\W25Q80/user_data.c **** 			tmp1 = BYTE2LONG(openTmp.open_time[0], openTmp.open_time[1],
 1645              		.loc 1 697 0 is_stmt 1
 1646 003e 6946     		mov	r1, sp
 1647 0040 2000     		movs	r0, r4
 1648 0042 FFF7FEFF 		bl	Read_OpenInfo
 1649              	.LVL151:
 1650 0046 029B     		ldr	r3, [sp, #8]
 1651 0048 1BBA     		rev	r3, r3
 1652              	.LVL152:
 700:Code\Device\W25Q80/user_data.c **** 			{
 1653              		.loc 1 700 0
 1654 004a 9E42     		cmp	r6, r3
 1655 004c 01D9     		bls	.L87
 695:Code\Device\W25Q80/user_data.c **** 		{
 1656              		.loc 1 695 0 discriminator 2
 1657 004e 0134     		adds	r4, r4, #1
 1658              	.LVL153:
 1659 0050 F2E7     		b	.L90
 1660              	.LVL154:
 1661              	.L87:
 1662 0052 2000     		movs	r0, r4
 1663              	.LVL155:
 1664              	.L79:
 707:Code\Device\W25Q80/user_data.c **** }
 1665              		.loc 1 707 0
 1666 0054 04B0     		add	sp, sp, #16
 1667              		@ sp needed
 1668              	.LVL156:
 1669              	.LVL157:
 1670 0056 70BD     		pop	{r4, r5, r6, pc}
 1671              	.L92:
 1672              		.align	2
 1673              	.L91:
 1674 0058 88130000 		.word	5000
 1675 005c FFFF0000 		.word	65535
 1676 0060 78ECFFFF 		.word	-5000
 1677              		.cfi_endproc
 1678              	.LFE91:
 1679              		.size	Find_Open_StartNum, .-Find_Open_StartNum
 1680              		.section	.text.Find_Open_EndNum,"ax",%progbits
ARM GAS  C:\Users\Administrator\AppData\Local\Temp\ccPIvPLo.s 			page 44


 1681              		.align	1
 1682              		.global	Find_Open_EndNum
 1683              		.code	16
 1684              		.thumb_func
 1685              		.type	Find_Open_EndNum, %function
 1686              	Find_Open_EndNum:
 1687              	.LFB92:
 708:Code\Device\W25Q80/user_data.c **** 
 709:Code\Device\W25Q80/user_data.c **** //*************************************************************************************************
 710:Code\Device\W25Q80/user_data.c **** // Function name	: Find_Open_StartNum
 711:Code\Device\W25Q80/user_data.c **** // Description		: 根据结束时间查找结束编号
 712:Code\Device\W25Q80/user_data.c **** // Parameter		: end_time
 713:Code\Device\W25Q80/user_data.c **** // Return			: 开门编号，找不到返回0xFFFF
 714:Code\Device\W25Q80/user_data.c **** //-------------------------------------------------------------------------------------------------
 715:Code\Device\W25Q80/user_data.c **** // Info				: 
 716:Code\Device\W25Q80/user_data.c **** //*************************************************************************************************
 717:Code\Device\W25Q80/user_data.c **** uint16 Find_Open_EndNum(uint32 end_time)
 718:Code\Device\W25Q80/user_data.c **** {
 1688              		.loc 1 718 0
 1689              		.cfi_startproc
 1690              		@ args = 0, pretend = 0, frame = 16
 1691              		@ frame_needed = 0, uses_anonymous_args = 0
 1692              	.LVL158:
 1693 0000 7FB5     		push	{r0, r1, r2, r3, r4, r5, r6, lr}
 1694              		.cfi_def_cfa_offset 32
 1695              		.cfi_offset 0, -32
 1696              		.cfi_offset 1, -28
 1697              		.cfi_offset 2, -24
 1698              		.cfi_offset 3, -20
 1699              		.cfi_offset 4, -16
 1700              		.cfi_offset 5, -12
 1701              		.cfi_offset 6, -8
 1702              		.cfi_offset 14, -4
 1703              		.loc 1 718 0
 1704 0002 0500     		movs	r5, r0
 719:Code\Device\W25Q80/user_data.c **** 	uint16 i, qty;
 720:Code\Device\W25Q80/user_data.c **** 	uint32 tmp1;
 721:Code\Device\W25Q80/user_data.c **** 	open_door_t openTmp;
 722:Code\Device\W25Q80/user_data.c **** 
 723:Code\Device\W25Q80/user_data.c **** 	qty = Read_Open_Qty();
 1705              		.loc 1 723 0
 1706 0004 FFF7FEFF 		bl	Read_Open_Qty
 1707              	.LVL159:
 1708 0008 0600     		movs	r6, r0
 1709              	.LVL160:
 724:Code\Device\W25Q80/user_data.c **** 	if (qty == 0)
 725:Code\Device\W25Q80/user_data.c **** 	{
 726:Code\Device\W25Q80/user_data.c **** 		return 0;
 1710              		.loc 1 726 0
 1711 000a 0020     		movs	r0, #0
 724:Code\Device\W25Q80/user_data.c **** 	if (qty == 0)
 1712              		.loc 1 724 0
 1713 000c 8642     		cmp	r6, r0
 1714 000e 20D0     		beq	.L94
 727:Code\Device\W25Q80/user_data.c **** 	}
 728:Code\Device\W25Q80/user_data.c **** 	else if (qty <= MAX_OPEN_NUM)
 1715              		.loc 1 728 0
ARM GAS  C:\Users\Administrator\AppData\Local\Temp\ccPIvPLo.s 			page 45


 1716 0010 114B     		ldr	r3, .L103
 1717 0012 741E     		subs	r4, r6, #1
 729:Code\Device\W25Q80/user_data.c **** 	{
 730:Code\Device\W25Q80/user_data.c **** 		for (i = qty -1; i >= 0; i--)
 1718              		.loc 1 730 0
 1719 0014 A4B2     		uxth	r4, r4
 728:Code\Device\W25Q80/user_data.c **** 	{
 1720              		.loc 1 728 0
 1721 0016 9E42     		cmp	r6, r3
 1722 0018 14D8     		bhi	.L97
 1723              	.L96:
 1724              	.LVL161:
 731:Code\Device\W25Q80/user_data.c **** 		{
 732:Code\Device\W25Q80/user_data.c **** 			Read_OpenInfo(i, &openTmp);
 1725              		.loc 1 732 0
 1726 001a 6946     		mov	r1, sp
 1727 001c 2000     		movs	r0, r4
 1728 001e FFF7FEFF 		bl	Read_OpenInfo
 1729              	.LVL162:
 1730 0022 029B     		ldr	r3, [sp, #8]
 1731 0024 1BBA     		rev	r3, r3
 1732              	.LVL163:
 733:Code\Device\W25Q80/user_data.c **** 			tmp1 = BYTE2LONG(openTmp.open_time[0], openTmp.open_time[1],
 734:Code\Device\W25Q80/user_data.c **** 							 openTmp.open_time[2], openTmp.open_time[3]);
 735:Code\Device\W25Q80/user_data.c **** 			if (tmp1 <= end_time)
 1733              		.loc 1 735 0
 1734 0026 AB42     		cmp	r3, r5
 1735 0028 12D9     		bls	.L101
 730:Code\Device\W25Q80/user_data.c **** 		{
 1736              		.loc 1 730 0
 1737 002a 013C     		subs	r4, r4, #1
 1738              	.LVL164:
 1739 002c A4B2     		uxth	r4, r4
 1740              	.LVL165:
 736:Code\Device\W25Q80/user_data.c **** 			{
 737:Code\Device\W25Q80/user_data.c **** 				return i;
 738:Code\Device\W25Q80/user_data.c **** 			}
 739:Code\Device\W25Q80/user_data.c **** 		}
 1741              		.loc 1 739 0
 1742 002e F4E7     		b	.L96
 1743              	.LVL166:
 1744              	.L98:
 740:Code\Device\W25Q80/user_data.c **** 	}
 741:Code\Device\W25Q80/user_data.c **** 	else
 742:Code\Device\W25Q80/user_data.c **** 	{
 743:Code\Device\W25Q80/user_data.c **** 		for (i = qty - 1; i >= qty - MAX_OPEN_NUM; i--)
 744:Code\Device\W25Q80/user_data.c **** 		{
 745:Code\Device\W25Q80/user_data.c **** 			Read_OpenInfo(i, &openTmp);
 1745              		.loc 1 745 0
 1746 0030 6946     		mov	r1, sp
 1747 0032 2000     		movs	r0, r4
 1748 0034 FFF7FEFF 		bl	Read_OpenInfo
 1749              	.LVL167:
 1750 0038 029B     		ldr	r3, [sp, #8]
 1751 003a 1BBA     		rev	r3, r3
 1752              	.LVL168:
 746:Code\Device\W25Q80/user_data.c **** 			tmp1 = BYTE2LONG(openTmp.open_time[0], openTmp.open_time[1],
ARM GAS  C:\Users\Administrator\AppData\Local\Temp\ccPIvPLo.s 			page 46


 747:Code\Device\W25Q80/user_data.c **** 							 openTmp.open_time[2], openTmp.open_time[3]);
 748:Code\Device\W25Q80/user_data.c **** 			if (tmp1 <= end_time)
 1753              		.loc 1 748 0
 1754 003c 9D42     		cmp	r5, r3
 1755 003e 07D2     		bcs	.L101
 743:Code\Device\W25Q80/user_data.c **** 		{
 1756              		.loc 1 743 0 discriminator 2
 1757 0040 013C     		subs	r4, r4, #1
 1758              	.LVL169:
 1759 0042 A4B2     		uxth	r4, r4
 1760              	.LVL170:
 1761              	.L97:
 743:Code\Device\W25Q80/user_data.c **** 		{
 1762              		.loc 1 743 0 is_stmt 0 discriminator 1
 1763 0044 054B     		ldr	r3, .L103+4
 1764 0046 F318     		adds	r3, r6, r3
 1765 0048 9C42     		cmp	r4, r3
 1766 004a F1DA     		bge	.L98
 749:Code\Device\W25Q80/user_data.c **** 			{
 750:Code\Device\W25Q80/user_data.c **** 				return i;
 751:Code\Device\W25Q80/user_data.c **** 			}
 752:Code\Device\W25Q80/user_data.c **** 		}
 753:Code\Device\W25Q80/user_data.c **** 	}
 754:Code\Device\W25Q80/user_data.c **** 	return 0xFFFF;
 1767              		.loc 1 754 0 is_stmt 1
 1768 004c 0448     		ldr	r0, .L103+8
 1769 004e 00E0     		b	.L94
 1770              	.L101:
 1771 0050 2000     		movs	r0, r4
 1772              	.LVL171:
 1773              	.L94:
 755:Code\Device\W25Q80/user_data.c **** }
 1774              		.loc 1 755 0
 1775 0052 04B0     		add	sp, sp, #16
 1776              		@ sp needed
 1777              	.LVL172:
 1778              	.LVL173:
 1779 0054 70BD     		pop	{r4, r5, r6, pc}
 1780              	.L104:
 1781 0056 C046     		.align	2
 1782              	.L103:
 1783 0058 88130000 		.word	5000
 1784 005c 78ECFFFF 		.word	-5000
 1785 0060 FFFF0000 		.word	65535
 1786              		.cfi_endproc
 1787              	.LFE92:
 1788              		.size	Find_Open_EndNum, .-Find_Open_EndNum
 1789              		.section	.text.Find_Open_ValidQty,"ax",%progbits
 1790              		.align	1
 1791              		.global	Find_Open_ValidQty
 1792              		.code	16
 1793              		.thumb_func
 1794              		.type	Find_Open_ValidQty, %function
 1795              	Find_Open_ValidQty:
 1796              	.LFB93:
 756:Code\Device\W25Q80/user_data.c **** 
 757:Code\Device\W25Q80/user_data.c **** //*************************************************************************************************
ARM GAS  C:\Users\Administrator\AppData\Local\Temp\ccPIvPLo.s 			page 47


 758:Code\Device\W25Q80/user_data.c **** // Function name	: Find_Open_ValidQty
 759:Code\Device\W25Q80/user_data.c **** // Description		: 根据开始时间、结束时间计算需回传的开门总数
 760:Code\Device\W25Q80/user_data.c **** // Parameter		: start_time, end_time
 761:Code\Device\W25Q80/user_data.c **** // Return			: none
 762:Code\Device\W25Q80/user_data.c **** //-------------------------------------------------------------------------------------------------
 763:Code\Device\W25Q80/user_data.c **** // Info				: 
 764:Code\Device\W25Q80/user_data.c **** //*************************************************************************************************
 765:Code\Device\W25Q80/user_data.c **** uint16 Find_Open_ValidQty(uint32 start_time, uint32 end_time)
 766:Code\Device\W25Q80/user_data.c **** {
 1797              		.loc 1 766 0
 1798              		.cfi_startproc
 1799              		@ args = 0, pretend = 0, frame = 0
 1800              		@ frame_needed = 0, uses_anonymous_args = 0
 1801              	.LVL174:
 1802 0000 70B5     		push	{r4, r5, r6, lr}
 1803              		.cfi_def_cfa_offset 16
 1804              		.cfi_offset 4, -16
 1805              		.cfi_offset 5, -12
 1806              		.cfi_offset 6, -8
 1807              		.cfi_offset 14, -4
 1808              		.loc 1 766 0
 1809 0002 0500     		movs	r5, r0
 1810 0004 0E00     		movs	r6, r1
 767:Code\Device\W25Q80/user_data.c **** 	uint16 start_num, end_num, allqty;
 768:Code\Device\W25Q80/user_data.c **** 
 769:Code\Device\W25Q80/user_data.c **** 	allqty = Read_Open_Qty();
 1811              		.loc 1 769 0
 1812 0006 FFF7FEFF 		bl	Read_Open_Qty
 1813              	.LVL175:
 1814 000a 041E     		subs	r4, r0, #0
 1815              	.LVL176:
 770:Code\Device\W25Q80/user_data.c **** 	if (allqty == 0)
 1816              		.loc 1 770 0
 1817 000c 01D1     		bne	.L106
 1818              	.LVL177:
 1819              	.L108:
 771:Code\Device\W25Q80/user_data.c **** 	{
 772:Code\Device\W25Q80/user_data.c **** 		return 0;
 1820              		.loc 1 772 0
 1821 000e 0020     		movs	r0, #0
 1822 0010 10E0     		b	.L107
 1823              	.LVL178:
 1824              	.L106:
 773:Code\Device\W25Q80/user_data.c **** 	}
 774:Code\Device\W25Q80/user_data.c **** 	start_num = Find_Open_StartNum(start_time);
 1825              		.loc 1 774 0
 1826 0012 2800     		movs	r0, r5
 1827              	.LVL179:
 1828 0014 FFF7FEFF 		bl	Find_Open_StartNum
 1829              	.LVL180:
 1830 0018 0500     		movs	r5, r0
 1831              	.LVL181:
 775:Code\Device\W25Q80/user_data.c **** 	end_num = Find_Open_EndNum(end_time);
 1832              		.loc 1 775 0
 1833 001a 3000     		movs	r0, r6
 1834 001c FFF7FEFF 		bl	Find_Open_EndNum
 1835              	.LVL182:
ARM GAS  C:\Users\Administrator\AppData\Local\Temp\ccPIvPLo.s 			page 48


 776:Code\Device\W25Q80/user_data.c **** 	if (start_num == 0xFFFF)
 1836              		.loc 1 776 0
 1837 0020 054B     		ldr	r3, .L111
 1838 0022 9D42     		cmp	r5, r3
 1839 0024 F3D0     		beq	.L108
 777:Code\Device\W25Q80/user_data.c **** 	{
 778:Code\Device\W25Q80/user_data.c **** 		return 0;
 779:Code\Device\W25Q80/user_data.c **** 	}
 780:Code\Device\W25Q80/user_data.c **** 	else
 781:Code\Device\W25Q80/user_data.c **** 	{
 782:Code\Device\W25Q80/user_data.c **** 		if (end_num == 0xFFFF)
 1840              		.loc 1 782 0
 1841 0026 9842     		cmp	r0, r3
 1842 0028 01D1     		bne	.L109
 783:Code\Device\W25Q80/user_data.c **** 		{
 784:Code\Device\W25Q80/user_data.c **** 			return (allqty - start_num);
 1843              		.loc 1 784 0
 1844 002a 601B     		subs	r0, r4, r5
 1845              	.LVL183:
 1846 002c 01E0     		b	.L110
 1847              	.LVL184:
 1848              	.L109:
 785:Code\Device\W25Q80/user_data.c **** 		}
 786:Code\Device\W25Q80/user_data.c **** 		else
 787:Code\Device\W25Q80/user_data.c **** 		{
 788:Code\Device\W25Q80/user_data.c **** 			return (end_num - start_num + 1);
 1849              		.loc 1 788 0
 1850 002e 0130     		adds	r0, r0, #1
 1851              	.LVL185:
 1852 0030 401B     		subs	r0, r0, r5
 1853              	.L110:
 1854 0032 80B2     		uxth	r0, r0
 1855              	.LVL186:
 1856              	.L107:
 789:Code\Device\W25Q80/user_data.c **** 		}
 790:Code\Device\W25Q80/user_data.c **** 	}
 791:Code\Device\W25Q80/user_data.c **** }
 1857              		.loc 1 791 0
 1858              		@ sp needed
 1859              	.LVL187:
 1860 0034 70BD     		pop	{r4, r5, r6, pc}
 1861              	.L112:
 1862 0036 C046     		.align	2
 1863              	.L111:
 1864 0038 FFFF0000 		.word	65535
 1865              		.cfi_endproc
 1866              	.LFE93:
 1867              		.size	Find_Open_ValidQty, .-Find_Open_ValidQty
 1868              		.section	.text.Get_Open_Info,"ax",%progbits
 1869              		.align	1
 1870              		.global	Get_Open_Info
 1871              		.code	16
 1872              		.thumb_func
 1873              		.type	Get_Open_Info, %function
 1874              	Get_Open_Info:
 1875              	.LFB94:
 792:Code\Device\W25Q80/user_data.c **** 
ARM GAS  C:\Users\Administrator\AppData\Local\Temp\ccPIvPLo.s 			page 49


 793:Code\Device\W25Q80/user_data.c **** //*************************************************************************************************
 794:Code\Device\W25Q80/user_data.c **** // Function name	: Get_Open_Info
 795:Code\Device\W25Q80/user_data.c **** // Description		: 根据开始编号、数量来提取开门记录信息
 796:Code\Device\W25Q80/user_data.c **** // Parameter		: start_num, qty , *data
 797:Code\Device\W25Q80/user_data.c **** // Return			: none
 798:Code\Device\W25Q80/user_data.c **** //-------------------------------------------------------------------------------------------------
 799:Code\Device\W25Q80/user_data.c **** // Info				: 
 800:Code\Device\W25Q80/user_data.c **** //*************************************************************************************************
 801:Code\Device\W25Q80/user_data.c **** void Get_Open_Info(uint16 start_num, uint16 qty, uint8 *data)
 802:Code\Device\W25Q80/user_data.c **** {
 1876              		.loc 1 802 0
 1877              		.cfi_startproc
 1878              		@ args = 0, pretend = 0, frame = 8
 1879              		@ frame_needed = 0, uses_anonymous_args = 0
 1880              	.LVL188:
 1881 0000 F7B5     		push	{r0, r1, r2, r4, r5, r6, r7, lr}
 1882              		.cfi_def_cfa_offset 32
 1883              		.cfi_offset 0, -32
 1884              		.cfi_offset 1, -28
 1885              		.cfi_offset 2, -24
 1886              		.cfi_offset 4, -20
 1887              		.cfi_offset 5, -16
 1888              		.cfi_offset 6, -12
 1889              		.cfi_offset 7, -8
 1890              		.cfi_offset 14, -4
 1891              		.loc 1 802 0
 1892 0002 0500     		movs	r5, r0
 1893 0004 0E00     		movs	r6, r1
 1894 0006 1700     		movs	r7, r2
 803:Code\Device\W25Q80/user_data.c **** 	uint16 i, offset = 0;
 804:Code\Device\W25Q80/user_data.c **** 	
 805:Code\Device\W25Q80/user_data.c **** 	for (i = start_num; i < start_num + qty; i++)
 1895              		.loc 1 805 0
 1896 0008 0400     		movs	r4, r0
 1897 000a 0303     		lsls	r3, r0, #12
 1898 000c 1B1A     		subs	r3, r3, r0
 1899 000e 9BB2     		uxth	r3, r3
 1900 0010 0193     		str	r3, [sp, #4]
 1901              	.LVL189:
 1902              	.L114:
 1903 0012 019B     		ldr	r3, [sp, #4]
 1904 0014 E118     		adds	r1, r4, r3
 1905 0016 0901     		lsls	r1, r1, #4
 1906              		.loc 1 805 0 is_stmt 0 discriminator 1
 1907 0018 AB19     		adds	r3, r5, r6
 1908 001a 89B2     		uxth	r1, r1
 1909              	.LVL190:
 1910 001c 9C42     		cmp	r4, r3
 1911 001e 06DA     		bge	.L116
 806:Code\Device\W25Q80/user_data.c **** 	{
 807:Code\Device\W25Q80/user_data.c **** 		Read_OpenInfo(i, (open_door_t *)(data + offset));
 1912              		.loc 1 807 0 is_stmt 1 discriminator 3
 1913 0020 2000     		movs	r0, r4
 1914 0022 7918     		adds	r1, r7, r1
 1915              	.LVL191:
 805:Code\Device\W25Q80/user_data.c **** 	{
 1916              		.loc 1 805 0 discriminator 3
ARM GAS  C:\Users\Administrator\AppData\Local\Temp\ccPIvPLo.s 			page 50


 1917 0024 0134     		adds	r4, r4, #1
 1918              	.LVL192:
 1919              		.loc 1 807 0 discriminator 3
 1920 0026 FFF7FEFF 		bl	Read_OpenInfo
 1921              	.LVL193:
 805:Code\Device\W25Q80/user_data.c **** 	{
 1922              		.loc 1 805 0 discriminator 3
 1923 002a A4B2     		uxth	r4, r4
 1924              	.LVL194:
 1925 002c F1E7     		b	.L114
 1926              	.LVL195:
 1927              	.L116:
 808:Code\Device\W25Q80/user_data.c **** 		offset += sizeof(open_door_t);
 809:Code\Device\W25Q80/user_data.c **** 	}
 810:Code\Device\W25Q80/user_data.c **** }
 1928              		.loc 1 810 0
 1929              		@ sp needed
 1930              	.LVL196:
 1931              	.LVL197:
 1932 002e F7BD     		pop	{r0, r1, r2, r4, r5, r6, r7, pc}
 1933              		.cfi_endproc
 1934              	.LFE94:
 1935              		.size	Get_Open_Info, .-Get_Open_Info
 1936              		.section	.text.FindAndSet_UploadTime_UploadFlag,"ax",%progbits
 1937              		.align	1
 1938              		.global	FindAndSet_UploadTime_UploadFlag
 1939              		.code	16
 1940              		.thumb_func
 1941              		.type	FindAndSet_UploadTime_UploadFlag, %function
 1942              	FindAndSet_UploadTime_UploadFlag:
 1943              	.LFB95:
 811:Code\Device\W25Q80/user_data.c **** 
 812:Code\Device\W25Q80/user_data.c **** //*************************************************************************************************
 813:Code\Device\W25Q80/user_data.c **** // Function name	: FindAndSet_UploadTime_UploadFlag
 814:Code\Device\W25Q80/user_data.c **** // Description		: 根据时间查找开门记录，并更新上报时间及上报成功标志
 815:Code\Device\W25Q80/user_data.c **** // Parameter		: open_time	: 开门时间
 816:Code\Device\W25Q80/user_data.c **** //					: utc_time	: 时间戳
 817:Code\Device\W25Q80/user_data.c **** // Return			: none
 818:Code\Device\W25Q80/user_data.c **** //-------------------------------------------------------------------------------------------------
 819:Code\Device\W25Q80/user_data.c **** // Info				: 
 820:Code\Device\W25Q80/user_data.c **** //*************************************************************************************************
 821:Code\Device\W25Q80/user_data.c **** void FindAndSet_UploadTime_UploadFlag(uint8 *open_time, uint8 *utc_time)
 822:Code\Device\W25Q80/user_data.c **** {
 1944              		.loc 1 822 0
 1945              		.cfi_startproc
 1946              		@ args = 0, pretend = 0, frame = 72
 1947              		@ frame_needed = 0, uses_anonymous_args = 0
 1948              	.LVL198:
 1949 0000 F0B5     		push	{r4, r5, r6, r7, lr}
 1950              		.cfi_def_cfa_offset 20
 1951              		.cfi_offset 4, -20
 1952              		.cfi_offset 5, -16
 1953              		.cfi_offset 6, -12
 1954              		.cfi_offset 7, -8
 1955              		.cfi_offset 14, -4
 1956 0002 0400     		movs	r4, r0
 1957 0004 93B0     		sub	sp, sp, #76
ARM GAS  C:\Users\Administrator\AppData\Local\Temp\ccPIvPLo.s 			page 51


 1958              		.cfi_def_cfa_offset 96
 1959              		.loc 1 822 0
 1960 0006 0791     		str	r1, [sp, #28]
 823:Code\Device\W25Q80/user_data.c **** 	uint16_t i, OpenQty;
 824:Code\Device\W25Q80/user_data.c **** 	open_door_t OpenInfo;
 825:Code\Device\W25Q80/user_data.c **** 	uint32 open_time_utc;
 826:Code\Device\W25Q80/user_data.c **** 	uint32 open_time_flash;
 827:Code\Device\W25Q80/user_data.c **** 	uint8 opendate_tmp[17] = {0};
 1961              		.loc 1 827 0
 1962 0008 1122     		movs	r2, #17
 1963 000a 0021     		movs	r1, #0
 1964              	.LVL199:
 1965 000c 0DA8     		add	r0, sp, #52
 1966              	.LVL200:
 1967 000e FFF7FEFF 		bl	memset
 1968              	.LVL201:
 828:Code\Device\W25Q80/user_data.c **** 	uint32 readoff = 0;
 829:Code\Device\W25Q80/user_data.c **** 	
 830:Code\Device\W25Q80/user_data.c **** 	open_time_utc = BYTE2LONG(open_time[0], open_time[1], open_time[2], open_time[3]);
 1969              		.loc 1 830 0
 1970 0012 2378     		ldrb	r3, [r4]
 1971 0014 1A06     		lsls	r2, r3, #24
 1972 0016 6378     		ldrb	r3, [r4, #1]
 1973 0018 1B04     		lsls	r3, r3, #16
 1974 001a 1343     		orrs	r3, r2
 1975 001c E278     		ldrb	r2, [r4, #3]
 1976 001e 1343     		orrs	r3, r2
 1977 0020 A278     		ldrb	r2, [r4, #2]
 1978 0022 1202     		lsls	r2, r2, #8
 1979 0024 1343     		orrs	r3, r2
 1980 0026 0193     		str	r3, [sp, #4]
 1981              	.LVL202:
 831:Code\Device\W25Q80/user_data.c **** 	OpenQty = Read_Open_Qty();
 1982              		.loc 1 831 0
 1983 0028 FFF7FEFF 		bl	Read_Open_Qty
 1984              	.LVL203:
 832:Code\Device\W25Q80/user_data.c **** 	//OpenQty %= MAX_OPEN_NUM;
 833:Code\Device\W25Q80/user_data.c **** 	if (OpenQty <= MAX_OPEN_NUM)
 1985              		.loc 1 833 0
 1986 002c 6E4B     		ldr	r3, .L134
 831:Code\Device\W25Q80/user_data.c **** 	OpenQty = Read_Open_Qty();
 1987              		.loc 1 831 0
 1988 002e 0700     		movs	r7, r0
 1989              	.LVL204:
 1990 0030 0138     		subs	r0, r0, #1
 1991              	.LVL205:
 834:Code\Device\W25Q80/user_data.c **** 	{
 835:Code\Device\W25Q80/user_data.c **** 		for (i = OpenQty - 1; i >= 0; i--)
 1992              		.loc 1 835 0
 1993 0032 80B2     		uxth	r0, r0
 833:Code\Device\W25Q80/user_data.c **** 	{
 1994              		.loc 1 833 0
 1995 0034 9F42     		cmp	r7, r3
 1996 0036 00D9     		bls	.LCB1705
 1997 0038 C4E0     		b	.L125	@long jump
 1998              	.LCB1705:
 1999              	.LVL206:
ARM GAS  C:\Users\Administrator\AppData\Local\Temp\ccPIvPLo.s 			page 52


 2000              	.L124:
 836:Code\Device\W25Q80/user_data.c **** 		{
 837:Code\Device\W25Q80/user_data.c **** 			i %= MAX_OPEN_NUM;
 2001              		.loc 1 837 0
 2002 003a 6B49     		ldr	r1, .L134
 2003 003c FFF7FEFF 		bl	__aeabi_uidivmod
 2004              	.LVL207:
 838:Code\Device\W25Q80/user_data.c **** 			readoff = i * (1 + sizeof(open_door_t));
 2005              		.loc 1 838 0
 2006 0040 1125     		movs	r5, #17
 837:Code\Device\W25Q80/user_data.c **** 			readoff = i * (1 + sizeof(open_door_t));
 2007              		.loc 1 837 0
 2008 0042 8FB2     		uxth	r7, r1
 2009              	.LVL208:
 2010              		.loc 1 838 0
 2011 0044 7D43     		muls	r5, r7
 2012              	.LVL209:
 839:Code\Device\W25Q80/user_data.c **** 			if((readoff % 0xff) == 0)
 2013              		.loc 1 839 0
 2014 0046 FF21     		movs	r1, #255
 2015 0048 2800     		movs	r0, r5
 2016 004a FFF7FEFF 		bl	__aeabi_uidivmod
 2017              	.LVL210:
 2018 004e 0DAC     		add	r4, sp, #52
 2019 0050 0029     		cmp	r1, #0
 2020 0052 07D1     		bne	.L119
 2021              	.LVL211:
 840:Code\Device\W25Q80/user_data.c **** 			{
 841:Code\Device\W25Q80/user_data.c **** 				readoff += 1;
 842:Code\Device\W25Q80/user_data.c **** 				W25QXX_Read((uint8 *)opendate_tmp+1, OPEN_INFO_BASE + (readoff), (sizeof(open_door_t)));
 2022              		.loc 1 842 0
 2023 0054 654B     		ldr	r3, .L134+4
 2024 0056 08A8     		add	r0, sp, #32
 2025 0058 E918     		adds	r1, r5, r3
 2026 005a 1523     		movs	r3, #21
 2027 005c 1B18     		adds	r3, r3, r0
 2028 005e 1022     		movs	r2, #16
 2029 0060 1800     		movs	r0, r3
 2030 0062 04E0     		b	.L132
 2031              	.LVL212:
 2032              	.L119:
 843:Code\Device\W25Q80/user_data.c **** 			}
 844:Code\Device\W25Q80/user_data.c **** 			else
 845:Code\Device\W25Q80/user_data.c **** 			{
 846:Code\Device\W25Q80/user_data.c **** 				W25QXX_Read((uint8 *)opendate_tmp, OPEN_INFO_BASE + (readoff), (sizeof(open_door_t) + 1));
 2033              		.loc 1 846 0
 2034 0064 B823     		movs	r3, #184
 2035 0066 1122     		movs	r2, #17
 2036 0068 2000     		movs	r0, r4
 2037 006a 9B01     		lsls	r3, r3, #6
 2038 006c E918     		adds	r1, r5, r3
 2039              	.LVL213:
 2040              	.L132:
 2041 006e FFF7FEFF 		bl	W25QXX_Read
 2042              	.LVL214:
 847:Code\Device\W25Q80/user_data.c **** 			}
 848:Code\Device\W25Q80/user_data.c **** 			memcpy((uint8 *)&OpenInfo, opendate_tmp+1, 16);
ARM GAS  C:\Users\Administrator\AppData\Local\Temp\ccPIvPLo.s 			page 53


 2043              		.loc 1 848 0
 2044 0072 1523     		movs	r3, #21
 2045 0074 08A9     		add	r1, sp, #32
 2046 0076 5B18     		adds	r3, r3, r1
 2047 0078 09AE     		add	r6, sp, #36
 2048 007a 1022     		movs	r2, #16
 2049 007c 1900     		movs	r1, r3
 2050 007e 3000     		movs	r0, r6
 2051 0080 FFF7FEFF 		bl	memcpy
 2052              	.LVL215:
 2053 0084 637A     		ldrb	r3, [r4, #9]
 2054 0086 0293     		str	r3, [sp, #8]
 2055              	.LVL216:
 2056 0088 A37A     		ldrb	r3, [r4, #10]
 2057 008a 0393     		str	r3, [sp, #12]
 2058              	.LVL217:
 2059 008c E37A     		ldrb	r3, [r4, #11]
 2060 008e 0493     		str	r3, [sp, #16]
 2061              	.LVL218:
 2062 0090 237B     		ldrb	r3, [r4, #12]
 2063 0092 0593     		str	r3, [sp, #20]
 2064              	.LVL219:
 849:Code\Device\W25Q80/user_data.c **** 			//DBG_SOFT_PutStr("\n ret_code = 1, find sendtime @ i:");
 850:Code\Device\W25Q80/user_data.c **** 			//DBG_SOFT_PrintfHex(&i,1,1);	
 851:Code\Device\W25Q80/user_data.c **** 			//DBG_SOFT_PrintfHex(opendate_tmp,16,16);		
 852:Code\Device\W25Q80/user_data.c **** 			
 853:Code\Device\W25Q80/user_data.c **** 			//Read_OpenInfo(i,&OpenInfo);
 854:Code\Device\W25Q80/user_data.c **** 			open_time_flash = BYTE2LONG(OpenInfo.open_time[0], OpenInfo.open_time[1],
 2065              		.loc 1 854 0
 2066 0094 029B     		ldr	r3, [sp, #8]
 2067 0096 1A06     		lsls	r2, r3, #24
 2068 0098 039B     		ldr	r3, [sp, #12]
 2069 009a 1B04     		lsls	r3, r3, #16
 2070 009c 1343     		orrs	r3, r2
 2071 009e 059A     		ldr	r2, [sp, #20]
 2072 00a0 1343     		orrs	r3, r2
 2073 00a2 049A     		ldr	r2, [sp, #16]
 2074 00a4 1202     		lsls	r2, r2, #8
 2075 00a6 1343     		orrs	r3, r2
 2076              	.LVL220:
 855:Code\Device\W25Q80/user_data.c **** 							 			OpenInfo.open_time[2], OpenInfo.open_time[3]);
 856:Code\Device\W25Q80/user_data.c **** 			//DBG_SOFT_PutStr("\nopen_time_flash :");
 857:Code\Device\W25Q80/user_data.c **** 			//DBG_SOFT_PutHexInt(open_time_flash);
 858:Code\Device\W25Q80/user_data.c **** 			if (open_time_flash == open_time_utc)
 2077              		.loc 1 858 0
 2078 00a8 019A     		ldr	r2, [sp, #4]
 2079 00aa 9A42     		cmp	r2, r3
 2080 00ac 26D1     		bne	.L121
 859:Code\Device\W25Q80/user_data.c **** 			{
 860:Code\Device\W25Q80/user_data.c **** 				DBG_SOFT_PutStr("\n===>back upload open date :<===\n");
 861:Code\Device\W25Q80/user_data.c **** 				memcpy(OpenInfo.send_time, utc_time, TIME_LEN);
 2081              		.loc 1 861 0
 2082 00ae 0799     		ldr	r1, [sp, #28]
 2083 00b0 0422     		movs	r2, #4
 2084 00b2 0CA8     		add	r0, sp, #48
 2085 00b4 FFF7FEFF 		bl	memcpy
 2086              	.LVL221:
ARM GAS  C:\Users\Administrator\AppData\Local\Temp\ccPIvPLo.s 			page 54


 862:Code\Device\W25Q80/user_data.c **** 				opendate_tmp[0] = 0x01;
 2087              		.loc 1 862 0
 2088 00b8 0123     		movs	r3, #1
 2089 00ba 2370     		strb	r3, [r4]
 863:Code\Device\W25Q80/user_data.c **** 				memcpy(opendate_tmp+1,(uint8 *)&OpenInfo,16);
 2090              		.loc 1 863 0
 2091 00bc 6B46     		mov	r3, sp
 2092 00be 1B7A     		ldrb	r3, [r3, #8]
 2093 00c0 08A8     		add	r0, sp, #32
 2094 00c2 3372     		strb	r3, [r6, #8]
 2095 00c4 6B46     		mov	r3, sp
 2096 00c6 1B7B     		ldrb	r3, [r3, #12]
 2097 00c8 3100     		movs	r1, r6
 2098 00ca 7372     		strb	r3, [r6, #9]
 2099 00cc 6B46     		mov	r3, sp
 2100 00ce 1B7C     		ldrb	r3, [r3, #16]
 2101 00d0 1022     		movs	r2, #16
 2102 00d2 B372     		strb	r3, [r6, #10]
 2103 00d4 6B46     		mov	r3, sp
 2104 00d6 1B7D     		ldrb	r3, [r3, #20]
 2105 00d8 F372     		strb	r3, [r6, #11]
 2106 00da 1523     		movs	r3, #21
 2107 00dc 1B18     		adds	r3, r3, r0
 2108 00de 1800     		movs	r0, r3
 2109 00e0 FFF7FEFF 		bl	memcpy
 2110              	.LVL222:
 864:Code\Device\W25Q80/user_data.c **** 				W25QXX_Write((uint8 *)opendate_tmp, OPEN_INFO_BASE + i * (1 + sizeof(open_door_t)), (sizeof(ope
 2111              		.loc 1 864 0
 2112 00e4 B823     		movs	r3, #184
 2113 00e6 9B01     		lsls	r3, r3, #6
 2114 00e8 E918     		adds	r1, r5, r3
 2115 00ea 2000     		movs	r0, r4
 2116 00ec 1122     		movs	r2, #17
 2117 00ee FFF7FEFF 		bl	W25QXX_Write
 2118              	.LVL223:
 865:Code\Device\W25Q80/user_data.c **** 				  //==Write_OpenInfo((open_door_t *)&OpenInfo, 0);				
 866:Code\Device\W25Q80/user_data.c **** 				Write_Open_UploadFlag(i, TRUE);
 2119              		.loc 1 866 0
 2120 00f2 0121     		movs	r1, #1
 2121 00f4 3800     		movs	r0, r7
 2122 00f6 FFF7FEFF 		bl	Write_Open_UploadFlag
 2123              	.LVL224:
 2124 00fa 03E0     		b	.L122
 2125              	.LVL225:
 2126              	.L121:
 867:Code\Device\W25Q80/user_data.c **** 			}
 868:Code\Device\W25Q80/user_data.c **** 			else if ((open_time_flash + Delta) < open_time_utc)
 2127              		.loc 1 868 0
 2128 00fc 019A     		ldr	r2, [sp, #4]
 2129 00fe 1E33     		adds	r3, r3, #30
 2130              	.LVL226:
 2131 0100 9A42     		cmp	r2, r3
 2132 0102 6ED8     		bhi	.L117
 2133              	.LVL227:
 2134              	.L122:
 835:Code\Device\W25Q80/user_data.c **** 		{
 2135              		.loc 1 835 0
ARM GAS  C:\Users\Administrator\AppData\Local\Temp\ccPIvPLo.s 			page 55


 2136 0104 791E     		subs	r1, r7, #1
 2137 0106 88B2     		uxth	r0, r1
 2138              	.LVL228:
 869:Code\Device\W25Q80/user_data.c **** 			{
 870:Code\Device\W25Q80/user_data.c **** 				return;
 871:Code\Device\W25Q80/user_data.c **** 			}
 872:Code\Device\W25Q80/user_data.c **** 		}
 2139              		.loc 1 872 0
 2140 0108 97E7     		b	.L124
 2141              	.LVL229:
 2142              	.L130:
 873:Code\Device\W25Q80/user_data.c **** 	}
 874:Code\Device\W25Q80/user_data.c **** 	else
 875:Code\Device\W25Q80/user_data.c **** 	{
 876:Code\Device\W25Q80/user_data.c **** 		for (i = OpenQty - 1; i >= OpenQty - MAX_OPEN_NUM; i--)
 877:Code\Device\W25Q80/user_data.c **** 		{
 878:Code\Device\W25Q80/user_data.c **** 			i %= MAX_OPEN_NUM;
 2143              		.loc 1 878 0
 2144 010a 3749     		ldr	r1, .L134
 2145 010c FFF7FEFF 		bl	__aeabi_uidivmod
 2146              	.LVL230:
 879:Code\Device\W25Q80/user_data.c **** 			readoff = i * (1 + sizeof(open_door_t));
 2147              		.loc 1 879 0
 2148 0110 1125     		movs	r5, #17
 878:Code\Device\W25Q80/user_data.c **** 			readoff = i * (1 + sizeof(open_door_t));
 2149              		.loc 1 878 0
 2150 0112 8BB2     		uxth	r3, r1
 2151              		.loc 1 879 0
 2152 0114 5D43     		muls	r5, r3
 880:Code\Device\W25Q80/user_data.c **** 			if((readoff % 0xff) == 0)
 2153              		.loc 1 880 0
 2154 0116 FF21     		movs	r1, #255
 2155 0118 2800     		movs	r0, r5
 878:Code\Device\W25Q80/user_data.c **** 			readoff = i * (1 + sizeof(open_door_t));
 2156              		.loc 1 878 0
 2157 011a 0293     		str	r3, [sp, #8]
 2158              	.LVL231:
 2159              		.loc 1 880 0
 2160 011c FFF7FEFF 		bl	__aeabi_uidivmod
 2161              	.LVL232:
 2162 0120 0DAC     		add	r4, sp, #52
 2163 0122 0029     		cmp	r1, #0
 2164 0124 53D1     		bne	.L126
 2165              	.LVL233:
 881:Code\Device\W25Q80/user_data.c **** 			{
 882:Code\Device\W25Q80/user_data.c **** 				readoff += 1;
 883:Code\Device\W25Q80/user_data.c **** 				W25QXX_Read((uint8 *)opendate_tmp+1, OPEN_INFO_BASE + (readoff), (sizeof(open_door_t)));
 2166              		.loc 1 883 0
 2167 0126 1520     		movs	r0, #21
 2168 0128 1022     		movs	r2, #16
 2169 012a 304B     		ldr	r3, .L134+4
 2170 012c E918     		adds	r1, r5, r3
 2171 012e 08AB     		add	r3, sp, #32
 2172 0130 C018     		adds	r0, r0, r3
 2173              	.LVL234:
 2174              	.L133:
 884:Code\Device\W25Q80/user_data.c **** 			}
ARM GAS  C:\Users\Administrator\AppData\Local\Temp\ccPIvPLo.s 			page 56


 885:Code\Device\W25Q80/user_data.c **** 			else
 886:Code\Device\W25Q80/user_data.c **** 			{
 887:Code\Device\W25Q80/user_data.c **** 				W25QXX_Read((uint8 *)opendate_tmp, OPEN_INFO_BASE + (readoff), (sizeof(open_door_t) + 1));
 2175              		.loc 1 887 0
 2176 0132 FFF7FEFF 		bl	W25QXX_Read
 2177              	.LVL235:
 888:Code\Device\W25Q80/user_data.c **** 			}
 889:Code\Device\W25Q80/user_data.c **** 			//W25QXX_Read((uint8 *)opendate_tmp, OPEN_INFO_BASE + i * (1+sizeof(open_door_t)), (sizeof(open_
 890:Code\Device\W25Q80/user_data.c **** 			memcpy((uint8 *)&OpenInfo, opendate_tmp+1, 16);
 2178              		.loc 1 890 0
 2179 0136 1523     		movs	r3, #21
 2180 0138 08A9     		add	r1, sp, #32
 2181 013a 5B18     		adds	r3, r3, r1
 2182 013c 09AE     		add	r6, sp, #36
 2183 013e 1022     		movs	r2, #16
 2184 0140 1900     		movs	r1, r3
 2185 0142 3000     		movs	r0, r6
 2186 0144 FFF7FEFF 		bl	memcpy
 2187              	.LVL236:
 2188 0148 637A     		ldrb	r3, [r4, #9]
 2189 014a 0693     		str	r3, [sp, #24]
 2190              	.LVL237:
 2191 014c A37A     		ldrb	r3, [r4, #10]
 2192 014e 0593     		str	r3, [sp, #20]
 2193              	.LVL238:
 2194 0150 E37A     		ldrb	r3, [r4, #11]
 2195 0152 0493     		str	r3, [sp, #16]
 2196              	.LVL239:
 2197 0154 237B     		ldrb	r3, [r4, #12]
 2198 0156 0393     		str	r3, [sp, #12]
 2199              	.LVL240:
 891:Code\Device\W25Q80/user_data.c **** 			
 892:Code\Device\W25Q80/user_data.c **** 			//==Read_OpenInfo(i,&OpenInfo);
 893:Code\Device\W25Q80/user_data.c **** 			open_time_flash = BYTE2LONG(OpenInfo.open_time[0], OpenInfo.open_time[1],
 2200              		.loc 1 893 0
 2201 0158 069B     		ldr	r3, [sp, #24]
 2202 015a 1A06     		lsls	r2, r3, #24
 2203 015c 059B     		ldr	r3, [sp, #20]
 2204 015e 1B04     		lsls	r3, r3, #16
 2205 0160 1343     		orrs	r3, r2
 2206 0162 039A     		ldr	r2, [sp, #12]
 2207 0164 1343     		orrs	r3, r2
 2208 0166 049A     		ldr	r2, [sp, #16]
 2209 0168 1202     		lsls	r2, r2, #8
 2210 016a 1343     		orrs	r3, r2
 2211              	.LVL241:
 894:Code\Device\W25Q80/user_data.c **** 							 			OpenInfo.open_time[2], OpenInfo.open_time[3]);
 895:Code\Device\W25Q80/user_data.c **** 			if (open_time_flash == open_time_utc)
 2212              		.loc 1 895 0
 2213 016c 019A     		ldr	r2, [sp, #4]
 2214 016e 9A42     		cmp	r2, r3
 2215 0170 33D1     		bne	.L128
 896:Code\Device\W25Q80/user_data.c **** 			{
 897:Code\Device\W25Q80/user_data.c **** 				memcpy(OpenInfo.send_time, utc_time, TIME_LEN);
 2216              		.loc 1 897 0
 2217 0172 0422     		movs	r2, #4
 2218 0174 0799     		ldr	r1, [sp, #28]
ARM GAS  C:\Users\Administrator\AppData\Local\Temp\ccPIvPLo.s 			page 57


 2219 0176 0CA8     		add	r0, sp, #48
 2220 0178 FFF7FEFF 		bl	memcpy
 2221              	.LVL242:
 898:Code\Device\W25Q80/user_data.c **** 				opendate_tmp[0] = 0x01;
 2222              		.loc 1 898 0
 2223 017c 0123     		movs	r3, #1
 2224 017e 2370     		strb	r3, [r4]
 899:Code\Device\W25Q80/user_data.c **** 				memcpy(opendate_tmp+1,(uint8 *)&OpenInfo,16);
 2225              		.loc 1 899 0
 2226 0180 6B46     		mov	r3, sp
 2227 0182 1B7E     		ldrb	r3, [r3, #24]
 2228 0184 08A8     		add	r0, sp, #32
 2229 0186 3372     		strb	r3, [r6, #8]
 2230 0188 6B46     		mov	r3, sp
 2231 018a 1B7D     		ldrb	r3, [r3, #20]
 2232 018c 1022     		movs	r2, #16
 2233 018e 7372     		strb	r3, [r6, #9]
 2234 0190 6B46     		mov	r3, sp
 2235 0192 1B7C     		ldrb	r3, [r3, #16]
 2236 0194 3100     		movs	r1, r6
 2237 0196 B372     		strb	r3, [r6, #10]
 2238 0198 6B46     		mov	r3, sp
 2239 019a 1B7B     		ldrb	r3, [r3, #12]
 2240 019c F372     		strb	r3, [r6, #11]
 2241 019e 1523     		movs	r3, #21
 2242 01a0 1B18     		adds	r3, r3, r0
 2243 01a2 1800     		movs	r0, r3
 2244 01a4 FFF7FEFF 		bl	memcpy
 2245              	.LVL243:
 900:Code\Device\W25Q80/user_data.c **** 				W25QXX_Write((uint8 *)opendate_tmp, OPEN_INFO_BASE + i * (1 + sizeof(open_door_t)), (sizeof(ope
 2246              		.loc 1 900 0
 2247 01a8 B823     		movs	r3, #184
 2248 01aa 9B01     		lsls	r3, r3, #6
 2249 01ac E918     		adds	r1, r5, r3
 2250 01ae 2000     		movs	r0, r4
 2251 01b0 1122     		movs	r2, #17
 2252 01b2 FFF7FEFF 		bl	W25QXX_Write
 2253              	.LVL244:
 901:Code\Device\W25Q80/user_data.c **** 				
 902:Code\Device\W25Q80/user_data.c **** 				//==Write_OpenInfo((open_door_t *)&OpenInfo, 0);	
 903:Code\Device\W25Q80/user_data.c **** 				Write_Open_UploadFlag(i, TRUE);				
 2254              		.loc 1 903 0
 2255 01b6 0121     		movs	r1, #1
 2256 01b8 0298     		ldr	r0, [sp, #8]
 2257 01ba FFF7FEFF 		bl	Write_Open_UploadFlag
 2258              	.LVL245:
 2259              	.L129:
 876:Code\Device\W25Q80/user_data.c **** 		{
 2260              		.loc 1 876 0 discriminator 2
 2261 01be 0299     		ldr	r1, [sp, #8]
 2262 01c0 0139     		subs	r1, r1, #1
 2263 01c2 88B2     		uxth	r0, r1
 2264              	.LVL246:
 2265              	.L125:
 876:Code\Device\W25Q80/user_data.c **** 		{
 2266              		.loc 1 876 0 is_stmt 0 discriminator 1
 2267 01c4 0A4B     		ldr	r3, .L134+8
ARM GAS  C:\Users\Administrator\AppData\Local\Temp\ccPIvPLo.s 			page 58


 2268 01c6 FB18     		adds	r3, r7, r3
 2269 01c8 9842     		cmp	r0, r3
 2270 01ca 9EDA     		bge	.L130
 2271 01cc 09E0     		b	.L117
 2272              	.LVL247:
 2273              	.L126:
 887:Code\Device\W25Q80/user_data.c **** 			}
 2274              		.loc 1 887 0 is_stmt 1
 2275 01ce B823     		movs	r3, #184
 2276 01d0 9B01     		lsls	r3, r3, #6
 2277 01d2 1122     		movs	r2, #17
 2278 01d4 E918     		adds	r1, r5, r3
 2279 01d6 2000     		movs	r0, r4
 2280 01d8 ABE7     		b	.L133
 2281              	.LVL248:
 2282              	.L128:
 904:Code\Device\W25Q80/user_data.c **** 			}
 905:Code\Device\W25Q80/user_data.c **** 			else if (open_time_flash  + Delta < open_time_utc)
 2283              		.loc 1 905 0
 2284 01da 019A     		ldr	r2, [sp, #4]
 2285 01dc 1E33     		adds	r3, r3, #30
 2286              	.LVL249:
 2287 01de 9A42     		cmp	r2, r3
 2288 01e0 EDD9     		bls	.L129
 2289              	.LVL250:
 2290              	.L117:
 906:Code\Device\W25Q80/user_data.c **** 			{
 907:Code\Device\W25Q80/user_data.c **** 				return;
 908:Code\Device\W25Q80/user_data.c **** 			}
 909:Code\Device\W25Q80/user_data.c **** 		}
 910:Code\Device\W25Q80/user_data.c **** 	}
 911:Code\Device\W25Q80/user_data.c **** }
 2291              		.loc 1 911 0
 2292 01e2 13B0     		add	sp, sp, #76
 2293              		@ sp needed
 2294 01e4 F0BD     		pop	{r4, r5, r6, r7, pc}
 2295              	.L135:
 2296 01e6 C046     		.align	2
 2297              	.L134:
 2298 01e8 88130000 		.word	5000
 2299 01ec 012E0000 		.word	11777
 2300 01f0 78ECFFFF 		.word	-5000
 2301              		.cfi_endproc
 2302              	.LFE95:
 2303              		.size	FindAndSet_UploadTime_UploadFlag, .-FindAndSet_UploadTime_UploadFlag
 2304              		.section	.text.Write_RebootType,"ax",%progbits
 2305              		.align	1
 2306              		.global	Write_RebootType
 2307              		.code	16
 2308              		.thumb_func
 2309              		.type	Write_RebootType, %function
 2310              	Write_RebootType:
 2311              	.LFB96:
 912:Code\Device\W25Q80/user_data.c **** 
 913:Code\Device\W25Q80/user_data.c **** #if 0
 914:Code\Device\W25Q80/user_data.c **** uint16 FindfailOpeninfo_offset(uint8 open_time[])
 915:Code\Device\W25Q80/user_data.c **** {
ARM GAS  C:\Users\Administrator\AppData\Local\Temp\ccPIvPLo.s 			page 59


 916:Code\Device\W25Q80/user_data.c **** 	uint16 i, OpenQty;
 917:Code\Device\W25Q80/user_data.c **** 	open_door_t OpenInfo;
 918:Code\Device\W25Q80/user_data.c **** 	uint32 open_time_utc;
 919:Code\Device\W25Q80/user_data.c **** 	uint32 open_time_flash;
 920:Code\Device\W25Q80/user_data.c **** 	
 921:Code\Device\W25Q80/user_data.c **** 	open_time_utc = BYTE2LONG(open_time[0], open_time[1], open_time[2], open_time[3]);
 922:Code\Device\W25Q80/user_data.c **** 	OpenQty = Read_Open_Qty();
 923:Code\Device\W25Q80/user_data.c **** 	if (OpenQty <= MAX_OPEN_NUM)							// 总数少于5000的情况 没有覆盖
 924:Code\Device\W25Q80/user_data.c **** 	{
 925:Code\Device\W25Q80/user_data.c **** 		for (i = OpenQty - 1; i >= 0; i--)
 926:Code\Device\W25Q80/user_data.c **** 		{
 927:Code\Device\W25Q80/user_data.c **** 			i %= MAX_OPEN_NUM;
 928:Code\Device\W25Q80/user_data.c **** 			W25QXX_Read((uint8 *)&OpenInfo, OPEN_INFO_BASE + i * sizeof(open_door_t), sizeof(open_door_t));
 929:Code\Device\W25Q80/user_data.c **** 			open_time_flash = BYTE2LONG(OpenInfo.open_time[0], OpenInfo.open_time[1],
 930:Code\Device\W25Q80/user_data.c **** 							 			OpenInfo.open_time[2], OpenInfo.open_time[3]);
 931:Code\Device\W25Q80/user_data.c **** 			if (open_time_flash == open_time_utc)
 932:Code\Device\W25Q80/user_data.c **** 			{
 933:Code\Device\W25Q80/user_data.c **** 				return i;
 934:Code\Device\W25Q80/user_data.c **** 			}
 935:Code\Device\W25Q80/user_data.c **** 		}
 936:Code\Device\W25Q80/user_data.c **** 	}
 937:Code\Device\W25Q80/user_data.c **** 	else												// 总数超过5000 有覆盖
 938:Code\Device\W25Q80/user_data.c **** 	{
 939:Code\Device\W25Q80/user_data.c **** 		for (i = OpenQty - 1; i >= OpenQty - MAX_OPEN_NUM; i--)
 940:Code\Device\W25Q80/user_data.c **** 		{
 941:Code\Device\W25Q80/user_data.c **** 			i %= MAX_OPEN_NUM;
 942:Code\Device\W25Q80/user_data.c **** 			W25QXX_Read((uint8 *)&OpenInfo, OPEN_INFO_BASE + i * sizeof(open_door_t), sizeof(open_door_t));
 943:Code\Device\W25Q80/user_data.c **** 			open_time_flash = BYTE2LONG(OpenInfo.open_time[0], OpenInfo.open_time[1],
 944:Code\Device\W25Q80/user_data.c **** 							 			OpenInfo.open_time[2], OpenInfo.open_time[3]);
 945:Code\Device\W25Q80/user_data.c **** 			if (open_time_flash == open_time_utc)
 946:Code\Device\W25Q80/user_data.c **** 			{
 947:Code\Device\W25Q80/user_data.c **** 				return i;
 948:Code\Device\W25Q80/user_data.c **** 			}
 949:Code\Device\W25Q80/user_data.c **** 		}
 950:Code\Device\W25Q80/user_data.c **** 	}
 951:Code\Device\W25Q80/user_data.c **** 
 952:Code\Device\W25Q80/user_data.c **** }
 953:Code\Device\W25Q80/user_data.c **** #endif
 954:Code\Device\W25Q80/user_data.c **** 
 955:Code\Device\W25Q80/user_data.c **** 
 956:Code\Device\W25Q80/user_data.c **** //*************************************************************************************************
 957:Code\Device\W25Q80/user_data.c **** // Function name	: Write_RebootType
 958:Code\Device\W25Q80/user_data.c **** // Description		: 写重启类型
 959:Code\Device\W25Q80/user_data.c **** // Parameter		: rType	    : 重启类型
 960:Code\Device\W25Q80/user_data.c **** // Return			: none
 961:Code\Device\W25Q80/user_data.c **** //-------------------------------------------------------------------------------------------------
 962:Code\Device\W25Q80/user_data.c **** // Info				: 
 963:Code\Device\W25Q80/user_data.c **** //*************************************************************************************************
 964:Code\Device\W25Q80/user_data.c **** void Write_RebootType(uint8 rType)
 965:Code\Device\W25Q80/user_data.c **** {
 2312              		.loc 1 965 0
 2313              		.cfi_startproc
 2314              		@ args = 0, pretend = 0, frame = 8
 2315              		@ frame_needed = 0, uses_anonymous_args = 0
 2316              	.LVL251:
 2317 0000 07B5     		push	{r0, r1, r2, lr}
 2318              		.cfi_def_cfa_offset 16
ARM GAS  C:\Users\Administrator\AppData\Local\Temp\ccPIvPLo.s 			page 60


 2319              		.cfi_offset 0, -16
 2320              		.cfi_offset 1, -12
 2321              		.cfi_offset 2, -8
 2322              		.cfi_offset 14, -4
 2323              		.loc 1 965 0
 2324 0002 6B46     		mov	r3, sp
 2325 0004 D871     		strb	r0, [r3, #7]
 2326 0006 0733     		adds	r3, r3, #7
 966:Code\Device\W25Q80/user_data.c **** 	W25QXX_Write((uint8 *)&rType, REBOOT_TYPE, 1);
 2327              		.loc 1 966 0
 2328 0008 0122     		movs	r2, #1
 2329 000a 0249     		ldr	r1, .L137
 2330 000c 1800     		movs	r0, r3
 2331              	.LVL252:
 2332 000e FFF7FEFF 		bl	W25QXX_Write
 2333              	.LVL253:
 967:Code\Device\W25Q80/user_data.c **** }
 2334              		.loc 1 967 0
 2335              		@ sp needed
 2336 0012 07BD     		pop	{r0, r1, r2, pc}
 2337              	.L138:
 2338              		.align	2
 2339              	.L137:
 2340 0014 00910100 		.word	102656
 2341              		.cfi_endproc
 2342              	.LFE96:
 2343              		.size	Write_RebootType, .-Write_RebootType
 2344              		.section	.text.Read_RebootType,"ax",%progbits
 2345              		.align	1
 2346              		.global	Read_RebootType
 2347              		.code	16
 2348              		.thumb_func
 2349              		.type	Read_RebootType, %function
 2350              	Read_RebootType:
 2351              	.LFB97:
 968:Code\Device\W25Q80/user_data.c **** 
 969:Code\Device\W25Q80/user_data.c **** //*************************************************************************************************
 970:Code\Device\W25Q80/user_data.c **** // Function name	: Read_RebootType
 971:Code\Device\W25Q80/user_data.c **** // Description		: 读重启类型
 972:Code\Device\W25Q80/user_data.c **** // Parameter		: none
 973:Code\Device\W25Q80/user_data.c **** // Return			: rType	    : 重启类型
 974:Code\Device\W25Q80/user_data.c **** //-------------------------------------------------------------------------------------------------
 975:Code\Device\W25Q80/user_data.c **** // Info				: 
 976:Code\Device\W25Q80/user_data.c **** //*************************************************************************************************
 977:Code\Device\W25Q80/user_data.c **** uint8 Read_RebootType(void)
 978:Code\Device\W25Q80/user_data.c **** {
 2352              		.loc 1 978 0
 2353              		.cfi_startproc
 2354              		@ args = 0, pretend = 0, frame = 8
 2355              		@ frame_needed = 0, uses_anonymous_args = 0
 2356 0000 13B5     		push	{r0, r1, r4, lr}
 2357              		.cfi_def_cfa_offset 16
 2358              		.cfi_offset 0, -16
 2359              		.cfi_offset 1, -12
 2360              		.cfi_offset 4, -8
 2361              		.cfi_offset 14, -4
 979:Code\Device\W25Q80/user_data.c ****     uint8 rType;
ARM GAS  C:\Users\Administrator\AppData\Local\Temp\ccPIvPLo.s 			page 61


 980:Code\Device\W25Q80/user_data.c ****     
 981:Code\Device\W25Q80/user_data.c **** 	W25QXX_Read((uint8 *)&rType, REBOOT_TYPE, 1);
 2362              		.loc 1 981 0
 2363 0002 6B46     		mov	r3, sp
 2364 0004 DC1D     		adds	r4, r3, #7
 2365 0006 2000     		movs	r0, r4
 2366 0008 0122     		movs	r2, #1
 2367 000a 0249     		ldr	r1, .L140
 2368 000c FFF7FEFF 		bl	W25QXX_Read
 2369              	.LVL254:
 982:Code\Device\W25Q80/user_data.c ****     return rType;
 983:Code\Device\W25Q80/user_data.c **** }
 2370              		.loc 1 983 0
 2371              		@ sp needed
 982:Code\Device\W25Q80/user_data.c ****     return rType;
 2372              		.loc 1 982 0
 2373 0010 2078     		ldrb	r0, [r4]
 2374              		.loc 1 983 0
 2375 0012 16BD     		pop	{r1, r2, r4, pc}
 2376              	.L141:
 2377              		.align	2
 2378              	.L140:
 2379 0014 00910100 		.word	102656
 2380              		.cfi_endproc
 2381              	.LFE97:
 2382              		.size	Read_RebootType, .-Read_RebootType
 2383              		.section	.text.Write_CenterIpType,"ax",%progbits
 2384              		.align	1
 2385              		.global	Write_CenterIpType
 2386              		.code	16
 2387              		.thumb_func
 2388              		.type	Write_CenterIpType, %function
 2389              	Write_CenterIpType:
 2390              	.LFB98:
 984:Code\Device\W25Q80/user_data.c **** 
 985:Code\Device\W25Q80/user_data.c **** //*************************************************************************************************
 986:Code\Device\W25Q80/user_data.c **** // Function name	: Write_CenterIpType
 987:Code\Device\W25Q80/user_data.c **** // Description		: 写中心服务器类型
 988:Code\Device\W25Q80/user_data.c **** // Parameter		: rType	    : 中心服务器类型
 989:Code\Device\W25Q80/user_data.c **** // Return			: none
 990:Code\Device\W25Q80/user_data.c **** //-------------------------------------------------------------------------------------------------
 991:Code\Device\W25Q80/user_data.c **** // Info				: 
 992:Code\Device\W25Q80/user_data.c **** //*************************************************************************************************
 993:Code\Device\W25Q80/user_data.c **** void Write_CenterIpType(uint8 rType)
 994:Code\Device\W25Q80/user_data.c **** {
 2391              		.loc 1 994 0
 2392              		.cfi_startproc
 2393              		@ args = 0, pretend = 0, frame = 8
 2394              		@ frame_needed = 0, uses_anonymous_args = 0
 2395              	.LVL255:
 2396 0000 07B5     		push	{r0, r1, r2, lr}
 2397              		.cfi_def_cfa_offset 16
 2398              		.cfi_offset 0, -16
 2399              		.cfi_offset 1, -12
 2400              		.cfi_offset 2, -8
 2401              		.cfi_offset 14, -4
 2402              		.loc 1 994 0
ARM GAS  C:\Users\Administrator\AppData\Local\Temp\ccPIvPLo.s 			page 62


 2403 0002 6B46     		mov	r3, sp
 2404 0004 D871     		strb	r0, [r3, #7]
 2405 0006 0733     		adds	r3, r3, #7
 995:Code\Device\W25Q80/user_data.c **** 	W25QXX_Write((uint8 *)&rType, CenterIP_TYPE, 1);
 2406              		.loc 1 995 0
 2407 0008 0122     		movs	r2, #1
 2408 000a 0249     		ldr	r1, .L143
 2409 000c 1800     		movs	r0, r3
 2410              	.LVL256:
 2411 000e FFF7FEFF 		bl	W25QXX_Write
 2412              	.LVL257:
 996:Code\Device\W25Q80/user_data.c **** }
 2413              		.loc 1 996 0
 2414              		@ sp needed
 2415 0012 07BD     		pop	{r0, r1, r2, pc}
 2416              	.L144:
 2417              		.align	2
 2418              	.L143:
 2419 0014 01910100 		.word	102657
 2420              		.cfi_endproc
 2421              	.LFE98:
 2422              		.size	Write_CenterIpType, .-Write_CenterIpType
 2423              		.section	.text.Read_CenterIpType,"ax",%progbits
 2424              		.align	1
 2425              		.global	Read_CenterIpType
 2426              		.code	16
 2427              		.thumb_func
 2428              		.type	Read_CenterIpType, %function
 2429              	Read_CenterIpType:
 2430              	.LFB99:
 997:Code\Device\W25Q80/user_data.c **** 
 998:Code\Device\W25Q80/user_data.c **** //*************************************************************************************************
 999:Code\Device\W25Q80/user_data.c **** // Function name	: Read_RebootType
1000:Code\Device\W25Q80/user_data.c **** // Description		: 读中心服务器类型
1001:Code\Device\W25Q80/user_data.c **** // Parameter		: none
1002:Code\Device\W25Q80/user_data.c **** // Return			: rType	    : 中心服务器类型
1003:Code\Device\W25Q80/user_data.c **** //-------------------------------------------------------------------------------------------------
1004:Code\Device\W25Q80/user_data.c **** // Info				: 
1005:Code\Device\W25Q80/user_data.c **** //*************************************************************************************************
1006:Code\Device\W25Q80/user_data.c **** uint8 Read_CenterIpType(void)
1007:Code\Device\W25Q80/user_data.c **** {
 2431              		.loc 1 1007 0
 2432              		.cfi_startproc
 2433              		@ args = 0, pretend = 0, frame = 8
 2434              		@ frame_needed = 0, uses_anonymous_args = 0
 2435 0000 13B5     		push	{r0, r1, r4, lr}
 2436              		.cfi_def_cfa_offset 16
 2437              		.cfi_offset 0, -16
 2438              		.cfi_offset 1, -12
 2439              		.cfi_offset 4, -8
 2440              		.cfi_offset 14, -4
1008:Code\Device\W25Q80/user_data.c ****     uint8 rType;
1009:Code\Device\W25Q80/user_data.c ****     
1010:Code\Device\W25Q80/user_data.c **** 	W25QXX_Read((uint8 *)&rType, CenterIP_TYPE, 1);
 2441              		.loc 1 1010 0
 2442 0002 6B46     		mov	r3, sp
 2443 0004 DC1D     		adds	r4, r3, #7
ARM GAS  C:\Users\Administrator\AppData\Local\Temp\ccPIvPLo.s 			page 63


 2444 0006 2000     		movs	r0, r4
 2445 0008 0122     		movs	r2, #1
 2446 000a 0249     		ldr	r1, .L146
 2447 000c FFF7FEFF 		bl	W25QXX_Read
 2448              	.LVL258:
1011:Code\Device\W25Q80/user_data.c ****     return rType;
1012:Code\Device\W25Q80/user_data.c **** }
 2449              		.loc 1 1012 0
 2450              		@ sp needed
1011:Code\Device\W25Q80/user_data.c ****     return rType;
 2451              		.loc 1 1011 0
 2452 0010 2078     		ldrb	r0, [r4]
 2453              		.loc 1 1012 0
 2454 0012 16BD     		pop	{r1, r2, r4, pc}
 2455              	.L147:
 2456              		.align	2
 2457              	.L146:
 2458 0014 01910100 		.word	102657
 2459              		.cfi_endproc
 2460              	.LFE99:
 2461              		.size	Read_CenterIpType, .-Read_CenterIpType
 2462              		.section	.text.Write_UpdateInfo,"ax",%progbits
 2463              		.align	1
 2464              		.global	Write_UpdateInfo
 2465              		.code	16
 2466              		.thumb_func
 2467              		.type	Write_UpdateInfo, %function
 2468              	Write_UpdateInfo:
 2469              	.LFB100:
1013:Code\Device\W25Q80/user_data.c **** 
1014:Code\Device\W25Q80/user_data.c **** //*************************************************************************************************
1015:Code\Device\W25Q80/user_data.c **** // Function name	: Write_UpdateInfo
1016:Code\Device\W25Q80/user_data.c **** // Description		: 存升级版本和标志
1017:Code\Device\W25Q80/user_data.c **** // Parameter		: flag/ver
1018:Code\Device\W25Q80/user_data.c **** // Return			: none
1019:Code\Device\W25Q80/user_data.c **** //-------------------------------------------------------------------------------------------------
1020:Code\Device\W25Q80/user_data.c **** // Info				: 
1021:Code\Device\W25Q80/user_data.c **** //*************************************************************************************************
1022:Code\Device\W25Q80/user_data.c **** void Write_UpdateInfo(uint8 flag, uint16 ver)
1023:Code\Device\W25Q80/user_data.c **** {
 2470              		.loc 1 1023 0
 2471              		.cfi_startproc
 2472              		@ args = 0, pretend = 0, frame = 8
 2473              		@ frame_needed = 0, uses_anonymous_args = 0
 2474              	.LVL259:
 2475 0000 F7B5     		push	{r0, r1, r2, r4, r5, r6, r7, lr}
 2476              		.cfi_def_cfa_offset 32
 2477              		.cfi_offset 0, -32
 2478              		.cfi_offset 1, -28
 2479              		.cfi_offset 2, -24
 2480              		.cfi_offset 4, -20
 2481              		.cfi_offset 5, -16
 2482              		.cfi_offset 6, -12
 2483              		.cfi_offset 7, -8
 2484              		.cfi_offset 14, -4
1024:Code\Device\W25Q80/user_data.c **** 	uint8 tmp[3] = {0};
 2485              		.loc 1 1024 0
ARM GAS  C:\Users\Administrator\AppData\Local\Temp\ccPIvPLo.s 			page 64


 2486 0002 0325     		movs	r5, #3
1023:Code\Device\W25Q80/user_data.c **** 	uint8 tmp[3] = {0};
 2487              		.loc 1 1023 0
 2488 0004 0E00     		movs	r6, r1
 2489 0006 0700     		movs	r7, r0
 2490              		.loc 1 1024 0
 2491 0008 01AC     		add	r4, sp, #4
 2492 000a 2A00     		movs	r2, r5
 2493 000c 0021     		movs	r1, #0
 2494              	.LVL260:
 2495 000e 2000     		movs	r0, r4
 2496              	.LVL261:
 2497 0010 FFF7FEFF 		bl	memset
 2498              	.LVL262:
1025:Code\Device\W25Q80/user_data.c **** 	
1026:Code\Device\W25Q80/user_data.c **** 	tmp[0] = (uint8)(ver>>8);
 2499              		.loc 1 1026 0
 2500 0014 330A     		lsrs	r3, r6, #8
1027:Code\Device\W25Q80/user_data.c **** 	tmp[1] = (uint8)ver;
1028:Code\Device\W25Q80/user_data.c **** 	tmp[2] = flag;
1029:Code\Device\W25Q80/user_data.c **** 	
1030:Code\Device\W25Q80/user_data.c **** 	W25QXX_Write(tmp, UPDATE_SYSTEMVER, 3);
 2501              		.loc 1 1030 0
 2502 0016 2A00     		movs	r2, r5
 2503 0018 0349     		ldr	r1, .L149
 2504 001a 2000     		movs	r0, r4
1027:Code\Device\W25Q80/user_data.c **** 	tmp[1] = (uint8)ver;
 2505              		.loc 1 1027 0
 2506 001c 6670     		strb	r6, [r4, #1]
1028:Code\Device\W25Q80/user_data.c **** 	
 2507              		.loc 1 1028 0
 2508 001e A770     		strb	r7, [r4, #2]
1026:Code\Device\W25Q80/user_data.c **** 	tmp[1] = (uint8)ver;
 2509              		.loc 1 1026 0
 2510 0020 2370     		strb	r3, [r4]
1031:Code\Device\W25Q80/user_data.c **** 	
1032:Code\Device\W25Q80/user_data.c **** }
 2511              		.loc 1 1032 0
 2512              		@ sp needed
1030:Code\Device\W25Q80/user_data.c **** 	
 2513              		.loc 1 1030 0
 2514 0022 FFF7FEFF 		bl	W25QXX_Write
 2515              	.LVL263:
 2516              		.loc 1 1032 0
 2517 0026 F7BD     		pop	{r0, r1, r2, r4, r5, r6, r7, pc}
 2518              	.L150:
 2519              		.align	2
 2520              	.L149:
 2521 0028 03910100 		.word	102659
 2522              		.cfi_endproc
 2523              	.LFE100:
 2524              		.size	Write_UpdateInfo, .-Write_UpdateInfo
 2525              		.section	.text.Read_Updateflag,"ax",%progbits
 2526              		.align	1
 2527              		.global	Read_Updateflag
 2528              		.code	16
 2529              		.thumb_func
ARM GAS  C:\Users\Administrator\AppData\Local\Temp\ccPIvPLo.s 			page 65


 2530              		.type	Read_Updateflag, %function
 2531              	Read_Updateflag:
 2532              	.LFB101:
1033:Code\Device\W25Q80/user_data.c **** 
1034:Code\Device\W25Q80/user_data.c **** 
1035:Code\Device\W25Q80/user_data.c **** //*************************************************************************************************
1036:Code\Device\W25Q80/user_data.c **** // Function name	: Read_Updateflag
1037:Code\Device\W25Q80/user_data.c **** // Description		: 读升级标志
1038:Code\Device\W25Q80/user_data.c **** // Parameter		: none
1039:Code\Device\W25Q80/user_data.c **** // Return			: flag
1040:Code\Device\W25Q80/user_data.c **** //-------------------------------------------------------------------------------------------------
1041:Code\Device\W25Q80/user_data.c **** // Info				: 
1042:Code\Device\W25Q80/user_data.c **** //*************************************************************************************************
1043:Code\Device\W25Q80/user_data.c **** uint8 Read_Updateflag(void)
1044:Code\Device\W25Q80/user_data.c **** {	
 2533              		.loc 1 1044 0
 2534              		.cfi_startproc
 2535              		@ args = 0, pretend = 0, frame = 8
 2536              		@ frame_needed = 0, uses_anonymous_args = 0
 2537 0000 13B5     		push	{r0, r1, r4, lr}
 2538              		.cfi_def_cfa_offset 16
 2539              		.cfi_offset 0, -16
 2540              		.cfi_offset 1, -12
 2541              		.cfi_offset 4, -8
 2542              		.cfi_offset 14, -4
1045:Code\Device\W25Q80/user_data.c **** 	uint8 flag;
1046:Code\Device\W25Q80/user_data.c **** 	W25QXX_Read((uint8 *)&flag, UPDATE_FLAG, 1);
 2543              		.loc 1 1046 0
 2544 0002 6B46     		mov	r3, sp
 2545 0004 DC1D     		adds	r4, r3, #7
 2546 0006 2000     		movs	r0, r4
 2547 0008 0122     		movs	r2, #1
 2548 000a 0249     		ldr	r1, .L152
 2549 000c FFF7FEFF 		bl	W25QXX_Read
 2550              	.LVL264:
1047:Code\Device\W25Q80/user_data.c **** 	return flag;
1048:Code\Device\W25Q80/user_data.c **** }
 2551              		.loc 1 1048 0
 2552              		@ sp needed
1047:Code\Device\W25Q80/user_data.c **** 	return flag;
 2553              		.loc 1 1047 0
 2554 0010 2078     		ldrb	r0, [r4]
 2555              		.loc 1 1048 0
 2556 0012 16BD     		pop	{r1, r2, r4, pc}
 2557              	.L153:
 2558              		.align	2
 2559              	.L152:
 2560 0014 05910100 		.word	102661
 2561              		.cfi_endproc
 2562              	.LFE101:
 2563              		.size	Read_Updateflag, .-Read_Updateflag
 2564              		.section	.text.Read_UpdateVer,"ax",%progbits
 2565              		.align	1
 2566              		.global	Read_UpdateVer
 2567              		.code	16
 2568              		.thumb_func
 2569              		.type	Read_UpdateVer, %function
ARM GAS  C:\Users\Administrator\AppData\Local\Temp\ccPIvPLo.s 			page 66


 2570              	Read_UpdateVer:
 2571              	.LFB102:
1049:Code\Device\W25Q80/user_data.c **** 
1050:Code\Device\W25Q80/user_data.c **** //*************************************************************************************************
1051:Code\Device\W25Q80/user_data.c **** // Function name	: Read_UpdateVer
1052:Code\Device\W25Q80/user_data.c **** // Description		: 读升级版本
1053:Code\Device\W25Q80/user_data.c **** // Parameter		: none
1054:Code\Device\W25Q80/user_data.c **** // Return			: flag
1055:Code\Device\W25Q80/user_data.c **** //-------------------------------------------------------------------------------------------------
1056:Code\Device\W25Q80/user_data.c **** // Info				: 
1057:Code\Device\W25Q80/user_data.c **** //*************************************************************************************************
1058:Code\Device\W25Q80/user_data.c **** uint8 Read_UpdateVer(void)
1059:Code\Device\W25Q80/user_data.c **** {	
 2572              		.loc 1 1059 0
 2573              		.cfi_startproc
 2574              		@ args = 0, pretend = 0, frame = 8
 2575              		@ frame_needed = 0, uses_anonymous_args = 0
 2576 0000 13B5     		push	{r0, r1, r4, lr}
 2577              		.cfi_def_cfa_offset 16
 2578              		.cfi_offset 0, -16
 2579              		.cfi_offset 1, -12
 2580              		.cfi_offset 4, -8
 2581              		.cfi_offset 14, -4
1060:Code\Device\W25Q80/user_data.c **** 	uint8 ver;
1061:Code\Device\W25Q80/user_data.c **** 	W25QXX_Read((uint8 *)&ver, UPDATE_SYSTEMVER, 1);
 2582              		.loc 1 1061 0
 2583 0002 6B46     		mov	r3, sp
 2584 0004 DC1D     		adds	r4, r3, #7
 2585 0006 2000     		movs	r0, r4
 2586 0008 0122     		movs	r2, #1
 2587 000a 0249     		ldr	r1, .L155
 2588 000c FFF7FEFF 		bl	W25QXX_Read
 2589              	.LVL265:
1062:Code\Device\W25Q80/user_data.c **** 	return ver;
1063:Code\Device\W25Q80/user_data.c **** }
 2590              		.loc 1 1063 0
 2591              		@ sp needed
1062:Code\Device\W25Q80/user_data.c **** 	return ver;
 2592              		.loc 1 1062 0
 2593 0010 2078     		ldrb	r0, [r4]
 2594              		.loc 1 1063 0
 2595 0012 16BD     		pop	{r1, r2, r4, pc}
 2596              	.L156:
 2597              		.align	2
 2598              	.L155:
 2599 0014 03910100 		.word	102659
 2600              		.cfi_endproc
 2601              	.LFE102:
 2602              		.size	Read_UpdateVer, .-Read_UpdateVer
 2603              		.section	.text.Clear_AllOPeninfo,"ax",%progbits
 2604              		.align	1
 2605              		.global	Clear_AllOPeninfo
 2606              		.code	16
 2607              		.thumb_func
 2608              		.type	Clear_AllOPeninfo, %function
 2609              	Clear_AllOPeninfo:
 2610              	.LFB103:
ARM GAS  C:\Users\Administrator\AppData\Local\Temp\ccPIvPLo.s 			page 67


1064:Code\Device\W25Q80/user_data.c **** 
1065:Code\Device\W25Q80/user_data.c **** 
1066:Code\Device\W25Q80/user_data.c **** 
1067:Code\Device\W25Q80/user_data.c **** //*************************************************************************************************
1068:Code\Device\W25Q80/user_data.c **** // Function name	: Clear_AllOPeninfo
1069:Code\Device\W25Q80/user_data.c **** // Description		: 清除所有openinfo相关的信息区域
1070:Code\Device\W25Q80/user_data.c **** // Parameter		: none
1071:Code\Device\W25Q80/user_data.c **** // Return			: none
1072:Code\Device\W25Q80/user_data.c **** //-------------------------------------------------------------------------------------------------
1073:Code\Device\W25Q80/user_data.c **** // Info				: 测试用用 
1074:Code\Device\W25Q80/user_data.c **** //*************************************************************************************************
1075:Code\Device\W25Q80/user_data.c **** #if 1
1076:Code\Device\W25Q80/user_data.c **** void Clear_AllOPeninfo(void)
1077:Code\Device\W25Q80/user_data.c **** {
 2611              		.loc 1 1077 0
 2612              		.cfi_startproc
 2613              		@ args = 0, pretend = 0, frame = 5392
 2614              		@ frame_needed = 0, uses_anonymous_args = 0
 2615 0000 F0B5     		push	{r4, r5, r6, r7, lr}
 2616              		.cfi_def_cfa_offset 20
 2617              		.cfi_offset 4, -20
 2618              		.cfi_offset 5, -16
 2619              		.cfi_offset 6, -12
 2620              		.cfi_offset 7, -8
 2621              		.cfi_offset 14, -4
 2622 0002 224C     		ldr	r4, .L158
1078:Code\Device\W25Q80/user_data.c **** 	uint8_t opendate[256] = {0};
 2623              		.loc 1 1078 0
 2624 0004 8027     		movs	r7, #128
1077:Code\Device\W25Q80/user_data.c **** 	uint8_t opendate[256] = {0};
 2625              		.loc 1 1077 0
 2626 0006 A544     		add	sp, sp, r4
 2627              		.cfi_def_cfa_offset 5416
1079:Code\Device\W25Q80/user_data.c **** 	uint8_t opendate_flag[64] = {0};
 2628              		.loc 1 1079 0
 2629 0008 4024     		movs	r4, #64
1078:Code\Device\W25Q80/user_data.c **** 	uint8_t opendate[256] = {0};
 2630              		.loc 1 1078 0
 2631 000a 7F00     		lsls	r7, r7, #1
 2632 000c 3A00     		movs	r2, r7
 2633 000e 0021     		movs	r1, #0
 2634 0010 22A8     		add	r0, sp, #136
 2635 0012 FFF7FEFF 		bl	memset
 2636              	.LVL266:
 2637              		.loc 1 1079 0
 2638 0016 2200     		movs	r2, r4
 2639 0018 0021     		movs	r1, #0
 2640 001a 02A8     		add	r0, sp, #8
 2641 001c FFF7FEFF 		bl	memset
 2642              	.LVL267:
1080:Code\Device\W25Q80/user_data.c **** 	uint8_t opendate_qty[64] = {0};
 2643              		.loc 1 1080 0
 2644 0020 2200     		movs	r2, r4
 2645 0022 0021     		movs	r1, #0
 2646 0024 12A8     		add	r0, sp, #72
 2647 0026 FFF7FEFF 		bl	memset
 2648              	.LVL268:
ARM GAS  C:\Users\Administrator\AppData\Local\Temp\ccPIvPLo.s 			page 68


1081:Code\Device\W25Q80/user_data.c **** 	uint16_t data = 0;
 2649              		.loc 1 1081 0
 2650 002a 6B46     		mov	r3, sp
 2651 002c 0021     		movs	r1, #0
1082:Code\Device\W25Q80/user_data.c **** 	uint8_t flag[MAX_OPEN_NUM] = {0};
 2652              		.loc 1 1082 0
 2653 002e 184D     		ldr	r5, .L158+4
 2654 0030 62A8     		add	r0, sp, #392
 2655 0032 2A00     		movs	r2, r5
1081:Code\Device\W25Q80/user_data.c **** 	uint16_t data = 0;
 2656              		.loc 1 1081 0
 2657 0034 D980     		strh	r1, [r3, #6]
1083:Code\Device\W25Q80/user_data.c **** 	//memset(opendate,0xff,256);
1084:Code\Device\W25Q80/user_data.c **** 	//memset(opendate_flag,0xff,64);
1085:Code\Device\W25Q80/user_data.c **** 	//memset(flag,0xff,MAX_OPEN_NUM);
1086:Code\Device\W25Q80/user_data.c **** 	//清除flag区域
1087:Code\Device\W25Q80/user_data.c **** 	W25QXX_Write(flag,  OPEN_FLAG_BASE, MAX_OPEN_NUM);   
1088:Code\Device\W25Q80/user_data.c **** 	//清除数据区域
1089:Code\Device\W25Q80/user_data.c **** 	W25QXX_Write(flag,  OPEN_INFO_BASE, MAX_OPEN_NUM);  
 2658              		.loc 1 1089 0
 2659 0036 B826     		movs	r6, #184
1082:Code\Device\W25Q80/user_data.c **** 	uint8_t flag[MAX_OPEN_NUM] = {0};
 2660              		.loc 1 1082 0
 2661 0038 FFF7FEFF 		bl	memset
 2662              	.LVL269:
1087:Code\Device\W25Q80/user_data.c **** 	//清除数据区域
 2663              		.loc 1 1087 0
 2664 003c D021     		movs	r1, #208
 2665 003e 2A00     		movs	r2, r5
 2666 0040 62A8     		add	r0, sp, #392
 2667              		.loc 1 1089 0
 2668 0042 B601     		lsls	r6, r6, #6
1087:Code\Device\W25Q80/user_data.c **** 	//清除数据区域
 2669              		.loc 1 1087 0
 2670 0044 4901     		lsls	r1, r1, #5
 2671 0046 FFF7FEFF 		bl	W25QXX_Write
 2672              	.LVL270:
 2673              		.loc 1 1089 0
 2674 004a 2A00     		movs	r2, r5
 2675 004c 3100     		movs	r1, r6
 2676 004e 62A8     		add	r0, sp, #392
1090:Code\Device\W25Q80/user_data.c **** 	//W25QXX_Write((uint8_t *)&data,  OPEN_INFO_BASE+ (MAX_OPEN_NUM/2 *sizeof(open_door_t)), MAX_OPEN_
1091:Code\Device\W25Q80/user_data.c **** 	
1092:Code\Device\W25Q80/user_data.c **** 	//清除计数qty区域 2B
1093:Code\Device\W25Q80/user_data.c **** 	W25QXX_Write((uint8_t *)&data,  OPEN_QTY_BASE, 2);  
 2677              		.loc 1 1093 0
 2678 0050 C825     		movs	r5, #200
1089:Code\Device\W25Q80/user_data.c **** 	//W25QXX_Write((uint8_t *)&data,  OPEN_INFO_BASE+ (MAX_OPEN_NUM/2 *sizeof(open_door_t)), MAX_OPEN_
 2679              		.loc 1 1089 0
 2680 0052 FFF7FEFF 		bl	W25QXX_Write
 2681              	.LVL271:
 2682              		.loc 1 1093 0
 2683 0056 6B46     		mov	r3, sp
 2684 0058 6D02     		lsls	r5, r5, #9
 2685 005a 981D     		adds	r0, r3, #6
 2686 005c 2900     		movs	r1, r5
 2687 005e 0222     		movs	r2, #2
ARM GAS  C:\Users\Administrator\AppData\Local\Temp\ccPIvPLo.s 			page 69


 2688 0060 FFF7FEFF 		bl	W25QXX_Write
 2689              	.LVL272:
1094:Code\Device\W25Q80/user_data.c **** 	
1095:Code\Device\W25Q80/user_data.c **** 		//==测试开门信息日志表
1096:Code\Device\W25Q80/user_data.c **** 	W25QXX_Read(opendate, OPEN_INFO_BASE,256);
 2690              		.loc 1 1096 0
 2691 0064 3A00     		movs	r2, r7
 2692 0066 3100     		movs	r1, r6
 2693 0068 22A8     		add	r0, sp, #136
 2694 006a FFF7FEFF 		bl	W25QXX_Read
 2695              	.LVL273:
1097:Code\Device\W25Q80/user_data.c **** 	W25QXX_Read(opendate_flag, OPEN_FLAG_BASE,64);
 2696              		.loc 1 1097 0
 2697 006e D021     		movs	r1, #208
 2698 0070 2200     		movs	r2, r4
 2699 0072 02A8     		add	r0, sp, #8
 2700 0074 4901     		lsls	r1, r1, #5
 2701 0076 FFF7FEFF 		bl	W25QXX_Read
 2702              	.LVL274:
1098:Code\Device\W25Q80/user_data.c **** 	W25QXX_Read(opendate_qty, OPEN_QTY_BASE,64);
 2703              		.loc 1 1098 0
 2704 007a 2200     		movs	r2, r4
 2705 007c 2900     		movs	r1, r5
 2706 007e 12A8     		add	r0, sp, #72
 2707 0080 FFF7FEFF 		bl	W25QXX_Read
 2708              	.LVL275:
1099:Code\Device\W25Q80/user_data.c **** 	
1100:Code\Device\W25Q80/user_data.c **** 	DBG_SOFT_PutStr("\r\n Read open date:\r\n");
1101:Code\Device\W25Q80/user_data.c **** 	DBG_SOFT_PrintfHex(opendate,256,17);
1102:Code\Device\W25Q80/user_data.c **** 	
1103:Code\Device\W25Q80/user_data.c **** 	DBG_SOFT_PutStr("\r\n Read open flag:\r\n");
1104:Code\Device\W25Q80/user_data.c **** 	DBG_SOFT_PrintfHex(opendate_flag,64,16);
1105:Code\Device\W25Q80/user_data.c **** 	
1106:Code\Device\W25Q80/user_data.c **** 	DBG_SOFT_PutStr("\r\n Read open qty:\r\n");
1107:Code\Device\W25Q80/user_data.c **** 	DBG_SOFT_PrintfHex(opendate_qty,8,16);
1108:Code\Device\W25Q80/user_data.c **** }
 2709              		.loc 1 1108 0
 2710 0084 034B     		ldr	r3, .L158+8
 2711 0086 9D44     		add	sp, sp, r3
 2712              		@ sp needed
 2713 0088 F0BD     		pop	{r4, r5, r6, r7, pc}
 2714              	.L159:
 2715 008a C046     		.align	2
 2716              	.L158:
 2717 008c ECEAFFFF 		.word	-5396
 2718 0090 88130000 		.word	5000
 2719 0094 14150000 		.word	5396
 2720              		.cfi_endproc
 2721              	.LFE103:
 2722              		.size	Clear_AllOPeninfo, .-Clear_AllOPeninfo
 2723              		.section	.text.test_Flash,"ax",%progbits
 2724              		.align	1
 2725              		.global	test_Flash
 2726              		.code	16
 2727              		.thumb_func
 2728              		.type	test_Flash, %function
 2729              	test_Flash:
ARM GAS  C:\Users\Administrator\AppData\Local\Temp\ccPIvPLo.s 			page 70


 2730              	.LFB104:
1109:Code\Device\W25Q80/user_data.c **** #endif
1110:Code\Device\W25Q80/user_data.c **** 
1111:Code\Device\W25Q80/user_data.c **** void test_Flash(void)
1112:Code\Device\W25Q80/user_data.c **** {
 2731              		.loc 1 1112 0
 2732              		.cfi_startproc
 2733              		@ args = 0, pretend = 0, frame = 904
 2734              		@ frame_needed = 0, uses_anonymous_args = 0
 2735 0000 70B5     		push	{r4, r5, r6, lr}
 2736              		.cfi_def_cfa_offset 16
 2737              		.cfi_offset 4, -16
 2738              		.cfi_offset 5, -12
 2739              		.cfi_offset 6, -8
 2740              		.cfi_offset 14, -4
 2741 0002 204C     		ldr	r4, .L161
1113:Code\Device\W25Q80/user_data.c **** 	uint8_t userflag[64] = {0};
1114:Code\Device\W25Q80/user_data.c **** 	uint8_t userinfo[256] = {0};
 2742              		.loc 1 1114 0
 2743 0004 8026     		movs	r6, #128
1112:Code\Device\W25Q80/user_data.c **** 	uint8_t userflag[64] = {0};
 2744              		.loc 1 1112 0
 2745 0006 A544     		add	sp, sp, r4
 2746              		.cfi_def_cfa_offset 920
1113:Code\Device\W25Q80/user_data.c **** 	uint8_t userflag[64] = {0};
 2747              		.loc 1 1113 0
 2748 0008 4024     		movs	r4, #64
1115:Code\Device\W25Q80/user_data.c **** 	
1116:Code\Device\W25Q80/user_data.c **** 	//==测试用户信息日志表
1117:Code\Device\W25Q80/user_data.c **** 	W25QXX_Read(userflag, USER_FLAG_BASE,64);
1118:Code\Device\W25Q80/user_data.c **** 	W25QXX_Read(userinfo, USER_INFO_BASE,256);
 2749              		.loc 1 1118 0
 2750 000a 8025     		movs	r5, #128
1113:Code\Device\W25Q80/user_data.c **** 	uint8_t userinfo[256] = {0};
 2751              		.loc 1 1113 0
 2752 000c 2200     		movs	r2, r4
1114:Code\Device\W25Q80/user_data.c **** 	
 2753              		.loc 1 1114 0
 2754 000e 7600     		lsls	r6, r6, #1
1113:Code\Device\W25Q80/user_data.c **** 	uint8_t userinfo[256] = {0};
 2755              		.loc 1 1113 0
 2756 0010 0021     		movs	r1, #0
 2757 0012 02A8     		add	r0, sp, #8
 2758 0014 FFF7FEFF 		bl	memset
 2759              	.LVL276:
1114:Code\Device\W25Q80/user_data.c **** 	
 2760              		.loc 1 1114 0
 2761 0018 3200     		movs	r2, r6
 2762 001a 0021     		movs	r1, #0
 2763 001c 22A8     		add	r0, sp, #136
 2764 001e FFF7FEFF 		bl	memset
 2765              	.LVL277:
 2766              		.loc 1 1118 0
 2767 0022 AD00     		lsls	r5, r5, #2
1117:Code\Device\W25Q80/user_data.c **** 	W25QXX_Read(userinfo, USER_INFO_BASE,256);
 2768              		.loc 1 1117 0
 2769 0024 2200     		movs	r2, r4
ARM GAS  C:\Users\Administrator\AppData\Local\Temp\ccPIvPLo.s 			page 71


 2770 0026 02A8     		add	r0, sp, #8
 2771 0028 0021     		movs	r1, #0
 2772 002a FFF7FEFF 		bl	W25QXX_Read
 2773              	.LVL278:
 2774              		.loc 1 1118 0
 2775 002e 3200     		movs	r2, r6
 2776 0030 2900     		movs	r1, r5
 2777 0032 22A8     		add	r0, sp, #136
 2778 0034 FFF7FEFF 		bl	W25QXX_Read
 2779              	.LVL279:
1119:Code\Device\W25Q80/user_data.c **** 	
1120:Code\Device\W25Q80/user_data.c **** 	
1121:Code\Device\W25Q80/user_data.c **** 	DBG_SOFT_PutStr("\r\n userflag:\r\n");
1122:Code\Device\W25Q80/user_data.c **** 	DBG_SOFT_PrintfHex(userflag,16,16);
1123:Code\Device\W25Q80/user_data.c **** 	
1124:Code\Device\W25Q80/user_data.c **** 	DBG_SOFT_PutStr("\r\n userinfo:\r\n");
1125:Code\Device\W25Q80/user_data.c **** 	DBG_SOFT_PrintfHex(userinfo,96,16);
1126:Code\Device\W25Q80/user_data.c **** 	
1127:Code\Device\W25Q80/user_data.c **** 	uint8_t opendate[512] = {0};
 2780              		.loc 1 1127 0
 2781 0038 2A00     		movs	r2, r5
 2782 003a 0021     		movs	r1, #0
 2783 003c 62A8     		add	r0, sp, #392
 2784 003e FFF7FEFF 		bl	memset
 2785              	.LVL280:
1128:Code\Device\W25Q80/user_data.c **** 	uint8_t opendate_flag[64] = {0};
 2786              		.loc 1 1128 0
 2787 0042 2200     		movs	r2, r4
 2788 0044 0021     		movs	r1, #0
 2789 0046 12A8     		add	r0, sp, #72
 2790 0048 FFF7FEFF 		bl	memset
 2791              	.LVL281:
1129:Code\Device\W25Q80/user_data.c **** 	uint8_t opendate_qty[8] = {0};
 2792              		.loc 1 1129 0
 2793 004c 0822     		movs	r2, #8
 2794 004e 0021     		movs	r1, #0
 2795 0050 6846     		mov	r0, sp
 2796 0052 FFF7FEFF 		bl	memset
 2797              	.LVL282:
1130:Code\Device\W25Q80/user_data.c **** 	
1131:Code\Device\W25Q80/user_data.c **** 	//==测试开门信息日志表
1132:Code\Device\W25Q80/user_data.c **** 	W25QXX_Read(opendate, OPEN_INFO_BASE,512);
 2798              		.loc 1 1132 0
 2799 0056 B821     		movs	r1, #184
 2800 0058 2A00     		movs	r2, r5
 2801 005a 62A8     		add	r0, sp, #392
 2802 005c 8901     		lsls	r1, r1, #6
 2803 005e FFF7FEFF 		bl	W25QXX_Read
 2804              	.LVL283:
1133:Code\Device\W25Q80/user_data.c **** 	W25QXX_Read(opendate_flag, OPEN_FLAG_BASE,64);
 2805              		.loc 1 1133 0
 2806 0062 D021     		movs	r1, #208
 2807 0064 2200     		movs	r2, r4
 2808 0066 12A8     		add	r0, sp, #72
 2809 0068 4901     		lsls	r1, r1, #5
 2810 006a FFF7FEFF 		bl	W25QXX_Read
 2811              	.LVL284:
ARM GAS  C:\Users\Administrator\AppData\Local\Temp\ccPIvPLo.s 			page 72


1134:Code\Device\W25Q80/user_data.c **** 	W25QXX_Read(opendate_qty, OPEN_QTY_BASE,64);
 2812              		.loc 1 1134 0
 2813 006e C821     		movs	r1, #200
 2814 0070 2200     		movs	r2, r4
 2815 0072 4902     		lsls	r1, r1, #9
 2816 0074 6846     		mov	r0, sp
 2817 0076 FFF7FEFF 		bl	W25QXX_Read
 2818              	.LVL285:
1135:Code\Device\W25Q80/user_data.c **** 	
1136:Code\Device\W25Q80/user_data.c **** 	DBG_SOFT_PutStr("\r\n Read open date:\r\n");
1137:Code\Device\W25Q80/user_data.c **** 	DBG_SOFT_PrintfHex(opendate,512,17);
1138:Code\Device\W25Q80/user_data.c **** 	
1139:Code\Device\W25Q80/user_data.c **** 	DBG_SOFT_PutStr("\r\n Read open flag:\r\n");
1140:Code\Device\W25Q80/user_data.c **** 	DBG_SOFT_PrintfHex(opendate_flag,64,16);
1141:Code\Device\W25Q80/user_data.c **** 	
1142:Code\Device\W25Q80/user_data.c **** 	DBG_SOFT_PutStr("\r\n Read open qty:\r\n");
1143:Code\Device\W25Q80/user_data.c **** 	DBG_SOFT_PrintfHex(opendate_qty,8,16);
1144:Code\Device\W25Q80/user_data.c **** }
 2819              		.loc 1 1144 0
 2820 007a E223     		movs	r3, #226
 2821 007c 9B00     		lsls	r3, r3, #2
 2822 007e 9D44     		add	sp, sp, r3
 2823              		@ sp needed
 2824 0080 70BD     		pop	{r4, r5, r6, pc}
 2825              	.L162:
 2826 0082 C046     		.align	2
 2827              	.L161:
 2828 0084 78FCFFFF 		.word	-904
 2829              		.cfi_endproc
 2830              	.LFE104:
 2831              		.size	test_Flash, .-test_Flash
 2832              		.section	.text.test_readopeninfo,"ax",%progbits
 2833              		.align	1
 2834              		.global	test_readopeninfo
 2835              		.code	16
 2836              		.thumb_func
 2837              		.type	test_readopeninfo, %function
 2838              	test_readopeninfo:
 2839              	.LFB105:
1145:Code\Device\W25Q80/user_data.c **** 
1146:Code\Device\W25Q80/user_data.c **** void test_readopeninfo(void)
1147:Code\Device\W25Q80/user_data.c **** {
 2840              		.loc 1 1147 0
 2841              		.cfi_startproc
 2842              		@ args = 0, pretend = 0, frame = 16
 2843              		@ frame_needed = 0, uses_anonymous_args = 0
 2844 0000 1FB5     		push	{r0, r1, r2, r3, r4, lr}
 2845              		.cfi_def_cfa_offset 24
 2846              		.cfi_offset 0, -24
 2847              		.cfi_offset 1, -20
 2848              		.cfi_offset 2, -16
 2849              		.cfi_offset 3, -12
 2850              		.cfi_offset 4, -8
 2851              		.cfi_offset 14, -4
1148:Code\Device\W25Q80/user_data.c **** 	open_door_t open_tmp;	
1149:Code\Device\W25Q80/user_data.c **** 	Read_OpenInfo(5,&open_tmp);
 2852              		.loc 1 1149 0
ARM GAS  C:\Users\Administrator\AppData\Local\Temp\ccPIvPLo.s 			page 73


 2853 0002 0520     		movs	r0, #5
 2854 0004 6946     		mov	r1, sp
 2855 0006 FFF7FEFF 		bl	Read_OpenInfo
 2856              	.LVL286:
1150:Code\Device\W25Q80/user_data.c **** 	DBG_SOFT_PutStr("\r\n Read openinfor test:\r\n");
1151:Code\Device\W25Q80/user_data.c **** 	DBG_SOFT_PrintfHex(&open_tmp,16,16);
1152:Code\Device\W25Q80/user_data.c **** }
 2857              		.loc 1 1152 0
 2858 000a 05B0     		add	sp, sp, #20
 2859              		@ sp needed
 2860 000c 00BD     		pop	{pc}
 2861              		.cfi_endproc
 2862              	.LFE105:
 2863              		.size	test_readopeninfo, .-test_readopeninfo
 2864              		.text
 2865              	.Letext0:
 2866              		.file 2 "c:\\program files (x86)\\cypress\\psoc creator\\4.1\\psoc creator\\import\\gnu\\arm\\5.4.
 2867              		.file 3 "c:\\program files (x86)\\cypress\\psoc creator\\4.1\\psoc creator\\import\\gnu\\arm\\5.4.
 2868              		.file 4 "Generated_Source\\PSoC4/cytypes.h"
 2869              		.file 5 "Code\\Device\\W25Q80\\user_data.h"
 2870              		.file 6 "Generated_Source\\PSoC4/RTC.h"
 2871              		.file 7 "Code\\Device\\W25Q80\\w25qxx.h"
 2872              		.file 8 "c:\\program files (x86)\\cypress\\psoc creator\\4.1\\psoc creator\\import\\gnu\\arm\\5.4.
 2873              		.section	.debug_info,"",%progbits
 2874              	.Ldebug_info0:
 2875 0000 4F190000 		.4byte	0x194f
 2876 0004 0400     		.2byte	0x4
 2877 0006 00000000 		.4byte	.Ldebug_abbrev0
 2878 000a 04       		.byte	0x4
 2879 000b 01       		.uleb128 0x1
 2880 000c 1C050000 		.4byte	.LASF119
 2881 0010 0C       		.byte	0xc
 2882 0011 94000000 		.4byte	.LASF120
 2883 0015 B8050000 		.4byte	.LASF121
 2884 0019 00000000 		.4byte	.Ldebug_ranges0+0
 2885 001d 00000000 		.4byte	0
 2886 0021 00000000 		.4byte	.Ldebug_line0
 2887 0025 02       		.uleb128 0x2
 2888 0026 01       		.byte	0x1
 2889 0027 06       		.byte	0x6
 2890 0028 1C060000 		.4byte	.LASF0
 2891 002c 03       		.uleb128 0x3
 2892 002d 5D040000 		.4byte	.LASF3
 2893 0031 02       		.byte	0x2
 2894 0032 1D       		.byte	0x1d
 2895 0033 37000000 		.4byte	0x37
 2896 0037 02       		.uleb128 0x2
 2897 0038 01       		.byte	0x1
 2898 0039 08       		.byte	0x8
 2899 003a E2040000 		.4byte	.LASF1
 2900 003e 02       		.uleb128 0x2
 2901 003f 02       		.byte	0x2
 2902 0040 05       		.byte	0x5
 2903 0041 D4030000 		.4byte	.LASF2
 2904 0045 03       		.uleb128 0x3
 2905 0046 98010000 		.4byte	.LASF4
 2906 004a 02       		.byte	0x2
ARM GAS  C:\Users\Administrator\AppData\Local\Temp\ccPIvPLo.s 			page 74


 2907 004b 2B       		.byte	0x2b
 2908 004c 50000000 		.4byte	0x50
 2909 0050 02       		.uleb128 0x2
 2910 0051 02       		.byte	0x2
 2911 0052 07       		.byte	0x7
 2912 0053 28060000 		.4byte	.LASF5
 2913 0057 02       		.uleb128 0x2
 2914 0058 04       		.byte	0x4
 2915 0059 05       		.byte	0x5
 2916 005a F0030000 		.4byte	.LASF6
 2917 005e 02       		.uleb128 0x2
 2918 005f 04       		.byte	0x4
 2919 0060 07       		.byte	0x7
 2920 0061 96040000 		.4byte	.LASF7
 2921 0065 02       		.uleb128 0x2
 2922 0066 08       		.byte	0x8
 2923 0067 05       		.byte	0x5
 2924 0068 B3020000 		.4byte	.LASF8
 2925 006c 02       		.uleb128 0x2
 2926 006d 08       		.byte	0x8
 2927 006e 07       		.byte	0x7
 2928 006f 81010000 		.4byte	.LASF9
 2929 0073 04       		.uleb128 0x4
 2930 0074 04       		.byte	0x4
 2931 0075 05       		.byte	0x5
 2932 0076 696E7400 		.ascii	"int\000"
 2933 007a 02       		.uleb128 0x2
 2934 007b 04       		.byte	0x4
 2935 007c 07       		.byte	0x7
 2936 007d C4000000 		.4byte	.LASF10
 2937 0081 03       		.uleb128 0x3
 2938 0082 5D020000 		.4byte	.LASF11
 2939 0086 03       		.byte	0x3
 2940 0087 18       		.byte	0x18
 2941 0088 2C000000 		.4byte	0x2c
 2942 008c 03       		.uleb128 0x3
 2943 008d B3030000 		.4byte	.LASF12
 2944 0091 03       		.byte	0x3
 2945 0092 24       		.byte	0x24
 2946 0093 45000000 		.4byte	0x45
 2947 0097 05       		.uleb128 0x5
 2948 0098 5B060000 		.4byte	.LASF13
 2949 009c 04       		.byte	0x4
 2950 009d D201     		.2byte	0x1d2
 2951 009f 37000000 		.4byte	0x37
 2952 00a3 05       		.uleb128 0x5
 2953 00a4 3F020000 		.4byte	.LASF14
 2954 00a8 04       		.byte	0x4
 2955 00a9 D301     		.2byte	0x1d3
 2956 00ab 50000000 		.4byte	0x50
 2957 00af 05       		.uleb128 0x5
 2958 00b0 48030000 		.4byte	.LASF15
 2959 00b4 04       		.byte	0x4
 2960 00b5 D401     		.2byte	0x1d4
 2961 00b7 5E000000 		.4byte	0x5e
 2962 00bb 02       		.uleb128 0x2
 2963 00bc 04       		.byte	0x4
ARM GAS  C:\Users\Administrator\AppData\Local\Temp\ccPIvPLo.s 			page 75


 2964 00bd 04       		.byte	0x4
 2965 00be 67010000 		.4byte	.LASF16
 2966 00c2 02       		.uleb128 0x2
 2967 00c3 08       		.byte	0x8
 2968 00c4 04       		.byte	0x4
 2969 00c5 61060000 		.4byte	.LASF17
 2970 00c9 02       		.uleb128 0x2
 2971 00ca 01       		.byte	0x1
 2972 00cb 08       		.byte	0x8
 2973 00cc 17020000 		.4byte	.LASF18
 2974 00d0 02       		.uleb128 0x2
 2975 00d1 08       		.byte	0x8
 2976 00d2 04       		.byte	0x4
 2977 00d3 A7030000 		.4byte	.LASF19
 2978 00d7 02       		.uleb128 0x2
 2979 00d8 04       		.byte	0x4
 2980 00d9 07       		.byte	0x7
 2981 00da 8D040000 		.4byte	.LASF20
 2982 00de 06       		.uleb128 0x6
 2983 00df 04       		.byte	0x4
 2984 00e0 97000000 		.4byte	0x97
 2985 00e4 07       		.uleb128 0x7
 2986 00e5 88030000 		.4byte	.LASF24
 2987 00e9 0C       		.byte	0xc
 2988 00ea 05       		.byte	0x5
 2989 00eb 1C       		.byte	0x1c
 2990 00ec 09010000 		.4byte	0x109
 2991 00f0 08       		.uleb128 0x8
 2992 00f1 0B060000 		.4byte	.LASF21
 2993 00f5 05       		.byte	0x5
 2994 00f6 1E       		.byte	0x1e
 2995 00f7 09010000 		.4byte	0x109
 2996 00fb 00       		.byte	0
 2997 00fc 08       		.uleb128 0x8
 2998 00fd 68000000 		.4byte	.LASF22
 2999 0101 05       		.byte	0x5
 3000 0102 1F       		.byte	0x1f
 3001 0103 19010000 		.4byte	0x119
 3002 0107 08       		.byte	0x8
 3003 0108 00       		.byte	0
 3004 0109 09       		.uleb128 0x9
 3005 010a 97000000 		.4byte	0x97
 3006 010e 19010000 		.4byte	0x119
 3007 0112 0A       		.uleb128 0xa
 3008 0113 D7000000 		.4byte	0xd7
 3009 0117 07       		.byte	0x7
 3010 0118 00       		.byte	0
 3011 0119 09       		.uleb128 0x9
 3012 011a 97000000 		.4byte	0x97
 3013 011e 29010000 		.4byte	0x129
 3014 0122 0A       		.uleb128 0xa
 3015 0123 D7000000 		.4byte	0xd7
 3016 0127 03       		.byte	0x3
 3017 0128 00       		.byte	0
 3018 0129 03       		.uleb128 0x3
 3019 012a 6B030000 		.4byte	.LASF23
 3020 012e 05       		.byte	0x5
ARM GAS  C:\Users\Administrator\AppData\Local\Temp\ccPIvPLo.s 			page 76


 3021 012f 20       		.byte	0x20
 3022 0130 E4000000 		.4byte	0xe4
 3023 0134 07       		.uleb128 0x7
 3024 0135 25020000 		.4byte	.LASF25
 3025 0139 10       		.byte	0x10
 3026 013a 05       		.byte	0x5
 3027 013b 22       		.byte	0x22
 3028 013c 65010000 		.4byte	0x165
 3029 0140 08       		.uleb128 0x8
 3030 0141 0B060000 		.4byte	.LASF21
 3031 0145 05       		.byte	0x5
 3032 0146 24       		.byte	0x24
 3033 0147 09010000 		.4byte	0x109
 3034 014b 00       		.byte	0
 3035 014c 08       		.uleb128 0x8
 3036 014d 0E010000 		.4byte	.LASF26
 3037 0151 05       		.byte	0x5
 3038 0152 25       		.byte	0x25
 3039 0153 19010000 		.4byte	0x119
 3040 0157 08       		.byte	0x8
 3041 0158 08       		.uleb128 0x8
 3042 0159 B2010000 		.4byte	.LASF27
 3043 015d 05       		.byte	0x5
 3044 015e 26       		.byte	0x26
 3045 015f 19010000 		.4byte	0x119
 3046 0163 0C       		.byte	0xc
 3047 0164 00       		.byte	0
 3048 0165 03       		.uleb128 0x3
 3049 0166 07030000 		.4byte	.LASF28
 3050 016a 05       		.byte	0x5
 3051 016b 27       		.byte	0x27
 3052 016c 34010000 		.4byte	0x134
 3053 0170 0B       		.uleb128 0xb
 3054 0171 F2020000 		.4byte	.LASF35
 3055 0175 01       		.byte	0x1
 3056 0176 1A       		.byte	0x1a
 3057 0177 00000000 		.4byte	.LFB63
 3058 017b 20000000 		.4byte	.LFE63-.LFB63
 3059 017f 01       		.uleb128 0x1
 3060 0180 9C       		.byte	0x9c
 3061 0181 D1010000 		.4byte	0x1d1
 3062 0185 0C       		.uleb128 0xc
 3063 0186 24040000 		.4byte	.LASF29
 3064 018a 01       		.byte	0x1
 3065 018b 1C       		.byte	0x1c
 3066 018c D1010000 		.4byte	0x1d1
 3067 0190 03       		.uleb128 0x3
 3068 0191 91       		.byte	0x91
 3069 0192 847C     		.sleb128 -508
 3070 0194 0D       		.uleb128 0xd
 3071 0195 12000000 		.4byte	.LVL0
 3072 0199 14190000 		.4byte	0x1914
 3073 019d B4010000 		.4byte	0x1b4
 3074 01a1 0E       		.uleb128 0xe
 3075 01a2 01       		.uleb128 0x1
 3076 01a3 50       		.byte	0x50
 3077 01a4 03       		.uleb128 0x3
ARM GAS  C:\Users\Administrator\AppData\Local\Temp\ccPIvPLo.s 			page 77


 3078 01a5 91       		.byte	0x91
 3079 01a6 847C     		.sleb128 -508
 3080 01a8 0E       		.uleb128 0xe
 3081 01a9 01       		.uleb128 0x1
 3082 01aa 51       		.byte	0x51
 3083 01ab 01       		.uleb128 0x1
 3084 01ac 30       		.byte	0x30
 3085 01ad 0E       		.uleb128 0xe
 3086 01ae 01       		.uleb128 0x1
 3087 01af 52       		.byte	0x52
 3088 01b0 02       		.uleb128 0x2
 3089 01b1 74       		.byte	0x74
 3090 01b2 00       		.sleb128 0
 3091 01b3 00       		.byte	0
 3092 01b4 0F       		.uleb128 0xf
 3093 01b5 1C000000 		.4byte	.LVL1
 3094 01b9 1D190000 		.4byte	0x191d
 3095 01bd 0E       		.uleb128 0xe
 3096 01be 01       		.uleb128 0x1
 3097 01bf 50       		.byte	0x50
 3098 01c0 03       		.uleb128 0x3
 3099 01c1 91       		.byte	0x91
 3100 01c2 847C     		.sleb128 -508
 3101 01c4 0E       		.uleb128 0xe
 3102 01c5 01       		.uleb128 0x1
 3103 01c6 51       		.byte	0x51
 3104 01c7 01       		.uleb128 0x1
 3105 01c8 30       		.byte	0x30
 3106 01c9 0E       		.uleb128 0xe
 3107 01ca 01       		.uleb128 0x1
 3108 01cb 52       		.byte	0x52
 3109 01cc 02       		.uleb128 0x2
 3110 01cd 74       		.byte	0x74
 3111 01ce 00       		.sleb128 0
 3112 01cf 00       		.byte	0
 3113 01d0 00       		.byte	0
 3114 01d1 09       		.uleb128 0x9
 3115 01d2 97000000 		.4byte	0x97
 3116 01d6 E2010000 		.4byte	0x1e2
 3117 01da 10       		.uleb128 0x10
 3118 01db D7000000 		.4byte	0xd7
 3119 01df F301     		.2byte	0x1f3
 3120 01e1 00       		.byte	0
 3121 01e2 11       		.uleb128 0x11
 3122 01e3 7C060000 		.4byte	.LASF31
 3123 01e7 01       		.byte	0x1
 3124 01e8 2A       		.byte	0x2a
 3125 01e9 97000000 		.4byte	0x97
 3126 01ed 00000000 		.4byte	.LFB64
 3127 01f1 38000000 		.4byte	.LFE64-.LFB64
 3128 01f5 01       		.uleb128 0x1
 3129 01f6 9C       		.byte	0x9c
 3130 01f7 45020000 		.4byte	0x245
 3131 01fb 12       		.uleb128 0x12
 3132 01fc 80030000 		.4byte	.LASF33
 3133 0200 01       		.byte	0x1
 3134 0201 2A       		.byte	0x2a
ARM GAS  C:\Users\Administrator\AppData\Local\Temp\ccPIvPLo.s 			page 78


 3135 0202 45020000 		.4byte	0x245
 3136 0206 00000000 		.4byte	.LLST0
 3137 020a 13       		.uleb128 0x13
 3138 020b FD040000 		.4byte	.LASF30
 3139 020f 01       		.byte	0x1
 3140 0210 2C       		.byte	0x2c
 3141 0211 A3000000 		.4byte	0xa3
 3142 0215 2C000000 		.4byte	.LLST1
 3143 0219 0C       		.uleb128 0xc
 3144 021a 24040000 		.4byte	.LASF29
 3145 021e 01       		.byte	0x1
 3146 021f 2D       		.byte	0x2d
 3147 0220 D1010000 		.4byte	0x1d1
 3148 0224 03       		.uleb128 0x3
 3149 0225 91       		.byte	0x91
 3150 0226 FC7B     		.sleb128 -516
 3151 0228 0F       		.uleb128 0xf
 3152 0229 14000000 		.4byte	.LVL4
 3153 022d 28190000 		.4byte	0x1928
 3154 0231 0E       		.uleb128 0xe
 3155 0232 01       		.uleb128 0x1
 3156 0233 50       		.byte	0x50
 3157 0234 02       		.uleb128 0x2
 3158 0235 74       		.byte	0x74
 3159 0236 00       		.sleb128 0
 3160 0237 0E       		.uleb128 0xe
 3161 0238 01       		.uleb128 0x1
 3162 0239 51       		.byte	0x51
 3163 023a 01       		.uleb128 0x1
 3164 023b 30       		.byte	0x30
 3165 023c 0E       		.uleb128 0xe
 3166 023d 01       		.uleb128 0x1
 3167 023e 52       		.byte	0x52
 3168 023f 03       		.uleb128 0x3
 3169 0240 0A       		.byte	0xa
 3170 0241 F401     		.2byte	0x1f4
 3171 0243 00       		.byte	0
 3172 0244 00       		.byte	0
 3173 0245 06       		.uleb128 0x6
 3174 0246 04       		.byte	0x4
 3175 0247 A3000000 		.4byte	0xa3
 3176 024b 11       		.uleb128 0x11
 3177 024c 00000000 		.4byte	.LASF32
 3178 0250 01       		.byte	0x1
 3179 0251 43       		.byte	0x43
 3180 0252 97000000 		.4byte	0x97
 3181 0256 00000000 		.4byte	.LFB65
 3182 025a 22000000 		.4byte	.LFE65-.LFB65
 3183 025e 01       		.uleb128 0x1
 3184 025f 9C       		.byte	0x9c
 3185 0260 9F020000 		.4byte	0x29f
 3186 0264 12       		.uleb128 0x12
 3187 0265 80030000 		.4byte	.LASF33
 3188 0269 01       		.byte	0x1
 3189 026a 43       		.byte	0x43
 3190 026b A3000000 		.4byte	0xa3
 3191 026f 71000000 		.4byte	.LLST2
ARM GAS  C:\Users\Administrator\AppData\Local\Temp\ccPIvPLo.s 			page 79


 3192 0273 0C       		.uleb128 0xc
 3193 0274 24040000 		.4byte	.LASF29
 3194 0278 01       		.byte	0x1
 3195 0279 45       		.byte	0x45
 3196 027a D1010000 		.4byte	0x1d1
 3197 027e 03       		.uleb128 0x3
 3198 027f 91       		.byte	0x91
 3199 0280 FC7B     		.sleb128 -516
 3200 0282 0F       		.uleb128 0xf
 3201 0283 14000000 		.4byte	.LVL14
 3202 0287 28190000 		.4byte	0x1928
 3203 028b 0E       		.uleb128 0xe
 3204 028c 01       		.uleb128 0x1
 3205 028d 50       		.byte	0x50
 3206 028e 02       		.uleb128 0x2
 3207 028f 74       		.byte	0x74
 3208 0290 00       		.sleb128 0
 3209 0291 0E       		.uleb128 0xe
 3210 0292 01       		.uleb128 0x1
 3211 0293 51       		.byte	0x51
 3212 0294 01       		.uleb128 0x1
 3213 0295 30       		.byte	0x30
 3214 0296 0E       		.uleb128 0xe
 3215 0297 01       		.uleb128 0x1
 3216 0298 52       		.byte	0x52
 3217 0299 03       		.uleb128 0x3
 3218 029a 0A       		.byte	0xa
 3219 029b F401     		.2byte	0x1f4
 3220 029d 00       		.byte	0
 3221 029e 00       		.byte	0
 3222 029f 11       		.uleb128 0x11
 3223 02a0 D1000000 		.4byte	.LASF34
 3224 02a4 01       		.byte	0x1
 3225 02a5 5A       		.byte	0x5a
 3226 02a6 A3000000 		.4byte	0xa3
 3227 02aa 00000000 		.4byte	.LFB66
 3228 02ae 2E000000 		.4byte	.LFE66-.LFB66
 3229 02b2 01       		.uleb128 0x1
 3230 02b3 9C       		.byte	0x9c
 3231 02b4 02030000 		.4byte	0x302
 3232 02b8 0C       		.uleb128 0xc
 3233 02b9 24040000 		.4byte	.LASF29
 3234 02bd 01       		.byte	0x1
 3235 02be 5C       		.byte	0x5c
 3236 02bf D1010000 		.4byte	0x1d1
 3237 02c3 03       		.uleb128 0x3
 3238 02c4 91       		.byte	0x91
 3239 02c5 847C     		.sleb128 -508
 3240 02c7 13       		.uleb128 0x13
 3241 02c8 FD040000 		.4byte	.LASF30
 3242 02cc 01       		.byte	0x1
 3243 02cd 5D       		.byte	0x5d
 3244 02ce A3000000 		.4byte	0xa3
 3245 02d2 92000000 		.4byte	.LLST3
 3246 02d6 14       		.uleb128 0x14
 3247 02d7 71747900 		.ascii	"qty\000"
 3248 02db 01       		.byte	0x1
ARM GAS  C:\Users\Administrator\AppData\Local\Temp\ccPIvPLo.s 			page 80


 3249 02dc 5E       		.byte	0x5e
 3250 02dd A3000000 		.4byte	0xa3
 3251 02e1 BE000000 		.4byte	.LLST4
 3252 02e5 0F       		.uleb128 0xf
 3253 02e6 12000000 		.4byte	.LVL16
 3254 02ea 28190000 		.4byte	0x1928
 3255 02ee 0E       		.uleb128 0xe
 3256 02ef 01       		.uleb128 0x1
 3257 02f0 50       		.byte	0x50
 3258 02f1 02       		.uleb128 0x2
 3259 02f2 74       		.byte	0x74
 3260 02f3 00       		.sleb128 0
 3261 02f4 0E       		.uleb128 0xe
 3262 02f5 01       		.uleb128 0x1
 3263 02f6 51       		.byte	0x51
 3264 02f7 01       		.uleb128 0x1
 3265 02f8 30       		.byte	0x30
 3266 02f9 0E       		.uleb128 0xe
 3267 02fa 01       		.uleb128 0x1
 3268 02fb 52       		.byte	0x52
 3269 02fc 03       		.uleb128 0x3
 3270 02fd 0A       		.byte	0xa
 3271 02fe F401     		.2byte	0x1f4
 3272 0300 00       		.byte	0
 3273 0301 00       		.byte	0
 3274 0302 0B       		.uleb128 0xb
 3275 0303 68060000 		.4byte	.LASF36
 3276 0307 01       		.byte	0x1
 3277 0308 73       		.byte	0x73
 3278 0309 00000000 		.4byte	.LFB67
 3279 030d 12000000 		.4byte	.LFE67-.LFB67
 3280 0311 01       		.uleb128 0x1
 3281 0312 9C       		.byte	0x9c
 3282 0313 4A030000 		.4byte	0x34a
 3283 0317 12       		.uleb128 0x12
 3284 0318 80030000 		.4byte	.LASF33
 3285 031c 01       		.byte	0x1
 3286 031d 73       		.byte	0x73
 3287 031e A3000000 		.4byte	0xa3
 3288 0322 E8000000 		.4byte	.LLST5
 3289 0326 0C       		.uleb128 0xc
 3290 0327 24040000 		.4byte	.LASF29
 3291 032b 01       		.byte	0x1
 3292 032c 75       		.byte	0x75
 3293 032d 97000000 		.4byte	0x97
 3294 0331 02       		.uleb128 0x2
 3295 0332 91       		.byte	0x91
 3296 0333 77       		.sleb128 -9
 3297 0334 0F       		.uleb128 0xf
 3298 0335 10000000 		.4byte	.LVL23
 3299 0339 1D190000 		.4byte	0x191d
 3300 033d 0E       		.uleb128 0xe
 3301 033e 01       		.uleb128 0x1
 3302 033f 50       		.byte	0x50
 3303 0340 02       		.uleb128 0x2
 3304 0341 7D       		.byte	0x7d
 3305 0342 07       		.sleb128 7
ARM GAS  C:\Users\Administrator\AppData\Local\Temp\ccPIvPLo.s 			page 81


 3306 0343 0E       		.uleb128 0xe
 3307 0344 01       		.uleb128 0x1
 3308 0345 52       		.byte	0x52
 3309 0346 01       		.uleb128 0x1
 3310 0347 31       		.byte	0x31
 3311 0348 00       		.byte	0
 3312 0349 00       		.byte	0
 3313 034a 0B       		.uleb128 0xb
 3314 034b A1060000 		.4byte	.LASF37
 3315 034f 01       		.byte	0x1
 3316 0350 82       		.byte	0x82
 3317 0351 00000000 		.4byte	.LFB68
 3318 0355 14000000 		.4byte	.LFE68-.LFB68
 3319 0359 01       		.uleb128 0x1
 3320 035a 9C       		.byte	0x9c
 3321 035b 92030000 		.4byte	0x392
 3322 035f 12       		.uleb128 0x12
 3323 0360 80030000 		.4byte	.LASF33
 3324 0364 01       		.byte	0x1
 3325 0365 82       		.byte	0x82
 3326 0366 A3000000 		.4byte	0xa3
 3327 036a 09010000 		.4byte	.LLST6
 3328 036e 0C       		.uleb128 0xc
 3329 036f 24040000 		.4byte	.LASF29
 3330 0373 01       		.byte	0x1
 3331 0374 84       		.byte	0x84
 3332 0375 97000000 		.4byte	0x97
 3333 0379 02       		.uleb128 0x2
 3334 037a 91       		.byte	0x91
 3335 037b 77       		.sleb128 -9
 3336 037c 0F       		.uleb128 0xf
 3337 037d 12000000 		.4byte	.LVL26
 3338 0381 1D190000 		.4byte	0x191d
 3339 0385 0E       		.uleb128 0xe
 3340 0386 01       		.uleb128 0x1
 3341 0387 50       		.byte	0x50
 3342 0388 02       		.uleb128 0x2
 3343 0389 7D       		.byte	0x7d
 3344 038a 07       		.sleb128 7
 3345 038b 0E       		.uleb128 0xe
 3346 038c 01       		.uleb128 0x1
 3347 038d 52       		.byte	0x52
 3348 038e 01       		.uleb128 0x1
 3349 038f 31       		.byte	0x31
 3350 0390 00       		.byte	0
 3351 0391 00       		.byte	0
 3352 0392 0B       		.uleb128 0xb
 3353 0393 0B040000 		.4byte	.LASF38
 3354 0397 01       		.byte	0x1
 3355 0398 91       		.byte	0x91
 3356 0399 00000000 		.4byte	.LFB69
 3357 039d 18000000 		.4byte	.LFE69-.LFB69
 3358 03a1 01       		.uleb128 0x1
 3359 03a2 9C       		.byte	0x9c
 3360 03a3 DC030000 		.4byte	0x3dc
 3361 03a7 12       		.uleb128 0x12
 3362 03a8 80030000 		.4byte	.LASF33
ARM GAS  C:\Users\Administrator\AppData\Local\Temp\ccPIvPLo.s 			page 82


 3363 03ac 01       		.byte	0x1
 3364 03ad 91       		.byte	0x91
 3365 03ae A3000000 		.4byte	0xa3
 3366 03b2 2A010000 		.4byte	.LLST7
 3367 03b6 12       		.uleb128 0x12
 3368 03b7 4F030000 		.4byte	.LASF39
 3369 03bb 01       		.byte	0x1
 3370 03bc 91       		.byte	0x91
 3371 03bd DC030000 		.4byte	0x3dc
 3372 03c1 4B010000 		.4byte	.LLST8
 3373 03c5 0F       		.uleb128 0xf
 3374 03c6 16000000 		.4byte	.LVL30
 3375 03ca 1D190000 		.4byte	0x191d
 3376 03ce 0E       		.uleb128 0xe
 3377 03cf 01       		.uleb128 0x1
 3378 03d0 50       		.byte	0x50
 3379 03d1 03       		.uleb128 0x3
 3380 03d2 F3       		.byte	0xf3
 3381 03d3 01       		.uleb128 0x1
 3382 03d4 51       		.byte	0x51
 3383 03d5 0E       		.uleb128 0xe
 3384 03d6 01       		.uleb128 0x1
 3385 03d7 52       		.byte	0x52
 3386 03d8 01       		.uleb128 0x1
 3387 03d9 3C       		.byte	0x3c
 3388 03da 00       		.byte	0
 3389 03db 00       		.byte	0
 3390 03dc 06       		.uleb128 0x6
 3391 03dd 04       		.byte	0x4
 3392 03de 29010000 		.4byte	0x129
 3393 03e2 0B       		.uleb128 0xb
 3394 03e3 38010000 		.4byte	.LASF40
 3395 03e7 01       		.byte	0x1
 3396 03e8 9E       		.byte	0x9e
 3397 03e9 00000000 		.4byte	.LFB70
 3398 03ed 26000000 		.4byte	.LFE70-.LFB70
 3399 03f1 01       		.uleb128 0x1
 3400 03f2 9C       		.byte	0x9c
 3401 03f3 51040000 		.4byte	0x451
 3402 03f7 12       		.uleb128 0x12
 3403 03f8 80030000 		.4byte	.LASF33
 3404 03fc 01       		.byte	0x1
 3405 03fd 9E       		.byte	0x9e
 3406 03fe A3000000 		.4byte	0xa3
 3407 0402 77010000 		.4byte	.LLST9
 3408 0406 0C       		.uleb128 0xc
 3409 0407 24040000 		.4byte	.LASF29
 3410 040b 01       		.byte	0x1
 3411 040c A0       		.byte	0xa0
 3412 040d 51040000 		.4byte	0x451
 3413 0411 02       		.uleb128 0x2
 3414 0412 91       		.byte	0x91
 3415 0413 64       		.sleb128 -28
 3416 0414 0D       		.uleb128 0xd
 3417 0415 12000000 		.4byte	.LVL33
 3418 0419 14190000 		.4byte	0x1914
 3419 041d 33040000 		.4byte	0x433
ARM GAS  C:\Users\Administrator\AppData\Local\Temp\ccPIvPLo.s 			page 83


 3420 0421 0E       		.uleb128 0xe
 3421 0422 01       		.uleb128 0x1
 3422 0423 50       		.byte	0x50
 3423 0424 02       		.uleb128 0x2
 3424 0425 91       		.byte	0x91
 3425 0426 64       		.sleb128 -28
 3426 0427 0E       		.uleb128 0xe
 3427 0428 01       		.uleb128 0x1
 3428 0429 51       		.byte	0x51
 3429 042a 01       		.uleb128 0x1
 3430 042b 30       		.byte	0x30
 3431 042c 0E       		.uleb128 0xe
 3432 042d 01       		.uleb128 0x1
 3433 042e 52       		.byte	0x52
 3434 042f 02       		.uleb128 0x2
 3435 0430 75       		.byte	0x75
 3436 0431 00       		.sleb128 0
 3437 0432 00       		.byte	0
 3438 0433 0F       		.uleb128 0xf
 3439 0434 22000000 		.4byte	.LVL34
 3440 0438 1D190000 		.4byte	0x191d
 3441 043c 0E       		.uleb128 0xe
 3442 043d 01       		.uleb128 0x1
 3443 043e 50       		.byte	0x50
 3444 043f 02       		.uleb128 0x2
 3445 0440 91       		.byte	0x91
 3446 0441 64       		.sleb128 -28
 3447 0442 0E       		.uleb128 0xe
 3448 0443 01       		.uleb128 0x1
 3449 0444 51       		.byte	0x51
 3450 0445 03       		.uleb128 0x3
 3451 0446 74       		.byte	0x74
 3452 0447 8004     		.sleb128 512
 3453 0449 0E       		.uleb128 0xe
 3454 044a 01       		.uleb128 0x1
 3455 044b 52       		.byte	0x52
 3456 044c 02       		.uleb128 0x2
 3457 044d 75       		.byte	0x75
 3458 044e 00       		.sleb128 0
 3459 044f 00       		.byte	0
 3460 0450 00       		.byte	0
 3461 0451 09       		.uleb128 0x9
 3462 0452 81000000 		.4byte	0x81
 3463 0456 61040000 		.4byte	0x461
 3464 045a 0A       		.uleb128 0xa
 3465 045b D7000000 		.4byte	0xd7
 3466 045f 0B       		.byte	0xb
 3467 0460 00       		.byte	0
 3468 0461 0B       		.uleb128 0xb
 3469 0462 E2000000 		.4byte	.LASF41
 3470 0466 01       		.byte	0x1
 3471 0467 AD       		.byte	0xad
 3472 0468 00000000 		.4byte	.LFB71
 3473 046c 18000000 		.4byte	.LFE71-.LFB71
 3474 0470 01       		.uleb128 0x1
 3475 0471 9C       		.byte	0x9c
 3476 0472 AB040000 		.4byte	0x4ab
ARM GAS  C:\Users\Administrator\AppData\Local\Temp\ccPIvPLo.s 			page 84


 3477 0476 12       		.uleb128 0x12
 3478 0477 80030000 		.4byte	.LASF33
 3479 047b 01       		.byte	0x1
 3480 047c AD       		.byte	0xad
 3481 047d A3000000 		.4byte	0xa3
 3482 0481 98010000 		.4byte	.LLST10
 3483 0485 12       		.uleb128 0x12
 3484 0486 4F030000 		.4byte	.LASF39
 3485 048a 01       		.byte	0x1
 3486 048b AD       		.byte	0xad
 3487 048c DC030000 		.4byte	0x3dc
 3488 0490 B9010000 		.4byte	.LLST11
 3489 0494 0F       		.uleb128 0xf
 3490 0495 16000000 		.4byte	.LVL38
 3491 0499 28190000 		.4byte	0x1928
 3492 049d 0E       		.uleb128 0xe
 3493 049e 01       		.uleb128 0x1
 3494 049f 50       		.byte	0x50
 3495 04a0 03       		.uleb128 0x3
 3496 04a1 F3       		.byte	0xf3
 3497 04a2 01       		.uleb128 0x1
 3498 04a3 51       		.byte	0x51
 3499 04a4 0E       		.uleb128 0xe
 3500 04a5 01       		.uleb128 0x1
 3501 04a6 52       		.byte	0x52
 3502 04a7 01       		.uleb128 0x1
 3503 04a8 3C       		.byte	0x3c
 3504 04a9 00       		.byte	0
 3505 04aa 00       		.byte	0
 3506 04ab 0B       		.uleb128 0xb
 3507 04ac BC010000 		.4byte	.LASF42
 3508 04b0 01       		.byte	0x1
 3509 04b1 BA       		.byte	0xba
 3510 04b2 00000000 		.4byte	.LFB72
 3511 04b6 1A000000 		.4byte	.LFE72-.LFB72
 3512 04ba 01       		.uleb128 0x1
 3513 04bb 9C       		.byte	0x9c
 3514 04bc F5040000 		.4byte	0x4f5
 3515 04c0 12       		.uleb128 0x12
 3516 04c1 80030000 		.4byte	.LASF33
 3517 04c5 01       		.byte	0x1
 3518 04c6 BA       		.byte	0xba
 3519 04c7 A3000000 		.4byte	0xa3
 3520 04cb E5010000 		.4byte	.LLST12
 3521 04cf 12       		.uleb128 0x12
 3522 04d0 0B060000 		.4byte	.LASF21
 3523 04d4 01       		.byte	0x1
 3524 04d5 BA       		.byte	0xba
 3525 04d6 DE000000 		.4byte	0xde
 3526 04da 06020000 		.4byte	.LLST13
 3527 04de 0F       		.uleb128 0xf
 3528 04df 18000000 		.4byte	.LVL42
 3529 04e3 28190000 		.4byte	0x1928
 3530 04e7 0E       		.uleb128 0xe
 3531 04e8 01       		.uleb128 0x1
 3532 04e9 50       		.byte	0x50
 3533 04ea 03       		.uleb128 0x3
ARM GAS  C:\Users\Administrator\AppData\Local\Temp\ccPIvPLo.s 			page 85


 3534 04eb F3       		.byte	0xf3
 3535 04ec 01       		.uleb128 0x1
 3536 04ed 51       		.byte	0x51
 3537 04ee 0E       		.uleb128 0xe
 3538 04ef 01       		.uleb128 0x1
 3539 04f0 52       		.byte	0x52
 3540 04f1 01       		.uleb128 0x1
 3541 04f2 38       		.byte	0x38
 3542 04f3 00       		.byte	0
 3543 04f4 00       		.byte	0
 3544 04f5 0B       		.uleb128 0xb
 3545 04f6 B3000000 		.4byte	.LASF43
 3546 04fa 01       		.byte	0x1
 3547 04fb C8       		.byte	0xc8
 3548 04fc 00000000 		.4byte	.LFB73
 3549 0500 4C000000 		.4byte	.LFE73-.LFB73
 3550 0504 01       		.uleb128 0x1
 3551 0505 9C       		.byte	0x9c
 3552 0506 BC050000 		.4byte	0x5bc
 3553 050a 12       		.uleb128 0x12
 3554 050b 80030000 		.4byte	.LASF33
 3555 050f 01       		.byte	0x1
 3556 0510 C8       		.byte	0xc8
 3557 0511 45020000 		.4byte	0x245
 3558 0515 32020000 		.4byte	.LLST14
 3559 0519 12       		.uleb128 0x12
 3560 051a 0B060000 		.4byte	.LASF21
 3561 051e 01       		.byte	0x1
 3562 051f C8       		.byte	0xc8
 3563 0520 DE000000 		.4byte	0xde
 3564 0524 5E020000 		.4byte	.LLST15
 3565 0528 14       		.uleb128 0x14
 3566 0529 6900     		.ascii	"i\000"
 3567 052b 01       		.byte	0x1
 3568 052c CA       		.byte	0xca
 3569 052d A3000000 		.4byte	0xa3
 3570 0531 7E020000 		.4byte	.LLST16
 3571 0535 14       		.uleb128 0x14
 3572 0536 72657400 		.ascii	"ret\000"
 3573 053a 01       		.byte	0x1
 3574 053b CB       		.byte	0xcb
 3575 053c 97000000 		.4byte	0x97
 3576 0540 B7020000 		.4byte	.LLST17
 3577 0544 0C       		.uleb128 0xc
 3578 0545 24040000 		.4byte	.LASF29
 3579 0549 01       		.byte	0x1
 3580 054a CC       		.byte	0xcc
 3581 054b D1010000 		.4byte	0x1d1
 3582 054f 03       		.uleb128 0x3
 3583 0550 91       		.byte	0x91
 3584 0551 F47B     		.sleb128 -524
 3585 0553 0C       		.uleb128 0xc
 3586 0554 08020000 		.4byte	.LASF44
 3587 0558 01       		.byte	0x1
 3588 0559 CD       		.byte	0xcd
 3589 055a 09010000 		.4byte	0x109
 3590 055e 03       		.uleb128 0x3
ARM GAS  C:\Users\Administrator\AppData\Local\Temp\ccPIvPLo.s 			page 86


 3591 055f 91       		.byte	0x91
 3592 0560 EC7B     		.sleb128 -532
 3593 0562 0D       		.uleb128 0xd
 3594 0563 16000000 		.4byte	.LVL46
 3595 0567 28190000 		.4byte	0x1928
 3596 056b 82050000 		.4byte	0x582
 3597 056f 0E       		.uleb128 0xe
 3598 0570 01       		.uleb128 0x1
 3599 0571 50       		.byte	0x50
 3600 0572 02       		.uleb128 0x2
 3601 0573 76       		.byte	0x76
 3602 0574 00       		.sleb128 0
 3603 0575 0E       		.uleb128 0xe
 3604 0576 01       		.uleb128 0x1
 3605 0577 51       		.byte	0x51
 3606 0578 01       		.uleb128 0x1
 3607 0579 30       		.byte	0x30
 3608 057a 0E       		.uleb128 0xe
 3609 057b 01       		.uleb128 0x1
 3610 057c 52       		.byte	0x52
 3611 057d 03       		.uleb128 0x3
 3612 057e 0A       		.byte	0xa
 3613 057f F401     		.2byte	0x1f4
 3614 0581 00       		.byte	0
 3615 0582 0D       		.uleb128 0xd
 3616 0583 28000000 		.4byte	.LVL49
 3617 0587 AB040000 		.4byte	0x4ab
 3618 058b 9D050000 		.4byte	0x59d
 3619 058f 0E       		.uleb128 0xe
 3620 0590 01       		.uleb128 0x1
 3621 0591 50       		.byte	0x50
 3622 0592 02       		.uleb128 0x2
 3623 0593 77       		.byte	0x77
 3624 0594 00       		.sleb128 0
 3625 0595 0E       		.uleb128 0xe
 3626 0596 01       		.uleb128 0x1
 3627 0597 51       		.byte	0x51
 3628 0598 03       		.uleb128 0x3
 3629 0599 91       		.byte	0x91
 3630 059a EC7B     		.sleb128 -532
 3631 059c 00       		.byte	0
 3632 059d 0F       		.uleb128 0xf
 3633 059e 32000000 		.4byte	.LVL50
 3634 05a2 33190000 		.4byte	0x1933
 3635 05a6 0E       		.uleb128 0xe
 3636 05a7 01       		.uleb128 0x1
 3637 05a8 50       		.byte	0x50
 3638 05a9 04       		.uleb128 0x4
 3639 05aa 91       		.byte	0x91
 3640 05ab E47B     		.sleb128 -540
 3641 05ad 06       		.byte	0x6
 3642 05ae 0E       		.uleb128 0xe
 3643 05af 01       		.uleb128 0x1
 3644 05b0 51       		.byte	0x51
 3645 05b1 03       		.uleb128 0x3
 3646 05b2 91       		.byte	0x91
 3647 05b3 EC7B     		.sleb128 -532
ARM GAS  C:\Users\Administrator\AppData\Local\Temp\ccPIvPLo.s 			page 87


 3648 05b5 0E       		.uleb128 0xe
 3649 05b6 01       		.uleb128 0x1
 3650 05b7 52       		.byte	0x52
 3651 05b8 01       		.uleb128 0x1
 3652 05b9 38       		.byte	0x38
 3653 05ba 00       		.byte	0
 3654 05bb 00       		.byte	0
 3655 05bc 0B       		.uleb128 0xb
 3656 05bd 67040000 		.4byte	.LASF45
 3657 05c1 01       		.byte	0x1
 3658 05c2 E8       		.byte	0xe8
 3659 05c3 00000000 		.4byte	.LFB74
 3660 05c7 18000000 		.4byte	.LFE74-.LFB74
 3661 05cb 01       		.uleb128 0x1
 3662 05cc 9C       		.byte	0x9c
 3663 05cd 06060000 		.4byte	0x606
 3664 05d1 12       		.uleb128 0x12
 3665 05d2 80030000 		.4byte	.LASF33
 3666 05d6 01       		.byte	0x1
 3667 05d7 E8       		.byte	0xe8
 3668 05d8 A3000000 		.4byte	0xa3
 3669 05dc CA020000 		.4byte	.LLST18
 3670 05e0 12       		.uleb128 0x12
 3671 05e1 68000000 		.4byte	.LASF22
 3672 05e5 01       		.byte	0x1
 3673 05e6 E8       		.byte	0xe8
 3674 05e7 DE000000 		.4byte	0xde
 3675 05eb EB020000 		.4byte	.LLST19
 3676 05ef 0F       		.uleb128 0xf
 3677 05f0 16000000 		.4byte	.LVL58
 3678 05f4 28190000 		.4byte	0x1928
 3679 05f8 0E       		.uleb128 0xe
 3680 05f9 01       		.uleb128 0x1
 3681 05fa 50       		.byte	0x50
 3682 05fb 03       		.uleb128 0x3
 3683 05fc F3       		.byte	0xf3
 3684 05fd 01       		.uleb128 0x1
 3685 05fe 51       		.byte	0x51
 3686 05ff 0E       		.uleb128 0xe
 3687 0600 01       		.uleb128 0x1
 3688 0601 52       		.byte	0x52
 3689 0602 01       		.uleb128 0x1
 3690 0603 34       		.byte	0x34
 3691 0604 00       		.byte	0
 3692 0605 00       		.byte	0
 3693 0606 11       		.uleb128 0x11
 3694 0607 F9030000 		.4byte	.LASF46
 3695 060b 01       		.byte	0x1
 3696 060c F5       		.byte	0xf5
 3697 060d 97000000 		.4byte	0x97
 3698 0611 00000000 		.4byte	.LFB75
 3699 0615 32000000 		.4byte	.LFE75-.LFB75
 3700 0619 01       		.uleb128 0x1
 3701 061a 9C       		.byte	0x9c
 3702 061b AF060000 		.4byte	0x6af
 3703 061f 12       		.uleb128 0x12
 3704 0620 80030000 		.4byte	.LASF33
ARM GAS  C:\Users\Administrator\AppData\Local\Temp\ccPIvPLo.s 			page 88


 3705 0624 01       		.byte	0x1
 3706 0625 F5       		.byte	0xf5
 3707 0626 A3000000 		.4byte	0xa3
 3708 062a 17030000 		.4byte	.LLST20
 3709 062e 12       		.uleb128 0x12
 3710 062f 4F030000 		.4byte	.LASF39
 3711 0633 01       		.byte	0x1
 3712 0634 F5       		.byte	0xf5
 3713 0635 DC030000 		.4byte	0x3dc
 3714 0639 38030000 		.4byte	.LLST21
 3715 063d 0C       		.uleb128 0xc
 3716 063e 73000000 		.4byte	.LASF47
 3717 0642 01       		.byte	0x1
 3718 0643 F7       		.byte	0xf7
 3719 0644 29010000 		.4byte	0x129
 3720 0648 02       		.uleb128 0x2
 3721 0649 91       		.byte	0x91
 3722 064a 64       		.sleb128 -28
 3723 064b 0D       		.uleb128 0xd
 3724 064c 0C000000 		.4byte	.LVL60
 3725 0650 92030000 		.4byte	0x392
 3726 0654 65060000 		.4byte	0x665
 3727 0658 0E       		.uleb128 0xe
 3728 0659 01       		.uleb128 0x1
 3729 065a 50       		.byte	0x50
 3730 065b 02       		.uleb128 0x2
 3731 065c 74       		.byte	0x74
 3732 065d 00       		.sleb128 0
 3733 065e 0E       		.uleb128 0xe
 3734 065f 01       		.uleb128 0x1
 3735 0660 51       		.byte	0x51
 3736 0661 02       		.uleb128 0x2
 3737 0662 75       		.byte	0x75
 3738 0663 00       		.sleb128 0
 3739 0664 00       		.byte	0
 3740 0665 0D       		.uleb128 0xd
 3741 0666 14000000 		.4byte	.LVL61
 3742 066a 61040000 		.4byte	0x461
 3743 066e 7F060000 		.4byte	0x67f
 3744 0672 0E       		.uleb128 0xe
 3745 0673 01       		.uleb128 0x1
 3746 0674 50       		.byte	0x50
 3747 0675 02       		.uleb128 0x2
 3748 0676 74       		.byte	0x74
 3749 0677 00       		.sleb128 0
 3750 0678 0E       		.uleb128 0xe
 3751 0679 01       		.uleb128 0x1
 3752 067a 51       		.byte	0x51
 3753 067b 02       		.uleb128 0x2
 3754 067c 91       		.byte	0x91
 3755 067d 64       		.sleb128 -28
 3756 067e 00       		.byte	0
 3757 067f 0D       		.uleb128 0xd
 3758 0680 1E000000 		.4byte	.LVL62
 3759 0684 33190000 		.4byte	0x1933
 3760 0688 9E060000 		.4byte	0x69e
 3761 068c 0E       		.uleb128 0xe
ARM GAS  C:\Users\Administrator\AppData\Local\Temp\ccPIvPLo.s 			page 89


 3762 068d 01       		.uleb128 0x1
 3763 068e 50       		.byte	0x50
 3764 068f 02       		.uleb128 0x2
 3765 0690 75       		.byte	0x75
 3766 0691 00       		.sleb128 0
 3767 0692 0E       		.uleb128 0xe
 3768 0693 01       		.uleb128 0x1
 3769 0694 51       		.byte	0x51
 3770 0695 02       		.uleb128 0x2
 3771 0696 91       		.byte	0x91
 3772 0697 64       		.sleb128 -28
 3773 0698 0E       		.uleb128 0xe
 3774 0699 01       		.uleb128 0x1
 3775 069a 52       		.byte	0x52
 3776 069b 01       		.uleb128 0x1
 3777 069c 3C       		.byte	0x3c
 3778 069d 00       		.byte	0
 3779 069e 0F       		.uleb128 0xf
 3780 069f 2A000000 		.4byte	.LVL63
 3781 06a3 02030000 		.4byte	0x302
 3782 06a7 0E       		.uleb128 0xe
 3783 06a8 01       		.uleb128 0x1
 3784 06a9 50       		.byte	0x50
 3785 06aa 02       		.uleb128 0x2
 3786 06ab 74       		.byte	0x74
 3787 06ac 00       		.sleb128 0
 3788 06ad 00       		.byte	0
 3789 06ae 00       		.byte	0
 3790 06af 15       		.uleb128 0x15
 3791 06b0 D1020000 		.4byte	.LASF48
 3792 06b4 01       		.byte	0x1
 3793 06b5 0E01     		.2byte	0x10e
 3794 06b7 97000000 		.4byte	0x97
 3795 06bb 00000000 		.4byte	.LFB76
 3796 06bf 28000000 		.4byte	.LFE76-.LFB76
 3797 06c3 01       		.uleb128 0x1
 3798 06c4 9C       		.byte	0x9c
 3799 06c5 48070000 		.4byte	0x748
 3800 06c9 16       		.uleb128 0x16
 3801 06ca 80030000 		.4byte	.LASF33
 3802 06ce 01       		.byte	0x1
 3803 06cf 0E01     		.2byte	0x10e
 3804 06d1 A3000000 		.4byte	0xa3
 3805 06d5 64030000 		.4byte	.LLST22
 3806 06d9 16       		.uleb128 0x16
 3807 06da 4F030000 		.4byte	.LASF39
 3808 06de 01       		.byte	0x1
 3809 06df 0E01     		.2byte	0x10e
 3810 06e1 DC030000 		.4byte	0x3dc
 3811 06e5 85030000 		.4byte	.LLST23
 3812 06e9 17       		.uleb128 0x17
 3813 06ea 73000000 		.4byte	.LASF47
 3814 06ee 01       		.byte	0x1
 3815 06ef 1001     		.2byte	0x110
 3816 06f1 29010000 		.4byte	0x129
 3817 06f5 02       		.uleb128 0x2
 3818 06f6 91       		.byte	0x91
ARM GAS  C:\Users\Administrator\AppData\Local\Temp\ccPIvPLo.s 			page 90


 3819 06f7 64       		.sleb128 -28
 3820 06f8 0D       		.uleb128 0xd
 3821 06f9 0C000000 		.4byte	.LVL66
 3822 06fd 92030000 		.4byte	0x392
 3823 0701 12070000 		.4byte	0x712
 3824 0705 0E       		.uleb128 0xe
 3825 0706 01       		.uleb128 0x1
 3826 0707 50       		.byte	0x50
 3827 0708 02       		.uleb128 0x2
 3828 0709 75       		.byte	0x75
 3829 070a 00       		.sleb128 0
 3830 070b 0E       		.uleb128 0xe
 3831 070c 01       		.uleb128 0x1
 3832 070d 51       		.byte	0x51
 3833 070e 02       		.uleb128 0x2
 3834 070f 74       		.byte	0x74
 3835 0710 00       		.sleb128 0
 3836 0711 00       		.byte	0
 3837 0712 0D       		.uleb128 0xd
 3838 0713 14000000 		.4byte	.LVL67
 3839 0717 61040000 		.4byte	0x461
 3840 071b 2C070000 		.4byte	0x72c
 3841 071f 0E       		.uleb128 0xe
 3842 0720 01       		.uleb128 0x1
 3843 0721 50       		.byte	0x50
 3844 0722 02       		.uleb128 0x2
 3845 0723 75       		.byte	0x75
 3846 0724 00       		.sleb128 0
 3847 0725 0E       		.uleb128 0xe
 3848 0726 01       		.uleb128 0x1
 3849 0727 51       		.byte	0x51
 3850 0728 02       		.uleb128 0x2
 3851 0729 91       		.byte	0x91
 3852 072a 64       		.sleb128 -28
 3853 072b 00       		.byte	0
 3854 072c 0F       		.uleb128 0xf
 3855 072d 1E000000 		.4byte	.LVL68
 3856 0731 33190000 		.4byte	0x1933
 3857 0735 0E       		.uleb128 0xe
 3858 0736 01       		.uleb128 0x1
 3859 0737 50       		.byte	0x50
 3860 0738 02       		.uleb128 0x2
 3861 0739 74       		.byte	0x74
 3862 073a 00       		.sleb128 0
 3863 073b 0E       		.uleb128 0xe
 3864 073c 01       		.uleb128 0x1
 3865 073d 51       		.byte	0x51
 3866 073e 02       		.uleb128 0x2
 3867 073f 91       		.byte	0x91
 3868 0740 64       		.sleb128 -28
 3869 0741 0E       		.uleb128 0xe
 3870 0742 01       		.uleb128 0x1
 3871 0743 52       		.byte	0x52
 3872 0744 01       		.uleb128 0x1
 3873 0745 3C       		.byte	0x3c
 3874 0746 00       		.byte	0
 3875 0747 00       		.byte	0
ARM GAS  C:\Users\Administrator\AppData\Local\Temp\ccPIvPLo.s 			page 91


 3876 0748 15       		.uleb128 0x15
 3877 0749 21010000 		.4byte	.LASF49
 3878 074d 01       		.byte	0x1
 3879 074e 2801     		.2byte	0x128
 3880 0750 97000000 		.4byte	0x97
 3881 0754 00000000 		.4byte	.LFB77
 3882 0758 30000000 		.4byte	.LFE77-.LFB77
 3883 075c 01       		.uleb128 0x1
 3884 075d 9C       		.byte	0x9c
 3885 075e C0070000 		.4byte	0x7c0
 3886 0762 16       		.uleb128 0x16
 3887 0763 80030000 		.4byte	.LASF33
 3888 0767 01       		.byte	0x1
 3889 0768 2801     		.2byte	0x128
 3890 076a A3000000 		.4byte	0xa3
 3891 076e B1030000 		.4byte	.LLST24
 3892 0772 17       		.uleb128 0x17
 3893 0773 73000000 		.4byte	.LASF47
 3894 0777 01       		.byte	0x1
 3895 0778 2A01     		.2byte	0x12a
 3896 077a 29010000 		.4byte	0x129
 3897 077e 02       		.uleb128 0x2
 3898 077f 91       		.byte	0x91
 3899 0780 64       		.sleb128 -28
 3900 0781 0D       		.uleb128 0xd
 3901 0782 0C000000 		.4byte	.LVL71
 3902 0786 E2030000 		.4byte	0x3e2
 3903 078a 95070000 		.4byte	0x795
 3904 078e 0E       		.uleb128 0xe
 3905 078f 01       		.uleb128 0x1
 3906 0790 50       		.byte	0x50
 3907 0791 02       		.uleb128 0x2
 3908 0792 74       		.byte	0x74
 3909 0793 00       		.sleb128 0
 3910 0794 00       		.byte	0
 3911 0795 0D       		.uleb128 0xd
 3912 0796 14000000 		.4byte	.LVL72
 3913 079a 61040000 		.4byte	0x461
 3914 079e AF070000 		.4byte	0x7af
 3915 07a2 0E       		.uleb128 0xe
 3916 07a3 01       		.uleb128 0x1
 3917 07a4 50       		.byte	0x50
 3918 07a5 02       		.uleb128 0x2
 3919 07a6 74       		.byte	0x74
 3920 07a7 00       		.sleb128 0
 3921 07a8 0E       		.uleb128 0xe
 3922 07a9 01       		.uleb128 0x1
 3923 07aa 51       		.byte	0x51
 3924 07ab 02       		.uleb128 0x2
 3925 07ac 75       		.byte	0x75
 3926 07ad 00       		.sleb128 0
 3927 07ae 00       		.byte	0
 3928 07af 0F       		.uleb128 0xf
 3929 07b0 26000000 		.4byte	.LVL73
 3930 07b4 4A030000 		.4byte	0x34a
 3931 07b8 0E       		.uleb128 0xe
 3932 07b9 01       		.uleb128 0x1
ARM GAS  C:\Users\Administrator\AppData\Local\Temp\ccPIvPLo.s 			page 92


 3933 07ba 50       		.byte	0x50
 3934 07bb 02       		.uleb128 0x2
 3935 07bc 74       		.byte	0x74
 3936 07bd 00       		.sleb128 0
 3937 07be 00       		.byte	0
 3938 07bf 00       		.byte	0
 3939 07c0 15       		.uleb128 0x15
 3940 07c1 FF010000 		.4byte	.LASF50
 3941 07c5 01       		.byte	0x1
 3942 07c6 4201     		.2byte	0x142
 3943 07c8 97000000 		.4byte	0x97
 3944 07cc 00000000 		.4byte	.LFB78
 3945 07d0 4C000000 		.4byte	.LFE78-.LFB78
 3946 07d4 01       		.uleb128 0x1
 3947 07d5 9C       		.byte	0x9c
 3948 07d6 79080000 		.4byte	0x879
 3949 07da 17       		.uleb128 0x17
 3950 07db CB030000 		.4byte	.LASF51
 3951 07df 01       		.byte	0x1
 3952 07e0 4401     		.2byte	0x144
 3953 07e2 79080000 		.4byte	0x879
 3954 07e6 03       		.uleb128 0x3
 3955 07e7 91       		.byte	0x91
 3956 07e8 8C4D     		.sleb128 -6516
 3957 07ea 17       		.uleb128 0x17
 3958 07eb DA020000 		.4byte	.LASF52
 3959 07ef 01       		.byte	0x1
 3960 07f0 4501     		.2byte	0x145
 3961 07f2 8A080000 		.4byte	0x88a
 3962 07f6 03       		.uleb128 0x3
 3963 07f7 91       		.byte	0x91
 3964 07f8 8051     		.sleb128 -6016
 3965 07fa 0D       		.uleb128 0xd
 3966 07fb 16000000 		.4byte	.LVL74
 3967 07ff 14190000 		.4byte	0x1914
 3968 0803 1A080000 		.4byte	0x81a
 3969 0807 0E       		.uleb128 0xe
 3970 0808 01       		.uleb128 0x1
 3971 0809 50       		.byte	0x50
 3972 080a 03       		.uleb128 0x3
 3973 080b 91       		.byte	0x91
 3974 080c 8C4D     		.sleb128 -6516
 3975 080e 0E       		.uleb128 0xe
 3976 080f 01       		.uleb128 0x1
 3977 0810 51       		.byte	0x51
 3978 0811 01       		.uleb128 0x1
 3979 0812 30       		.byte	0x30
 3980 0813 0E       		.uleb128 0xe
 3981 0814 01       		.uleb128 0x1
 3982 0815 52       		.byte	0x52
 3983 0816 02       		.uleb128 0x2
 3984 0817 75       		.byte	0x75
 3985 0818 00       		.sleb128 0
 3986 0819 00       		.byte	0
 3987 081a 0D       		.uleb128 0xd
 3988 081b 20000000 		.4byte	.LVL75
 3989 081f 14190000 		.4byte	0x1914
ARM GAS  C:\Users\Administrator\AppData\Local\Temp\ccPIvPLo.s 			page 93


 3990 0823 3A080000 		.4byte	0x83a
 3991 0827 0E       		.uleb128 0xe
 3992 0828 01       		.uleb128 0x1
 3993 0829 50       		.byte	0x50
 3994 082a 03       		.uleb128 0x3
 3995 082b 91       		.byte	0x91
 3996 082c 8051     		.sleb128 -6016
 3997 082e 0E       		.uleb128 0xe
 3998 082f 01       		.uleb128 0x1
 3999 0830 51       		.byte	0x51
 4000 0831 01       		.uleb128 0x1
 4001 0832 30       		.byte	0x30
 4002 0833 0E       		.uleb128 0xe
 4003 0834 01       		.uleb128 0x1
 4004 0835 52       		.byte	0x52
 4005 0836 02       		.uleb128 0x2
 4006 0837 74       		.byte	0x74
 4007 0838 00       		.sleb128 0
 4008 0839 00       		.byte	0
 4009 083a 0D       		.uleb128 0xd
 4010 083b 2A000000 		.4byte	.LVL76
 4011 083f 1D190000 		.4byte	0x191d
 4012 0843 5A080000 		.4byte	0x85a
 4013 0847 0E       		.uleb128 0xe
 4014 0848 01       		.uleb128 0x1
 4015 0849 50       		.byte	0x50
 4016 084a 03       		.uleb128 0x3
 4017 084b 91       		.byte	0x91
 4018 084c 8C4D     		.sleb128 -6516
 4019 084e 0E       		.uleb128 0xe
 4020 084f 01       		.uleb128 0x1
 4021 0850 51       		.byte	0x51
 4022 0851 01       		.uleb128 0x1
 4023 0852 30       		.byte	0x30
 4024 0853 0E       		.uleb128 0xe
 4025 0854 01       		.uleb128 0x1
 4026 0855 52       		.byte	0x52
 4027 0856 02       		.uleb128 0x2
 4028 0857 75       		.byte	0x75
 4029 0858 00       		.sleb128 0
 4030 0859 00       		.byte	0
 4031 085a 0F       		.uleb128 0xf
 4032 085b 36000000 		.4byte	.LVL77
 4033 085f 1D190000 		.4byte	0x191d
 4034 0863 0E       		.uleb128 0xe
 4035 0864 01       		.uleb128 0x1
 4036 0865 50       		.byte	0x50
 4037 0866 03       		.uleb128 0x3
 4038 0867 91       		.byte	0x91
 4039 0868 8051     		.sleb128 -6016
 4040 086a 0E       		.uleb128 0xe
 4041 086b 01       		.uleb128 0x1
 4042 086c 51       		.byte	0x51
 4043 086d 03       		.uleb128 0x3
 4044 086e 0A       		.byte	0xa
 4045 086f 0002     		.2byte	0x200
 4046 0871 0E       		.uleb128 0xe
ARM GAS  C:\Users\Administrator\AppData\Local\Temp\ccPIvPLo.s 			page 94


 4047 0872 01       		.uleb128 0x1
 4048 0873 52       		.byte	0x52
 4049 0874 02       		.uleb128 0x2
 4050 0875 74       		.byte	0x74
 4051 0876 00       		.sleb128 0
 4052 0877 00       		.byte	0
 4053 0878 00       		.byte	0
 4054 0879 09       		.uleb128 0x9
 4055 087a 81000000 		.4byte	0x81
 4056 087e 8A080000 		.4byte	0x88a
 4057 0882 10       		.uleb128 0x10
 4058 0883 D7000000 		.4byte	0xd7
 4059 0887 F301     		.2byte	0x1f3
 4060 0889 00       		.byte	0
 4061 088a 09       		.uleb128 0x9
 4062 088b 81000000 		.4byte	0x81
 4063 088f 9B080000 		.4byte	0x89b
 4064 0893 10       		.uleb128 0x10
 4065 0894 D7000000 		.4byte	0xd7
 4066 0898 6F17     		.2byte	0x176f
 4067 089a 00       		.byte	0
 4068 089b 15       		.uleb128 0x15
 4069 089c 1C030000 		.4byte	.LASF53
 4070 08a0 01       		.byte	0x1
 4071 08a1 5401     		.2byte	0x154
 4072 08a3 97000000 		.4byte	0x97
 4073 08a7 00000000 		.4byte	.LFB79
 4074 08ab 46000000 		.4byte	.LFE79-.LFB79
 4075 08af 01       		.uleb128 0x1
 4076 08b0 9C       		.byte	0x9c
 4077 08b1 27090000 		.4byte	0x927
 4078 08b5 16       		.uleb128 0x16
 4079 08b6 4F030000 		.4byte	.LASF39
 4080 08ba 01       		.byte	0x1
 4081 08bb 5401     		.2byte	0x154
 4082 08bd DC030000 		.4byte	0x3dc
 4083 08c1 D2030000 		.4byte	.LLST25
 4084 08c5 17       		.uleb128 0x17
 4085 08c6 80030000 		.4byte	.LASF33
 4086 08ca 01       		.byte	0x1
 4087 08cb 5601     		.2byte	0x156
 4088 08cd 8C000000 		.4byte	0x8c
 4089 08d1 02       		.uleb128 0x2
 4090 08d2 91       		.byte	0x91
 4091 08d3 6E       		.sleb128 -18
 4092 08d4 0D       		.uleb128 0xd
 4093 08d5 14000000 		.4byte	.LVL80
 4094 08d9 F5040000 		.4byte	0x4f5
 4095 08dd EE080000 		.4byte	0x8ee
 4096 08e1 0E       		.uleb128 0xe
 4097 08e2 01       		.uleb128 0x1
 4098 08e3 50       		.byte	0x50
 4099 08e4 02       		.uleb128 0x2
 4100 08e5 75       		.byte	0x75
 4101 08e6 00       		.sleb128 0
 4102 08e7 0E       		.uleb128 0xe
 4103 08e8 01       		.uleb128 0x1
ARM GAS  C:\Users\Administrator\AppData\Local\Temp\ccPIvPLo.s 			page 95


 4104 08e9 51       		.byte	0x51
 4105 08ea 02       		.uleb128 0x2
 4106 08eb 76       		.byte	0x76
 4107 08ec 00       		.sleb128 0
 4108 08ed 00       		.byte	0
 4109 08ee 0D       		.uleb128 0xd
 4110 08ef 24000000 		.4byte	.LVL81
 4111 08f3 AF060000 		.4byte	0x6af
 4112 08f7 02090000 		.4byte	0x902
 4113 08fb 0E       		.uleb128 0xe
 4114 08fc 01       		.uleb128 0x1
 4115 08fd 51       		.byte	0x51
 4116 08fe 02       		.uleb128 0x2
 4117 08ff 76       		.byte	0x76
 4118 0900 00       		.sleb128 0
 4119 0901 00       		.byte	0
 4120 0902 0D       		.uleb128 0xd
 4121 0903 2C000000 		.4byte	.LVL82
 4122 0907 E2010000 		.4byte	0x1e2
 4123 090b 16090000 		.4byte	0x916
 4124 090f 0E       		.uleb128 0xe
 4125 0910 01       		.uleb128 0x1
 4126 0911 50       		.byte	0x50
 4127 0912 02       		.uleb128 0x2
 4128 0913 75       		.byte	0x75
 4129 0914 00       		.sleb128 0
 4130 0915 00       		.byte	0
 4131 0916 0F       		.uleb128 0xf
 4132 0917 3C000000 		.4byte	.LVL83
 4133 091b 06060000 		.4byte	0x606
 4134 091f 0E       		.uleb128 0xe
 4135 0920 01       		.uleb128 0x1
 4136 0921 51       		.byte	0x51
 4137 0922 02       		.uleb128 0x2
 4138 0923 76       		.byte	0x76
 4139 0924 00       		.sleb128 0
 4140 0925 00       		.byte	0
 4141 0926 00       		.byte	0
 4142 0927 15       		.uleb128 0x15
 4143 0928 CB040000 		.4byte	.LASF54
 4144 092c 01       		.byte	0x1
 4145 092d 8001     		.2byte	0x180
 4146 092f 97000000 		.4byte	0x97
 4147 0933 00000000 		.4byte	.LFB80
 4148 0937 2E000000 		.4byte	.LFE80-.LFB80
 4149 093b 01       		.uleb128 0x1
 4150 093c 9C       		.byte	0x9c
 4151 093d 85090000 		.4byte	0x985
 4152 0941 16       		.uleb128 0x16
 4153 0942 0B060000 		.4byte	.LASF21
 4154 0946 01       		.byte	0x1
 4155 0947 8001     		.2byte	0x180
 4156 0949 DE000000 		.4byte	0xde
 4157 094d 09040000 		.4byte	.LLST26
 4158 0951 17       		.uleb128 0x17
 4159 0952 80030000 		.4byte	.LASF33
 4160 0956 01       		.byte	0x1
ARM GAS  C:\Users\Administrator\AppData\Local\Temp\ccPIvPLo.s 			page 96


 4161 0957 8201     		.2byte	0x182
 4162 0959 8C000000 		.4byte	0x8c
 4163 095d 02       		.uleb128 0x2
 4164 095e 91       		.byte	0x91
 4165 095f 76       		.sleb128 -10
 4166 0960 0D       		.uleb128 0xd
 4167 0961 12000000 		.4byte	.LVL87
 4168 0965 F5040000 		.4byte	0x4f5
 4169 0969 7B090000 		.4byte	0x97b
 4170 096d 0E       		.uleb128 0xe
 4171 096e 01       		.uleb128 0x1
 4172 096f 50       		.byte	0x50
 4173 0970 02       		.uleb128 0x2
 4174 0971 74       		.byte	0x74
 4175 0972 00       		.sleb128 0
 4176 0973 0E       		.uleb128 0xe
 4177 0974 01       		.uleb128 0x1
 4178 0975 51       		.byte	0x51
 4179 0976 03       		.uleb128 0x3
 4180 0977 F3       		.byte	0xf3
 4181 0978 01       		.uleb128 0x1
 4182 0979 50       		.byte	0x50
 4183 097a 00       		.byte	0
 4184 097b 18       		.uleb128 0x18
 4185 097c 24000000 		.4byte	.LVL88
 4186 0980 48070000 		.4byte	0x748
 4187 0984 00       		.byte	0
 4188 0985 15       		.uleb128 0x15
 4189 0986 CF060000 		.4byte	.LASF55
 4190 098a 01       		.byte	0x1
 4191 098b 9E01     		.2byte	0x19e
 4192 098d 97000000 		.4byte	0x97
 4193 0991 00000000 		.4byte	.LFB81
 4194 0995 08000000 		.4byte	.LFE81-.LFB81
 4195 0999 01       		.uleb128 0x1
 4196 099a 9C       		.byte	0x9c
 4197 099b A9090000 		.4byte	0x9a9
 4198 099f 18       		.uleb128 0x18
 4199 09a0 06000000 		.4byte	.LVL89
 4200 09a4 C0070000 		.4byte	0x7c0
 4201 09a8 00       		.byte	0
 4202 09a9 15       		.uleb128 0x15
 4203 09aa 54030000 		.4byte	.LASF56
 4204 09ae 01       		.byte	0x1
 4205 09af AC01     		.2byte	0x1ac
 4206 09b1 97000000 		.4byte	0x97
 4207 09b5 00000000 		.4byte	.LFB82
 4208 09b9 4C000000 		.4byte	.LFE82-.LFB82
 4209 09bd 01       		.uleb128 0x1
 4210 09be 9C       		.byte	0x9c
 4211 09bf 1C0A0000 		.4byte	0xa1c
 4212 09c3 16       		.uleb128 0x16
 4213 09c4 4F030000 		.4byte	.LASF39
 4214 09c8 01       		.byte	0x1
 4215 09c9 AC01     		.2byte	0x1ac
 4216 09cb DC030000 		.4byte	0x3dc
 4217 09cf 35040000 		.4byte	.LLST27
ARM GAS  C:\Users\Administrator\AppData\Local\Temp\ccPIvPLo.s 			page 97


 4218 09d3 17       		.uleb128 0x17
 4219 09d4 80030000 		.4byte	.LASF33
 4220 09d8 01       		.byte	0x1
 4221 09d9 AE01     		.2byte	0x1ae
 4222 09db 8C000000 		.4byte	0x8c
 4223 09df 02       		.uleb128 0x2
 4224 09e0 91       		.byte	0x91
 4225 09e1 6A       		.sleb128 -22
 4226 09e2 17       		.uleb128 0x17
 4227 09e3 13030000 		.4byte	.LASF57
 4228 09e7 01       		.byte	0x1
 4229 09e8 AF01     		.2byte	0x1af
 4230 09ea 1C0A0000 		.4byte	0xa1c
 4231 09ee 02       		.uleb128 0x2
 4232 09ef 91       		.byte	0x91
 4233 09f0 6C       		.sleb128 -20
 4234 09f1 0D       		.uleb128 0xd
 4235 09f2 16000000 		.4byte	.LVL92
 4236 09f6 F5040000 		.4byte	0x4f5
 4237 09fa 0B0A0000 		.4byte	0xa0b
 4238 09fe 0E       		.uleb128 0xe
 4239 09ff 01       		.uleb128 0x1
 4240 0a00 50       		.byte	0x50
 4241 0a01 02       		.uleb128 0x2
 4242 0a02 75       		.byte	0x75
 4243 0a03 00       		.sleb128 0
 4244 0a04 0E       		.uleb128 0xe
 4245 0a05 01       		.uleb128 0x1
 4246 0a06 51       		.byte	0x51
 4247 0a07 02       		.uleb128 0x2
 4248 0a08 74       		.byte	0x74
 4249 0a09 00       		.sleb128 0
 4250 0a0a 00       		.byte	0
 4251 0a0b 0F       		.uleb128 0xf
 4252 0a0c 28000000 		.4byte	.LVL93
 4253 0a10 BC050000 		.4byte	0x5bc
 4254 0a14 0E       		.uleb128 0xe
 4255 0a15 01       		.uleb128 0x1
 4256 0a16 51       		.byte	0x51
 4257 0a17 02       		.uleb128 0x2
 4258 0a18 91       		.byte	0x91
 4259 0a19 6C       		.sleb128 -20
 4260 0a1a 00       		.byte	0
 4261 0a1b 00       		.byte	0
 4262 0a1c 09       		.uleb128 0x9
 4263 0a1d 81000000 		.4byte	0x81
 4264 0a21 2C0A0000 		.4byte	0xa2c
 4265 0a25 0A       		.uleb128 0xa
 4266 0a26 D7000000 		.4byte	0xd7
 4267 0a2a 03       		.byte	0x3
 4268 0a2b 00       		.byte	0
 4269 0a2c 19       		.uleb128 0x19
 4270 0a2d 11000000 		.4byte	.LASF58
 4271 0a31 01       		.byte	0x1
 4272 0a32 D501     		.2byte	0x1d5
 4273 0a34 00000000 		.4byte	.LFB83
 4274 0a38 44000000 		.4byte	.LFE83-.LFB83
ARM GAS  C:\Users\Administrator\AppData\Local\Temp\ccPIvPLo.s 			page 98


 4275 0a3c 01       		.uleb128 0x1
 4276 0a3d 9C       		.byte	0x9c
 4277 0a3e BC0A0000 		.4byte	0xabc
 4278 0a42 16       		.uleb128 0x16
 4279 0a43 CE010000 		.4byte	.LASF59
 4280 0a47 01       		.byte	0x1
 4281 0a48 D501     		.2byte	0x1d5
 4282 0a4a A3000000 		.4byte	0xa3
 4283 0a4e 6C040000 		.4byte	.LLST28
 4284 0a52 16       		.uleb128 0x16
 4285 0a53 76010000 		.4byte	.LASF60
 4286 0a57 01       		.byte	0x1
 4287 0a58 D501     		.2byte	0x1d5
 4288 0a5a 97000000 		.4byte	0x97
 4289 0a5e 8D040000 		.4byte	.LLST29
 4290 0a62 17       		.uleb128 0x17
 4291 0a63 24040000 		.4byte	.LASF29
 4292 0a67 01       		.byte	0x1
 4293 0a68 D701     		.2byte	0x1d7
 4294 0a6a 97000000 		.4byte	0x97
 4295 0a6e 02       		.uleb128 0x2
 4296 0a6f 91       		.byte	0x91
 4297 0a70 6F       		.sleb128 -17
 4298 0a71 1A       		.uleb128 0x1a
 4299 0a72 746D7000 		.ascii	"tmp\000"
 4300 0a76 01       		.byte	0x1
 4301 0a77 D801     		.2byte	0x1d8
 4302 0a79 A3000000 		.4byte	0xa3
 4303 0a7d AE040000 		.4byte	.LLST30
 4304 0a81 0D       		.uleb128 0xd
 4305 0a82 20000000 		.4byte	.LVL98
 4306 0a86 28190000 		.4byte	0x1928
 4307 0a8a A00A0000 		.4byte	0xaa0
 4308 0a8e 0E       		.uleb128 0xe
 4309 0a8f 01       		.uleb128 0x1
 4310 0a90 50       		.byte	0x50
 4311 0a91 02       		.uleb128 0x2
 4312 0a92 75       		.byte	0x75
 4313 0a93 00       		.sleb128 0
 4314 0a94 0E       		.uleb128 0xe
 4315 0a95 01       		.uleb128 0x1
 4316 0a96 51       		.byte	0x51
 4317 0a97 02       		.uleb128 0x2
 4318 0a98 74       		.byte	0x74
 4319 0a99 00       		.sleb128 0
 4320 0a9a 0E       		.uleb128 0xe
 4321 0a9b 01       		.uleb128 0x1
 4322 0a9c 52       		.byte	0x52
 4323 0a9d 01       		.uleb128 0x1
 4324 0a9e 31       		.byte	0x31
 4325 0a9f 00       		.byte	0
 4326 0aa0 0F       		.uleb128 0xf
 4327 0aa1 3E000000 		.4byte	.LVL99
 4328 0aa5 1D190000 		.4byte	0x191d
 4329 0aa9 0E       		.uleb128 0xe
 4330 0aaa 01       		.uleb128 0x1
 4331 0aab 50       		.byte	0x50
ARM GAS  C:\Users\Administrator\AppData\Local\Temp\ccPIvPLo.s 			page 99


 4332 0aac 02       		.uleb128 0x2
 4333 0aad 75       		.byte	0x75
 4334 0aae 00       		.sleb128 0
 4335 0aaf 0E       		.uleb128 0xe
 4336 0ab0 01       		.uleb128 0x1
 4337 0ab1 51       		.byte	0x51
 4338 0ab2 02       		.uleb128 0x2
 4339 0ab3 74       		.byte	0x74
 4340 0ab4 00       		.sleb128 0
 4341 0ab5 0E       		.uleb128 0xe
 4342 0ab6 01       		.uleb128 0x1
 4343 0ab7 52       		.byte	0x52
 4344 0ab8 01       		.uleb128 0x1
 4345 0ab9 31       		.byte	0x31
 4346 0aba 00       		.byte	0
 4347 0abb 00       		.byte	0
 4348 0abc 1B       		.uleb128 0x1b
 4349 0abd 92030000 		.4byte	.LASF61
 4350 0ac1 01       		.byte	0x1
 4351 0ac2 EF01     		.2byte	0x1ef
 4352 0ac4 97000000 		.4byte	0x97
 4353 0ac8 00000000 		.4byte	.LFB84
 4354 0acc 28000000 		.4byte	.LFE84-.LFB84
 4355 0ad0 01       		.uleb128 0x1
 4356 0ad1 9C       		.byte	0x9c
 4357 0ad2 1B0B0000 		.4byte	0xb1b
 4358 0ad6 16       		.uleb128 0x16
 4359 0ad7 CE010000 		.4byte	.LASF59
 4360 0adb 01       		.byte	0x1
 4361 0adc EF01     		.2byte	0x1ef
 4362 0ade A3000000 		.4byte	0xa3
 4363 0ae2 D9040000 		.4byte	.LLST31
 4364 0ae6 17       		.uleb128 0x17
 4365 0ae7 24040000 		.4byte	.LASF29
 4366 0aeb 01       		.byte	0x1
 4367 0aec F101     		.2byte	0x1f1
 4368 0aee 97000000 		.4byte	0x97
 4369 0af2 02       		.uleb128 0x2
 4370 0af3 91       		.byte	0x91
 4371 0af4 77       		.sleb128 -9
 4372 0af5 1A       		.uleb128 0x1a
 4373 0af6 746D7000 		.ascii	"tmp\000"
 4374 0afa 01       		.byte	0x1
 4375 0afb F201     		.2byte	0x1f2
 4376 0afd A3000000 		.4byte	0xa3
 4377 0b01 FA040000 		.4byte	.LLST32
 4378 0b05 0F       		.uleb128 0xf
 4379 0b06 1C000000 		.4byte	.LVL102
 4380 0b0a 28190000 		.4byte	0x1928
 4381 0b0e 0E       		.uleb128 0xe
 4382 0b0f 01       		.uleb128 0x1
 4383 0b10 50       		.byte	0x50
 4384 0b11 02       		.uleb128 0x2
 4385 0b12 74       		.byte	0x74
 4386 0b13 00       		.sleb128 0
 4387 0b14 0E       		.uleb128 0xe
 4388 0b15 01       		.uleb128 0x1
ARM GAS  C:\Users\Administrator\AppData\Local\Temp\ccPIvPLo.s 			page 100


 4389 0b16 52       		.byte	0x52
 4390 0b17 01       		.uleb128 0x1
 4391 0b18 31       		.byte	0x31
 4392 0b19 00       		.byte	0
 4393 0b1a 00       		.byte	0
 4394 0b1b 19       		.uleb128 0x19
 4395 0b1c 9C020000 		.4byte	.LASF62
 4396 0b20 01       		.byte	0x1
 4397 0b21 0902     		.2byte	0x209
 4398 0b23 00000000 		.4byte	.LFB85
 4399 0b27 24000000 		.4byte	.LFE85-.LFB85
 4400 0b2b 01       		.uleb128 0x1
 4401 0b2c 9C       		.byte	0x9c
 4402 0b2d 860B0000 		.4byte	0xb86
 4403 0b31 16       		.uleb128 0x16
 4404 0b32 CE010000 		.4byte	.LASF59
 4405 0b36 01       		.byte	0x1
 4406 0b37 0902     		.2byte	0x209
 4407 0b39 A3000000 		.4byte	0xa3
 4408 0b3d 25050000 		.4byte	.LLST33
 4409 0b41 16       		.uleb128 0x16
 4410 0b42 DD040000 		.4byte	.LASF63
 4411 0b46 01       		.byte	0x1
 4412 0b47 0902     		.2byte	0x209
 4413 0b49 97000000 		.4byte	0x97
 4414 0b4d 46050000 		.4byte	.LLST34
 4415 0b51 17       		.uleb128 0x17
 4416 0b52 24040000 		.4byte	.LASF29
 4417 0b56 01       		.byte	0x1
 4418 0b57 0B02     		.2byte	0x20b
 4419 0b59 97000000 		.4byte	0x97
 4420 0b5d 02       		.uleb128 0x2
 4421 0b5e 91       		.byte	0x91
 4422 0b5f 77       		.sleb128 -9
 4423 0b60 1A       		.uleb128 0x1a
 4424 0b61 746D7000 		.ascii	"tmp\000"
 4425 0b65 01       		.byte	0x1
 4426 0b66 0C02     		.2byte	0x20c
 4427 0b68 A3000000 		.4byte	0xa3
 4428 0b6c 7F050000 		.4byte	.LLST35
 4429 0b70 0F       		.uleb128 0xf
 4430 0b71 1E000000 		.4byte	.LVL107
 4431 0b75 1D190000 		.4byte	0x191d
 4432 0b79 0E       		.uleb128 0xe
 4433 0b7a 01       		.uleb128 0x1
 4434 0b7b 50       		.byte	0x50
 4435 0b7c 02       		.uleb128 0x2
 4436 0b7d 74       		.byte	0x74
 4437 0b7e 00       		.sleb128 0
 4438 0b7f 0E       		.uleb128 0xe
 4439 0b80 01       		.uleb128 0x1
 4440 0b81 52       		.byte	0x52
 4441 0b82 01       		.uleb128 0x1
 4442 0b83 31       		.byte	0x31
 4443 0b84 00       		.byte	0
 4444 0b85 00       		.byte	0
 4445 0b86 1B       		.uleb128 0x1b
ARM GAS  C:\Users\Administrator\AppData\Local\Temp\ccPIvPLo.s 			page 101


 4446 0b87 2E030000 		.4byte	.LASF64
 4447 0b8b 01       		.byte	0x1
 4448 0b8c 1D02     		.2byte	0x21d
 4449 0b8e 97000000 		.4byte	0x97
 4450 0b92 00000000 		.4byte	.LFB86
 4451 0b96 28000000 		.4byte	.LFE86-.LFB86
 4452 0b9a 01       		.uleb128 0x1
 4453 0b9b 9C       		.byte	0x9c
 4454 0b9c E50B0000 		.4byte	0xbe5
 4455 0ba0 16       		.uleb128 0x16
 4456 0ba1 CE010000 		.4byte	.LASF59
 4457 0ba5 01       		.byte	0x1
 4458 0ba6 1D02     		.2byte	0x21d
 4459 0ba8 A3000000 		.4byte	0xa3
 4460 0bac AA050000 		.4byte	.LLST36
 4461 0bb0 17       		.uleb128 0x17
 4462 0bb1 24040000 		.4byte	.LASF29
 4463 0bb5 01       		.byte	0x1
 4464 0bb6 1F02     		.2byte	0x21f
 4465 0bb8 97000000 		.4byte	0x97
 4466 0bbc 02       		.uleb128 0x2
 4467 0bbd 91       		.byte	0x91
 4468 0bbe 77       		.sleb128 -9
 4469 0bbf 1A       		.uleb128 0x1a
 4470 0bc0 746D7000 		.ascii	"tmp\000"
 4471 0bc4 01       		.byte	0x1
 4472 0bc5 2002     		.2byte	0x220
 4473 0bc7 A3000000 		.4byte	0xa3
 4474 0bcb CB050000 		.4byte	.LLST37
 4475 0bcf 0F       		.uleb128 0xf
 4476 0bd0 1C000000 		.4byte	.LVL110
 4477 0bd4 28190000 		.4byte	0x1928
 4478 0bd8 0E       		.uleb128 0xe
 4479 0bd9 01       		.uleb128 0x1
 4480 0bda 50       		.byte	0x50
 4481 0bdb 02       		.uleb128 0x2
 4482 0bdc 74       		.byte	0x74
 4483 0bdd 00       		.sleb128 0
 4484 0bde 0E       		.uleb128 0xe
 4485 0bdf 01       		.uleb128 0x1
 4486 0be0 52       		.byte	0x52
 4487 0be1 01       		.uleb128 0x1
 4488 0be2 31       		.byte	0x31
 4489 0be3 00       		.byte	0
 4490 0be4 00       		.byte	0
 4491 0be5 1C       		.uleb128 0x1c
 4492 0be6 BC030000 		.4byte	.LASF65
 4493 0bea 01       		.byte	0x1
 4494 0beb 2F02     		.2byte	0x22f
 4495 0bed 00000000 		.4byte	.LFB87
 4496 0bf1 18000000 		.4byte	.LFE87-.LFB87
 4497 0bf5 01       		.uleb128 0x1
 4498 0bf6 9C       		.byte	0x9c
 4499 0bf7 370C0000 		.4byte	0xc37
 4500 0bfb 16       		.uleb128 0x16
 4501 0bfc D7010000 		.4byte	.LASF66
 4502 0c00 01       		.byte	0x1
ARM GAS  C:\Users\Administrator\AppData\Local\Temp\ccPIvPLo.s 			page 102


 4503 0c01 2F02     		.2byte	0x22f
 4504 0c03 A3000000 		.4byte	0xa3
 4505 0c07 F6050000 		.4byte	.LLST38
 4506 0c0b 1D       		.uleb128 0x1d
 4507 0c0c 71747900 		.ascii	"qty\000"
 4508 0c10 01       		.byte	0x1
 4509 0c11 3102     		.2byte	0x231
 4510 0c13 370C0000 		.4byte	0xc37
 4511 0c17 02       		.uleb128 0x2
 4512 0c18 91       		.byte	0x91
 4513 0c19 74       		.sleb128 -12
 4514 0c1a 0F       		.uleb128 0xf
 4515 0c1b 16000000 		.4byte	.LVL113
 4516 0c1f 1D190000 		.4byte	0x191d
 4517 0c23 0E       		.uleb128 0xe
 4518 0c24 01       		.uleb128 0x1
 4519 0c25 50       		.byte	0x50
 4520 0c26 02       		.uleb128 0x2
 4521 0c27 91       		.byte	0x91
 4522 0c28 74       		.sleb128 -12
 4523 0c29 0E       		.uleb128 0xe
 4524 0c2a 01       		.uleb128 0x1
 4525 0c2b 51       		.byte	0x51
 4526 0c2c 03       		.uleb128 0x3
 4527 0c2d 49       		.byte	0x49
 4528 0c2e 3C       		.byte	0x3c
 4529 0c2f 24       		.byte	0x24
 4530 0c30 0E       		.uleb128 0xe
 4531 0c31 01       		.uleb128 0x1
 4532 0c32 52       		.byte	0x52
 4533 0c33 01       		.uleb128 0x1
 4534 0c34 32       		.byte	0x32
 4535 0c35 00       		.byte	0
 4536 0c36 00       		.byte	0
 4537 0c37 09       		.uleb128 0x9
 4538 0c38 97000000 		.4byte	0x97
 4539 0c3c 470C0000 		.4byte	0xc47
 4540 0c40 0A       		.uleb128 0xa
 4541 0c41 D7000000 		.4byte	0xd7
 4542 0c45 01       		.byte	0x1
 4543 0c46 00       		.byte	0
 4544 0c47 15       		.uleb128 0x15
 4545 0c48 2A010000 		.4byte	.LASF67
 4546 0c4c 01       		.byte	0x1
 4547 0c4d 4002     		.2byte	0x240
 4548 0c4f A3000000 		.4byte	0xa3
 4549 0c53 00000000 		.4byte	.LFB88
 4550 0c57 1A000000 		.4byte	.LFE88-.LFB88
 4551 0c5b 01       		.uleb128 0x1
 4552 0c5c 9C       		.byte	0x9c
 4553 0c5d 8D0C0000 		.4byte	0xc8d
 4554 0c61 1D       		.uleb128 0x1d
 4555 0c62 71747900 		.ascii	"qty\000"
 4556 0c66 01       		.byte	0x1
 4557 0c67 4202     		.2byte	0x242
 4558 0c69 370C0000 		.4byte	0xc37
 4559 0c6d 02       		.uleb128 0x2
ARM GAS  C:\Users\Administrator\AppData\Local\Temp\ccPIvPLo.s 			page 103


 4560 0c6e 91       		.byte	0x91
 4561 0c6f 74       		.sleb128 -12
 4562 0c70 0F       		.uleb128 0xf
 4563 0c71 10000000 		.4byte	.LVL114
 4564 0c75 28190000 		.4byte	0x1928
 4565 0c79 0E       		.uleb128 0xe
 4566 0c7a 01       		.uleb128 0x1
 4567 0c7b 50       		.byte	0x50
 4568 0c7c 02       		.uleb128 0x2
 4569 0c7d 74       		.byte	0x74
 4570 0c7e 00       		.sleb128 0
 4571 0c7f 0E       		.uleb128 0xe
 4572 0c80 01       		.uleb128 0x1
 4573 0c81 51       		.byte	0x51
 4574 0c82 03       		.uleb128 0x3
 4575 0c83 49       		.byte	0x49
 4576 0c84 3C       		.byte	0x3c
 4577 0c85 24       		.byte	0x24
 4578 0c86 0E       		.uleb128 0xe
 4579 0c87 01       		.uleb128 0x1
 4580 0c88 52       		.byte	0x52
 4581 0c89 01       		.uleb128 0x1
 4582 0c8a 32       		.byte	0x32
 4583 0c8b 00       		.byte	0
 4584 0c8c 00       		.byte	0
 4585 0c8d 19       		.uleb128 0x19
 4586 0c8e E3020000 		.4byte	.LASF68
 4587 0c92 01       		.byte	0x1
 4588 0c93 5102     		.2byte	0x251
 4589 0c95 00000000 		.4byte	.LFB89
 4590 0c99 6C000000 		.4byte	.LFE89-.LFB89
 4591 0c9d 01       		.uleb128 0x1
 4592 0c9e 9C       		.byte	0x9c
 4593 0c9f 7F0D0000 		.4byte	0xd7f
 4594 0ca3 16       		.uleb128 0x16
 4595 0ca4 77030000 		.4byte	.LASF69
 4596 0ca8 01       		.byte	0x1
 4597 0ca9 5102     		.2byte	0x251
 4598 0cab 7F0D0000 		.4byte	0xd7f
 4599 0caf 17060000 		.4byte	.LLST39
 4600 0cb3 16       		.uleb128 0x16
 4601 0cb4 B5060000 		.4byte	.LASF70
 4602 0cb8 01       		.byte	0x1
 4603 0cb9 5102     		.2byte	0x251
 4604 0cbb 81000000 		.4byte	0x81
 4605 0cbf 36060000 		.4byte	.LLST40
 4606 0cc3 1E       		.uleb128 0x1e
 4607 0cc4 1C020000 		.4byte	.LASF71
 4608 0cc8 01       		.byte	0x1
 4609 0cc9 5302     		.2byte	0x253
 4610 0ccb A3000000 		.4byte	0xa3
 4611 0ccf 57060000 		.4byte	.LLST41
 4612 0cd3 1A       		.uleb128 0x1a
 4613 0cd4 746D7000 		.ascii	"tmp\000"
 4614 0cd8 01       		.byte	0x1
 4615 0cd9 5302     		.2byte	0x253
 4616 0cdb A3000000 		.4byte	0xa3
ARM GAS  C:\Users\Administrator\AppData\Local\Temp\ccPIvPLo.s 			page 104


 4617 0cdf 6A060000 		.4byte	.LLST42
 4618 0ce3 17       		.uleb128 0x17
 4619 0ce4 F0040000 		.4byte	.LASF72
 4620 0ce8 01       		.byte	0x1
 4621 0ce9 5702     		.2byte	0x257
 4622 0ceb 850D0000 		.4byte	0xd85
 4623 0cef 02       		.uleb128 0x2
 4624 0cf0 91       		.byte	0x91
 4625 0cf1 54       		.sleb128 -44
 4626 0cf2 18       		.uleb128 0x18
 4627 0cf3 0E000000 		.4byte	.LVL116
 4628 0cf7 470C0000 		.4byte	0xc47
 4629 0cfb 0D       		.uleb128 0xd
 4630 0cfc 1C000000 		.4byte	.LVL118
 4631 0d00 14190000 		.4byte	0x1914
 4632 0d04 1A0D0000 		.4byte	0xd1a
 4633 0d08 0E       		.uleb128 0xe
 4634 0d09 01       		.uleb128 0x1
 4635 0d0a 50       		.byte	0x50
 4636 0d0b 02       		.uleb128 0x2
 4637 0d0c 75       		.byte	0x75
 4638 0d0d 00       		.sleb128 0
 4639 0d0e 0E       		.uleb128 0xe
 4640 0d0f 01       		.uleb128 0x1
 4641 0d10 51       		.byte	0x51
 4642 0d11 01       		.uleb128 0x1
 4643 0d12 30       		.byte	0x30
 4644 0d13 0E       		.uleb128 0xe
 4645 0d14 01       		.uleb128 0x1
 4646 0d15 52       		.byte	0x52
 4647 0d16 02       		.uleb128 0x2
 4648 0d17 76       		.byte	0x76
 4649 0d18 00       		.sleb128 0
 4650 0d19 00       		.byte	0
 4651 0d1a 0D       		.uleb128 0xd
 4652 0d1b 2C000000 		.4byte	.LVL119
 4653 0d1f 3E190000 		.4byte	0x193e
 4654 0d23 3A0D0000 		.4byte	0xd3a
 4655 0d27 0E       		.uleb128 0xe
 4656 0d28 01       		.uleb128 0x1
 4657 0d29 50       		.byte	0x50
 4658 0d2a 02       		.uleb128 0x2
 4659 0d2b 91       		.byte	0x91
 4660 0d2c 55       		.sleb128 -43
 4661 0d2d 0E       		.uleb128 0xe
 4662 0d2e 01       		.uleb128 0x1
 4663 0d2f 51       		.byte	0x51
 4664 0d30 03       		.uleb128 0x3
 4665 0d31 91       		.byte	0x91
 4666 0d32 4C       		.sleb128 -52
 4667 0d33 06       		.byte	0x6
 4668 0d34 0E       		.uleb128 0xe
 4669 0d35 01       		.uleb128 0x1
 4670 0d36 52       		.byte	0x52
 4671 0d37 01       		.uleb128 0x1
 4672 0d38 40       		.byte	0x40
 4673 0d39 00       		.byte	0
ARM GAS  C:\Users\Administrator\AppData\Local\Temp\ccPIvPLo.s 			page 105


 4674 0d3a 0D       		.uleb128 0xd
 4675 0d3b 46000000 		.4byte	.LVL121
 4676 0d3f 1D190000 		.4byte	0x191d
 4677 0d43 540D0000 		.4byte	0xd54
 4678 0d47 0E       		.uleb128 0xe
 4679 0d48 01       		.uleb128 0x1
 4680 0d49 50       		.byte	0x50
 4681 0d4a 02       		.uleb128 0x2
 4682 0d4b 75       		.byte	0x75
 4683 0d4c 00       		.sleb128 0
 4684 0d4d 0E       		.uleb128 0xe
 4685 0d4e 01       		.uleb128 0x1
 4686 0d4f 52       		.byte	0x52
 4687 0d50 02       		.uleb128 0x2
 4688 0d51 76       		.byte	0x76
 4689 0d52 00       		.sleb128 0
 4690 0d53 00       		.byte	0
 4691 0d54 0D       		.uleb128 0xd
 4692 0d55 54000000 		.4byte	.LVL123
 4693 0d59 1B0B0000 		.4byte	0xb1b
 4694 0d5d 6E0D0000 		.4byte	0xd6e
 4695 0d61 0E       		.uleb128 0xe
 4696 0d62 01       		.uleb128 0x1
 4697 0d63 50       		.byte	0x50
 4698 0d64 02       		.uleb128 0x2
 4699 0d65 74       		.byte	0x74
 4700 0d66 7F       		.sleb128 -1
 4701 0d67 0E       		.uleb128 0xe
 4702 0d68 01       		.uleb128 0x1
 4703 0d69 51       		.byte	0x51
 4704 0d6a 02       		.uleb128 0x2
 4705 0d6b 77       		.byte	0x77
 4706 0d6c 00       		.sleb128 0
 4707 0d6d 00       		.byte	0
 4708 0d6e 0F       		.uleb128 0xf
 4709 0d6f 5A000000 		.4byte	.LVL124
 4710 0d73 E50B0000 		.4byte	0xbe5
 4711 0d77 0E       		.uleb128 0xe
 4712 0d78 01       		.uleb128 0x1
 4713 0d79 50       		.byte	0x50
 4714 0d7a 02       		.uleb128 0x2
 4715 0d7b 74       		.byte	0x74
 4716 0d7c 00       		.sleb128 0
 4717 0d7d 00       		.byte	0
 4718 0d7e 00       		.byte	0
 4719 0d7f 06       		.uleb128 0x6
 4720 0d80 04       		.byte	0x4
 4721 0d81 65010000 		.4byte	0x165
 4722 0d85 09       		.uleb128 0x9
 4723 0d86 97000000 		.4byte	0x97
 4724 0d8a 950D0000 		.4byte	0xd95
 4725 0d8e 0A       		.uleb128 0xa
 4726 0d8f D7000000 		.4byte	0xd7
 4727 0d93 10       		.byte	0x10
 4728 0d94 00       		.byte	0
 4729 0d95 19       		.uleb128 0x19
 4730 0d96 86000000 		.4byte	.LASF73
ARM GAS  C:\Users\Administrator\AppData\Local\Temp\ccPIvPLo.s 			page 106


 4731 0d9a 01       		.byte	0x1
 4732 0d9b 7D02     		.2byte	0x27d
 4733 0d9d 00000000 		.4byte	.LFB90
 4734 0da1 64000000 		.4byte	.LFE90-.LFB90
 4735 0da5 01       		.uleb128 0x1
 4736 0da6 9C       		.byte	0x9c
 4737 0da7 520E0000 		.4byte	0xe52
 4738 0dab 16       		.uleb128 0x16
 4739 0dac CE010000 		.4byte	.LASF59
 4740 0db0 01       		.byte	0x1
 4741 0db1 7D02     		.2byte	0x27d
 4742 0db3 A3000000 		.4byte	0xa3
 4743 0db7 83060000 		.4byte	.LLST43
 4744 0dbb 16       		.uleb128 0x16
 4745 0dbc 77030000 		.4byte	.LASF69
 4746 0dc0 01       		.byte	0x1
 4747 0dc1 7D02     		.2byte	0x27d
 4748 0dc3 7F0D0000 		.4byte	0xd7f
 4749 0dc7 A4060000 		.4byte	.LLST44
 4750 0dcb 1A       		.uleb128 0x1a
 4751 0dcc 746D7000 		.ascii	"tmp\000"
 4752 0dd0 01       		.byte	0x1
 4753 0dd1 7F02     		.2byte	0x27f
 4754 0dd3 A3000000 		.4byte	0xa3
 4755 0dd7 D0060000 		.4byte	.LLST45
 4756 0ddb 17       		.uleb128 0x17
 4757 0ddc 80020000 		.4byte	.LASF74
 4758 0de0 01       		.byte	0x1
 4759 0de1 8002     		.2byte	0x280
 4760 0de3 850D0000 		.4byte	0xd85
 4761 0de7 02       		.uleb128 0x2
 4762 0de8 91       		.byte	0x91
 4763 0de9 5C       		.sleb128 -36
 4764 0dea 1E       		.uleb128 0x1e
 4765 0deb 14060000 		.4byte	.LASF75
 4766 0def 01       		.byte	0x1
 4767 0df0 8102     		.2byte	0x281
 4768 0df2 AF000000 		.4byte	0xaf
 4769 0df6 E9060000 		.4byte	.LLST46
 4770 0dfa 0D       		.uleb128 0xd
 4771 0dfb 14000000 		.4byte	.LVL128
 4772 0dff 14190000 		.4byte	0x1914
 4773 0e03 190E0000 		.4byte	0xe19
 4774 0e07 0E       		.uleb128 0xe
 4775 0e08 01       		.uleb128 0x1
 4776 0e09 50       		.byte	0x50
 4777 0e0a 02       		.uleb128 0x2
 4778 0e0b 91       		.byte	0x91
 4779 0e0c 5C       		.sleb128 -36
 4780 0e0d 0E       		.uleb128 0xe
 4781 0e0e 01       		.uleb128 0x1
 4782 0e0f 51       		.byte	0x51
 4783 0e10 01       		.uleb128 0x1
 4784 0e11 30       		.byte	0x30
 4785 0e12 0E       		.uleb128 0xe
 4786 0e13 01       		.uleb128 0x1
 4787 0e14 52       		.byte	0x52
ARM GAS  C:\Users\Administrator\AppData\Local\Temp\ccPIvPLo.s 			page 107


 4788 0e15 02       		.uleb128 0x2
 4789 0e16 76       		.byte	0x76
 4790 0e17 00       		.sleb128 0
 4791 0e18 00       		.byte	0
 4792 0e19 18       		.uleb128 0x18
 4793 0e1a 46000000 		.4byte	.LVL136
 4794 0e1e 28190000 		.4byte	0x1928
 4795 0e22 0D       		.uleb128 0xd
 4796 0e23 52000000 		.4byte	.LVL137
 4797 0e27 3E190000 		.4byte	0x193e
 4798 0e2b 410E0000 		.4byte	0xe41
 4799 0e2f 0E       		.uleb128 0xe
 4800 0e30 01       		.uleb128 0x1
 4801 0e31 50       		.byte	0x50
 4802 0e32 02       		.uleb128 0x2
 4803 0e33 75       		.byte	0x75
 4804 0e34 00       		.sleb128 0
 4805 0e35 0E       		.uleb128 0xe
 4806 0e36 01       		.uleb128 0x1
 4807 0e37 51       		.byte	0x51
 4808 0e38 02       		.uleb128 0x2
 4809 0e39 7D       		.byte	0x7d
 4810 0e3a 05       		.sleb128 5
 4811 0e3b 0E       		.uleb128 0xe
 4812 0e3c 01       		.uleb128 0x1
 4813 0e3d 52       		.byte	0x52
 4814 0e3e 01       		.uleb128 0x1
 4815 0e3f 40       		.byte	0x40
 4816 0e40 00       		.byte	0
 4817 0e41 0F       		.uleb128 0xf
 4818 0e42 58000000 		.4byte	.LVL138
 4819 0e46 47190000 		.4byte	0x1947
 4820 0e4a 0E       		.uleb128 0xe
 4821 0e4b 01       		.uleb128 0x1
 4822 0e4c 50       		.byte	0x50
 4823 0e4d 02       		.uleb128 0x2
 4824 0e4e 75       		.byte	0x75
 4825 0e4f 00       		.sleb128 0
 4826 0e50 00       		.byte	0
 4827 0e51 00       		.byte	0
 4828 0e52 15       		.uleb128 0x15
 4829 0e53 B8040000 		.4byte	.LASF76
 4830 0e57 01       		.byte	0x1
 4831 0e58 9D02     		.2byte	0x29d
 4832 0e5a A3000000 		.4byte	0xa3
 4833 0e5e 00000000 		.4byte	.LFB91
 4834 0e62 64000000 		.4byte	.LFE91-.LFB91
 4835 0e66 01       		.uleb128 0x1
 4836 0e67 9C       		.byte	0x9c
 4837 0e68 F30E0000 		.4byte	0xef3
 4838 0e6c 16       		.uleb128 0x16
 4839 0e6d 3D030000 		.4byte	.LASF77
 4840 0e71 01       		.byte	0x1
 4841 0e72 9D02     		.2byte	0x29d
 4842 0e74 AF000000 		.4byte	0xaf
 4843 0e78 20070000 		.4byte	.LLST47
 4844 0e7c 1A       		.uleb128 0x1a
ARM GAS  C:\Users\Administrator\AppData\Local\Temp\ccPIvPLo.s 			page 108


 4845 0e7d 6900     		.ascii	"i\000"
 4846 0e7f 01       		.byte	0x1
 4847 0e80 9F02     		.2byte	0x29f
 4848 0e82 A3000000 		.4byte	0xa3
 4849 0e86 4C070000 		.4byte	.LLST48
 4850 0e8a 1A       		.uleb128 0x1a
 4851 0e8b 71747900 		.ascii	"qty\000"
 4852 0e8f 01       		.byte	0x1
 4853 0e90 9F02     		.2byte	0x29f
 4854 0e92 A3000000 		.4byte	0xa3
 4855 0e96 8D070000 		.4byte	.LLST49
 4856 0e9a 1E       		.uleb128 0x1e
 4857 0e9b 27000000 		.4byte	.LASF78
 4858 0e9f 01       		.byte	0x1
 4859 0ea0 A002     		.2byte	0x2a0
 4860 0ea2 AF000000 		.4byte	0xaf
 4861 0ea6 A0070000 		.4byte	.LLST50
 4862 0eaa 17       		.uleb128 0x17
 4863 0eab 4D000000 		.4byte	.LASF79
 4864 0eaf 01       		.byte	0x1
 4865 0eb0 A102     		.2byte	0x2a1
 4866 0eb2 65010000 		.4byte	0x165
 4867 0eb6 02       		.uleb128 0x2
 4868 0eb7 91       		.byte	0x91
 4869 0eb8 60       		.sleb128 -32
 4870 0eb9 18       		.uleb128 0x18
 4871 0eba 08000000 		.4byte	.LVL141
 4872 0ebe 470C0000 		.4byte	0xc47
 4873 0ec2 0D       		.uleb128 0xd
 4874 0ec3 20000000 		.4byte	.LVL144
 4875 0ec7 950D0000 		.4byte	0xd95
 4876 0ecb DC0E0000 		.4byte	0xedc
 4877 0ecf 0E       		.uleb128 0xe
 4878 0ed0 01       		.uleb128 0x1
 4879 0ed1 50       		.byte	0x50
 4880 0ed2 02       		.uleb128 0x2
 4881 0ed3 74       		.byte	0x74
 4882 0ed4 00       		.sleb128 0
 4883 0ed5 0E       		.uleb128 0xe
 4884 0ed6 01       		.uleb128 0x1
 4885 0ed7 51       		.byte	0x51
 4886 0ed8 02       		.uleb128 0x2
 4887 0ed9 7D       		.byte	0x7d
 4888 0eda 00       		.sleb128 0
 4889 0edb 00       		.byte	0
 4890 0edc 0F       		.uleb128 0xf
 4891 0edd 46000000 		.4byte	.LVL151
 4892 0ee1 950D0000 		.4byte	0xd95
 4893 0ee5 0E       		.uleb128 0xe
 4894 0ee6 01       		.uleb128 0x1
 4895 0ee7 50       		.byte	0x50
 4896 0ee8 02       		.uleb128 0x2
 4897 0ee9 74       		.byte	0x74
 4898 0eea 00       		.sleb128 0
 4899 0eeb 0E       		.uleb128 0xe
 4900 0eec 01       		.uleb128 0x1
 4901 0eed 51       		.byte	0x51
ARM GAS  C:\Users\Administrator\AppData\Local\Temp\ccPIvPLo.s 			page 109


 4902 0eee 02       		.uleb128 0x2
 4903 0eef 7D       		.byte	0x7d
 4904 0ef0 00       		.sleb128 0
 4905 0ef1 00       		.byte	0
 4906 0ef2 00       		.byte	0
 4907 0ef3 15       		.uleb128 0x15
 4908 0ef4 0B050000 		.4byte	.LASF80
 4909 0ef8 01       		.byte	0x1
 4910 0ef9 CD02     		.2byte	0x2cd
 4911 0efb A3000000 		.4byte	0xa3
 4912 0eff 00000000 		.4byte	.LFB92
 4913 0f03 64000000 		.4byte	.LFE92-.LFB92
 4914 0f07 01       		.uleb128 0x1
 4915 0f08 9C       		.byte	0x9c
 4916 0f09 940F0000 		.4byte	0xf94
 4917 0f0d 16       		.uleb128 0x16
 4918 0f0e 02040000 		.4byte	.LASF81
 4919 0f12 01       		.byte	0x1
 4920 0f13 CD02     		.2byte	0x2cd
 4921 0f15 AF000000 		.4byte	0xaf
 4922 0f19 08080000 		.4byte	.LLST51
 4923 0f1d 1A       		.uleb128 0x1a
 4924 0f1e 6900     		.ascii	"i\000"
 4925 0f20 01       		.byte	0x1
 4926 0f21 CF02     		.2byte	0x2cf
 4927 0f23 A3000000 		.4byte	0xa3
 4928 0f27 34080000 		.4byte	.LLST52
 4929 0f2b 1A       		.uleb128 0x1a
 4930 0f2c 71747900 		.ascii	"qty\000"
 4931 0f30 01       		.byte	0x1
 4932 0f31 CF02     		.2byte	0x2cf
 4933 0f33 A3000000 		.4byte	0xa3
 4934 0f37 5D080000 		.4byte	.LLST53
 4935 0f3b 1E       		.uleb128 0x1e
 4936 0f3c 27000000 		.4byte	.LASF78
 4937 0f40 01       		.byte	0x1
 4938 0f41 D002     		.2byte	0x2d0
 4939 0f43 AF000000 		.4byte	0xaf
 4940 0f47 70080000 		.4byte	.LLST54
 4941 0f4b 17       		.uleb128 0x17
 4942 0f4c 4D000000 		.4byte	.LASF79
 4943 0f50 01       		.byte	0x1
 4944 0f51 D102     		.2byte	0x2d1
 4945 0f53 65010000 		.4byte	0x165
 4946 0f57 02       		.uleb128 0x2
 4947 0f58 91       		.byte	0x91
 4948 0f59 60       		.sleb128 -32
 4949 0f5a 18       		.uleb128 0x18
 4950 0f5b 08000000 		.4byte	.LVL159
 4951 0f5f 470C0000 		.4byte	0xc47
 4952 0f63 0D       		.uleb128 0xd
 4953 0f64 22000000 		.4byte	.LVL162
 4954 0f68 950D0000 		.4byte	0xd95
 4955 0f6c 7D0F0000 		.4byte	0xf7d
 4956 0f70 0E       		.uleb128 0xe
 4957 0f71 01       		.uleb128 0x1
 4958 0f72 50       		.byte	0x50
ARM GAS  C:\Users\Administrator\AppData\Local\Temp\ccPIvPLo.s 			page 110


 4959 0f73 02       		.uleb128 0x2
 4960 0f74 74       		.byte	0x74
 4961 0f75 00       		.sleb128 0
 4962 0f76 0E       		.uleb128 0xe
 4963 0f77 01       		.uleb128 0x1
 4964 0f78 51       		.byte	0x51
 4965 0f79 02       		.uleb128 0x2
 4966 0f7a 7D       		.byte	0x7d
 4967 0f7b 00       		.sleb128 0
 4968 0f7c 00       		.byte	0
 4969 0f7d 0F       		.uleb128 0xf
 4970 0f7e 38000000 		.4byte	.LVL167
 4971 0f82 950D0000 		.4byte	0xd95
 4972 0f86 0E       		.uleb128 0xe
 4973 0f87 01       		.uleb128 0x1
 4974 0f88 50       		.byte	0x50
 4975 0f89 02       		.uleb128 0x2
 4976 0f8a 74       		.byte	0x74
 4977 0f8b 00       		.sleb128 0
 4978 0f8c 0E       		.uleb128 0xe
 4979 0f8d 01       		.uleb128 0x1
 4980 0f8e 51       		.byte	0x51
 4981 0f8f 02       		.uleb128 0x2
 4982 0f90 7D       		.byte	0x7d
 4983 0f91 00       		.sleb128 0
 4984 0f92 00       		.byte	0
 4985 0f93 00       		.byte	0
 4986 0f94 15       		.uleb128 0x15
 4987 0f95 8E060000 		.4byte	.LASF82
 4988 0f99 01       		.byte	0x1
 4989 0f9a FD02     		.2byte	0x2fd
 4990 0f9c A3000000 		.4byte	0xa3
 4991 0fa0 00000000 		.4byte	.LFB93
 4992 0fa4 3C000000 		.4byte	.LFE93-.LFB93
 4993 0fa8 01       		.uleb128 0x1
 4994 0fa9 9C       		.byte	0x9c
 4995 0faa 2C100000 		.4byte	0x102c
 4996 0fae 16       		.uleb128 0x16
 4997 0faf 3D030000 		.4byte	.LASF77
 4998 0fb3 01       		.byte	0x1
 4999 0fb4 FD02     		.2byte	0x2fd
 5000 0fb6 AF000000 		.4byte	0xaf
 5001 0fba D8080000 		.4byte	.LLST55
 5002 0fbe 16       		.uleb128 0x16
 5003 0fbf 02040000 		.4byte	.LASF81
 5004 0fc3 01       		.byte	0x1
 5005 0fc4 FD02     		.2byte	0x2fd
 5006 0fc6 AF000000 		.4byte	0xaf
 5007 0fca 1D090000 		.4byte	.LLST56
 5008 0fce 1E       		.uleb128 0x1e
 5009 0fcf 7C000000 		.4byte	.LASF83
 5010 0fd3 01       		.byte	0x1
 5011 0fd4 FF02     		.2byte	0x2ff
 5012 0fd6 A3000000 		.4byte	0xa3
 5013 0fda 49090000 		.4byte	.LLST57
 5014 0fde 1E       		.uleb128 0x1e
 5015 0fdf 55040000 		.4byte	.LASF84
ARM GAS  C:\Users\Administrator\AppData\Local\Temp\ccPIvPLo.s 			page 111


 5016 0fe3 01       		.byte	0x1
 5017 0fe4 FF02     		.2byte	0x2ff
 5018 0fe6 A3000000 		.4byte	0xa3
 5019 0fea 5C090000 		.4byte	.LLST58
 5020 0fee 1E       		.uleb128 0x1e
 5021 0fef AC020000 		.4byte	.LASF85
 5022 0ff3 01       		.byte	0x1
 5023 0ff4 FF02     		.2byte	0x2ff
 5024 0ff6 A3000000 		.4byte	0xa3
 5025 0ffa 7A090000 		.4byte	.LLST59
 5026 0ffe 18       		.uleb128 0x18
 5027 0fff 0A000000 		.4byte	.LVL175
 5028 1003 470C0000 		.4byte	0xc47
 5029 1007 0D       		.uleb128 0xd
 5030 1008 18000000 		.4byte	.LVL180
 5031 100c 520E0000 		.4byte	0xe52
 5032 1010 1B100000 		.4byte	0x101b
 5033 1014 0E       		.uleb128 0xe
 5034 1015 01       		.uleb128 0x1
 5035 1016 50       		.byte	0x50
 5036 1017 02       		.uleb128 0x2
 5037 1018 75       		.byte	0x75
 5038 1019 00       		.sleb128 0
 5039 101a 00       		.byte	0
 5040 101b 0F       		.uleb128 0xf
 5041 101c 20000000 		.4byte	.LVL182
 5042 1020 F30E0000 		.4byte	0xef3
 5043 1024 0E       		.uleb128 0xe
 5044 1025 01       		.uleb128 0x1
 5045 1026 50       		.byte	0x50
 5046 1027 02       		.uleb128 0x2
 5047 1028 76       		.byte	0x76
 5048 1029 00       		.sleb128 0
 5049 102a 00       		.byte	0
 5050 102b 00       		.byte	0
 5051 102c 1C       		.uleb128 0x1c
 5052 102d 3F000000 		.4byte	.LASF86
 5053 1031 01       		.byte	0x1
 5054 1032 2103     		.2byte	0x321
 5055 1034 00000000 		.4byte	.LFB94
 5056 1038 30000000 		.4byte	.LFE94-.LFB94
 5057 103c 01       		.uleb128 0x1
 5058 103d 9C       		.byte	0x9c
 5059 103e B6100000 		.4byte	0x10b6
 5060 1042 16       		.uleb128 0x16
 5061 1043 7C000000 		.4byte	.LASF83
 5062 1047 01       		.byte	0x1
 5063 1048 2103     		.2byte	0x321
 5064 104a A3000000 		.4byte	0xa3
 5065 104e 98090000 		.4byte	.LLST60
 5066 1052 1F       		.uleb128 0x1f
 5067 1053 71747900 		.ascii	"qty\000"
 5068 1057 01       		.byte	0x1
 5069 1058 2103     		.2byte	0x321
 5070 105a A3000000 		.4byte	0xa3
 5071 105e B9090000 		.4byte	.LLST61
 5072 1062 16       		.uleb128 0x16
ARM GAS  C:\Users\Administrator\AppData\Local\Temp\ccPIvPLo.s 			page 112


 5073 1063 46020000 		.4byte	.LASF87
 5074 1067 01       		.byte	0x1
 5075 1068 2103     		.2byte	0x321
 5076 106a DE000000 		.4byte	0xde
 5077 106e DA090000 		.4byte	.LLST62
 5078 1072 1A       		.uleb128 0x1a
 5079 1073 6900     		.ascii	"i\000"
 5080 1075 01       		.byte	0x1
 5081 1076 2303     		.2byte	0x323
 5082 1078 A3000000 		.4byte	0xa3
 5083 107c 060A0000 		.4byte	.LLST63
 5084 1080 1E       		.uleb128 0x1e
 5085 1081 F8010000 		.4byte	.LASF88
 5086 1085 01       		.byte	0x1
 5087 1086 2303     		.2byte	0x323
 5088 1088 A3000000 		.4byte	0xa3
 5089 108c 2F0A0000 		.4byte	.LLST64
 5090 1090 0F       		.uleb128 0xf
 5091 1091 2A000000 		.4byte	.LVL193
 5092 1095 950D0000 		.4byte	0xd95
 5093 1099 0E       		.uleb128 0xe
 5094 109a 01       		.uleb128 0x1
 5095 109b 50       		.byte	0x50
 5096 109c 02       		.uleb128 0x2
 5097 109d 74       		.byte	0x74
 5098 109e 7F       		.sleb128 -1
 5099 109f 0E       		.uleb128 0xe
 5100 10a0 01       		.uleb128 0x1
 5101 10a1 51       		.byte	0x51
 5102 10a2 11       		.uleb128 0x11
 5103 10a3 74       		.byte	0x74
 5104 10a4 00       		.sleb128 0
 5105 10a5 91       		.byte	0x91
 5106 10a6 64       		.sleb128 -28
 5107 10a7 06       		.byte	0x6
 5108 10a8 22       		.byte	0x22
 5109 10a9 31       		.byte	0x31
 5110 10aa 1C       		.byte	0x1c
 5111 10ab 34       		.byte	0x34
 5112 10ac 24       		.byte	0x24
 5113 10ad 0A       		.byte	0xa
 5114 10ae FFFF     		.2byte	0xffff
 5115 10b0 1A       		.byte	0x1a
 5116 10b1 77       		.byte	0x77
 5117 10b2 00       		.sleb128 0
 5118 10b3 22       		.byte	0x22
 5119 10b4 00       		.byte	0
 5120 10b5 00       		.byte	0
 5121 10b6 19       		.uleb128 0x19
 5122 10b7 46010000 		.4byte	.LASF89
 5123 10bb 01       		.byte	0x1
 5124 10bc 3503     		.2byte	0x335
 5125 10be 00000000 		.4byte	.LFB95
 5126 10c2 F4010000 		.4byte	.LFE95-.LFB95
 5127 10c6 01       		.uleb128 0x1
 5128 10c7 9C       		.byte	0x9c
 5129 10c8 C4120000 		.4byte	0x12c4
ARM GAS  C:\Users\Administrator\AppData\Local\Temp\ccPIvPLo.s 			page 113


 5130 10cc 16       		.uleb128 0x16
 5131 10cd 0E010000 		.4byte	.LASF26
 5132 10d1 01       		.byte	0x1
 5133 10d2 3503     		.2byte	0x335
 5134 10d4 DE000000 		.4byte	0xde
 5135 10d8 810A0000 		.4byte	.LLST65
 5136 10dc 16       		.uleb128 0x16
 5137 10dd 6D010000 		.4byte	.LASF90
 5138 10e1 01       		.byte	0x1
 5139 10e2 3503     		.2byte	0x335
 5140 10e4 DE000000 		.4byte	0xde
 5141 10e8 AD0A0000 		.4byte	.LLST66
 5142 10ec 1A       		.uleb128 0x1a
 5143 10ed 6900     		.ascii	"i\000"
 5144 10ef 01       		.byte	0x1
 5145 10f0 3703     		.2byte	0x337
 5146 10f2 8C000000 		.4byte	0x8c
 5147 10f6 CD0A0000 		.4byte	.LLST67
 5148 10fa 1E       		.uleb128 0x1e
 5149 10fb 78020000 		.4byte	.LASF91
 5150 10ff 01       		.byte	0x1
 5151 1100 3703     		.2byte	0x337
 5152 1102 8C000000 		.4byte	0x8c
 5153 1106 1B0B0000 		.4byte	.LLST68
 5154 110a 1E       		.uleb128 0x1e
 5155 110b 3B060000 		.4byte	.LASF92
 5156 110f 01       		.byte	0x1
 5157 1110 3803     		.2byte	0x338
 5158 1112 65010000 		.4byte	0x165
 5159 1116 2E0B0000 		.4byte	.LLST69
 5160 111a 1E       		.uleb128 0x1e
 5161 111b 29040000 		.4byte	.LASF93
 5162 111f 01       		.byte	0x1
 5163 1120 3903     		.2byte	0x339
 5164 1122 AF000000 		.4byte	0xaf
 5165 1126 2C0C0000 		.4byte	.LLST70
 5166 112a 1E       		.uleb128 0x1e
 5167 112b C1020000 		.4byte	.LASF94
 5168 112f 01       		.byte	0x1
 5169 1130 3A03     		.2byte	0x33a
 5170 1132 AF000000 		.4byte	0xaf
 5171 1136 4C0C0000 		.4byte	.LLST71
 5172 113a 17       		.uleb128 0x17
 5173 113b 48040000 		.4byte	.LASF95
 5174 113f 01       		.byte	0x1
 5175 1140 3B03     		.2byte	0x33b
 5176 1142 850D0000 		.4byte	0xd85
 5177 1146 02       		.uleb128 0x2
 5178 1147 91       		.byte	0x91
 5179 1148 54       		.sleb128 -44
 5180 1149 1E       		.uleb128 0x1e
 5181 114a 14060000 		.4byte	.LASF75
 5182 114e 01       		.byte	0x1
 5183 114f 3C03     		.2byte	0x33c
 5184 1151 AF000000 		.4byte	0xaf
 5185 1155 060D0000 		.4byte	.LLST72
 5186 1159 0D       		.uleb128 0xd
ARM GAS  C:\Users\Administrator\AppData\Local\Temp\ccPIvPLo.s 			page 114


 5187 115a 12000000 		.4byte	.LVL201
 5188 115e 14190000 		.4byte	0x1914
 5189 1162 77110000 		.4byte	0x1177
 5190 1166 0E       		.uleb128 0xe
 5191 1167 01       		.uleb128 0x1
 5192 1168 50       		.byte	0x50
 5193 1169 02       		.uleb128 0x2
 5194 116a 91       		.byte	0x91
 5195 116b 54       		.sleb128 -44
 5196 116c 0E       		.uleb128 0xe
 5197 116d 01       		.uleb128 0x1
 5198 116e 51       		.byte	0x51
 5199 116f 01       		.uleb128 0x1
 5200 1170 30       		.byte	0x30
 5201 1171 0E       		.uleb128 0xe
 5202 1172 01       		.uleb128 0x1
 5203 1173 52       		.byte	0x52
 5204 1174 01       		.uleb128 0x1
 5205 1175 41       		.byte	0x41
 5206 1176 00       		.byte	0
 5207 1177 18       		.uleb128 0x18
 5208 1178 2C000000 		.4byte	.LVL203
 5209 117c 470C0000 		.4byte	0xc47
 5210 1180 18       		.uleb128 0x18
 5211 1181 72000000 		.4byte	.LVL214
 5212 1185 28190000 		.4byte	0x1928
 5213 1189 0D       		.uleb128 0xd
 5214 118a 84000000 		.4byte	.LVL215
 5215 118e 3E190000 		.4byte	0x193e
 5216 1192 A8110000 		.4byte	0x11a8
 5217 1196 0E       		.uleb128 0xe
 5218 1197 01       		.uleb128 0x1
 5219 1198 50       		.byte	0x50
 5220 1199 02       		.uleb128 0x2
 5221 119a 76       		.byte	0x76
 5222 119b 00       		.sleb128 0
 5223 119c 0E       		.uleb128 0xe
 5224 119d 01       		.uleb128 0x1
 5225 119e 51       		.byte	0x51
 5226 119f 02       		.uleb128 0x2
 5227 11a0 91       		.byte	0x91
 5228 11a1 55       		.sleb128 -43
 5229 11a2 0E       		.uleb128 0xe
 5230 11a3 01       		.uleb128 0x1
 5231 11a4 52       		.byte	0x52
 5232 11a5 01       		.uleb128 0x1
 5233 11a6 40       		.byte	0x40
 5234 11a7 00       		.byte	0
 5235 11a8 0D       		.uleb128 0xd
 5236 11a9 B8000000 		.4byte	.LVL221
 5237 11ad 3E190000 		.4byte	0x193e
 5238 11b1 C9110000 		.4byte	0x11c9
 5239 11b5 0E       		.uleb128 0xe
 5240 11b6 01       		.uleb128 0x1
 5241 11b7 50       		.byte	0x50
 5242 11b8 02       		.uleb128 0x2
 5243 11b9 91       		.byte	0x91
ARM GAS  C:\Users\Administrator\AppData\Local\Temp\ccPIvPLo.s 			page 115


 5244 11ba 50       		.sleb128 -48
 5245 11bb 0E       		.uleb128 0xe
 5246 11bc 01       		.uleb128 0x1
 5247 11bd 51       		.byte	0x51
 5248 11be 04       		.uleb128 0x4
 5249 11bf 91       		.byte	0x91
 5250 11c0 BC7F     		.sleb128 -68
 5251 11c2 06       		.byte	0x6
 5252 11c3 0E       		.uleb128 0xe
 5253 11c4 01       		.uleb128 0x1
 5254 11c5 52       		.byte	0x52
 5255 11c6 01       		.uleb128 0x1
 5256 11c7 34       		.byte	0x34
 5257 11c8 00       		.byte	0
 5258 11c9 0D       		.uleb128 0xd
 5259 11ca E4000000 		.4byte	.LVL222
 5260 11ce 3E190000 		.4byte	0x193e
 5261 11d2 E8110000 		.4byte	0x11e8
 5262 11d6 0E       		.uleb128 0xe
 5263 11d7 01       		.uleb128 0x1
 5264 11d8 50       		.byte	0x50
 5265 11d9 02       		.uleb128 0x2
 5266 11da 91       		.byte	0x91
 5267 11db 55       		.sleb128 -43
 5268 11dc 0E       		.uleb128 0xe
 5269 11dd 01       		.uleb128 0x1
 5270 11de 51       		.byte	0x51
 5271 11df 02       		.uleb128 0x2
 5272 11e0 76       		.byte	0x76
 5273 11e1 00       		.sleb128 0
 5274 11e2 0E       		.uleb128 0xe
 5275 11e3 01       		.uleb128 0x1
 5276 11e4 52       		.byte	0x52
 5277 11e5 01       		.uleb128 0x1
 5278 11e6 40       		.byte	0x40
 5279 11e7 00       		.byte	0
 5280 11e8 0D       		.uleb128 0xd
 5281 11e9 F2000000 		.4byte	.LVL223
 5282 11ed 1D190000 		.4byte	0x191d
 5283 11f1 09120000 		.4byte	0x1209
 5284 11f5 0E       		.uleb128 0xe
 5285 11f6 01       		.uleb128 0x1
 5286 11f7 50       		.byte	0x50
 5287 11f8 02       		.uleb128 0x2
 5288 11f9 74       		.byte	0x74
 5289 11fa 00       		.sleb128 0
 5290 11fb 0E       		.uleb128 0xe
 5291 11fc 01       		.uleb128 0x1
 5292 11fd 51       		.byte	0x51
 5293 11fe 04       		.uleb128 0x4
 5294 11ff 75       		.byte	0x75
 5295 1200 80DC00   		.sleb128 11776
 5296 1203 0E       		.uleb128 0xe
 5297 1204 01       		.uleb128 0x1
 5298 1205 52       		.byte	0x52
 5299 1206 01       		.uleb128 0x1
 5300 1207 41       		.byte	0x41
ARM GAS  C:\Users\Administrator\AppData\Local\Temp\ccPIvPLo.s 			page 116


 5301 1208 00       		.byte	0
 5302 1209 0D       		.uleb128 0xd
 5303 120a FA000000 		.4byte	.LVL224
 5304 120e 2C0A0000 		.4byte	0xa2c
 5305 1212 22120000 		.4byte	0x1222
 5306 1216 0E       		.uleb128 0xe
 5307 1217 01       		.uleb128 0x1
 5308 1218 50       		.byte	0x50
 5309 1219 02       		.uleb128 0x2
 5310 121a 77       		.byte	0x77
 5311 121b 00       		.sleb128 0
 5312 121c 0E       		.uleb128 0xe
 5313 121d 01       		.uleb128 0x1
 5314 121e 51       		.byte	0x51
 5315 121f 01       		.uleb128 0x1
 5316 1220 31       		.byte	0x31
 5317 1221 00       		.byte	0
 5318 1222 18       		.uleb128 0x18
 5319 1223 36010000 		.4byte	.LVL235
 5320 1227 28190000 		.4byte	0x1928
 5321 122b 0D       		.uleb128 0xd
 5322 122c 48010000 		.4byte	.LVL236
 5323 1230 3E190000 		.4byte	0x193e
 5324 1234 4A120000 		.4byte	0x124a
 5325 1238 0E       		.uleb128 0xe
 5326 1239 01       		.uleb128 0x1
 5327 123a 50       		.byte	0x50
 5328 123b 02       		.uleb128 0x2
 5329 123c 76       		.byte	0x76
 5330 123d 00       		.sleb128 0
 5331 123e 0E       		.uleb128 0xe
 5332 123f 01       		.uleb128 0x1
 5333 1240 51       		.byte	0x51
 5334 1241 02       		.uleb128 0x2
 5335 1242 91       		.byte	0x91
 5336 1243 55       		.sleb128 -43
 5337 1244 0E       		.uleb128 0xe
 5338 1245 01       		.uleb128 0x1
 5339 1246 52       		.byte	0x52
 5340 1247 01       		.uleb128 0x1
 5341 1248 40       		.byte	0x40
 5342 1249 00       		.byte	0
 5343 124a 0D       		.uleb128 0xd
 5344 124b 7C010000 		.4byte	.LVL242
 5345 124f 3E190000 		.4byte	0x193e
 5346 1253 6B120000 		.4byte	0x126b
 5347 1257 0E       		.uleb128 0xe
 5348 1258 01       		.uleb128 0x1
 5349 1259 50       		.byte	0x50
 5350 125a 02       		.uleb128 0x2
 5351 125b 91       		.byte	0x91
 5352 125c 50       		.sleb128 -48
 5353 125d 0E       		.uleb128 0xe
 5354 125e 01       		.uleb128 0x1
 5355 125f 51       		.byte	0x51
 5356 1260 04       		.uleb128 0x4
 5357 1261 91       		.byte	0x91
ARM GAS  C:\Users\Administrator\AppData\Local\Temp\ccPIvPLo.s 			page 117


 5358 1262 BC7F     		.sleb128 -68
 5359 1264 06       		.byte	0x6
 5360 1265 0E       		.uleb128 0xe
 5361 1266 01       		.uleb128 0x1
 5362 1267 52       		.byte	0x52
 5363 1268 01       		.uleb128 0x1
 5364 1269 34       		.byte	0x34
 5365 126a 00       		.byte	0
 5366 126b 0D       		.uleb128 0xd
 5367 126c A8010000 		.4byte	.LVL243
 5368 1270 3E190000 		.4byte	0x193e
 5369 1274 8A120000 		.4byte	0x128a
 5370 1278 0E       		.uleb128 0xe
 5371 1279 01       		.uleb128 0x1
 5372 127a 50       		.byte	0x50
 5373 127b 02       		.uleb128 0x2
 5374 127c 91       		.byte	0x91
 5375 127d 55       		.sleb128 -43
 5376 127e 0E       		.uleb128 0xe
 5377 127f 01       		.uleb128 0x1
 5378 1280 51       		.byte	0x51
 5379 1281 02       		.uleb128 0x2
 5380 1282 76       		.byte	0x76
 5381 1283 00       		.sleb128 0
 5382 1284 0E       		.uleb128 0xe
 5383 1285 01       		.uleb128 0x1
 5384 1286 52       		.byte	0x52
 5385 1287 01       		.uleb128 0x1
 5386 1288 40       		.byte	0x40
 5387 1289 00       		.byte	0
 5388 128a 0D       		.uleb128 0xd
 5389 128b B6010000 		.4byte	.LVL244
 5390 128f 1D190000 		.4byte	0x191d
 5391 1293 AB120000 		.4byte	0x12ab
 5392 1297 0E       		.uleb128 0xe
 5393 1298 01       		.uleb128 0x1
 5394 1299 50       		.byte	0x50
 5395 129a 02       		.uleb128 0x2
 5396 129b 74       		.byte	0x74
 5397 129c 00       		.sleb128 0
 5398 129d 0E       		.uleb128 0xe
 5399 129e 01       		.uleb128 0x1
 5400 129f 51       		.byte	0x51
 5401 12a0 04       		.uleb128 0x4
 5402 12a1 75       		.byte	0x75
 5403 12a2 80DC00   		.sleb128 11776
 5404 12a5 0E       		.uleb128 0xe
 5405 12a6 01       		.uleb128 0x1
 5406 12a7 52       		.byte	0x52
 5407 12a8 01       		.uleb128 0x1
 5408 12a9 41       		.byte	0x41
 5409 12aa 00       		.byte	0
 5410 12ab 0F       		.uleb128 0xf
 5411 12ac BE010000 		.4byte	.LVL245
 5412 12b0 2C0A0000 		.4byte	0xa2c
 5413 12b4 0E       		.uleb128 0xe
 5414 12b5 01       		.uleb128 0x1
ARM GAS  C:\Users\Administrator\AppData\Local\Temp\ccPIvPLo.s 			page 118


 5415 12b6 50       		.byte	0x50
 5416 12b7 05       		.uleb128 0x5
 5417 12b8 91       		.byte	0x91
 5418 12b9 A87F     		.sleb128 -88
 5419 12bb 94       		.byte	0x94
 5420 12bc 02       		.byte	0x2
 5421 12bd 0E       		.uleb128 0xe
 5422 12be 01       		.uleb128 0x1
 5423 12bf 51       		.byte	0x51
 5424 12c0 01       		.uleb128 0x1
 5425 12c1 31       		.byte	0x31
 5426 12c2 00       		.byte	0
 5427 12c3 00       		.byte	0
 5428 12c4 1C       		.uleb128 0x1c
 5429 12c5 BE060000 		.4byte	.LASF96
 5430 12c9 01       		.byte	0x1
 5431 12ca C403     		.2byte	0x3c4
 5432 12cc 00000000 		.4byte	.LFB96
 5433 12d0 18000000 		.4byte	.LFE96-.LFB96
 5434 12d4 01       		.uleb128 0x1
 5435 12d5 9C       		.byte	0x9c
 5436 12d6 09130000 		.4byte	0x1309
 5437 12da 16       		.uleb128 0x16
 5438 12db 2C000000 		.4byte	.LASF97
 5439 12df 01       		.byte	0x1
 5440 12e0 C403     		.2byte	0x3c4
 5441 12e2 97000000 		.4byte	0x97
 5442 12e6 6B0D0000 		.4byte	.LLST73
 5443 12ea 0F       		.uleb128 0xf
 5444 12eb 12000000 		.4byte	.LVL253
 5445 12ef 1D190000 		.4byte	0x191d
 5446 12f3 0E       		.uleb128 0xe
 5447 12f4 01       		.uleb128 0x1
 5448 12f5 50       		.byte	0x50
 5449 12f6 02       		.uleb128 0x2
 5450 12f7 7D       		.byte	0x7d
 5451 12f8 07       		.sleb128 7
 5452 12f9 0E       		.uleb128 0xe
 5453 12fa 01       		.uleb128 0x1
 5454 12fb 51       		.byte	0x51
 5455 12fc 05       		.uleb128 0x5
 5456 12fd 0C       		.byte	0xc
 5457 12fe 00910100 		.4byte	0x19100
 5458 1302 0E       		.uleb128 0xe
 5459 1303 01       		.uleb128 0x1
 5460 1304 52       		.byte	0x52
 5461 1305 01       		.uleb128 0x1
 5462 1306 31       		.byte	0x31
 5463 1307 00       		.byte	0
 5464 1308 00       		.byte	0
 5465 1309 15       		.uleb128 0x15
 5466 130a 2F020000 		.4byte	.LASF98
 5467 130e 01       		.byte	0x1
 5468 130f D103     		.2byte	0x3d1
 5469 1311 97000000 		.4byte	0x97
 5470 1315 00000000 		.4byte	.LFB97
 5471 1319 18000000 		.4byte	.LFE97-.LFB97
ARM GAS  C:\Users\Administrator\AppData\Local\Temp\ccPIvPLo.s 			page 119


 5472 131d 01       		.uleb128 0x1
 5473 131e 9C       		.byte	0x9c
 5474 131f 51130000 		.4byte	0x1351
 5475 1323 17       		.uleb128 0x17
 5476 1324 2C000000 		.4byte	.LASF97
 5477 1328 01       		.byte	0x1
 5478 1329 D303     		.2byte	0x3d3
 5479 132b 97000000 		.4byte	0x97
 5480 132f 02       		.uleb128 0x2
 5481 1330 91       		.byte	0x91
 5482 1331 77       		.sleb128 -9
 5483 1332 0F       		.uleb128 0xf
 5484 1333 10000000 		.4byte	.LVL254
 5485 1337 28190000 		.4byte	0x1928
 5486 133b 0E       		.uleb128 0xe
 5487 133c 01       		.uleb128 0x1
 5488 133d 50       		.byte	0x50
 5489 133e 02       		.uleb128 0x2
 5490 133f 74       		.byte	0x74
 5491 1340 00       		.sleb128 0
 5492 1341 0E       		.uleb128 0xe
 5493 1342 01       		.uleb128 0x1
 5494 1343 51       		.byte	0x51
 5495 1344 05       		.uleb128 0x5
 5496 1345 0C       		.byte	0xc
 5497 1346 00910100 		.4byte	0x19100
 5498 134a 0E       		.uleb128 0xe
 5499 134b 01       		.uleb128 0x1
 5500 134c 52       		.byte	0x52
 5501 134d 01       		.uleb128 0x1
 5502 134e 31       		.byte	0x31
 5503 134f 00       		.byte	0
 5504 1350 00       		.byte	0
 5505 1351 1C       		.uleb128 0x1c
 5506 1352 65020000 		.4byte	.LASF99
 5507 1356 01       		.byte	0x1
 5508 1357 E103     		.2byte	0x3e1
 5509 1359 00000000 		.4byte	.LFB98
 5510 135d 18000000 		.4byte	.LFE98-.LFB98
 5511 1361 01       		.uleb128 0x1
 5512 1362 9C       		.byte	0x9c
 5513 1363 96130000 		.4byte	0x1396
 5514 1367 16       		.uleb128 0x16
 5515 1368 2C000000 		.4byte	.LASF97
 5516 136c 01       		.byte	0x1
 5517 136d E103     		.2byte	0x3e1
 5518 136f 97000000 		.4byte	0x97
 5519 1373 960D0000 		.4byte	.LLST74
 5520 1377 0F       		.uleb128 0xf
 5521 1378 12000000 		.4byte	.LVL257
 5522 137c 1D190000 		.4byte	0x191d
 5523 1380 0E       		.uleb128 0xe
 5524 1381 01       		.uleb128 0x1
 5525 1382 50       		.byte	0x50
 5526 1383 02       		.uleb128 0x2
 5527 1384 7D       		.byte	0x7d
 5528 1385 07       		.sleb128 7
ARM GAS  C:\Users\Administrator\AppData\Local\Temp\ccPIvPLo.s 			page 120


 5529 1386 0E       		.uleb128 0xe
 5530 1387 01       		.uleb128 0x1
 5531 1388 51       		.byte	0x51
 5532 1389 05       		.uleb128 0x5
 5533 138a 0C       		.byte	0xc
 5534 138b 01910100 		.4byte	0x19101
 5535 138f 0E       		.uleb128 0xe
 5536 1390 01       		.uleb128 0x1
 5537 1391 52       		.byte	0x52
 5538 1392 01       		.uleb128 0x1
 5539 1393 31       		.byte	0x31
 5540 1394 00       		.byte	0
 5541 1395 00       		.byte	0
 5542 1396 15       		.uleb128 0x15
 5543 1397 8A020000 		.4byte	.LASF100
 5544 139b 01       		.byte	0x1
 5545 139c EE03     		.2byte	0x3ee
 5546 139e 97000000 		.4byte	0x97
 5547 13a2 00000000 		.4byte	.LFB99
 5548 13a6 18000000 		.4byte	.LFE99-.LFB99
 5549 13aa 01       		.uleb128 0x1
 5550 13ab 9C       		.byte	0x9c
 5551 13ac DE130000 		.4byte	0x13de
 5552 13b0 17       		.uleb128 0x17
 5553 13b1 2C000000 		.4byte	.LASF97
 5554 13b5 01       		.byte	0x1
 5555 13b6 F003     		.2byte	0x3f0
 5556 13b8 97000000 		.4byte	0x97
 5557 13bc 02       		.uleb128 0x2
 5558 13bd 91       		.byte	0x91
 5559 13be 77       		.sleb128 -9
 5560 13bf 0F       		.uleb128 0xf
 5561 13c0 10000000 		.4byte	.LVL258
 5562 13c4 28190000 		.4byte	0x1928
 5563 13c8 0E       		.uleb128 0xe
 5564 13c9 01       		.uleb128 0x1
 5565 13ca 50       		.byte	0x50
 5566 13cb 02       		.uleb128 0x2
 5567 13cc 74       		.byte	0x74
 5568 13cd 00       		.sleb128 0
 5569 13ce 0E       		.uleb128 0xe
 5570 13cf 01       		.uleb128 0x1
 5571 13d0 51       		.byte	0x51
 5572 13d1 05       		.uleb128 0x5
 5573 13d2 0C       		.byte	0xc
 5574 13d3 01910100 		.4byte	0x19101
 5575 13d7 0E       		.uleb128 0xe
 5576 13d8 01       		.uleb128 0x1
 5577 13d9 52       		.byte	0x52
 5578 13da 01       		.uleb128 0x1
 5579 13db 31       		.byte	0x31
 5580 13dc 00       		.byte	0
 5581 13dd 00       		.byte	0
 5582 13de 1C       		.uleb128 0x1c
 5583 13df 37040000 		.4byte	.LASF101
 5584 13e3 01       		.byte	0x1
 5585 13e4 FE03     		.2byte	0x3fe
ARM GAS  C:\Users\Administrator\AppData\Local\Temp\ccPIvPLo.s 			page 121


 5586 13e6 00000000 		.4byte	.LFB100
 5587 13ea 2C000000 		.4byte	.LFE100-.LFB100
 5588 13ee 01       		.uleb128 0x1
 5589 13ef 9C       		.byte	0x9c
 5590 13f0 62140000 		.4byte	0x1462
 5591 13f4 16       		.uleb128 0x16
 5592 13f5 24040000 		.4byte	.LASF29
 5593 13f9 01       		.byte	0x1
 5594 13fa FE03     		.2byte	0x3fe
 5595 13fc 97000000 		.4byte	0x97
 5596 1400 C10D0000 		.4byte	.LLST75
 5597 1404 1F       		.uleb128 0x1f
 5598 1405 76657200 		.ascii	"ver\000"
 5599 1409 01       		.byte	0x1
 5600 140a FE03     		.2byte	0x3fe
 5601 140c A3000000 		.4byte	0xa3
 5602 1410 E20D0000 		.4byte	.LLST76
 5603 1414 1D       		.uleb128 0x1d
 5604 1415 746D7000 		.ascii	"tmp\000"
 5605 1419 01       		.byte	0x1
 5606 141a 0004     		.2byte	0x400
 5607 141c 62140000 		.4byte	0x1462
 5608 1420 02       		.uleb128 0x2
 5609 1421 91       		.byte	0x91
 5610 1422 64       		.sleb128 -28
 5611 1423 0D       		.uleb128 0xd
 5612 1424 14000000 		.4byte	.LVL262
 5613 1428 14190000 		.4byte	0x1914
 5614 142c 42140000 		.4byte	0x1442
 5615 1430 0E       		.uleb128 0xe
 5616 1431 01       		.uleb128 0x1
 5617 1432 50       		.byte	0x50
 5618 1433 02       		.uleb128 0x2
 5619 1434 74       		.byte	0x74
 5620 1435 00       		.sleb128 0
 5621 1436 0E       		.uleb128 0xe
 5622 1437 01       		.uleb128 0x1
 5623 1438 51       		.byte	0x51
 5624 1439 01       		.uleb128 0x1
 5625 143a 30       		.byte	0x30
 5626 143b 0E       		.uleb128 0xe
 5627 143c 01       		.uleb128 0x1
 5628 143d 52       		.byte	0x52
 5629 143e 02       		.uleb128 0x2
 5630 143f 75       		.byte	0x75
 5631 1440 00       		.sleb128 0
 5632 1441 00       		.byte	0
 5633 1442 0F       		.uleb128 0xf
 5634 1443 26000000 		.4byte	.LVL263
 5635 1447 1D190000 		.4byte	0x191d
 5636 144b 0E       		.uleb128 0xe
 5637 144c 01       		.uleb128 0x1
 5638 144d 50       		.byte	0x50
 5639 144e 02       		.uleb128 0x2
 5640 144f 74       		.byte	0x74
 5641 1450 00       		.sleb128 0
 5642 1451 0E       		.uleb128 0xe
ARM GAS  C:\Users\Administrator\AppData\Local\Temp\ccPIvPLo.s 			page 122


 5643 1452 01       		.uleb128 0x1
 5644 1453 51       		.byte	0x51
 5645 1454 05       		.uleb128 0x5
 5646 1455 0C       		.byte	0xc
 5647 1456 03910100 		.4byte	0x19103
 5648 145a 0E       		.uleb128 0xe
 5649 145b 01       		.uleb128 0x1
 5650 145c 52       		.byte	0x52
 5651 145d 02       		.uleb128 0x2
 5652 145e 75       		.byte	0x75
 5653 145f 00       		.sleb128 0
 5654 1460 00       		.byte	0
 5655 1461 00       		.byte	0
 5656 1462 09       		.uleb128 0x9
 5657 1463 97000000 		.4byte	0x97
 5658 1467 72140000 		.4byte	0x1472
 5659 146b 0A       		.uleb128 0xa
 5660 146c D7000000 		.4byte	0xd7
 5661 1470 02       		.byte	0x2
 5662 1471 00       		.byte	0
 5663 1472 15       		.uleb128 0x15
 5664 1473 A8040000 		.4byte	.LASF102
 5665 1477 01       		.byte	0x1
 5666 1478 1304     		.2byte	0x413
 5667 147a 97000000 		.4byte	0x97
 5668 147e 00000000 		.4byte	.LFB101
 5669 1482 18000000 		.4byte	.LFE101-.LFB101
 5670 1486 01       		.uleb128 0x1
 5671 1487 9C       		.byte	0x9c
 5672 1488 BA140000 		.4byte	0x14ba
 5673 148c 17       		.uleb128 0x17
 5674 148d 24040000 		.4byte	.LASF29
 5675 1491 01       		.byte	0x1
 5676 1492 1504     		.2byte	0x415
 5677 1494 97000000 		.4byte	0x97
 5678 1498 02       		.uleb128 0x2
 5679 1499 91       		.byte	0x91
 5680 149a 77       		.sleb128 -9
 5681 149b 0F       		.uleb128 0xf
 5682 149c 10000000 		.4byte	.LVL264
 5683 14a0 28190000 		.4byte	0x1928
 5684 14a4 0E       		.uleb128 0xe
 5685 14a5 01       		.uleb128 0x1
 5686 14a6 50       		.byte	0x50
 5687 14a7 02       		.uleb128 0x2
 5688 14a8 74       		.byte	0x74
 5689 14a9 00       		.sleb128 0
 5690 14aa 0E       		.uleb128 0xe
 5691 14ab 01       		.uleb128 0x1
 5692 14ac 51       		.byte	0x51
 5693 14ad 05       		.uleb128 0x5
 5694 14ae 0C       		.byte	0xc
 5695 14af 05910100 		.4byte	0x19105
 5696 14b3 0E       		.uleb128 0xe
 5697 14b4 01       		.uleb128 0x1
 5698 14b5 52       		.byte	0x52
 5699 14b6 01       		.uleb128 0x1
ARM GAS  C:\Users\Administrator\AppData\Local\Temp\ccPIvPLo.s 			page 123


 5700 14b7 31       		.byte	0x31
 5701 14b8 00       		.byte	0
 5702 14b9 00       		.byte	0
 5703 14ba 15       		.uleb128 0x15
 5704 14bb A3010000 		.4byte	.LASF103
 5705 14bf 01       		.byte	0x1
 5706 14c0 2204     		.2byte	0x422
 5707 14c2 97000000 		.4byte	0x97
 5708 14c6 00000000 		.4byte	.LFB102
 5709 14ca 18000000 		.4byte	.LFE102-.LFB102
 5710 14ce 01       		.uleb128 0x1
 5711 14cf 9C       		.byte	0x9c
 5712 14d0 02150000 		.4byte	0x1502
 5713 14d4 1D       		.uleb128 0x1d
 5714 14d5 76657200 		.ascii	"ver\000"
 5715 14d9 01       		.byte	0x1
 5716 14da 2404     		.2byte	0x424
 5717 14dc 97000000 		.4byte	0x97
 5718 14e0 02       		.uleb128 0x2
 5719 14e1 91       		.byte	0x91
 5720 14e2 77       		.sleb128 -9
 5721 14e3 0F       		.uleb128 0xf
 5722 14e4 10000000 		.4byte	.LVL265
 5723 14e8 28190000 		.4byte	0x1928
 5724 14ec 0E       		.uleb128 0xe
 5725 14ed 01       		.uleb128 0x1
 5726 14ee 50       		.byte	0x50
 5727 14ef 02       		.uleb128 0x2
 5728 14f0 74       		.byte	0x74
 5729 14f1 00       		.sleb128 0
 5730 14f2 0E       		.uleb128 0xe
 5731 14f3 01       		.uleb128 0x1
 5732 14f4 51       		.byte	0x51
 5733 14f5 05       		.uleb128 0x5
 5734 14f6 0C       		.byte	0xc
 5735 14f7 03910100 		.4byte	0x19103
 5736 14fb 0E       		.uleb128 0xe
 5737 14fc 01       		.uleb128 0x1
 5738 14fd 52       		.byte	0x52
 5739 14fe 01       		.uleb128 0x1
 5740 14ff 31       		.byte	0x31
 5741 1500 00       		.byte	0
 5742 1501 00       		.byte	0
 5743 1502 1C       		.uleb128 0x1c
 5744 1503 DE030000 		.4byte	.LASF104
 5745 1507 01       		.byte	0x1
 5746 1508 3404     		.2byte	0x434
 5747 150a 00000000 		.4byte	.LFB103
 5748 150e 98000000 		.4byte	.LFE103-.LFB103
 5749 1512 01       		.uleb128 0x1
 5750 1513 9C       		.byte	0x9c
 5751 1514 AD160000 		.4byte	0x16ad
 5752 1518 17       		.uleb128 0x17
 5753 1519 4B060000 		.4byte	.LASF105
 5754 151d 01       		.byte	0x1
 5755 151e 3604     		.2byte	0x436
 5756 1520 AD160000 		.4byte	0x16ad
ARM GAS  C:\Users\Administrator\AppData\Local\Temp\ccPIvPLo.s 			page 124


 5757 1524 03       		.uleb128 0x3
 5758 1525 91       		.byte	0x91
 5759 1526 E056     		.sleb128 -5280
 5760 1528 17       		.uleb128 0x17
 5761 1529 AA050000 		.4byte	.LASF106
 5762 152d 01       		.byte	0x1
 5763 152e 3704     		.2byte	0x437
 5764 1530 BD160000 		.4byte	0x16bd
 5765 1534 03       		.uleb128 0x3
 5766 1535 91       		.byte	0x91
 5767 1536 E055     		.sleb128 -5408
 5768 1538 17       		.uleb128 0x17
 5769 1539 32000000 		.4byte	.LASF107
 5770 153d 01       		.byte	0x1
 5771 153e 3804     		.2byte	0x438
 5772 1540 BD160000 		.4byte	0x16bd
 5773 1544 03       		.uleb128 0x3
 5774 1545 91       		.byte	0x91
 5775 1546 A056     		.sleb128 -5344
 5776 1548 17       		.uleb128 0x17
 5777 1549 46020000 		.4byte	.LASF87
 5778 154d 01       		.byte	0x1
 5779 154e 3904     		.2byte	0x439
 5780 1550 8C000000 		.4byte	0x8c
 5781 1554 03       		.uleb128 0x3
 5782 1555 91       		.byte	0x91
 5783 1556 DE55     		.sleb128 -5410
 5784 1558 17       		.uleb128 0x17
 5785 1559 24040000 		.4byte	.LASF29
 5786 155d 01       		.byte	0x1
 5787 155e 3A04     		.2byte	0x43a
 5788 1560 CD160000 		.4byte	0x16cd
 5789 1564 03       		.uleb128 0x3
 5790 1565 91       		.byte	0x91
 5791 1566 E058     		.sleb128 -5024
 5792 1568 0D       		.uleb128 0xd
 5793 1569 16000000 		.4byte	.LVL266
 5794 156d 14190000 		.4byte	0x1914
 5795 1571 88150000 		.4byte	0x1588
 5796 1575 0E       		.uleb128 0xe
 5797 1576 01       		.uleb128 0x1
 5798 1577 50       		.byte	0x50
 5799 1578 03       		.uleb128 0x3
 5800 1579 91       		.byte	0x91
 5801 157a E056     		.sleb128 -5280
 5802 157c 0E       		.uleb128 0xe
 5803 157d 01       		.uleb128 0x1
 5804 157e 51       		.byte	0x51
 5805 157f 01       		.uleb128 0x1
 5806 1580 30       		.byte	0x30
 5807 1581 0E       		.uleb128 0xe
 5808 1582 01       		.uleb128 0x1
 5809 1583 52       		.byte	0x52
 5810 1584 02       		.uleb128 0x2
 5811 1585 77       		.byte	0x77
 5812 1586 00       		.sleb128 0
 5813 1587 00       		.byte	0
ARM GAS  C:\Users\Administrator\AppData\Local\Temp\ccPIvPLo.s 			page 125


 5814 1588 0D       		.uleb128 0xd
 5815 1589 20000000 		.4byte	.LVL267
 5816 158d 14190000 		.4byte	0x1914
 5817 1591 A8150000 		.4byte	0x15a8
 5818 1595 0E       		.uleb128 0xe
 5819 1596 01       		.uleb128 0x1
 5820 1597 50       		.byte	0x50
 5821 1598 03       		.uleb128 0x3
 5822 1599 91       		.byte	0x91
 5823 159a E055     		.sleb128 -5408
 5824 159c 0E       		.uleb128 0xe
 5825 159d 01       		.uleb128 0x1
 5826 159e 51       		.byte	0x51
 5827 159f 01       		.uleb128 0x1
 5828 15a0 30       		.byte	0x30
 5829 15a1 0E       		.uleb128 0xe
 5830 15a2 01       		.uleb128 0x1
 5831 15a3 52       		.byte	0x52
 5832 15a4 02       		.uleb128 0x2
 5833 15a5 74       		.byte	0x74
 5834 15a6 00       		.sleb128 0
 5835 15a7 00       		.byte	0
 5836 15a8 0D       		.uleb128 0xd
 5837 15a9 2A000000 		.4byte	.LVL268
 5838 15ad 14190000 		.4byte	0x1914
 5839 15b1 C8150000 		.4byte	0x15c8
 5840 15b5 0E       		.uleb128 0xe
 5841 15b6 01       		.uleb128 0x1
 5842 15b7 50       		.byte	0x50
 5843 15b8 03       		.uleb128 0x3
 5844 15b9 91       		.byte	0x91
 5845 15ba A056     		.sleb128 -5344
 5846 15bc 0E       		.uleb128 0xe
 5847 15bd 01       		.uleb128 0x1
 5848 15be 51       		.byte	0x51
 5849 15bf 01       		.uleb128 0x1
 5850 15c0 30       		.byte	0x30
 5851 15c1 0E       		.uleb128 0xe
 5852 15c2 01       		.uleb128 0x1
 5853 15c3 52       		.byte	0x52
 5854 15c4 02       		.uleb128 0x2
 5855 15c5 74       		.byte	0x74
 5856 15c6 00       		.sleb128 0
 5857 15c7 00       		.byte	0
 5858 15c8 0D       		.uleb128 0xd
 5859 15c9 3C000000 		.4byte	.LVL269
 5860 15cd 14190000 		.4byte	0x1914
 5861 15d1 E8150000 		.4byte	0x15e8
 5862 15d5 0E       		.uleb128 0xe
 5863 15d6 01       		.uleb128 0x1
 5864 15d7 50       		.byte	0x50
 5865 15d8 03       		.uleb128 0x3
 5866 15d9 91       		.byte	0x91
 5867 15da E058     		.sleb128 -5024
 5868 15dc 0E       		.uleb128 0xe
 5869 15dd 01       		.uleb128 0x1
 5870 15de 51       		.byte	0x51
ARM GAS  C:\Users\Administrator\AppData\Local\Temp\ccPIvPLo.s 			page 126


 5871 15df 01       		.uleb128 0x1
 5872 15e0 30       		.byte	0x30
 5873 15e1 0E       		.uleb128 0xe
 5874 15e2 01       		.uleb128 0x1
 5875 15e3 52       		.byte	0x52
 5876 15e4 02       		.uleb128 0x2
 5877 15e5 75       		.byte	0x75
 5878 15e6 00       		.sleb128 0
 5879 15e7 00       		.byte	0
 5880 15e8 0D       		.uleb128 0xd
 5881 15e9 4A000000 		.4byte	.LVL270
 5882 15ed 1D190000 		.4byte	0x191d
 5883 15f1 0A160000 		.4byte	0x160a
 5884 15f5 0E       		.uleb128 0xe
 5885 15f6 01       		.uleb128 0x1
 5886 15f7 50       		.byte	0x50
 5887 15f8 03       		.uleb128 0x3
 5888 15f9 91       		.byte	0x91
 5889 15fa E058     		.sleb128 -5024
 5890 15fc 0E       		.uleb128 0xe
 5891 15fd 01       		.uleb128 0x1
 5892 15fe 51       		.byte	0x51
 5893 15ff 03       		.uleb128 0x3
 5894 1600 0A       		.byte	0xa
 5895 1601 001A     		.2byte	0x1a00
 5896 1603 0E       		.uleb128 0xe
 5897 1604 01       		.uleb128 0x1
 5898 1605 52       		.byte	0x52
 5899 1606 02       		.uleb128 0x2
 5900 1607 75       		.byte	0x75
 5901 1608 00       		.sleb128 0
 5902 1609 00       		.byte	0
 5903 160a 0D       		.uleb128 0xd
 5904 160b 56000000 		.4byte	.LVL271
 5905 160f 1D190000 		.4byte	0x191d
 5906 1613 2C160000 		.4byte	0x162c
 5907 1617 0E       		.uleb128 0xe
 5908 1618 01       		.uleb128 0x1
 5909 1619 50       		.byte	0x50
 5910 161a 03       		.uleb128 0x3
 5911 161b 91       		.byte	0x91
 5912 161c E058     		.sleb128 -5024
 5913 161e 0E       		.uleb128 0xe
 5914 161f 01       		.uleb128 0x1
 5915 1620 51       		.byte	0x51
 5916 1621 02       		.uleb128 0x2
 5917 1622 76       		.byte	0x76
 5918 1623 00       		.sleb128 0
 5919 1624 0E       		.uleb128 0xe
 5920 1625 01       		.uleb128 0x1
 5921 1626 52       		.byte	0x52
 5922 1627 03       		.uleb128 0x3
 5923 1628 0A       		.byte	0xa
 5924 1629 8813     		.2byte	0x1388
 5925 162b 00       		.byte	0
 5926 162c 0D       		.uleb128 0xd
 5927 162d 64000000 		.4byte	.LVL272
ARM GAS  C:\Users\Administrator\AppData\Local\Temp\ccPIvPLo.s 			page 127


 5928 1631 1D190000 		.4byte	0x191d
 5929 1635 4C160000 		.4byte	0x164c
 5930 1639 0E       		.uleb128 0xe
 5931 163a 01       		.uleb128 0x1
 5932 163b 50       		.byte	0x50
 5933 163c 03       		.uleb128 0x3
 5934 163d 91       		.byte	0x91
 5935 163e DE55     		.sleb128 -5410
 5936 1640 0E       		.uleb128 0xe
 5937 1641 01       		.uleb128 0x1
 5938 1642 51       		.byte	0x51
 5939 1643 02       		.uleb128 0x2
 5940 1644 75       		.byte	0x75
 5941 1645 00       		.sleb128 0
 5942 1646 0E       		.uleb128 0xe
 5943 1647 01       		.uleb128 0x1
 5944 1648 52       		.byte	0x52
 5945 1649 01       		.uleb128 0x1
 5946 164a 32       		.byte	0x32
 5947 164b 00       		.byte	0
 5948 164c 0D       		.uleb128 0xd
 5949 164d 6E000000 		.4byte	.LVL273
 5950 1651 28190000 		.4byte	0x1928
 5951 1655 6D160000 		.4byte	0x166d
 5952 1659 0E       		.uleb128 0xe
 5953 165a 01       		.uleb128 0x1
 5954 165b 50       		.byte	0x50
 5955 165c 03       		.uleb128 0x3
 5956 165d 91       		.byte	0x91
 5957 165e E056     		.sleb128 -5280
 5958 1660 0E       		.uleb128 0xe
 5959 1661 01       		.uleb128 0x1
 5960 1662 51       		.byte	0x51
 5961 1663 02       		.uleb128 0x2
 5962 1664 76       		.byte	0x76
 5963 1665 00       		.sleb128 0
 5964 1666 0E       		.uleb128 0xe
 5965 1667 01       		.uleb128 0x1
 5966 1668 52       		.byte	0x52
 5967 1669 02       		.uleb128 0x2
 5968 166a 77       		.byte	0x77
 5969 166b 00       		.sleb128 0
 5970 166c 00       		.byte	0
 5971 166d 0D       		.uleb128 0xd
 5972 166e 7A000000 		.4byte	.LVL274
 5973 1672 28190000 		.4byte	0x1928
 5974 1676 8F160000 		.4byte	0x168f
 5975 167a 0E       		.uleb128 0xe
 5976 167b 01       		.uleb128 0x1
 5977 167c 50       		.byte	0x50
 5978 167d 03       		.uleb128 0x3
 5979 167e 91       		.byte	0x91
 5980 167f E055     		.sleb128 -5408
 5981 1681 0E       		.uleb128 0xe
 5982 1682 01       		.uleb128 0x1
 5983 1683 51       		.byte	0x51
 5984 1684 03       		.uleb128 0x3
ARM GAS  C:\Users\Administrator\AppData\Local\Temp\ccPIvPLo.s 			page 128


 5985 1685 0A       		.byte	0xa
 5986 1686 001A     		.2byte	0x1a00
 5987 1688 0E       		.uleb128 0xe
 5988 1689 01       		.uleb128 0x1
 5989 168a 52       		.byte	0x52
 5990 168b 02       		.uleb128 0x2
 5991 168c 74       		.byte	0x74
 5992 168d 00       		.sleb128 0
 5993 168e 00       		.byte	0
 5994 168f 0F       		.uleb128 0xf
 5995 1690 84000000 		.4byte	.LVL275
 5996 1694 28190000 		.4byte	0x1928
 5997 1698 0E       		.uleb128 0xe
 5998 1699 01       		.uleb128 0x1
 5999 169a 50       		.byte	0x50
 6000 169b 03       		.uleb128 0x3
 6001 169c 91       		.byte	0x91
 6002 169d A056     		.sleb128 -5344
 6003 169f 0E       		.uleb128 0xe
 6004 16a0 01       		.uleb128 0x1
 6005 16a1 51       		.byte	0x51
 6006 16a2 02       		.uleb128 0x2
 6007 16a3 75       		.byte	0x75
 6008 16a4 00       		.sleb128 0
 6009 16a5 0E       		.uleb128 0xe
 6010 16a6 01       		.uleb128 0x1
 6011 16a7 52       		.byte	0x52
 6012 16a8 02       		.uleb128 0x2
 6013 16a9 74       		.byte	0x74
 6014 16aa 00       		.sleb128 0
 6015 16ab 00       		.byte	0
 6016 16ac 00       		.byte	0
 6017 16ad 09       		.uleb128 0x9
 6018 16ae 81000000 		.4byte	0x81
 6019 16b2 BD160000 		.4byte	0x16bd
 6020 16b6 0A       		.uleb128 0xa
 6021 16b7 D7000000 		.4byte	0xd7
 6022 16bb FF       		.byte	0xff
 6023 16bc 00       		.byte	0
 6024 16bd 09       		.uleb128 0x9
 6025 16be 81000000 		.4byte	0x81
 6026 16c2 CD160000 		.4byte	0x16cd
 6027 16c6 0A       		.uleb128 0xa
 6028 16c7 D7000000 		.4byte	0xd7
 6029 16cb 3F       		.byte	0x3f
 6030 16cc 00       		.byte	0
 6031 16cd 09       		.uleb128 0x9
 6032 16ce 81000000 		.4byte	0x81
 6033 16d2 DE160000 		.4byte	0x16de
 6034 16d6 10       		.uleb128 0x10
 6035 16d7 D7000000 		.4byte	0xd7
 6036 16db 8713     		.2byte	0x1387
 6037 16dd 00       		.byte	0
 6038 16de 1C       		.uleb128 0x1c
 6039 16df 19040000 		.4byte	.LASF108
 6040 16e3 01       		.byte	0x1
 6041 16e4 5704     		.2byte	0x457
ARM GAS  C:\Users\Administrator\AppData\Local\Temp\ccPIvPLo.s 			page 129


 6042 16e6 00000000 		.4byte	.LFB104
 6043 16ea 88000000 		.4byte	.LFE104-.LFB104
 6044 16ee 01       		.uleb128 0x1
 6045 16ef 9C       		.byte	0x9c
 6046 16f0 87180000 		.4byte	0x1887
 6047 16f4 17       		.uleb128 0x17
 6048 16f5 CB030000 		.4byte	.LASF51
 6049 16f9 01       		.byte	0x1
 6050 16fa 5904     		.2byte	0x459
 6051 16fc BD160000 		.4byte	0x16bd
 6052 1700 03       		.uleb128 0x3
 6053 1701 91       		.byte	0x91
 6054 1702 F078     		.sleb128 -912
 6055 1704 17       		.uleb128 0x17
 6056 1705 DA020000 		.4byte	.LASF52
 6057 1709 01       		.byte	0x1
 6058 170a 5A04     		.2byte	0x45a
 6059 170c AD160000 		.4byte	0x16ad
 6060 1710 03       		.uleb128 0x3
 6061 1711 91       		.byte	0x91
 6062 1712 F079     		.sleb128 -784
 6063 1714 17       		.uleb128 0x17
 6064 1715 4B060000 		.4byte	.LASF105
 6065 1719 01       		.byte	0x1
 6066 171a 6704     		.2byte	0x467
 6067 171c 87180000 		.4byte	0x1887
 6068 1720 03       		.uleb128 0x3
 6069 1721 91       		.byte	0x91
 6070 1722 F07B     		.sleb128 -528
 6071 1724 17       		.uleb128 0x17
 6072 1725 AA050000 		.4byte	.LASF106
 6073 1729 01       		.byte	0x1
 6074 172a 6804     		.2byte	0x468
 6075 172c BD160000 		.4byte	0x16bd
 6076 1730 03       		.uleb128 0x3
 6077 1731 91       		.byte	0x91
 6078 1732 B079     		.sleb128 -848
 6079 1734 17       		.uleb128 0x17
 6080 1735 32000000 		.4byte	.LASF107
 6081 1739 01       		.byte	0x1
 6082 173a 6904     		.2byte	0x469
 6083 173c 98180000 		.4byte	0x1898
 6084 1740 03       		.uleb128 0x3
 6085 1741 91       		.byte	0x91
 6086 1742 E878     		.sleb128 -920
 6087 1744 0D       		.uleb128 0xd
 6088 1745 18000000 		.4byte	.LVL276
 6089 1749 14190000 		.4byte	0x1914
 6090 174d 64170000 		.4byte	0x1764
 6091 1751 0E       		.uleb128 0xe
 6092 1752 01       		.uleb128 0x1
 6093 1753 50       		.byte	0x50
 6094 1754 03       		.uleb128 0x3
 6095 1755 91       		.byte	0x91
 6096 1756 F078     		.sleb128 -912
 6097 1758 0E       		.uleb128 0xe
 6098 1759 01       		.uleb128 0x1
ARM GAS  C:\Users\Administrator\AppData\Local\Temp\ccPIvPLo.s 			page 130


 6099 175a 51       		.byte	0x51
 6100 175b 01       		.uleb128 0x1
 6101 175c 30       		.byte	0x30
 6102 175d 0E       		.uleb128 0xe
 6103 175e 01       		.uleb128 0x1
 6104 175f 52       		.byte	0x52
 6105 1760 02       		.uleb128 0x2
 6106 1761 74       		.byte	0x74
 6107 1762 00       		.sleb128 0
 6108 1763 00       		.byte	0
 6109 1764 0D       		.uleb128 0xd
 6110 1765 22000000 		.4byte	.LVL277
 6111 1769 14190000 		.4byte	0x1914
 6112 176d 84170000 		.4byte	0x1784
 6113 1771 0E       		.uleb128 0xe
 6114 1772 01       		.uleb128 0x1
 6115 1773 50       		.byte	0x50
 6116 1774 03       		.uleb128 0x3
 6117 1775 91       		.byte	0x91
 6118 1776 F079     		.sleb128 -784
 6119 1778 0E       		.uleb128 0xe
 6120 1779 01       		.uleb128 0x1
 6121 177a 51       		.byte	0x51
 6122 177b 01       		.uleb128 0x1
 6123 177c 30       		.byte	0x30
 6124 177d 0E       		.uleb128 0xe
 6125 177e 01       		.uleb128 0x1
 6126 177f 52       		.byte	0x52
 6127 1780 02       		.uleb128 0x2
 6128 1781 76       		.byte	0x76
 6129 1782 00       		.sleb128 0
 6130 1783 00       		.byte	0
 6131 1784 0D       		.uleb128 0xd
 6132 1785 2E000000 		.4byte	.LVL278
 6133 1789 28190000 		.4byte	0x1928
 6134 178d A4170000 		.4byte	0x17a4
 6135 1791 0E       		.uleb128 0xe
 6136 1792 01       		.uleb128 0x1
 6137 1793 50       		.byte	0x50
 6138 1794 03       		.uleb128 0x3
 6139 1795 91       		.byte	0x91
 6140 1796 F078     		.sleb128 -912
 6141 1798 0E       		.uleb128 0xe
 6142 1799 01       		.uleb128 0x1
 6143 179a 51       		.byte	0x51
 6144 179b 01       		.uleb128 0x1
 6145 179c 30       		.byte	0x30
 6146 179d 0E       		.uleb128 0xe
 6147 179e 01       		.uleb128 0x1
 6148 179f 52       		.byte	0x52
 6149 17a0 02       		.uleb128 0x2
 6150 17a1 74       		.byte	0x74
 6151 17a2 00       		.sleb128 0
 6152 17a3 00       		.byte	0
 6153 17a4 0D       		.uleb128 0xd
 6154 17a5 38000000 		.4byte	.LVL279
 6155 17a9 28190000 		.4byte	0x1928
ARM GAS  C:\Users\Administrator\AppData\Local\Temp\ccPIvPLo.s 			page 131


 6156 17ad C5170000 		.4byte	0x17c5
 6157 17b1 0E       		.uleb128 0xe
 6158 17b2 01       		.uleb128 0x1
 6159 17b3 50       		.byte	0x50
 6160 17b4 03       		.uleb128 0x3
 6161 17b5 91       		.byte	0x91
 6162 17b6 F079     		.sleb128 -784
 6163 17b8 0E       		.uleb128 0xe
 6164 17b9 01       		.uleb128 0x1
 6165 17ba 51       		.byte	0x51
 6166 17bb 02       		.uleb128 0x2
 6167 17bc 75       		.byte	0x75
 6168 17bd 00       		.sleb128 0
 6169 17be 0E       		.uleb128 0xe
 6170 17bf 01       		.uleb128 0x1
 6171 17c0 52       		.byte	0x52
 6172 17c1 02       		.uleb128 0x2
 6173 17c2 76       		.byte	0x76
 6174 17c3 00       		.sleb128 0
 6175 17c4 00       		.byte	0
 6176 17c5 0D       		.uleb128 0xd
 6177 17c6 42000000 		.4byte	.LVL280
 6178 17ca 14190000 		.4byte	0x1914
 6179 17ce E5170000 		.4byte	0x17e5
 6180 17d2 0E       		.uleb128 0xe
 6181 17d3 01       		.uleb128 0x1
 6182 17d4 50       		.byte	0x50
 6183 17d5 03       		.uleb128 0x3
 6184 17d6 91       		.byte	0x91
 6185 17d7 F07B     		.sleb128 -528
 6186 17d9 0E       		.uleb128 0xe
 6187 17da 01       		.uleb128 0x1
 6188 17db 51       		.byte	0x51
 6189 17dc 01       		.uleb128 0x1
 6190 17dd 30       		.byte	0x30
 6191 17de 0E       		.uleb128 0xe
 6192 17df 01       		.uleb128 0x1
 6193 17e0 52       		.byte	0x52
 6194 17e1 02       		.uleb128 0x2
 6195 17e2 75       		.byte	0x75
 6196 17e3 00       		.sleb128 0
 6197 17e4 00       		.byte	0
 6198 17e5 0D       		.uleb128 0xd
 6199 17e6 4C000000 		.4byte	.LVL281
 6200 17ea 14190000 		.4byte	0x1914
 6201 17ee 05180000 		.4byte	0x1805
 6202 17f2 0E       		.uleb128 0xe
 6203 17f3 01       		.uleb128 0x1
 6204 17f4 50       		.byte	0x50
 6205 17f5 03       		.uleb128 0x3
 6206 17f6 91       		.byte	0x91
 6207 17f7 B079     		.sleb128 -848
 6208 17f9 0E       		.uleb128 0xe
 6209 17fa 01       		.uleb128 0x1
 6210 17fb 51       		.byte	0x51
 6211 17fc 01       		.uleb128 0x1
 6212 17fd 30       		.byte	0x30
ARM GAS  C:\Users\Administrator\AppData\Local\Temp\ccPIvPLo.s 			page 132


 6213 17fe 0E       		.uleb128 0xe
 6214 17ff 01       		.uleb128 0x1
 6215 1800 52       		.byte	0x52
 6216 1801 02       		.uleb128 0x2
 6217 1802 74       		.byte	0x74
 6218 1803 00       		.sleb128 0
 6219 1804 00       		.byte	0
 6220 1805 0D       		.uleb128 0xd
 6221 1806 56000000 		.4byte	.LVL282
 6222 180a 14190000 		.4byte	0x1914
 6223 180e 24180000 		.4byte	0x1824
 6224 1812 0E       		.uleb128 0xe
 6225 1813 01       		.uleb128 0x1
 6226 1814 50       		.byte	0x50
 6227 1815 03       		.uleb128 0x3
 6228 1816 91       		.byte	0x91
 6229 1817 E878     		.sleb128 -920
 6230 1819 0E       		.uleb128 0xe
 6231 181a 01       		.uleb128 0x1
 6232 181b 51       		.byte	0x51
 6233 181c 01       		.uleb128 0x1
 6234 181d 30       		.byte	0x30
 6235 181e 0E       		.uleb128 0xe
 6236 181f 01       		.uleb128 0x1
 6237 1820 52       		.byte	0x52
 6238 1821 01       		.uleb128 0x1
 6239 1822 38       		.byte	0x38
 6240 1823 00       		.byte	0
 6241 1824 0D       		.uleb128 0xd
 6242 1825 62000000 		.4byte	.LVL283
 6243 1829 28190000 		.4byte	0x1928
 6244 182d 46180000 		.4byte	0x1846
 6245 1831 0E       		.uleb128 0xe
 6246 1832 01       		.uleb128 0x1
 6247 1833 50       		.byte	0x50
 6248 1834 03       		.uleb128 0x3
 6249 1835 91       		.byte	0x91
 6250 1836 F07B     		.sleb128 -528
 6251 1838 0E       		.uleb128 0xe
 6252 1839 01       		.uleb128 0x1
 6253 183a 51       		.byte	0x51
 6254 183b 03       		.uleb128 0x3
 6255 183c 0A       		.byte	0xa
 6256 183d 002E     		.2byte	0x2e00
 6257 183f 0E       		.uleb128 0xe
 6258 1840 01       		.uleb128 0x1
 6259 1841 52       		.byte	0x52
 6260 1842 02       		.uleb128 0x2
 6261 1843 75       		.byte	0x75
 6262 1844 00       		.sleb128 0
 6263 1845 00       		.byte	0
 6264 1846 0D       		.uleb128 0xd
 6265 1847 6E000000 		.4byte	.LVL284
 6266 184b 28190000 		.4byte	0x1928
 6267 184f 68180000 		.4byte	0x1868
 6268 1853 0E       		.uleb128 0xe
 6269 1854 01       		.uleb128 0x1
ARM GAS  C:\Users\Administrator\AppData\Local\Temp\ccPIvPLo.s 			page 133


 6270 1855 50       		.byte	0x50
 6271 1856 03       		.uleb128 0x3
 6272 1857 91       		.byte	0x91
 6273 1858 B079     		.sleb128 -848
 6274 185a 0E       		.uleb128 0xe
 6275 185b 01       		.uleb128 0x1
 6276 185c 51       		.byte	0x51
 6277 185d 03       		.uleb128 0x3
 6278 185e 0A       		.byte	0xa
 6279 185f 001A     		.2byte	0x1a00
 6280 1861 0E       		.uleb128 0xe
 6281 1862 01       		.uleb128 0x1
 6282 1863 52       		.byte	0x52
 6283 1864 02       		.uleb128 0x2
 6284 1865 74       		.byte	0x74
 6285 1866 00       		.sleb128 0
 6286 1867 00       		.byte	0
 6287 1868 0F       		.uleb128 0xf
 6288 1869 7A000000 		.4byte	.LVL285
 6289 186d 28190000 		.4byte	0x1928
 6290 1871 0E       		.uleb128 0xe
 6291 1872 01       		.uleb128 0x1
 6292 1873 50       		.byte	0x50
 6293 1874 03       		.uleb128 0x3
 6294 1875 91       		.byte	0x91
 6295 1876 E878     		.sleb128 -920
 6296 1878 0E       		.uleb128 0xe
 6297 1879 01       		.uleb128 0x1
 6298 187a 51       		.byte	0x51
 6299 187b 03       		.uleb128 0x3
 6300 187c 49       		.byte	0x49
 6301 187d 3C       		.byte	0x3c
 6302 187e 24       		.byte	0x24
 6303 187f 0E       		.uleb128 0xe
 6304 1880 01       		.uleb128 0x1
 6305 1881 52       		.byte	0x52
 6306 1882 02       		.uleb128 0x2
 6307 1883 74       		.byte	0x74
 6308 1884 00       		.sleb128 0
 6309 1885 00       		.byte	0
 6310 1886 00       		.byte	0
 6311 1887 09       		.uleb128 0x9
 6312 1888 81000000 		.4byte	0x81
 6313 188c 98180000 		.4byte	0x1898
 6314 1890 10       		.uleb128 0x10
 6315 1891 D7000000 		.4byte	0xd7
 6316 1895 FF01     		.2byte	0x1ff
 6317 1897 00       		.byte	0
 6318 1898 09       		.uleb128 0x9
 6319 1899 81000000 		.4byte	0x81
 6320 189d A8180000 		.4byte	0x18a8
 6321 18a1 0A       		.uleb128 0xa
 6322 18a2 D7000000 		.4byte	0xd7
 6323 18a6 07       		.byte	0x7
 6324 18a7 00       		.byte	0
 6325 18a8 1C       		.uleb128 0x1c
 6326 18a9 7B040000 		.4byte	.LASF109
ARM GAS  C:\Users\Administrator\AppData\Local\Temp\ccPIvPLo.s 			page 134


 6327 18ad 01       		.byte	0x1
 6328 18ae 7A04     		.2byte	0x47a
 6329 18b0 00000000 		.4byte	.LFB105
 6330 18b4 0E000000 		.4byte	.LFE105-.LFB105
 6331 18b8 01       		.uleb128 0x1
 6332 18b9 9C       		.byte	0x9c
 6333 18ba E3180000 		.4byte	0x18e3
 6334 18be 17       		.uleb128 0x17
 6335 18bf 18010000 		.4byte	.LASF110
 6336 18c3 01       		.byte	0x1
 6337 18c4 7C04     		.2byte	0x47c
 6338 18c6 65010000 		.4byte	0x165
 6339 18ca 02       		.uleb128 0x2
 6340 18cb 91       		.byte	0x91
 6341 18cc 68       		.sleb128 -24
 6342 18cd 0F       		.uleb128 0xf
 6343 18ce 0A000000 		.4byte	.LVL286
 6344 18d2 950D0000 		.4byte	0xd95
 6345 18d6 0E       		.uleb128 0xe
 6346 18d7 01       		.uleb128 0x1
 6347 18d8 50       		.byte	0x50
 6348 18d9 01       		.uleb128 0x1
 6349 18da 35       		.byte	0x35
 6350 18db 0E       		.uleb128 0xe
 6351 18dc 01       		.uleb128 0x1
 6352 18dd 51       		.byte	0x51
 6353 18de 02       		.uleb128 0x2
 6354 18df 7D       		.byte	0x7d
 6355 18e0 00       		.sleb128 0
 6356 18e1 00       		.byte	0
 6357 18e2 00       		.byte	0
 6358 18e3 09       		.uleb128 0x9
 6359 18e4 F3180000 		.4byte	0x18f3
 6360 18e8 F3180000 		.4byte	0x18f3
 6361 18ec 0A       		.uleb128 0xa
 6362 18ed D7000000 		.4byte	0xd7
 6363 18f1 0B       		.byte	0xb
 6364 18f2 00       		.byte	0
 6365 18f3 20       		.uleb128 0x20
 6366 18f4 A3000000 		.4byte	0xa3
 6367 18f8 21       		.uleb128 0x21
 6368 18f9 F0000000 		.4byte	.LASF111
 6369 18fd 06       		.byte	0x6
 6370 18fe E001     		.2byte	0x1e0
 6371 1900 04190000 		.4byte	0x1904
 6372 1904 20       		.uleb128 0x20
 6373 1905 E3180000 		.4byte	0x18e3
 6374 1909 22       		.uleb128 0x22
 6375 190a 55000000 		.4byte	.LASF112
 6376 190e 01       		.byte	0x1
 6377 190f 0E       		.byte	0xe
 6378 1910 97000000 		.4byte	0x97
 6379 1914 23       		.uleb128 0x23
 6380 1915 07010000 		.4byte	.LASF116
 6381 1919 07010000 		.4byte	.LASF116
 6382 191d 24       		.uleb128 0x24
 6383 191e DF010000 		.4byte	.LASF113
ARM GAS  C:\Users\Administrator\AppData\Local\Temp\ccPIvPLo.s 			page 135


 6384 1922 DF010000 		.4byte	.LASF113
 6385 1926 07       		.byte	0x7
 6386 1927 54       		.byte	0x54
 6387 1928 24       		.uleb128 0x24
 6388 1929 EC010000 		.4byte	.LASF114
 6389 192d EC010000 		.4byte	.LASF114
 6390 1931 07       		.byte	0x7
 6391 1932 53       		.byte	0x53
 6392 1933 24       		.uleb128 0x24
 6393 1934 54060000 		.4byte	.LASF115
 6394 1938 54060000 		.4byte	.LASF115
 6395 193c 08       		.byte	0x8
 6396 193d 16       		.byte	0x16
 6397 193e 23       		.uleb128 0x23
 6398 193f 44060000 		.4byte	.LASF117
 6399 1943 44060000 		.4byte	.LASF117
 6400 1947 24       		.uleb128 0x24
 6401 1948 4B020000 		.4byte	.LASF118
 6402 194c 4B020000 		.4byte	.LASF118
 6403 1950 01       		.byte	0x1
 6404 1951 0D       		.byte	0xd
 6405 1952 00       		.byte	0
 6406              		.section	.debug_abbrev,"",%progbits
 6407              	.Ldebug_abbrev0:
 6408 0000 01       		.uleb128 0x1
 6409 0001 11       		.uleb128 0x11
 6410 0002 01       		.byte	0x1
 6411 0003 25       		.uleb128 0x25
 6412 0004 0E       		.uleb128 0xe
 6413 0005 13       		.uleb128 0x13
 6414 0006 0B       		.uleb128 0xb
 6415 0007 03       		.uleb128 0x3
 6416 0008 0E       		.uleb128 0xe
 6417 0009 1B       		.uleb128 0x1b
 6418 000a 0E       		.uleb128 0xe
 6419 000b 55       		.uleb128 0x55
 6420 000c 17       		.uleb128 0x17
 6421 000d 11       		.uleb128 0x11
 6422 000e 01       		.uleb128 0x1
 6423 000f 10       		.uleb128 0x10
 6424 0010 17       		.uleb128 0x17
 6425 0011 00       		.byte	0
 6426 0012 00       		.byte	0
 6427 0013 02       		.uleb128 0x2
 6428 0014 24       		.uleb128 0x24
 6429 0015 00       		.byte	0
 6430 0016 0B       		.uleb128 0xb
 6431 0017 0B       		.uleb128 0xb
 6432 0018 3E       		.uleb128 0x3e
 6433 0019 0B       		.uleb128 0xb
 6434 001a 03       		.uleb128 0x3
 6435 001b 0E       		.uleb128 0xe
 6436 001c 00       		.byte	0
 6437 001d 00       		.byte	0
 6438 001e 03       		.uleb128 0x3
 6439 001f 16       		.uleb128 0x16
 6440 0020 00       		.byte	0
ARM GAS  C:\Users\Administrator\AppData\Local\Temp\ccPIvPLo.s 			page 136


 6441 0021 03       		.uleb128 0x3
 6442 0022 0E       		.uleb128 0xe
 6443 0023 3A       		.uleb128 0x3a
 6444 0024 0B       		.uleb128 0xb
 6445 0025 3B       		.uleb128 0x3b
 6446 0026 0B       		.uleb128 0xb
 6447 0027 49       		.uleb128 0x49
 6448 0028 13       		.uleb128 0x13
 6449 0029 00       		.byte	0
 6450 002a 00       		.byte	0
 6451 002b 04       		.uleb128 0x4
 6452 002c 24       		.uleb128 0x24
 6453 002d 00       		.byte	0
 6454 002e 0B       		.uleb128 0xb
 6455 002f 0B       		.uleb128 0xb
 6456 0030 3E       		.uleb128 0x3e
 6457 0031 0B       		.uleb128 0xb
 6458 0032 03       		.uleb128 0x3
 6459 0033 08       		.uleb128 0x8
 6460 0034 00       		.byte	0
 6461 0035 00       		.byte	0
 6462 0036 05       		.uleb128 0x5
 6463 0037 16       		.uleb128 0x16
 6464 0038 00       		.byte	0
 6465 0039 03       		.uleb128 0x3
 6466 003a 0E       		.uleb128 0xe
 6467 003b 3A       		.uleb128 0x3a
 6468 003c 0B       		.uleb128 0xb
 6469 003d 3B       		.uleb128 0x3b
 6470 003e 05       		.uleb128 0x5
 6471 003f 49       		.uleb128 0x49
 6472 0040 13       		.uleb128 0x13
 6473 0041 00       		.byte	0
 6474 0042 00       		.byte	0
 6475 0043 06       		.uleb128 0x6
 6476 0044 0F       		.uleb128 0xf
 6477 0045 00       		.byte	0
 6478 0046 0B       		.uleb128 0xb
 6479 0047 0B       		.uleb128 0xb
 6480 0048 49       		.uleb128 0x49
 6481 0049 13       		.uleb128 0x13
 6482 004a 00       		.byte	0
 6483 004b 00       		.byte	0
 6484 004c 07       		.uleb128 0x7
 6485 004d 13       		.uleb128 0x13
 6486 004e 01       		.byte	0x1
 6487 004f 03       		.uleb128 0x3
 6488 0050 0E       		.uleb128 0xe
 6489 0051 0B       		.uleb128 0xb
 6490 0052 0B       		.uleb128 0xb
 6491 0053 3A       		.uleb128 0x3a
 6492 0054 0B       		.uleb128 0xb
 6493 0055 3B       		.uleb128 0x3b
 6494 0056 0B       		.uleb128 0xb
 6495 0057 01       		.uleb128 0x1
 6496 0058 13       		.uleb128 0x13
 6497 0059 00       		.byte	0
ARM GAS  C:\Users\Administrator\AppData\Local\Temp\ccPIvPLo.s 			page 137


 6498 005a 00       		.byte	0
 6499 005b 08       		.uleb128 0x8
 6500 005c 0D       		.uleb128 0xd
 6501 005d 00       		.byte	0
 6502 005e 03       		.uleb128 0x3
 6503 005f 0E       		.uleb128 0xe
 6504 0060 3A       		.uleb128 0x3a
 6505 0061 0B       		.uleb128 0xb
 6506 0062 3B       		.uleb128 0x3b
 6507 0063 0B       		.uleb128 0xb
 6508 0064 49       		.uleb128 0x49
 6509 0065 13       		.uleb128 0x13
 6510 0066 38       		.uleb128 0x38
 6511 0067 0B       		.uleb128 0xb
 6512 0068 00       		.byte	0
 6513 0069 00       		.byte	0
 6514 006a 09       		.uleb128 0x9
 6515 006b 01       		.uleb128 0x1
 6516 006c 01       		.byte	0x1
 6517 006d 49       		.uleb128 0x49
 6518 006e 13       		.uleb128 0x13
 6519 006f 01       		.uleb128 0x1
 6520 0070 13       		.uleb128 0x13
 6521 0071 00       		.byte	0
 6522 0072 00       		.byte	0
 6523 0073 0A       		.uleb128 0xa
 6524 0074 21       		.uleb128 0x21
 6525 0075 00       		.byte	0
 6526 0076 49       		.uleb128 0x49
 6527 0077 13       		.uleb128 0x13
 6528 0078 2F       		.uleb128 0x2f
 6529 0079 0B       		.uleb128 0xb
 6530 007a 00       		.byte	0
 6531 007b 00       		.byte	0
 6532 007c 0B       		.uleb128 0xb
 6533 007d 2E       		.uleb128 0x2e
 6534 007e 01       		.byte	0x1
 6535 007f 3F       		.uleb128 0x3f
 6536 0080 19       		.uleb128 0x19
 6537 0081 03       		.uleb128 0x3
 6538 0082 0E       		.uleb128 0xe
 6539 0083 3A       		.uleb128 0x3a
 6540 0084 0B       		.uleb128 0xb
 6541 0085 3B       		.uleb128 0x3b
 6542 0086 0B       		.uleb128 0xb
 6543 0087 27       		.uleb128 0x27
 6544 0088 19       		.uleb128 0x19
 6545 0089 11       		.uleb128 0x11
 6546 008a 01       		.uleb128 0x1
 6547 008b 12       		.uleb128 0x12
 6548 008c 06       		.uleb128 0x6
 6549 008d 40       		.uleb128 0x40
 6550 008e 18       		.uleb128 0x18
 6551 008f 9742     		.uleb128 0x2117
 6552 0091 19       		.uleb128 0x19
 6553 0092 01       		.uleb128 0x1
 6554 0093 13       		.uleb128 0x13
ARM GAS  C:\Users\Administrator\AppData\Local\Temp\ccPIvPLo.s 			page 138


 6555 0094 00       		.byte	0
 6556 0095 00       		.byte	0
 6557 0096 0C       		.uleb128 0xc
 6558 0097 34       		.uleb128 0x34
 6559 0098 00       		.byte	0
 6560 0099 03       		.uleb128 0x3
 6561 009a 0E       		.uleb128 0xe
 6562 009b 3A       		.uleb128 0x3a
 6563 009c 0B       		.uleb128 0xb
 6564 009d 3B       		.uleb128 0x3b
 6565 009e 0B       		.uleb128 0xb
 6566 009f 49       		.uleb128 0x49
 6567 00a0 13       		.uleb128 0x13
 6568 00a1 02       		.uleb128 0x2
 6569 00a2 18       		.uleb128 0x18
 6570 00a3 00       		.byte	0
 6571 00a4 00       		.byte	0
 6572 00a5 0D       		.uleb128 0xd
 6573 00a6 898201   		.uleb128 0x4109
 6574 00a9 01       		.byte	0x1
 6575 00aa 11       		.uleb128 0x11
 6576 00ab 01       		.uleb128 0x1
 6577 00ac 31       		.uleb128 0x31
 6578 00ad 13       		.uleb128 0x13
 6579 00ae 01       		.uleb128 0x1
 6580 00af 13       		.uleb128 0x13
 6581 00b0 00       		.byte	0
 6582 00b1 00       		.byte	0
 6583 00b2 0E       		.uleb128 0xe
 6584 00b3 8A8201   		.uleb128 0x410a
 6585 00b6 00       		.byte	0
 6586 00b7 02       		.uleb128 0x2
 6587 00b8 18       		.uleb128 0x18
 6588 00b9 9142     		.uleb128 0x2111
 6589 00bb 18       		.uleb128 0x18
 6590 00bc 00       		.byte	0
 6591 00bd 00       		.byte	0
 6592 00be 0F       		.uleb128 0xf
 6593 00bf 898201   		.uleb128 0x4109
 6594 00c2 01       		.byte	0x1
 6595 00c3 11       		.uleb128 0x11
 6596 00c4 01       		.uleb128 0x1
 6597 00c5 31       		.uleb128 0x31
 6598 00c6 13       		.uleb128 0x13
 6599 00c7 00       		.byte	0
 6600 00c8 00       		.byte	0
 6601 00c9 10       		.uleb128 0x10
 6602 00ca 21       		.uleb128 0x21
 6603 00cb 00       		.byte	0
 6604 00cc 49       		.uleb128 0x49
 6605 00cd 13       		.uleb128 0x13
 6606 00ce 2F       		.uleb128 0x2f
 6607 00cf 05       		.uleb128 0x5
 6608 00d0 00       		.byte	0
 6609 00d1 00       		.byte	0
 6610 00d2 11       		.uleb128 0x11
 6611 00d3 2E       		.uleb128 0x2e
ARM GAS  C:\Users\Administrator\AppData\Local\Temp\ccPIvPLo.s 			page 139


 6612 00d4 01       		.byte	0x1
 6613 00d5 3F       		.uleb128 0x3f
 6614 00d6 19       		.uleb128 0x19
 6615 00d7 03       		.uleb128 0x3
 6616 00d8 0E       		.uleb128 0xe
 6617 00d9 3A       		.uleb128 0x3a
 6618 00da 0B       		.uleb128 0xb
 6619 00db 3B       		.uleb128 0x3b
 6620 00dc 0B       		.uleb128 0xb
 6621 00dd 27       		.uleb128 0x27
 6622 00de 19       		.uleb128 0x19
 6623 00df 49       		.uleb128 0x49
 6624 00e0 13       		.uleb128 0x13
 6625 00e1 11       		.uleb128 0x11
 6626 00e2 01       		.uleb128 0x1
 6627 00e3 12       		.uleb128 0x12
 6628 00e4 06       		.uleb128 0x6
 6629 00e5 40       		.uleb128 0x40
 6630 00e6 18       		.uleb128 0x18
 6631 00e7 9742     		.uleb128 0x2117
 6632 00e9 19       		.uleb128 0x19
 6633 00ea 01       		.uleb128 0x1
 6634 00eb 13       		.uleb128 0x13
 6635 00ec 00       		.byte	0
 6636 00ed 00       		.byte	0
 6637 00ee 12       		.uleb128 0x12
 6638 00ef 05       		.uleb128 0x5
 6639 00f0 00       		.byte	0
 6640 00f1 03       		.uleb128 0x3
 6641 00f2 0E       		.uleb128 0xe
 6642 00f3 3A       		.uleb128 0x3a
 6643 00f4 0B       		.uleb128 0xb
 6644 00f5 3B       		.uleb128 0x3b
 6645 00f6 0B       		.uleb128 0xb
 6646 00f7 49       		.uleb128 0x49
 6647 00f8 13       		.uleb128 0x13
 6648 00f9 02       		.uleb128 0x2
 6649 00fa 17       		.uleb128 0x17
 6650 00fb 00       		.byte	0
 6651 00fc 00       		.byte	0
 6652 00fd 13       		.uleb128 0x13
 6653 00fe 34       		.uleb128 0x34
 6654 00ff 00       		.byte	0
 6655 0100 03       		.uleb128 0x3
 6656 0101 0E       		.uleb128 0xe
 6657 0102 3A       		.uleb128 0x3a
 6658 0103 0B       		.uleb128 0xb
 6659 0104 3B       		.uleb128 0x3b
 6660 0105 0B       		.uleb128 0xb
 6661 0106 49       		.uleb128 0x49
 6662 0107 13       		.uleb128 0x13
 6663 0108 02       		.uleb128 0x2
 6664 0109 17       		.uleb128 0x17
 6665 010a 00       		.byte	0
 6666 010b 00       		.byte	0
 6667 010c 14       		.uleb128 0x14
 6668 010d 34       		.uleb128 0x34
ARM GAS  C:\Users\Administrator\AppData\Local\Temp\ccPIvPLo.s 			page 140


 6669 010e 00       		.byte	0
 6670 010f 03       		.uleb128 0x3
 6671 0110 08       		.uleb128 0x8
 6672 0111 3A       		.uleb128 0x3a
 6673 0112 0B       		.uleb128 0xb
 6674 0113 3B       		.uleb128 0x3b
 6675 0114 0B       		.uleb128 0xb
 6676 0115 49       		.uleb128 0x49
 6677 0116 13       		.uleb128 0x13
 6678 0117 02       		.uleb128 0x2
 6679 0118 17       		.uleb128 0x17
 6680 0119 00       		.byte	0
 6681 011a 00       		.byte	0
 6682 011b 15       		.uleb128 0x15
 6683 011c 2E       		.uleb128 0x2e
 6684 011d 01       		.byte	0x1
 6685 011e 3F       		.uleb128 0x3f
 6686 011f 19       		.uleb128 0x19
 6687 0120 03       		.uleb128 0x3
 6688 0121 0E       		.uleb128 0xe
 6689 0122 3A       		.uleb128 0x3a
 6690 0123 0B       		.uleb128 0xb
 6691 0124 3B       		.uleb128 0x3b
 6692 0125 05       		.uleb128 0x5
 6693 0126 27       		.uleb128 0x27
 6694 0127 19       		.uleb128 0x19
 6695 0128 49       		.uleb128 0x49
 6696 0129 13       		.uleb128 0x13
 6697 012a 11       		.uleb128 0x11
 6698 012b 01       		.uleb128 0x1
 6699 012c 12       		.uleb128 0x12
 6700 012d 06       		.uleb128 0x6
 6701 012e 40       		.uleb128 0x40
 6702 012f 18       		.uleb128 0x18
 6703 0130 9742     		.uleb128 0x2117
 6704 0132 19       		.uleb128 0x19
 6705 0133 01       		.uleb128 0x1
 6706 0134 13       		.uleb128 0x13
 6707 0135 00       		.byte	0
 6708 0136 00       		.byte	0
 6709 0137 16       		.uleb128 0x16
 6710 0138 05       		.uleb128 0x5
 6711 0139 00       		.byte	0
 6712 013a 03       		.uleb128 0x3
 6713 013b 0E       		.uleb128 0xe
 6714 013c 3A       		.uleb128 0x3a
 6715 013d 0B       		.uleb128 0xb
 6716 013e 3B       		.uleb128 0x3b
 6717 013f 05       		.uleb128 0x5
 6718 0140 49       		.uleb128 0x49
 6719 0141 13       		.uleb128 0x13
 6720 0142 02       		.uleb128 0x2
 6721 0143 17       		.uleb128 0x17
 6722 0144 00       		.byte	0
 6723 0145 00       		.byte	0
 6724 0146 17       		.uleb128 0x17
 6725 0147 34       		.uleb128 0x34
ARM GAS  C:\Users\Administrator\AppData\Local\Temp\ccPIvPLo.s 			page 141


 6726 0148 00       		.byte	0
 6727 0149 03       		.uleb128 0x3
 6728 014a 0E       		.uleb128 0xe
 6729 014b 3A       		.uleb128 0x3a
 6730 014c 0B       		.uleb128 0xb
 6731 014d 3B       		.uleb128 0x3b
 6732 014e 05       		.uleb128 0x5
 6733 014f 49       		.uleb128 0x49
 6734 0150 13       		.uleb128 0x13
 6735 0151 02       		.uleb128 0x2
 6736 0152 18       		.uleb128 0x18
 6737 0153 00       		.byte	0
 6738 0154 00       		.byte	0
 6739 0155 18       		.uleb128 0x18
 6740 0156 898201   		.uleb128 0x4109
 6741 0159 00       		.byte	0
 6742 015a 11       		.uleb128 0x11
 6743 015b 01       		.uleb128 0x1
 6744 015c 31       		.uleb128 0x31
 6745 015d 13       		.uleb128 0x13
 6746 015e 00       		.byte	0
 6747 015f 00       		.byte	0
 6748 0160 19       		.uleb128 0x19
 6749 0161 2E       		.uleb128 0x2e
 6750 0162 01       		.byte	0x1
 6751 0163 3F       		.uleb128 0x3f
 6752 0164 19       		.uleb128 0x19
 6753 0165 03       		.uleb128 0x3
 6754 0166 0E       		.uleb128 0xe
 6755 0167 3A       		.uleb128 0x3a
 6756 0168 0B       		.uleb128 0xb
 6757 0169 3B       		.uleb128 0x3b
 6758 016a 05       		.uleb128 0x5
 6759 016b 27       		.uleb128 0x27
 6760 016c 19       		.uleb128 0x19
 6761 016d 11       		.uleb128 0x11
 6762 016e 01       		.uleb128 0x1
 6763 016f 12       		.uleb128 0x12
 6764 0170 06       		.uleb128 0x6
 6765 0171 40       		.uleb128 0x40
 6766 0172 18       		.uleb128 0x18
 6767 0173 9642     		.uleb128 0x2116
 6768 0175 19       		.uleb128 0x19
 6769 0176 01       		.uleb128 0x1
 6770 0177 13       		.uleb128 0x13
 6771 0178 00       		.byte	0
 6772 0179 00       		.byte	0
 6773 017a 1A       		.uleb128 0x1a
 6774 017b 34       		.uleb128 0x34
 6775 017c 00       		.byte	0
 6776 017d 03       		.uleb128 0x3
 6777 017e 08       		.uleb128 0x8
 6778 017f 3A       		.uleb128 0x3a
 6779 0180 0B       		.uleb128 0xb
 6780 0181 3B       		.uleb128 0x3b
 6781 0182 05       		.uleb128 0x5
 6782 0183 49       		.uleb128 0x49
ARM GAS  C:\Users\Administrator\AppData\Local\Temp\ccPIvPLo.s 			page 142


 6783 0184 13       		.uleb128 0x13
 6784 0185 02       		.uleb128 0x2
 6785 0186 17       		.uleb128 0x17
 6786 0187 00       		.byte	0
 6787 0188 00       		.byte	0
 6788 0189 1B       		.uleb128 0x1b
 6789 018a 2E       		.uleb128 0x2e
 6790 018b 01       		.byte	0x1
 6791 018c 3F       		.uleb128 0x3f
 6792 018d 19       		.uleb128 0x19
 6793 018e 03       		.uleb128 0x3
 6794 018f 0E       		.uleb128 0xe
 6795 0190 3A       		.uleb128 0x3a
 6796 0191 0B       		.uleb128 0xb
 6797 0192 3B       		.uleb128 0x3b
 6798 0193 05       		.uleb128 0x5
 6799 0194 27       		.uleb128 0x27
 6800 0195 19       		.uleb128 0x19
 6801 0196 49       		.uleb128 0x49
 6802 0197 13       		.uleb128 0x13
 6803 0198 11       		.uleb128 0x11
 6804 0199 01       		.uleb128 0x1
 6805 019a 12       		.uleb128 0x12
 6806 019b 06       		.uleb128 0x6
 6807 019c 40       		.uleb128 0x40
 6808 019d 18       		.uleb128 0x18
 6809 019e 9642     		.uleb128 0x2116
 6810 01a0 19       		.uleb128 0x19
 6811 01a1 01       		.uleb128 0x1
 6812 01a2 13       		.uleb128 0x13
 6813 01a3 00       		.byte	0
 6814 01a4 00       		.byte	0
 6815 01a5 1C       		.uleb128 0x1c
 6816 01a6 2E       		.uleb128 0x2e
 6817 01a7 01       		.byte	0x1
 6818 01a8 3F       		.uleb128 0x3f
 6819 01a9 19       		.uleb128 0x19
 6820 01aa 03       		.uleb128 0x3
 6821 01ab 0E       		.uleb128 0xe
 6822 01ac 3A       		.uleb128 0x3a
 6823 01ad 0B       		.uleb128 0xb
 6824 01ae 3B       		.uleb128 0x3b
 6825 01af 05       		.uleb128 0x5
 6826 01b0 27       		.uleb128 0x27
 6827 01b1 19       		.uleb128 0x19
 6828 01b2 11       		.uleb128 0x11
 6829 01b3 01       		.uleb128 0x1
 6830 01b4 12       		.uleb128 0x12
 6831 01b5 06       		.uleb128 0x6
 6832 01b6 40       		.uleb128 0x40
 6833 01b7 18       		.uleb128 0x18
 6834 01b8 9742     		.uleb128 0x2117
 6835 01ba 19       		.uleb128 0x19
 6836 01bb 01       		.uleb128 0x1
 6837 01bc 13       		.uleb128 0x13
 6838 01bd 00       		.byte	0
 6839 01be 00       		.byte	0
ARM GAS  C:\Users\Administrator\AppData\Local\Temp\ccPIvPLo.s 			page 143


 6840 01bf 1D       		.uleb128 0x1d
 6841 01c0 34       		.uleb128 0x34
 6842 01c1 00       		.byte	0
 6843 01c2 03       		.uleb128 0x3
 6844 01c3 08       		.uleb128 0x8
 6845 01c4 3A       		.uleb128 0x3a
 6846 01c5 0B       		.uleb128 0xb
 6847 01c6 3B       		.uleb128 0x3b
 6848 01c7 05       		.uleb128 0x5
 6849 01c8 49       		.uleb128 0x49
 6850 01c9 13       		.uleb128 0x13
 6851 01ca 02       		.uleb128 0x2
 6852 01cb 18       		.uleb128 0x18
 6853 01cc 00       		.byte	0
 6854 01cd 00       		.byte	0
 6855 01ce 1E       		.uleb128 0x1e
 6856 01cf 34       		.uleb128 0x34
 6857 01d0 00       		.byte	0
 6858 01d1 03       		.uleb128 0x3
 6859 01d2 0E       		.uleb128 0xe
 6860 01d3 3A       		.uleb128 0x3a
 6861 01d4 0B       		.uleb128 0xb
 6862 01d5 3B       		.uleb128 0x3b
 6863 01d6 05       		.uleb128 0x5
 6864 01d7 49       		.uleb128 0x49
 6865 01d8 13       		.uleb128 0x13
 6866 01d9 02       		.uleb128 0x2
 6867 01da 17       		.uleb128 0x17
 6868 01db 00       		.byte	0
 6869 01dc 00       		.byte	0
 6870 01dd 1F       		.uleb128 0x1f
 6871 01de 05       		.uleb128 0x5
 6872 01df 00       		.byte	0
 6873 01e0 03       		.uleb128 0x3
 6874 01e1 08       		.uleb128 0x8
 6875 01e2 3A       		.uleb128 0x3a
 6876 01e3 0B       		.uleb128 0xb
 6877 01e4 3B       		.uleb128 0x3b
 6878 01e5 05       		.uleb128 0x5
 6879 01e6 49       		.uleb128 0x49
 6880 01e7 13       		.uleb128 0x13
 6881 01e8 02       		.uleb128 0x2
 6882 01e9 17       		.uleb128 0x17
 6883 01ea 00       		.byte	0
 6884 01eb 00       		.byte	0
 6885 01ec 20       		.uleb128 0x20
 6886 01ed 26       		.uleb128 0x26
 6887 01ee 00       		.byte	0
 6888 01ef 49       		.uleb128 0x49
 6889 01f0 13       		.uleb128 0x13
 6890 01f1 00       		.byte	0
 6891 01f2 00       		.byte	0
 6892 01f3 21       		.uleb128 0x21
 6893 01f4 34       		.uleb128 0x34
 6894 01f5 00       		.byte	0
 6895 01f6 03       		.uleb128 0x3
 6896 01f7 0E       		.uleb128 0xe
ARM GAS  C:\Users\Administrator\AppData\Local\Temp\ccPIvPLo.s 			page 144


 6897 01f8 3A       		.uleb128 0x3a
 6898 01f9 0B       		.uleb128 0xb
 6899 01fa 3B       		.uleb128 0x3b
 6900 01fb 05       		.uleb128 0x5
 6901 01fc 49       		.uleb128 0x49
 6902 01fd 13       		.uleb128 0x13
 6903 01fe 3F       		.uleb128 0x3f
 6904 01ff 19       		.uleb128 0x19
 6905 0200 3C       		.uleb128 0x3c
 6906 0201 19       		.uleb128 0x19
 6907 0202 00       		.byte	0
 6908 0203 00       		.byte	0
 6909 0204 22       		.uleb128 0x22
 6910 0205 34       		.uleb128 0x34
 6911 0206 00       		.byte	0
 6912 0207 03       		.uleb128 0x3
 6913 0208 0E       		.uleb128 0xe
 6914 0209 3A       		.uleb128 0x3a
 6915 020a 0B       		.uleb128 0xb
 6916 020b 3B       		.uleb128 0x3b
 6917 020c 0B       		.uleb128 0xb
 6918 020d 49       		.uleb128 0x49
 6919 020e 13       		.uleb128 0x13
 6920 020f 3F       		.uleb128 0x3f
 6921 0210 19       		.uleb128 0x19
 6922 0211 3C       		.uleb128 0x3c
 6923 0212 19       		.uleb128 0x19
 6924 0213 00       		.byte	0
 6925 0214 00       		.byte	0
 6926 0215 23       		.uleb128 0x23
 6927 0216 2E       		.uleb128 0x2e
 6928 0217 00       		.byte	0
 6929 0218 3F       		.uleb128 0x3f
 6930 0219 19       		.uleb128 0x19
 6931 021a 3C       		.uleb128 0x3c
 6932 021b 19       		.uleb128 0x19
 6933 021c 6E       		.uleb128 0x6e
 6934 021d 0E       		.uleb128 0xe
 6935 021e 03       		.uleb128 0x3
 6936 021f 0E       		.uleb128 0xe
 6937 0220 00       		.byte	0
 6938 0221 00       		.byte	0
 6939 0222 24       		.uleb128 0x24
 6940 0223 2E       		.uleb128 0x2e
 6941 0224 00       		.byte	0
 6942 0225 3F       		.uleb128 0x3f
 6943 0226 19       		.uleb128 0x19
 6944 0227 3C       		.uleb128 0x3c
 6945 0228 19       		.uleb128 0x19
 6946 0229 6E       		.uleb128 0x6e
 6947 022a 0E       		.uleb128 0xe
 6948 022b 03       		.uleb128 0x3
 6949 022c 0E       		.uleb128 0xe
 6950 022d 3A       		.uleb128 0x3a
 6951 022e 0B       		.uleb128 0xb
 6952 022f 3B       		.uleb128 0x3b
 6953 0230 0B       		.uleb128 0xb
ARM GAS  C:\Users\Administrator\AppData\Local\Temp\ccPIvPLo.s 			page 145


 6954 0231 00       		.byte	0
 6955 0232 00       		.byte	0
 6956 0233 00       		.byte	0
 6957              		.section	.debug_loc,"",%progbits
 6958              	.Ldebug_loc0:
 6959              	.LLST0:
 6960 0000 00000000 		.4byte	.LVL2
 6961 0004 10000000 		.4byte	.LVL3
 6962 0008 0100     		.2byte	0x1
 6963 000a 50       		.byte	0x50
 6964 000b 10000000 		.4byte	.LVL3
 6965 000f 36000000 		.4byte	.LVL11
 6966 0013 0100     		.2byte	0x1
 6967 0015 55       		.byte	0x55
 6968 0016 36000000 		.4byte	.LVL11
 6969 001a 38000000 		.4byte	.LFE64
 6970 001e 0400     		.2byte	0x4
 6971 0020 F3       		.byte	0xf3
 6972 0021 01       		.uleb128 0x1
 6973 0022 50       		.byte	0x50
 6974 0023 9F       		.byte	0x9f
 6975 0024 00000000 		.4byte	0
 6976 0028 00000000 		.4byte	0
 6977              	.LLST1:
 6978 002c 14000000 		.4byte	.LVL4
 6979 0030 1A000000 		.4byte	.LVL5
 6980 0034 0200     		.2byte	0x2
 6981 0036 30       		.byte	0x30
 6982 0037 9F       		.byte	0x9f
 6983 0038 1E000000 		.4byte	.LVL6
 6984 003c 2A000000 		.4byte	.LVL7
 6985 0040 0100     		.2byte	0x1
 6986 0042 50       		.byte	0x50
 6987 0043 2A000000 		.4byte	.LVL7
 6988 0047 2C000000 		.4byte	.LVL8
 6989 004b 0200     		.2byte	0x2
 6990 004d 75       		.byte	0x75
 6991 004e 00       		.sleb128 0
 6992 004f 2C000000 		.4byte	.LVL8
 6993 0053 2E000000 		.4byte	.LVL9
 6994 0057 0300     		.2byte	0x3
 6995 0059 73       		.byte	0x73
 6996 005a 01       		.sleb128 1
 6997 005b 9F       		.byte	0x9f
 6998 005c 2E000000 		.4byte	.LVL9
 6999 0060 34000000 		.4byte	.LVL10
 7000 0064 0300     		.2byte	0x3
 7001 0066 70       		.byte	0x70
 7002 0067 01       		.sleb128 1
 7003 0068 9F       		.byte	0x9f
 7004 0069 00000000 		.4byte	0
 7005 006d 00000000 		.4byte	0
 7006              	.LLST2:
 7007 0071 00000000 		.4byte	.LVL12
 7008 0075 0C000000 		.4byte	.LVL13
 7009 0079 0100     		.2byte	0x1
 7010 007b 50       		.byte	0x50
ARM GAS  C:\Users\Administrator\AppData\Local\Temp\ccPIvPLo.s 			page 146


 7011 007c 0C000000 		.4byte	.LVL13
 7012 0080 22000000 		.4byte	.LFE65
 7013 0084 0400     		.2byte	0x4
 7014 0086 F3       		.byte	0xf3
 7015 0087 01       		.uleb128 0x1
 7016 0088 50       		.byte	0x50
 7017 0089 9F       		.byte	0x9f
 7018 008a 00000000 		.4byte	0
 7019 008e 00000000 		.4byte	0
 7020              	.LLST3:
 7021 0092 12000000 		.4byte	.LVL16
 7022 0096 1A000000 		.4byte	.LVL17
 7023 009a 0200     		.2byte	0x2
 7024 009c 30       		.byte	0x30
 7025 009d 9F       		.byte	0x9f
 7026 009e 1A000000 		.4byte	.LVL17
 7027 00a2 24000000 		.4byte	.LVL19
 7028 00a6 0100     		.2byte	0x1
 7029 00a8 53       		.byte	0x53
 7030 00a9 24000000 		.4byte	.LVL19
 7031 00ad 26000000 		.4byte	.LVL20
 7032 00b1 0300     		.2byte	0x3
 7033 00b3 73       		.byte	0x73
 7034 00b4 01       		.sleb128 1
 7035 00b5 9F       		.byte	0x9f
 7036 00b6 00000000 		.4byte	0
 7037 00ba 00000000 		.4byte	0
 7038              	.LLST4:
 7039 00be 00000000 		.4byte	.LVL15
 7040 00c2 1A000000 		.4byte	.LVL17
 7041 00c6 0200     		.2byte	0x2
 7042 00c8 30       		.byte	0x30
 7043 00c9 9F       		.byte	0x9f
 7044 00ca 1A000000 		.4byte	.LVL17
 7045 00ce 22000000 		.4byte	.LVL18
 7046 00d2 0100     		.2byte	0x1
 7047 00d4 50       		.byte	0x50
 7048 00d5 24000000 		.4byte	.LVL19
 7049 00d9 2E000000 		.4byte	.LFE66
 7050 00dd 0100     		.2byte	0x1
 7051 00df 50       		.byte	0x50
 7052 00e0 00000000 		.4byte	0
 7053 00e4 00000000 		.4byte	0
 7054              	.LLST5:
 7055 00e8 00000000 		.4byte	.LVL21
 7056 00ec 0A000000 		.4byte	.LVL22
 7057 00f0 0100     		.2byte	0x1
 7058 00f2 50       		.byte	0x50
 7059 00f3 0A000000 		.4byte	.LVL22
 7060 00f7 12000000 		.4byte	.LFE67
 7061 00fb 0400     		.2byte	0x4
 7062 00fd F3       		.byte	0xf3
 7063 00fe 01       		.uleb128 0x1
 7064 00ff 50       		.byte	0x50
 7065 0100 9F       		.byte	0x9f
 7066 0101 00000000 		.4byte	0
 7067 0105 00000000 		.4byte	0
ARM GAS  C:\Users\Administrator\AppData\Local\Temp\ccPIvPLo.s 			page 147


 7068              	.LLST6:
 7069 0109 00000000 		.4byte	.LVL24
 7070 010d 0A000000 		.4byte	.LVL25
 7071 0111 0100     		.2byte	0x1
 7072 0113 50       		.byte	0x50
 7073 0114 0A000000 		.4byte	.LVL25
 7074 0118 14000000 		.4byte	.LFE68
 7075 011c 0400     		.2byte	0x4
 7076 011e F3       		.byte	0xf3
 7077 011f 01       		.uleb128 0x1
 7078 0120 50       		.byte	0x50
 7079 0121 9F       		.byte	0x9f
 7080 0122 00000000 		.4byte	0
 7081 0126 00000000 		.4byte	0
 7082              	.LLST7:
 7083 012a 00000000 		.4byte	.LVL27
 7084 012e 08000000 		.4byte	.LVL29
 7085 0132 0100     		.2byte	0x1
 7086 0134 50       		.byte	0x50
 7087 0135 08000000 		.4byte	.LVL29
 7088 0139 18000000 		.4byte	.LFE69
 7089 013d 0400     		.2byte	0x4
 7090 013f F3       		.byte	0xf3
 7091 0140 01       		.uleb128 0x1
 7092 0141 50       		.byte	0x50
 7093 0142 9F       		.byte	0x9f
 7094 0143 00000000 		.4byte	0
 7095 0147 00000000 		.4byte	0
 7096              	.LLST8:
 7097 014b 00000000 		.4byte	.LVL27
 7098 014f 06000000 		.4byte	.LVL28
 7099 0153 0100     		.2byte	0x1
 7100 0155 51       		.byte	0x51
 7101 0156 06000000 		.4byte	.LVL28
 7102 015a 15000000 		.4byte	.LVL30-1
 7103 015e 0100     		.2byte	0x1
 7104 0160 53       		.byte	0x53
 7105 0161 15000000 		.4byte	.LVL30-1
 7106 0165 18000000 		.4byte	.LFE69
 7107 0169 0400     		.2byte	0x4
 7108 016b F3       		.byte	0xf3
 7109 016c 01       		.uleb128 0x1
 7110 016d 51       		.byte	0x51
 7111 016e 9F       		.byte	0x9f
 7112 016f 00000000 		.4byte	0
 7113 0173 00000000 		.4byte	0
 7114              	.LLST9:
 7115 0177 00000000 		.4byte	.LVL31
 7116 017b 0E000000 		.4byte	.LVL32
 7117 017f 0100     		.2byte	0x1
 7118 0181 50       		.byte	0x50
 7119 0182 0E000000 		.4byte	.LVL32
 7120 0186 26000000 		.4byte	.LFE70
 7121 018a 0400     		.2byte	0x4
 7122 018c F3       		.byte	0xf3
 7123 018d 01       		.uleb128 0x1
 7124 018e 50       		.byte	0x50
ARM GAS  C:\Users\Administrator\AppData\Local\Temp\ccPIvPLo.s 			page 148


 7125 018f 9F       		.byte	0x9f
 7126 0190 00000000 		.4byte	0
 7127 0194 00000000 		.4byte	0
 7128              	.LLST10:
 7129 0198 00000000 		.4byte	.LVL35
 7130 019c 08000000 		.4byte	.LVL37
 7131 01a0 0100     		.2byte	0x1
 7132 01a2 50       		.byte	0x50
 7133 01a3 08000000 		.4byte	.LVL37
 7134 01a7 18000000 		.4byte	.LFE71
 7135 01ab 0400     		.2byte	0x4
 7136 01ad F3       		.byte	0xf3
 7137 01ae 01       		.uleb128 0x1
 7138 01af 50       		.byte	0x50
 7139 01b0 9F       		.byte	0x9f
 7140 01b1 00000000 		.4byte	0
 7141 01b5 00000000 		.4byte	0
 7142              	.LLST11:
 7143 01b9 00000000 		.4byte	.LVL35
 7144 01bd 06000000 		.4byte	.LVL36
 7145 01c1 0100     		.2byte	0x1
 7146 01c3 51       		.byte	0x51
 7147 01c4 06000000 		.4byte	.LVL36
 7148 01c8 15000000 		.4byte	.LVL38-1
 7149 01cc 0100     		.2byte	0x1
 7150 01ce 53       		.byte	0x53
 7151 01cf 15000000 		.4byte	.LVL38-1
 7152 01d3 18000000 		.4byte	.LFE71
 7153 01d7 0400     		.2byte	0x4
 7154 01d9 F3       		.byte	0xf3
 7155 01da 01       		.uleb128 0x1
 7156 01db 51       		.byte	0x51
 7157 01dc 9F       		.byte	0x9f
 7158 01dd 00000000 		.4byte	0
 7159 01e1 00000000 		.4byte	0
 7160              	.LLST12:
 7161 01e5 00000000 		.4byte	.LVL39
 7162 01e9 14000000 		.4byte	.LVL41
 7163 01ed 0100     		.2byte	0x1
 7164 01ef 50       		.byte	0x50
 7165 01f0 14000000 		.4byte	.LVL41
 7166 01f4 1A000000 		.4byte	.LFE72
 7167 01f8 0400     		.2byte	0x4
 7168 01fa F3       		.byte	0xf3
 7169 01fb 01       		.uleb128 0x1
 7170 01fc 50       		.byte	0x50
 7171 01fd 9F       		.byte	0x9f
 7172 01fe 00000000 		.4byte	0
 7173 0202 00000000 		.4byte	0
 7174              	.LLST13:
 7175 0206 00000000 		.4byte	.LVL39
 7176 020a 04000000 		.4byte	.LVL40
 7177 020e 0100     		.2byte	0x1
 7178 0210 51       		.byte	0x51
 7179 0211 04000000 		.4byte	.LVL40
 7180 0215 17000000 		.4byte	.LVL42-1
 7181 0219 0100     		.2byte	0x1
ARM GAS  C:\Users\Administrator\AppData\Local\Temp\ccPIvPLo.s 			page 149


 7182 021b 53       		.byte	0x53
 7183 021c 17000000 		.4byte	.LVL42-1
 7184 0220 1A000000 		.4byte	.LFE72
 7185 0224 0400     		.2byte	0x4
 7186 0226 F3       		.byte	0xf3
 7187 0227 01       		.uleb128 0x1
 7188 0228 51       		.byte	0x51
 7189 0229 9F       		.byte	0x9f
 7190 022a 00000000 		.4byte	0
 7191 022e 00000000 		.4byte	0
 7192              	.LLST14:
 7193 0232 00000000 		.4byte	.LVL43
 7194 0236 12000000 		.4byte	.LVL45
 7195 023a 0100     		.2byte	0x1
 7196 023c 50       		.byte	0x50
 7197 023d 12000000 		.4byte	.LVL45
 7198 0241 4A000000 		.4byte	.LVL54
 7199 0245 0100     		.2byte	0x1
 7200 0247 55       		.byte	0x55
 7201 0248 4A000000 		.4byte	.LVL54
 7202 024c 4C000000 		.4byte	.LFE73
 7203 0250 0400     		.2byte	0x4
 7204 0252 F3       		.byte	0xf3
 7205 0253 01       		.uleb128 0x1
 7206 0254 50       		.byte	0x50
 7207 0255 9F       		.byte	0x9f
 7208 0256 00000000 		.4byte	0
 7209 025a 00000000 		.4byte	0
 7210              	.LLST15:
 7211 025e 00000000 		.4byte	.LVL43
 7212 0262 10000000 		.4byte	.LVL44
 7213 0266 0100     		.2byte	0x1
 7214 0268 51       		.byte	0x51
 7215 0269 10000000 		.4byte	.LVL44
 7216 026d 4C000000 		.4byte	.LFE73
 7217 0271 0300     		.2byte	0x3
 7218 0273 91       		.byte	0x91
 7219 0274 E47B     		.sleb128 -540
 7220 0276 00000000 		.4byte	0
 7221 027a 00000000 		.4byte	0
 7222              	.LLST16:
 7223 027e 16000000 		.4byte	.LVL46
 7224 0282 18000000 		.4byte	.LVL47
 7225 0286 0200     		.2byte	0x2
 7226 0288 30       		.byte	0x30
 7227 0289 9F       		.byte	0x9f
 7228 028a 1C000000 		.4byte	.LVL48
 7229 028e 3C000000 		.4byte	.LVL51
 7230 0292 0100     		.2byte	0x1
 7231 0294 57       		.byte	0x57
 7232 0295 3C000000 		.4byte	.LVL51
 7233 0299 40000000 		.4byte	.LVL52
 7234 029d 0300     		.2byte	0x3
 7235 029f 74       		.byte	0x74
 7236 02a0 01       		.sleb128 1
 7237 02a1 9F       		.byte	0x9f
 7238 02a2 40000000 		.4byte	.LVL52
ARM GAS  C:\Users\Administrator\AppData\Local\Temp\ccPIvPLo.s 			page 150


 7239 02a6 48000000 		.4byte	.LVL53
 7240 02aa 0300     		.2byte	0x3
 7241 02ac 77       		.byte	0x77
 7242 02ad 01       		.sleb128 1
 7243 02ae 9F       		.byte	0x9f
 7244 02af 00000000 		.4byte	0
 7245 02b3 00000000 		.4byte	0
 7246              	.LLST17:
 7247 02b7 32000000 		.4byte	.LVL50
 7248 02bb 3C000000 		.4byte	.LVL51
 7249 02bf 0100     		.2byte	0x1
 7250 02c1 50       		.byte	0x50
 7251 02c2 00000000 		.4byte	0
 7252 02c6 00000000 		.4byte	0
 7253              	.LLST18:
 7254 02ca 00000000 		.4byte	.LVL55
 7255 02ce 10000000 		.4byte	.LVL57
 7256 02d2 0100     		.2byte	0x1
 7257 02d4 50       		.byte	0x50
 7258 02d5 10000000 		.4byte	.LVL57
 7259 02d9 18000000 		.4byte	.LFE74
 7260 02dd 0400     		.2byte	0x4
 7261 02df F3       		.byte	0xf3
 7262 02e0 01       		.uleb128 0x1
 7263 02e1 50       		.byte	0x50
 7264 02e2 9F       		.byte	0x9f
 7265 02e3 00000000 		.4byte	0
 7266 02e7 00000000 		.4byte	0
 7267              	.LLST19:
 7268 02eb 00000000 		.4byte	.LVL55
 7269 02ef 04000000 		.4byte	.LVL56
 7270 02f3 0100     		.2byte	0x1
 7271 02f5 51       		.byte	0x51
 7272 02f6 04000000 		.4byte	.LVL56
 7273 02fa 15000000 		.4byte	.LVL58-1
 7274 02fe 0100     		.2byte	0x1
 7275 0300 53       		.byte	0x53
 7276 0301 15000000 		.4byte	.LVL58-1
 7277 0305 18000000 		.4byte	.LFE74
 7278 0309 0400     		.2byte	0x4
 7279 030b F3       		.byte	0xf3
 7280 030c 01       		.uleb128 0x1
 7281 030d 51       		.byte	0x51
 7282 030e 9F       		.byte	0x9f
 7283 030f 00000000 		.4byte	0
 7284 0313 00000000 		.4byte	0
 7285              	.LLST20:
 7286 0317 00000000 		.4byte	.LVL59
 7287 031b 0B000000 		.4byte	.LVL60-1
 7288 031f 0100     		.2byte	0x1
 7289 0321 50       		.byte	0x50
 7290 0322 0B000000 		.4byte	.LVL60-1
 7291 0326 32000000 		.4byte	.LFE75
 7292 032a 0400     		.2byte	0x4
 7293 032c F3       		.byte	0xf3
 7294 032d 01       		.uleb128 0x1
 7295 032e 50       		.byte	0x50
ARM GAS  C:\Users\Administrator\AppData\Local\Temp\ccPIvPLo.s 			page 151


 7296 032f 9F       		.byte	0x9f
 7297 0330 00000000 		.4byte	0
 7298 0334 00000000 		.4byte	0
 7299              	.LLST21:
 7300 0338 00000000 		.4byte	.LVL59
 7301 033c 0B000000 		.4byte	.LVL60-1
 7302 0340 0100     		.2byte	0x1
 7303 0342 51       		.byte	0x51
 7304 0343 0B000000 		.4byte	.LVL60-1
 7305 0347 30000000 		.4byte	.LVL64
 7306 034b 0100     		.2byte	0x1
 7307 034d 55       		.byte	0x55
 7308 034e 30000000 		.4byte	.LVL64
 7309 0352 32000000 		.4byte	.LFE75
 7310 0356 0400     		.2byte	0x4
 7311 0358 F3       		.byte	0xf3
 7312 0359 01       		.uleb128 0x1
 7313 035a 51       		.byte	0x51
 7314 035b 9F       		.byte	0x9f
 7315 035c 00000000 		.4byte	0
 7316 0360 00000000 		.4byte	0
 7317              	.LLST22:
 7318 0364 00000000 		.4byte	.LVL65
 7319 0368 0B000000 		.4byte	.LVL66-1
 7320 036c 0100     		.2byte	0x1
 7321 036e 50       		.byte	0x50
 7322 036f 0B000000 		.4byte	.LVL66-1
 7323 0373 28000000 		.4byte	.LFE76
 7324 0377 0400     		.2byte	0x4
 7325 0379 F3       		.byte	0xf3
 7326 037a 01       		.uleb128 0x1
 7327 037b 50       		.byte	0x50
 7328 037c 9F       		.byte	0x9f
 7329 037d 00000000 		.4byte	0
 7330 0381 00000000 		.4byte	0
 7331              	.LLST23:
 7332 0385 00000000 		.4byte	.LVL65
 7333 0389 0B000000 		.4byte	.LVL66-1
 7334 038d 0100     		.2byte	0x1
 7335 038f 51       		.byte	0x51
 7336 0390 0B000000 		.4byte	.LVL66-1
 7337 0394 26000000 		.4byte	.LVL69
 7338 0398 0100     		.2byte	0x1
 7339 039a 54       		.byte	0x54
 7340 039b 26000000 		.4byte	.LVL69
 7341 039f 28000000 		.4byte	.LFE76
 7342 03a3 0400     		.2byte	0x4
 7343 03a5 F3       		.byte	0xf3
 7344 03a6 01       		.uleb128 0x1
 7345 03a7 51       		.byte	0x51
 7346 03a8 9F       		.byte	0x9f
 7347 03a9 00000000 		.4byte	0
 7348 03ad 00000000 		.4byte	0
 7349              	.LLST24:
 7350 03b1 00000000 		.4byte	.LVL70
 7351 03b5 0B000000 		.4byte	.LVL71-1
 7352 03b9 0100     		.2byte	0x1
ARM GAS  C:\Users\Administrator\AppData\Local\Temp\ccPIvPLo.s 			page 152


 7353 03bb 50       		.byte	0x50
 7354 03bc 0B000000 		.4byte	.LVL71-1
 7355 03c0 30000000 		.4byte	.LFE77
 7356 03c4 0400     		.2byte	0x4
 7357 03c6 F3       		.byte	0xf3
 7358 03c7 01       		.uleb128 0x1
 7359 03c8 50       		.byte	0x50
 7360 03c9 9F       		.byte	0x9f
 7361 03ca 00000000 		.4byte	0
 7362 03ce 00000000 		.4byte	0
 7363              	.LLST25:
 7364 03d2 00000000 		.4byte	.LVL78
 7365 03d6 0E000000 		.4byte	.LVL79
 7366 03da 0100     		.2byte	0x1
 7367 03dc 50       		.byte	0x50
 7368 03dd 0E000000 		.4byte	.LVL79
 7369 03e1 13000000 		.4byte	.LVL80-1
 7370 03e5 0100     		.2byte	0x1
 7371 03e7 51       		.byte	0x51
 7372 03e8 13000000 		.4byte	.LVL80-1
 7373 03ec 44000000 		.4byte	.LVL84
 7374 03f0 0100     		.2byte	0x1
 7375 03f2 56       		.byte	0x56
 7376 03f3 44000000 		.4byte	.LVL84
 7377 03f7 46000000 		.4byte	.LFE79
 7378 03fb 0400     		.2byte	0x4
 7379 03fd F3       		.byte	0xf3
 7380 03fe 01       		.uleb128 0x1
 7381 03ff 50       		.byte	0x50
 7382 0400 9F       		.byte	0x9f
 7383 0401 00000000 		.4byte	0
 7384 0405 00000000 		.4byte	0
 7385              	.LLST26:
 7386 0409 00000000 		.4byte	.LVL85
 7387 040d 0C000000 		.4byte	.LVL86
 7388 0411 0100     		.2byte	0x1
 7389 0413 50       		.byte	0x50
 7390 0414 0C000000 		.4byte	.LVL86
 7391 0418 11000000 		.4byte	.LVL87-1
 7392 041c 0100     		.2byte	0x1
 7393 041e 51       		.byte	0x51
 7394 041f 11000000 		.4byte	.LVL87-1
 7395 0423 2E000000 		.4byte	.LFE80
 7396 0427 0400     		.2byte	0x4
 7397 0429 F3       		.byte	0xf3
 7398 042a 01       		.uleb128 0x1
 7399 042b 50       		.byte	0x50
 7400 042c 9F       		.byte	0x9f
 7401 042d 00000000 		.4byte	0
 7402 0431 00000000 		.4byte	0
 7403              	.LLST27:
 7404 0435 00000000 		.4byte	.LVL90
 7405 0439 0E000000 		.4byte	.LVL91
 7406 043d 0100     		.2byte	0x1
 7407 043f 50       		.byte	0x50
 7408 0440 0E000000 		.4byte	.LVL91
 7409 0444 15000000 		.4byte	.LVL92-1
ARM GAS  C:\Users\Administrator\AppData\Local\Temp\ccPIvPLo.s 			page 153


 7410 0448 0100     		.2byte	0x1
 7411 044a 51       		.byte	0x51
 7412 044b 15000000 		.4byte	.LVL92-1
 7413 044f 4A000000 		.4byte	.LVL94
 7414 0453 0100     		.2byte	0x1
 7415 0455 54       		.byte	0x54
 7416 0456 4A000000 		.4byte	.LVL94
 7417 045a 4C000000 		.4byte	.LFE82
 7418 045e 0400     		.2byte	0x4
 7419 0460 F3       		.byte	0xf3
 7420 0461 01       		.uleb128 0x1
 7421 0462 50       		.byte	0x50
 7422 0463 9F       		.byte	0x9f
 7423 0464 00000000 		.4byte	0
 7424 0468 00000000 		.4byte	0
 7425              	.LLST28:
 7426 046c 00000000 		.4byte	.LVL95
 7427 0470 09000000 		.4byte	.LVL97-1
 7428 0474 0100     		.2byte	0x1
 7429 0476 50       		.byte	0x50
 7430 0477 09000000 		.4byte	.LVL97-1
 7431 047b 44000000 		.4byte	.LFE83
 7432 047f 0400     		.2byte	0x4
 7433 0481 F3       		.byte	0xf3
 7434 0482 01       		.uleb128 0x1
 7435 0483 50       		.byte	0x50
 7436 0484 9F       		.byte	0x9f
 7437 0485 00000000 		.4byte	0
 7438 0489 00000000 		.4byte	0
 7439              	.LLST29:
 7440 048d 00000000 		.4byte	.LVL95
 7441 0491 06000000 		.4byte	.LVL96
 7442 0495 0100     		.2byte	0x1
 7443 0497 51       		.byte	0x51
 7444 0498 06000000 		.4byte	.LVL96
 7445 049c 44000000 		.4byte	.LFE83
 7446 04a0 0400     		.2byte	0x4
 7447 04a2 F3       		.byte	0xf3
 7448 04a3 01       		.uleb128 0x1
 7449 04a4 51       		.byte	0x51
 7450 04a5 9F       		.byte	0x9f
 7451 04a6 00000000 		.4byte	0
 7452 04aa 00000000 		.4byte	0
 7453              	.LLST30:
 7454 04ae 00000000 		.4byte	.LVL95
 7455 04b2 09000000 		.4byte	.LVL97-1
 7456 04b6 0700     		.2byte	0x7
 7457 04b8 70       		.byte	0x70
 7458 04b9 00       		.sleb128 0
 7459 04ba 0A       		.byte	0xa
 7460 04bb 8813     		.2byte	0x1388
 7461 04bd 1D       		.byte	0x1d
 7462 04be 9F       		.byte	0x9f
 7463 04bf 09000000 		.4byte	.LVL97-1
 7464 04c3 44000000 		.4byte	.LFE83
 7465 04c7 0800     		.2byte	0x8
 7466 04c9 F3       		.byte	0xf3
ARM GAS  C:\Users\Administrator\AppData\Local\Temp\ccPIvPLo.s 			page 154


 7467 04ca 01       		.uleb128 0x1
 7468 04cb 50       		.byte	0x50
 7469 04cc 0A       		.byte	0xa
 7470 04cd 8813     		.2byte	0x1388
 7471 04cf 1D       		.byte	0x1d
 7472 04d0 9F       		.byte	0x9f
 7473 04d1 00000000 		.4byte	0
 7474 04d5 00000000 		.4byte	0
 7475              	.LLST31:
 7476 04d9 00000000 		.4byte	.LVL100
 7477 04dd 07000000 		.4byte	.LVL101-1
 7478 04e1 0100     		.2byte	0x1
 7479 04e3 50       		.byte	0x50
 7480 04e4 07000000 		.4byte	.LVL101-1
 7481 04e8 28000000 		.4byte	.LFE84
 7482 04ec 0400     		.2byte	0x4
 7483 04ee F3       		.byte	0xf3
 7484 04ef 01       		.uleb128 0x1
 7485 04f0 50       		.byte	0x50
 7486 04f1 9F       		.byte	0x9f
 7487 04f2 00000000 		.4byte	0
 7488 04f6 00000000 		.4byte	0
 7489              	.LLST32:
 7490 04fa 00000000 		.4byte	.LVL100
 7491 04fe 07000000 		.4byte	.LVL101-1
 7492 0502 0700     		.2byte	0x7
 7493 0504 70       		.byte	0x70
 7494 0505 00       		.sleb128 0
 7495 0506 0A       		.byte	0xa
 7496 0507 8813     		.2byte	0x1388
 7497 0509 1D       		.byte	0x1d
 7498 050a 9F       		.byte	0x9f
 7499 050b 07000000 		.4byte	.LVL101-1
 7500 050f 28000000 		.4byte	.LFE84
 7501 0513 0800     		.2byte	0x8
 7502 0515 F3       		.byte	0xf3
 7503 0516 01       		.uleb128 0x1
 7504 0517 50       		.byte	0x50
 7505 0518 0A       		.byte	0xa
 7506 0519 8813     		.2byte	0x1388
 7507 051b 1D       		.byte	0x1d
 7508 051c 9F       		.byte	0x9f
 7509 051d 00000000 		.4byte	0
 7510 0521 00000000 		.4byte	0
 7511              	.LLST33:
 7512 0525 00000000 		.4byte	.LVL103
 7513 0529 0D000000 		.4byte	.LVL106-1
 7514 052d 0100     		.2byte	0x1
 7515 052f 50       		.byte	0x50
 7516 0530 0D000000 		.4byte	.LVL106-1
 7517 0534 24000000 		.4byte	.LFE85
 7518 0538 0400     		.2byte	0x4
 7519 053a F3       		.byte	0xf3
 7520 053b 01       		.uleb128 0x1
 7521 053c 50       		.byte	0x50
 7522 053d 9F       		.byte	0x9f
 7523 053e 00000000 		.4byte	0
ARM GAS  C:\Users\Administrator\AppData\Local\Temp\ccPIvPLo.s 			page 155


 7524 0542 00000000 		.4byte	0
 7525              	.LLST34:
 7526 0546 00000000 		.4byte	.LVL103
 7527 054a 08000000 		.4byte	.LVL104
 7528 054e 0100     		.2byte	0x1
 7529 0550 51       		.byte	0x51
 7530 0551 08000000 		.4byte	.LVL104
 7531 0555 0A000000 		.4byte	.LVL105
 7532 0559 0200     		.2byte	0x2
 7533 055b 73       		.byte	0x73
 7534 055c 07       		.sleb128 7
 7535 055d 0A000000 		.4byte	.LVL105
 7536 0561 0D000000 		.4byte	.LVL106-1
 7537 0565 0200     		.2byte	0x2
 7538 0567 74       		.byte	0x74
 7539 0568 00       		.sleb128 0
 7540 0569 0D000000 		.4byte	.LVL106-1
 7541 056d 24000000 		.4byte	.LFE85
 7542 0571 0400     		.2byte	0x4
 7543 0573 F3       		.byte	0xf3
 7544 0574 01       		.uleb128 0x1
 7545 0575 51       		.byte	0x51
 7546 0576 9F       		.byte	0x9f
 7547 0577 00000000 		.4byte	0
 7548 057b 00000000 		.4byte	0
 7549              	.LLST35:
 7550 057f 00000000 		.4byte	.LVL103
 7551 0583 0D000000 		.4byte	.LVL106-1
 7552 0587 0700     		.2byte	0x7
 7553 0589 70       		.byte	0x70
 7554 058a 00       		.sleb128 0
 7555 058b 0A       		.byte	0xa
 7556 058c 8813     		.2byte	0x1388
 7557 058e 1D       		.byte	0x1d
 7558 058f 9F       		.byte	0x9f
 7559 0590 0D000000 		.4byte	.LVL106-1
 7560 0594 24000000 		.4byte	.LFE85
 7561 0598 0800     		.2byte	0x8
 7562 059a F3       		.byte	0xf3
 7563 059b 01       		.uleb128 0x1
 7564 059c 50       		.byte	0x50
 7565 059d 0A       		.byte	0xa
 7566 059e 8813     		.2byte	0x1388
 7567 05a0 1D       		.byte	0x1d
 7568 05a1 9F       		.byte	0x9f
 7569 05a2 00000000 		.4byte	0
 7570 05a6 00000000 		.4byte	0
 7571              	.LLST36:
 7572 05aa 00000000 		.4byte	.LVL108
 7573 05ae 07000000 		.4byte	.LVL109-1
 7574 05b2 0100     		.2byte	0x1
 7575 05b4 50       		.byte	0x50
 7576 05b5 07000000 		.4byte	.LVL109-1
 7577 05b9 28000000 		.4byte	.LFE86
 7578 05bd 0400     		.2byte	0x4
 7579 05bf F3       		.byte	0xf3
 7580 05c0 01       		.uleb128 0x1
ARM GAS  C:\Users\Administrator\AppData\Local\Temp\ccPIvPLo.s 			page 156


 7581 05c1 50       		.byte	0x50
 7582 05c2 9F       		.byte	0x9f
 7583 05c3 00000000 		.4byte	0
 7584 05c7 00000000 		.4byte	0
 7585              	.LLST37:
 7586 05cb 00000000 		.4byte	.LVL108
 7587 05cf 07000000 		.4byte	.LVL109-1
 7588 05d3 0700     		.2byte	0x7
 7589 05d5 70       		.byte	0x70
 7590 05d6 00       		.sleb128 0
 7591 05d7 0A       		.byte	0xa
 7592 05d8 8813     		.2byte	0x1388
 7593 05da 1D       		.byte	0x1d
 7594 05db 9F       		.byte	0x9f
 7595 05dc 07000000 		.4byte	.LVL109-1
 7596 05e0 28000000 		.4byte	.LFE86
 7597 05e4 0800     		.2byte	0x8
 7598 05e6 F3       		.byte	0xf3
 7599 05e7 01       		.uleb128 0x1
 7600 05e8 50       		.byte	0x50
 7601 05e9 0A       		.byte	0xa
 7602 05ea 8813     		.2byte	0x1388
 7603 05ec 1D       		.byte	0x1d
 7604 05ed 9F       		.byte	0x9f
 7605 05ee 00000000 		.4byte	0
 7606 05f2 00000000 		.4byte	0
 7607              	.LLST38:
 7608 05f6 00000000 		.4byte	.LVL111
 7609 05fa 12000000 		.4byte	.LVL112
 7610 05fe 0100     		.2byte	0x1
 7611 0600 50       		.byte	0x50
 7612 0601 12000000 		.4byte	.LVL112
 7613 0605 18000000 		.4byte	.LFE87
 7614 0609 0400     		.2byte	0x4
 7615 060b F3       		.byte	0xf3
 7616 060c 01       		.uleb128 0x1
 7617 060d 50       		.byte	0x50
 7618 060e 9F       		.byte	0x9f
 7619 060f 00000000 		.4byte	0
 7620 0613 00000000 		.4byte	0
 7621              	.LLST39:
 7622 0617 00000000 		.4byte	.LVL115
 7623 061b 0D000000 		.4byte	.LVL116-1
 7624 061f 0100     		.2byte	0x1
 7625 0621 50       		.byte	0x50
 7626 0622 0D000000 		.4byte	.LVL116-1
 7627 0626 6C000000 		.4byte	.LFE89
 7628 062a 0200     		.2byte	0x2
 7629 062c 91       		.byte	0x91
 7630 062d 4C       		.sleb128 -52
 7631 062e 00000000 		.4byte	0
 7632 0632 00000000 		.4byte	0
 7633              	.LLST40:
 7634 0636 00000000 		.4byte	.LVL115
 7635 063a 0D000000 		.4byte	.LVL116-1
 7636 063e 0100     		.2byte	0x1
 7637 0640 51       		.byte	0x51
ARM GAS  C:\Users\Administrator\AppData\Local\Temp\ccPIvPLo.s 			page 157


 7638 0641 0D000000 		.4byte	.LVL116-1
 7639 0645 6C000000 		.4byte	.LFE89
 7640 0649 0400     		.2byte	0x4
 7641 064b F3       		.byte	0xf3
 7642 064c 01       		.uleb128 0x1
 7643 064d 51       		.byte	0x51
 7644 064e 9F       		.byte	0x9f
 7645 064f 00000000 		.4byte	0
 7646 0653 00000000 		.4byte	0
 7647              	.LLST41:
 7648 0657 12000000 		.4byte	.LVL117
 7649 065b 50000000 		.4byte	.LVL122
 7650 065f 0100     		.2byte	0x1
 7651 0661 54       		.byte	0x54
 7652 0662 00000000 		.4byte	0
 7653 0666 00000000 		.4byte	0
 7654              	.LLST42:
 7655 066a 12000000 		.4byte	.LVL117
 7656 066e 50000000 		.4byte	.LVL122
 7657 0672 0700     		.2byte	0x7
 7658 0674 74       		.byte	0x74
 7659 0675 00       		.sleb128 0
 7660 0676 0A       		.byte	0xa
 7661 0677 8813     		.2byte	0x1388
 7662 0679 1D       		.byte	0x1d
 7663 067a 9F       		.byte	0x9f
 7664 067b 00000000 		.4byte	0
 7665 067f 00000000 		.4byte	0
 7666              	.LLST43:
 7667 0683 00000000 		.4byte	.LVL125
 7668 0687 0E000000 		.4byte	.LVL126
 7669 068b 0100     		.2byte	0x1
 7670 068d 50       		.byte	0x50
 7671 068e 0E000000 		.4byte	.LVL126
 7672 0692 64000000 		.4byte	.LFE90
 7673 0696 0400     		.2byte	0x4
 7674 0698 F3       		.byte	0xf3
 7675 0699 01       		.uleb128 0x1
 7676 069a 50       		.byte	0x50
 7677 069b 9F       		.byte	0x9f
 7678 069c 00000000 		.4byte	0
 7679 06a0 00000000 		.4byte	0
 7680              	.LLST44:
 7681 06a4 00000000 		.4byte	.LVL125
 7682 06a8 10000000 		.4byte	.LVL127
 7683 06ac 0100     		.2byte	0x1
 7684 06ae 51       		.byte	0x51
 7685 06af 10000000 		.4byte	.LVL127
 7686 06b3 5A000000 		.4byte	.LVL139
 7687 06b7 0100     		.2byte	0x1
 7688 06b9 55       		.byte	0x55
 7689 06ba 5A000000 		.4byte	.LVL139
 7690 06be 64000000 		.4byte	.LFE90
 7691 06c2 0400     		.2byte	0x4
 7692 06c4 F3       		.byte	0xf3
 7693 06c5 01       		.uleb128 0x1
 7694 06c6 51       		.byte	0x51
ARM GAS  C:\Users\Administrator\AppData\Local\Temp\ccPIvPLo.s 			page 158


 7695 06c7 9F       		.byte	0x9f
 7696 06c8 00000000 		.4byte	0
 7697 06cc 00000000 		.4byte	0
 7698              	.LLST45:
 7699 06d0 14000000 		.4byte	.LVL128
 7700 06d4 1E000000 		.4byte	.LVL130
 7701 06d8 0700     		.2byte	0x7
 7702 06da 74       		.byte	0x74
 7703 06db 00       		.sleb128 0
 7704 06dc 0A       		.byte	0xa
 7705 06dd 8813     		.2byte	0x1388
 7706 06df 1D       		.byte	0x1d
 7707 06e0 9F       		.byte	0x9f
 7708 06e1 00000000 		.4byte	0
 7709 06e5 00000000 		.4byte	0
 7710              	.LLST46:
 7711 06e9 14000000 		.4byte	.LVL128
 7712 06ed 20000000 		.4byte	.LVL131
 7713 06f1 0200     		.2byte	0x2
 7714 06f3 30       		.byte	0x30
 7715 06f4 9F       		.byte	0x9f
 7716 06f5 20000000 		.4byte	.LVL131
 7717 06f9 2C000000 		.4byte	.LVL133
 7718 06fd 0100     		.2byte	0x1
 7719 06ff 54       		.byte	0x54
 7720 0700 2C000000 		.4byte	.LVL133
 7721 0704 38000000 		.4byte	.LVL134
 7722 0708 0300     		.2byte	0x3
 7723 070a 74       		.byte	0x74
 7724 070b 01       		.sleb128 1
 7725 070c 9F       		.byte	0x9f
 7726 070d 38000000 		.4byte	.LVL134
 7727 0711 42000000 		.4byte	.LVL135
 7728 0715 0100     		.2byte	0x1
 7729 0717 54       		.byte	0x54
 7730 0718 00000000 		.4byte	0
 7731 071c 00000000 		.4byte	0
 7732              	.LLST47:
 7733 0720 00000000 		.4byte	.LVL140
 7734 0724 07000000 		.4byte	.LVL141-1
 7735 0728 0100     		.2byte	0x1
 7736 072a 50       		.byte	0x50
 7737 072b 07000000 		.4byte	.LVL141-1
 7738 072f 56000000 		.4byte	.LVL157
 7739 0733 0100     		.2byte	0x1
 7740 0735 56       		.byte	0x56
 7741 0736 56000000 		.4byte	.LVL157
 7742 073a 64000000 		.4byte	.LFE91
 7743 073e 0400     		.2byte	0x4
 7744 0740 F3       		.byte	0xf3
 7745 0741 01       		.uleb128 0x1
 7746 0742 50       		.byte	0x50
 7747 0743 9F       		.byte	0x9f
 7748 0744 00000000 		.4byte	0
 7749 0748 00000000 		.4byte	0
 7750              	.LLST48:
 7751 074c 18000000 		.4byte	.LVL143
ARM GAS  C:\Users\Administrator\AppData\Local\Temp\ccPIvPLo.s 			page 159


 7752 0750 2A000000 		.4byte	.LVL146
 7753 0754 0100     		.2byte	0x1
 7754 0756 54       		.byte	0x54
 7755 0757 2C000000 		.4byte	.LVL147
 7756 075b 34000000 		.4byte	.LVL149
 7757 075f 0100     		.2byte	0x1
 7758 0761 54       		.byte	0x54
 7759 0762 3A000000 		.4byte	.LVL150
 7760 0766 50000000 		.4byte	.LVL153
 7761 076a 0100     		.2byte	0x1
 7762 076c 54       		.byte	0x54
 7763 076d 50000000 		.4byte	.LVL153
 7764 0771 52000000 		.4byte	.LVL154
 7765 0775 0300     		.2byte	0x3
 7766 0777 74       		.byte	0x74
 7767 0778 7F       		.sleb128 -1
 7768 0779 9F       		.byte	0x9f
 7769 077a 52000000 		.4byte	.LVL154
 7770 077e 54000000 		.4byte	.LVL155
 7771 0782 0100     		.2byte	0x1
 7772 0784 54       		.byte	0x54
 7773 0785 00000000 		.4byte	0
 7774 0789 00000000 		.4byte	0
 7775              	.LLST49:
 7776 078d 0A000000 		.4byte	.LVL142
 7777 0791 56000000 		.4byte	.LVL156
 7778 0795 0100     		.2byte	0x1
 7779 0797 55       		.byte	0x55
 7780 0798 00000000 		.4byte	0
 7781 079c 00000000 		.4byte	0
 7782              	.LLST50:
 7783 07a0 24000000 		.4byte	.LVL145
 7784 07a4 30000000 		.4byte	.LVL148
 7785 07a8 2600     		.2byte	0x26
 7786 07aa 91       		.byte	0x91
 7787 07ab 68       		.sleb128 -24
 7788 07ac 94       		.byte	0x94
 7789 07ad 01       		.byte	0x1
 7790 07ae 08       		.byte	0x8
 7791 07af FF       		.byte	0xff
 7792 07b0 1A       		.byte	0x1a
 7793 07b1 48       		.byte	0x48
 7794 07b2 24       		.byte	0x24
 7795 07b3 91       		.byte	0x91
 7796 07b4 69       		.sleb128 -23
 7797 07b5 94       		.byte	0x94
 7798 07b6 01       		.byte	0x1
 7799 07b7 08       		.byte	0x8
 7800 07b8 FF       		.byte	0xff
 7801 07b9 1A       		.byte	0x1a
 7802 07ba 40       		.byte	0x40
 7803 07bb 24       		.byte	0x24
 7804 07bc 21       		.byte	0x21
 7805 07bd 91       		.byte	0x91
 7806 07be 6A       		.sleb128 -22
 7807 07bf 94       		.byte	0x94
 7808 07c0 01       		.byte	0x1
ARM GAS  C:\Users\Administrator\AppData\Local\Temp\ccPIvPLo.s 			page 160


 7809 07c1 08       		.byte	0x8
 7810 07c2 FF       		.byte	0xff
 7811 07c3 1A       		.byte	0x1a
 7812 07c4 38       		.byte	0x38
 7813 07c5 24       		.byte	0x24
 7814 07c6 21       		.byte	0x21
 7815 07c7 91       		.byte	0x91
 7816 07c8 6B       		.sleb128 -21
 7817 07c9 94       		.byte	0x94
 7818 07ca 01       		.byte	0x1
 7819 07cb 08       		.byte	0x8
 7820 07cc FF       		.byte	0xff
 7821 07cd 1A       		.byte	0x1a
 7822 07ce 21       		.byte	0x21
 7823 07cf 9F       		.byte	0x9f
 7824 07d0 4A000000 		.4byte	.LVL152
 7825 07d4 52000000 		.4byte	.LVL154
 7826 07d8 2600     		.2byte	0x26
 7827 07da 91       		.byte	0x91
 7828 07db 68       		.sleb128 -24
 7829 07dc 94       		.byte	0x94
 7830 07dd 01       		.byte	0x1
 7831 07de 08       		.byte	0x8
 7832 07df FF       		.byte	0xff
 7833 07e0 1A       		.byte	0x1a
 7834 07e1 48       		.byte	0x48
 7835 07e2 24       		.byte	0x24
 7836 07e3 91       		.byte	0x91
 7837 07e4 69       		.sleb128 -23
 7838 07e5 94       		.byte	0x94
 7839 07e6 01       		.byte	0x1
 7840 07e7 08       		.byte	0x8
 7841 07e8 FF       		.byte	0xff
 7842 07e9 1A       		.byte	0x1a
 7843 07ea 40       		.byte	0x40
 7844 07eb 24       		.byte	0x24
 7845 07ec 21       		.byte	0x21
 7846 07ed 91       		.byte	0x91
 7847 07ee 6A       		.sleb128 -22
 7848 07ef 94       		.byte	0x94
 7849 07f0 01       		.byte	0x1
 7850 07f1 08       		.byte	0x8
 7851 07f2 FF       		.byte	0xff
 7852 07f3 1A       		.byte	0x1a
 7853 07f4 38       		.byte	0x38
 7854 07f5 24       		.byte	0x24
 7855 07f6 21       		.byte	0x21
 7856 07f7 91       		.byte	0x91
 7857 07f8 6B       		.sleb128 -21
 7858 07f9 94       		.byte	0x94
 7859 07fa 01       		.byte	0x1
 7860 07fb 08       		.byte	0x8
 7861 07fc FF       		.byte	0xff
 7862 07fd 1A       		.byte	0x1a
 7863 07fe 21       		.byte	0x21
 7864 07ff 9F       		.byte	0x9f
 7865 0800 00000000 		.4byte	0
ARM GAS  C:\Users\Administrator\AppData\Local\Temp\ccPIvPLo.s 			page 161


 7866 0804 00000000 		.4byte	0
 7867              	.LLST51:
 7868 0808 00000000 		.4byte	.LVL158
 7869 080c 07000000 		.4byte	.LVL159-1
 7870 0810 0100     		.2byte	0x1
 7871 0812 50       		.byte	0x50
 7872 0813 07000000 		.4byte	.LVL159-1
 7873 0817 54000000 		.4byte	.LVL172
 7874 081b 0100     		.2byte	0x1
 7875 081d 55       		.byte	0x55
 7876 081e 54000000 		.4byte	.LVL172
 7877 0822 64000000 		.4byte	.LFE92
 7878 0826 0400     		.2byte	0x4
 7879 0828 F3       		.byte	0xf3
 7880 0829 01       		.uleb128 0x1
 7881 082a 50       		.byte	0x50
 7882 082b 9F       		.byte	0x9f
 7883 082c 00000000 		.4byte	0
 7884 0830 00000000 		.4byte	0
 7885              	.LLST52:
 7886 0834 1A000000 		.4byte	.LVL161
 7887 0838 2C000000 		.4byte	.LVL164
 7888 083c 0100     		.2byte	0x1
 7889 083e 54       		.byte	0x54
 7890 083f 2E000000 		.4byte	.LVL165
 7891 0843 42000000 		.4byte	.LVL169
 7892 0847 0100     		.2byte	0x1
 7893 0849 54       		.byte	0x54
 7894 084a 44000000 		.4byte	.LVL170
 7895 084e 52000000 		.4byte	.LVL171
 7896 0852 0100     		.2byte	0x1
 7897 0854 54       		.byte	0x54
 7898 0855 00000000 		.4byte	0
 7899 0859 00000000 		.4byte	0
 7900              	.LLST53:
 7901 085d 0A000000 		.4byte	.LVL160
 7902 0861 54000000 		.4byte	.LVL173
 7903 0865 0100     		.2byte	0x1
 7904 0867 56       		.byte	0x56
 7905 0868 00000000 		.4byte	0
 7906 086c 00000000 		.4byte	0
 7907              	.LLST54:
 7908 0870 26000000 		.4byte	.LVL163
 7909 0874 30000000 		.4byte	.LVL166
 7910 0878 2600     		.2byte	0x26
 7911 087a 91       		.byte	0x91
 7912 087b 68       		.sleb128 -24
 7913 087c 94       		.byte	0x94
 7914 087d 01       		.byte	0x1
 7915 087e 08       		.byte	0x8
 7916 087f FF       		.byte	0xff
 7917 0880 1A       		.byte	0x1a
 7918 0881 48       		.byte	0x48
 7919 0882 24       		.byte	0x24
 7920 0883 91       		.byte	0x91
 7921 0884 69       		.sleb128 -23
 7922 0885 94       		.byte	0x94
ARM GAS  C:\Users\Administrator\AppData\Local\Temp\ccPIvPLo.s 			page 162


 7923 0886 01       		.byte	0x1
 7924 0887 08       		.byte	0x8
 7925 0888 FF       		.byte	0xff
 7926 0889 1A       		.byte	0x1a
 7927 088a 40       		.byte	0x40
 7928 088b 24       		.byte	0x24
 7929 088c 21       		.byte	0x21
 7930 088d 91       		.byte	0x91
 7931 088e 6A       		.sleb128 -22
 7932 088f 94       		.byte	0x94
 7933 0890 01       		.byte	0x1
 7934 0891 08       		.byte	0x8
 7935 0892 FF       		.byte	0xff
 7936 0893 1A       		.byte	0x1a
 7937 0894 38       		.byte	0x38
 7938 0895 24       		.byte	0x24
 7939 0896 21       		.byte	0x21
 7940 0897 91       		.byte	0x91
 7941 0898 6B       		.sleb128 -21
 7942 0899 94       		.byte	0x94
 7943 089a 01       		.byte	0x1
 7944 089b 08       		.byte	0x8
 7945 089c FF       		.byte	0xff
 7946 089d 1A       		.byte	0x1a
 7947 089e 21       		.byte	0x21
 7948 089f 9F       		.byte	0x9f
 7949 08a0 3C000000 		.4byte	.LVL168
 7950 08a4 44000000 		.4byte	.LVL170
 7951 08a8 2600     		.2byte	0x26
 7952 08aa 91       		.byte	0x91
 7953 08ab 68       		.sleb128 -24
 7954 08ac 94       		.byte	0x94
 7955 08ad 01       		.byte	0x1
 7956 08ae 08       		.byte	0x8
 7957 08af FF       		.byte	0xff
 7958 08b0 1A       		.byte	0x1a
 7959 08b1 48       		.byte	0x48
 7960 08b2 24       		.byte	0x24
 7961 08b3 91       		.byte	0x91
 7962 08b4 69       		.sleb128 -23
 7963 08b5 94       		.byte	0x94
 7964 08b6 01       		.byte	0x1
 7965 08b7 08       		.byte	0x8
 7966 08b8 FF       		.byte	0xff
 7967 08b9 1A       		.byte	0x1a
 7968 08ba 40       		.byte	0x40
 7969 08bb 24       		.byte	0x24
 7970 08bc 21       		.byte	0x21
 7971 08bd 91       		.byte	0x91
 7972 08be 6A       		.sleb128 -22
 7973 08bf 94       		.byte	0x94
 7974 08c0 01       		.byte	0x1
 7975 08c1 08       		.byte	0x8
 7976 08c2 FF       		.byte	0xff
 7977 08c3 1A       		.byte	0x1a
 7978 08c4 38       		.byte	0x38
 7979 08c5 24       		.byte	0x24
ARM GAS  C:\Users\Administrator\AppData\Local\Temp\ccPIvPLo.s 			page 163


 7980 08c6 21       		.byte	0x21
 7981 08c7 91       		.byte	0x91
 7982 08c8 6B       		.sleb128 -21
 7983 08c9 94       		.byte	0x94
 7984 08ca 01       		.byte	0x1
 7985 08cb 08       		.byte	0x8
 7986 08cc FF       		.byte	0xff
 7987 08cd 1A       		.byte	0x1a
 7988 08ce 21       		.byte	0x21
 7989 08cf 9F       		.byte	0x9f
 7990 08d0 00000000 		.4byte	0
 7991 08d4 00000000 		.4byte	0
 7992              	.LLST55:
 7993 08d8 00000000 		.4byte	.LVL174
 7994 08dc 09000000 		.4byte	.LVL175-1
 7995 08e0 0100     		.2byte	0x1
 7996 08e2 50       		.byte	0x50
 7997 08e3 09000000 		.4byte	.LVL175-1
 7998 08e7 0E000000 		.4byte	.LVL177
 7999 08eb 0100     		.2byte	0x1
 8000 08ed 55       		.byte	0x55
 8001 08ee 0E000000 		.4byte	.LVL177
 8002 08f2 12000000 		.4byte	.LVL178
 8003 08f6 0400     		.2byte	0x4
 8004 08f8 F3       		.byte	0xf3
 8005 08f9 01       		.uleb128 0x1
 8006 08fa 50       		.byte	0x50
 8007 08fb 9F       		.byte	0x9f
 8008 08fc 12000000 		.4byte	.LVL178
 8009 0900 1A000000 		.4byte	.LVL181
 8010 0904 0100     		.2byte	0x1
 8011 0906 55       		.byte	0x55
 8012 0907 1A000000 		.4byte	.LVL181
 8013 090b 3C000000 		.4byte	.LFE93
 8014 090f 0400     		.2byte	0x4
 8015 0911 F3       		.byte	0xf3
 8016 0912 01       		.uleb128 0x1
 8017 0913 50       		.byte	0x50
 8018 0914 9F       		.byte	0x9f
 8019 0915 00000000 		.4byte	0
 8020 0919 00000000 		.4byte	0
 8021              	.LLST56:
 8022 091d 00000000 		.4byte	.LVL174
 8023 0921 09000000 		.4byte	.LVL175-1
 8024 0925 0100     		.2byte	0x1
 8025 0927 51       		.byte	0x51
 8026 0928 09000000 		.4byte	.LVL175-1
 8027 092c 34000000 		.4byte	.LVL187
 8028 0930 0100     		.2byte	0x1
 8029 0932 56       		.byte	0x56
 8030 0933 34000000 		.4byte	.LVL187
 8031 0937 3C000000 		.4byte	.LFE93
 8032 093b 0400     		.2byte	0x4
 8033 093d F3       		.byte	0xf3
 8034 093e 01       		.uleb128 0x1
 8035 093f 51       		.byte	0x51
 8036 0940 9F       		.byte	0x9f
ARM GAS  C:\Users\Administrator\AppData\Local\Temp\ccPIvPLo.s 			page 164


 8037 0941 00000000 		.4byte	0
 8038 0945 00000000 		.4byte	0
 8039              	.LLST57:
 8040 0949 1A000000 		.4byte	.LVL181
 8041 094d 34000000 		.4byte	.LVL186
 8042 0951 0100     		.2byte	0x1
 8043 0953 55       		.byte	0x55
 8044 0954 00000000 		.4byte	0
 8045 0958 00000000 		.4byte	0
 8046              	.LLST58:
 8047 095c 20000000 		.4byte	.LVL182
 8048 0960 2C000000 		.4byte	.LVL183
 8049 0964 0100     		.2byte	0x1
 8050 0966 50       		.byte	0x50
 8051 0967 2E000000 		.4byte	.LVL184
 8052 096b 30000000 		.4byte	.LVL185
 8053 096f 0100     		.2byte	0x1
 8054 0971 50       		.byte	0x50
 8055 0972 00000000 		.4byte	0
 8056 0976 00000000 		.4byte	0
 8057              	.LLST59:
 8058 097a 0C000000 		.4byte	.LVL176
 8059 097e 0E000000 		.4byte	.LVL177
 8060 0982 0100     		.2byte	0x1
 8061 0984 50       		.byte	0x50
 8062 0985 12000000 		.4byte	.LVL178
 8063 0989 14000000 		.4byte	.LVL179
 8064 098d 0100     		.2byte	0x1
 8065 098f 50       		.byte	0x50
 8066 0990 00000000 		.4byte	0
 8067 0994 00000000 		.4byte	0
 8068              	.LLST60:
 8069 0998 00000000 		.4byte	.LVL188
 8070 099c 12000000 		.4byte	.LVL189
 8071 09a0 0100     		.2byte	0x1
 8072 09a2 50       		.byte	0x50
 8073 09a3 12000000 		.4byte	.LVL189
 8074 09a7 30000000 		.4byte	.LFE94
 8075 09ab 0400     		.2byte	0x4
 8076 09ad F3       		.byte	0xf3
 8077 09ae 01       		.uleb128 0x1
 8078 09af 50       		.byte	0x50
 8079 09b0 9F       		.byte	0x9f
 8080 09b1 00000000 		.4byte	0
 8081 09b5 00000000 		.4byte	0
 8082              	.LLST61:
 8083 09b9 00000000 		.4byte	.LVL188
 8084 09bd 12000000 		.4byte	.LVL189
 8085 09c1 0100     		.2byte	0x1
 8086 09c3 51       		.byte	0x51
 8087 09c4 12000000 		.4byte	.LVL189
 8088 09c8 30000000 		.4byte	.LFE94
 8089 09cc 0400     		.2byte	0x4
 8090 09ce F3       		.byte	0xf3
 8091 09cf 01       		.uleb128 0x1
 8092 09d0 51       		.byte	0x51
 8093 09d1 9F       		.byte	0x9f
ARM GAS  C:\Users\Administrator\AppData\Local\Temp\ccPIvPLo.s 			page 165


 8094 09d2 00000000 		.4byte	0
 8095 09d6 00000000 		.4byte	0
 8096              	.LLST62:
 8097 09da 00000000 		.4byte	.LVL188
 8098 09de 12000000 		.4byte	.LVL189
 8099 09e2 0100     		.2byte	0x1
 8100 09e4 52       		.byte	0x52
 8101 09e5 12000000 		.4byte	.LVL189
 8102 09e9 2E000000 		.4byte	.LVL197
 8103 09ed 0100     		.2byte	0x1
 8104 09ef 57       		.byte	0x57
 8105 09f0 2E000000 		.4byte	.LVL197
 8106 09f4 30000000 		.4byte	.LFE94
 8107 09f8 0400     		.2byte	0x4
 8108 09fa F3       		.byte	0xf3
 8109 09fb 01       		.uleb128 0x1
 8110 09fc 52       		.byte	0x52
 8111 09fd 9F       		.byte	0x9f
 8112 09fe 00000000 		.4byte	0
 8113 0a02 00000000 		.4byte	0
 8114              	.LLST63:
 8115 0a06 00000000 		.4byte	.LVL188
 8116 0a0a 12000000 		.4byte	.LVL189
 8117 0a0e 0100     		.2byte	0x1
 8118 0a10 50       		.byte	0x50
 8119 0a11 1C000000 		.4byte	.LVL190
 8120 0a15 26000000 		.4byte	.LVL192
 8121 0a19 0100     		.2byte	0x1
 8122 0a1b 54       		.byte	0x54
 8123 0a1c 2C000000 		.4byte	.LVL194
 8124 0a20 2E000000 		.4byte	.LVL196
 8125 0a24 0100     		.2byte	0x1
 8126 0a26 54       		.byte	0x54
 8127 0a27 00000000 		.4byte	0
 8128 0a2b 00000000 		.4byte	0
 8129              	.LLST64:
 8130 0a2f 00000000 		.4byte	.LVL188
 8131 0a33 12000000 		.4byte	.LVL189
 8132 0a37 0200     		.2byte	0x2
 8133 0a39 30       		.byte	0x30
 8134 0a3a 9F       		.byte	0x9f
 8135 0a3b 1C000000 		.4byte	.LVL190
 8136 0a3f 24000000 		.4byte	.LVL191
 8137 0a43 0100     		.2byte	0x1
 8138 0a45 51       		.byte	0x51
 8139 0a46 24000000 		.4byte	.LVL191
 8140 0a4a 29000000 		.4byte	.LVL193-1
 8141 0a4e 0900     		.2byte	0x9
 8142 0a50 70       		.byte	0x70
 8143 0a51 00       		.sleb128 0
 8144 0a52 91       		.byte	0x91
 8145 0a53 64       		.sleb128 -28
 8146 0a54 06       		.byte	0x6
 8147 0a55 22       		.byte	0x22
 8148 0a56 34       		.byte	0x34
 8149 0a57 24       		.byte	0x24
 8150 0a58 9F       		.byte	0x9f
ARM GAS  C:\Users\Administrator\AppData\Local\Temp\ccPIvPLo.s 			page 166


 8151 0a59 29000000 		.4byte	.LVL193-1
 8152 0a5d 2A000000 		.4byte	.LVL193
 8153 0a61 0B00     		.2byte	0xb
 8154 0a63 74       		.byte	0x74
 8155 0a64 00       		.sleb128 0
 8156 0a65 91       		.byte	0x91
 8157 0a66 64       		.sleb128 -28
 8158 0a67 06       		.byte	0x6
 8159 0a68 22       		.byte	0x22
 8160 0a69 31       		.byte	0x31
 8161 0a6a 1C       		.byte	0x1c
 8162 0a6b 34       		.byte	0x34
 8163 0a6c 24       		.byte	0x24
 8164 0a6d 9F       		.byte	0x9f
 8165 0a6e 2E000000 		.4byte	.LVL195
 8166 0a72 30000000 		.4byte	.LFE94
 8167 0a76 0100     		.2byte	0x1
 8168 0a78 51       		.byte	0x51
 8169 0a79 00000000 		.4byte	0
 8170 0a7d 00000000 		.4byte	0
 8171              	.LLST65:
 8172 0a81 00000000 		.4byte	.LVL198
 8173 0a85 0E000000 		.4byte	.LVL200
 8174 0a89 0100     		.2byte	0x1
 8175 0a8b 50       		.byte	0x50
 8176 0a8c 0E000000 		.4byte	.LVL200
 8177 0a90 3A000000 		.4byte	.LVL206
 8178 0a94 0100     		.2byte	0x1
 8179 0a96 54       		.byte	0x54
 8180 0a97 3A000000 		.4byte	.LVL206
 8181 0a9b F4010000 		.4byte	.LFE95
 8182 0a9f 0400     		.2byte	0x4
 8183 0aa1 F3       		.byte	0xf3
 8184 0aa2 01       		.uleb128 0x1
 8185 0aa3 50       		.byte	0x50
 8186 0aa4 9F       		.byte	0x9f
 8187 0aa5 00000000 		.4byte	0
 8188 0aa9 00000000 		.4byte	0
 8189              	.LLST66:
 8190 0aad 00000000 		.4byte	.LVL198
 8191 0ab1 0C000000 		.4byte	.LVL199
 8192 0ab5 0100     		.2byte	0x1
 8193 0ab7 51       		.byte	0x51
 8194 0ab8 0C000000 		.4byte	.LVL199
 8195 0abc F4010000 		.4byte	.LFE95
 8196 0ac0 0300     		.2byte	0x3
 8197 0ac2 91       		.byte	0x91
 8198 0ac3 BC7F     		.sleb128 -68
 8199 0ac5 00000000 		.4byte	0
 8200 0ac9 00000000 		.4byte	0
 8201              	.LLST67:
 8202 0acd 3A000000 		.4byte	.LVL206
 8203 0ad1 3F000000 		.4byte	.LVL207-1
 8204 0ad5 0100     		.2byte	0x1
 8205 0ad7 50       		.byte	0x50
 8206 0ad8 44000000 		.4byte	.LVL208
 8207 0adc 08010000 		.4byte	.LVL228
ARM GAS  C:\Users\Administrator\AppData\Local\Temp\ccPIvPLo.s 			page 167


 8208 0ae0 0100     		.2byte	0x1
 8209 0ae2 57       		.byte	0x57
 8210 0ae3 08010000 		.4byte	.LVL228
 8211 0ae7 0F010000 		.4byte	.LVL230-1
 8212 0aeb 0100     		.2byte	0x1
 8213 0aed 50       		.byte	0x50
 8214 0aee 1C010000 		.4byte	.LVL231
 8215 0af2 C4010000 		.4byte	.LVL246
 8216 0af6 0300     		.2byte	0x3
 8217 0af8 91       		.byte	0x91
 8218 0af9 A87F     		.sleb128 -88
 8219 0afb C4010000 		.4byte	.LVL246
 8220 0aff CE010000 		.4byte	.LVL247
 8221 0b03 0100     		.2byte	0x1
 8222 0b05 50       		.byte	0x50
 8223 0b06 CE010000 		.4byte	.LVL247
 8224 0b0a E2010000 		.4byte	.LVL250
 8225 0b0e 0300     		.2byte	0x3
 8226 0b10 91       		.byte	0x91
 8227 0b11 A87F     		.sleb128 -88
 8228 0b13 00000000 		.4byte	0
 8229 0b17 00000000 		.4byte	0
 8230              	.LLST68:
 8231 0b1b 30000000 		.4byte	.LVL204
 8232 0b1f 32000000 		.4byte	.LVL205
 8233 0b23 0100     		.2byte	0x1
 8234 0b25 50       		.byte	0x50
 8235 0b26 00000000 		.4byte	0
 8236 0b2a 00000000 		.4byte	0
 8237              	.LLST69:
 8238 0b2e 88000000 		.4byte	.LVL216
 8239 0b32 8C000000 		.4byte	.LVL217
 8240 0b36 0900     		.2byte	0x9
 8241 0b38 93       		.byte	0x93
 8242 0b39 08       		.uleb128 0x8
 8243 0b3a 91       		.byte	0x91
 8244 0b3b A87F     		.sleb128 -88
 8245 0b3d 93       		.byte	0x93
 8246 0b3e 01       		.uleb128 0x1
 8247 0b3f 93       		.byte	0x93
 8248 0b40 07       		.uleb128 0x7
 8249 0b41 8C000000 		.4byte	.LVL217
 8250 0b45 90000000 		.4byte	.LVL218
 8251 0b49 0E00     		.2byte	0xe
 8252 0b4b 93       		.byte	0x93
 8253 0b4c 08       		.uleb128 0x8
 8254 0b4d 91       		.byte	0x91
 8255 0b4e A87F     		.sleb128 -88
 8256 0b50 93       		.byte	0x93
 8257 0b51 01       		.uleb128 0x1
 8258 0b52 91       		.byte	0x91
 8259 0b53 AC7F     		.sleb128 -84
 8260 0b55 93       		.byte	0x93
 8261 0b56 01       		.uleb128 0x1
 8262 0b57 93       		.byte	0x93
 8263 0b58 06       		.uleb128 0x6
 8264 0b59 90000000 		.4byte	.LVL218
ARM GAS  C:\Users\Administrator\AppData\Local\Temp\ccPIvPLo.s 			page 168


 8265 0b5d 94000000 		.4byte	.LVL219
 8266 0b61 1300     		.2byte	0x13
 8267 0b63 93       		.byte	0x93
 8268 0b64 08       		.uleb128 0x8
 8269 0b65 91       		.byte	0x91
 8270 0b66 A87F     		.sleb128 -88
 8271 0b68 93       		.byte	0x93
 8272 0b69 01       		.uleb128 0x1
 8273 0b6a 91       		.byte	0x91
 8274 0b6b AC7F     		.sleb128 -84
 8275 0b6d 93       		.byte	0x93
 8276 0b6e 01       		.uleb128 0x1
 8277 0b6f 91       		.byte	0x91
 8278 0b70 B07F     		.sleb128 -80
 8279 0b72 93       		.byte	0x93
 8280 0b73 01       		.uleb128 0x1
 8281 0b74 93       		.byte	0x93
 8282 0b75 05       		.uleb128 0x5
 8283 0b76 94000000 		.4byte	.LVL219
 8284 0b7a 0A010000 		.4byte	.LVL229
 8285 0b7e 1800     		.2byte	0x18
 8286 0b80 93       		.byte	0x93
 8287 0b81 08       		.uleb128 0x8
 8288 0b82 91       		.byte	0x91
 8289 0b83 A87F     		.sleb128 -88
 8290 0b85 93       		.byte	0x93
 8291 0b86 01       		.uleb128 0x1
 8292 0b87 91       		.byte	0x91
 8293 0b88 AC7F     		.sleb128 -84
 8294 0b8a 93       		.byte	0x93
 8295 0b8b 01       		.uleb128 0x1
 8296 0b8c 91       		.byte	0x91
 8297 0b8d B07F     		.sleb128 -80
 8298 0b8f 93       		.byte	0x93
 8299 0b90 01       		.uleb128 0x1
 8300 0b91 91       		.byte	0x91
 8301 0b92 B47F     		.sleb128 -76
 8302 0b94 93       		.byte	0x93
 8303 0b95 01       		.uleb128 0x1
 8304 0b96 93       		.byte	0x93
 8305 0b97 04       		.uleb128 0x4
 8306 0b98 4C010000 		.4byte	.LVL237
 8307 0b9c 50010000 		.4byte	.LVL238
 8308 0ba0 0900     		.2byte	0x9
 8309 0ba2 93       		.byte	0x93
 8310 0ba3 08       		.uleb128 0x8
 8311 0ba4 91       		.byte	0x91
 8312 0ba5 B87F     		.sleb128 -72
 8313 0ba7 93       		.byte	0x93
 8314 0ba8 01       		.uleb128 0x1
 8315 0ba9 93       		.byte	0x93
 8316 0baa 07       		.uleb128 0x7
 8317 0bab 50010000 		.4byte	.LVL238
 8318 0baf 54010000 		.4byte	.LVL239
 8319 0bb3 0E00     		.2byte	0xe
 8320 0bb5 93       		.byte	0x93
 8321 0bb6 08       		.uleb128 0x8
ARM GAS  C:\Users\Administrator\AppData\Local\Temp\ccPIvPLo.s 			page 169


 8322 0bb7 91       		.byte	0x91
 8323 0bb8 B87F     		.sleb128 -72
 8324 0bba 93       		.byte	0x93
 8325 0bbb 01       		.uleb128 0x1
 8326 0bbc 91       		.byte	0x91
 8327 0bbd B47F     		.sleb128 -76
 8328 0bbf 93       		.byte	0x93
 8329 0bc0 01       		.uleb128 0x1
 8330 0bc1 93       		.byte	0x93
 8331 0bc2 06       		.uleb128 0x6
 8332 0bc3 54010000 		.4byte	.LVL239
 8333 0bc7 58010000 		.4byte	.LVL240
 8334 0bcb 1300     		.2byte	0x13
 8335 0bcd 93       		.byte	0x93
 8336 0bce 08       		.uleb128 0x8
 8337 0bcf 91       		.byte	0x91
 8338 0bd0 B87F     		.sleb128 -72
 8339 0bd2 93       		.byte	0x93
 8340 0bd3 01       		.uleb128 0x1
 8341 0bd4 91       		.byte	0x91
 8342 0bd5 B47F     		.sleb128 -76
 8343 0bd7 93       		.byte	0x93
 8344 0bd8 01       		.uleb128 0x1
 8345 0bd9 91       		.byte	0x91
 8346 0bda B07F     		.sleb128 -80
 8347 0bdc 93       		.byte	0x93
 8348 0bdd 01       		.uleb128 0x1
 8349 0bde 93       		.byte	0x93
 8350 0bdf 05       		.uleb128 0x5
 8351 0be0 58010000 		.4byte	.LVL240
 8352 0be4 C4010000 		.4byte	.LVL246
 8353 0be8 1800     		.2byte	0x18
 8354 0bea 93       		.byte	0x93
 8355 0beb 08       		.uleb128 0x8
 8356 0bec 91       		.byte	0x91
 8357 0bed B87F     		.sleb128 -72
 8358 0bef 93       		.byte	0x93
 8359 0bf0 01       		.uleb128 0x1
 8360 0bf1 91       		.byte	0x91
 8361 0bf2 B47F     		.sleb128 -76
 8362 0bf4 93       		.byte	0x93
 8363 0bf5 01       		.uleb128 0x1
 8364 0bf6 91       		.byte	0x91
 8365 0bf7 B07F     		.sleb128 -80
 8366 0bf9 93       		.byte	0x93
 8367 0bfa 01       		.uleb128 0x1
 8368 0bfb 91       		.byte	0x91
 8369 0bfc AC7F     		.sleb128 -84
 8370 0bfe 93       		.byte	0x93
 8371 0bff 01       		.uleb128 0x1
 8372 0c00 93       		.byte	0x93
 8373 0c01 04       		.uleb128 0x4
 8374 0c02 DA010000 		.4byte	.LVL248
 8375 0c06 E2010000 		.4byte	.LVL250
 8376 0c0a 1800     		.2byte	0x18
 8377 0c0c 93       		.byte	0x93
 8378 0c0d 08       		.uleb128 0x8
ARM GAS  C:\Users\Administrator\AppData\Local\Temp\ccPIvPLo.s 			page 170


 8379 0c0e 91       		.byte	0x91
 8380 0c0f B87F     		.sleb128 -72
 8381 0c11 93       		.byte	0x93
 8382 0c12 01       		.uleb128 0x1
 8383 0c13 91       		.byte	0x91
 8384 0c14 B47F     		.sleb128 -76
 8385 0c16 93       		.byte	0x93
 8386 0c17 01       		.uleb128 0x1
 8387 0c18 91       		.byte	0x91
 8388 0c19 B07F     		.sleb128 -80
 8389 0c1b 93       		.byte	0x93
 8390 0c1c 01       		.uleb128 0x1
 8391 0c1d 91       		.byte	0x91
 8392 0c1e AC7F     		.sleb128 -84
 8393 0c20 93       		.byte	0x93
 8394 0c21 01       		.uleb128 0x1
 8395 0c22 93       		.byte	0x93
 8396 0c23 04       		.uleb128 0x4
 8397 0c24 00000000 		.4byte	0
 8398 0c28 00000000 		.4byte	0
 8399              	.LLST70:
 8400 0c2c 28000000 		.4byte	.LVL202
 8401 0c30 2B000000 		.4byte	.LVL203-1
 8402 0c34 0100     		.2byte	0x1
 8403 0c36 53       		.byte	0x53
 8404 0c37 2B000000 		.4byte	.LVL203-1
 8405 0c3b F4010000 		.4byte	.LFE95
 8406 0c3f 0300     		.2byte	0x3
 8407 0c41 91       		.byte	0x91
 8408 0c42 A47F     		.sleb128 -92
 8409 0c44 00000000 		.4byte	0
 8410 0c48 00000000 		.4byte	0
 8411              	.LLST71:
 8412 0c4c A8000000 		.4byte	.LVL220
 8413 0c50 B7000000 		.4byte	.LVL221-1
 8414 0c54 0100     		.2byte	0x1
 8415 0c56 53       		.byte	0x53
 8416 0c57 B7000000 		.4byte	.LVL221-1
 8417 0c5b FC000000 		.4byte	.LVL225
 8418 0c5f 1A00     		.2byte	0x1a
 8419 0c61 91       		.byte	0x91
 8420 0c62 AC7F     		.sleb128 -84
 8421 0c64 06       		.byte	0x6
 8422 0c65 40       		.byte	0x40
 8423 0c66 24       		.byte	0x24
 8424 0c67 91       		.byte	0x91
 8425 0c68 A87F     		.sleb128 -88
 8426 0c6a 06       		.byte	0x6
 8427 0c6b 48       		.byte	0x48
 8428 0c6c 24       		.byte	0x24
 8429 0c6d 21       		.byte	0x21
 8430 0c6e 91       		.byte	0x91
 8431 0c6f B07F     		.sleb128 -80
 8432 0c71 06       		.byte	0x6
 8433 0c72 38       		.byte	0x38
 8434 0c73 24       		.byte	0x24
 8435 0c74 21       		.byte	0x21
ARM GAS  C:\Users\Administrator\AppData\Local\Temp\ccPIvPLo.s 			page 171


 8436 0c75 91       		.byte	0x91
 8437 0c76 B47F     		.sleb128 -76
 8438 0c78 06       		.byte	0x6
 8439 0c79 21       		.byte	0x21
 8440 0c7a 9F       		.byte	0x9f
 8441 0c7b FC000000 		.4byte	.LVL225
 8442 0c7f 00010000 		.4byte	.LVL226
 8443 0c83 0100     		.2byte	0x1
 8444 0c85 53       		.byte	0x53
 8445 0c86 00010000 		.4byte	.LVL226
 8446 0c8a 04010000 		.4byte	.LVL227
 8447 0c8e 0300     		.2byte	0x3
 8448 0c90 73       		.byte	0x73
 8449 0c91 62       		.sleb128 -30
 8450 0c92 9F       		.byte	0x9f
 8451 0c93 04010000 		.4byte	.LVL227
 8452 0c97 0A010000 		.4byte	.LVL229
 8453 0c9b 1A00     		.2byte	0x1a
 8454 0c9d 91       		.byte	0x91
 8455 0c9e AC7F     		.sleb128 -84
 8456 0ca0 06       		.byte	0x6
 8457 0ca1 40       		.byte	0x40
 8458 0ca2 24       		.byte	0x24
 8459 0ca3 91       		.byte	0x91
 8460 0ca4 A87F     		.sleb128 -88
 8461 0ca6 06       		.byte	0x6
 8462 0ca7 48       		.byte	0x48
 8463 0ca8 24       		.byte	0x24
 8464 0ca9 21       		.byte	0x21
 8465 0caa 91       		.byte	0x91
 8466 0cab B07F     		.sleb128 -80
 8467 0cad 06       		.byte	0x6
 8468 0cae 38       		.byte	0x38
 8469 0caf 24       		.byte	0x24
 8470 0cb0 21       		.byte	0x21
 8471 0cb1 91       		.byte	0x91
 8472 0cb2 B47F     		.sleb128 -76
 8473 0cb4 06       		.byte	0x6
 8474 0cb5 21       		.byte	0x21
 8475 0cb6 9F       		.byte	0x9f
 8476 0cb7 6C010000 		.4byte	.LVL241
 8477 0cbb 7B010000 		.4byte	.LVL242-1
 8478 0cbf 0100     		.2byte	0x1
 8479 0cc1 53       		.byte	0x53
 8480 0cc2 7B010000 		.4byte	.LVL242-1
 8481 0cc6 C4010000 		.4byte	.LVL246
 8482 0cca 1A00     		.2byte	0x1a
 8483 0ccc 91       		.byte	0x91
 8484 0ccd B47F     		.sleb128 -76
 8485 0ccf 06       		.byte	0x6
 8486 0cd0 40       		.byte	0x40
 8487 0cd1 24       		.byte	0x24
 8488 0cd2 91       		.byte	0x91
 8489 0cd3 B87F     		.sleb128 -72
 8490 0cd5 06       		.byte	0x6
 8491 0cd6 48       		.byte	0x48
 8492 0cd7 24       		.byte	0x24
ARM GAS  C:\Users\Administrator\AppData\Local\Temp\ccPIvPLo.s 			page 172


 8493 0cd8 21       		.byte	0x21
 8494 0cd9 91       		.byte	0x91
 8495 0cda B07F     		.sleb128 -80
 8496 0cdc 06       		.byte	0x6
 8497 0cdd 38       		.byte	0x38
 8498 0cde 24       		.byte	0x24
 8499 0cdf 21       		.byte	0x21
 8500 0ce0 91       		.byte	0x91
 8501 0ce1 AC7F     		.sleb128 -84
 8502 0ce3 06       		.byte	0x6
 8503 0ce4 21       		.byte	0x21
 8504 0ce5 9F       		.byte	0x9f
 8505 0ce6 DA010000 		.4byte	.LVL248
 8506 0cea DE010000 		.4byte	.LVL249
 8507 0cee 0100     		.2byte	0x1
 8508 0cf0 53       		.byte	0x53
 8509 0cf1 DE010000 		.4byte	.LVL249
 8510 0cf5 E2010000 		.4byte	.LVL250
 8511 0cf9 0300     		.2byte	0x3
 8512 0cfb 73       		.byte	0x73
 8513 0cfc 62       		.sleb128 -30
 8514 0cfd 9F       		.byte	0x9f
 8515 0cfe 00000000 		.4byte	0
 8516 0d02 00000000 		.4byte	0
 8517              	.LLST72:
 8518 0d06 12000000 		.4byte	.LVL201
 8519 0d0a 3A000000 		.4byte	.LVL206
 8520 0d0e 0200     		.2byte	0x2
 8521 0d10 30       		.byte	0x30
 8522 0d11 9F       		.byte	0x9f
 8523 0d12 46000000 		.4byte	.LVL209
 8524 0d16 54000000 		.4byte	.LVL211
 8525 0d1a 0100     		.2byte	0x1
 8526 0d1c 55       		.byte	0x55
 8527 0d1d 54000000 		.4byte	.LVL211
 8528 0d21 64000000 		.4byte	.LVL212
 8529 0d25 0300     		.2byte	0x3
 8530 0d27 75       		.byte	0x75
 8531 0d28 01       		.sleb128 1
 8532 0d29 9F       		.byte	0x9f
 8533 0d2a 64000000 		.4byte	.LVL212
 8534 0d2e 6E000000 		.4byte	.LVL213
 8535 0d32 0100     		.2byte	0x1
 8536 0d34 55       		.byte	0x55
 8537 0d35 1C010000 		.4byte	.LVL231
 8538 0d39 1F010000 		.4byte	.LVL232-1
 8539 0d3d 0100     		.2byte	0x1
 8540 0d3f 50       		.byte	0x50
 8541 0d40 1F010000 		.4byte	.LVL232-1
 8542 0d44 26010000 		.4byte	.LVL233
 8543 0d48 0100     		.2byte	0x1
 8544 0d4a 55       		.byte	0x55
 8545 0d4b 26010000 		.4byte	.LVL233
 8546 0d4f 32010000 		.4byte	.LVL234
 8547 0d53 0300     		.2byte	0x3
 8548 0d55 75       		.byte	0x75
 8549 0d56 01       		.sleb128 1
ARM GAS  C:\Users\Administrator\AppData\Local\Temp\ccPIvPLo.s 			page 173


 8550 0d57 9F       		.byte	0x9f
 8551 0d58 CE010000 		.4byte	.LVL247
 8552 0d5c DA010000 		.4byte	.LVL248
 8553 0d60 0100     		.2byte	0x1
 8554 0d62 55       		.byte	0x55
 8555 0d63 00000000 		.4byte	0
 8556 0d67 00000000 		.4byte	0
 8557              	.LLST73:
 8558 0d6b 00000000 		.4byte	.LVL251
 8559 0d6f 0E000000 		.4byte	.LVL252
 8560 0d73 0100     		.2byte	0x1
 8561 0d75 50       		.byte	0x50
 8562 0d76 0E000000 		.4byte	.LVL252
 8563 0d7a 11000000 		.4byte	.LVL253-1
 8564 0d7e 0200     		.2byte	0x2
 8565 0d80 70       		.byte	0x70
 8566 0d81 00       		.sleb128 0
 8567 0d82 11000000 		.4byte	.LVL253-1
 8568 0d86 18000000 		.4byte	.LFE96
 8569 0d8a 0200     		.2byte	0x2
 8570 0d8c 7D       		.byte	0x7d
 8571 0d8d 07       		.sleb128 7
 8572 0d8e 00000000 		.4byte	0
 8573 0d92 00000000 		.4byte	0
 8574              	.LLST74:
 8575 0d96 00000000 		.4byte	.LVL255
 8576 0d9a 0E000000 		.4byte	.LVL256
 8577 0d9e 0100     		.2byte	0x1
 8578 0da0 50       		.byte	0x50
 8579 0da1 0E000000 		.4byte	.LVL256
 8580 0da5 11000000 		.4byte	.LVL257-1
 8581 0da9 0200     		.2byte	0x2
 8582 0dab 70       		.byte	0x70
 8583 0dac 00       		.sleb128 0
 8584 0dad 11000000 		.4byte	.LVL257-1
 8585 0db1 18000000 		.4byte	.LFE98
 8586 0db5 0200     		.2byte	0x2
 8587 0db7 7D       		.byte	0x7d
 8588 0db8 07       		.sleb128 7
 8589 0db9 00000000 		.4byte	0
 8590 0dbd 00000000 		.4byte	0
 8591              	.LLST75:
 8592 0dc1 00000000 		.4byte	.LVL259
 8593 0dc5 10000000 		.4byte	.LVL261
 8594 0dc9 0100     		.2byte	0x1
 8595 0dcb 50       		.byte	0x50
 8596 0dcc 10000000 		.4byte	.LVL261
 8597 0dd0 2C000000 		.4byte	.LFE100
 8598 0dd4 0400     		.2byte	0x4
 8599 0dd6 F3       		.byte	0xf3
 8600 0dd7 01       		.uleb128 0x1
 8601 0dd8 50       		.byte	0x50
 8602 0dd9 9F       		.byte	0x9f
 8603 0dda 00000000 		.4byte	0
 8604 0dde 00000000 		.4byte	0
 8605              	.LLST76:
 8606 0de2 00000000 		.4byte	.LVL259
ARM GAS  C:\Users\Administrator\AppData\Local\Temp\ccPIvPLo.s 			page 174


 8607 0de6 0E000000 		.4byte	.LVL260
 8608 0dea 0100     		.2byte	0x1
 8609 0dec 51       		.byte	0x51
 8610 0ded 0E000000 		.4byte	.LVL260
 8611 0df1 2C000000 		.4byte	.LFE100
 8612 0df5 0400     		.2byte	0x4
 8613 0df7 F3       		.byte	0xf3
 8614 0df8 01       		.uleb128 0x1
 8615 0df9 51       		.byte	0x51
 8616 0dfa 9F       		.byte	0x9f
 8617 0dfb 00000000 		.4byte	0
 8618 0dff 00000000 		.4byte	0
 8619              		.section	.debug_aranges,"",%progbits
 8620 0000 6C010000 		.4byte	0x16c
 8621 0004 0200     		.2byte	0x2
 8622 0006 00000000 		.4byte	.Ldebug_info0
 8623 000a 04       		.byte	0x4
 8624 000b 00       		.byte	0
 8625 000c 0000     		.2byte	0
 8626 000e 0000     		.2byte	0
 8627 0010 00000000 		.4byte	.LFB63
 8628 0014 20000000 		.4byte	.LFE63-.LFB63
 8629 0018 00000000 		.4byte	.LFB64
 8630 001c 38000000 		.4byte	.LFE64-.LFB64
 8631 0020 00000000 		.4byte	.LFB65
 8632 0024 22000000 		.4byte	.LFE65-.LFB65
 8633 0028 00000000 		.4byte	.LFB66
 8634 002c 2E000000 		.4byte	.LFE66-.LFB66
 8635 0030 00000000 		.4byte	.LFB67
 8636 0034 12000000 		.4byte	.LFE67-.LFB67
 8637 0038 00000000 		.4byte	.LFB68
 8638 003c 14000000 		.4byte	.LFE68-.LFB68
 8639 0040 00000000 		.4byte	.LFB69
 8640 0044 18000000 		.4byte	.LFE69-.LFB69
 8641 0048 00000000 		.4byte	.LFB70
 8642 004c 26000000 		.4byte	.LFE70-.LFB70
 8643 0050 00000000 		.4byte	.LFB71
 8644 0054 18000000 		.4byte	.LFE71-.LFB71
 8645 0058 00000000 		.4byte	.LFB72
 8646 005c 1A000000 		.4byte	.LFE72-.LFB72
 8647 0060 00000000 		.4byte	.LFB73
 8648 0064 4C000000 		.4byte	.LFE73-.LFB73
 8649 0068 00000000 		.4byte	.LFB74
 8650 006c 18000000 		.4byte	.LFE74-.LFB74
 8651 0070 00000000 		.4byte	.LFB75
 8652 0074 32000000 		.4byte	.LFE75-.LFB75
 8653 0078 00000000 		.4byte	.LFB76
 8654 007c 28000000 		.4byte	.LFE76-.LFB76
 8655 0080 00000000 		.4byte	.LFB77
 8656 0084 30000000 		.4byte	.LFE77-.LFB77
 8657 0088 00000000 		.4byte	.LFB78
 8658 008c 4C000000 		.4byte	.LFE78-.LFB78
 8659 0090 00000000 		.4byte	.LFB79
 8660 0094 46000000 		.4byte	.LFE79-.LFB79
 8661 0098 00000000 		.4byte	.LFB80
 8662 009c 2E000000 		.4byte	.LFE80-.LFB80
 8663 00a0 00000000 		.4byte	.LFB81
ARM GAS  C:\Users\Administrator\AppData\Local\Temp\ccPIvPLo.s 			page 175


 8664 00a4 08000000 		.4byte	.LFE81-.LFB81
 8665 00a8 00000000 		.4byte	.LFB82
 8666 00ac 4C000000 		.4byte	.LFE82-.LFB82
 8667 00b0 00000000 		.4byte	.LFB83
 8668 00b4 44000000 		.4byte	.LFE83-.LFB83
 8669 00b8 00000000 		.4byte	.LFB84
 8670 00bc 28000000 		.4byte	.LFE84-.LFB84
 8671 00c0 00000000 		.4byte	.LFB85
 8672 00c4 24000000 		.4byte	.LFE85-.LFB85
 8673 00c8 00000000 		.4byte	.LFB86
 8674 00cc 28000000 		.4byte	.LFE86-.LFB86
 8675 00d0 00000000 		.4byte	.LFB87
 8676 00d4 18000000 		.4byte	.LFE87-.LFB87
 8677 00d8 00000000 		.4byte	.LFB88
 8678 00dc 1A000000 		.4byte	.LFE88-.LFB88
 8679 00e0 00000000 		.4byte	.LFB89
 8680 00e4 6C000000 		.4byte	.LFE89-.LFB89
 8681 00e8 00000000 		.4byte	.LFB90
 8682 00ec 64000000 		.4byte	.LFE90-.LFB90
 8683 00f0 00000000 		.4byte	.LFB91
 8684 00f4 64000000 		.4byte	.LFE91-.LFB91
 8685 00f8 00000000 		.4byte	.LFB92
 8686 00fc 64000000 		.4byte	.LFE92-.LFB92
 8687 0100 00000000 		.4byte	.LFB93
 8688 0104 3C000000 		.4byte	.LFE93-.LFB93
 8689 0108 00000000 		.4byte	.LFB94
 8690 010c 30000000 		.4byte	.LFE94-.LFB94
 8691 0110 00000000 		.4byte	.LFB95
 8692 0114 F4010000 		.4byte	.LFE95-.LFB95
 8693 0118 00000000 		.4byte	.LFB96
 8694 011c 18000000 		.4byte	.LFE96-.LFB96
 8695 0120 00000000 		.4byte	.LFB97
 8696 0124 18000000 		.4byte	.LFE97-.LFB97
 8697 0128 00000000 		.4byte	.LFB98
 8698 012c 18000000 		.4byte	.LFE98-.LFB98
 8699 0130 00000000 		.4byte	.LFB99
 8700 0134 18000000 		.4byte	.LFE99-.LFB99
 8701 0138 00000000 		.4byte	.LFB100
 8702 013c 2C000000 		.4byte	.LFE100-.LFB100
 8703 0140 00000000 		.4byte	.LFB101
 8704 0144 18000000 		.4byte	.LFE101-.LFB101
 8705 0148 00000000 		.4byte	.LFB102
 8706 014c 18000000 		.4byte	.LFE102-.LFB102
 8707 0150 00000000 		.4byte	.LFB103
 8708 0154 98000000 		.4byte	.LFE103-.LFB103
 8709 0158 00000000 		.4byte	.LFB104
 8710 015c 88000000 		.4byte	.LFE104-.LFB104
 8711 0160 00000000 		.4byte	.LFB105
 8712 0164 0E000000 		.4byte	.LFE105-.LFB105
 8713 0168 00000000 		.4byte	0
 8714 016c 00000000 		.4byte	0
 8715              		.section	.debug_ranges,"",%progbits
 8716              	.Ldebug_ranges0:
 8717 0000 00000000 		.4byte	.LFB63
 8718 0004 20000000 		.4byte	.LFE63
 8719 0008 00000000 		.4byte	.LFB64
 8720 000c 38000000 		.4byte	.LFE64
ARM GAS  C:\Users\Administrator\AppData\Local\Temp\ccPIvPLo.s 			page 176


 8721 0010 00000000 		.4byte	.LFB65
 8722 0014 22000000 		.4byte	.LFE65
 8723 0018 00000000 		.4byte	.LFB66
 8724 001c 2E000000 		.4byte	.LFE66
 8725 0020 00000000 		.4byte	.LFB67
 8726 0024 12000000 		.4byte	.LFE67
 8727 0028 00000000 		.4byte	.LFB68
 8728 002c 14000000 		.4byte	.LFE68
 8729 0030 00000000 		.4byte	.LFB69
 8730 0034 18000000 		.4byte	.LFE69
 8731 0038 00000000 		.4byte	.LFB70
 8732 003c 26000000 		.4byte	.LFE70
 8733 0040 00000000 		.4byte	.LFB71
 8734 0044 18000000 		.4byte	.LFE71
 8735 0048 00000000 		.4byte	.LFB72
 8736 004c 1A000000 		.4byte	.LFE72
 8737 0050 00000000 		.4byte	.LFB73
 8738 0054 4C000000 		.4byte	.LFE73
 8739 0058 00000000 		.4byte	.LFB74
 8740 005c 18000000 		.4byte	.LFE74
 8741 0060 00000000 		.4byte	.LFB75
 8742 0064 32000000 		.4byte	.LFE75
 8743 0068 00000000 		.4byte	.LFB76
 8744 006c 28000000 		.4byte	.LFE76
 8745 0070 00000000 		.4byte	.LFB77
 8746 0074 30000000 		.4byte	.LFE77
 8747 0078 00000000 		.4byte	.LFB78
 8748 007c 4C000000 		.4byte	.LFE78
 8749 0080 00000000 		.4byte	.LFB79
 8750 0084 46000000 		.4byte	.LFE79
 8751 0088 00000000 		.4byte	.LFB80
 8752 008c 2E000000 		.4byte	.LFE80
 8753 0090 00000000 		.4byte	.LFB81
 8754 0094 08000000 		.4byte	.LFE81
 8755 0098 00000000 		.4byte	.LFB82
 8756 009c 4C000000 		.4byte	.LFE82
 8757 00a0 00000000 		.4byte	.LFB83
 8758 00a4 44000000 		.4byte	.LFE83
 8759 00a8 00000000 		.4byte	.LFB84
 8760 00ac 28000000 		.4byte	.LFE84
 8761 00b0 00000000 		.4byte	.LFB85
 8762 00b4 24000000 		.4byte	.LFE85
 8763 00b8 00000000 		.4byte	.LFB86
 8764 00bc 28000000 		.4byte	.LFE86
 8765 00c0 00000000 		.4byte	.LFB87
 8766 00c4 18000000 		.4byte	.LFE87
 8767 00c8 00000000 		.4byte	.LFB88
 8768 00cc 1A000000 		.4byte	.LFE88
 8769 00d0 00000000 		.4byte	.LFB89
 8770 00d4 6C000000 		.4byte	.LFE89
 8771 00d8 00000000 		.4byte	.LFB90
 8772 00dc 64000000 		.4byte	.LFE90
 8773 00e0 00000000 		.4byte	.LFB91
 8774 00e4 64000000 		.4byte	.LFE91
 8775 00e8 00000000 		.4byte	.LFB92
 8776 00ec 64000000 		.4byte	.LFE92
 8777 00f0 00000000 		.4byte	.LFB93
ARM GAS  C:\Users\Administrator\AppData\Local\Temp\ccPIvPLo.s 			page 177


 8778 00f4 3C000000 		.4byte	.LFE93
 8779 00f8 00000000 		.4byte	.LFB94
 8780 00fc 30000000 		.4byte	.LFE94
 8781 0100 00000000 		.4byte	.LFB95
 8782 0104 F4010000 		.4byte	.LFE95
 8783 0108 00000000 		.4byte	.LFB96
 8784 010c 18000000 		.4byte	.LFE96
 8785 0110 00000000 		.4byte	.LFB97
 8786 0114 18000000 		.4byte	.LFE97
 8787 0118 00000000 		.4byte	.LFB98
 8788 011c 18000000 		.4byte	.LFE98
 8789 0120 00000000 		.4byte	.LFB99
 8790 0124 18000000 		.4byte	.LFE99
 8791 0128 00000000 		.4byte	.LFB100
 8792 012c 2C000000 		.4byte	.LFE100
 8793 0130 00000000 		.4byte	.LFB101
 8794 0134 18000000 		.4byte	.LFE101
 8795 0138 00000000 		.4byte	.LFB102
 8796 013c 18000000 		.4byte	.LFE102
 8797 0140 00000000 		.4byte	.LFB103
 8798 0144 98000000 		.4byte	.LFE103
 8799 0148 00000000 		.4byte	.LFB104
 8800 014c 88000000 		.4byte	.LFE104
 8801 0150 00000000 		.4byte	.LFB105
 8802 0154 0E000000 		.4byte	.LFE105
 8803 0158 00000000 		.4byte	0
 8804 015c 00000000 		.4byte	0
 8805              		.section	.debug_line,"",%progbits
 8806              	.Ldebug_line0:
 8807 0000 AC060000 		.section	.debug_str,"MS",%progbits,1
 8807      0200EE01 
 8807      00000201 
 8807      FB0E0D00 
 8807      01010101 
 8808              	.LASF32:
 8809 0000 75736572 		.ascii	"user_id_if_valid\000"
 8809      5F69645F 
 8809      69665F76 
 8809      616C6964 
 8809      00
 8810              	.LASF58:
 8811 0011 57726974 		.ascii	"Write_Open_UploadFlag\000"
 8811      655F4F70 
 8811      656E5F55 
 8811      706C6F61 
 8811      64466C61 
 8812              	.LASF78:
 8813 0027 746D7031 		.ascii	"tmp1\000"
 8813      00
 8814              	.LASF97:
 8815 002c 72547970 		.ascii	"rType\000"
 8815      6500
 8816              	.LASF107:
 8817 0032 6F70656E 		.ascii	"opendate_qty\000"
 8817      64617465 
 8817      5F717479 
 8817      00
ARM GAS  C:\Users\Administrator\AppData\Local\Temp\ccPIvPLo.s 			page 178


 8818              	.LASF86:
 8819 003f 4765745F 		.ascii	"Get_Open_Info\000"
 8819      4F70656E 
 8819      5F496E66 
 8819      6F00
 8820              	.LASF79:
 8821 004d 6F70656E 		.ascii	"openTmp\000"
 8821      546D7000 
 8822              	.LASF112:
 8823 0055 75706C6F 		.ascii	"uploadpolling_stop\000"
 8823      6164706F 
 8823      6C6C696E 
 8823      675F7374 
 8823      6F7000
 8824              	.LASF22:
 8825 0068 76616C69 		.ascii	"valid_time\000"
 8825      645F7469 
 8825      6D6500
 8826              	.LASF47:
 8827 0073 696E666F 		.ascii	"info_tmp\000"
 8827      5F746D70 
 8827      00
 8828              	.LASF83:
 8829 007c 73746172 		.ascii	"start_num\000"
 8829      745F6E75 
 8829      6D00
 8830              	.LASF73:
 8831 0086 52656164 		.ascii	"Read_OpenInfo\000"
 8831      5F4F7065 
 8831      6E496E66 
 8831      6F00
 8832              	.LASF120:
 8833 0094 436F6465 		.ascii	"Code\\Device\\W25Q80\\user_data.c\000"
 8833      5C446576 
 8833      6963655C 
 8833      57323551 
 8833      38305C75 
 8834              	.LASF43:
 8835 00b3 75736572 		.ascii	"user_get_user_id\000"
 8835      5F676574 
 8835      5F757365 
 8835      725F6964 
 8835      00
 8836              	.LASF10:
 8837 00c4 756E7369 		.ascii	"unsigned int\000"
 8837      676E6564 
 8837      20696E74 
 8837      00
 8838              	.LASF34:
 8839 00d1 75736572 		.ascii	"user_get_reg_qty\000"
 8839      5F676574 
 8839      5F726567 
 8839      5F717479 
 8839      00
 8840              	.LASF41:
 8841 00e2 75736572 		.ascii	"user_get_info\000"
 8841      5F676574 
ARM GAS  C:\Users\Administrator\AppData\Local\Temp\ccPIvPLo.s 			page 179


 8841      5F696E66 
 8841      6F00
 8842              	.LASF111:
 8843 00f0 5254435F 		.ascii	"RTC_daysBeforeMonthTbl\000"
 8843      64617973 
 8843      4265666F 
 8843      72654D6F 
 8843      6E746854 
 8844              	.LASF116:
 8845 0107 6D656D73 		.ascii	"memset\000"
 8845      657400
 8846              	.LASF26:
 8847 010e 6F70656E 		.ascii	"open_time\000"
 8847      5F74696D 
 8847      6500
 8848              	.LASF110:
 8849 0118 6F70656E 		.ascii	"open_tmp\000"
 8849      5F746D70 
 8849      00
 8850              	.LASF49:
 8851 0121 64656C5F 		.ascii	"del_user\000"
 8851      75736572 
 8851      00
 8852              	.LASF67:
 8853 012a 52656164 		.ascii	"Read_Open_Qty\000"
 8853      5F4F7065 
 8853      6E5F5174 
 8853      7900
 8854              	.LASF40:
 8855 0138 75736572 		.ascii	"user_del_info\000"
 8855      5F64656C 
 8855      5F696E66 
 8855      6F00
 8856              	.LASF89:
 8857 0146 46696E64 		.ascii	"FindAndSet_UploadTime_UploadFlag\000"
 8857      416E6453 
 8857      65745F55 
 8857      706C6F61 
 8857      6454696D 
 8858              	.LASF16:
 8859 0167 666C6F61 		.ascii	"float\000"
 8859      7400
 8860              	.LASF90:
 8861 016d 7574635F 		.ascii	"utc_time\000"
 8861      74696D65 
 8861      00
 8862              	.LASF60:
 8863 0176 55706C6F 		.ascii	"UploadFlag\000"
 8863      6164466C 
 8863      616700
 8864              	.LASF9:
 8865 0181 6C6F6E67 		.ascii	"long long unsigned int\000"
 8865      206C6F6E 
 8865      6720756E 
 8865      7369676E 
 8865      65642069 
 8866              	.LASF4:
ARM GAS  C:\Users\Administrator\AppData\Local\Temp\ccPIvPLo.s 			page 180


 8867 0198 5F5F7569 		.ascii	"__uint16_t\000"
 8867      6E743136 
 8867      5F7400
 8868              	.LASF103:
 8869 01a3 52656164 		.ascii	"Read_UpdateVer\000"
 8869      5F557064 
 8869      61746556 
 8869      657200
 8870              	.LASF27:
 8871 01b2 73656E64 		.ascii	"send_time\000"
 8871      5F74696D 
 8871      6500
 8872              	.LASF42:
 8873 01bc 75736572 		.ascii	"user_get_card_uid\000"
 8873      5F676574 
 8873      5F636172 
 8873      645F7569 
 8873      6400
 8874              	.LASF59:
 8875 01ce 6F70656E 		.ascii	"open_num\000"
 8875      5F6E756D 
 8875      00
 8876              	.LASF66:
 8877 01d7 6F70656E 		.ascii	"openQty\000"
 8877      51747900 
 8878              	.LASF113:
 8879 01df 57323551 		.ascii	"W25QXX_Write\000"
 8879      58585F57 
 8879      72697465 
 8879      00
 8880              	.LASF114:
 8881 01ec 57323551 		.ascii	"W25QXX_Read\000"
 8881      58585F52 
 8881      65616400 
 8882              	.LASF88:
 8883 01f8 6F666673 		.ascii	"offset\000"
 8883      657400
 8884              	.LASF50:
 8885 01ff 636C725F 		.ascii	"clr_user\000"
 8885      75736572 
 8885      00
 8886              	.LASF44:
 8887 0208 63617264 		.ascii	"card_id_eeprom\000"
 8887      5F69645F 
 8887      65657072 
 8887      6F6D00
 8888              	.LASF18:
 8889 0217 63686172 		.ascii	"char\000"
 8889      00
 8890              	.LASF71:
 8891 021c 6F70656E 		.ascii	"open_qty\000"
 8891      5F717479 
 8891      00
 8892              	.LASF25:
 8893 0225 6F70656E 		.ascii	"open_door\000"
 8893      5F646F6F 
 8893      7200
ARM GAS  C:\Users\Administrator\AppData\Local\Temp\ccPIvPLo.s 			page 181


 8894              	.LASF98:
 8895 022f 52656164 		.ascii	"Read_RebootType\000"
 8895      5F526562 
 8895      6F6F7454 
 8895      79706500 
 8896              	.LASF14:
 8897 023f 75696E74 		.ascii	"uint16\000"
 8897      313600
 8898              	.LASF87:
 8899 0246 64617461 		.ascii	"data\000"
 8899      00
 8900              	.LASF118:
 8901 024b 456E6470 		.ascii	"Endpoint_exchange\000"
 8901      6F696E74 
 8901      5F657863 
 8901      68616E67 
 8901      6500
 8902              	.LASF11:
 8903 025d 75696E74 		.ascii	"uint8_t\000"
 8903      385F7400 
 8904              	.LASF99:
 8905 0265 57726974 		.ascii	"Write_CenterIpType\000"
 8905      655F4365 
 8905      6E746572 
 8905      49705479 
 8905      706500
 8906              	.LASF91:
 8907 0278 4F70656E 		.ascii	"OpenQty\000"
 8907      51747900 
 8908              	.LASF74:
 8909 0280 64617461 		.ascii	"data_temp\000"
 8909      5F74656D 
 8909      7000
 8910              	.LASF100:
 8911 028a 52656164 		.ascii	"Read_CenterIpType\000"
 8911      5F43656E 
 8911      74657249 
 8911      70547970 
 8911      6500
 8912              	.LASF62:
 8913 029c 57726974 		.ascii	"Write_Open_Type\000"
 8913      655F4F70 
 8913      656E5F54 
 8913      79706500 
 8914              	.LASF85:
 8915 02ac 616C6C71 		.ascii	"allqty\000"
 8915      747900
 8916              	.LASF8:
 8917 02b3 6C6F6E67 		.ascii	"long long int\000"
 8917      206C6F6E 
 8917      6720696E 
 8917      7400
 8918              	.LASF94:
 8919 02c1 6F70656E 		.ascii	"open_time_flash\000"
 8919      5F74696D 
 8919      655F666C 
 8919      61736800 
ARM GAS  C:\Users\Administrator\AppData\Local\Temp\ccPIvPLo.s 			page 182


 8920              	.LASF48:
 8921 02d1 6368675F 		.ascii	"chg_user\000"
 8921      75736572 
 8921      00
 8922              	.LASF52:
 8923 02da 75736572 		.ascii	"userinfo\000"
 8923      696E666F 
 8923      00
 8924              	.LASF68:
 8925 02e3 57726974 		.ascii	"Write_OpenInfo\000"
 8925      655F4F70 
 8925      656E496E 
 8925      666F00
 8926              	.LASF35:
 8927 02f2 75736572 		.ascii	"user_init_valid_flag\000"
 8927      5F696E69 
 8927      745F7661 
 8927      6C69645F 
 8927      666C6167 
 8928              	.LASF28:
 8929 0307 6F70656E 		.ascii	"open_door_t\000"
 8929      5F646F6F 
 8929      725F7400 
 8930              	.LASF57:
 8931 0313 76616C5F 		.ascii	"val_time\000"
 8931      74696D65 
 8931      00
 8932              	.LASF53:
 8933 031c 55736572 		.ascii	"UserData_Add_User\000"
 8933      44617461 
 8933      5F416464 
 8933      5F557365 
 8933      7200
 8934              	.LASF64:
 8935 032e 52656164 		.ascii	"Read_Open_Type\000"
 8935      5F4F7065 
 8935      6E5F5479 
 8935      706500
 8936              	.LASF77:
 8937 033d 73746172 		.ascii	"start_time\000"
 8937      745F7469 
 8937      6D6500
 8938              	.LASF15:
 8939 0348 75696E74 		.ascii	"uint32\000"
 8939      333200
 8940              	.LASF39:
 8941 034f 696E666F 		.ascii	"info\000"
 8941      00
 8942              	.LASF56:
 8943 0354 55736572 		.ascii	"UserData_Judge_If_Open\000"
 8943      44617461 
 8943      5F4A7564 
 8943      67655F49 
 8943      665F4F70 
 8944              	.LASF23:
 8945 036b 75736572 		.ascii	"user_info_t\000"
 8945      5F696E66 
ARM GAS  C:\Users\Administrator\AppData\Local\Temp\ccPIvPLo.s 			page 183


 8945      6F5F7400 
 8946              	.LASF69:
 8947 0377 6F70656E 		.ascii	"openInfo\000"
 8947      496E666F 
 8947      00
 8948              	.LASF33:
 8949 0380 75736572 		.ascii	"user_id\000"
 8949      5F696400 
 8950              	.LASF24:
 8951 0388 75736572 		.ascii	"user_info\000"
 8951      5F696E66 
 8951      6F00
 8952              	.LASF61:
 8953 0392 52656164 		.ascii	"Read_Open_UploadFlag\000"
 8953      5F4F7065 
 8953      6E5F5570 
 8953      6C6F6164 
 8953      466C6167 
 8954              	.LASF19:
 8955 03a7 6C6F6E67 		.ascii	"long double\000"
 8955      20646F75 
 8955      626C6500 
 8956              	.LASF12:
 8957 03b3 75696E74 		.ascii	"uint16_t\000"
 8957      31365F74 
 8957      00
 8958              	.LASF65:
 8959 03bc 57726974 		.ascii	"Write_Open_Qty\000"
 8959      655F4F70 
 8959      656E5F51 
 8959      747900
 8960              	.LASF51:
 8961 03cb 75736572 		.ascii	"userflag\000"
 8961      666C6167 
 8961      00
 8962              	.LASF2:
 8963 03d4 73686F72 		.ascii	"short int\000"
 8963      7420696E 
 8963      7400
 8964              	.LASF104:
 8965 03de 436C6561 		.ascii	"Clear_AllOPeninfo\000"
 8965      725F416C 
 8965      6C4F5065 
 8965      6E696E66 
 8965      6F00
 8966              	.LASF6:
 8967 03f0 6C6F6E67 		.ascii	"long int\000"
 8967      20696E74 
 8967      00
 8968              	.LASF46:
 8969 03f9 6164645F 		.ascii	"add_user\000"
 8969      75736572 
 8969      00
 8970              	.LASF81:
 8971 0402 656E645F 		.ascii	"end_time\000"
 8971      74696D65 
 8971      00
ARM GAS  C:\Users\Administrator\AppData\Local\Temp\ccPIvPLo.s 			page 184


 8972              	.LASF38:
 8973 040b 75736572 		.ascii	"user_add_info\000"
 8973      5F616464 
 8973      5F696E66 
 8973      6F00
 8974              	.LASF108:
 8975 0419 74657374 		.ascii	"test_Flash\000"
 8975      5F466C61 
 8975      736800
 8976              	.LASF29:
 8977 0424 666C6167 		.ascii	"flag\000"
 8977      00
 8978              	.LASF93:
 8979 0429 6F70656E 		.ascii	"open_time_utc\000"
 8979      5F74696D 
 8979      655F7574 
 8979      6300
 8980              	.LASF101:
 8981 0437 57726974 		.ascii	"Write_UpdateInfo\000"
 8981      655F5570 
 8981      64617465 
 8981      496E666F 
 8981      00
 8982              	.LASF95:
 8983 0448 6F70656E 		.ascii	"opendate_tmp\000"
 8983      64617465 
 8983      5F746D70 
 8983      00
 8984              	.LASF84:
 8985 0455 656E645F 		.ascii	"end_num\000"
 8985      6E756D00 
 8986              	.LASF3:
 8987 045d 5F5F7569 		.ascii	"__uint8_t\000"
 8987      6E74385F 
 8987      7400
 8988              	.LASF45:
 8989 0467 75736572 		.ascii	"user_get_valid_time\000"
 8989      5F676574 
 8989      5F76616C 
 8989      69645F74 
 8989      696D6500 
 8990              	.LASF109:
 8991 047b 74657374 		.ascii	"test_readopeninfo\000"
 8991      5F726561 
 8991      646F7065 
 8991      6E696E66 
 8991      6F00
 8992              	.LASF20:
 8993 048d 73697A65 		.ascii	"sizetype\000"
 8993      74797065 
 8993      00
 8994              	.LASF7:
 8995 0496 6C6F6E67 		.ascii	"long unsigned int\000"
 8995      20756E73 
 8995      69676E65 
 8995      6420696E 
 8995      7400
ARM GAS  C:\Users\Administrator\AppData\Local\Temp\ccPIvPLo.s 			page 185


 8996              	.LASF102:
 8997 04a8 52656164 		.ascii	"Read_Updateflag\000"
 8997      5F557064 
 8997      61746566 
 8997      6C616700 
 8998              	.LASF76:
 8999 04b8 46696E64 		.ascii	"Find_Open_StartNum\000"
 8999      5F4F7065 
 8999      6E5F5374 
 8999      6172744E 
 8999      756D00
 9000              	.LASF54:
 9001 04cb 55736572 		.ascii	"UserData_DEL_User\000"
 9001      44617461 
 9001      5F44454C 
 9001      5F557365 
 9001      7200
 9002              	.LASF63:
 9003 04dd 74797065 		.ascii	"type\000"
 9003      00
 9004              	.LASF1:
 9005 04e2 756E7369 		.ascii	"unsigned char\000"
 9005      676E6564 
 9005      20636861 
 9005      7200
 9006              	.LASF72:
 9007 04f0 6F70656E 		.ascii	"openinfo_tmp\000"
 9007      696E666F 
 9007      5F746D70 
 9007      00
 9008              	.LASF30:
 9009 04fd 75736572 		.ascii	"user_id_local\000"
 9009      5F69645F 
 9009      6C6F6361 
 9009      6C00
 9010              	.LASF80:
 9011 050b 46696E64 		.ascii	"Find_Open_EndNum\000"
 9011      5F4F7065 
 9011      6E5F456E 
 9011      644E756D 
 9011      00
 9012              	.LASF119:
 9013 051c 474E5520 		.ascii	"GNU C11 5.4.1 20160609 (release) [ARM/embedded-5-br"
 9013      43313120 
 9013      352E342E 
 9013      31203230 
 9013      31363036 
 9014 054f 616E6368 		.ascii	"anch revision 237715] -mcpu=cortex-m0 -mthumb -g -O"
 9014      20726576 
 9014      6973696F 
 9014      6E203233 
 9014      37373135 
 9015 0582 73202D66 		.ascii	"s -ffunction-sections -ffat-lto-objects\000"
 9015      66756E63 
 9015      74696F6E 
 9015      2D736563 
 9015      74696F6E 
ARM GAS  C:\Users\Administrator\AppData\Local\Temp\ccPIvPLo.s 			page 186


 9016              	.LASF106:
 9017 05aa 6F70656E 		.ascii	"opendate_flag\000"
 9017      64617465 
 9017      5F666C61 
 9017      6700
 9018              	.LASF121:
 9019 05b8 473A5C50 		.ascii	"G:\\Psoc4_prj\\7.rental_house\\18-05-03\\EntranceGu"
 9019      736F6334 
 9019      5F70726A 
 9019      5C372E72 
 9019      656E7461 
 9020 05e7 6172645F 		.ascii	"ard_180512-1624\\EntranceGuard.cydsn\000"
 9020      31383035 
 9020      31322D31 
 9020      3632345C 
 9020      456E7472 
 9021              	.LASF21:
 9022 060b 63617264 		.ascii	"card_uid\000"
 9022      5F756964 
 9022      00
 9023              	.LASF75:
 9024 0614 72656164 		.ascii	"readoff\000"
 9024      6F666600 
 9025              	.LASF0:
 9026 061c 7369676E 		.ascii	"signed char\000"
 9026      65642063 
 9026      68617200 
 9027              	.LASF5:
 9028 0628 73686F72 		.ascii	"short unsigned int\000"
 9028      7420756E 
 9028      7369676E 
 9028      65642069 
 9028      6E7400
 9029              	.LASF92:
 9030 063b 4F70656E 		.ascii	"OpenInfo\000"
 9030      496E666F 
 9030      00
 9031              	.LASF117:
 9032 0644 6D656D63 		.ascii	"memcpy\000"
 9032      707900
 9033              	.LASF105:
 9034 064b 6F70656E 		.ascii	"opendate\000"
 9034      64617465 
 9034      00
 9035              	.LASF115:
 9036 0654 6D656D63 		.ascii	"memcmp\000"
 9036      6D7000
 9037              	.LASF13:
 9038 065b 75696E74 		.ascii	"uint8\000"
 9038      3800
 9039              	.LASF17:
 9040 0661 646F7562 		.ascii	"double\000"
 9040      6C6500
 9041              	.LASF36:
 9042 0668 75736572 		.ascii	"user_set_valid_flag\000"
 9042      5F736574 
 9042      5F76616C 
ARM GAS  C:\Users\Administrator\AppData\Local\Temp\ccPIvPLo.s 			page 187


 9042      69645F66 
 9042      6C616700 
 9043              	.LASF31:
 9044 067c 75736572 		.ascii	"user_find_free_id\000"
 9044      5F66696E 
 9044      645F6672 
 9044      65655F69 
 9044      6400
 9045              	.LASF82:
 9046 068e 46696E64 		.ascii	"Find_Open_ValidQty\000"
 9046      5F4F7065 
 9046      6E5F5661 
 9046      6C696451 
 9046      747900
 9047              	.LASF37:
 9048 06a1 75736572 		.ascii	"user_clr_valid_flag\000"
 9048      5F636C72 
 9048      5F76616C 
 9048      69645F66 
 9048      6C616700 
 9049              	.LASF70:
 9050 06b5 6F70656E 		.ascii	"openType\000"
 9050      54797065 
 9050      00
 9051              	.LASF96:
 9052 06be 57726974 		.ascii	"Write_RebootType\000"
 9052      655F5265 
 9052      626F6F74 
 9052      54797065 
 9052      00
 9053              	.LASF55:
 9054 06cf 55736572 		.ascii	"UserData_CLR_User\000"
 9054      44617461 
 9054      5F434C52 
 9054      5F557365 
 9054      7200
 9055              		.ident	"GCC: (GNU Tools for ARM Embedded Processors) 5.4.1 20160609 (release) [ARM/embedded-5-bran
