ARM GAS  C:\Users\Administrator\AppData\Local\Temp\ccPIvPLo.s 			page 1


   1              		.syntax unified
   2              		.cpu cortex-m0
   3              		.fpu softvfp
   4              		.eabi_attribute 20, 1
   5              		.eabi_attribute 21, 1
   6              		.eabi_attribute 23, 3
   7              		.eabi_attribute 24, 1
   8              		.eabi_attribute 25, 1
   9              		.eabi_attribute 26, 1
  10              		.eabi_attribute 30, 4
  11              		.eabi_attribute 34, 0
  12              		.eabi_attribute 18, 4
  13              		.thumb
  14              		.syntax unified
  15              		.file	"user_data.c"
  16              		.text
  17              	.Ltext0:
  18              		.cfi_sections	.debug_frame
  19              		.section	.text.user_init_valid_flag,"ax",%progbits
  20              		.align	1
  21              		.global	user_init_valid_flag
  22              		.code	16
  23              		.thumb_func
  24              		.type	user_init_valid_flag, %function
  25              	user_init_valid_flag:
  26              	.LFB63:
  27              		.file 1 "Code\\Device\\W25Q80\\user_data.c"
   1:Code\Device\W25Q80/user_data.c **** //*************************************************************************************************
   2:Code\Device\W25Q80/user_data.c **** // File name		: user_data.c
   3:Code\Device\W25Q80/user_data.c **** // Description		: 用户数据相关的函数
   4:Code\Device\W25Q80/user_data.c **** // Author			: Keno
   5:Code\Device\W25Q80/user_data.c **** // Date				: 2016.8.8
   6:Code\Device\W25Q80/user_data.c **** // Version			: V02
   7:Code\Device\W25Q80/user_data.c **** //-------------------------------------------------------------------------------------------------
   8:Code\Device\W25Q80/user_data.c **** // Info				: 用户编号从0开始，0-499；开门记录也从0开始，0-4999，5000为一周期
   9:Code\Device\W25Q80/user_data.c **** //*************************************************************************************************
  10:Code\Device\W25Q80/user_data.c **** #include "user_data.h"
  11:Code\Device\W25Q80/user_data.c **** 
  12:Code\Device\W25Q80/user_data.c **** 
  13:Code\Device\W25Q80/user_data.c **** int Endpoint_exchange(uint8 card_data[]);
  14:Code\Device\W25Q80/user_data.c **** extern uint8  uploadpolling_stop;										// 轮训上报开门信息 停止位		//
  15:Code\Device\W25Q80/user_data.c **** 
  16:Code\Device\W25Q80/user_data.c **** //===================================== 用户信息存储 ========================================
  17:Code\Device\W25Q80/user_data.c **** 
  18:Code\Device\W25Q80/user_data.c **** //*************************************************************************************************
  19:Code\Device\W25Q80/user_data.c **** // Function name	: user_init_valid_flag
  20:Code\Device\W25Q80/user_data.c **** // Description		: 初始化用户有效位标志，清零所有用户标志位
  21:Code\Device\W25Q80/user_data.c **** // Parameter		: none
  22:Code\Device\W25Q80/user_data.c **** // Return			: none
  23:Code\Device\W25Q80/user_data.c **** //-------------------------------------------------------------------------------------------------
  24:Code\Device\W25Q80/user_data.c **** // Info				: 
  25:Code\Device\W25Q80/user_data.c **** //*************************************************************************************************
  26:Code\Device\W25Q80/user_data.c **** void user_init_valid_flag(void)
  27:Code\Device\W25Q80/user_data.c **** {
  28              		.loc 1 27 0
  29              		.cfi_startproc
  30              		@ args = 0, pretend = 0, frame = 504
ARM GAS  C:\Users\Administrator\AppData\Local\Temp\ccPIvPLo.s 			page 2


  31              		@ frame_needed = 0, uses_anonymous_args = 0
  32 0000 10B5     		push	{r4, lr}
  33              		.cfi_def_cfa_offset 8
  34              		.cfi_offset 4, -8
  35              		.cfi_offset 14, -4
  28:Code\Device\W25Q80/user_data.c **** 	uint8 flag[USER_FLAG_SIZE];
  29:Code\Device\W25Q80/user_data.c **** 	
  30:Code\Device\W25Q80/user_data.c **** 	memset(flag, 0, sizeof(flag));
  36              		.loc 1 30 0
  37 0002 FA24     		movs	r4, #250
  27:Code\Device\W25Q80/user_data.c **** 	uint8 flag[USER_FLAG_SIZE];
  38              		.loc 1 27 0
  39 0004 FEB0     		sub	sp, sp, #504
  40              		.cfi_def_cfa_offset 512
  41              		.loc 1 30 0
  42 0006 6400     		lsls	r4, r4, #1
  43 0008 2200     		movs	r2, r4
  44 000a 0021     		movs	r1, #0
  45 000c 01A8     		add	r0, sp, #4
  46 000e FFF7FEFF 		bl	memset
  47              	.LVL0:
  31:Code\Device\W25Q80/user_data.c **** 	W25QXX_Write(flag, USER_FLAG_BASE, (uint16)sizeof(flag));
  48              		.loc 1 31 0
  49 0012 2200     		movs	r2, r4
  50 0014 0021     		movs	r1, #0
  51 0016 01A8     		add	r0, sp, #4
  52 0018 FFF7FEFF 		bl	W25QXX_Write
  53              	.LVL1:
  32:Code\Device\W25Q80/user_data.c **** }
  54              		.loc 1 32 0
  55 001c 7EB0     		add	sp, sp, #504
  56              		@ sp needed
  57 001e 10BD     		pop	{r4, pc}
  58              		.cfi_endproc
  59              	.LFE63:
  60              		.size	user_init_valid_flag, .-user_init_valid_flag
  61              		.section	.text.user_find_free_id,"ax",%progbits
  62              		.align	1
  63              		.global	user_find_free_id
  64              		.code	16
  65              		.thumb_func
  66              		.type	user_find_free_id, %function
  67              	user_find_free_id:
  68              	.LFB64:
  33:Code\Device\W25Q80/user_data.c **** 
  34:Code\Device\W25Q80/user_data.c **** //*************************************************************************************************
  35:Code\Device\W25Q80/user_data.c **** // Function name	: user_find_free_id
  36:Code\Device\W25Q80/user_data.c **** // Description		: 查找空闲的用户有效位标志 
  37:Code\Device\W25Q80/user_data.c **** // Parameter		: user_id
  38:Code\Device\W25Q80/user_data.c **** // Return			: RET_OK : 找到 / RET_ERR : 未找到
  39:Code\Device\W25Q80/user_data.c **** //-------------------------------------------------------------------------------------------------
  40:Code\Device\W25Q80/user_data.c **** // Info				: 
  41:Code\Device\W25Q80/user_data.c **** //*************************************************************************************************
  42:Code\Device\W25Q80/user_data.c **** uint8 user_find_free_id(uint16 *user_id)
  43:Code\Device\W25Q80/user_data.c **** {
  69              		.loc 1 43 0
  70              		.cfi_startproc
ARM GAS  C:\Users\Administrator\AppData\Local\Temp\ccPIvPLo.s 			page 3


  71              		@ args = 0, pretend = 0, frame = 504
  72              		@ frame_needed = 0, uses_anonymous_args = 0
  73              	.LVL2:
  44:Code\Device\W25Q80/user_data.c **** 	uint16 user_id_local;
  45:Code\Device\W25Q80/user_data.c **** 	uint8 flag[USER_FLAG_SIZE];
  46:Code\Device\W25Q80/user_data.c **** 	
  47:Code\Device\W25Q80/user_data.c **** 	W25QXX_Read(flag, USER_FLAG_BASE, (uint16)sizeof(flag));
  74              		.loc 1 47 0
  75 0000 FA22     		movs	r2, #250
  43:Code\Device\W25Q80/user_data.c **** 	uint16 user_id_local;
  76              		.loc 1 43 0
  77 0002 30B5     		push	{r4, r5, lr}
  78              		.cfi_def_cfa_offset 12
  79              		.cfi_offset 4, -12
  80              		.cfi_offset 5, -8
  81              		.cfi_offset 14, -4
  82 0004 FFB0     		sub	sp, sp, #508
  83              		.cfi_def_cfa_offset 520
  84              		.loc 1 47 0
  85 0006 01AC     		add	r4, sp, #4
  86 0008 0021     		movs	r1, #0
  43:Code\Device\W25Q80/user_data.c **** 	uint16 user_id_local;
  87              		.loc 1 43 0
  88 000a 0500     		movs	r5, r0
  89              		.loc 1 47 0
  90 000c 5200     		lsls	r2, r2, #1
  91 000e 2000     		movs	r0, r4
  92              	.LVL3:
  93 0010 FFF7FEFF 		bl	W25QXX_Read
  94              	.LVL4:
  48:Code\Device\W25Q80/user_data.c **** 	for (user_id_local = 0; user_id_local < MAX_USR_NUM; user_id_local++)
  95              		.loc 1 48 0
  96 0014 FA21     		movs	r1, #250
  47:Code\Device\W25Q80/user_data.c **** 	for (user_id_local = 0; user_id_local < MAX_USR_NUM; user_id_local++)
  97              		.loc 1 47 0
  98 0016 0023     		movs	r3, #0
  99              		.loc 1 48 0
 100 0018 4900     		lsls	r1, r1, #1
 101              	.LVL5:
 102              	.L5:
  49:Code\Device\W25Q80/user_data.c **** 	{
  50:Code\Device\W25Q80/user_data.c **** 		if ((flag[user_id_local] == 0) || (flag[user_id_local] == 0xFF))
 103              		.loc 1 50 0
 104 001a E25C     		ldrb	r2, [r4, r3]
 105 001c 98B2     		uxth	r0, r3
 106              	.LVL6:
 107 001e 013A     		subs	r2, r2, #1
 108 0020 D2B2     		uxtb	r2, r2
 109 0022 FD2A     		cmp	r2, #253
 110 0024 02D9     		bls	.L3
  51:Code\Device\W25Q80/user_data.c **** 		{
  52:Code\Device\W25Q80/user_data.c **** 			*user_id = user_id_local;
 111              		.loc 1 52 0
 112 0026 2880     		strh	r0, [r5]
  53:Code\Device\W25Q80/user_data.c **** 			return RET_OK;
 113              		.loc 1 53 0
 114 0028 0120     		movs	r0, #1
ARM GAS  C:\Users\Administrator\AppData\Local\Temp\ccPIvPLo.s 			page 4


 115              	.LVL7:
 116 002a 03E0     		b	.L4
 117              	.LVL8:
 118              	.L3:
 119 002c 0133     		adds	r3, r3, #1
 120              	.LVL9:
  48:Code\Device\W25Q80/user_data.c **** 	{
 121              		.loc 1 48 0 discriminator 2
 122 002e 8B42     		cmp	r3, r1
 123 0030 F3D1     		bne	.L5
  54:Code\Device\W25Q80/user_data.c **** 		}
  55:Code\Device\W25Q80/user_data.c **** 	}
  56:Code\Device\W25Q80/user_data.c **** 	return RET_ERR;
 124              		.loc 1 56 0
 125 0032 0020     		movs	r0, #0
 126              	.LVL10:
 127              	.L4:
  57:Code\Device\W25Q80/user_data.c **** }
 128              		.loc 1 57 0
 129 0034 7FB0     		add	sp, sp, #508
 130              		@ sp needed
 131              	.LVL11:
 132 0036 30BD     		pop	{r4, r5, pc}
 133              		.cfi_endproc
 134              	.LFE64:
 135              		.size	user_find_free_id, .-user_find_free_id
 136              		.section	.text.user_id_if_valid,"ax",%progbits
 137              		.align	1
 138              		.global	user_id_if_valid
 139              		.code	16
 140              		.thumb_func
 141              		.type	user_id_if_valid, %function
 142              	user_id_if_valid:
 143              	.LFB65:
  58:Code\Device\W25Q80/user_data.c **** 
  59:Code\Device\W25Q80/user_data.c **** //*************************************************************************************************
  60:Code\Device\W25Q80/user_data.c **** // Function name	: user_id_if_valid
  61:Code\Device\W25Q80/user_data.c **** // Description		: 判断对应编号的用户是否存在
  62:Code\Device\W25Q80/user_data.c **** // Parameter		: user_id
  63:Code\Device\W25Q80/user_data.c **** // Return			: none
  64:Code\Device\W25Q80/user_data.c **** //-------------------------------------------------------------------------------------------------
  65:Code\Device\W25Q80/user_data.c **** // Info				: 用户编号从0开始，0-499.
  66:Code\Device\W25Q80/user_data.c **** //*************************************************************************************************
  67:Code\Device\W25Q80/user_data.c **** uint8 user_id_if_valid(uint16 user_id)
  68:Code\Device\W25Q80/user_data.c **** {
 144              		.loc 1 68 0
 145              		.cfi_startproc
 146              		@ args = 0, pretend = 0, frame = 504
 147              		@ frame_needed = 0, uses_anonymous_args = 0
 148              	.LVL12:
  69:Code\Device\W25Q80/user_data.c **** 	uint8 flag[USER_FLAG_SIZE];
  70:Code\Device\W25Q80/user_data.c **** 	
  71:Code\Device\W25Q80/user_data.c **** 	W25QXX_Read(flag, USER_FLAG_BASE, USER_FLAG_SIZE);
 149              		.loc 1 71 0
 150 0000 FA22     		movs	r2, #250
  68:Code\Device\W25Q80/user_data.c **** 	uint8 flag[USER_FLAG_SIZE];
 151              		.loc 1 68 0
ARM GAS  C:\Users\Administrator\AppData\Local\Temp\ccPIvPLo.s 			page 5


 152 0002 30B5     		push	{r4, r5, lr}
 153              		.cfi_def_cfa_offset 12
 154              		.cfi_offset 4, -12
 155              		.cfi_offset 5, -8
 156              		.cfi_offset 14, -4
 157 0004 0500     		movs	r5, r0
 158 0006 FFB0     		sub	sp, sp, #508
 159              		.cfi_def_cfa_offset 520
 160              		.loc 1 71 0
 161 0008 01AC     		add	r4, sp, #4
 162 000a 2000     		movs	r0, r4
 163              	.LVL13:
 164 000c 5200     		lsls	r2, r2, #1
 165 000e 0021     		movs	r1, #0
 166 0010 FFF7FEFF 		bl	W25QXX_Read
 167              	.LVL14:
  72:Code\Device\W25Q80/user_data.c **** 	if (flag[user_id] == TRUE)
  73:Code\Device\W25Q80/user_data.c **** 	{
  74:Code\Device\W25Q80/user_data.c **** 		return TRUE;
 168              		.loc 1 74 0
 169 0014 605D     		ldrb	r0, [r4, r5]
 170 0016 0138     		subs	r0, r0, #1
 171 0018 4342     		rsbs	r3, r0, #0
 172 001a 5841     		adcs	r0, r0, r3
 173 001c C0B2     		uxtb	r0, r0
  75:Code\Device\W25Q80/user_data.c **** 	}
  76:Code\Device\W25Q80/user_data.c **** 	else
  77:Code\Device\W25Q80/user_data.c **** 	{
  78:Code\Device\W25Q80/user_data.c **** 		return FALSE;
  79:Code\Device\W25Q80/user_data.c **** 	}
  80:Code\Device\W25Q80/user_data.c **** }
 174              		.loc 1 80 0
 175 001e 7FB0     		add	sp, sp, #508
 176              		@ sp needed
 177 0020 30BD     		pop	{r4, r5, pc}
 178              		.cfi_endproc
 179              	.LFE65:
 180              		.size	user_id_if_valid, .-user_id_if_valid
 181              		.section	.text.user_get_reg_qty,"ax",%progbits
 182              		.align	1
 183              		.global	user_get_reg_qty
 184              		.code	16
 185              		.thumb_func
 186              		.type	user_get_reg_qty, %function
 187              	user_get_reg_qty:
 188              	.LFB66:
  81:Code\Device\W25Q80/user_data.c **** 
  82:Code\Device\W25Q80/user_data.c **** //*************************************************************************************************
  83:Code\Device\W25Q80/user_data.c **** // Function name	: user_get_reg_qty
  84:Code\Device\W25Q80/user_data.c **** // Description		: 获取已注册用户数量
  85:Code\Device\W25Q80/user_data.c **** // Parameter		: none
  86:Code\Device\W25Q80/user_data.c **** // Return			: qty	: 已注册用户数量
  87:Code\Device\W25Q80/user_data.c **** //-------------------------------------------------------------------------------------------------
  88:Code\Device\W25Q80/user_data.c **** // Info				: 
  89:Code\Device\W25Q80/user_data.c **** //*************************************************************************************************
  90:Code\Device\W25Q80/user_data.c **** uint16 user_get_reg_qty(void)
  91:Code\Device\W25Q80/user_data.c **** {
ARM GAS  C:\Users\Administrator\AppData\Local\Temp\ccPIvPLo.s 			page 6


 189              		.loc 1 91 0
 190              		.cfi_startproc
 191              		@ args = 0, pretend = 0, frame = 504
 192              		@ frame_needed = 0, uses_anonymous_args = 0
 193              	.LVL15:
  92:Code\Device\W25Q80/user_data.c **** 	uint8 flag[USER_FLAG_SIZE];
  93:Code\Device\W25Q80/user_data.c **** 	uint16 user_id_local;
  94:Code\Device\W25Q80/user_data.c **** 	uint16 qty = 0;
  95:Code\Device\W25Q80/user_data.c **** 	
  96:Code\Device\W25Q80/user_data.c **** 	W25QXX_Read(flag, USER_FLAG_BASE, USER_FLAG_SIZE);
 194              		.loc 1 96 0
 195 0000 FA22     		movs	r2, #250
  91:Code\Device\W25Q80/user_data.c **** 	uint8 flag[USER_FLAG_SIZE];
 196              		.loc 1 91 0
 197 0002 10B5     		push	{r4, lr}
 198              		.cfi_def_cfa_offset 8
 199              		.cfi_offset 4, -8
 200              		.cfi_offset 14, -4
 201 0004 FEB0     		sub	sp, sp, #504
 202              		.cfi_def_cfa_offset 512
 203              		.loc 1 96 0
 204 0006 01AC     		add	r4, sp, #4
 205 0008 5200     		lsls	r2, r2, #1
 206 000a 2000     		movs	r0, r4
 207 000c 0021     		movs	r1, #0
 208 000e FFF7FEFF 		bl	W25QXX_Read
 209              	.LVL16:
 210 0012 0023     		movs	r3, #0
  97:Code\Device\W25Q80/user_data.c **** 	for (user_id_local = 0; user_id_local < MAX_USR_NUM; user_id_local++)
 211              		.loc 1 97 0
 212 0014 FA22     		movs	r2, #250
  94:Code\Device\W25Q80/user_data.c **** 	
 213              		.loc 1 94 0
 214 0016 1800     		movs	r0, r3
 215              		.loc 1 97 0
 216 0018 5200     		lsls	r2, r2, #1
 217              	.LVL17:
 218              	.L11:
  98:Code\Device\W25Q80/user_data.c **** 	{
  99:Code\Device\W25Q80/user_data.c **** 		if (flag[user_id_local] == TRUE)
 219              		.loc 1 99 0
 220 001a E15C     		ldrb	r1, [r4, r3]
 221 001c 0129     		cmp	r1, #1
 222 001e 01D1     		bne	.L10
 100:Code\Device\W25Q80/user_data.c **** 		{
 101:Code\Device\W25Q80/user_data.c **** 			qty += 1;
 223              		.loc 1 101 0
 224 0020 0130     		adds	r0, r0, #1
 225              	.LVL18:
 226 0022 80B2     		uxth	r0, r0
 227              	.LVL19:
 228              	.L10:
 229 0024 0133     		adds	r3, r3, #1
 230              	.LVL20:
  97:Code\Device\W25Q80/user_data.c **** 	{
 231              		.loc 1 97 0 discriminator 2
 232 0026 9342     		cmp	r3, r2
ARM GAS  C:\Users\Administrator\AppData\Local\Temp\ccPIvPLo.s 			page 7


 233 0028 F7D1     		bne	.L11
 102:Code\Device\W25Q80/user_data.c **** 		}
 103:Code\Device\W25Q80/user_data.c **** 	}
 104:Code\Device\W25Q80/user_data.c **** 	return qty;
 105:Code\Device\W25Q80/user_data.c **** }
 234              		.loc 1 105 0
 235 002a 7EB0     		add	sp, sp, #504
 236              		@ sp needed
 237 002c 10BD     		pop	{r4, pc}
 238              		.cfi_endproc
 239              	.LFE66:
 240              		.size	user_get_reg_qty, .-user_get_reg_qty
 241              		.section	.text.user_set_valid_flag,"ax",%progbits
 242              		.align	1
 243              		.global	user_set_valid_flag
 244              		.code	16
 245              		.thumb_func
 246              		.type	user_set_valid_flag, %function
 247              	user_set_valid_flag:
 248              	.LFB67:
 106:Code\Device\W25Q80/user_data.c **** 
 107:Code\Device\W25Q80/user_data.c **** //*************************************************************************************************
 108:Code\Device\W25Q80/user_data.c **** // Function name	: user_set_valid_flag
 109:Code\Device\W25Q80/user_data.c **** // Description		: 置位用户有效位标志
 110:Code\Device\W25Q80/user_data.c **** // Parameter		: user_id
 111:Code\Device\W25Q80/user_data.c **** // Return			: none
 112:Code\Device\W25Q80/user_data.c **** //-------------------------------------------------------------------------------------------------
 113:Code\Device\W25Q80/user_data.c **** // Info				: 
 114:Code\Device\W25Q80/user_data.c **** //*************************************************************************************************
 115:Code\Device\W25Q80/user_data.c **** void user_set_valid_flag(uint16 user_id)
 116:Code\Device\W25Q80/user_data.c **** {
 249              		.loc 1 116 0
 250              		.cfi_startproc
 251              		@ args = 0, pretend = 0, frame = 8
 252              		@ frame_needed = 0, uses_anonymous_args = 0
 253              	.LVL21:
 254 0000 07B5     		push	{r0, r1, r2, lr}
 255              		.cfi_def_cfa_offset 16
 256              		.cfi_offset 0, -16
 257              		.cfi_offset 1, -12
 258              		.cfi_offset 2, -8
 259              		.cfi_offset 14, -4
 117:Code\Device\W25Q80/user_data.c **** 	uint8 flag = TRUE;
 260              		.loc 1 117 0
 261 0002 6B46     		mov	r3, sp
 262 0004 0122     		movs	r2, #1
 116:Code\Device\W25Q80/user_data.c **** 	uint8 flag = TRUE;
 263              		.loc 1 116 0
 264 0006 0100     		movs	r1, r0
 265              		.loc 1 117 0
 266 0008 D81D     		adds	r0, r3, #7
 267              	.LVL22:
 268 000a 0270     		strb	r2, [r0]
 118:Code\Device\W25Q80/user_data.c **** 	
 119:Code\Device\W25Q80/user_data.c **** 	W25QXX_Write(&flag, USER_FLAG_BASE + user_id, 1);
 120:Code\Device\W25Q80/user_data.c **** }
 269              		.loc 1 120 0
ARM GAS  C:\Users\Administrator\AppData\Local\Temp\ccPIvPLo.s 			page 8


 270              		@ sp needed
 119:Code\Device\W25Q80/user_data.c **** }
 271              		.loc 1 119 0
 272 000c FFF7FEFF 		bl	W25QXX_Write
 273              	.LVL23:
 274              		.loc 1 120 0
 275 0010 07BD     		pop	{r0, r1, r2, pc}
 276              		.cfi_endproc
 277              	.LFE67:
 278              		.size	user_set_valid_flag, .-user_set_valid_flag
 279              		.section	.text.user_clr_valid_flag,"ax",%progbits
 280              		.align	1
 281              		.global	user_clr_valid_flag
 282              		.code	16
 283              		.thumb_func
 284              		.type	user_clr_valid_flag, %function
 285              	user_clr_valid_flag:
 286              	.LFB68:
 121:Code\Device\W25Q80/user_data.c **** 
 122:Code\Device\W25Q80/user_data.c **** //*************************************************************************************************
 123:Code\Device\W25Q80/user_data.c **** // Function name	: user_clr_valid_flag
 124:Code\Device\W25Q80/user_data.c **** // Description		: 清除用户有效位标志
 125:Code\Device\W25Q80/user_data.c **** // Parameter		: user_id
 126:Code\Device\W25Q80/user_data.c **** // Return			: none
 127:Code\Device\W25Q80/user_data.c **** //-------------------------------------------------------------------------------------------------
 128:Code\Device\W25Q80/user_data.c **** // Info				: 
 129:Code\Device\W25Q80/user_data.c **** //*************************************************************************************************
 130:Code\Device\W25Q80/user_data.c **** void user_clr_valid_flag(uint16 user_id)
 131:Code\Device\W25Q80/user_data.c **** {
 287              		.loc 1 131 0
 288              		.cfi_startproc
 289              		@ args = 0, pretend = 0, frame = 8
 290              		@ frame_needed = 0, uses_anonymous_args = 0
 291              	.LVL24:
 292 0000 07B5     		push	{r0, r1, r2, lr}
 293              		.cfi_def_cfa_offset 16
 294              		.cfi_offset 0, -16
 295              		.cfi_offset 1, -12
 296              		.cfi_offset 2, -8
 297              		.cfi_offset 14, -4
 132:Code\Device\W25Q80/user_data.c **** 	uint8 flag = FALSE;
 298              		.loc 1 132 0
 299 0002 6B46     		mov	r3, sp
 300 0004 0022     		movs	r2, #0
 131:Code\Device\W25Q80/user_data.c **** 	uint8 flag = FALSE;
 301              		.loc 1 131 0
 302 0006 0100     		movs	r1, r0
 303              		.loc 1 132 0
 304 0008 D81D     		adds	r0, r3, #7
 305              	.LVL25:
 306 000a 0270     		strb	r2, [r0]
 133:Code\Device\W25Q80/user_data.c **** 	
 134:Code\Device\W25Q80/user_data.c **** 	W25QXX_Write(&flag, USER_FLAG_BASE + user_id, 1);
 307              		.loc 1 134 0
 308 000c 0132     		adds	r2, r2, #1
 309 000e FFF7FEFF 		bl	W25QXX_Write
 310              	.LVL26:
ARM GAS  C:\Users\Administrator\AppData\Local\Temp\ccPIvPLo.s 			page 9


 135:Code\Device\W25Q80/user_data.c **** }
 311              		.loc 1 135 0
 312              		@ sp needed
 313 0012 07BD     		pop	{r0, r1, r2, pc}
 314              		.cfi_endproc
 315              	.LFE68:
 316              		.size	user_clr_valid_flag, .-user_clr_valid_flag
 317              		.section	.text.user_add_info,"ax",%progbits
 318              		.align	1
 319              		.global	user_add_info
 320              		.code	16
 321              		.thumb_func
 322              		.type	user_add_info, %function
 323              	user_add_info:
 324              	.LFB69:
 136:Code\Device\W25Q80/user_data.c **** 
 137:Code\Device\W25Q80/user_data.c **** //*************************************************************************************************
 138:Code\Device\W25Q80/user_data.c **** // Function name	: user_add_info
 139:Code\Device\W25Q80/user_data.c **** // Description		: 添加新的用户信息
 140:Code\Device\W25Q80/user_data.c **** // Parameter		: user_id，user_info_t
 141:Code\Device\W25Q80/user_data.c **** // Return			: none
 142:Code\Device\W25Q80/user_data.c **** //-------------------------------------------------------------------------------------------------
 143:Code\Device\W25Q80/user_data.c **** // Info				: 
 144:Code\Device\W25Q80/user_data.c **** //*************************************************************************************************
 145:Code\Device\W25Q80/user_data.c **** void user_add_info(uint16 user_id, user_info_t *info)
 146:Code\Device\W25Q80/user_data.c **** {
 325              		.loc 1 146 0
 326              		.cfi_startproc
 327              		@ args = 0, pretend = 0, frame = 0
 328              		@ frame_needed = 0, uses_anonymous_args = 0
 329              	.LVL27:
 330 0000 0B00     		movs	r3, r1
 147:Code\Device\W25Q80/user_data.c **** 	W25QXX_Write((uint8 *)info, USER_INFO_BASE + (sizeof(user_info_t) * user_id), (uint16)sizeof(user_
 331              		.loc 1 147 0
 332 0002 0C22     		movs	r2, #12
 333 0004 0100     		movs	r1, r0
 334              	.LVL28:
 335 0006 8020     		movs	r0, #128
 336              	.LVL29:
 146:Code\Device\W25Q80/user_data.c **** 	W25QXX_Write((uint8 *)info, USER_INFO_BASE + (sizeof(user_info_t) * user_id), (uint16)sizeof(user_
 337              		.loc 1 146 0
 338 0008 10B5     		push	{r4, lr}
 339              		.cfi_def_cfa_offset 8
 340              		.cfi_offset 4, -8
 341              		.cfi_offset 14, -4
 342              		.loc 1 147 0
 343 000a 5143     		muls	r1, r2
 344 000c 8000     		lsls	r0, r0, #2
 345 000e 0918     		adds	r1, r1, r0
 346 0010 1800     		movs	r0, r3
 347 0012 FFF7FEFF 		bl	W25QXX_Write
 348              	.LVL30:
 148:Code\Device\W25Q80/user_data.c **** }
 349              		.loc 1 148 0
 350              		@ sp needed
 351 0016 10BD     		pop	{r4, pc}
 352              		.cfi_endproc
ARM GAS  C:\Users\Administrator\AppData\Local\Temp\ccPIvPLo.s 			page 10


 353              	.LFE69:
 354              		.size	user_add_info, .-user_add_info
 355              		.section	.text.user_del_info,"ax",%progbits
 356              		.align	1
 357              		.global	user_del_info
 358              		.code	16
 359              		.thumb_func
 360              		.type	user_del_info, %function
 361              	user_del_info:
 362              	.LFB70:
 149:Code\Device\W25Q80/user_data.c **** 
 150:Code\Device\W25Q80/user_data.c **** //*************************************************************************************************
 151:Code\Device\W25Q80/user_data.c **** // Function name	: user_del_info
 152:Code\Device\W25Q80/user_data.c **** // Description		: 删除新的用户信息
 153:Code\Device\W25Q80/user_data.c **** // Parameter		: user_id
 154:Code\Device\W25Q80/user_data.c **** // Return			: none
 155:Code\Device\W25Q80/user_data.c **** //-------------------------------------------------------------------------------------------------
 156:Code\Device\W25Q80/user_data.c **** // Info				: 
 157:Code\Device\W25Q80/user_data.c **** //*************************************************************************************************
 158:Code\Device\W25Q80/user_data.c **** void user_del_info(uint16 user_id)
 159:Code\Device\W25Q80/user_data.c **** {
 363              		.loc 1 159 0
 364              		.cfi_startproc
 365              		@ args = 0, pretend = 0, frame = 16
 366              		@ frame_needed = 0, uses_anonymous_args = 0
 367              	.LVL31:
 368 0000 30B5     		push	{r4, r5, lr}
 369              		.cfi_def_cfa_offset 12
 370              		.cfi_offset 4, -12
 371              		.cfi_offset 5, -8
 372              		.cfi_offset 14, -4
 160:Code\Device\W25Q80/user_data.c **** 	uint8_t flag[sizeof(user_info_t)] = {0};
 373              		.loc 1 160 0
 374 0002 0C25     		movs	r5, #12
 159:Code\Device\W25Q80/user_data.c **** 	uint8_t flag[sizeof(user_info_t)] = {0};
 375              		.loc 1 159 0
 376 0004 0400     		movs	r4, r0
 377 0006 85B0     		sub	sp, sp, #20
 378              		.cfi_def_cfa_offset 32
 379              		.loc 1 160 0
 380 0008 2A00     		movs	r2, r5
 381 000a 0021     		movs	r1, #0
 382 000c 01A8     		add	r0, sp, #4
 383              	.LVL32:
 384 000e FFF7FEFF 		bl	memset
 385              	.LVL33:
 161:Code\Device\W25Q80/user_data.c **** 	
 162:Code\Device\W25Q80/user_data.c **** 	W25QXX_Write(flag, USER_INFO_BASE + sizeof(user_info_t) * user_id, (uint16)sizeof(user_info_t));
 386              		.loc 1 162 0
 387 0012 8023     		movs	r3, #128
 388 0014 6C43     		muls	r4, r5
 389 0016 9B00     		lsls	r3, r3, #2
 390 0018 E118     		adds	r1, r4, r3
 391 001a 2A00     		movs	r2, r5
 392 001c 01A8     		add	r0, sp, #4
 393 001e FFF7FEFF 		bl	W25QXX_Write
 394              	.LVL34:
ARM GAS  C:\Users\Administrator\AppData\Local\Temp\ccPIvPLo.s 			page 11


 163:Code\Device\W25Q80/user_data.c **** }
 395              		.loc 1 163 0
 396 0022 05B0     		add	sp, sp, #20
 397              		@ sp needed
 398 0024 30BD     		pop	{r4, r5, pc}
 399              		.cfi_endproc
 400              	.LFE70:
 401              		.size	user_del_info, .-user_del_info
 402              		.section	.text.user_get_info,"ax",%progbits
 403              		.align	1
 404              		.global	user_get_info
 405              		.code	16
 406              		.thumb_func
 407              		.type	user_get_info, %function
 408              	user_get_info:
 409              	.LFB71:
 164:Code\Device\W25Q80/user_data.c **** 
 165:Code\Device\W25Q80/user_data.c **** //*************************************************************************************************
 166:Code\Device\W25Q80/user_data.c **** // Function name	: user_get_info
 167:Code\Device\W25Q80/user_data.c **** // Description		: 根据user_id来获取Info用户信息
 168:Code\Device\W25Q80/user_data.c **** // Parameter		: user_id，user_info_t
 169:Code\Device\W25Q80/user_data.c **** // Return			: none
 170:Code\Device\W25Q80/user_data.c **** //-------------------------------------------------------------------------------------------------
 171:Code\Device\W25Q80/user_data.c **** // Info				: 
 172:Code\Device\W25Q80/user_data.c **** //*************************************************************************************************
 173:Code\Device\W25Q80/user_data.c **** void user_get_info(uint16 user_id, user_info_t *info)
 174:Code\Device\W25Q80/user_data.c **** {
 410              		.loc 1 174 0
 411              		.cfi_startproc
 412              		@ args = 0, pretend = 0, frame = 0
 413              		@ frame_needed = 0, uses_anonymous_args = 0
 414              	.LVL35:
 415 0000 0B00     		movs	r3, r1
 175:Code\Device\W25Q80/user_data.c **** 	W25QXX_Read((uint8 *)info, USER_INFO_BASE + sizeof(user_info_t) * user_id, (uint16)sizeof(user_inf
 416              		.loc 1 175 0
 417 0002 0C22     		movs	r2, #12
 418 0004 0100     		movs	r1, r0
 419              	.LVL36:
 420 0006 8020     		movs	r0, #128
 421              	.LVL37:
 174:Code\Device\W25Q80/user_data.c **** 	W25QXX_Read((uint8 *)info, USER_INFO_BASE + sizeof(user_info_t) * user_id, (uint16)sizeof(user_inf
 422              		.loc 1 174 0
 423 0008 10B5     		push	{r4, lr}
 424              		.cfi_def_cfa_offset 8
 425              		.cfi_offset 4, -8
 426              		.cfi_offset 14, -4
 427              		.loc 1 175 0
 428 000a 5143     		muls	r1, r2
 429 000c 8000     		lsls	r0, r0, #2
 430 000e 0918     		adds	r1, r1, r0
 431 0010 1800     		movs	r0, r3
 432 0012 FFF7FEFF 		bl	W25QXX_Read
 433              	.LVL38:
 176:Code\Device\W25Q80/user_data.c **** }
 434              		.loc 1 176 0
 435              		@ sp needed
 436 0016 10BD     		pop	{r4, pc}
ARM GAS  C:\Users\Administrator\AppData\Local\Temp\ccPIvPLo.s 			page 12


 437              		.cfi_endproc
 438              	.LFE71:
 439              		.size	user_get_info, .-user_get_info
 440              		.section	.text.user_get_card_uid,"ax",%progbits
 441              		.align	1
 442              		.global	user_get_card_uid
 443              		.code	16
 444              		.thumb_func
 445              		.type	user_get_card_uid, %function
 446              	user_get_card_uid:
 447              	.LFB72:
 177:Code\Device\W25Q80/user_data.c **** 
 178:Code\Device\W25Q80/user_data.c **** //*************************************************************************************************
 179:Code\Device\W25Q80/user_data.c **** // Function name	: user_get_card_uid
 180:Code\Device\W25Q80/user_data.c **** // Description		: 根据user_id来获取卡uid
 181:Code\Device\W25Q80/user_data.c **** // Parameter		: user_id，*card_uid
 182:Code\Device\W25Q80/user_data.c **** // Return			: none
 183:Code\Device\W25Q80/user_data.c **** //-------------------------------------------------------------------------------------------------
 184:Code\Device\W25Q80/user_data.c **** // Info				: 
 185:Code\Device\W25Q80/user_data.c **** //*************************************************************************************************
 186:Code\Device\W25Q80/user_data.c **** void user_get_card_uid(uint16 user_id, uint8 *card_uid)
 187:Code\Device\W25Q80/user_data.c **** {
 448              		.loc 1 187 0
 449              		.cfi_startproc
 450              		@ args = 0, pretend = 0, frame = 0
 451              		@ frame_needed = 0, uses_anonymous_args = 0
 452              	.LVL39:
 453 0000 0B00     		movs	r3, r1
 188:Code\Device\W25Q80/user_data.c **** 	W25QXX_Read(card_uid, USER_INFO_BASE + sizeof(user_info_t) * user_id + offsetof(user_info_t, card_
 454              		.loc 1 188 0
 455 0002 0C21     		movs	r1, #12
 456              	.LVL40:
 457 0004 8022     		movs	r2, #128
 458 0006 4143     		muls	r1, r0
 187:Code\Device\W25Q80/user_data.c **** 	W25QXX_Read(card_uid, USER_INFO_BASE + sizeof(user_info_t) * user_id + offsetof(user_info_t, card_
 459              		.loc 1 187 0
 460 0008 10B5     		push	{r4, lr}
 461              		.cfi_def_cfa_offset 8
 462              		.cfi_offset 4, -8
 463              		.cfi_offset 14, -4
 464              		.loc 1 188 0
 465 000a 9200     		lsls	r2, r2, #2
 466 000c 8918     		adds	r1, r1, r2
 467 000e F93A     		subs	r2, r2, #249
 468 0010 FF3A     		subs	r2, r2, #255
 469 0012 1800     		movs	r0, r3
 470              	.LVL41:
 471 0014 FFF7FEFF 		bl	W25QXX_Read
 472              	.LVL42:
 189:Code\Device\W25Q80/user_data.c **** }
 473              		.loc 1 189 0
 474              		@ sp needed
 475 0018 10BD     		pop	{r4, pc}
 476              		.cfi_endproc
 477              	.LFE72:
 478              		.size	user_get_card_uid, .-user_get_card_uid
 479              		.section	.text.user_get_user_id,"ax",%progbits
ARM GAS  C:\Users\Administrator\AppData\Local\Temp\ccPIvPLo.s 			page 13


 480              		.align	1
 481              		.global	user_get_user_id
 482              		.code	16
 483              		.thumb_func
 484              		.type	user_get_user_id, %function
 485              	user_get_user_id:
 486              	.LFB73:
 190:Code\Device\W25Q80/user_data.c **** 
 191:Code\Device\W25Q80/user_data.c **** //*************************************************************************************************
 192:Code\Device\W25Q80/user_data.c **** // Function name	: user_get_user_id
 193:Code\Device\W25Q80/user_data.c **** // Description		: 根据uid信息来获取user_id
 194:Code\Device\W25Q80/user_data.c **** // Parameter		: *user_id ，*card_uid
 195:Code\Device\W25Q80/user_data.c **** // Return			: none
 196:Code\Device\W25Q80/user_data.c **** //-------------------------------------------------------------------------------------------------
 197:Code\Device\W25Q80/user_data.c **** // Info				: 读到卡了，返回卡用户编号
 198:Code\Device\W25Q80/user_data.c **** //					: 没读到卡，返回MAX_USR_NUM
 199:Code\Device\W25Q80/user_data.c **** //*************************************************************************************************
 200:Code\Device\W25Q80/user_data.c **** void user_get_user_id(uint16 *user_id, uint8 *card_uid)
 201:Code\Device\W25Q80/user_data.c **** {
 487              		.loc 1 201 0
 488              		.cfi_startproc
 489              		@ args = 0, pretend = 0, frame = 520
 490              		@ frame_needed = 0, uses_anonymous_args = 0
 491              	.LVL43:
 492 0000 FFB5     		push	{r0, r1, r2, r3, r4, r5, r6, r7, lr}
 493              		.cfi_def_cfa_offset 36
 494              		.cfi_offset 0, -36
 495              		.cfi_offset 1, -32
 496              		.cfi_offset 2, -28
 497              		.cfi_offset 3, -24
 498              		.cfi_offset 4, -20
 499              		.cfi_offset 5, -16
 500              		.cfi_offset 6, -12
 501              		.cfi_offset 7, -8
 502              		.cfi_offset 14, -4
 202:Code\Device\W25Q80/user_data.c **** 	uint16 i;
 203:Code\Device\W25Q80/user_data.c **** 	uint8 ret;
 204:Code\Device\W25Q80/user_data.c **** 	uint8 flag[USER_FLAG_SIZE];
 205:Code\Device\W25Q80/user_data.c **** 	uint8 card_id_eeprom[CARD_UID_LEN];
 206:Code\Device\W25Q80/user_data.c **** 	
 207:Code\Device\W25Q80/user_data.c **** 	W25QXX_Read(flag, USER_FLAG_BASE, USER_FLAG_SIZE);
 503              		.loc 1 207 0
 504 0002 FA22     		movs	r2, #250
 201:Code\Device\W25Q80/user_data.c **** 	uint16 i;
 505              		.loc 1 201 0
 506 0004 FFB0     		sub	sp, sp, #508
 507              		.cfi_def_cfa_offset 544
 508              		.loc 1 207 0
 509 0006 05AE     		add	r6, sp, #20
 201:Code\Device\W25Q80/user_data.c **** 	uint16 i;
 510              		.loc 1 201 0
 511 0008 0191     		str	r1, [sp, #4]
 512 000a 0500     		movs	r5, r0
 513              		.loc 1 207 0
 514 000c 5200     		lsls	r2, r2, #1
 515 000e 0021     		movs	r1, #0
 516              	.LVL44:
ARM GAS  C:\Users\Administrator\AppData\Local\Temp\ccPIvPLo.s 			page 14


 517 0010 3000     		movs	r0, r6
 518              	.LVL45:
 519 0012 FFF7FEFF 		bl	W25QXX_Read
 520              	.LVL46:
 521 0016 0024     		movs	r4, #0
 522              	.LVL47:
 523              	.L22:
 208:Code\Device\W25Q80/user_data.c **** 	for (i = 0; i < USER_FLAG_SIZE; i++)
 209:Code\Device\W25Q80/user_data.c **** 	{
 210:Code\Device\W25Q80/user_data.c **** 		if (flag[i] == TRUE)
 524              		.loc 1 210 0
 525 0018 335D     		ldrb	r3, [r6, r4]
 526 001a A7B2     		uxth	r7, r4
 527              	.LVL48:
 528 001c 012B     		cmp	r3, #1
 529 001e 0DD1     		bne	.L20
 211:Code\Device\W25Q80/user_data.c **** 		{
 212:Code\Device\W25Q80/user_data.c **** 			user_get_card_uid(i, card_id_eeprom);
 530              		.loc 1 212 0
 531 0020 03A9     		add	r1, sp, #12
 532 0022 3800     		movs	r0, r7
 533 0024 FFF7FEFF 		bl	user_get_card_uid
 534              	.LVL49:
 213:Code\Device\W25Q80/user_data.c **** 			ret = memcmp(card_uid, card_id_eeprom, CARD_UID_LEN);
 535              		.loc 1 213 0
 536 0028 0822     		movs	r2, #8
 537 002a 03A9     		add	r1, sp, #12
 538 002c 0198     		ldr	r0, [sp, #4]
 539 002e FFF7FEFF 		bl	memcmp
 540              	.LVL50:
 214:Code\Device\W25Q80/user_data.c **** 			if (ret == 0)											
 541              		.loc 1 214 0
 542 0032 C0B2     		uxtb	r0, r0
 543 0034 0028     		cmp	r0, #0
 544 0036 01D1     		bne	.L20
 215:Code\Device\W25Q80/user_data.c **** 			{
 216:Code\Device\W25Q80/user_data.c **** 				*user_id = i;
 545              		.loc 1 216 0
 546 0038 2F80     		strh	r7, [r5]
 547 003a 05E0     		b	.L19
 548              	.LVL51:
 549              	.L20:
 208:Code\Device\W25Q80/user_data.c **** 	{
 550              		.loc 1 208 0
 551 003c FA23     		movs	r3, #250
 552 003e 0134     		adds	r4, r4, #1
 553              	.LVL52:
 554 0040 5B00     		lsls	r3, r3, #1
 555 0042 9C42     		cmp	r4, r3
 556 0044 E8D1     		bne	.L22
 217:Code\Device\W25Q80/user_data.c **** 				return;
 218:Code\Device\W25Q80/user_data.c **** 			}
 219:Code\Device\W25Q80/user_data.c **** 		}
 220:Code\Device\W25Q80/user_data.c **** 	}
 221:Code\Device\W25Q80/user_data.c **** 	*user_id = MAX_USR_NUM;
 557              		.loc 1 221 0
 558 0046 2C80     		strh	r4, [r5]
ARM GAS  C:\Users\Administrator\AppData\Local\Temp\ccPIvPLo.s 			page 15


 559              	.LVL53:
 560              	.L19:
 222:Code\Device\W25Q80/user_data.c **** }
 561              		.loc 1 222 0
 562 0048 7FB0     		add	sp, sp, #508
 563              		@ sp needed
 564              	.LVL54:
 565 004a FFBD     		pop	{r0, r1, r2, r3, r4, r5, r6, r7, pc}
 566              		.cfi_endproc
 567              	.LFE73:
 568              		.size	user_get_user_id, .-user_get_user_id
 569              		.section	.text.user_get_valid_time,"ax",%progbits
 570              		.align	1
 571              		.global	user_get_valid_time
 572              		.code	16
 573              		.thumb_func
 574              		.type	user_get_valid_time, %function
 575              	user_get_valid_time:
 576              	.LFB74:
 223:Code\Device\W25Q80/user_data.c **** 
 224:Code\Device\W25Q80/user_data.c **** //*************************************************************************************************
 225:Code\Device\W25Q80/user_data.c **** // Function name	: user_get_valid_time
 226:Code\Device\W25Q80/user_data.c **** // Description		: 获取已存用户的有效时间
 227:Code\Device\W25Q80/user_data.c **** // Parameter		: user_id，*valid_time
 228:Code\Device\W25Q80/user_data.c **** // Return			: none
 229:Code\Device\W25Q80/user_data.c **** //-------------------------------------------------------------------------------------------------
 230:Code\Device\W25Q80/user_data.c **** // Info				: 
 231:Code\Device\W25Q80/user_data.c **** //*************************************************************************************************
 232:Code\Device\W25Q80/user_data.c **** void user_get_valid_time(uint16 user_id, uint8 *valid_time)
 233:Code\Device\W25Q80/user_data.c **** {
 577              		.loc 1 233 0
 578              		.cfi_startproc
 579              		@ args = 0, pretend = 0, frame = 0
 580              		@ frame_needed = 0, uses_anonymous_args = 0
 581              	.LVL55:
 582 0000 0B00     		movs	r3, r1
 234:Code\Device\W25Q80/user_data.c **** 	W25QXX_Read(valid_time, USER_INFO_BASE + sizeof(user_info_t) * user_id + offsetof(user_info_t, val
 583              		.loc 1 234 0
 584 0002 0C21     		movs	r1, #12
 585              	.LVL56:
 586 0004 8222     		movs	r2, #130
 233:Code\Device\W25Q80/user_data.c **** 	W25QXX_Read(valid_time, USER_INFO_BASE + sizeof(user_info_t) * user_id + offsetof(user_info_t, val
 587              		.loc 1 233 0
 588 0006 10B5     		push	{r4, lr}
 589              		.cfi_def_cfa_offset 8
 590              		.cfi_offset 4, -8
 591              		.cfi_offset 14, -4
 592              		.loc 1 234 0
 593 0008 4143     		muls	r1, r0
 594 000a 9200     		lsls	r2, r2, #2
 595 000c 8918     		adds	r1, r1, r2
 596 000e 1800     		movs	r0, r3
 597              	.LVL57:
 598 0010 0422     		movs	r2, #4
 599 0012 FFF7FEFF 		bl	W25QXX_Read
 600              	.LVL58:
 235:Code\Device\W25Q80/user_data.c **** }
ARM GAS  C:\Users\Administrator\AppData\Local\Temp\ccPIvPLo.s 			page 16


 601              		.loc 1 235 0
 602              		@ sp needed
 603 0016 10BD     		pop	{r4, pc}
 604              		.cfi_endproc
 605              	.LFE74:
 606              		.size	user_get_valid_time, .-user_get_valid_time
 607              		.section	.text.add_user,"ax",%progbits
 608              		.align	1
 609              		.global	add_user
 610              		.code	16
 611              		.thumb_func
 612              		.type	add_user, %function
 613              	add_user:
 614              	.LFB75:
 236:Code\Device\W25Q80/user_data.c **** 
 237:Code\Device\W25Q80/user_data.c **** //*************************************************************************************************
 238:Code\Device\W25Q80/user_data.c **** // Function name	: add_user
 239:Code\Device\W25Q80/user_data.c **** // Description		: 添加用户信息
 240:Code\Device\W25Q80/user_data.c **** // Parameter		: user_id，*user_info_t
 241:Code\Device\W25Q80/user_data.c **** // Return			: TRUE / FALSE
 242:Code\Device\W25Q80/user_data.c **** //-------------------------------------------------------------------------------------------------
 243:Code\Device\W25Q80/user_data.c **** // Info				: 
 244:Code\Device\W25Q80/user_data.c **** //*************************************************************************************************
 245:Code\Device\W25Q80/user_data.c **** uint8 add_user(uint16 user_id,  user_info_t *info)
 246:Code\Device\W25Q80/user_data.c **** {
 615              		.loc 1 246 0
 616              		.cfi_startproc
 617              		@ args = 0, pretend = 0, frame = 16
 618              		@ frame_needed = 0, uses_anonymous_args = 0
 619              	.LVL59:
 620 0000 30B5     		push	{r4, r5, lr}
 621              		.cfi_def_cfa_offset 12
 622              		.cfi_offset 4, -12
 623              		.cfi_offset 5, -8
 624              		.cfi_offset 14, -4
 625 0002 0400     		movs	r4, r0
 626 0004 0D00     		movs	r5, r1
 627 0006 85B0     		sub	sp, sp, #20
 628              		.cfi_def_cfa_offset 32
 247:Code\Device\W25Q80/user_data.c **** 	user_info_t info_tmp;
 248:Code\Device\W25Q80/user_data.c **** 	
 249:Code\Device\W25Q80/user_data.c **** 	user_add_info(user_id, info);
 629              		.loc 1 249 0
 630 0008 FFF7FEFF 		bl	user_add_info
 631              	.LVL60:
 250:Code\Device\W25Q80/user_data.c **** 	user_get_info(user_id, &info_tmp);
 632              		.loc 1 250 0
 633 000c 01A9     		add	r1, sp, #4
 634 000e 2000     		movs	r0, r4
 635 0010 FFF7FEFF 		bl	user_get_info
 636              	.LVL61:
 251:Code\Device\W25Q80/user_data.c **** 	if (0 == memcmp(info, &info_tmp, sizeof(user_info_t)))
 637              		.loc 1 251 0
 638 0014 0C22     		movs	r2, #12
 639 0016 01A9     		add	r1, sp, #4
 640 0018 2800     		movs	r0, r5
 641 001a FFF7FEFF 		bl	memcmp
ARM GAS  C:\Users\Administrator\AppData\Local\Temp\ccPIvPLo.s 			page 17


 642              	.LVL62:
 252:Code\Device\W25Q80/user_data.c **** 	{
 253:Code\Device\W25Q80/user_data.c **** 		user_set_valid_flag(user_id);
 254:Code\Device\W25Q80/user_data.c **** 		return TRUE;
 255:Code\Device\W25Q80/user_data.c **** 	}
 256:Code\Device\W25Q80/user_data.c **** 	else
 257:Code\Device\W25Q80/user_data.c **** 	{
 258:Code\Device\W25Q80/user_data.c **** 		return FALSE;
 643              		.loc 1 258 0
 644 001e 0023     		movs	r3, #0
 251:Code\Device\W25Q80/user_data.c **** 	if (0 == memcmp(info, &info_tmp, sizeof(user_info_t)))
 645              		.loc 1 251 0
 646 0020 9842     		cmp	r0, r3
 647 0022 03D1     		bne	.L26
 253:Code\Device\W25Q80/user_data.c **** 		return TRUE;
 648              		.loc 1 253 0
 649 0024 2000     		movs	r0, r4
 650 0026 FFF7FEFF 		bl	user_set_valid_flag
 651              	.LVL63:
 254:Code\Device\W25Q80/user_data.c **** 	}
 652              		.loc 1 254 0
 653 002a 0123     		movs	r3, #1
 654              	.L26:
 259:Code\Device\W25Q80/user_data.c **** 	}
 260:Code\Device\W25Q80/user_data.c **** }
 655              		.loc 1 260 0
 656 002c 1800     		movs	r0, r3
 657 002e 05B0     		add	sp, sp, #20
 658              		@ sp needed
 659              	.LVL64:
 660 0030 30BD     		pop	{r4, r5, pc}
 661              		.cfi_endproc
 662              	.LFE75:
 663              		.size	add_user, .-add_user
 664              		.section	.text.chg_user,"ax",%progbits
 665              		.align	1
 666              		.global	chg_user
 667              		.code	16
 668              		.thumb_func
 669              		.type	chg_user, %function
 670              	chg_user:
 671              	.LFB76:
 261:Code\Device\W25Q80/user_data.c **** 
 262:Code\Device\W25Q80/user_data.c **** //*************************************************************************************************
 263:Code\Device\W25Q80/user_data.c **** // Function name	: chg_user
 264:Code\Device\W25Q80/user_data.c **** // Description		: 修改用户信息
 265:Code\Device\W25Q80/user_data.c **** // Parameter		: user_id，*user_info_t
 266:Code\Device\W25Q80/user_data.c **** // Return			: TRUE / FALSE
 267:Code\Device\W25Q80/user_data.c **** //-------------------------------------------------------------------------------------------------
 268:Code\Device\W25Q80/user_data.c **** // Info				: 
 269:Code\Device\W25Q80/user_data.c **** //*************************************************************************************************
 270:Code\Device\W25Q80/user_data.c **** uint8 chg_user(uint16 user_id, user_info_t *info)
 271:Code\Device\W25Q80/user_data.c **** {
 672              		.loc 1 271 0
 673              		.cfi_startproc
 674              		@ args = 0, pretend = 0, frame = 16
 675              		@ frame_needed = 0, uses_anonymous_args = 0
ARM GAS  C:\Users\Administrator\AppData\Local\Temp\ccPIvPLo.s 			page 18


 676              	.LVL65:
 677 0000 30B5     		push	{r4, r5, lr}
 678              		.cfi_def_cfa_offset 12
 679              		.cfi_offset 4, -12
 680              		.cfi_offset 5, -8
 681              		.cfi_offset 14, -4
 682 0002 0500     		movs	r5, r0
 683 0004 0C00     		movs	r4, r1
 684 0006 85B0     		sub	sp, sp, #20
 685              		.cfi_def_cfa_offset 32
 272:Code\Device\W25Q80/user_data.c **** 	user_info_t info_tmp;
 273:Code\Device\W25Q80/user_data.c **** 	
 274:Code\Device\W25Q80/user_data.c **** 	user_add_info(user_id, info);
 686              		.loc 1 274 0
 687 0008 FFF7FEFF 		bl	user_add_info
 688              	.LVL66:
 275:Code\Device\W25Q80/user_data.c **** 	user_get_info(user_id, &info_tmp);
 689              		.loc 1 275 0
 690 000c 01A9     		add	r1, sp, #4
 691 000e 2800     		movs	r0, r5
 692 0010 FFF7FEFF 		bl	user_get_info
 693              	.LVL67:
 276:Code\Device\W25Q80/user_data.c **** 	if (0 == memcmp(info, &info_tmp, sizeof(user_info_t)))
 694              		.loc 1 276 0
 695 0014 0C22     		movs	r2, #12
 696 0016 01A9     		add	r1, sp, #4
 697 0018 2000     		movs	r0, r4
 698 001a FFF7FEFF 		bl	memcmp
 699              	.LVL68:
 700 001e 4342     		rsbs	r3, r0, #0
 701 0020 5841     		adcs	r0, r0, r3
 702 0022 C0B2     		uxtb	r0, r0
 277:Code\Device\W25Q80/user_data.c **** 	{
 278:Code\Device\W25Q80/user_data.c **** 		return TRUE;
 279:Code\Device\W25Q80/user_data.c **** 	}
 280:Code\Device\W25Q80/user_data.c **** 	else
 281:Code\Device\W25Q80/user_data.c **** 	{
 282:Code\Device\W25Q80/user_data.c **** 		return FALSE;
 283:Code\Device\W25Q80/user_data.c **** 	}
 284:Code\Device\W25Q80/user_data.c **** }
 703              		.loc 1 284 0
 704 0024 05B0     		add	sp, sp, #20
 705              		@ sp needed
 706              	.LVL69:
 707 0026 30BD     		pop	{r4, r5, pc}
 708              		.cfi_endproc
 709              	.LFE76:
 710              		.size	chg_user, .-chg_user
 711              		.section	.text.del_user,"ax",%progbits
 712              		.align	1
 713              		.global	del_user
 714              		.code	16
 715              		.thumb_func
 716              		.type	del_user, %function
 717              	del_user:
 718              	.LFB77:
 285:Code\Device\W25Q80/user_data.c **** 
ARM GAS  C:\Users\Administrator\AppData\Local\Temp\ccPIvPLo.s 			page 19


 286:Code\Device\W25Q80/user_data.c **** //*************************************************************************************************
 287:Code\Device\W25Q80/user_data.c **** // Function name	: del_user
 288:Code\Device\W25Q80/user_data.c **** // Description		: 删除用户信息
 289:Code\Device\W25Q80/user_data.c **** // Parameter		: user_id
 290:Code\Device\W25Q80/user_data.c **** // Return			: none
 291:Code\Device\W25Q80/user_data.c **** //-------------------------------------------------------------------------------------------------
 292:Code\Device\W25Q80/user_data.c **** // Info				: 删除后取卡UID和有效期的一个数来验证确认是否删除.
 293:Code\Device\W25Q80/user_data.c **** //-------------------------------------------------------------------------------------------------
 294:Code\Device\W25Q80/user_data.c **** //					: 还可以再写一个根据UID来删除的函数
 295:Code\Device\W25Q80/user_data.c **** //*************************************************************************************************
 296:Code\Device\W25Q80/user_data.c **** uint8 del_user(uint16 user_id)
 297:Code\Device\W25Q80/user_data.c **** {
 719              		.loc 1 297 0
 720              		.cfi_startproc
 721              		@ args = 0, pretend = 0, frame = 16
 722              		@ frame_needed = 0, uses_anonymous_args = 0
 723              	.LVL70:
 724 0000 30B5     		push	{r4, r5, lr}
 725              		.cfi_def_cfa_offset 12
 726              		.cfi_offset 4, -12
 727              		.cfi_offset 5, -8
 728              		.cfi_offset 14, -4
 729 0002 0400     		movs	r4, r0
 730 0004 85B0     		sub	sp, sp, #20
 731              		.cfi_def_cfa_offset 32
 298:Code\Device\W25Q80/user_data.c **** 	user_info_t info_tmp;
 299:Code\Device\W25Q80/user_data.c **** 	
 300:Code\Device\W25Q80/user_data.c **** 	user_del_info(user_id);
 301:Code\Device\W25Q80/user_data.c **** 	user_get_info(user_id, &info_tmp);
 732              		.loc 1 301 0
 733 0006 01AD     		add	r5, sp, #4
 300:Code\Device\W25Q80/user_data.c **** 	user_get_info(user_id, &info_tmp);
 734              		.loc 1 300 0
 735 0008 FFF7FEFF 		bl	user_del_info
 736              	.LVL71:
 737              		.loc 1 301 0
 738 000c 2000     		movs	r0, r4
 739 000e 2900     		movs	r1, r5
 740 0010 FFF7FEFF 		bl	user_get_info
 741              	.LVL72:
 302:Code\Device\W25Q80/user_data.c **** 	if ((info_tmp.card_uid[5] == 0) && (info_tmp.valid_time[3] == 0))
 742              		.loc 1 302 0
 743 0014 6879     		ldrb	r0, [r5, #5]
 744 0016 0028     		cmp	r0, #0
 745 0018 07D1     		bne	.L31
 746              		.loc 1 302 0 is_stmt 0 discriminator 1
 747 001a EB7A     		ldrb	r3, [r5, #11]
 748 001c 002B     		cmp	r3, #0
 749 001e 05D1     		bne	.L30
 303:Code\Device\W25Q80/user_data.c **** 	{
 304:Code\Device\W25Q80/user_data.c **** 		user_clr_valid_flag(user_id);
 750              		.loc 1 304 0 is_stmt 1
 751 0020 2000     		movs	r0, r4
 752 0022 FFF7FEFF 		bl	user_clr_valid_flag
 753              	.LVL73:
 305:Code\Device\W25Q80/user_data.c **** 		return TRUE;
 754              		.loc 1 305 0
ARM GAS  C:\Users\Administrator\AppData\Local\Temp\ccPIvPLo.s 			page 20


 755 0026 0120     		movs	r0, #1
 756 0028 00E0     		b	.L30
 757              	.L31:
 306:Code\Device\W25Q80/user_data.c **** 	}
 307:Code\Device\W25Q80/user_data.c **** 	else
 308:Code\Device\W25Q80/user_data.c **** 	{
 309:Code\Device\W25Q80/user_data.c **** 		return FALSE;
 758              		.loc 1 309 0
 759 002a 0020     		movs	r0, #0
 760              	.L30:
 310:Code\Device\W25Q80/user_data.c **** 	}
 311:Code\Device\W25Q80/user_data.c **** }
 761              		.loc 1 311 0
 762 002c 05B0     		add	sp, sp, #20
 763              		@ sp needed
 764 002e 30BD     		pop	{r4, r5, pc}
 765              		.cfi_endproc
 766              	.LFE77:
 767              		.size	del_user, .-del_user
 768              		.section	.text.clr_user,"ax",%progbits
 769              		.align	1
 770              		.global	clr_user
 771              		.code	16
 772              		.thumb_func
 773              		.type	clr_user, %function
 774              	clr_user:
 775              	.LFB78:
 312:Code\Device\W25Q80/user_data.c **** 
 313:Code\Device\W25Q80/user_data.c **** //*************************************************************************************************
 314:Code\Device\W25Q80/user_data.c **** // Function name	: clr_user
 315:Code\Device\W25Q80/user_data.c **** // Description		: 清空所有用户
 316:Code\Device\W25Q80/user_data.c **** // Parameter		: user_id
 317:Code\Device\W25Q80/user_data.c **** // Return			: none
 318:Code\Device\W25Q80/user_data.c **** //-------------------------------------------------------------------------------------------------
 319:Code\Device\W25Q80/user_data.c **** // Info				: 清空所有用户时，是否保留房东？
 320:Code\Device\W25Q80/user_data.c **** //					: 与平涛沟通后，确认全删，锁不管业务层的处理.170829-19:29.
 321:Code\Device\W25Q80/user_data.c **** //*************************************************************************************************
 322:Code\Device\W25Q80/user_data.c **** uint8 clr_user(void)
 323:Code\Device\W25Q80/user_data.c **** {
 776              		.loc 1 323 0
 777              		.cfi_startproc
 778              		@ args = 0, pretend = 0, frame = 6504
 779              		@ frame_needed = 0, uses_anonymous_args = 0
 780 0000 30B5     		push	{r4, r5, lr}
 781              		.cfi_def_cfa_offset 12
 782              		.cfi_offset 4, -12
 783              		.cfi_offset 5, -8
 784              		.cfi_offset 14, -4
 324:Code\Device\W25Q80/user_data.c **** 	uint8_t userflag[USER_FLAG_SIZE] = {0};
 785              		.loc 1 324 0
 786 0002 FA25     		movs	r5, #250
 323:Code\Device\W25Q80/user_data.c **** 	uint8_t userflag[USER_FLAG_SIZE] = {0};
 787              		.loc 1 323 0
 788 0004 0E4C     		ldr	r4, .L33
 789              		.loc 1 324 0
 790 0006 6D00     		lsls	r5, r5, #1
 323:Code\Device\W25Q80/user_data.c **** 	uint8_t userflag[USER_FLAG_SIZE] = {0};
ARM GAS  C:\Users\Administrator\AppData\Local\Temp\ccPIvPLo.s 			page 21


 791              		.loc 1 323 0
 792 0008 A544     		add	sp, sp, r4
 793              		.cfi_def_cfa_offset 6520
 325:Code\Device\W25Q80/user_data.c **** 	uint8_t userinfo[USER_FLAG_SIZE * sizeof(user_info_t)] = {0};
 794              		.loc 1 325 0
 795 000a 0E4C     		ldr	r4, .L33+4
 324:Code\Device\W25Q80/user_data.c **** 	uint8_t userflag[USER_FLAG_SIZE] = {0};
 796              		.loc 1 324 0
 797 000c 2A00     		movs	r2, r5
 798 000e 0021     		movs	r1, #0
 799 0010 01A8     		add	r0, sp, #4
 800 0012 FFF7FEFF 		bl	memset
 801              	.LVL74:
 802              		.loc 1 325 0
 803 0016 2200     		movs	r2, r4
 804 0018 0021     		movs	r1, #0
 805 001a 7EA8     		add	r0, sp, #504
 806 001c FFF7FEFF 		bl	memset
 807              	.LVL75:
 326:Code\Device\W25Q80/user_data.c **** 	
 327:Code\Device\W25Q80/user_data.c **** 	W25QXX_Write(userflag, USER_FLAG_BASE, USER_FLAG_SIZE);
 808              		.loc 1 327 0
 809 0020 2A00     		movs	r2, r5
 810 0022 01A8     		add	r0, sp, #4
 811 0024 0021     		movs	r1, #0
 812 0026 FFF7FEFF 		bl	W25QXX_Write
 813              	.LVL76:
 328:Code\Device\W25Q80/user_data.c **** 	W25QXX_Write(userinfo, USER_INFO_BASE, MAX_USR_NUM * sizeof(user_info_t));
 814              		.loc 1 328 0
 815 002a 8021     		movs	r1, #128
 816 002c 7EA8     		add	r0, sp, #504
 817 002e 2200     		movs	r2, r4
 818 0030 8900     		lsls	r1, r1, #2
 819 0032 FFF7FEFF 		bl	W25QXX_Write
 820              	.LVL77:
 329:Code\Device\W25Q80/user_data.c **** 	return TRUE;
 330:Code\Device\W25Q80/user_data.c **** }
 821              		.loc 1 330 0
 822 0036 0120     		movs	r0, #1
 823 0038 034B     		ldr	r3, .L33+8
 824 003a 9D44     		add	sp, sp, r3
 825              		@ sp needed
 826 003c 30BD     		pop	{r4, r5, pc}
 827              	.L34:
 828 003e C046     		.align	2
 829              	.L33:
 830 0040 94E6FFFF 		.word	-6508
 831 0044 70170000 		.word	6000
 832 0048 6C190000 		.word	6508
 833              		.cfi_endproc
 834              	.LFE78:
 835              		.size	clr_user, .-clr_user
 836              		.section	.text.UserData_Add_User,"ax",%progbits
 837              		.align	1
 838              		.global	UserData_Add_User
 839              		.code	16
 840              		.thumb_func
ARM GAS  C:\Users\Administrator\AppData\Local\Temp\ccPIvPLo.s 			page 22


 841              		.type	UserData_Add_User, %function
 842              	UserData_Add_User:
 843              	.LFB79:
 331:Code\Device\W25Q80/user_data.c **** 
 332:Code\Device\W25Q80/user_data.c **** //*************************************************************************************************
 333:Code\Device\W25Q80/user_data.c **** // Function name	: UserData_Add_User
 334:Code\Device\W25Q80/user_data.c **** // Description		: 添加用户
 335:Code\Device\W25Q80/user_data.c **** // Parameter		: info	: 用户信息
 336:Code\Device\W25Q80/user_data.c **** // Return			: 处理结果
 337:Code\Device\W25Q80/user_data.c **** //-------------------------------------------------------------------------------------------------
 338:Code\Device\W25Q80/user_data.c **** // Info				: 
 339:Code\Device\W25Q80/user_data.c **** //*************************************************************************************************
 340:Code\Device\W25Q80/user_data.c **** uint8 UserData_Add_User(user_info_t *info)
 341:Code\Device\W25Q80/user_data.c **** {
 844              		.loc 1 341 0
 845              		.cfi_startproc
 846              		@ args = 0, pretend = 0, frame = 8
 847              		@ frame_needed = 0, uses_anonymous_args = 0
 848              	.LVL78:
 849 0000 73B5     		push	{r0, r1, r4, r5, r6, lr}
 850              		.cfi_def_cfa_offset 24
 851              		.cfi_offset 0, -24
 852              		.cfi_offset 1, -20
 853              		.cfi_offset 4, -16
 854              		.cfi_offset 5, -12
 855              		.cfi_offset 6, -8
 856              		.cfi_offset 14, -4
 342:Code\Device\W25Q80/user_data.c **** 	uint16_t user_id = 0;
 857              		.loc 1 342 0
 858 0002 6B46     		mov	r3, sp
 859 0004 0024     		movs	r4, #0
 860 0006 9D1D     		adds	r5, r3, #6
 343:Code\Device\W25Q80/user_data.c **** 	
 344:Code\Device\W25Q80/user_data.c **** 	user_get_user_id(&user_id, info->card_uid);
 861              		.loc 1 344 0
 862 0008 0100     		movs	r1, r0
 341:Code\Device\W25Q80/user_data.c **** 	uint16_t user_id = 0;
 863              		.loc 1 341 0
 864 000a 0600     		movs	r6, r0
 865              		.loc 1 344 0
 866 000c 2800     		movs	r0, r5
 867              	.LVL79:
 342:Code\Device\W25Q80/user_data.c **** 	uint16_t user_id = 0;
 868              		.loc 1 342 0
 869 000e 2C80     		strh	r4, [r5]
 870              		.loc 1 344 0
 871 0010 FFF7FEFF 		bl	user_get_user_id
 872              	.LVL80:
 345:Code\Device\W25Q80/user_data.c **** 	if (user_id < MAX_USR_NUM)
 873              		.loc 1 345 0
 874 0014 F423     		movs	r3, #244
 875 0016 2888     		ldrh	r0, [r5]
 876 0018 FF33     		adds	r3, r3, #255
 877 001a 9842     		cmp	r0, r3
 878 001c 03D8     		bhi	.L36
 346:Code\Device\W25Q80/user_data.c **** 	{
 347:Code\Device\W25Q80/user_data.c **** 		if (TRUE == chg_user(user_id, info))
ARM GAS  C:\Users\Administrator\AppData\Local\Temp\ccPIvPLo.s 			page 23


 879              		.loc 1 347 0
 880 001e 3100     		movs	r1, r6
 881 0020 FFF7FEFF 		bl	chg_user
 882              	.LVL81:
 883 0024 0AE0     		b	.L39
 884              	.L36:
 348:Code\Device\W25Q80/user_data.c **** 		{
 349:Code\Device\W25Q80/user_data.c **** 			return TRUE;
 350:Code\Device\W25Q80/user_data.c **** 		}
 351:Code\Device\W25Q80/user_data.c **** 		else
 352:Code\Device\W25Q80/user_data.c **** 		{
 353:Code\Device\W25Q80/user_data.c **** 			return FALSE;
 354:Code\Device\W25Q80/user_data.c **** 		}
 355:Code\Device\W25Q80/user_data.c **** 	}
 356:Code\Device\W25Q80/user_data.c **** 	else
 357:Code\Device\W25Q80/user_data.c **** 	{
 358:Code\Device\W25Q80/user_data.c **** 		if (RET_OK != (user_find_free_id(&user_id)))
 885              		.loc 1 358 0
 886 0026 2800     		movs	r0, r5
 887 0028 FFF7FEFF 		bl	user_find_free_id
 888              	.LVL82:
 889 002c 0300     		movs	r3, r0
 359:Code\Device\W25Q80/user_data.c **** 		{
 360:Code\Device\W25Q80/user_data.c **** 			return FALSE;
 890              		.loc 1 360 0
 891 002e 2000     		movs	r0, r4
 358:Code\Device\W25Q80/user_data.c **** 		{
 892              		.loc 1 358 0
 893 0030 012B     		cmp	r3, #1
 894 0032 07D1     		bne	.L37
 361:Code\Device\W25Q80/user_data.c **** 		}
 362:Code\Device\W25Q80/user_data.c **** 		else
 363:Code\Device\W25Q80/user_data.c **** 		{
 364:Code\Device\W25Q80/user_data.c **** 			if (TRUE == add_user(user_id, info))
 895              		.loc 1 364 0
 896 0034 2888     		ldrh	r0, [r5]
 897 0036 3100     		movs	r1, r6
 898 0038 FFF7FEFF 		bl	add_user
 899              	.LVL83:
 900              	.L39:
 349:Code\Device\W25Q80/user_data.c **** 		}
 901              		.loc 1 349 0
 902 003c 0138     		subs	r0, r0, #1
 903 003e 4342     		rsbs	r3, r0, #0
 904 0040 5841     		adcs	r0, r0, r3
 905 0042 C0B2     		uxtb	r0, r0
 906              	.L37:
 365:Code\Device\W25Q80/user_data.c **** 			{
 366:Code\Device\W25Q80/user_data.c **** 				return TRUE;
 367:Code\Device\W25Q80/user_data.c **** 			}
 368:Code\Device\W25Q80/user_data.c **** 			else
 369:Code\Device\W25Q80/user_data.c **** 			{
 370:Code\Device\W25Q80/user_data.c **** 				return FALSE;
 371:Code\Device\W25Q80/user_data.c **** 			}
 372:Code\Device\W25Q80/user_data.c **** 		}
 373:Code\Device\W25Q80/user_data.c **** 	}
 374:Code\Device\W25Q80/user_data.c **** }
ARM GAS  C:\Users\Administrator\AppData\Local\Temp\ccPIvPLo.s 			page 24


 907              		.loc 1 374 0
 908              		@ sp needed
 909              	.LVL84:
 910 0044 76BD     		pop	{r1, r2, r4, r5, r6, pc}
 911              		.cfi_endproc
 912              	.LFE79:
 913              		.size	UserData_Add_User, .-UserData_Add_User
 914              		.section	.text.UserData_DEL_User,"ax",%progbits
 915              		.align	1
 916              		.global	UserData_DEL_User
 917              		.code	16
 918              		.thumb_func
 919              		.type	UserData_DEL_User, %function
 920              	UserData_DEL_User:
 921              	.LFB80:
 375:Code\Device\W25Q80/user_data.c **** 
 376:Code\Device\W25Q80/user_data.c **** //*************************************************************************************************
 377:Code\Device\W25Q80/user_data.c **** // Function name	: UserData_DEL_User
 378:Code\Device\W25Q80/user_data.c **** // Description		: 删除用户
 379:Code\Device\W25Q80/user_data.c **** // Parameter		: card_uid
 380:Code\Device\W25Q80/user_data.c **** // Return			: 处理结果
 381:Code\Device\W25Q80/user_data.c **** //-------------------------------------------------------------------------------------------------
 382:Code\Device\W25Q80/user_data.c **** // Info				: 
 383:Code\Device\W25Q80/user_data.c **** //*************************************************************************************************
 384:Code\Device\W25Q80/user_data.c **** uint8 UserData_DEL_User(uint8 *card_uid)
 385:Code\Device\W25Q80/user_data.c **** {
 922              		.loc 1 385 0
 923              		.cfi_startproc
 924              		@ args = 0, pretend = 0, frame = 8
 925              		@ frame_needed = 0, uses_anonymous_args = 0
 926              	.LVL85:
 927 0000 13B5     		push	{r0, r1, r4, lr}
 928              		.cfi_def_cfa_offset 16
 929              		.cfi_offset 0, -16
 930              		.cfi_offset 1, -12
 931              		.cfi_offset 4, -8
 932              		.cfi_offset 14, -4
 386:Code\Device\W25Q80/user_data.c **** 	uint16_t user_id = 0;
 933              		.loc 1 386 0
 934 0002 6B46     		mov	r3, sp
 935 0004 9C1D     		adds	r4, r3, #6
 936 0006 0023     		movs	r3, #0
 385:Code\Device\W25Q80/user_data.c **** 	uint16_t user_id = 0;
 937              		.loc 1 385 0
 938 0008 0100     		movs	r1, r0
 387:Code\Device\W25Q80/user_data.c **** 	
 388:Code\Device\W25Q80/user_data.c **** 	user_get_user_id(&user_id, card_uid);
 939              		.loc 1 388 0
 940 000a 2000     		movs	r0, r4
 941              	.LVL86:
 386:Code\Device\W25Q80/user_data.c **** 	
 942              		.loc 1 386 0
 943 000c 2380     		strh	r3, [r4]
 944              		.loc 1 388 0
 945 000e FFF7FEFF 		bl	user_get_user_id
 946              	.LVL87:
 389:Code\Device\W25Q80/user_data.c **** 	if (user_id >= MAX_USR_NUM)
ARM GAS  C:\Users\Administrator\AppData\Local\Temp\ccPIvPLo.s 			page 25


 947              		.loc 1 389 0
 948 0012 F422     		movs	r2, #244
 949 0014 2388     		ldrh	r3, [r4]
 950 0016 FF32     		adds	r2, r2, #255
 390:Code\Device\W25Q80/user_data.c **** 	{
 391:Code\Device\W25Q80/user_data.c **** 		return 0x10;
 951              		.loc 1 391 0
 952 0018 1020     		movs	r0, #16
 389:Code\Device\W25Q80/user_data.c **** 	if (user_id >= MAX_USR_NUM)
 953              		.loc 1 389 0
 954 001a 9342     		cmp	r3, r2
 955 001c 06D8     		bhi	.L41
 392:Code\Device\W25Q80/user_data.c **** 	}
 393:Code\Device\W25Q80/user_data.c **** 	else
 394:Code\Device\W25Q80/user_data.c **** 	{
 395:Code\Device\W25Q80/user_data.c **** 		if (TRUE == del_user(user_id))
 956              		.loc 1 395 0
 957 001e 1800     		movs	r0, r3
 958 0020 FFF7FEFF 		bl	del_user
 959              	.LVL88:
 391:Code\Device\W25Q80/user_data.c **** 	}
 960              		.loc 1 391 0
 961 0024 0138     		subs	r0, r0, #1
 962 0026 4342     		rsbs	r3, r0, #0
 963 0028 5841     		adcs	r0, r0, r3
 964 002a C0B2     		uxtb	r0, r0
 965              	.L41:
 396:Code\Device\W25Q80/user_data.c **** 		{
 397:Code\Device\W25Q80/user_data.c **** 			return TRUE;
 398:Code\Device\W25Q80/user_data.c **** 		}
 399:Code\Device\W25Q80/user_data.c **** 		else
 400:Code\Device\W25Q80/user_data.c **** 		{
 401:Code\Device\W25Q80/user_data.c **** 			return FALSE;
 402:Code\Device\W25Q80/user_data.c **** 		}
 403:Code\Device\W25Q80/user_data.c **** 	}
 404:Code\Device\W25Q80/user_data.c **** }
 966              		.loc 1 404 0
 967              		@ sp needed
 968 002c 16BD     		pop	{r1, r2, r4, pc}
 969              		.cfi_endproc
 970              	.LFE80:
 971              		.size	UserData_DEL_User, .-UserData_DEL_User
 972              		.section	.text.UserData_CLR_User,"ax",%progbits
 973              		.align	1
 974              		.global	UserData_CLR_User
 975              		.code	16
 976              		.thumb_func
 977              		.type	UserData_CLR_User, %function
 978              	UserData_CLR_User:
 979              	.LFB81:
 405:Code\Device\W25Q80/user_data.c **** 
 406:Code\Device\W25Q80/user_data.c **** //*************************************************************************************************
 407:Code\Device\W25Q80/user_data.c **** // Function name	: UserData_CLR_User
 408:Code\Device\W25Q80/user_data.c **** // Description		: 清空用户
 409:Code\Device\W25Q80/user_data.c **** // Parameter		: none
 410:Code\Device\W25Q80/user_data.c **** // Return			: none
 411:Code\Device\W25Q80/user_data.c **** //-------------------------------------------------------------------------------------------------
ARM GAS  C:\Users\Administrator\AppData\Local\Temp\ccPIvPLo.s 			page 26


 412:Code\Device\W25Q80/user_data.c **** // Info				: 
 413:Code\Device\W25Q80/user_data.c **** //*************************************************************************************************
 414:Code\Device\W25Q80/user_data.c **** uint8 UserData_CLR_User(void)
 415:Code\Device\W25Q80/user_data.c **** {
 980              		.loc 1 415 0
 981              		.cfi_startproc
 982              		@ args = 0, pretend = 0, frame = 0
 983              		@ frame_needed = 0, uses_anonymous_args = 0
 984 0000 10B5     		push	{r4, lr}
 985              		.cfi_def_cfa_offset 8
 986              		.cfi_offset 4, -8
 987              		.cfi_offset 14, -4
 416:Code\Device\W25Q80/user_data.c **** 	return (clr_user());
 988              		.loc 1 416 0
 989 0002 FFF7FEFF 		bl	clr_user
 990              	.LVL89:
 417:Code\Device\W25Q80/user_data.c **** }
 991              		.loc 1 417 0
 992              		@ sp needed
 993 0006 10BD     		pop	{r4, pc}
 994              		.cfi_endproc
 995              	.LFE81:
 996              		.size	UserData_CLR_User, .-UserData_CLR_User
 997              		.section	.text.UserData_Judge_If_Open,"ax",%progbits
 998              		.align	1
 999              		.global	UserData_Judge_If_Open
 1000              		.code	16
 1001              		.thumb_func
 1002              		.type	UserData_Judge_If_Open, %function
 1003              	UserData_Judge_If_Open:
 1004              	.LFB82:
 418:Code\Device\W25Q80/user_data.c **** 
 419:Code\Device\W25Q80/user_data.c **** 
 420:Code\Device\W25Q80/user_data.c **** //*************************************************************************************************
 421:Code\Device\W25Q80/user_data.c **** // Function name	: UserData_Judge_If_Open
 422:Code\Device\W25Q80/user_data.c **** // Description		: 根据用户信息来判断是否能开门
 423:Code\Device\W25Q80/user_data.c **** // Parameter		: info	: 用户信息
 424:Code\Device\W25Q80/user_data.c **** // Return			: none
 425:Code\Device\W25Q80/user_data.c **** //-------------------------------------------------------------------------------------------------
 426:Code\Device\W25Q80/user_data.c **** // Info				: 用户信息包括UID和开门时间
 427:Code\Device\W25Q80/user_data.c **** //*************************************************************************************************
 428:Code\Device\W25Q80/user_data.c **** uint8 UserData_Judge_If_Open(user_info_t *info)
 429:Code\Device\W25Q80/user_data.c **** {
 1005              		.loc 1 429 0
 1006              		.cfi_startproc
 1007              		@ args = 0, pretend = 0, frame = 8
 1008              		@ frame_needed = 0, uses_anonymous_args = 0
 1009              	.LVL90:
 1010 0000 37B5     		push	{r0, r1, r2, r4, r5, lr}
 1011              		.cfi_def_cfa_offset 24
 1012              		.cfi_offset 0, -24
 1013              		.cfi_offset 1, -20
 1014              		.cfi_offset 2, -16
 1015              		.cfi_offset 4, -12
 1016              		.cfi_offset 5, -8
 1017              		.cfi_offset 14, -4
 430:Code\Device\W25Q80/user_data.c **** 	uint16_t user_id = 0;
ARM GAS  C:\Users\Administrator\AppData\Local\Temp\ccPIvPLo.s 			page 27


 1018              		.loc 1 430 0
 1019 0002 6B46     		mov	r3, sp
 1020 0004 9D1C     		adds	r5, r3, #2
 1021 0006 0023     		movs	r3, #0
 431:Code\Device\W25Q80/user_data.c **** 	uint8_t val_time[4] = {0};
 432:Code\Device\W25Q80/user_data.c **** 	
 433:Code\Device\W25Q80/user_data.c **** 	user_get_user_id(&user_id, info->card_uid);
 1022              		.loc 1 433 0
 1023 0008 0100     		movs	r1, r0
 429:Code\Device\W25Q80/user_data.c **** 	uint16_t user_id = 0;
 1024              		.loc 1 429 0
 1025 000a 0400     		movs	r4, r0
 1026              		.loc 1 433 0
 1027 000c 2800     		movs	r0, r5
 1028              	.LVL91:
 430:Code\Device\W25Q80/user_data.c **** 	uint16_t user_id = 0;
 1029              		.loc 1 430 0
 1030 000e 2B80     		strh	r3, [r5]
 431:Code\Device\W25Q80/user_data.c **** 	uint8_t val_time[4] = {0};
 1031              		.loc 1 431 0
 1032 0010 0193     		str	r3, [sp, #4]
 1033              		.loc 1 433 0
 1034 0012 FFF7FEFF 		bl	user_get_user_id
 1035              	.LVL92:
 434:Code\Device\W25Q80/user_data.c **** 	if (user_id < MAX_USR_NUM)
 1036              		.loc 1 434 0
 1037 0016 F423     		movs	r3, #244
 1038 0018 2888     		ldrh	r0, [r5]
 1039 001a FF33     		adds	r3, r3, #255
 435:Code\Device\W25Q80/user_data.c **** 	{
 436:Code\Device\W25Q80/user_data.c **** 		user_get_valid_time(user_id, val_time);
 437:Code\Device\W25Q80/user_data.c **** 		if((BYTE2LONG(val_time[0], val_time[1], val_time[2], val_time[3])) > 
 438:Code\Device\W25Q80/user_data.c **** 		   (BYTE2LONG(info->valid_time[0], info->valid_time[1], info->valid_time[2], info->valid_time[3])
 439:Code\Device\W25Q80/user_data.c **** 		{
 440:Code\Device\W25Q80/user_data.c **** 			DBG_SOFT_PutStr("\nUID OK!");	
 441:Code\Device\W25Q80/user_data.c **** 			return TRUE;
 442:Code\Device\W25Q80/user_data.c **** 		}
 443:Code\Device\W25Q80/user_data.c **** 		else
 444:Code\Device\W25Q80/user_data.c **** 		{
 445:Code\Device\W25Q80/user_data.c **** 			DBG_SOFT_PutStr("\nOut of date!");	
 446:Code\Device\W25Q80/user_data.c **** 			return 0x08;								// 超出有效期
 447:Code\Device\W25Q80/user_data.c **** 		}
 448:Code\Device\W25Q80/user_data.c **** 	}
 449:Code\Device\W25Q80/user_data.c **** 	else
 450:Code\Device\W25Q80/user_data.c **** 	{
 451:Code\Device\W25Q80/user_data.c **** 		DBG_SOFT_PutStr("\nNo UID!");	
 452:Code\Device\W25Q80/user_data.c **** 		return 0x06;									// 不存在
 1040              		.loc 1 452 0
 1041 001c 0622     		movs	r2, #6
 434:Code\Device\W25Q80/user_data.c **** 	if (user_id < MAX_USR_NUM)
 1042              		.loc 1 434 0
 1043 001e 9842     		cmp	r0, r3
 1044 0020 12D8     		bhi	.L45
 436:Code\Device\W25Q80/user_data.c **** 		if((BYTE2LONG(val_time[0], val_time[1], val_time[2], val_time[3])) > 
 1045              		.loc 1 436 0
 1046 0022 01A9     		add	r1, sp, #4
 1047 0024 FFF7FEFF 		bl	user_get_valid_time
ARM GAS  C:\Users\Administrator\AppData\Local\Temp\ccPIvPLo.s 			page 28


 1048              	.LVL93:
 1049 0028 019B     		ldr	r3, [sp, #4]
 1050 002a 19BA     		rev	r1, r3
 437:Code\Device\W25Q80/user_data.c **** 		   (BYTE2LONG(info->valid_time[0], info->valid_time[1], info->valid_time[2], info->valid_time[3])
 1051              		.loc 1 437 0
 1052 002c 237A     		ldrb	r3, [r4, #8]
 1053 002e 1A06     		lsls	r2, r3, #24
 1054 0030 637A     		ldrb	r3, [r4, #9]
 1055 0032 1B04     		lsls	r3, r3, #16
 1056 0034 1343     		orrs	r3, r2
 1057 0036 E27A     		ldrb	r2, [r4, #11]
 1058 0038 1343     		orrs	r3, r2
 1059 003a A27A     		ldrb	r2, [r4, #10]
 1060 003c 1202     		lsls	r2, r2, #8
 1061 003e 1343     		orrs	r3, r2
 446:Code\Device\W25Q80/user_data.c **** 		}
 1062              		.loc 1 446 0
 1063 0040 0822     		movs	r2, #8
 437:Code\Device\W25Q80/user_data.c **** 		   (BYTE2LONG(info->valid_time[0], info->valid_time[1], info->valid_time[2], info->valid_time[3])
 1064              		.loc 1 437 0
 1065 0042 9942     		cmp	r1, r3
 1066 0044 00D9     		bls	.L45
 441:Code\Device\W25Q80/user_data.c **** 		}
 1067              		.loc 1 441 0
 1068 0046 073A     		subs	r2, r2, #7
 1069              	.L45:
 453:Code\Device\W25Q80/user_data.c **** 	}
 454:Code\Device\W25Q80/user_data.c **** }
 1070              		.loc 1 454 0
 1071 0048 1000     		movs	r0, r2
 1072              		@ sp needed
 1073              	.LVL94:
 1074 004a 3EBD     		pop	{r1, r2, r3, r4, r5, pc}
 1075              		.cfi_endproc
 1076              	.LFE82:
 1077              		.size	UserData_Judge_If_Open, .-UserData_Judge_If_Open
 1078              		.global	__aeabi_uidivmod
 1079              		.section	.text.Write_Open_UploadFlag,"ax",%progbits
 1080              		.align	1
 1081              		.global	Write_Open_UploadFlag
 1082              		.code	16
 1083              		.thumb_func
 1084              		.type	Write_Open_UploadFlag, %function
 1085              	Write_Open_UploadFlag:
 1086              	.LFB83:
 455:Code\Device\W25Q80/user_data.c **** 
 456:Code\Device\W25Q80/user_data.c **** 
 457:Code\Device\W25Q80/user_data.c **** 
 458:Code\Device\W25Q80/user_data.c **** //=================================== 开门记录信息存储 ====================================
 459:Code\Device\W25Q80/user_data.c **** 
 460:Code\Device\W25Q80/user_data.c **** //*************************************************************************************************
 461:Code\Device\W25Q80/user_data.c **** // Function name	: Write_Open_UploadFlag
 462:Code\Device\W25Q80/user_data.c **** // Description		: 写开门记录信息上报成功与否标志
 463:Code\Device\W25Q80/user_data.c **** // Parameter		: open_num	: 开门编号
 464:Code\Device\W25Q80/user_data.c **** //					: SendFlag	: 发送标志位
 465:Code\Device\W25Q80/user_data.c **** // Return			: none
 466:Code\Device\W25Q80/user_data.c **** //-------------------------------------------------------------------------------------------------
ARM GAS  C:\Users\Administrator\AppData\Local\Temp\ccPIvPLo.s 			page 29


 467:Code\Device\W25Q80/user_data.c **** // Info				: 
 468:Code\Device\W25Q80/user_data.c **** //*************************************************************************************************
 469:Code\Device\W25Q80/user_data.c **** void Write_Open_UploadFlag(uint16 open_num, uint8 UploadFlag)
 470:Code\Device\W25Q80/user_data.c **** {
 1087              		.loc 1 470 0
 1088              		.cfi_startproc
 1089              		@ args = 0, pretend = 0, frame = 8
 1090              		@ frame_needed = 0, uses_anonymous_args = 0
 1091              	.LVL95:
 1092 0000 73B5     		push	{r0, r1, r4, r5, r6, lr}
 1093              		.cfi_def_cfa_offset 24
 1094              		.cfi_offset 0, -24
 1095              		.cfi_offset 1, -20
 1096              		.cfi_offset 4, -16
 1097              		.cfi_offset 5, -12
 1098              		.cfi_offset 6, -8
 1099              		.cfi_offset 14, -4
 1100              		.loc 1 470 0
 1101 0002 0E00     		movs	r6, r1
 471:Code\Device\W25Q80/user_data.c **** 	uint8 flag;
 472:Code\Device\W25Q80/user_data.c **** 	uint16 tmp;
 473:Code\Device\W25Q80/user_data.c **** 	
 474:Code\Device\W25Q80/user_data.c **** 	tmp = open_num % MAX_OPEN_NUM;
 475:Code\Device\W25Q80/user_data.c **** 	W25QXX_Read((uint8 *)&flag, OPEN_FLAG_BASE + tmp, 1);
 1102              		.loc 1 475 0
 1103 0004 0E49     		ldr	r1, .L52
 1104              	.LVL96:
 1105 0006 FFF7FEFF 		bl	__aeabi_uidivmod
 1106              	.LVL97:
 1107 000a D023     		movs	r3, #208
 1108 000c 8CB2     		uxth	r4, r1
 1109 000e 5B01     		lsls	r3, r3, #5
 1110 0010 E418     		adds	r4, r4, r3
 1111 0012 6B46     		mov	r3, sp
 1112 0014 DD1D     		adds	r5, r3, #7
 1113 0016 0122     		movs	r2, #1
 1114 0018 2100     		movs	r1, r4
 1115 001a 2800     		movs	r0, r5
 1116 001c FFF7FEFF 		bl	W25QXX_Read
 1117              	.LVL98:
 1118 0020 2B78     		ldrb	r3, [r5]
 476:Code\Device\W25Q80/user_data.c **** 	if (UploadFlag == TRUE)
 1119              		.loc 1 476 0
 1120 0022 012E     		cmp	r6, #1
 1121 0024 03D1     		bne	.L49
 477:Code\Device\W25Q80/user_data.c **** 	{
 478:Code\Device\W25Q80/user_data.c **** 		flag |= 0x80;
 1122              		.loc 1 478 0
 1123 0026 8022     		movs	r2, #128
 1124 0028 5242     		rsbs	r2, r2, #0
 1125 002a 1343     		orrs	r3, r2
 1126 002c 01E0     		b	.L51
 1127              	.L49:
 479:Code\Device\W25Q80/user_data.c **** 	}
 480:Code\Device\W25Q80/user_data.c **** 	else
 481:Code\Device\W25Q80/user_data.c **** 	{
 482:Code\Device\W25Q80/user_data.c **** 		flag &= 0x7F;
ARM GAS  C:\Users\Administrator\AppData\Local\Temp\ccPIvPLo.s 			page 30


 1128              		.loc 1 482 0
 1129 002e 7F22     		movs	r2, #127
 1130 0030 1340     		ands	r3, r2
 1131              	.L51:
 483:Code\Device\W25Q80/user_data.c **** 	}
 484:Code\Device\W25Q80/user_data.c **** 	W25QXX_Write((uint8 *)&flag, OPEN_FLAG_BASE + tmp, 1);
 1132              		.loc 1 484 0
 1133 0032 2800     		movs	r0, r5
 1134 0034 0122     		movs	r2, #1
 1135 0036 2100     		movs	r1, r4
 482:Code\Device\W25Q80/user_data.c **** 	}
 1136              		.loc 1 482 0
 1137 0038 2B70     		strb	r3, [r5]
 485:Code\Device\W25Q80/user_data.c **** }
 1138              		.loc 1 485 0
 1139              		@ sp needed
 484:Code\Device\W25Q80/user_data.c **** }
 1140              		.loc 1 484 0
 1141 003a FFF7FEFF 		bl	W25QXX_Write
 1142              	.LVL99:
 1143              		.loc 1 485 0
 1144 003e 73BD     		pop	{r0, r1, r4, r5, r6, pc}
 1145              	.L53:
 1146              		.align	2
 1147              	.L52:
 1148 0040 88130000 		.word	5000
 1149              		.cfi_endproc
 1150              	.LFE83:
 1151              		.size	Write_Open_UploadFlag, .-Write_Open_UploadFlag
 1152              		.section	.text.Read_Open_UploadFlag,"ax",%progbits
 1153              		.align	1
 1154              		.global	Read_Open_UploadFlag
 1155              		.code	16
 1156              		.thumb_func
 1157              		.type	Read_Open_UploadFlag, %function
 1158              	Read_Open_UploadFlag:
 1159              	.LFB84:
 486:Code\Device\W25Q80/user_data.c **** 
 487:Code\Device\W25Q80/user_data.c **** //*************************************************************************************************
 488:Code\Device\W25Q80/user_data.c **** // Function name	: Read_Open_UploadFlag
 489:Code\Device\W25Q80/user_data.c **** // Description		: 读开门记录信息上报成功与否标志
 490:Code\Device\W25Q80/user_data.c **** // Parameter		: open_num	: 开门编号
 491:Code\Device\W25Q80/user_data.c **** // Return			: 上报结果
 492:Code\Device\W25Q80/user_data.c **** //-------------------------------------------------------------------------------------------------
 493:Code\Device\W25Q80/user_data.c **** // Info				: 
 494:Code\Device\W25Q80/user_data.c **** //*************************************************************************************************
 495:Code\Device\W25Q80/user_data.c **** uint8 Read_Open_UploadFlag(uint16 open_num)
 496:Code\Device\W25Q80/user_data.c **** {
 1160              		.loc 1 496 0
 1161              		.cfi_startproc
 1162              		@ args = 0, pretend = 0, frame = 8
 1163              		@ frame_needed = 0, uses_anonymous_args = 0
 1164              	.LVL100:
 1165 0000 13B5     		push	{r0, r1, r4, lr}
 1166              		.cfi_def_cfa_offset 16
 1167              		.cfi_offset 0, -16
 1168              		.cfi_offset 1, -12
ARM GAS  C:\Users\Administrator\AppData\Local\Temp\ccPIvPLo.s 			page 31


 1169              		.cfi_offset 4, -8
 1170              		.cfi_offset 14, -4
 497:Code\Device\W25Q80/user_data.c **** 	uint8 flag;
 498:Code\Device\W25Q80/user_data.c **** 	uint16 tmp;
 499:Code\Device\W25Q80/user_data.c **** 	
 500:Code\Device\W25Q80/user_data.c **** 	tmp = open_num % MAX_OPEN_NUM;
 501:Code\Device\W25Q80/user_data.c **** 	W25QXX_Read((uint8 *)&flag, OPEN_FLAG_BASE + tmp, 1);
 1171              		.loc 1 501 0
 1172 0002 0849     		ldr	r1, .L55
 1173 0004 FFF7FEFF 		bl	__aeabi_uidivmod
 1174              	.LVL101:
 1175 0008 D023     		movs	r3, #208
 1176 000a 89B2     		uxth	r1, r1
 1177 000c 5B01     		lsls	r3, r3, #5
 1178 000e C918     		adds	r1, r1, r3
 1179 0010 6B46     		mov	r3, sp
 1180 0012 DC1D     		adds	r4, r3, #7
 1181 0014 2000     		movs	r0, r4
 1182 0016 0122     		movs	r2, #1
 1183 0018 FFF7FEFF 		bl	W25QXX_Read
 1184              	.LVL102:
 502:Code\Device\W25Q80/user_data.c **** 	if (flag & 0x80)
 503:Code\Device\W25Q80/user_data.c **** 	{
 504:Code\Device\W25Q80/user_data.c **** 		return TRUE;
 1185              		.loc 1 504 0
 1186 001c 2078     		ldrb	r0, [r4]
 505:Code\Device\W25Q80/user_data.c **** 	}
 506:Code\Device\W25Q80/user_data.c **** 	else
 507:Code\Device\W25Q80/user_data.c **** 	{
 508:Code\Device\W25Q80/user_data.c **** 		return FALSE;
 509:Code\Device\W25Q80/user_data.c **** 	}
 510:Code\Device\W25Q80/user_data.c **** }
 1187              		.loc 1 510 0
 1188              		@ sp needed
 504:Code\Device\W25Q80/user_data.c **** 	}
 1189              		.loc 1 504 0
 1190 001e C009     		lsrs	r0, r0, #7
 1191              		.loc 1 510 0
 1192 0020 16BD     		pop	{r1, r2, r4, pc}
 1193              	.L56:
 1194 0022 C046     		.align	2
 1195              	.L55:
 1196 0024 88130000 		.word	5000
 1197              		.cfi_endproc
 1198              	.LFE84:
 1199              		.size	Read_Open_UploadFlag, .-Read_Open_UploadFlag
 1200              		.section	.text.Write_Open_Type,"ax",%progbits
 1201              		.align	1
 1202              		.global	Write_Open_Type
 1203              		.code	16
 1204              		.thumb_func
 1205              		.type	Write_Open_Type, %function
 1206              	Write_Open_Type:
 1207              	.LFB85:
 511:Code\Device\W25Q80/user_data.c **** 
 512:Code\Device\W25Q80/user_data.c **** //*************************************************************************************************
 513:Code\Device\W25Q80/user_data.c **** // Function name	: Write_Open_Type
ARM GAS  C:\Users\Administrator\AppData\Local\Temp\ccPIvPLo.s 			page 32


 514:Code\Device\W25Q80/user_data.c **** // Description		: 写开门记录的开门类型
 515:Code\Device\W25Q80/user_data.c **** // Parameter		: open_num	: 开门编号
 516:Code\Device\W25Q80/user_data.c **** //					: type		: 开门类型
 517:Code\Device\W25Q80/user_data.c **** // Return			: none
 518:Code\Device\W25Q80/user_data.c **** //-------------------------------------------------------------------------------------------------
 519:Code\Device\W25Q80/user_data.c **** // Info				: 
 520:Code\Device\W25Q80/user_data.c **** //*************************************************************************************************
 521:Code\Device\W25Q80/user_data.c **** void Write_Open_Type(uint16 open_num, uint8 type)
 522:Code\Device\W25Q80/user_data.c **** {
 1208              		.loc 1 522 0
 1209              		.cfi_startproc
 1210              		@ args = 0, pretend = 0, frame = 8
 1211              		@ frame_needed = 0, uses_anonymous_args = 0
 1212              	.LVL103:
 1213 0000 13B5     		push	{r0, r1, r4, lr}
 1214              		.cfi_def_cfa_offset 16
 1215              		.cfi_offset 0, -16
 1216              		.cfi_offset 1, -12
 1217              		.cfi_offset 4, -8
 1218              		.cfi_offset 14, -4
 523:Code\Device\W25Q80/user_data.c **** 	uint8 flag;
 524:Code\Device\W25Q80/user_data.c **** 	uint16 tmp;
 525:Code\Device\W25Q80/user_data.c **** 	
 526:Code\Device\W25Q80/user_data.c **** 	tmp = open_num % MAX_OPEN_NUM;
 527:Code\Device\W25Q80/user_data.c **** 	//W25QXX_Read((uint8 *)&flag, OPEN_FLAG_BASE + tmp, 1);
 528:Code\Device\W25Q80/user_data.c **** 	//flag = ((flag & 0x80) | (type & 0x7F));
 529:Code\Device\W25Q80/user_data.c **** 	flag = type;												// @12.06 modify
 1219              		.loc 1 529 0
 1220 0002 6B46     		mov	r3, sp
 1221 0004 D971     		strb	r1, [r3, #7]
 530:Code\Device\W25Q80/user_data.c **** 	W25QXX_Write((uint8 *)&flag, OPEN_FLAG_BASE + tmp, 1);
 1222              		.loc 1 530 0
 1223 0006 0649     		ldr	r1, .L58
 1224              	.LVL104:
 529:Code\Device\W25Q80/user_data.c **** 	W25QXX_Write((uint8 *)&flag, OPEN_FLAG_BASE + tmp, 1);
 1225              		.loc 1 529 0
 1226 0008 DC1D     		adds	r4, r3, #7
 1227              	.LVL105:
 1228              		.loc 1 530 0
 1229 000a FFF7FEFF 		bl	__aeabi_uidivmod
 1230              	.LVL106:
 1231 000e D023     		movs	r3, #208
 1232 0010 89B2     		uxth	r1, r1
 1233 0012 5B01     		lsls	r3, r3, #5
 1234 0014 C918     		adds	r1, r1, r3
 1235 0016 0122     		movs	r2, #1
 1236 0018 2000     		movs	r0, r4
 1237 001a FFF7FEFF 		bl	W25QXX_Write
 1238              	.LVL107:
 531:Code\Device\W25Q80/user_data.c **** }
 1239              		.loc 1 531 0
 1240              		@ sp needed
 1241 001e 13BD     		pop	{r0, r1, r4, pc}
 1242              	.L59:
 1243              		.align	2
 1244              	.L58:
 1245 0020 88130000 		.word	5000
ARM GAS  C:\Users\Administrator\AppData\Local\Temp\ccPIvPLo.s 			page 33


 1246              		.cfi_endproc
 1247              	.LFE85:
 1248              		.size	Write_Open_Type, .-Write_Open_Type
 1249              		.section	.text.Read_Open_Type,"ax",%progbits
 1250              		.align	1
 1251              		.global	Read_Open_Type
 1252              		.code	16
 1253              		.thumb_func
 1254              		.type	Read_Open_Type, %function
 1255              	Read_Open_Type:
 1256              	.LFB86:
 532:Code\Device\W25Q80/user_data.c **** 
 533:Code\Device\W25Q80/user_data.c **** //*************************************************************************************************
 534:Code\Device\W25Q80/user_data.c **** // Function name	: Read_Open_Type
 535:Code\Device\W25Q80/user_data.c **** // Description		: 读开门记录的开门类型
 536:Code\Device\W25Q80/user_data.c **** // Parameter		: open_num	: 开门编号
 537:Code\Device\W25Q80/user_data.c **** // Return			: 开门类型
 538:Code\Device\W25Q80/user_data.c **** //-------------------------------------------------------------------------------------------------
 539:Code\Device\W25Q80/user_data.c **** // Info				: ？？
 540:Code\Device\W25Q80/user_data.c **** //*************************************************************************************************
 541:Code\Device\W25Q80/user_data.c **** uint8 Read_Open_Type(uint16 open_num)
 542:Code\Device\W25Q80/user_data.c **** {
 1257              		.loc 1 542 0
 1258              		.cfi_startproc
 1259              		@ args = 0, pretend = 0, frame = 8
 1260              		@ frame_needed = 0, uses_anonymous_args = 0
 1261              	.LVL108:
 1262 0000 13B5     		push	{r0, r1, r4, lr}
 1263              		.cfi_def_cfa_offset 16
 1264              		.cfi_offset 0, -16
 1265              		.cfi_offset 1, -12
 1266              		.cfi_offset 4, -8
 1267              		.cfi_offset 14, -4
 543:Code\Device\W25Q80/user_data.c **** 	uint8 flag;
 544:Code\Device\W25Q80/user_data.c **** 	uint16 tmp;
 545:Code\Device\W25Q80/user_data.c **** 	
 546:Code\Device\W25Q80/user_data.c **** 	tmp = open_num % MAX_OPEN_NUM;
 547:Code\Device\W25Q80/user_data.c **** 	W25QXX_Read((uint8 *)&flag, OPEN_FLAG_BASE + tmp, 1);
 1268              		.loc 1 547 0
 1269 0002 0849     		ldr	r1, .L61
 1270 0004 FFF7FEFF 		bl	__aeabi_uidivmod
 1271              	.LVL109:
 1272 0008 D023     		movs	r3, #208
 1273 000a 89B2     		uxth	r1, r1
 1274 000c 5B01     		lsls	r3, r3, #5
 1275 000e C918     		adds	r1, r1, r3
 1276 0010 6B46     		mov	r3, sp
 1277 0012 DC1D     		adds	r4, r3, #7
 1278 0014 2000     		movs	r0, r4
 1279 0016 0122     		movs	r2, #1
 1280 0018 FFF7FEFF 		bl	W25QXX_Read
 1281              	.LVL110:
 548:Code\Device\W25Q80/user_data.c **** 	return (flag & 0x7F);
 1282              		.loc 1 548 0
 1283 001c 7F23     		movs	r3, #127
 1284 001e 2078     		ldrb	r0, [r4]
 549:Code\Device\W25Q80/user_data.c **** }
ARM GAS  C:\Users\Administrator\AppData\Local\Temp\ccPIvPLo.s 			page 34


 1285              		.loc 1 549 0
 1286              		@ sp needed
 548:Code\Device\W25Q80/user_data.c **** 	return (flag & 0x7F);
 1287              		.loc 1 548 0
 1288 0020 1840     		ands	r0, r3
 1289              		.loc 1 549 0
 1290 0022 16BD     		pop	{r1, r2, r4, pc}
 1291              	.L62:
 1292              		.align	2
 1293              	.L61:
 1294 0024 88130000 		.word	5000
 1295              		.cfi_endproc
 1296              	.LFE86:
 1297              		.size	Read_Open_Type, .-Read_Open_Type
 1298              		.section	.text.Write_Open_Qty,"ax",%progbits
 1299              		.align	1
 1300              		.global	Write_Open_Qty
 1301              		.code	16
 1302              		.thumb_func
 1303              		.type	Write_Open_Qty, %function
 1304              	Write_Open_Qty:
 1305              	.LFB87:
 550:Code\Device\W25Q80/user_data.c **** 
 551:Code\Device\W25Q80/user_data.c **** //*************************************************************************************************
 552:Code\Device\W25Q80/user_data.c **** // Function name	: Write_Open_Qty
 553:Code\Device\W25Q80/user_data.c **** // Description		: 写开门记录总数量
 554:Code\Device\W25Q80/user_data.c **** // Parameter		: openQty
 555:Code\Device\W25Q80/user_data.c **** // Return			: none
 556:Code\Device\W25Q80/user_data.c **** //-------------------------------------------------------------------------------------------------
 557:Code\Device\W25Q80/user_data.c **** // Info				: 
 558:Code\Device\W25Q80/user_data.c **** //*************************************************************************************************
 559:Code\Device\W25Q80/user_data.c **** void Write_Open_Qty(uint16 openQty)
 560:Code\Device\W25Q80/user_data.c **** {
 1306              		.loc 1 560 0
 1307              		.cfi_startproc
 1308              		@ args = 0, pretend = 0, frame = 8
 1309              		@ frame_needed = 0, uses_anonymous_args = 0
 1310              	.LVL111:
 1311 0000 07B5     		push	{r0, r1, r2, lr}
 1312              		.cfi_def_cfa_offset 16
 1313              		.cfi_offset 0, -16
 1314              		.cfi_offset 1, -12
 1315              		.cfi_offset 2, -8
 1316              		.cfi_offset 14, -4
 561:Code\Device\W25Q80/user_data.c ****     uint8 qty[2];
 562:Code\Device\W25Q80/user_data.c **** 	
 563:Code\Device\W25Q80/user_data.c ****     qty[0] = (openQty >> 8) & 0xff;
 564:Code\Device\W25Q80/user_data.c ****     qty[1] = openQty & 0xff;
 565:Code\Device\W25Q80/user_data.c **** 	W25QXX_Write(qty, OPEN_QTY_BASE, (uint16)sizeof(qty));
 1317              		.loc 1 565 0
 1318 0002 C821     		movs	r1, #200
 563:Code\Device\W25Q80/user_data.c ****     qty[1] = openQty & 0xff;
 1319              		.loc 1 563 0
 1320 0004 01AB     		add	r3, sp, #4
 1321 0006 020A     		lsrs	r2, r0, #8
 1322 0008 1A70     		strb	r2, [r3]
 564:Code\Device\W25Q80/user_data.c **** 	W25QXX_Write(qty, OPEN_QTY_BASE, (uint16)sizeof(qty));
ARM GAS  C:\Users\Administrator\AppData\Local\Temp\ccPIvPLo.s 			page 35


 1323              		.loc 1 564 0
 1324 000a 5870     		strb	r0, [r3, #1]
 1325              		.loc 1 565 0
 1326 000c 0222     		movs	r2, #2
 1327 000e 4902     		lsls	r1, r1, #9
 1328 0010 1800     		movs	r0, r3
 1329              	.LVL112:
 1330 0012 FFF7FEFF 		bl	W25QXX_Write
 1331              	.LVL113:
 566:Code\Device\W25Q80/user_data.c **** }
 1332              		.loc 1 566 0
 1333              		@ sp needed
 1334 0016 07BD     		pop	{r0, r1, r2, pc}
 1335              		.cfi_endproc
 1336              	.LFE87:
 1337              		.size	Write_Open_Qty, .-Write_Open_Qty
 1338              		.section	.text.Read_Open_Qty,"ax",%progbits
 1339              		.align	1
 1340              		.global	Read_Open_Qty
 1341              		.code	16
 1342              		.thumb_func
 1343              		.type	Read_Open_Qty, %function
 1344              	Read_Open_Qty:
 1345              	.LFB88:
 567:Code\Device\W25Q80/user_data.c **** 
 568:Code\Device\W25Q80/user_data.c **** //*************************************************************************************************
 569:Code\Device\W25Q80/user_data.c **** // Function name	: Read_Open_Qty
 570:Code\Device\W25Q80/user_data.c **** // Description		: 读开门记录总数量
 571:Code\Device\W25Q80/user_data.c **** // Parameter		: openQty
 572:Code\Device\W25Q80/user_data.c **** // Return			: openQty
 573:Code\Device\W25Q80/user_data.c **** //-------------------------------------------------------------------------------------------------
 574:Code\Device\W25Q80/user_data.c **** // Info				: 
 575:Code\Device\W25Q80/user_data.c **** //*************************************************************************************************
 576:Code\Device\W25Q80/user_data.c **** uint16 Read_Open_Qty(void)
 577:Code\Device\W25Q80/user_data.c **** {
 1346              		.loc 1 577 0
 1347              		.cfi_startproc
 1348              		@ args = 0, pretend = 0, frame = 8
 1349              		@ frame_needed = 0, uses_anonymous_args = 0
 1350 0000 13B5     		push	{r0, r1, r4, lr}
 1351              		.cfi_def_cfa_offset 16
 1352              		.cfi_offset 0, -16
 1353              		.cfi_offset 1, -12
 1354              		.cfi_offset 4, -8
 1355              		.cfi_offset 14, -4
 578:Code\Device\W25Q80/user_data.c **** 	uint8 qty[2];
 579:Code\Device\W25Q80/user_data.c **** 	
 580:Code\Device\W25Q80/user_data.c **** 	W25QXX_Read(qty, OPEN_QTY_BASE, (uint16)sizeof(qty));
 1356              		.loc 1 580 0
 1357 0002 C821     		movs	r1, #200
 1358 0004 01AC     		add	r4, sp, #4
 1359 0006 2000     		movs	r0, r4
 1360 0008 0222     		movs	r2, #2
 1361 000a 4902     		lsls	r1, r1, #9
 1362 000c FFF7FEFF 		bl	W25QXX_Read
 1363              	.LVL114:
 581:Code\Device\W25Q80/user_data.c **** 	return ((uint16)((qty[0] << 8) | qty[1]));
ARM GAS  C:\Users\Administrator\AppData\Local\Temp\ccPIvPLo.s 			page 36


 1364              		.loc 1 581 0
 1365 0010 2078     		ldrb	r0, [r4]
 1366 0012 6378     		ldrb	r3, [r4, #1]
 1367 0014 0002     		lsls	r0, r0, #8
 1368 0016 1843     		orrs	r0, r3
 582:Code\Device\W25Q80/user_data.c **** }
 1369              		.loc 1 582 0
 1370              		@ sp needed
 1371 0018 16BD     		pop	{r1, r2, r4, pc}
 1372              		.cfi_endproc
 1373              	.LFE88:
 1374              		.size	Read_Open_Qty, .-Read_Open_Qty
 1375              		.section	.text.Write_OpenInfo,"ax",%progbits
 1376              		.align	1
 1377              		.global	Write_OpenInfo
 1378              		.code	16
 1379              		.thumb_func
 1380              		.type	Write_OpenInfo, %function
 1381              	Write_OpenInfo:
 1382              	.LFB89:
 583:Code\Device\W25Q80/user_data.c **** 
 584:Code\Device\W25Q80/user_data.c **** //*************************************************************************************************
 585:Code\Device\W25Q80/user_data.c **** // Function name	: Write_OpenInfo
 586:Code\Device\W25Q80/user_data.c **** // Description		: 写开门记录信息(自带数量处理)
 587:Code\Device\W25Q80/user_data.c **** // Parameter		: openInfo	: 开门信息
 588:Code\Device\W25Q80/user_data.c **** //					: openType	: 开门类型
 589:Code\Device\W25Q80/user_data.c **** // Return			: none
 590:Code\Device\W25Q80/user_data.c **** //-------------------------------------------------------------------------------------------------
 591:Code\Device\W25Q80/user_data.c **** // Info				: 开门记录也从0开始，0-4999，5000为一周期；
 592:Code\Device\W25Q80/user_data.c **** //*************************************************************************************************
 593:Code\Device\W25Q80/user_data.c **** void Write_OpenInfo(open_door_t *openInfo, uint8_t openType)
 594:Code\Device\W25Q80/user_data.c **** {
 1383              		.loc 1 594 0
 1384              		.cfi_startproc
 1385              		@ args = 0, pretend = 0, frame = 32
 1386              		@ frame_needed = 0, uses_anonymous_args = 0
 1387              	.LVL115:
 1388 0000 F0B5     		push	{r4, r5, r6, r7, lr}
 1389              		.cfi_def_cfa_offset 20
 1390              		.cfi_offset 4, -20
 1391              		.cfi_offset 5, -16
 1392              		.cfi_offset 6, -12
 1393              		.cfi_offset 7, -8
 1394              		.cfi_offset 14, -4
 1395 0002 89B0     		sub	sp, sp, #36
 1396              		.cfi_def_cfa_offset 56
 1397              		.loc 1 594 0
 1398 0004 0F00     		movs	r7, r1
 595:Code\Device\W25Q80/user_data.c **** 	uint16 open_qty, tmp;
 596:Code\Device\W25Q80/user_data.c **** 	
 597:Code\Device\W25Q80/user_data.c **** 	open_qty = Read_Open_Qty();										// 读出的数量即是下一个要写的偏移量		//
 598:Code\Device\W25Q80/user_data.c **** 	tmp = open_qty % MAX_OPEN_NUM;
 599:Code\Device\W25Q80/user_data.c **** 	uint8 openinfo_tmp[17] = {0x01};
 1399              		.loc 1 599 0
 1400 0006 1126     		movs	r6, #17
 594:Code\Device\W25Q80/user_data.c **** 	uint16 open_qty, tmp;
 1401              		.loc 1 594 0
ARM GAS  C:\Users\Administrator\AppData\Local\Temp\ccPIvPLo.s 			page 37


 1402 0008 0190     		str	r0, [sp, #4]
 597:Code\Device\W25Q80/user_data.c **** 	tmp = open_qty % MAX_OPEN_NUM;
 1403              		.loc 1 597 0
 1404 000a FFF7FEFF 		bl	Read_Open_Qty
 1405              	.LVL116:
 1406              		.loc 1 599 0
 1407 000e 03AD     		add	r5, sp, #12
 597:Code\Device\W25Q80/user_data.c **** 	tmp = open_qty % MAX_OPEN_NUM;
 1408              		.loc 1 597 0
 1409 0010 0400     		movs	r4, r0
 1410              	.LVL117:
 1411              		.loc 1 599 0
 1412 0012 3200     		movs	r2, r6
 1413 0014 0021     		movs	r1, #0
 1414 0016 2800     		movs	r0, r5
 1415 0018 FFF7FEFF 		bl	memset
 1416              	.LVL118:
 1417 001c 0123     		movs	r3, #1
 1418 001e 2B70     		strb	r3, [r5]
 600:Code\Device\W25Q80/user_data.c **** 	
 601:Code\Device\W25Q80/user_data.c **** 	
 602:Code\Device\W25Q80/user_data.c **** 	memcpy(openinfo_tmp+1,openInfo,16);
 1419              		.loc 1 602 0
 1420 0020 02AB     		add	r3, sp, #8
 1421 0022 1022     		movs	r2, #16
 1422 0024 581D     		adds	r0, r3, #5
 1423 0026 0199     		ldr	r1, [sp, #4]
 1424 0028 FFF7FEFF 		bl	memcpy
 1425              	.LVL119:
 603:Code\Device\W25Q80/user_data.c **** 		#if 0
 604:Code\Device\W25Q80/user_data.c **** 		// 读出写入前的flash数据测试
 605:Code\Device\W25Q80/user_data.c **** 		//W25QXX_Read((uint8 *)&tmp_t, OPEN_INFO_BASE + sizeof(open_door_t) * tmp, (uint16)sizeof(open_do
 606:Code\Device\W25Q80/user_data.c **** 		DBG_SOFT_PutStr("\nTest before write in open date :\n");
 607:Code\Device\W25Q80/user_data.c **** 		DBG_SOFT_PrintfHex((uint8 *)openinfo_tmp,(uint16)sizeof(open_door_t)+1,16);
 608:Code\Device\W25Q80/user_data.c **** 		#endif	
 609:Code\Device\W25Q80/user_data.c **** 		
 610:Code\Device\W25Q80/user_data.c **** 	W25QXX_Write((uint8 *)openinfo_tmp, OPEN_INFO_BASE + (1+sizeof(open_door_t)) * tmp, (uint16)sizeof
 1426              		.loc 1 610 0
 1427 002c 0D49     		ldr	r1, .L70
 1428 002e 2000     		movs	r0, r4
 1429 0030 FFF7FEFF 		bl	__aeabi_uidivmod
 1430              	.LVL120:
 1431 0034 B823     		movs	r3, #184
 1432 0036 89B2     		uxth	r1, r1
 1433 0038 7143     		muls	r1, r6
 1434 003a 9B01     		lsls	r3, r3, #6
 1435 003c C918     		adds	r1, r1, r3
 1436 003e 3200     		movs	r2, r6
 1437 0040 2800     		movs	r0, r5
 1438 0042 FFF7FEFF 		bl	W25QXX_Write
 1439              	.LVL121:
 611:Code\Device\W25Q80/user_data.c **** 	if(openType)
 1440              		.loc 1 611 0
 1441 0046 002F     		cmp	r7, #0
 1442 0048 07D0     		beq	.L66
 612:Code\Device\W25Q80/user_data.c **** 	{
 613:Code\Device\W25Q80/user_data.c **** 		Write_Open_Type(open_qty, openType);						// 写入开门类型信息						//
ARM GAS  C:\Users\Administrator\AppData\Local\Temp\ccPIvPLo.s 			page 38


 1443              		.loc 1 613 0
 1444 004a 2000     		movs	r0, r4
 1445 004c 3900     		movs	r1, r7
 614:Code\Device\W25Q80/user_data.c **** 	
 615:Code\Device\W25Q80/user_data.c **** 		open_qty++;
 616:Code\Device\W25Q80/user_data.c **** 		Write_Open_Qty(open_qty);									// 更新开门数量							//
 1446              		.loc 1 616 0
 1447 004e 0134     		adds	r4, r4, #1
 1448              	.LVL122:
 613:Code\Device\W25Q80/user_data.c **** 	
 1449              		.loc 1 613 0
 1450 0050 FFF7FEFF 		bl	Write_Open_Type
 1451              	.LVL123:
 1452              		.loc 1 616 0
 1453 0054 A0B2     		uxth	r0, r4
 1454 0056 FFF7FEFF 		bl	Write_Open_Qty
 1455              	.LVL124:
 1456              	.L66:
 617:Code\Device\W25Q80/user_data.c **** 	}
 618:Code\Device\W25Q80/user_data.c **** 		#if 0
 619:Code\Device\W25Q80/user_data.c **** 		// 读出写入的flash数据测试
 620:Code\Device\W25Q80/user_data.c **** 		uint8 temp[17] = {0x00};	
 621:Code\Device\W25Q80/user_data.c **** 		W25QXX_Read((uint8 *)temp, OPEN_INFO_BASE + (1+sizeof(open_door_t)) * tmp, (uint16)sizeof(open_do
 622:Code\Device\W25Q80/user_data.c **** 		DBG_SOFT_PutStr("\nTest after write in open date :\n");
 623:Code\Device\W25Q80/user_data.c **** 		DBG_SOFT_PrintfHex((uint8 *)temp,(uint16)sizeof(open_door_t)+1,16);
 624:Code\Device\W25Q80/user_data.c **** 		#endif	
 625:Code\Device\W25Q80/user_data.c **** 	uploadpolling_stop = 0;											// 清除开门信息轮询上报停止位			// 
 1457              		.loc 1 625 0
 1458 005a 0022     		movs	r2, #0
 1459 005c 024B     		ldr	r3, .L70+4
 1460 005e 1A70     		strb	r2, [r3]
 626:Code\Device\W25Q80/user_data.c **** }
 1461              		.loc 1 626 0
 1462 0060 09B0     		add	sp, sp, #36
 1463              		@ sp needed
 1464 0062 F0BD     		pop	{r4, r5, r6, r7, pc}
 1465              	.L71:
 1466              		.align	2
 1467              	.L70:
 1468 0064 88130000 		.word	5000
 1469 0068 00000000 		.word	uploadpolling_stop
 1470              		.cfi_endproc
 1471              	.LFE89:
 1472              		.size	Write_OpenInfo, .-Write_OpenInfo
 1473              		.section	.text.Read_OpenInfo,"ax",%progbits
 1474              		.align	1
 1475              		.global	Read_OpenInfo
 1476              		.code	16
 1477              		.thumb_func
 1478              		.type	Read_OpenInfo, %function
 1479              	Read_OpenInfo:
 1480              	.LFB90:
 627:Code\Device\W25Q80/user_data.c **** 
 628:Code\Device\W25Q80/user_data.c **** //*************************************************************************************************
 629:Code\Device\W25Q80/user_data.c **** // Function name	: Read_OpenInfo
 630:Code\Device\W25Q80/user_data.c **** // Description		: 读开门记录信息
 631:Code\Device\W25Q80/user_data.c **** // Parameter		: open_num	: 开门记录编号
ARM GAS  C:\Users\Administrator\AppData\Local\Temp\ccPIvPLo.s 			page 39


 632:Code\Device\W25Q80/user_data.c **** //					  openInfo	: 读回来的开门信息
 633:Code\Device\W25Q80/user_data.c **** // Return			: none
 634:Code\Device\W25Q80/user_data.c **** //-------------------------------------------------------------------------------------------------
 635:Code\Device\W25Q80/user_data.c **** // Info				: 开门记录也从0开始，0-4999，5000为一周期；
 636:Code\Device\W25Q80/user_data.c **** //*************************************************************************************************
 637:Code\Device\W25Q80/user_data.c **** void Read_OpenInfo(uint16 open_num, open_door_t *openInfo)
 638:Code\Device\W25Q80/user_data.c **** {
 1481              		.loc 1 638 0
 1482              		.cfi_startproc
 1483              		@ args = 0, pretend = 0, frame = 24
 1484              		@ frame_needed = 0, uses_anonymous_args = 0
 1485              	.LVL125:
 1486 0000 70B5     		push	{r4, r5, r6, lr}
 1487              		.cfi_def_cfa_offset 16
 1488              		.cfi_offset 4, -16
 1489              		.cfi_offset 5, -12
 1490              		.cfi_offset 6, -8
 1491              		.cfi_offset 14, -4
 639:Code\Device\W25Q80/user_data.c ****     uint16 tmp;
 640:Code\Device\W25Q80/user_data.c **** 	uint8 data_temp[17] = {0};		//每条开门记录开头加一个标志数据0x01
 1492              		.loc 1 640 0
 1493 0002 1126     		movs	r6, #17
 638:Code\Device\W25Q80/user_data.c ****     uint16 tmp;
 1494              		.loc 1 638 0
 1495 0004 0400     		movs	r4, r0
 1496 0006 86B0     		sub	sp, sp, #24
 1497              		.cfi_def_cfa_offset 40
 1498              		.loc 1 640 0
 1499 0008 3200     		movs	r2, r6
 638:Code\Device\W25Q80/user_data.c ****     uint16 tmp;
 1500              		.loc 1 638 0
 1501 000a 0D00     		movs	r5, r1
 1502              		.loc 1 640 0
 1503 000c 01A8     		add	r0, sp, #4
 1504              	.LVL126:
 1505 000e 0021     		movs	r1, #0
 1506              	.LVL127:
 1507 0010 FFF7FEFF 		bl	memset
 1508              	.LVL128:
 641:Code\Device\W25Q80/user_data.c **** 	uint32 readoff = 0;
 642:Code\Device\W25Q80/user_data.c **** 	
 643:Code\Device\W25Q80/user_data.c **** 	tmp = open_num % MAX_OPEN_NUM;
 644:Code\Device\W25Q80/user_data.c **** 	//W25QXX_Read((uint8 *)data_temp, OPEN_INFO_BASE + (1+sizeof(open_door_t)) * tmp, (uint16)sizeof(o
 645:Code\Device\W25Q80/user_data.c **** 	readoff = (1+sizeof(open_door_t)) * tmp;
 1509              		.loc 1 645 0
 1510 0014 2000     		movs	r0, r4
 1511 0016 1149     		ldr	r1, .L76
 1512 0018 FFF7FEFF 		bl	__aeabi_uidivmod
 1513              	.LVL129:
 1514 001c 8CB2     		uxth	r4, r1
 1515              	.LVL130:
 1516 001e 7443     		muls	r4, r6
 1517              	.LVL131:
 646:Code\Device\W25Q80/user_data.c **** 	if((readoff % 0xff) == 0)
 1518              		.loc 1 646 0
 1519 0020 FF21     		movs	r1, #255
 1520 0022 2000     		movs	r0, r4
ARM GAS  C:\Users\Administrator\AppData\Local\Temp\ccPIvPLo.s 			page 40


 1521 0024 FFF7FEFF 		bl	__aeabi_uidivmod
 1522              	.LVL132:
 1523 0028 0029     		cmp	r1, #0
 1524 002a 05D1     		bne	.L73
 1525              	.LVL133:
 647:Code\Device\W25Q80/user_data.c **** 	{
 648:Code\Device\W25Q80/user_data.c **** 		readoff += 1;
 649:Code\Device\W25Q80/user_data.c **** 		W25QXX_Read((uint8 *)data_temp+1, OPEN_INFO_BASE + (readoff), (sizeof(open_door_t)));
 1526              		.loc 1 649 0
 1527 002c 0C4B     		ldr	r3, .L76+4
 1528 002e 1022     		movs	r2, #16
 1529 0030 E118     		adds	r1, r4, r3
 1530 0032 6B46     		mov	r3, sp
 1531 0034 581D     		adds	r0, r3, #5
 1532 0036 04E0     		b	.L75
 1533              	.LVL134:
 1534              	.L73:
 650:Code\Device\W25Q80/user_data.c **** 	}
 651:Code\Device\W25Q80/user_data.c **** 	else
 652:Code\Device\W25Q80/user_data.c **** 	{
 653:Code\Device\W25Q80/user_data.c **** 		W25QXX_Read((uint8 *)data_temp, OPEN_INFO_BASE + (readoff), (sizeof(open_door_t) + 1));
 1535              		.loc 1 653 0
 1536 0038 B823     		movs	r3, #184
 1537 003a 3200     		movs	r2, r6
 1538 003c 9B01     		lsls	r3, r3, #6
 1539 003e E118     		adds	r1, r4, r3
 1540 0040 01A8     		add	r0, sp, #4
 1541              	.LVL135:
 1542              	.L75:
 1543 0042 FFF7FEFF 		bl	W25QXX_Read
 1544              	.LVL136:
 654:Code\Device\W25Q80/user_data.c **** 	}
 655:Code\Device\W25Q80/user_data.c **** 	
 656:Code\Device\W25Q80/user_data.c **** 	memcpy(openInfo, data_temp+1, sizeof(open_door_t));
 1545              		.loc 1 656 0
 1546 0046 6B46     		mov	r3, sp
 1547 0048 1022     		movs	r2, #16
 1548 004a 591D     		adds	r1, r3, #5
 1549 004c 2800     		movs	r0, r5
 1550 004e FFF7FEFF 		bl	memcpy
 1551              	.LVL137:
 657:Code\Device\W25Q80/user_data.c **** 	
 658:Code\Device\W25Q80/user_data.c **** 	Endpoint_exchange(openInfo->card_uid);									// A卡数据位置转换 @ 18-1-17			//
 1552              		.loc 1 658 0
 1553 0052 2800     		movs	r0, r5
 1554 0054 FFF7FEFF 		bl	Endpoint_exchange
 1555              	.LVL138:
 659:Code\Device\W25Q80/user_data.c **** }
 1556              		.loc 1 659 0
 1557 0058 06B0     		add	sp, sp, #24
 1558              		@ sp needed
 1559              	.LVL139:
 1560 005a 70BD     		pop	{r4, r5, r6, pc}
 1561              	.L77:
 1562              		.align	2
 1563              	.L76:
 1564 005c 88130000 		.word	5000
ARM GAS  C:\Users\Administrator\AppData\Local\Temp\ccPIvPLo.s 			page 41


 1565 0060 012E0000 		.word	11777
 1566              		.cfi_endproc
 1567              	.LFE90:
 1568              		.size	Read_OpenInfo, .-Read_OpenInfo
 1569              		.section	.text.Find_Open_StartNum,"ax",%progbits
 1570              		.align	1
 1571              		.global	Find_Open_StartNum
 1572              		.code	16
 1573              		.thumb_func
 1574              		.type	Find_Open_StartNum, %function
 1575              	Find_Open_StartNum:
 1576              	.LFB91:
 660:Code\Device\W25Q80/user_data.c **** 
 661:Code\Device\W25Q80/user_data.c **** //*************************************************************************************************
 662:Code\Device\W25Q80/user_data.c **** // Function name	: Find_Open_StartNum
 663:Code\Device\W25Q80/user_data.c **** // Description		: 根据开始时间查找开始编号
 664:Code\Device\W25Q80/user_data.c **** // Parameter		: start_time
 665:Code\Device\W25Q80/user_data.c **** // Return			: 开门编号，找不到返回0xFFFF
 666:Code\Device\W25Q80/user_data.c **** //-------------------------------------------------------------------------------------------------
 667:Code\Device\W25Q80/user_data.c **** // Info				: 
 668:Code\Device\W25Q80/user_data.c **** //*************************************************************************************************
 669:Code\Device\W25Q80/user_data.c **** uint16 Find_Open_StartNum(uint32 start_time)
 670:Code\Device\W25Q80/user_data.c **** {
 1577              		.loc 1 670 0
 1578              		.cfi_startproc
 1579              		@ args = 0, pretend = 0, frame = 16
 1580              		@ frame_needed = 0, uses_anonymous_args = 0
 1581              	.LVL140:
 1582 0000 7FB5     		push	{r0, r1, r2, r3, r4, r5, r6, lr}
 1583              		.cfi_def_cfa_offset 32
 1584              		.cfi_offset 0, -32
 1585              		.cfi_offset 1, -28
 1586              		.cfi_offset 2, -24
 1587              		.cfi_offset 3, -20
 1588              		.cfi_offset 4, -16
 1589              		.cfi_offset 5, -12
 1590              		.cfi_offset 6, -8
 1591              		.cfi_offset 14, -4
 1592              		.loc 1 670 0
 1593 0002 0600     		movs	r6, r0
 671:Code\Device\W25Q80/user_data.c **** 	uint16 i, qty;
 672:Code\Device\W25Q80/user_data.c **** 	uint32 tmp1;
 673:Code\Device\W25Q80/user_data.c **** 	open_door_t openTmp;
 674:Code\Device\W25Q80/user_data.c ****     
 675:Code\Device\W25Q80/user_data.c **** 	qty = Read_Open_Qty();
 1594              		.loc 1 675 0
 1595 0004 FFF7FEFF 		bl	Read_Open_Qty
 1596              	.LVL141:
 1597 0008 0500     		movs	r5, r0
 1598              	.LVL142:
 676:Code\Device\W25Q80/user_data.c **** 	if (qty == 0)
 677:Code\Device\W25Q80/user_data.c **** 	{
 678:Code\Device\W25Q80/user_data.c **** 		return 0;
 1599              		.loc 1 678 0
 1600 000a 0020     		movs	r0, #0
 676:Code\Device\W25Q80/user_data.c **** 	if (qty == 0)
 1601              		.loc 1 676 0
ARM GAS  C:\Users\Administrator\AppData\Local\Temp\ccPIvPLo.s 			page 42


 1602 000c 8542     		cmp	r5, r0
 1603 000e 21D0     		beq	.L79
 679:Code\Device\W25Q80/user_data.c **** 	}
 680:Code\Device\W25Q80/user_data.c **** 	else if (qty <= MAX_OPEN_NUM)
 1604              		.loc 1 680 0
 1605 0010 114B     		ldr	r3, .L91
 1606 0012 9D42     		cmp	r5, r3
 1607 0014 0ED8     		bhi	.L80
 1608 0016 0400     		movs	r4, r0
 1609              	.L81:
 1610              	.LVL143:
 681:Code\Device\W25Q80/user_data.c **** 	{
 682:Code\Device\W25Q80/user_data.c **** 		for (i = 0; i < qty; i++)
 683:Code\Device\W25Q80/user_data.c **** 		{
 684:Code\Device\W25Q80/user_data.c **** 			Read_OpenInfo(i, &openTmp);
 1611              		.loc 1 684 0
 1612 0018 6946     		mov	r1, sp
 1613 001a 2000     		movs	r0, r4
 1614 001c FFF7FEFF 		bl	Read_OpenInfo
 1615              	.LVL144:
 1616 0020 029B     		ldr	r3, [sp, #8]
 1617 0022 1BBA     		rev	r3, r3
 1618              	.LVL145:
 685:Code\Device\W25Q80/user_data.c **** 			tmp1 = BYTE2LONG(openTmp.open_time[0], openTmp.open_time[1],
 686:Code\Device\W25Q80/user_data.c **** 			                 openTmp.open_time[2], openTmp.open_time[3]);
 687:Code\Device\W25Q80/user_data.c **** 			if (tmp1 >= start_time)
 1619              		.loc 1 687 0
 1620 0024 B342     		cmp	r3, r6
 1621 0026 14D2     		bcs	.L87
 682:Code\Device\W25Q80/user_data.c **** 		{
 1622              		.loc 1 682 0 discriminator 2
 1623 0028 0134     		adds	r4, r4, #1
 1624              	.LVL146:
 1625 002a A4B2     		uxth	r4, r4
 1626              	.LVL147:
 1627 002c A542     		cmp	r5, r4
 1628 002e F3D1     		bne	.L81
 1629              	.LVL148:
 1630              	.L84:
 688:Code\Device\W25Q80/user_data.c **** 			{
 689:Code\Device\W25Q80/user_data.c **** 				return i;
 690:Code\Device\W25Q80/user_data.c **** 			}
 691:Code\Device\W25Q80/user_data.c **** 		}
 692:Code\Device\W25Q80/user_data.c **** 	}
 693:Code\Device\W25Q80/user_data.c **** 	else
 694:Code\Device\W25Q80/user_data.c **** 	{
 695:Code\Device\W25Q80/user_data.c **** 		for (i = qty - MAX_OPEN_NUM; i < qty; i++)
 696:Code\Device\W25Q80/user_data.c **** 		{
 697:Code\Device\W25Q80/user_data.c **** 			Read_OpenInfo(i, &openTmp);
 698:Code\Device\W25Q80/user_data.c **** 			tmp1 = BYTE2LONG(openTmp.open_time[0], openTmp.open_time[1],
 699:Code\Device\W25Q80/user_data.c **** 							 openTmp.open_time[2], openTmp.open_time[3]);
 700:Code\Device\W25Q80/user_data.c **** 			if (tmp1 >= start_time)
 701:Code\Device\W25Q80/user_data.c **** 			{
 702:Code\Device\W25Q80/user_data.c **** 				return i;
 703:Code\Device\W25Q80/user_data.c **** 			}
 704:Code\Device\W25Q80/user_data.c **** 		}
 705:Code\Device\W25Q80/user_data.c **** 	}
ARM GAS  C:\Users\Administrator\AppData\Local\Temp\ccPIvPLo.s 			page 43


 706:Code\Device\W25Q80/user_data.c **** 	return 0xFFFF;
 1631              		.loc 1 706 0
 1632 0030 0A48     		ldr	r0, .L91+4
 1633 0032 0FE0     		b	.L79
 1634              	.LVL149:
 1635              	.L80:
 695:Code\Device\W25Q80/user_data.c **** 		{
 1636              		.loc 1 695 0
 1637 0034 0A4B     		ldr	r3, .L91+8
 1638 0036 EC18     		adds	r4, r5, r3
 1639              	.L90:
 695:Code\Device\W25Q80/user_data.c **** 		{
 1640              		.loc 1 695 0 is_stmt 0 discriminator 2
 1641 0038 A4B2     		uxth	r4, r4
 1642              	.LVL150:
 1643 003a AC42     		cmp	r4, r5
 1644 003c F8D2     		bcs	.L84
 697:Code\Device\W25Q80/user_data.c **** 			tmp1 = BYTE2LONG(openTmp.open_time[0], openTmp.open_time[1],
 1645              		.loc 1 697 0 is_stmt 1
 1646 003e 6946     		mov	r1, sp
 1647 0040 2000     		movs	r0, r4
 1648 0042 FFF7FEFF 		bl	Read_OpenInfo
 1649              	.LVL151:
 1650 0046 029B     		ldr	r3, [sp, #8]
 1651 0048 1BBA     		rev	r3, r3
 1652              	.LVL152:
 700:Code\Device\W25Q80/user_data.c **** 			{
 1653              		.loc 1 700 0
 1654 004a 9E42     		cmp	r6, r3
 1655 004c 01D9     		bls	.L87
 695:Code\Device\W25Q80/user_data.c **** 		{
 1656              		.loc 1 695 0 discriminator 2
 1657 004e 0134     		adds	r4, r4, #1
 1658              	.LVL153:
 1659 0050 F2E7     		b	.L90
 1660              	.LVL154:
 1661              	.L87:
 1662 0052 2000     		movs	r0, r4
 1663              	.LVL155:
 1664              	.L79:
 707:Code\Device\W25Q80/user_data.c **** }
 1665              		.loc 1 707 0
 1666 0054 04B0     		add	sp, sp, #16
 1667              		@ sp needed
 1668              	.LVL156:
 1669              	.LVL157:
 1670 0056 70BD     		pop	{r4, r5, r6, pc}
 1671              	.L92:
 1672              		.align	2
 1673              	.L91:
 1674 0058 88130000 		.word	5000
 1675 005c FFFF0000 		.word	65535
 1676 0060 78ECFFFF 		.word	-5000
 1677              		.cfi_endproc
 1678              	.LFE91:
 1679              		.size	Find_Open_StartNum, .-Find_Open_StartNum
 1680              		.section	.text.Find_Open_EndNum,"ax",%progbits
ARM GAS  C:\Users\Administrator\AppData\Local\Temp\ccPIvPLo.s 			page 44


 1681              		.align	1
 1682              		.global	Find_Open_EndNum
 1683              		.code	16
 1684              		.thumb_func
 1685              		.type	Find_Open_EndNum, %function
 1686              	Find_Open_EndNum:
 1687              	.LFB92:
 708:Code\Device\W25Q80/user_data.c **** 
 709:Code\Device\W25Q80/user_data.c **** //*************************************************************************************************
 710:Code\Device\W25Q80/user_data.c **** // Function name	: Find_Open_StartNum
 711:Code\Device\W25Q80/user_data.c **** // Description		: 根据结束时间查找结束编号
 712:Code\Device\W25Q80/user_data.c **** // Parameter		: end_time
 713:Code\Device\W25Q80/user_data.c **** // Return			: 开门编号，找不到返回0xFFFF
 714:Code\Device\W25Q80/user_data.c **** //-------------------------------------------------------------------------------------------------
 715:Code\Device\W25Q80/user_data.c **** // Info				: 
 716:Code\Device\W25Q80/user_data.c **** //*************************************************************************************************
 717:Code\Device\W25Q80/user_data.c **** uint16 Find_Open_EndNum(uint32 end_time)
 718:Code\Device\W25Q80/user_data.c **** {
 1688              		.loc 1 718 0
 1689              		.cfi_startproc
 1690              		@ args = 0, pretend = 0, frame = 16
 1691              		@ frame_needed = 0, uses_anonymous_args = 0
 1692              	.LVL158:
 1693 0000 7FB5     		push	{r0, r1, r2, r3, r4, r5, r6, lr}
 1694              		.cfi_def_cfa_offset 32
 1695              		.cfi_offset 0, -32
 1696              		.cfi_offset 1, -28
 1697              		.cfi_offset 2, -24
 1698              		.cfi_offset 3, -20
 1699              		.cfi_offset 4, -16
 1700              		.cfi_offset 5, -12
 1701              		.cfi_offset 6, -8
 1702              		.cfi_offset 14, -4
 1703              		.loc 1 718 0
 1704 0002 0500     		movs	r5, r0
 719:Code\Device\W25Q80/user_data.c **** 	uint16 i, qty;
 720:Code\Device\W25Q80/user_data.c **** 	uint32 tmp1;
 721:Code\Device\W25Q80/user_data.c **** 	open_door_t openTmp;
 722:Code\Device\W25Q80/user_data.c **** 
 723:Code\Device\W25Q80/user_data.c **** 	qty = Read_Open_Qty();
 1705              		.loc 1 723 0
 1706 0004 FFF7FEFF 		bl	Read_Open_Qty
 1707              	.LVL159:
 1708 0008 0600     		movs	r6, r0
 1709              	.LVL160:
 724:Code\Device\W25Q80/user_data.c **** 	if (qty == 0)
 725:Code\Device\W25Q80/user_data.c **** 	{
 726:Code\Device\W25Q80/user_data.c **** 		return 0;
 1710              		.loc 1 726 0
 1711 000a 0020     		movs	r0, #0
 724:Code\Device\W25Q80/user_data.c **** 	if (qty == 0)
 1712              		.loc 1 724 0
 1713 000c 8642     		cmp	r6, r0
 1714 000e 20D0     		beq	.L94
 727:Code\Device\W25Q80/user_data.c **** 	}
 728:Code\Device\W25Q80/user_data.c **** 	else if (qty <= MAX_OPEN_NUM)
 1715              		.loc 1 728 0
ARM GAS  C:\Users\Administrator\AppData\Local\Temp\ccPIvPLo.s 			page 45


 1716 0010 114B     		ldr	r3, .L103
 1717 0012 741E     		subs	r4, r6, #1
 729:Code\Device\W25Q80/user_data.c **** 	{
 730:Code\Device\W25Q80/user_data.c **** 		for (i = qty -1; i >= 0; i--)
 1718              		.loc 1 730 0
 1719 0014 A4B2     		uxth	r4, r4
 728:Code\Device\W25Q80/user_data.c **** 	{
 1720              		.loc 1 728 0
 1721 0016 9E42     		cmp	r6, r3
 1722 0018 14D8     		bhi	.L97
 1723              	.L96:
 1724              	.LVL161:
 731:Code\Device\W25Q80/user_data.c **** 		{
 732:Code\Device\W25Q80/user_data.c **** 			Read_OpenInfo(i, &openTmp);
 1725              		.loc 1 732 0
 1726 001a 6946     		mov	r1, sp
 1727 001c 2000     		movs	r0, r4
 1728 001e FFF7FEFF 		bl	Read_OpenInfo
 1729              	.LVL162:
 1730 0022 029B     		ldr	r3, [sp, #8]
 1731 0024 1BBA     		rev	r3, r3
 1732              	.LVL163:
 733:Code\Device\W25Q80/user_data.c **** 			tmp1 = BYTE2LONG(openTmp.open_time[0], openTmp.open_time[1],
 734:Code\Device\W25Q80/user_data.c **** 							 openTmp.open_time[2], openTmp.open_time[3]);
 735:Code\Device\W25Q80/user_data.c **** 			if (tmp1 <= end_time)
 1733              		.loc 1 735 0
 1734 0026 AB42     		cmp	r3, r5
 1735 0028 12D9     		bls	.L101
 730:Code\Device\W25Q80/user_data.c **** 		{
 1736              		.loc 1 730 0
 1737 002a 013C     		subs	r4, r4, #1
 1738              	.LVL164:
 1739 002c A4B2     		uxth	r4, r4
 1740              	.LVL165:
 736:Code\Device\W25Q80/user_data.c **** 			{
 737:Code\Device\W25Q80/user_data.c **** 				return i;
 738:Code\Device\W25Q80/user_data.c **** 			}
 739:Code\Device\W25Q80/user_data.c **** 		}
 1741              		.loc 1 739 0
 1742 002e F4E7     		b	.L96
 1743              	.LVL166:
 1744              	.L98:
 740:Code\Device\W25Q80/user_data.c **** 	}
 741:Code\Device\W25Q80/user_data.c **** 	else
 742:Code\Device\W25Q80/user_data.c **** 	{
 743:Code\Device\W25Q80/user_data.c **** 		for (i = qty - 1; i >= qty - MAX_OPEN_NUM; i--)
 744:Code\Device\W25Q80/user_data.c **** 		{
 745:Code\Device\W25Q80/user_data.c **** 			Read_OpenInfo(i, &openTmp);
 1745              		.loc 1 745 0
 1746 0030 6946     		mov	r1, sp
 1747 0032 2000     		movs	r0, r4
 1748 0034 FFF7FEFF 		bl	Read_OpenInfo
 1749              	.LVL167:
 1750 0038 029B     		ldr	r3, [sp, #8]
 1751 003a 1BBA     		rev	r3, r3
 1752              	.LVL168:
 746:Code\Device\W25Q80/user_data.c **** 			tmp1 = BYTE2LONG(openTmp.open_time[0], openTmp.open_time[1],
ARM GAS  C:\Users\Administrator\AppData\Local\Temp\ccPIvPLo.s 			page 46


 747:Code\Device\W25Q80/user_data.c **** 							 openTmp.open_time[2], openTmp.open_time[3]);
 748:Code\Device\W25Q80/user_data.c **** 			if (tmp1 <= end_time)
 1753              		.loc 1 748 0
 1754 003c 9D42     		cmp	r5, r3
 1755 003e 07D2     		bcs	.L101
 743:Code\Device\W25Q80/user_data.c **** 		{
 1756              		.loc 1 743 0 discriminator 2
 1757 0040 013C     		subs	r4, r4, #1
 1758              	.LVL169:
 1759 0042 A4B2     		uxth	r4, r4
 1760              	.LVL170:
 1761              	.L97:
 743:Code\Device\W25Q80/user_data.c **** 		{
 1762              		.loc 1 743 0 is_stmt 0 discriminator 1
 1763 0044 054B     		ldr	r3, .L103+4
 1764 0046 F318     		adds	r3, r6, r3
 1765 0048 9C42     		cmp	r4, r3
 1766 004a F1DA     		bge	.L98
 749:Code\Device\W25Q80/user_data.c **** 			{
 750:Code\Device\W25Q80/user_data.c **** 				return i;
 751:Code\Device\W25Q80/user_data.c **** 			}
 752:Code\Device\W25Q80/user_data.c **** 		}
 753:Code\Device\W25Q80/user_data.c **** 	}
 754:Code\Device\W25Q80/user_data.c **** 	return 0xFFFF;
 1767              		.loc 1 754 0 is_stmt 1
 1768 004c 0448     		ldr	r0, .L103+8
 1769 004e 00E0     		b	.L94
 1770              	.L101:
 1771 0050 2000     		movs	r0, r4
 1772              	.LVL171:
 1773              	.L94:
 755:Code\Device\W25Q80/user_data.c **** }
 1774              		.loc 1 755 0
 1775 0052 04B0     		add	sp, sp, #16
 1776              		@ sp needed
 1777              	.LVL172:
 1778              	.LVL173:
 1779 0054 70BD     		pop	{r4, r5, r6, pc}
 1780              	.L104:
 1781 0056 C046     		.align	2
 1782              	.L103:
 1783 0058 88130000 		.word	5000
 1784 005c 78ECFFFF 		.word	-5000
 1785 0060 FFFF0000 		.word	65535
 1786              		.cfi_endproc
 1787              	.LFE92:
 1788              		.size	Find_Open_EndNum, .-Find_Open_EndNum
 1789              		.section	.text.Find_Open_ValidQty,"ax",%progbits
 1790              		.align	1
 1791              		.global	Find_Open_ValidQty
 1792              		.code	16
 1793              		.thumb_func
 1794              		.type	Find_Open_ValidQty, %function
 1795              	Find_Open_ValidQty:
 1796              	.LFB93:
 756:Code\Device\W25Q80/user_data.c **** 
 757:Code\Device\W25Q80/user_data.c **** //*************************************************************************************************
ARM GAS  C:\Users\Administrator\AppData\Local\Temp\ccPIvPLo.s 			page 47


 758:Code\Device\W25Q80/user_data.c **** // Function name	: Find_Open_ValidQty
 759:Code\Device\W25Q80/user_data.c **** // Description		: 根据开始时间、结束时间计算需回传的开门总数
 760:Code\Device\W25Q80/user_data.c **** // Parameter		: start_time, end_time
 761:Code\Device\W25Q80/user_data.c **** // Return			: none
 762:Code\Device\W25Q80/user_data.c **** //-------------------------------------------------------------------------------------------------
 763:Code\Device\W25Q80/user_data.c **** // Info				: 
 764:Code\Device\W25Q80/user_data.c **** //*************************************************************************************************
 765:Code\Device\W25Q80/user_data.c **** uint16 Find_Open_ValidQty(uint32 start_time, uint32 end_time)
 766:Code\Device\W25Q80/user_data.c **** {
 1797              		.loc 1 766 0
 1798              		.cfi_startproc
 1799              		@ args = 0, pretend = 0, frame = 0
 1800              		@ frame_needed = 0, uses_anonymous_args = 0
 1801              	.LVL174:
 1802 0000 70B5     		push	{r4, r5, r6, lr}
 1803              		.cfi_def_cfa_offset 16
 1804              		.cfi_offset 4, -16
 1805              		.cfi_offset 5, -12
 1806              		.cfi_offset 6, -8
 1807              		.cfi_offset 14, -4
 1808              		.loc 1 766 0
 1809 0002 0500     		movs	r5, r0
 1810 0004 0E00     		movs	r6, r1
 767:Code\Device\W25Q80/user_data.c **** 	uint16 start_num, end_num, allqty;
 768:Code\Device\W25Q80/user_data.c **** 
 769:Code\Device\W25Q80/user_data.c **** 	allqty = Read_Open_Qty();
 1811              		.loc 1 769 0
 1812 0006 FFF7FEFF 		bl	Read_Open_Qty
 1813              	.LVL175:
 1814 000a 041E     		subs	r4, r0, #0
 1815              	.LVL176:
 770:Code\Device\W25Q80/user_data.c **** 	if (allqty == 0)
 1816              		.loc 1 770 0
 1817 000c 01D1     		bne	.L106
 1818              	.LVL177:
 1819              	.L108:
 771:Code\Device\W25Q80/user_data.c **** 	{
 772:Code\Device\W25Q80/user_data.c **** 		return 0;
 1820              		.loc 1 772 0
 1821 000e 0020     		movs	r0, #0
 1822 0010 10E0     		b	.L107
 1823              	.LVL178:
 1824              	.L106:
 773:Code\Device\W25Q80/user_data.c **** 	}
 774:Code\Device\W25Q80/user_data.c **** 	start_num = Find_Open_StartNum(start_time);
 1825              		.loc 1 774 0
 1826 0012 2800     		movs	r0, r5
 1827              	.LVL179:
 1828 0014 FFF7FEFF 		bl	Find_Open_StartNum
 1829              	.LVL180:
 1830 0018 0500     		movs	r5, r0
 1831              	.LVL181:
 775:Code\Device\W25Q80/user_data.c **** 	end_num = Find_Open_EndNum(end_time);
 1832              		.loc 1 775 0
 1833 001a 3000     		movs	r0, r6
 1834 001c FFF7FEFF 		bl	Find_Open_EndNum
 1835              	.LVL182:
ARM GAS  C:\Users\Administrator\AppData\Local\Temp\ccPIvPLo.s 			page 48


 776:Code\Device\W25Q80/user_data.c **** 	if (start_num == 0xFFFF)
 1836              		.loc 1 776 0
 1837 0020 054B     		ldr	r3, .L111
 1838 0022 9D42     		cmp	r5, r3
 1839 0024 F3D0     		beq	.L108
 777:Code\Device\W25Q80/user_data.c **** 	{
 778:Code\Device\W25Q80/user_data.c **** 		return 0;
 779:Code\Device\W25Q80/user_data.c **** 	}
 780:Code\Device\W25Q80/user_data.c **** 	else
 781:Code\Device\W25Q80/user_data.c **** 	{
 782:Code\Device\W25Q80/user_data.c **** 		if (end_num == 0xFFFF)
 1840              		.loc 1 782 0
 1841 0026 9842     		cmp	r0, r3
 1842 0028 01D1     		bne	.L109
 783:Code\Device\W25Q80/user_data.c **** 		{
 784:Code\Device\W25Q80/user_data.c **** 			return (allqty - start_num);
 1843              		.loc 1 784 0
 1844 002a 601B     		subs	r0, r4, r5
 1845              	.LVL183:
 1846 002c 01E0     		b	.L110
 1847              	.LVL184:
 1848              	.L109:
 785:Code\Device\W25Q80/user_data.c **** 		}
 786:Code\Device\W25Q80/user_data.c **** 		else
 787:Code\Device\W25Q80/user_data.c **** 		{
 788:Code\Device\W25Q80/user_data.c **** 			return (end_num - start_num + 1);
 1849              		.loc 1 788 0
 1850 002e 0130     		adds	r0, r0, #1
 1851              	.LVL185:
 1852 0030 401B     		subs	r0, r0, r5
 1853              	.L110:
 1854 0032 80B2     		uxth	r0, r0
 1855              	.LVL186:
 1856              	.L107:
 789:Code\Device\W25Q80/user_data.c **** 		}
 790:Code\Device\W25Q80/user_data.c **** 	}
 791:Code\Device\W25Q80/user_data.c **** }
 1857              		.loc 1 791 0
 1858              		@ sp needed
 1859              	.LVL187:
 1860 0034 70BD     		pop	{r4, r5, r6, pc}
 1861              	.L112:
 1862 0036 C046     		.align	2
 1863              	.L111:
 1864 0038 FFFF0000 		.word	65535
 1865              		.cfi_endproc
 1866              	.LFE93:
 1867              		.size	Find_Open_ValidQty, .-Find_Open_ValidQty
 1868              		.section	.text.Get_Open_Info,"ax",%progbits
 1869              		.align	1
 1870              		.global	Get_Open_Info
 1871              		.code	16
 1872              		.thumb_func
 1873              		.type	Get_Open_Info, %function
 1874              	Get_Open_Info:
 1875              	.LFB94:
 792:Code\Device\W25Q80/user_data.c **** 
ARM GAS  C:\Users\Administrator\AppData\Local\Temp\ccPIvPLo.s 			page 49


 793:Code\Device\W25Q80/user_data.c **** //*************************************************************************************************
 794:Code\Device\W25Q80/user_data.c **** // Function name	: Get_Open_Info
 795:Code\Device\W25Q80/user_data.c **** // Description		: 根据开始编号、数量来提取开门记录信息
 796:Code\Device\W25Q80/user_data.c **** // Parameter		: start_num, qty , *data
 797:Code\Device\W25Q80/user_data.c **** // Return			: none
 798:Code\Device\W25Q80/user_data.c **** //-------------------------------------------------------------------------------------------------
 799:Code\Device\W25Q80/user_data.c **** // Info				: 
 800:Code\Device\W25Q80/user_data.c **** //*************************************************************************************************
 801:Code\Device\W25Q80/user_data.c **** void Get_Open_Info(uint16 start_num, uint16 qty, uint8 *data)
 802:Code\Device\W25Q80/user_data.c **** {
 1876              		.loc 1 802 0
 1877              		.cfi_startproc
 1878              		@ args = 0, pretend = 0, frame = 8
 1879              		@ frame_needed = 0, uses_anonymous_args = 0
 1880              	.LVL188:
 1881 0000 F7B5     		push	{r0, r1, r2, r4, r5, r6, r7, lr}
 1882              		.cfi_def_cfa_offset 32
 1883              		.cfi_offset 0, -32
 1884              		.cfi_offset 1, -28
 1885              		.cfi_offset 2, -24
 1886              		.cfi_offset 4, -20
 1887              		.cfi_offset 5, -16
 1888              		.cfi_offset 6, -12
 1889              		.cfi_offset 7, -8
 1890              		.cfi_offset 14, -4
 1891              		.loc 1 802 0
 1892 0002 0500     		movs	r5, r0
 1893 0004 0E00     		movs	r6, r1
 1894 0006 1700     		movs	r7, r2
 803:Code\Device\W25Q80/user_data.c **** 	uint16 i, offset = 0;
 804:Code\Device\W25Q80/user_data.c **** 	
 805:Code\Device\W25Q80/user_data.c **** 	for (i = start_num; i < start_num + qty; i++)
 1895              		.loc 1 805 0
 1896 0008 0400     		movs	r4, r0
 1897 000a 0303     		lsls	r3, r0, #12
 1898 000c 1B1A     		subs	r3, r3, r0
 1899 000e 9BB2     		uxth	r3, r3
 1900 0010 0193     		str	r3, [sp, #4]
 1901              	.LVL189:
 1902              	.L114:
 1903 0012 019B     		ldr	r3, [sp, #4]
 1904 0014 E118     		adds	r1, r4, r3
 1905 0016 0901     		lsls	r1, r1, #4
 1906              		.loc 1 805 0 is_stmt 0 discriminator 1
 1907 0018 AB19     		adds	r3, r5, r6
 1908 001a 89B2     		uxth	r1, r1
 1909              	.LVL190:
 1910 001c 9C42     		cmp	r4, r3
 1911 001e 06DA     		bge	.L116
 806:Code\Device\W25Q80/user_data.c **** 	{
 807:Code\Device\W25Q80/user_data.c **** 		Read_OpenInfo(i, (open_door_t *)(data + offset));
 1912              		.loc 1 807 0 is_stmt 1 discriminator 3
 1913 0020 2000     		movs	r0, r4
 1914 0022 7918     		adds	r1, r7, r1
 1915              	.LVL191:
 805:Code\Device\W25Q80/user_data.c **** 	{
 1916              		.loc 1 805 0 discriminator 3
ARM GAS  C:\Users\Administrator\AppData\Local\Temp\ccPIvPLo.s 			page 50


 1917 0024 0134     		adds	r4, r4, #1
 1918              	.LVL192:
 1919              		.loc 1 807 0 discriminator 3
 1920 0026 FFF7FEFF 		bl	Read_OpenInfo
 1921              	.LVL193:
 805:Code\Device\W25Q80/user_data.c **** 	{
 1922              		.loc 1 805 0 discriminator 3
 1923 002a A4B2     		uxth	r4, r4
 1924              	.LVL194:
 1925 002c F1E7     		b	.L114
 1926              	.LVL195:
 1927              	.L116:
 808:Code\Device\W25Q80/user_data.c **** 		offset += sizeof(open_door_t);
 809:Code\Device\W25Q80/user_data.c **** 	}
 810:Code\Device\W25Q80/user_data.c **** }
 1928              		.loc 1 810 0
 1929              		@ sp needed
 1930              	.LVL196:
 1931              	.LVL197:
 1932 002e F7BD     		pop	{r0, r1, r2, r4, r5, r6, r7, pc}
 1933              		.cfi_endproc
 1934              	.LFE94:
 1935              		.size	Get_Open_Info, .-Get_Open_Info
 1936              		.section	.text.FindAndSet_UploadTime_UploadFlag,"ax",%progbits
 1937              		.align	1
 1938              		.global	FindAndSet_UploadTime_UploadFlag
 1939              		.code	16
 1940              		.thumb_func
 1941              		.type	FindAndSet_UploadTime_UploadFlag, %function
 1942              	FindAndSet_UploadTime_UploadFlag:
 1943              	.LFB95:
 811:Code\Device\W25Q80/user_data.c **** 
 812:Code\Device\W25Q80/user_data.c **** //*************************************************************************************************
 813:Code\Device\W25Q80/user_data.c **** // Function name	: FindAndSet_UploadTime_UploadFlag
 814:Code\Device\W25Q80/user_data.c **** // Description		: 根据时间查找开门记录，并更新上报时间及上报成功标志
 815:Code\Device\W25Q80/user_data.c **** // Parameter		: open_time	: 开门时间
 816:Code\Device\W25Q80/user_data.c **** //					: utc_time	: 时间戳
 817:Code\Device\W25Q80/user_data.c **** // Return			: none
 818:Code\Device\W25Q80/user_data.c **** //-------------------------------------------------------------------------------------------------
 819:Code\Device\W25Q80/user_data.c **** // Info				: 
 820:Code\Device\W25Q80/user_data.c **** //*************************************************************************************************
 821:Code\Device\W25Q80/user_data.c **** void FindAndSet_UploadTime_UploadFlag(uint8 *open_time, uint8 *utc_time)
 822:Code\Device\W25Q80/user_data.c **** {
 1944              		.loc 1 822 0
 1945              		.cfi_startproc
 1946              		@ args = 0, pretend = 0, frame = 72
 1947              		@ frame_needed = 0, uses_anonymous_args = 0
 1948              	.LVL198:
 1949 0000 F0B5     		push	{r4, r5, r6, r7, lr}
 1950              		.cfi_def_cfa_offset 20
 1951              		.cfi_offset 4, -20
 1952              		.cfi_offset 5, -16
 1953              		.cfi_offset 6, -12
 1954              		.cfi_offset 7, -8
 1955              		.cfi_offset 14, -4
 1956 0002 0400     		movs	r4, r0
 1957 0004 93B0     		sub	sp, sp, #76
ARM GAS  C:\Users\Administrator\AppData\Local\Temp\ccPIvPLo.s 			page 51


 1958              		.cfi_def_cfa_offset 96
 1959              		.loc 1 822 0
 1960 0006 0791     		str	r1, [sp, #28]
 823:Code\Device\W25Q80/user_data.c **** 	uint16_t i, OpenQty;
 824:Code\Device\W25Q80/user_data.c **** 	open_door_t OpenInfo;
 825:Code\Device\W25Q80/user_data.c **** 	uint32 open_time_utc;
 826:Code\Device\W25Q80/user_data.c **** 	uint32 open_time_flash;
 827:Code\Device\W25Q80/user_data.c **** 	uint8 opendate_tmp[17] = {0};
 1961              		.loc 1 827 0
 1962 0008 1122     		movs	r2, #17
 1963 000a 0021     		movs	r1, #0
 1964              	.LVL199:
 1965 000c 0DA8     		add	r0, sp, #52
 1966              	.LVL200:
 1967 000e FFF7FEFF 		bl	memset
 1968              	.LVL201:
 828:Code\Device\W25Q80/user_data.c **** 	uint32 readoff = 0;
 829:Code\Device\W25Q80/user_data.c **** 	
 830:Code\Device\W25Q80/user_data.c **** 	open_time_utc = BYTE2LONG(open_time[0], open_time[1], open_time[2], open_time[3]);
 1969              		.loc 1 830 0
 1970 0012 2378     		ldrb	r3, [r4]
 1971 0014 1A06     		lsls	r2, r3, #24
 1972 0016 6378     		ldrb	r3, [r4, #1]
 1973 0018 1B04     		lsls	r3, r3, #16
 1974 001a 1343     		orrs	r3, r2
 1975 001c E278     		ldrb	r2, [r4, #3]
 1976 001e 1343     		orrs	r3, r2
 1977 0020 A278     		ldrb	r2, [r4, #2]
 1978 0022 1202     		lsls	r2, r2, #8
 1979 0024 1343     		orrs	r3, r2
 1980 0026 0193     		str	r3, [sp, #4]
 1981              	.LVL202:
 831:Code\Device\W25Q80/user_data.c **** 	OpenQty = Read_Open_Qty();
 1982              		.loc 1 831 0
 1983 0028 FFF7FEFF 		bl	Read_Open_Qty
 1984              	.LVL203:
 832:Code\Device\W25Q80/user_data.c **** 	//OpenQty %= MAX_OPEN_NUM;
 833:Code\Device\W25Q80/user_data.c **** 	if (OpenQty <= MAX_OPEN_NUM)
 1985              		.loc 1 833 0
 1986 002c 6E4B     		ldr	r3, .L134
 831:Code\Device\W25Q80/user_data.c **** 	OpenQty = Read_Open_Qty();
 1987              		.loc 1 831 0
 1988 002e 0700     		movs	r7, r0
 1989              	.LVL204:
 1990 0030 0138     		subs	r0, r0, #1
 1991              	.LVL205:
 834:Code\Device\W25Q80/user_data.c **** 	{
 835:Code\Device\W25Q80/user_data.c **** 		for (i = OpenQty - 1; i >= 0; i--)
 1992              		.loc 1 835 0
 1993 0032 80B2     		uxth	r0, r0
 833:Code\Device\W25Q80/user_data.c **** 	{
 1994              		.loc 1 833 0
 1995 0034 9F42     		cmp	r7, r3
 1996 0036 00D9     		bls	.LCB1705
 1997 0038 C4E0     		b	.L125	@long jump
 1998              	.LCB1705:
 1999              	.LVL206:
ARM GAS  C:\Users\Administrator\AppData\Local\Temp\ccPIvPLo.s 			page 52


 2000              	.L124:
 836:Code\Device\W25Q80/user_data.c **** 		{
 837:Code\Device\W25Q80/user_data.c **** 			i %= MAX_OPEN_NUM;
 2001              		.loc 1 837 0
 2002 003a 6B49     		ldr	r1, .L134
 2003 003c FFF7FEFF 		bl	__aeabi_uidivmod
 2004              	.LVL207:
 838:Code\Device\W25Q80/user_data.c **** 			readoff = i * (1 + sizeof(open_door_t));
 2005              		.loc 1 838 0
 2006 0040 1125     		movs	r5, #17
 837:Code\Device\W25Q80/user_data.c **** 			readoff = i * (1 + sizeof(open_door_t));
 2007              		.loc 1 837 0
 2008 0042 8FB2     		uxth	r7, r1
 2009              	.LVL208:
 2010              		.loc 1 838 0
 2011 0044 7D43     		muls	r5, r7
 2012              	.LVL209:
 839:Code\Device\W25Q80/user_data.c **** 			if((readoff % 0xff) == 0)
 2013              		.loc 1 839 0
 2014 0046 FF21     		movs	r1, #255
 2015 0048 2800     		movs	r0, r5
 2016 004a FFF7FEFF 		bl	__aeabi_uidivmod
 2017              	.LVL210:
 2018 004e 0DAC     		add	r4, sp, #52
 2019 0050 0029     		cmp	r1, #0
 2020 0052 07D1     		bne	.L119
 2021              	.LVL211:
 840:Code\Device\W25Q80/user_data.c **** 			{
 841:Code\Device\W25Q80/user_data.c **** 				readoff += 1;
 842:Code\Device\W25Q80/user_data.c **** 				W25QXX_Read((uint8 *)opendate_tmp+1, OPEN_INFO_BASE + (readoff), (sizeof(open_door_t)));
 2022              		.loc 1 842 0
 2023 0054 654B     		ldr	r3, .L134+4
 2024 0056 08A8     		add	r0, sp, #32
 2025 0058 E918     		adds	r1, r5, r3
 2026 005a 1523     		movs	r3, #21
 2027 005c 1B18     		adds	r3, r3, r0
 2028 005e 1022     		movs	r2, #16
 2029 0060 1800     		movs	r0, r3
 2030 0062 04E0     		b	.L132
 2031              	.LVL212:
 2032              	.L119:
 843:Code\Device\W25Q80/user_data.c **** 			}
 844:Code\Device\W25Q80/user_data.c **** 			else
 845:Code\Device\W25Q80/user_data.c **** 			{
 846:Code\Device\W25Q80/user_data.c **** 				W25QXX_Read((uint8 *)opendate_tmp, OPEN_INFO_BASE + (readoff), (sizeof(open_door_t) + 1));
 2033              		.loc 1 846 0
 2034 0064 B823     		movs	r3, #184
 2035 0066 1122     		movs	r2, #17
 2036 0068 2000     		movs	r0, r4
 2037 006a 9B01     		lsls	r3, r3, #6
 2038 006c E918     		adds	r1, r5, r3
 2039              	.LVL213:
 2040              	.L132:
 2041 006e FFF7FEFF 		bl	W25QXX_Read
 2042              	.LVL214:
 847:Code\Device\W25Q80/user_data.c **** 			}
 848:Code\Device\W25Q80/user_data.c **** 			memcpy((uint8 *)&OpenInfo, opendate_tmp+1, 16);
ARM GAS  C:\Users\Administrator\AppData\Local\Temp\ccPIvPLo.s 			page 53


 2043              		.loc 1 848 0
 2044 0072 1523     		movs	r3, #21
 2045 0074 08A9     		add	r1, sp, #32
 2046 0076 5B18     		adds	r3, r3, r1
 2047 0078 09AE     		add	r6, sp, #36
 2048 007a 1022     		movs	r2, #16
 2049 007c 1900     		movs	r1, r3
 2050 007e 3000     		movs	r0, r6
 2051 0080 FFF7FEFF 		bl	memcpy
 2052              	.LVL215:
 2053 0084 637A     		ldrb	r3, [r4, #9]
 2054 0086 0293     		str	r3, [sp, #8]
 2055              	.LVL216:
 2056 0088 A37A     		ldrb	r3, [r4, #10]
 2057 008a 0393     		str	r3, [sp, #12]
 2058              	.LVL217:
 2059 008c E37A     		ldrb	r3, [r4, #11]
 2060 008e 0493     		str	r3, [sp, #16]
 2061              	.LVL218:
 2062 0090 237B     		ldrb	r3, [r4, #12]
 2063 0092 0593     		str	r3, [sp, #20]
 2064              	.LVL219:
 849:Code\Device\W25Q80/user_data.c **** 			//DBG_SOFT_PutStr("\n ret_code = 1, find sendtime @ i:");
 850:Code\Device\W25Q80/user_data.c **** 			//DBG_SOFT_PrintfHex(&i,1,1);	
 851:Code\Device\W25Q80/user_data.c **** 			//DBG_SOFT_PrintfHex(opendate_tmp,16,16);		
 852:Code\Device\W25Q80/user_data.c **** 			
 853:Code\Device\W25Q80/user_data.c **** 			//Read_OpenInfo(i,&OpenInfo);
 854:Code\Device\W25Q80/user_data.c **** 			open_time_flash = BYTE2LONG(OpenInfo.open_time[0], OpenInfo.open_time[1],
 2065              		.loc 1 854 0
 2066 0094 029B     		ldr	r3, [sp, #8]
 2067 0096 1A06     		lsls	r2, r3, #24
 2068 0098 039B     		ldr	r3, [sp, #12]
 2069 009a 1B04     		lsls	r3, r3, #16
 2070 009c 1343     		orrs	r3, r2
 2071 009e 059A     		ldr	r2, [sp, #20]
 2072 00a0 1343     		orrs	r3, r2
 2073 00a2 049A     		ldr	r2, [sp, #16]
 2074 00a4 1202     		lsls	r2, r2, #8
 2075 00a6 1343     		orrs	r3, r2
 2076              	.LVL220:
 855:Code\Device\W25Q80/user_data.c **** 							 			OpenInfo.open_time[2], OpenInfo.open_time[3]);
 856:Code\Device\W25Q80/user_data.c **** 			//DBG_SOFT_PutStr("\nopen_time_flash :");
 857:Code\Device\W25Q80/user_data.c **** 			//DBG_SOFT_PutHexInt(open_time_flash);
 858:Code\Device\W25Q80/user_data.c **** 			if (open_time_flash == open_time_utc)
 2077              		.loc 1 858 0
 2078 00a8 019A     		ldr	r2, [sp, #4]
 2079 00aa 9A42     		cmp	r2, r3
 2080 00ac 26D1     		bne	.L121
 859:Code\Device\W25Q80/user_data.c **** 			{
 860:Code\Device\W25Q80/user_data.c **** 				DBG_SOFT_PutStr("\n===>back upload open date :<===\n");
 861:Code\Device\W25Q80/user_data.c **** 				memcpy(OpenInfo.send_time, utc_time, TIME_LEN);
 2081              		.loc 1 861 0
 2082 00ae 0799     		ldr	r1, [sp, #28]
 2083 00b0 0422     		movs	r2, #4
 2084 00b2 0CA8     		add	r0, sp, #48
 2085 00b4 FFF7FEFF 		bl	memcpy
 2086              	.LVL221:
ARM GAS  C:\Users\Administrator\AppData\Local\Temp\ccPIvPLo.s 			page 54


 862:Code\Device\W25Q80/user_data.c **** 				opendate_tmp[0] = 0x01;
 2087              		.loc 1 862 0
 2088 00b8 0123     		movs	r3, #1
 2089 00ba 2370     		strb	r3, [r4]
 863:Code\Device\W25Q80/user_data.c **** 				memcpy(opendate_tmp+1,(uint8 *)&OpenInfo,16);
 2090              		.loc 1 863 0
 2091 00bc 6B46     		mov	r3, sp
 2092 00be 1B7A     		ldrb	r3, [r3, #8]
 2093 00c0 08A8     		add	r0, sp, #32
 2094 00c2 3372     		strb	r3, [r6, #8]
 2095 00c4 6B46     		mov	r3, sp
 2096 00c6 1B7B     		ldrb	r3, [r3, #12]
 2097 00c8 3100     		movs	r1, r6
 2098 00ca 7372     		strb	r3, [r6, #9]
 2099 00cc 6B46     		mov	r3, sp
 2100 00ce 1B7C     		ldrb	r3, [r3, #16]
 2101 00d0 1022     		movs	r2, #16
 2102 00d2 B372     		strb	r3, [r6, #10]
 2103 00d4 6B46     		mov	r3, sp
 2104 00d6 1B7D     		ldrb	r3, [r3, #20]
 2105 00d8 F372     		strb	r3, [r6, #11]
 2106 00da 1523     		movs	r3, #21
 2107 00dc 1B18     		adds	r3, r3, r0
 2108 00de 1800     		movs	r0, r3
 2109 00e0 FFF7FEFF 		bl	memcpy
 2110              	.LVL222:
 864:Code\Device\W25Q80/user_data.c **** 				W25QXX_Write((uint8 *)opendate_tmp, OPEN_INFO_BASE + i * (1 + sizeof(open_door_t)), (sizeof(ope
 2111              		.loc 1 864 0
 2112 00e4 B823     		movs	r3, #184
 2113 00e6 9B01     		lsls	r3, r3, #6
 2114 00e8 E918     		adds	r1, r5, r3
 2115 00ea 2000     		movs	r0, r4
 2116 00ec 1122     		movs	r2, #17
 2117 00ee FFF7FEFF 		bl	W25QXX_Write
 2118              	.LVL223:
 865:Code\Device\W25Q80/user_data.c **** 				  //==Write_OpenInfo((open_door_t *)&OpenInfo, 0);				
 866:Code\Device\W25Q80/user_data.c **** 				Write_Open_UploadFlag(i, TRUE);
 2119              		.loc 1 866 0
 2120 00f2 0121     		movs	r1, #1
 2121 00f4 3800     		movs	r0, r7
 2122 00f6 FFF7FEFF 		bl	Write_Open_UploadFlag
 2123              	.LVL224:
 2124 00fa 03E0     		b	.L122
 2125              	.LVL225:
 2126              	.L121:
 867:Code\Device\W25Q80/user_data.c **** 			}
 868:Code\Device\W25Q80/user_data.c **** 			else if ((open_time_flash + Delta) < open_time_utc)
 2127              		.loc 1 868 0
 2128 00fc 019A     		ldr	r2, [sp, #4]
 2129 00fe 1E33     		adds	r3, r3, #30
 2130              	.LVL226:
 2131 0100 9A42     		cmp	r2, r3
 2132 0102 6ED8     		bhi	.L117
 2133              	.LVL227:
 2134              	.L122:
 835:Code\Device\W25Q80/user_data.c **** 		{
 2135              		.loc 1 835 0
ARM GAS  C:\Users\Administrator\AppData\Local\Temp\ccPIvPLo.s 			page 55


 2136 0104 791E     		subs	r1, r7, #1
 2137 0106 88B2     		uxth	r0, r1
 2138              	.LVL228:
 869:Code\Device\W25Q80/user_data.c **** 			{
 870:Code\Device\W25Q80/user_data.c **** 				return;
 871:Code\Device\W25Q80/user_data.c **** 			}
 872:Code\Device\W25Q80/user_data.c **** 		}
 2139              		.loc 1 872 0
 2140 0108 97E7     		b	.L124
 2141              	.LVL229:
 2142              	.L130:
 873:Code\Device\W25Q80/user_data.c **** 	}
 874:Code\Device\W25Q80/user_data.c **** 	else
 875:Code\Device\W25Q80/user_data.c **** 	{
 876:Code\Device\W25Q80/user_data.c **** 		for (i = OpenQty - 1; i >= OpenQty - MAX_OPEN_NUM; i--)
 877:Code\Device\W25Q80/user_data.c **** 		{
 878:Code\Device\W25Q80/user_data.c **** 			i %= MAX_OPEN_NUM;
 2143              		.loc 1 878 0
 2144 010a 3749     		ldr	r1, .L134
 2145 010c FFF7FEFF 		bl	__aeabi_uidivmod
 2146              	.LVL230:
 879:Code\Device\W25Q80/user_data.c **** 			readoff = i * (1 + sizeof(open_door_t));
 2147              		.loc 1 879 0
 2148 0110 1125     		movs	r5, #17
 878:Code\Device\W25Q80/user_data.c **** 			readoff = i * (1 + sizeof(open_door_t));
 2149              		.loc 1 878 0
 2150 0112 8BB2     		uxth	r3, r1
 2151              		.loc 1 879 0
 2152 0114 5D43     		muls	r5, r3
 880:Code\Device\W25Q80/user_data.c **** 			if((readoff % 0xff) == 0)
 2153              		.loc 1 880 0
 2154 0116 FF21     		movs	r1, #255
 2155 0118 2800     		movs	r0, r5
 878:Code\Device\W25Q80/user_data.c **** 			readoff = i * (1 + sizeof(open_door_t));
 2156              		.loc 1 878 0
 2157 011a 0293     		str	r3, [sp, #8]
 2158              	.LVL231:
 2159              		.loc 1 880 0
 2160 011c FFF7FEFF 		bl	__aeabi_uidivmod
 2161              	.LVL232:
 2162 0120 0DAC     		add	r4, sp, #52
 2163 0122 0029     		cmp	r1, #0
 2164 0124 53D1     		bne	.L126
 2165              	.LVL233:
 881:Code\Device\W25Q80/user_data.c **** 			{
 882:Code\Device\W25Q80/user_data.c **** 				readoff += 1;
 883:Code\Device\W25Q80/user_data.c **** 				W25QXX_Read((uint8 *)opendate_tmp+1, OPEN_INFO_BASE + (readoff), (sizeof(open_door_t)));
 2166              		.loc 1 883 0
 2167 0126 1520     		movs	r0, #21
 2168 0128 1022     		movs	r2, #16
 2169 012a 304B     		ldr	r3, .L134+4
 2170 012c E918     		adds	r1, r5, r3
 2171 012e 08AB     		add	r3, sp, #32
 2172 0130 C018     		adds	r0, r0, r3
 2173              	.LVL234:
 2174              	.L133:
 884:Code\Device\W25Q80/user_data.c **** 			}
ARM GAS  C:\Users\Administrator\AppData\Local\Temp\ccPIvPLo.s 			page 56


 885:Code\Device\W25Q80/user_data.c **** 			else
 886:Code\Device\W25Q80/user_data.c **** 			{
 887:Code\Device\W25Q80/user_data.c **** 				W25QXX_Read((uint8 *)opendate_tmp, OPEN_INFO_BASE + (readoff), (sizeof(open_door_t) + 1));
 2175              		.loc 1 887 0
 2176 0132 FFF7FEFF 		bl	W25QXX_Read
 2177              	.LVL235:
 888:Code\Device\W25Q80/user_data.c **** 			}
 889:Code\Device\W25Q80/user_data.c **** 			//W25QXX_Read((uint8 *)opendate_tmp, OPEN_INFO_BASE + i * (1+sizeof(open_door_t)), (sizeof(open_
 890:Code\Device\W25Q80/user_data.c **** 			memcpy((uint8 *)&OpenInfo, opendate_tmp+1, 16);
 2178              		.loc 1 890 0
 2179 0136 1523     		movs	r3, #21
 2180 0138 08A9     		add	r1, sp, #32
 2181 013a 5B18     		adds	r3, r3, r1
 2182 013c 09AE     		add	r6, sp, #36
 2183 013e 1022     		movs	r2, #16
 2184 0140 1900     		movs	r1, r3
 2185 0142 3000     		movs	r0, r6
 2186 0144 FFF7FEFF 		bl	memcpy
 2187              	.LVL236:
 2188 0148 637A     		ldrb	r3, [r4, #9]
 2189 014a 0693     		str	r3, [sp, #24]
 2190              	.LVL237:
 2191 014c A37A     		ldrb	r3, [r4, #10]
 2192 014e 0593     		str	r3, [sp, #20]
 2193              	.LVL238:
 2194 0150 E37A     		ldrb	r3, [r4, #11]
 2195 0152 0493     		str	r3, [sp, #16]
 2196              	.LVL239:
 2197 0154 237B     		ldrb	r3, [r4, #12]
 2198 0156 0393     		str	r3, [sp, #12]
 2199              	.LVL240:
 891:Code\Device\W25Q80/user_data.c **** 			
 892:Code\Device\W25Q80/user_data.c **** 			//==Read_OpenInfo(i,&OpenInfo);
 893:Code\Device\W25Q80/user_data.c **** 			open_time_flash = BYTE2LONG(OpenInfo.open_time[0], OpenInfo.open_time[1],
 2200              		.loc 1 893 0
 2201 0158 069B     		ldr	r3, [sp, #24]
 2202 015a 1A06     		lsls	r2, r3, #24
 2203 015c 059B     		ldr	r3, [sp, #20]
 2204 015e 1B04     		lsls	r3, r3, #16
 2205 0160 1343     		orrs	r3, r2
 2206 0162 039A     		ldr	r2, [sp, #12]
 2207 0164 1343     		orrs	r3, r2
 2208 0166 049A     		ldr	r2, [sp, #16]
 2209 0168 1202     		lsls	r2, r2, #8
 2210 016a 1343     		orrs	r3, r2
 2211              	.LVL241:
 894:Code\Device\W25Q80/user_data.c **** 							 			OpenInfo.open_time[2], OpenInfo.open_time[3]);
 895:Code\Device\W25Q80/user_data.c **** 			if (open_time_flash == open_time_utc)
 2212              		.loc 1 895 0
 2213 016c 019A     		ldr	r2, [sp, #4]
 2214 016e 9A42     		cmp	r2, r3
 2215 0170 33D1     		bne	.L128
 896:Code\Device\W25Q80/user_data.c **** 			{
 897:Code\Device\W25Q80/user_data.c **** 				memcpy(OpenInfo.send_time, utc_time, TIME_LEN);
 2216              		.loc 1 897 0
 2217 0172 0422     		movs	r2, #4
 2218 0174 0799     		ldr	r1, [sp, #28]
ARM GAS  C:\Users\Administrator\AppData\Local\Temp\ccPIvPLo.s 			page 57


 2219 0176 0CA8     		add	r0, sp, #48
 2220 0178 FFF7FEFF 		bl	memcpy
 2221              	.LVL242:
 898:Code\Device\W25Q80/user_data.c **** 				opendate_tmp[0] = 0x01;
 2222              		.loc 1 898 0
 2223 017c 0123     		movs	r3, #1
 2224 017e 2370     		strb	r3, [r4]
 899:Code\Device\W25Q80/user_data.c **** 				memcpy(opendate_tmp+1,(uint8 *)&OpenInfo,16);
 2225              		.loc 1 899 0
 2226 0180 6B46     		mov	r3, sp
 2227 0182 1B7E     		ldrb	r3, [r3, #24]
 2228 0184 08A8     		add	r0, sp, #32
 2229 0186 3372     		strb	r3, [r6, #8]
 2230 0188 6B46     		mov	r3, sp
 2231 018a 1B7D     		ldrb	r3, [r3, #20]
 2232 018c 1022     		movs	r2, #16
 2233 018e 7372     		strb	r3, [r6, #9]
 2234 0190 6B46     		mov	r3, sp
 2235 0192 1B7C     		ldrb	r3, [r3, #16]
 2236 0194 3100     		movs	r1, r6
 2237 0196 B372     		strb	r3, [r6, #10]
 2238 0198 6B46     		mov	r3, sp
 2239 019a 1B7B     		ldrb	r3, [r3, #12]
 2240 019c F372     		strb	r3, [r6, #11]
 2241 019e 1523     		movs	r3, #21
 2242 01a0 1B18     		adds	r3, r3, r0
 2243 01a2 1800     		movs	r0, r3
 2244 01a4 FFF7FEFF 		bl	memcpy
 2245              	.LVL243:
 900:Code\Device\W25Q80/user_data.c **** 				W25QXX_Write((uint8 *)opendate_tmp, OPEN_INFO_BASE + i * (1 + sizeof(open_door_t)), (sizeof(ope
 2246              		.loc 1 900 0
 2247 01a8 B823     		movs	r3, #184
 2248 01aa 9B01     		lsls	r3, r3, #6
 2249 01ac E918     		adds	r1, r5, r3
 2250 01ae 2000     		movs	r0, r4
 2251 01b0 1122     		movs	r2, #17
 2252 01b2 FFF7FEFF 		bl	W25QXX_Write
 2253              	.LVL244:
 901:Code\Device\W25Q80/user_data.c **** 				
 902:Code\Device\W25Q80/user_data.c **** 				//==Write_OpenInfo((open_door_t *)&OpenInfo, 0);	
 903:Code\Device\W25Q80/user_data.c **** 				Write_Open_UploadFlag(i, TRUE);				
 2254              		.loc 1 903 0
 2255 01b6 0121     		movs	r1, #1
 2256 01b8 0298     		ldr	r0, [sp, #8]
 2257 01ba FFF7FEFF 		bl	Write_Open_UploadFlag
 2258              	.LVL245:
 2259              	.L129:
 876:Code\Device\W25Q80/user_data.c **** 		{
 2260              		.loc 1 876 0 discriminator 2
 2261 01be 0299     		ldr	r1, [sp, #8]
 2262 01c0 0139     		subs	r1, r1, #1
 2263 01c2 88B2     		uxth	r0, r1
 2264              	.LVL246:
 2265              	.L125:
 876:Code\Device\W25Q80/user_data.c **** 		{
 2266              		.loc 1 876 0 is_stmt 0 discriminator 1
 2267 01c4 0A4B     		ldr	r3, .L134+8
ARM GAS  C:\Users\Administrator\AppData\Local\Temp\ccPIvPLo.s 			page 58


 2268 01c6 FB18     		adds	r3, r7, r3
 2269 01c8 9842     		cmp	r0, r3
 2270 01ca 9EDA     		bge	.L130
 2271 01cc 09E0     		b	.L117
 2272              	.LVL247:
 2273              	.L126:
 887:Code\Device\W25Q80/user_data.c **** 			}
 2274              		.loc 1 887 0 is_stmt 1
 2275 01ce B823     		movs	r3, #184
 2276 01d0 9B01     		lsls	r3, r3, #6
 2277 01d2 1122     		movs	r2, #17
 2278 01d4 E918     		adds	r1, r5, r3
 2279 01d6 2000     		movs	r0, r4
 2280 01d8 ABE7     		b	.L133
 2281              	.LVL248:
 2282              	.L128:
 904:Code\Device\W25Q80/user_data.c **** 			}
 905:Code\Device\W25Q80/user_data.c **** 			else if (open_time_flash  + Delta < open_time_utc)
 2283              		.loc 1 905 0
 2284 01da 019A     		ldr	r2, [sp, #4]
 2285 01dc 1E33     		adds	r3, r3, #30
 2286              	.LVL249:
 2287 01de 9A42     		cmp	r2, r3
 2288 01e0 EDD9     		bls	.L129
 2289              	.LVL250:
 2290              	.L117:
 906:Code\Device\W25Q80/user_data.c **** 			{
 907:Code\Device\W25Q80/user_data.c **** 				return;
 908:Code\Device\W25Q80/user_data.c **** 			}
 909:Code\Device\W25Q80/user_data.c **** 		}
 910:Code\Device\W25Q80/user_data.c **** 	}
 911:Code\Device\W25Q80/user_data.c **** }
 2291              		.loc 1 911 0
 2292 01e2 13B0     		add	sp, sp, #76
 2293              		@ sp needed
 2294 01e4 F0BD     		pop	{r4, r5, r6, r7, pc}
 2295              	.L135:
 2296 01e6 C046     		.align	2
 2297              	.L134:
 2298 01e8 88130000 		.word	5000
 2299 01ec 012E0000 		.word	11777
 2300 01f0 78ECFFFF 		.word	-5000
 2301              		.cfi_endproc
 2302              	.LFE95:
 2303              		.size	FindAndSet_UploadTime_UploadFlag, .-FindAndSet_UploadTime_UploadFlag
 2304              		.section	.text.Write_RebootType,"ax",%progbits
 2305              		.align	1
 2306              		.global	Write_RebootType
 2307              		.code	16
 2308              		.thumb_func
 2309              		.type	Write_RebootType, %function
 2310              	Write_RebootType:
 2311              	.LFB96:
 912:Code\Device\W25Q80/user_data.c **** 
 913:Code\Device\W25Q80/user_data.c **** #if 0
 914:Code\Device\W25Q80/user_data.c **** uint16 FindfailOpeninfo_offset(uint8 open_time[])
 915:Code\Device\W25Q80/user_data.c **** {
ARM GAS  C:\Users\Administrator\AppData\Local\Temp\ccPIvPLo.s 			page 59


 916:Code\Device\W25Q80/user_data.c **** 	uint16 i, OpenQty;
 917:Code\Device\W25Q80/user_data.c **** 	open_door_t OpenInfo;
 918:Code\Device\W25Q80/user_data.c **** 	uint32 open_time_utc;
 919:Code\Device\W25Q80/user_data.c **** 	uint32 open_time_flash;
 920:Code\Device\W25Q80/user_data.c **** 	
 921:Code\Device\W25Q80/user_data.c **** 	open_time_utc = BYTE2LONG(open_time[0], open_time[1], open_time[2], open_time[3]);
 922:Code\Device\W25Q80/user_data.c **** 	OpenQty = Read_Open_Qty();
 923:Code\Device\W25Q80/user_data.c **** 	if (OpenQty <= MAX_OPEN_NUM)							// 总数少于5000的情况 没有覆盖
 924:Code\Device\W25Q80/user_data.c **** 	{
 925:Code\Device\W25Q80/user_data.c **** 		for (i = OpenQty - 1; i >= 0; i--)
 926:Code\Device\W25Q80/user_data.c **** 		{
 927:Code\Device\W25Q80/user_data.c **** 			i %= MAX_OPEN_NUM;
 928:Code\Device\W25Q80/user_data.c **** 			W25QXX_Read((uint8 *)&OpenInfo, OPEN_INFO_BASE + i * sizeof(open_door_t), sizeof(open_door_t));
 929:Code\Device\W25Q80/user_data.c **** 			open_time_flash = BYTE2LONG(OpenInfo.open_time[0], OpenInfo.open_time[1],
 930:Code\Device\W25Q80/user_data.c **** 							 			OpenInfo.open_time[2], OpenInfo.open_time[3]);
 931:Code\Device\W25Q80/user_data.c **** 			if (open_time_flash == open_time_utc)
 932:Code\Device\W25Q80/user_data.c **** 			{
 933:Code\Device\W25Q80/user_data.c **** 				return i;
 934:Code\Device\W25Q80/user_data.c **** 			}
 935:Code\Device\W25Q80/user_data.c **** 		}
 936:Code\Device\W25Q80/user_data.c **** 	}
 937:Code\Device\W25Q80/user_data.c **** 	else												// 总数超过5000 有覆盖
 938:Code\Device\W25Q80/user_data.c **** 	{
 939:Code\Device\W25Q80/user_data.c **** 		for (i = OpenQty - 1; i >= OpenQty - MAX_OPEN_NUM; i--)
 940:Code\Device\W25Q80/user_data.c **** 		{
 941:Code\Device\W25Q80/user_data.c **** 			i %= MAX_OPEN_NUM;
 942:Code\Device\W25Q80/user_data.c **** 			W25QXX_Read((uint8 *)&OpenInfo, OPEN_INFO_BASE + i * sizeof(open_door_t), sizeof(open_door_t));
 943:Code\Device\W25Q80/user_data.c **** 			open_time_flash = BYTE2LONG(OpenInfo.open_time[0], OpenInfo.open_time[1],
 944:Code\Device\W25Q80/user_data.c **** 							 			OpenInfo.open_time[2], OpenInfo.open_time[3]);
 945:Code\Device\W25Q80/user_data.c **** 			if (open_time_flash == open_time_utc)
 946:Code\Device\W25Q80/user_data.c **** 			{
 947:Code\Device\W25Q80/user_data.c **** 				return i;
 948:Code\Device\W25Q80/user_data.c **** 			}
 949:Code\Device\W25Q80/user_data.c **** 		}
 950:Code\Device\W25Q80/user_data.c **** 	}
 951:Code\Device\W25Q80/user_data.c **** 
 952:Code\Device\W25Q80/user_data.c **** }
 953:Code\Device\W25Q80/user_data.c **** #endif
 954:Code\Device\W25Q80/user_data.c **** 
 955:Code\Device\W25Q80/user_data.c **** 
 956:Code\Device\W25Q80/user_data.c **** //*************************************************************************************************
 957:Code\Device\W25Q80/user_data.c **** // Function name	: Write_RebootType
 958:Code\Device\W25Q80/user_data.c **** // Description		: 写重启类型
 959:Code\Device\W25Q80/user_data.c **** // Parameter		: rType	    : 重启类型
 960:Code\Device\W25Q80/user_data.c **** // Return			: none
 961:Code\Device\W25Q80/user_data.c **** //-------------------------------------------------------------------------------------------------
 962:Code\Device\W25Q80/user_data.c **** // Info				: 
 963:Code\Device\W25Q80/user_data.c **** //*************************************************************************************************
 964:Code\Device\W25Q80/user_data.c **** void Write_RebootType(uint8 rType)
 965:Code\Device\W25Q80/user_data.c **** {
 2312              		.loc 1 965 0
 2313              		.cfi_startproc
 2314              		@ args = 0, pretend = 0, frame = 8
 2315              		@ frame_needed = 0, uses_anonymous_args = 0
 2316              	.LVL251:
 2317 0000 07B5     		push	{r0, r1, r2, lr}
 2318              		.cfi_def_cfa_offset 16
ARM GAS  C:\Users\Administrator\AppData\Local\Temp\ccPIvPLo.s 			page 60


 2319              		.cfi_offset 0, -16
 2320              		.cfi_offset 1, -12
 2321              		.cfi_offset 2, -8
 2322              		.cfi_offset 14, -4
 2323              		.loc 1 965 0
 2324 0002 6B46     		mov	r3, sp
 2325 0004 D871     		strb	r0, [r3, #7]
 2326 0006 0733     		adds	r3, r3, #7
 966:Code\Device\W25Q80/user_data.c **** 	W25QXX_Write((uint8 *)&rType, REBOOT_TYPE, 1);
 2327              		.loc 1 966 0
 2328 0008 0122     		movs	r2, #1
 2329 000a 0249     		ldr	r1, .L137
 2330 000c 1800     		movs	r0, r3
 2331              	.LVL252:
 2332 000e FFF7FEFF 		bl	W25QXX_Write
 2333              	.LVL253:
 967:Code\Device\W25Q80/user_data.c **** }
 2334              		.loc 1 967 0
 2335              		@ sp needed
 2336 0012 07BD     		pop	{r0, r1, r2, pc}
 2337              	.L138:
 2338              		.align	2
 2339              	.L137:
 2340 0014 00910100 		.word	102656
 2341              		.cfi_endproc
 2342              	.LFE96:
 2343              		.size	Write_RebootType, .-Write_RebootType
 2344              		.section	.text.Read_RebootType,"ax",%progbits
 2345              		.align	1
 2346              		.global	Read_RebootType
 2347              		.code	16
 2348              		.thumb_func
 2349              		.type	Read_RebootType, %function
 2350              	Read_RebootType:
 2351              	.LFB97:
 968:Code\Device\W25Q80/user_data.c **** 
 969:Code\Device\W25Q80/user_data.c **** //*************************************************************************************************
 970:Code\Device\W25Q80/user_data.c **** // Function name	: Read_RebootType
 971:Code\Device\W25Q80/user_data.c **** // Description		: 读重启类型
 972:Code\Device\W25Q80/user_data.c **** // Parameter		: none
 973:Code\Device\W25Q80/user_data.c **** // Return			: rType	    : 重启类型
 974:Code\Device\W25Q80/user_data.c **** //-------------------------------------------------------------------------------------------------
 975:Code\Device\W25Q80/user_data.c **** // Info				: 
 976:Code\Device\W25Q80/user_data.c **** //*************************************************************************************************
 977:Code\Device\W25Q80/user_data.c **** uint8 Read_RebootType(void)
 978:Code\Device\W25Q80/user_data.c **** {
 2352              		.loc 1 978 0
 2353              		.cfi_startproc
 2354              		@ args = 0, pretend = 0, frame = 8
 2355              		@ frame_needed = 0, uses_anonymous_args = 0
 2356 0000 13B5     		push	{r0, r1, r4, lr}
 2357              		.cfi_def_cfa_offset 16
 2358              		.cfi_offset 0, -16
 2359              		.cfi_offset 1, -12
 2360              		.cfi_offset 4, -8
 2361              		.cfi_offset 14, -4
 979:Code\Device\W25Q80/user_data.c ****     uint8 rType;
ARM GAS  C:\Users\Administrator\AppData\Local\Temp\ccPIvPLo.s 			page 61


 980:Code\Device\W25Q80/user_data.c ****     
 981:Code\Device\W25Q80/user_data.c **** 	W25QXX_Read((uint8 *)&rType, REBOOT_TYPE, 1);
 2362              		.loc 1 981 0
 2363 0002 6B46     		mov	r3, sp
 2364 0004 DC1D     		adds	r4, r3, #7
 2365 0006 2000     		movs	r0, r4
 2366 0008 0122     		movs	r2, #1
 2367 000a 0249     		ldr	r1, .L140
 2368 000c FFF7FEFF 		bl	W25QXX_Read
 2369              	.LVL254:
 982:Code\Device\W25Q80/user_data.c ****     return rType;
 983:Code\Device\W25Q80/user_data.c **** }
 2370              		.loc 1 983 0
 2371              		@ sp needed
 982:Code\Device\W25Q80/user_data.c ****     return rType;
 2372              		.loc 1 982 0
 2373 0010 2078     		ldrb	r0, [r4]
 2374              		.loc 1 983 0
 2375 0012 16BD     		pop	{r1, r2, r4, pc}
 2376              	.L141:
 2377              		.align	2
 2378              	.L140:
 2379 0014 00910100 		.word	102656
 2380              		.cfi_endproc
 2381              	.LFE97:
 2382              		.size	Read_RebootType, .-Read_RebootType
 2383              		.section	.text.Write_CenterIpType,"ax",%progbits
 2384              		.align	1
 2385              		.global	Write_CenterIpType
 2386              		.code	16
 2387              		.thumb_func
 2388              		.type	Write_CenterIpType, %function
 2389              	Write_CenterIpType:
 2390              	.LFB98:
 984:Code\Device\W25Q80/user_data.c **** 
 985:Code\Device\W25Q80/user_data.c **** //*************************************************************************************************
 986:Code\Device\W25Q80/user_data.c **** // Function name	: Write_CenterIpType
 987:Code\Device\W25Q80/user_data.c **** // Description		: 写中心服务器类型
 988:Code\Device\W25Q80/user_data.c **** // Parameter		: rType	    : 中心服务器类型
 989:Code\Device\W25Q80/user_data.c **** // Return			: none
 990:Code\Device\W25Q80/user_data.c **** //-------------------------------------------------------------------------------------------------
 991:Code\Device\W25Q80/user_data.c **** // Info				: 
 992:Code\Device\W25Q80/user_data.c **** //*************************************************************************************************
 993:Code\Device\W25Q80/user_data.c **** void Write_CenterIpType(uint8 rType)
 994:Code\Device\W25Q80/user_data.c **** {
 2391              		.loc 1 994 0
 2392              		.cfi_startproc
 2393              		@ args = 0, pretend = 0, frame = 8
 2394              		@ frame_needed = 0, uses_anonymous_args = 0
 2395              	.LVL255:
 2396 0000 07B5     		push	{r0, r1, r2, lr}
 2397              		.cfi_def_cfa_offset 16
 2398              		.cfi_offset 0, -16
 2399              		.cfi_offset 1, -12
 2400              		.cfi_offset 2, -8
 2401              		.cfi_offset 14, -4
 2402              		.loc 1 994 0
ARM GAS  C:\Users\Administrator\AppData\Local\Temp\ccPIvPLo.s 			page 62


 2403 0002 6B46     		mov	r3, sp
 2404 0004 D871     		strb	r0, [r3, #7]
 2405 0006 0733     		adds	r3, r3, #7
 995:Code\Device\W25Q80/user_data.c **** 	W25QXX_Write((uint8 *)&rType, CenterIP_TYPE, 1);
 2406              		.loc 1 995 0
 2407 0008 0122     		movs	r2, #1
 2408 000a 0249     		ldr	r1, .L143
 2409 000c 1800     		movs	r0, r3
 2410              	.LVL256:
 2411 000e FFF7FEFF 		bl	W25QXX_Write
 2412              	.LVL257:
 996:Code\Device\W25Q80/user_data.c **** }
 2413              		.loc 1 996 0
 2414              		@ sp needed
 2415 0012 07BD     		pop	{r0, r1, r2, pc}
 2416              	.L144:
 2417              		.align	2
 2418              	.L143:
 2419 0014 01910100 		.word	102657
 2420              		.cfi_endproc
 2421              	.LFE98:
 2422              		.size	Write_CenterIpType, .-Write_CenterIpType
 2423              		.section	.text.Read_CenterIpType,"ax",%progbits
 2424              		.align	1
 2425              		.global	Read_CenterIpType
 2426              		.code	16
 2427              		.thumb_func
 2428              		.type	Read_CenterIpType, %function
 2429              	Read_CenterIpType:
 2430              	.LFB99:
 997:Code\Device\W25Q80/user_data.c **** 
 998:Code\Device\W25Q80/user_data.c **** //*************************************************************************************************
 999:Code\Device\W25Q80/user_data.c **** // Function name	: Read_RebootType
1000:Code\Device\W25Q80/user_data.c **** // Description		: 读中心服务器类型
1001:Code\Device\W25Q80/user_data.c **** // Parameter		: none
1002:Code\Device\W25Q80/user_data.c **** // Return			: rType	    : 中心服务器类型
1003:Code\Device\W25Q80/user_data.c **** //-------------------------------------------------------------------------------------------------
1004:Code\Device\W25Q80/user_data.c **** // Info				: 
1005:Code\Device\W25Q80/user_data.c **** //*************************************************************************************************
1006:Code\Device\W25Q80/user_data.c **** uint8 Read_CenterIpType(void)
1007:Code\Device\W25Q80/user_data.c **** {
 2431              		.loc 1 1007 0
 2432              		.cfi_startproc
 2433              		@ args = 0, pretend = 0, frame = 8
 2434              		@ frame_needed = 0, uses_anonymous_args = 0
 2435 0000 13B5     		push	{r0, r1, r4, lr}
 2436              		.cfi_def_cfa_offset 16
 2437              		.cfi_offset 0, -16
 2438              		.cfi_offset 1, -12
 2439              		.cfi_offset 4, -8
 2440              		.cfi_offset 14, -4
1008:Code\Device\W25Q80/user_data.c ****     uint8 rType;
1009:Code\Device\W25Q80/user_data.c ****     
1010:Code\Device\W25Q80/user_data.c **** 	W25QXX_Read((uint8 *)&rType, CenterIP_TYPE, 1);
 2441              		.loc 1 1010 0
 2442 0002 6B46     		mov	r3, sp
 2443 0004 DC1D     		adds	r4, r3, #7
ARM GAS  C:\Users\Administrator\AppData\Local\Temp\ccPIvPLo.s 			page 63


 2444 0006 2000     		movs	r0, r4
 2445 0008 0122     		movs	r2, #1
 2446 000a 0249     		ldr	r1, .L146
 2447 000c FFF7FEFF 		bl	W25QXX_Read
 2448              	.LVL258:
1011:Code\Device\W25Q80/user_data.c ****     return rType;
1012:Code\Device\W25Q80/user_data.c **** }
 2449              		.loc 1 1012 0
 2450              		@ sp needed
1011:Code\Device\W25Q80/user_data.c ****     return rType;
 2451              		.loc 1 1011 0
 2452 0010 2078     		ldrb	r0, [r4]
 2453              		.loc 1 1012 0
 2454 0012 16BD     		pop	{r1, r2, r4, pc}
 2455              	.L147:
 2456              		.align	2
 2457              	.L146:
 2458 0014 01910100 		.word	102657
 2459              		.cfi_endproc
 2460              	.LFE99:
 2461              		.size	Read_CenterIpType, .-Read_CenterIpType
 2462              		.section	.text.Write_UpdateInfo,"ax",%progbits
 2463              		.align	1
 2464              		.global	Write_UpdateInfo
 2465              		.code	16
 2466              		.thumb_func
 2467              		.type	Write_UpdateInfo, %function
 2468              	Write_UpdateInfo:
 2469              	.LFB100:
1013:Code\Device\W25Q80/user_data.c **** 
1014:Code\Device\W25Q80/user_data.c **** //*************************************************************************************************
1015:Code\Device\W25Q80/user_data.c **** // Function name	: Write_UpdateInfo
1016:Code\Device\W25Q80/user_data.c **** // Description		: 存升级版本和标志
1017:Code\Device\W25Q80/user_data.c **** // Parameter		: flag/ver
1018:Code\Device\W25Q80/user_data.c **** // Return			: none
1019:Code\Device\W25Q80/user_data.c **** //-------------------------------------------------------------------------------------------------
1020:Code\Device\W25Q80/user_data.c **** // Info				: 
1021:Code\Device\W25Q80/user_data.c **** //*************************************************************************************************
1022:Code\Device\W25Q80/user_data.c **** void Write_UpdateInfo(uint8 flag, uint16 ver)
1023:Code\Device\W25Q80/user_data.c **** {
 2470              		.loc 1 1023 0
 2471              		.cfi_startproc
 2472              		@ args = 0, pretend = 0, frame = 8
 2473              		@ frame_needed = 0, uses_anonymous_args = 0
 2474              	.LVL259:
 2475 0000 F7B5     		push	{r0, r1, r2, r4, r5, r6, r7, lr}
 2476              		.cfi_def_cfa_offset 32
 2477              		.cfi_offset 0, -32
 2478              		.cfi_offset 1, -28
 2479              		.cfi_offset 2, -24
 2480              		.cfi_offset 4, -20
 2481              		.cfi_offset 5, -16
 2482              		.cfi_offset 6, -12
 2483              		.cfi_offset 7, -8
 2484              		.cfi_offset 14, -4
1024:Code\Device\W25Q80/user_data.c **** 	uint8 tmp[3] = {0};
 2485              		.loc 1 1024 0
ARM GAS  C:\Users\Administrator\AppData\Local\Temp\ccPIvPLo.s 			page 64


 2486 0002 0325     		movs	r5, #3
1023:Code\Device\W25Q80/user_data.c **** 	uint8 tmp[3] = {0};
 2487              		.loc 1 1023 0
 2488 0004 0E00     		movs	r6, r1
 2489 0006 0700     		movs	r7, r0
 2490              		.loc 1 1024 0
 2491 0008 01AC     		add	r4, sp, #4
 2492 000a 2A00     		movs	r2, r5
 2493 000c 0021     		movs	r1, #0
 2494              	.LVL260:
 2495 000e 2000     		movs	r0, r4
 2496              	.LVL261:
 2497 0010 FFF7FEFF 		bl	memset
 2498              	.LVL262:
1025:Code\Device\W25Q80/user_data.c **** 	
1026:Code\Device\W25Q80/user_data.c **** 	tmp[0] = (uint8)(ver>>8);
 2499              		.loc 1 1026 0
 2500 0014 330A     		lsrs	r3, r6, #8
1027:Code\Device\W25Q80/user_data.c **** 	tmp[1] = (uint8)ver;
1028:Code\Device\W25Q80/user_data.c **** 	tmp[2] = flag;
1029:Code\Device\W25Q80/user_data.c **** 	
1030:Code\Device\W25Q80/user_data.c **** 	W25QXX_Write(tmp, UPDATE_SYSTEMVER, 3);
 2501              		.loc 1 1030 0
 2502 0016 2A00     		movs	r2, r5
 2503 0018 0349     		ldr	r1, .L149
 2504 001a 2000     		movs	r0, r4
1027:Code\Device\W25Q80/user_data.c **** 	tmp[1] = (uint8)ver;
 2505              		.loc 1 1027 0
 2506 001c 6670     		strb	r6, [r4, #1]
1028:Code\Device\W25Q80/user_data.c **** 	
 2507              		.loc 1 1028 0
 2508 001e A770     		strb	r7, [r4, #2]
1026:Code\Device\W25Q80/user_data.c **** 	tmp[1] = (uint8)ver;
 2509              		.loc 1 1026 0
 2510 0020 2370     		strb	r3, [r4]
1031:Code\Device\W25Q80/user_data.c **** 	
1032:Code\Device\W25Q80/user_data.c **** }
 2511              		.loc 1 1032 0
 2512              		@ sp needed
1030:Code\Device\W25Q80/user_data.c **** 	
 2513              		.loc 1 1030 0
 2514 0022 FFF7FEFF 		bl	W25QXX_Write
 2515              	.LVL263:
 2516              		.loc 1 1032 0
 2517 0026 F7BD     		pop	{r0, r1, r2, r4, r5, r6, r7, pc}
 2518              	.L150:
 2519              		.align	2
 2520              	.L149:
 2521 0028 03910100 		.word	102659
 2522              		.cfi_endproc
 2523              	.LFE100:
 2524              		.size	Write_UpdateInfo, .-Write_UpdateInfo
 2525              		.section	.text.Read_Updateflag,"ax",%progbits
 2526              		.align	1
 2527              		.global	Read_Updateflag
 2528              		.code	16
 2529              		.thumb_func
ARM GAS  C:\Users\Administrator\AppData\Local\Temp\ccPIvPLo.s 			page 65


 2530              		.type	Read_Updateflag, %function
 2531              	Read_Updateflag:
 2532              	.LFB101:
1033:Code\Device\W25Q80/user_data.c **** 
1034:Code\Device\W25Q80/user_data.c **** 
1035:Code\Device\W25Q80/user_data.c **** //*************************************************************************************************
1036:Code\Device\W25Q80/user_data.c **** // Function name	: Read_Updateflag
1037:Code\Device\W25Q80/user_data.c **** // Description		: 读升级标志
1038:Code\Device\W25Q80/user_data.c **** // Parameter		: none
1039:Code\Device\W25Q80/user_data.c **** // Return			: flag
1040:Code\Device\W25Q80/user_data.c **** //-------------------------------------------------------------------------------------------------
1041:Code\Device\W25Q80/user_data.c **** // Info				: 
1042:Code\Device\W25Q80/user_data.c **** //*************************************************************************************************
1043:Code\Device\W25Q80/user_data.c **** uint8 Read_Updateflag(void)
1044:Code\Device\W25Q80/user_data.c **** {	
 2533              		.loc 1 1044 0
 2534              		.cfi_startproc
 2535              		@ args = 0, pretend = 0, frame = 8
 2536              		@ frame_needed = 0, uses_anonymous_args = 0
 2537 0000 13B5     		push	{r0, r1, r4, lr}
 2538              		.cfi_def_cfa_offset 16
 2539              		.cfi_offset 0, -16
 2540              		.cfi_offset 1, -12
 2541              		.cfi_offset 4, -8
 2542              		.cfi_offset 14, -4
1045:Code\Device\W25Q80/user_data.c **** 	uint8 flag;
1046:Code\Device\W25Q80/user_data.c **** 	W25QXX_Read((uint8 *)&flag, UPDATE_FLAG, 1);
 2543              		.loc 1 1046 0
 2544 0002 6B46     		mov	r3, sp
 2545 0004 DC1D     		adds	r4, r3, #7
 2546 0006 2000     		movs	r0, r4
 2547 0008 0122     		movs	r2, #1
 2548 000a 0249     		ldr	r1, .L152
 2549 000c FFF7FEFF 		bl	W25QXX_Read
 2550              	.LVL264:
1047:Code\Device\W25Q80/user_data.c **** 	return flag;
1048:Code\Device\W25Q80/user_data.c **** }
 2551              		.loc 1 1048 0
 2552              		@ sp needed
1047:Code\Device\W25Q80/user_data.c **** 	return flag;
 2553              		.loc 1 1047 0
 2554 0010 2078     		ldrb	r0, [r4]
 2555              		.loc 1 1048 0
 2556 0012 16BD     		pop	{r1, r2, r4, pc}
 2557              	.L153:
 2558              		.align	2
 2559              	.L152:
 2560 0014 05910100 		.word	102661
 2561              		.cfi_endproc
 2562              	.LFE101:
 2563              		.size	Read_Updateflag, .-Read_Updateflag
 2564              		.section	.text.Read_UpdateVer,"ax",%progbits
 2565              		.align	1
 2566              		.global	Read_UpdateVer
 2567              		.code	16
 2568              		.thumb_func
 2569              		.type	Read_UpdateVer, %function
ARM GAS  C:\Users\Administrator\AppData\Local\Temp\ccPIvPLo.s 			page 66


 2570              	Read_UpdateVer:
 2571              	.LFB102:
1049:Code\Device\W25Q80/user_data.c **** 
1050:Code\Device\W25Q80/user_data.c **** //*************************************************************************************************
1051:Code\Device\W25Q80/user_data.c **** // Function name	: Read_UpdateVer
1052:Code\Device\W25Q80/user_data.c **** // Description		: 读升级版本
1053:Code\Device\W25Q80/user_data.c **** // Parameter		: none
1054:Code\Device\W25Q80/user_data.c **** // Return			: flag
1055:Code\Device\W25Q80/user_data.c **** //-------------------------------------------------------------------------------------------------
1056:Code\Device\W25Q80/user_data.c **** // Info				: 
1057:Code\Device\W25Q80/user_data.c **** //*************************************************************************************************
1058:Code\Device\W25Q80/user_data.c **** uint8 Read_UpdateVer(void)
1059:Code\Device\W25Q80/user_data.c **** {	
 2572              		.loc 1 1059 0
 2573              		.cfi_startproc
 2574              		@ args = 0, pretend = 0, frame = 8
 2575              		@ frame_needed = 0, uses_anonymous_args = 0
 2576 0000 13B5     		push	{r0, r1, r4, lr}
 2577              		.cfi_def_cfa_offset 16
 2578              		.cfi_offset 0, -16
 2579              		.cfi_offset 1, -12
 2580              		.cfi_offset 4, -8
 2581              		.cfi_offset 14, -4
1060:Code\Device\W25Q80/user_data.c **** 	uint8 ver;
1061:Code\Device\W25Q80/user_data.c **** 	W25QXX_Read((uint8 *)&ver, UPDATE_SYSTEMVER, 1);
 2582              		.loc 1 1061 0
 2583 0002 6B46     		mov	r3, sp
 2584 0004 DC1D     		adds	r4, r3, #7
 2585 0006 2000     		movs	r0, r4
 2586 0008 0122     		movs	r2, #1
 2587 000a 0249     		ldr	r1, .L155
 2588 000c FFF7FEFF 		bl	W25QXX_Read
 2589              	.LVL265:
1062:Code\Device\W25Q80/user_data.c **** 	return ver;
1063:Code\Device\W25Q80/user_data.c **** }
 2590              		.loc 1 1063 0
 2591              		@ sp needed
1062:Code\Device\W25Q80/user_data.c **** 	return ver;
 2592              		.loc 1 1062 0
 2593 0010 2078     		ldrb	r0, [r4]
 2594              		.loc 1 1063 0
 2595 0012 16BD     		pop	{r1, r2, r4, pc}
 2596              	.L156:
 2597              		.align	2
 2598              	.L155:
 2599 0014 03910100 		.word	102659
 2600              		.cfi_endproc
 2601              	.LFE102:
 2602              		.size	Read_UpdateVer, .-Read_UpdateVer
 2603              		.section	.text.Clear_AllOPeninfo,"ax",%progbits
 2604              		.align	1
 2605              		.global	Clear_AllOPeninfo
 2606              		.code	16
 2607              		.thumb_func
 2608              		.type	Clear_AllOPeninfo, %function
 2609              	Clear_AllOPeninfo:
 2610              	.LFB103:
ARM GAS  C:\Users\Administrator\AppData\Local\Temp\ccPIvPLo.s 			page 67


1064:Code\Device\W25Q80/user_data.c **** 
1065:Code\Device\W25Q80/user_data.c **** 
1066:Code\Device\W25Q80/user_data.c **** 
1067:Code\Device\W25Q80/user_data.c **** //*************************************************************************************************
1068:Code\Device\W25Q80/user_data.c **** // Function name	: Clear_AllOPeninfo
1069:Code\Device\W25Q80/user_data.c **** // Description		: 清除所有openinfo相关的信息区域
1070:Code\Device\W25Q80/user_data.c **** // Parameter		: none
1071:Code\Device\W25Q80/user_data.c **** // Return			: none
1072:Code\Device\W25Q80/user_data.c **** //-------------------------------------------------------------------------------------------------
1073:Code\Device\W25Q80/user_data.c **** // Info				: 测试用用 
1074:Code\Device\W25Q80/user_data.c **** //*************************************************************************************************
1075:Code\Device\W25Q80/user_data.c **** #if 1
1076:Code\Device\W25Q80/user_data.c **** void Clear_AllOPeninfo(void)
1077:Code\Device\W25Q80/user_data.c **** {
 2611              		.loc 1 1077 0
 2612              		.cfi_startproc
 2613              		@ args = 0, pretend = 0, frame = 5392
 2614              		@ frame_needed = 0, uses_anonymous_args = 0
 2615 0000 F0B5     		push	{r4, r5, r6, r7, lr}
 2616              		.cfi_def_cfa_offset 20
 2617              		.cfi_offset 4, -20
 2618              		.cfi_offset 5, -16
 2619              		.cfi_offset 6, -12
 2620              		.cfi_offset 7, -8
 2621              		.cfi_offset 14, -4
 2622 0002 224C     		ldr	r4, .L158
1078:Code\Device\W25Q80/user_data.c **** 	uint8_t opendate[256] = {0};
 2623              		.loc 1 1078 0
 2624 0004 8027     		movs	r7, #128
1077:Code\Device\W25Q80/user_data.c **** 	uint8_t opendate[256] = {0};
 2625              		.loc 1 1077 0
 2626 0006 A544     		add	sp, sp, r4
 2627              		.cfi_def_cfa_offset 5416
1079:Code\Device\W25Q80/user_data.c **** 	uint8_t opendate_flag[64] = {0};
 2628              		.loc 1 1079 0
 2629 0008 4024     		movs	r4, #64
1078:Code\Device\W25Q80/user_data.c **** 	uint8_t opendate[256] = {0};
 2630              		.loc 1 1078 0
 2631 000a 7F00     		lsls	r7, r7, #1
 2632 000c 3A00     		movs	r2, r7
 2633 000e 0021     		movs	r1, #0
 2634 0010 22A8     		add	r0, sp, #136
 2635 0012 FFF7FEFF 		bl	memset
 2636              	.LVL266:
 2637              		.loc 1 1079 0
 2638 0016 2200     		movs	r2, r4
 2639 0018 0021     		movs	r1, #0
 2640 001a 02A8     		add	r0, sp, #8
 2641 001c FFF7FEFF 		bl	memset
 2642              	.LVL267:
1080:Code\Device\W25Q80/user_data.c **** 	uint8_t opendate_qty[64] = {0};
 2643              		.loc 1 1080 0
 2644 0020 2200     		movs	r2, r4
 2645 0022 0021     		movs	r1, #0
 2646 0024 12A8     		add	r0, sp, #72
 2647 0026 FFF7FEFF 		bl	memset
 2648              	.LVL268:
ARM GAS  C:\Users\Administrator\AppData\Local\Temp\ccPIvPLo.s 			page 68


1081:Code\Device\W25Q80/user_data.c **** 	uint16_t data = 0;
 2649              		.loc 1 1081 0
 2650 002a 6B46     		mov	r3, sp
 2651 002c 0021     		movs	r1, #0
1082:Code\Device\W25Q80/user_data.c **** 	uint8_t flag[MAX_OPEN_NUM] = {0};
 2652              		.loc 1 1082 0
 2653 002e 184D     		ldr	r5, .L158+4
 2654 0030 62A8     		add	r0, sp, #392
 2655 0032 2A00     		movs	r2, r5
1081:Code\Device\W25Q80/user_data.c **** 	uint16_t data = 0;
 2656              		.loc 1 1081 0
 2657 0034 D980     		strh	r1, [r3, #6]
1083:Code\Device\W25Q80/user_data.c **** 	//memset(opendate,0xff,256);
1084:Code\Device\W25Q80/user_data.c **** 	//memset(opendate_flag,0xff,64);
1085:Code\Device\W25Q80/user_data.c **** 	//memset(flag,0xff,MAX_OPEN_NUM);
1086:Code\Device\W25Q80/user_data.c **** 	//清除flag区域
1087:Code\Device\W25Q80/user_data.c **** 	W25QXX_Write(flag,  OPEN_FLAG_BASE, MAX_OPEN_NUM);   
1088:Code\Device\W25Q80/user_data.c **** 	//清除数据区域
1089:Code\Device\W25Q80/user_data.c **** 	W25QXX_Write(flag,  OPEN_INFO_BASE, MAX_OPEN_NUM);  
 2658              		.loc 1 1089 0
 2659 0036 B826     		movs	r6, #184
1082:Code\Device\W25Q80/user_data.c **** 	uint8_t flag[MAX_OPEN_NUM] = {0};
 2660              		.loc 1 1082 0
 2661 0038 FFF7FEFF 		bl	memset
 2662              	.LVL269:
1087:Code\Device\W25Q80/user_data.c **** 	//清除数据区域
 2663              		.loc 1 1087 0
 2664 003c D021     		movs	r1, #208
 2665 003e 2A00     		movs	r2, r5
 2666 0040 62A8     		add	r0, sp, #392
 2667              		.loc 1 1089 0
 2668 0042 B601     		lsls	r6, r6, #6
1087:Code\Device\W25Q80/user_data.c **** 	//清除数据区域
 2669              		.loc 1 1087 0
 2670 0044 4901     		lsls	r1, r1, #5
 2671 0046 FFF7FEFF 		bl	W25QXX_Write
 2672              	.LVL270:
 2673              		.loc 1 1089 0
 2674 004a 2A00     		movs	r2, r5
 2675 004c 3100     		movs	r1, r6
 2676 004e 62A8     		add	r0, sp, #392
1090:Code\Device\W25Q80/user_data.c **** 	//W25QXX_Write((uint8_t *)&data,  OPEN_INFO_BASE+ (MAX_OPEN_NUM/2 *sizeof(open_door_t)), MAX_OPEN_
1091:Code\Device\W25Q80/user_data.c **** 	
1092:Code\Device\W25Q80/user_data.c **** 	//清除计数qty区域 2B
1093:Code\Device\W25Q80/user_data.c **** 	W25QXX_Write((uint8_t *)&data,  OPEN_QTY_BASE, 2);  
 2677              		.loc 1 1093 0
 2678 0050 C825     		movs	r5, #200
1089:Code\Device\W25Q80/user_data.c **** 	//W25QXX_Write((uint8_t *)&data,  OPEN_INFO_BASE+ (MAX_OPEN_NUM/2 *sizeof(open_door_t)), MAX_OPEN_
 2679              		.loc 1 1089 0
 2680 0052 FFF7FEFF 		bl	W25QXX_Write
 2681              	.LVL271:
 2682              		.loc 1 1093 0
 2683 0056 6B46     		mov	r3, sp
 2684 0058 6D02     		lsls	r5, r5, #9
 2685 005a 981D     		adds	r0, r3, #6
 2686 005c 2900     		movs	r1, r5
 2687 005e 0222     		movs	r2, #2
ARM GAS  C:\Users\Administrator\AppData\Local\Temp\ccPIvPLo.s 			page 69


 2688 0060 FFF7FEFF 		bl	W25QXX_Write
 2689              	.LVL272:
1094:Code\Device\W25Q80/user_data.c **** 	
1095:Code\Device\W25Q80/user_data.c **** 		//==测试开门信息日志表
1096:Code\Device\W25Q80/user_data.c **** 	W25QXX_Read(opendate, OPEN_INFO_BASE,256);
 2690              		.loc 1 1096 0
 2691 0064 3A00     		movs	r2, r7
 2692 0066 3100     		movs	r1, r6
 2693 0068 22A8     		add	r0, sp, #136
 2694 006a FFF7FEFF 		bl	W25QXX_Read
 2695              	.LVL273:
1097:Code\Device\W25Q80/user_data.c **** 	W25QXX_Read(opendate_flag, OPEN_FLAG_BASE,64);
 2696              		.loc 1 1097 0
 2697 006e D021     		movs	r1, #208
 2698 0070 2200     		movs	r2, r4
 2699 0072 02A8     		add	r0, sp, #8
 2700 0074 4901     		lsls	r1, r1, #5
 2701 0076 FFF7FEFF 		bl	W25QXX_Read
 2702              	.LVL274:
1098:Code\Device\W25Q80/user_data.c **** 	W25QXX_Read(opendate_qty, OPEN_QTY_BASE,64);
 2703              		.loc 1 1098 0
 2704 007a 2200     		movs	r2, r4
 2705 007c 2900     		movs	r1, r5
 2706 007e 12A8     		add	r0, sp, #72
 2707 0080 FFF7FEFF 		bl	W25QXX_Read
 2708              	.LVL275:
1099:Code\Device\W25Q80/user_data.c **** 	
1100:Code\Device\W25Q80/user_data.c **** 	DBG_SOFT_PutStr("\r\n Read open date:\r\n");
1101:Code\Device\W25Q80/user_data.c **** 	DBG_SOFT_PrintfHex(opendate,256,17);
1102:Code\Device\W25Q80/user_data.c **** 	
1103:Code\Device\W25Q80/user_data.c **** 	DBG_SOFT_PutStr("\r\n Read open flag:\r\n");
1104:Code\Device\W25Q80/user_data.c **** 	DBG_SOFT_PrintfHex(opendate_flag,64,16);
1105:Code\Device\W25Q80/user_data.c **** 	
1106:Code\Device\W25Q80/user_data.c **** 	DBG_SOFT_PutStr("\r\n Read open qty:\r\n");
1107:Code\Device\W25Q80/user_data.c **** 	DBG_SOFT_PrintfHex(opendate_qty,8,16);
1108:Code\Device\W25Q80/user_data.c **** }
 2709              		.loc 1 1108 0
 2710 0084 034B     		ldr	r3, .L158+8
 2711 0086 9D44     		add	sp, sp, r3
 2712              		@ sp needed
 2713 0088 F0BD     		pop	{r4, r5, r6, r7, pc}
 2714              	.L159:
 2715 008a C046     		.align	2
 2716              	.L158:
 2717 008c ECEAFFFF 		.word	-5396
 2718 0090 88130000 		.word	5000
 2719 0094 14150000 		.word	5396
 2720              		.cfi_endproc
 2721              	.LFE103:
 2722              		.size	Clear_AllOPeninfo, .-Clear_AllOPeninfo
 2723              		.section	.text.test_Flash,"ax",%progbits
 2724              		.align	1
 2725              		.global	test_Flash
 2726              		.code	16
 2727              		.thumb_func
 2728              		.type	test_Flash, %function
 2729              	test_Flash:
ARM GAS  C:\Users\Administrator\AppData\Local\Temp\ccPIvPLo.s 			page 70


 2730              	.LFB104:
1109:Code\Device\W25Q80/user_data.c **** #endif
1110:Code\Device\W25Q80/user_data.c **** 
1111:Code\Device\W25Q80/user_data.c **** void test_Flash(void)
1112:Code\Device\W25Q80/user_data.c **** {
 2731              		.loc 1 1112 0
 2732              		.cfi_startproc
 2733              		@ args = 0, pretend = 0, frame = 904
 2734              		@ frame_needed = 0, uses_anonymous_args = 0
 2735 0000 70B5     		push	{r4, r5, r6, lr}
 2736              		.cfi_def_cfa_offset 16
 2737              		.cfi_offset 4, -16
 2738              		.cfi_offset 5, -12
 2739              		.cfi_offset 6, -8
 2740              		.cfi_offset 14, -4
 2741 0002 204C     		ldr	r4, .L161
1113:Code\Device\W25Q80/user_data.c **** 	uint8_t userflag[64] = {0};
1114:Code\Device\W25Q80/user_data.c **** 	uint8_t userinfo[256] = {0};
 2742              		.loc 1 1114 0
 2743 0004 8026     		movs	r6, #128
1112:Code\Device\W25Q80/user_data.c **** 	uint8_t userflag[64] = {0};
 2744              		.loc 1 1112 0
 2745 0006 A544     		add	sp, sp, r4
 2746              		.cfi_def_cfa_offset 920
1113:Code\Device\W25Q80/user_data.c **** 	uint8_t userflag[64] = {0};
 2747              		.loc 1 1113 0
 2748 0008 4024     		movs	r4, #64
1115:Code\Device\W25Q80/user_data.c **** 	
1116:Code\Device\W25Q80/user_data.c **** 	//==测试用户信息日志表
1117:Code\Device\W25Q80/user_data.c **** 	W25QXX_Read(userflag, USER_FLAG_BASE,64);
1118:Code\Device\W25Q80/user_data.c **** 	W25QXX_Read(userinfo, USER_INFO_BASE,256);
 2749              		.loc 1 1118 0
 2750 000a 8025     		movs	r5, #128
1113:Code\Device\W25Q80/user_data.c **** 	uint8_t userinfo[256] = {0};
 2751              		.loc 1 1113 0
 2752 000c 2200     		movs	r2, r4
1114:Code\Device\W25Q80/user_data.c **** 	
 2753              		.loc 1 1114 0
 2754 000e 7600     		lsls	r6, r6, #1
1113:Code\Device\W25Q80/user_data.c **** 	uint8_t userinfo[256] = {0};
 2755              		.loc 1 1113 0
 2756 0010 0021     		movs	r1, #0
 2757 0012 02A8     		add	r0, sp, #8
 2758 0014 FFF7FEFF 		bl	memset
 2759              	.LVL276:
1114:Code\Device\W25Q80/user_data.c **** 	
 2760              		.loc 1 1114 0
 2761 0018 3200     		movs	r2, r6
 2762 001a 0021     		movs	r1, #0
 2763 001c 22A8     		add	r0, sp, #136
 2764 001e FFF7FEFF 		bl	memset
 2765              	.LVL277:
 2766              		.loc 1 1118 0
 2767 0022 AD00     		lsls	r5, r5, #2
1117:Code\Device\W25Q80/user_data.c **** 	W25QXX_Read(userinfo, USER_INFO_BASE,256);
 2768              		.loc 1 1117 0
 2769 0024 2200     		movs	r2, r4
ARM GAS  C:\Users\Administrator\AppData\Local\Temp\ccPIvPLo.s 			page 71


 2770 0026 02A8     		add	r0, sp, #8
 2771 0028 0021     		movs	r1, #0
 2772 002a FFF7FEFF 		bl	W25QXX_Read
 2773              	.LVL278:
 2774              		.loc 1 1118 0
 2775 002e 3200     		movs	r2, r6
 2776 0030 2900     		movs	r1, r5
 2777 0032 22A8     		add	r0, sp, #136
 2778 0034 FFF7FEFF 		bl	W25QXX_Read
 2779              	.LVL279:
1119:Code\Device\W25Q80/user_data.c **** 	
1120:Code\Device\W25Q80/user_data.c **** 	
1121:Code\Device\W25Q80/user_data.c **** 	DBG_SOFT_PutStr("\r\n userflag:\r\n");
1122:Code\Device\W25Q80/user_data.c **** 	DBG_SOFT_PrintfHex(userflag,16,16);
1123:Code\Device\W25Q80/user_data.c **** 	
1124:Code\Device\W25Q80/user_data.c **** 	DBG_SOFT_PutStr("\r\n userinfo:\r\n");
1125:Code\Device\W25Q80/user_data.c **** 	DBG_SOFT_PrintfHex(userinfo,96,16);
1126:Code\Device\W25Q80/user_data.c **** 	
1127:Code\Device\W25Q80/user_data.c **** 	uint8_t opendate[512] = {0};
 2780              		.loc 1 1127 0
 2781 0038 2A00     		movs	r2, r5
 2782 003a 0021     		movs	r1, #0
 2783 003c 62A8     		add	r0, sp, #392
 2784 003e FFF7FEFF 		bl	memset
 2785              	.LVL280:
1128:Code\Device\W25Q80/user_data.c **** 	uint8_t opendate_flag[64] = {0};
 2786              		.loc 1 1128 0
 2787 0042 2200     		movs	r2, r4
 2788 0044 0021     		movs	r1, #0
 2789 0046 12A8     		add	r0, sp, #72
 2790 0048 FFF7FEFF 		bl	memset
 2791              	.LVL281:
1129:Code\Device\W25Q80/user_data.c **** 	uint8_t opendate_qty[8] = {0};
 2792              		.loc 1 1129 0
 2793 004c 0822     		movs	r2, #8
 2794 004e 0021     		movs	r1, #0
 2795 0050 6846     		mov	r0, sp
 2796 0052 FFF7FEFF 		bl	memset
 2797              	.LVL282:
1130:Code\Device\W25Q80/user_data.c **** 	
1131:Code\Device\W25Q80/user_data.c **** 	//==测试开门信息日志表
1132:Code\Device\W25Q80/user_data.c **** 	W25QXX_Read(opendate, OPEN_INFO_BASE,512);
 2798              		.loc 1 1132 0
 2799 0056 B821     		movs	r1, #184
 2800 0058 2A00     		movs	r2, r5
 2801 005a 62A8     		add	r0, sp, #392
 2802 005c 8901     		lsls	r1, r1, #6
 2803 005e FFF7FEFF 		bl	W25QXX_Read
 2804              	.LVL283:
1133:Code\Device\W25Q80/user_data.c **** 	W25QXX_Read(opendate_flag, OPEN_FLAG_BASE,64);
 2805              		.loc 1 1133 0
 2806 0062 D021     		movs	r1, #208
 2807 0064 2200     		movs	r2, r4
 2808 0066 12A8     		add	r0, sp, #72
 2809 0068 4901     		lsls	r1, r1, #5
 2810 006a FFF7FEFF 		bl	W25QXX_Read
 2811              	.LVL284:
ARM GAS  C:\Users\Administrator\AppData\Local\Temp\ccPIvPLo.s 			page 72


1134:Code\Device\W25Q80/user_data.c **** 	W25QXX_Read(opendate_qty, OPEN_QTY_BASE,64);
 2812              		.loc 1 1134 0
 2813 006e C821     		movs	r1, #200
 2814 0070 2200     		movs	r2, r4
 2815 0072 4902     		lsls	r1, r1, #9
 2816 0074 6846     		mov	r0, sp
 2817 0076 FFF7FEFF 		bl	W25QXX_Read
 2818              	.LVL285:
1135:Code\Device\W25Q80/user_data.c **** 	
1136:Code\Device\W25Q80/user_data.c **** 	DBG_SOFT_PutStr("\r\n Read open date:\r\n");
1137:Code\Device\W25Q80/user_data.c **** 	DBG_SOFT_PrintfHex(opendate,512,17);
1138:Code\Device\W25Q80/user_data.c **** 	
1139:Code\Device\W25Q80/user_data.c **** 	DBG_SOFT_PutStr("\r\n Read open flag:\r\n");
1140:Code\Device\W25Q80/user_data.c **** 	DBG_SOFT_PrintfHex(opendate_flag,64,16);
1141:Code\Device\W25Q80/user_data.c **** 	
1142:Code\Device\W25Q80/user_data.c **** 	DBG_SOFT_PutStr("\r\n Read open qty:\r\n");
1143:Code\Device\W25Q80/user_data.c **** 	DBG_SOFT_PrintfHex(opendate_qty,8,16);
1144:Code\Device\W25Q80/user_data.c **** }
 2819              		.loc 1 1144 0
 2820 007a E223     		movs	r3, #226
 2821 007c 9B00     		lsls	r3, r3, #2
 2822 007e 9D44     		add	sp, sp, r3
 2823              		@ sp needed
 2824 0080 70BD     		pop	{r4, r5, r6, pc}
 2825              	.L162:
 2826 0082 C046     		.align	2
 2827              	.L161:
 2828 0084 78FCFFFF 		.word	-904
 2829              		.cfi_endproc
 2830              	.LFE104:
 2831              		.size	test_Flash, .-test_Flash
 2832              		.section	.text.test_readopeninfo,"ax",%progbits
 2833              		.align	1
 2834              		.global	test_readopeninfo
 2835              		.code	16
 2836              		.thumb_func
 2837              		.type	test_readopeninfo, %function
 2838              	test_readopeninfo:
 2839              	.LFB105:
1145:Code\Device\W25Q80/user_data.c **** 
1146:Code\Device\W25Q80/user_data.c **** void test_readopeninfo(void)
1147:Code\Device\W25Q80/user_data.c **** {
 2840              		.loc 1 1147 0
 2841              		.cfi_startproc
 2842              		@ args = 0, pretend = 0, frame = 16
 2843              		@ frame_needed = 0, uses_anonymous_args = 0
 2844 0000 1FB5     		push	{r0, r1, r2, r3, r4, lr}
 2845              		.cfi_def_cfa_offset 24
 2846              		.cfi_offset 0, -24
 2847              		.cfi_offset 1, -20
 2848              		.cfi_offset 2, -16
 2849              		.cfi_offset 3, -12
 2850              		.cfi_offset 4, -8
 2851              		.cfi_offset 14, -4
1148:Code\Device\W25Q80/user_data.c **** 	open_door_t open_tmp;	
1149:Code\Device\W25Q80/user_data.c **** 	Read_OpenInfo(5,&open_tmp);
 2852              		.loc 1 1149 0
ARM GAS  C:\Users\Administrator\AppData\Local\Temp\ccPIvPLo.s 			page 73


 2853 0002 0520     		movs	r0, #5
 2854 0004 6946     		mov	r1, sp
 2855 0006 FFF7FEFF 		bl	Read_OpenInfo
 2856              	.LVL286:
1150:Code\Device\W25Q80/user_data.c **** 	DBG_SOFT_PutStr("\r\n Read openinfor test:\r\n");
1151:Code\Device\W25Q80/user_data.c **** 	DBG_SOFT_PrintfHex(&open_tmp,16,16);
1152:Code\Device\W25Q80/user_data.c **** }
 2857              		.loc 1 1152 0
 2858 000a 05B0     		add	sp, sp, #20
 2859              		@ sp needed
 2860 000c 00BD     		pop	{pc}
 2861              		.cfi_endproc
 2862              	.LFE105:
 2863              		.size	test_readopeninfo, .-test_readopeninfo
 2864              		.text
 2865              	.Letext0:
 2866              		.file 2 "c:\\program files (x86)\\cypress\\psoc creator\\4.1\\psoc creator\\import\\gnu\\arm\\5.4.
 2867              		.file 3 "c:\\program files (x86)\\cypress\\psoc creator\\4.1\\psoc creator\\import\\gnu\\arm\\5.4.
 2868              		.file 4 "Generated_Source\\PSoC4/cytypes.h"
 2869              		.file 5 "Code\\Device\\W25Q80\\user_data.h"
 2870              		.file 6 "Generated_Source\\PSoC4/RTC.h"
 2871              		.file 7 "Code\\Device\\W25Q80\\w25qxx.h"
 2872              		.file 8 "c:\\program files (x86)\\cypress\\psoc creator\\4.1\\psoc creator\\import\\gnu\\arm\\5.4.