ARM GAS  C:\Users\Administrator\AppData\Local\Temp\ccNGZ1OQ.s 			page 1


   1              		.syntax unified
   2              		.cpu cortex-m0
   3              		.fpu softvfp
   4              		.eabi_attribute 20, 1
   5              		.eabi_attribute 21, 1
   6              		.eabi_attribute 23, 3
   7              		.eabi_attribute 24, 1
   8              		.eabi_attribute 25, 1
   9              		.eabi_attribute 26, 1
  10              		.eabi_attribute 30, 4
  11              		.eabi_attribute 34, 0
  12              		.eabi_attribute 18, 4
  13              		.thumb
  14              		.syntax unified
  15              		.file	"voice.c"
  16              		.text
  17              	.Ltext0:
  18              		.cfi_sections	.debug_frame
  19              		.section	.text.BeepPlay_WaitTime,"ax",%progbits
  20              		.align	1
  21              		.global	BeepPlay_WaitTime
  22              		.code	16
  23              		.thumb_func
  24              		.type	BeepPlay_WaitTime, %function
  25              	BeepPlay_WaitTime:
  26              	.LFB63:
  27              		.file 1 "Code\\UserApp\\Voice\\voice.c"
   1:Code\UserApp\Voice/voice.c **** //*************************************************************************************************
   2:Code\UserApp\Voice/voice.c **** // File name		: voice.c
   3:Code\UserApp\Voice/voice.c **** // Description		: 语音的相关函数
   4:Code\UserApp\Voice/voice.c **** // Author			: Keno
   5:Code\UserApp\Voice/voice.c **** // Date				: 2016.8.8
   6:Code\UserApp\Voice/voice.c **** // Version			: V02
   7:Code\UserApp\Voice/voice.c **** //-------------------------------------------------------------------------------------------------
   8:Code\UserApp\Voice/voice.c **** // Info				: 
   9:Code\UserApp\Voice/voice.c **** //*************************************************************************************************
  10:Code\UserApp\Voice/voice.c **** #include "voice.h"
  11:Code\UserApp\Voice/voice.c **** #include "common.h"
  12:Code\UserApp\Voice/voice.c **** 
  13:Code\UserApp\Voice/voice.c **** 
  14:Code\UserApp\Voice/voice.c **** //********************************************** 变量声明 *************************************
  15:Code\UserApp\Voice/voice.c **** vINT32U  BeepDelay_TimeOut;
  16:Code\UserApp\Voice/voice.c **** 
  17:Code\UserApp\Voice/voice.c **** 
  18:Code\UserApp\Voice/voice.c **** //*********************************************** 宏定义 ***************************************
  19:Code\UserApp\Voice/voice.c **** #define Sound_DO		956				//频率2092
  20:Code\UserApp\Voice/voice.c **** #define Sound_RE		850				//频率2350
  21:Code\UserApp\Voice/voice.c **** #define Sound_MI		758				//频率2636
  22:Code\UserApp\Voice/voice.c **** #define Sound_FA		716				//频率2794
  23:Code\UserApp\Voice/voice.c **** #define Sound_SO		668				//频率3136
  24:Code\UserApp\Voice/voice.c **** #define Sound_LA		284				//频率3520
  25:Code\UserApp\Voice/voice.c **** #define Sound_SI		253				//频率3952
  26:Code\UserApp\Voice/voice.c ****     
  27:Code\UserApp\Voice/voice.c **** #define Sound_DI		333				//频率3000
  28:Code\UserApp\Voice/voice.c **** #define Sound_DING		999			    //频率1500   
  29:Code\UserApp\Voice/voice.c **** 
  30:Code\UserApp\Voice/voice.c **** 
ARM GAS  C:\Users\Administrator\AppData\Local\Temp\ccNGZ1OQ.s 			page 2


  31:Code\UserApp\Voice/voice.c **** 
  32:Code\UserApp\Voice/voice.c **** //*************************************************************************************************
  33:Code\UserApp\Voice/voice.c **** // Function name	: Beep_Delay_50ms
  34:Code\UserApp\Voice/voice.c **** // Description		: 蜂鸣器播放的计时函数
  35:Code\UserApp\Voice/voice.c **** // Parameter		: none
  36:Code\UserApp\Voice/voice.c **** // Return			: none
  37:Code\UserApp\Voice/voice.c **** //-------------------------------------------------------------------------------------------------
  38:Code\UserApp\Voice/voice.c **** // Info				:
  39:Code\UserApp\Voice/voice.c **** //*************************************************************************************************
  40:Code\UserApp\Voice/voice.c **** void BeepPlay_WaitTime(void)
  41:Code\UserApp\Voice/voice.c **** {
  28              		.loc 1 41 0
  29              		.cfi_startproc
  30              		@ args = 0, pretend = 0, frame = 0
  31              		@ frame_needed = 0, uses_anonymous_args = 0
  32              		@ link register save eliminated.
  42:Code\UserApp\Voice/voice.c ****     if (BeepDelay_TimeOut > 0)
  33              		.loc 1 42 0
  34 0000 034B     		ldr	r3, .L7
  35 0002 1A68     		ldr	r2, [r3]
  36 0004 002A     		cmp	r2, #0
  37 0006 02D0     		beq	.L1
  43:Code\UserApp\Voice/voice.c **** 	{
  44:Code\UserApp\Voice/voice.c **** 		BeepDelay_TimeOut--;
  38              		.loc 1 44 0
  39 0008 1A68     		ldr	r2, [r3]
  40 000a 013A     		subs	r2, r2, #1
  41 000c 1A60     		str	r2, [r3]
  42              	.L1:
  45:Code\UserApp\Voice/voice.c **** 	}
  46:Code\UserApp\Voice/voice.c **** }
  43              		.loc 1 46 0
  44              		@ sp needed
  45 000e 7047     		bx	lr
  46              	.L8:
  47              		.align	2
  48              	.L7:
  49 0010 00000000 		.word	BeepDelay_TimeOut
  50              		.cfi_endproc
  51              	.LFE63:
  52              		.size	BeepPlay_WaitTime, .-BeepPlay_WaitTime
  53              		.section	.text.BeepPlay_Delay,"ax",%progbits
  54              		.align	1
  55              		.global	BeepPlay_Delay
  56              		.code	16
  57              		.thumb_func
  58              		.type	BeepPlay_Delay, %function
  59              	BeepPlay_Delay:
  60              	.LFB64:
  47:Code\UserApp\Voice/voice.c **** 
  48:Code\UserApp\Voice/voice.c **** //*************************************************************************************************
  49:Code\UserApp\Voice/voice.c **** // Function name	: BeepPlay_Delay
  50:Code\UserApp\Voice/voice.c **** // Description		: Beep的播报延时函数
  51:Code\UserApp\Voice/voice.c **** // Parameter		: cnt : 延时时间
  52:Code\UserApp\Voice/voice.c **** // Return			: none
  53:Code\UserApp\Voice/voice.c **** //-------------------------------------------------------------------------------------------------
  54:Code\UserApp\Voice/voice.c **** // 说明				: 1ms
ARM GAS  C:\Users\Administrator\AppData\Local\Temp\ccNGZ1OQ.s 			page 3


  55:Code\UserApp\Voice/voice.c **** //*************************************************************************************************
  56:Code\UserApp\Voice/voice.c **** void BeepPlay_Delay(uint16_t cnt)
  57:Code\UserApp\Voice/voice.c **** {
  61              		.loc 1 57 0
  62              		.cfi_startproc
  63              		@ args = 0, pretend = 0, frame = 0
  64              		@ frame_needed = 0, uses_anonymous_args = 0
  65              	.LVL0:
  58:Code\UserApp\Voice/voice.c ****     BeepDelay_TimeOut = cnt;
  66              		.loc 1 58 0
  67 0000 054B     		ldr	r3, .L13
  57:Code\UserApp\Voice/voice.c ****     BeepDelay_TimeOut = cnt;
  68              		.loc 1 57 0
  69 0002 10B5     		push	{r4, lr}
  70              		.cfi_def_cfa_offset 8
  71              		.cfi_offset 4, -8
  72              		.cfi_offset 14, -4
  73 0004 1C00     		movs	r4, r3
  74              		.loc 1 58 0
  75 0006 1860     		str	r0, [r3]
  76              	.LVL1:
  77              	.L10:
  59:Code\UserApp\Voice/voice.c ****     while (BeepDelay_TimeOut > 0)
  78              		.loc 1 59 0
  79 0008 2368     		ldr	r3, [r4]
  80 000a 002B     		cmp	r3, #0
  81 000c 02D0     		beq	.L12
  82              	.LBB6:
  60:Code\UserApp\Voice/voice.c ****     {
  61:Code\UserApp\Voice/voice.c ****         CyBle_ProcessEvents();
  83              		.loc 1 61 0
  84 000e FFF7FEFF 		bl	CyBle_ProcessEvents
  85              	.LVL2:
  86 0012 F9E7     		b	.L10
  87              	.L12:
  88              	.LBE6:
  62:Code\UserApp\Voice/voice.c ****     }
  63:Code\UserApp\Voice/voice.c **** }
  89              		.loc 1 63 0
  90              		@ sp needed
  91 0014 10BD     		pop	{r4, pc}
  92              	.L14:
  93 0016 C046     		.align	2
  94              	.L13:
  95 0018 00000000 		.word	BeepDelay_TimeOut
  96              		.cfi_endproc
  97              	.LFE64:
  98              		.size	BeepPlay_Delay, .-BeepPlay_Delay
  99              		.section	.text.play_single,"ax",%progbits
 100              		.align	1
 101              		.global	play_single
 102              		.code	16
 103              		.thumb_func
 104              		.type	play_single, %function
 105              	play_single:
 106              	.LFB65:
  64:Code\UserApp\Voice/voice.c **** 
ARM GAS  C:\Users\Administrator\AppData\Local\Temp\ccNGZ1OQ.s 			page 4


  65:Code\UserApp\Voice/voice.c **** //*************************************************************************************************
  66:Code\UserApp\Voice/voice.c **** // Function name	: PowerOn_Play
  67:Code\UserApp\Voice/voice.c **** // Description		: play_single
  68:Code\UserApp\Voice/voice.c **** // Parameter		: Sound:播放单音频率; delay_50ms:延时时间50ms基数
  69:Code\UserApp\Voice/voice.c **** // Return			: none
  70:Code\UserApp\Voice/voice.c **** //-------------------------------------------------------------------------------------------------
  71:Code\UserApp\Voice/voice.c **** // 说明				: 
  72:Code\UserApp\Voice/voice.c **** //*************************************************************************************************
  73:Code\UserApp\Voice/voice.c **** void play_single(uint16_t Sound,uint16_t delay_1ms)
  74:Code\UserApp\Voice/voice.c **** {
 107              		.loc 1 74 0
 108              		.cfi_startproc
 109              		@ args = 0, pretend = 0, frame = 0
 110              		@ frame_needed = 0, uses_anonymous_args = 0
 111              	.LVL3:
 112 0000 70B5     		push	{r4, r5, r6, lr}
 113              		.cfi_def_cfa_offset 16
 114              		.cfi_offset 4, -16
 115              		.cfi_offset 5, -12
 116              		.cfi_offset 6, -8
 117              		.cfi_offset 14, -4
 118              		.loc 1 74 0
 119 0002 0400     		movs	r4, r0
 120 0004 0D00     		movs	r5, r1
  75:Code\UserApp\Voice/voice.c **** 	TIMER_WriteCounter(0);
 121              		.loc 1 75 0
 122 0006 0020     		movs	r0, #0
 123              	.LVL4:
 124 0008 FFF7FEFF 		bl	TIMER_WriteCounter
 125              	.LVL5:
  76:Code\UserApp\Voice/voice.c ****     TIMER_WritePeriod(0);
 126              		.loc 1 76 0
 127 000c 0020     		movs	r0, #0
 128 000e FFF7FEFF 		bl	TIMER_WritePeriod
 129              	.LVL6:
  77:Code\UserApp\Voice/voice.c ****     TIMER_WriteCompare(0);
 130              		.loc 1 77 0
 131 0012 0020     		movs	r0, #0
 132 0014 FFF7FEFF 		bl	TIMER_WriteCompare
 133              	.LVL7:
  78:Code\UserApp\Voice/voice.c **** 	TIMER_Start();
 134              		.loc 1 78 0
 135 0018 FFF7FEFF 		bl	TIMER_Start
 136              	.LVL8:
  79:Code\UserApp\Voice/voice.c **** 	BeepPlay_Delay(3);
 137              		.loc 1 79 0
 138 001c 0320     		movs	r0, #3
 139 001e FFF7FEFF 		bl	BeepPlay_Delay
 140              	.LVL9:
  80:Code\UserApp\Voice/voice.c **** 	TIMER_Stop();
 141              		.loc 1 80 0
 142 0022 FFF7FEFF 		bl	TIMER_Stop
 143              	.LVL10:
  81:Code\UserApp\Voice/voice.c **** 	
  82:Code\UserApp\Voice/voice.c ****     TIMER_WriteCounter(0);
 144              		.loc 1 82 0
 145 0026 0020     		movs	r0, #0
ARM GAS  C:\Users\Administrator\AppData\Local\Temp\ccNGZ1OQ.s 			page 5


 146 0028 FFF7FEFF 		bl	TIMER_WriteCounter
 147              	.LVL11:
  83:Code\UserApp\Voice/voice.c ****     TIMER_WritePeriod(Sound - 1);
 148              		.loc 1 83 0
 149 002c 601E     		subs	r0, r4, #1
 150 002e FFF7FEFF 		bl	TIMER_WritePeriod
 151              	.LVL12:
  84:Code\UserApp\Voice/voice.c ****     TIMER_WriteCompare(Sound/2 -1);
 152              		.loc 1 84 0
 153 0032 6008     		lsrs	r0, r4, #1
 154 0034 0138     		subs	r0, r0, #1
 155 0036 FFF7FEFF 		bl	TIMER_WriteCompare
 156              	.LVL13:
  85:Code\UserApp\Voice/voice.c ****     TIMER_Start();
 157              		.loc 1 85 0
 158 003a FFF7FEFF 		bl	TIMER_Start
 159              	.LVL14:
  86:Code\UserApp\Voice/voice.c ****     BeepPlay_Delay(delay_1ms);
 160              		.loc 1 86 0
 161 003e 2800     		movs	r0, r5
 162 0040 FFF7FEFF 		bl	BeepPlay_Delay
 163              	.LVL15:
  87:Code\UserApp\Voice/voice.c ****     TIMER_Stop();
  88:Code\UserApp\Voice/voice.c **** }
 164              		.loc 1 88 0
 165              		@ sp needed
  87:Code\UserApp\Voice/voice.c ****     TIMER_Stop();
 166              		.loc 1 87 0
 167 0044 FFF7FEFF 		bl	TIMER_Stop
 168              	.LVL16:
 169              		.loc 1 88 0
 170 0048 70BD     		pop	{r4, r5, r6, pc}
 171              		.cfi_endproc
 172              	.LFE65:
 173              		.size	play_single, .-play_single
 174              		.section	.text.System_ShortDI_Play,"ax",%progbits
 175              		.align	1
 176              		.global	System_ShortDI_Play
 177              		.code	16
 178              		.thumb_func
 179              		.type	System_ShortDI_Play, %function
 180              	System_ShortDI_Play:
 181              	.LFB66:
  89:Code\UserApp\Voice/voice.c **** 
  90:Code\UserApp\Voice/voice.c **** //*************************************************************************************************
  91:Code\UserApp\Voice/voice.c **** // Function name	: System_ShortDI_Play
  92:Code\UserApp\Voice/voice.c **** // Description		: 短音
  93:Code\UserApp\Voice/voice.c **** // Parameter		: none
  94:Code\UserApp\Voice/voice.c **** // Return			: none
  95:Code\UserApp\Voice/voice.c **** //-------------------------------------------------------------------------------------------------
  96:Code\UserApp\Voice/voice.c **** // 说明				: 
  97:Code\UserApp\Voice/voice.c **** //*************************************************************************************************
  98:Code\UserApp\Voice/voice.c **** void System_ShortDI_Play(void)
  99:Code\UserApp\Voice/voice.c **** {
 182              		.loc 1 99 0
 183              		.cfi_startproc
 184              		@ args = 0, pretend = 0, frame = 0
ARM GAS  C:\Users\Administrator\AppData\Local\Temp\ccNGZ1OQ.s 			page 6


 185              		@ frame_needed = 0, uses_anonymous_args = 0
 100:Code\UserApp\Voice/voice.c **** 	play_single(Sound_DI,200);
 186              		.loc 1 100 0
 187 0000 4E20     		movs	r0, #78
  99:Code\UserApp\Voice/voice.c **** 	play_single(Sound_DI,200);
 188              		.loc 1 99 0
 189 0002 10B5     		push	{r4, lr}
 190              		.cfi_def_cfa_offset 8
 191              		.cfi_offset 4, -8
 192              		.cfi_offset 14, -4
 193              		.loc 1 100 0
 194 0004 C821     		movs	r1, #200
 195 0006 FF30     		adds	r0, r0, #255
 196 0008 FFF7FEFF 		bl	play_single
 197              	.LVL17:
 101:Code\UserApp\Voice/voice.c **** }
 198              		.loc 1 101 0
 199              		@ sp needed
 200 000c 10BD     		pop	{r4, pc}
 201              		.cfi_endproc
 202              	.LFE66:
 203              		.size	System_ShortDI_Play, .-System_ShortDI_Play
 204              		.section	.text.Defendalarm_Play,"ax",%progbits
 205              		.align	1
 206              		.global	Defendalarm_Play
 207              		.code	16
 208              		.thumb_func
 209              		.type	Defendalarm_Play, %function
 210              	Defendalarm_Play:
 211              	.LFB67:
 102:Code\UserApp\Voice/voice.c **** 
 103:Code\UserApp\Voice/voice.c **** //*************************************************************************************************
 104:Code\UserApp\Voice/voice.c **** // Function name	: System_ShortDI_Play
 105:Code\UserApp\Voice/voice.c **** // Description		: 短音
 106:Code\UserApp\Voice/voice.c **** // Parameter		: none
 107:Code\UserApp\Voice/voice.c **** // Return			: none
 108:Code\UserApp\Voice/voice.c **** //-------------------------------------------------------------------------------------------------
 109:Code\UserApp\Voice/voice.c **** // 说明				: 
 110:Code\UserApp\Voice/voice.c **** //*************************************************************************************************
 111:Code\UserApp\Voice/voice.c **** void Defendalarm_Play(void)
 112:Code\UserApp\Voice/voice.c **** {
 212              		.loc 1 112 0
 213              		.cfi_startproc
 214              		@ args = 0, pretend = 0, frame = 0
 215              		@ frame_needed = 0, uses_anonymous_args = 0
 216 0000 10B5     		push	{r4, lr}
 217              		.cfi_def_cfa_offset 8
 218              		.cfi_offset 4, -8
 219              		.cfi_offset 14, -4
 113:Code\UserApp\Voice/voice.c **** 	play_single(Sound_DI,200);
 220              		.loc 1 113 0
 221 0002 4E24     		movs	r4, #78
 222 0004 FF34     		adds	r4, r4, #255
 223 0006 C821     		movs	r1, #200
 224 0008 2000     		movs	r0, r4
 225 000a FFF7FEFF 		bl	play_single
 226              	.LVL18:
ARM GAS  C:\Users\Administrator\AppData\Local\Temp\ccNGZ1OQ.s 			page 7


 114:Code\UserApp\Voice/voice.c **** 	BeepPlay_Delay(40);
 227              		.loc 1 114 0
 228 000e 2820     		movs	r0, #40
 229 0010 FFF7FEFF 		bl	BeepPlay_Delay
 230              	.LVL19:
 115:Code\UserApp\Voice/voice.c **** 	play_single(Sound_DI,200);
 231              		.loc 1 115 0
 232 0014 C821     		movs	r1, #200
 233 0016 2000     		movs	r0, r4
 234 0018 FFF7FEFF 		bl	play_single
 235              	.LVL20:
 116:Code\UserApp\Voice/voice.c **** 	BeepPlay_Delay(40);
 236              		.loc 1 116 0
 237 001c 2820     		movs	r0, #40
 238 001e FFF7FEFF 		bl	BeepPlay_Delay
 239              	.LVL21:
 117:Code\UserApp\Voice/voice.c **** 	play_single(Sound_DI,200);
 240              		.loc 1 117 0
 241 0022 C821     		movs	r1, #200
 242 0024 2000     		movs	r0, r4
 243 0026 FFF7FEFF 		bl	play_single
 244              	.LVL22:
 118:Code\UserApp\Voice/voice.c **** }
 245              		.loc 1 118 0
 246              		@ sp needed
 247 002a 10BD     		pop	{r4, pc}
 248              		.cfi_endproc
 249              	.LFE67:
 250              		.size	Defendalarm_Play, .-Defendalarm_Play
 251              		.section	.text.System_LongDI_Play,"ax",%progbits
 252              		.align	1
 253              		.global	System_LongDI_Play
 254              		.code	16
 255              		.thumb_func
 256              		.type	System_LongDI_Play, %function
 257              	System_LongDI_Play:
 258              	.LFB68:
 119:Code\UserApp\Voice/voice.c **** 
 120:Code\UserApp\Voice/voice.c **** 
 121:Code\UserApp\Voice/voice.c **** //*************************************************************************************************
 122:Code\UserApp\Voice/voice.c **** // Function name	: System_LongDI_Play
 123:Code\UserApp\Voice/voice.c **** // Description		: 长音
 124:Code\UserApp\Voice/voice.c **** // Parameter		: none
 125:Code\UserApp\Voice/voice.c **** // Return			: none
 126:Code\UserApp\Voice/voice.c **** //-------------------------------------------------------------------------------------------------
 127:Code\UserApp\Voice/voice.c **** // 说明				: 
 128:Code\UserApp\Voice/voice.c **** //*************************************************************************************************
 129:Code\UserApp\Voice/voice.c **** void System_LongDI_Play(void)
 130:Code\UserApp\Voice/voice.c **** {
 259              		.loc 1 130 0
 260              		.cfi_startproc
 261              		@ args = 0, pretend = 0, frame = 0
 262              		@ frame_needed = 0, uses_anonymous_args = 0
 131:Code\UserApp\Voice/voice.c **** 	play_single(Sound_DI,500);
 263              		.loc 1 131 0
 264 0000 FA21     		movs	r1, #250
 265 0002 4E20     		movs	r0, #78
ARM GAS  C:\Users\Administrator\AppData\Local\Temp\ccNGZ1OQ.s 			page 8


 130:Code\UserApp\Voice/voice.c **** 	play_single(Sound_DI,500);
 266              		.loc 1 130 0
 267 0004 10B5     		push	{r4, lr}
 268              		.cfi_def_cfa_offset 8
 269              		.cfi_offset 4, -8
 270              		.cfi_offset 14, -4
 271              		.loc 1 131 0
 272 0006 4900     		lsls	r1, r1, #1
 273 0008 FF30     		adds	r0, r0, #255
 274 000a FFF7FEFF 		bl	play_single
 275              	.LVL23:
 132:Code\UserApp\Voice/voice.c **** }
 276              		.loc 1 132 0
 277              		@ sp needed
 278 000e 10BD     		pop	{r4, pc}
 279              		.cfi_endproc
 280              	.LFE68:
 281              		.size	System_LongDI_Play, .-System_LongDI_Play
 282              		.section	.text.System_PowerOn_Play,"ax",%progbits
 283              		.align	1
 284              		.global	System_PowerOn_Play
 285              		.code	16
 286              		.thumb_func
 287              		.type	System_PowerOn_Play, %function
 288              	System_PowerOn_Play:
 289              	.LFB69:
 133:Code\UserApp\Voice/voice.c **** 
 134:Code\UserApp\Voice/voice.c **** //*************************************************************************************************
 135:Code\UserApp\Voice/voice.c **** // Function name	: System_PowerOn_Play
 136:Code\UserApp\Voice/voice.c **** // Description		: 上电播报音3-1
 137:Code\UserApp\Voice/voice.c **** // Parameter		: none
 138:Code\UserApp\Voice/voice.c **** // Return			: none
 139:Code\UserApp\Voice/voice.c **** //-------------------------------------------------------------------------------------------------
 140:Code\UserApp\Voice/voice.c **** // 说明				: 
 141:Code\UserApp\Voice/voice.c **** //*************************************************************************************************
 142:Code\UserApp\Voice/voice.c **** void System_PowerOn_Play(void)
 143:Code\UserApp\Voice/voice.c **** {
 290              		.loc 1 143 0
 291              		.cfi_startproc
 292              		@ args = 0, pretend = 0, frame = 0
 293              		@ frame_needed = 0, uses_anonymous_args = 0
 294 0000 70B5     		push	{r4, r5, r6, lr}
 295              		.cfi_def_cfa_offset 16
 296              		.cfi_offset 4, -16
 297              		.cfi_offset 5, -12
 298              		.cfi_offset 6, -8
 299              		.cfi_offset 14, -4
 144:Code\UserApp\Voice/voice.c ****     play_single(Sound_DO,200);
 300              		.loc 1 144 0
 301 0002 EF24     		movs	r4, #239
 302 0004 A400     		lsls	r4, r4, #2
 145:Code\UserApp\Voice/voice.c **** 	BeepPlay_Delay(50);
 146:Code\UserApp\Voice/voice.c **** 	play_single(Sound_RE,200);
 303              		.loc 1 146 0
 304 0006 154D     		ldr	r5, .L20
 144:Code\UserApp\Voice/voice.c ****     play_single(Sound_DO,200);
 305              		.loc 1 144 0
ARM GAS  C:\Users\Administrator\AppData\Local\Temp\ccNGZ1OQ.s 			page 9


 306 0008 C821     		movs	r1, #200
 307 000a 2000     		movs	r0, r4
 308 000c FFF7FEFF 		bl	play_single
 309              	.LVL24:
 145:Code\UserApp\Voice/voice.c **** 	BeepPlay_Delay(50);
 310              		.loc 1 145 0
 311 0010 3220     		movs	r0, #50
 312 0012 FFF7FEFF 		bl	BeepPlay_Delay
 313              	.LVL25:
 147:Code\UserApp\Voice/voice.c **** 	BeepPlay_Delay(50);
 148:Code\UserApp\Voice/voice.c ****     play_single(Sound_MI,200);
 314              		.loc 1 148 0
 315 0016 124E     		ldr	r6, .L20+4
 146:Code\UserApp\Voice/voice.c **** 	BeepPlay_Delay(50);
 316              		.loc 1 146 0
 317 0018 2800     		movs	r0, r5
 318 001a C821     		movs	r1, #200
 319 001c FFF7FEFF 		bl	play_single
 320              	.LVL26:
 147:Code\UserApp\Voice/voice.c **** 	BeepPlay_Delay(50);
 321              		.loc 1 147 0
 322 0020 3220     		movs	r0, #50
 323 0022 FFF7FEFF 		bl	BeepPlay_Delay
 324              	.LVL27:
 325              		.loc 1 148 0
 326 0026 3000     		movs	r0, r6
 327 0028 C821     		movs	r1, #200
 328 002a FFF7FEFF 		bl	play_single
 329              	.LVL28:
 149:Code\UserApp\Voice/voice.c **** 	BeepPlay_Delay(50);
 330              		.loc 1 149 0
 331 002e 3220     		movs	r0, #50
 332 0030 FFF7FEFF 		bl	BeepPlay_Delay
 333              	.LVL29:
 150:Code\UserApp\Voice/voice.c **** 	play_single(Sound_MI,200);
 334              		.loc 1 150 0
 335 0034 3000     		movs	r0, r6
 336 0036 C821     		movs	r1, #200
 337 0038 FFF7FEFF 		bl	play_single
 338              	.LVL30:
 151:Code\UserApp\Voice/voice.c **** 	BeepPlay_Delay(50);
 339              		.loc 1 151 0
 340 003c 3220     		movs	r0, #50
 341 003e FFF7FEFF 		bl	BeepPlay_Delay
 342              	.LVL31:
 152:Code\UserApp\Voice/voice.c **** 	play_single(Sound_RE,200);
 343              		.loc 1 152 0
 344 0042 2800     		movs	r0, r5
 345 0044 C821     		movs	r1, #200
 346 0046 FFF7FEFF 		bl	play_single
 347              	.LVL32:
 153:Code\UserApp\Voice/voice.c **** 	BeepPlay_Delay(50);
 348              		.loc 1 153 0
 349 004a 3220     		movs	r0, #50
 350 004c FFF7FEFF 		bl	BeepPlay_Delay
 351              	.LVL33:
 154:Code\UserApp\Voice/voice.c ****     play_single(Sound_DO,200);
ARM GAS  C:\Users\Administrator\AppData\Local\Temp\ccNGZ1OQ.s 			page 10


 352              		.loc 1 154 0
 353 0050 C821     		movs	r1, #200
 354 0052 2000     		movs	r0, r4
 355 0054 FFF7FEFF 		bl	play_single
 356              	.LVL34:
 155:Code\UserApp\Voice/voice.c **** }
 357              		.loc 1 155 0
 358              		@ sp needed
 359 0058 70BD     		pop	{r4, r5, r6, pc}
 360              	.L21:
 361 005a C046     		.align	2
 362              	.L20:
 363 005c 52030000 		.word	850
 364 0060 F6020000 		.word	758
 365              		.cfi_endproc
 366              	.LFE69:
 367              		.size	System_PowerOn_Play, .-System_PowerOn_Play
 368              		.section	.text.System_PowerOn_Play_TestSer,"ax",%progbits
 369              		.align	1
 370              		.global	System_PowerOn_Play_TestSer
 371              		.code	16
 372              		.thumb_func
 373              		.type	System_PowerOn_Play_TestSer, %function
 374              	System_PowerOn_Play_TestSer:
 375              	.LFB70:
 156:Code\UserApp\Voice/voice.c **** 
 157:Code\UserApp\Voice/voice.c **** //*************************************************************************************************
 158:Code\UserApp\Voice/voice.c **** // Function name	: System_PowerOn_Play
 159:Code\UserApp\Voice/voice.c **** // Description		: 上电播报音3-1
 160:Code\UserApp\Voice/voice.c **** // Parameter		: none
 161:Code\UserApp\Voice/voice.c **** // Return			: none
 162:Code\UserApp\Voice/voice.c **** //-------------------------------------------------------------------------------------------------
 163:Code\UserApp\Voice/voice.c **** // 说明				: 
 164:Code\UserApp\Voice/voice.c **** //*************************************************************************************************
 165:Code\UserApp\Voice/voice.c **** void System_PowerOn_Play_TestSer(void)
 166:Code\UserApp\Voice/voice.c **** {
 376              		.loc 1 166 0
 377              		.cfi_startproc
 378              		@ args = 0, pretend = 0, frame = 0
 379              		@ frame_needed = 0, uses_anonymous_args = 0
 380 0000 10B5     		push	{r4, lr}
 381              		.cfi_def_cfa_offset 8
 382              		.cfi_offset 4, -8
 383              		.cfi_offset 14, -4
 167:Code\UserApp\Voice/voice.c ****     play_single(Sound_MI,200);
 384              		.loc 1 167 0
 385 0002 0B4C     		ldr	r4, .L23
 386 0004 C821     		movs	r1, #200
 387 0006 2000     		movs	r0, r4
 388 0008 FFF7FEFF 		bl	play_single
 389              	.LVL35:
 168:Code\UserApp\Voice/voice.c **** 	BeepPlay_Delay(50);
 390              		.loc 1 168 0
 391 000c 3220     		movs	r0, #50
 392 000e FFF7FEFF 		bl	BeepPlay_Delay
 393              	.LVL36:
 169:Code\UserApp\Voice/voice.c **** 	#if 1
ARM GAS  C:\Users\Administrator\AppData\Local\Temp\ccNGZ1OQ.s 			page 11


 170:Code\UserApp\Voice/voice.c **** 	play_single(Sound_MI,200);
 394              		.loc 1 170 0
 395 0012 C821     		movs	r1, #200
 396 0014 2000     		movs	r0, r4
 397 0016 FFF7FEFF 		bl	play_single
 398              	.LVL37:
 171:Code\UserApp\Voice/voice.c **** 	BeepPlay_Delay(50);
 399              		.loc 1 171 0
 400 001a 3220     		movs	r0, #50
 401 001c FFF7FEFF 		bl	BeepPlay_Delay
 402              	.LVL38:
 172:Code\UserApp\Voice/voice.c ****     play_single(Sound_MI,200);
 403              		.loc 1 172 0
 404 0020 C821     		movs	r1, #200
 405 0022 2000     		movs	r0, r4
 406 0024 FFF7FEFF 		bl	play_single
 407              	.LVL39:
 173:Code\UserApp\Voice/voice.c **** 	BeepPlay_Delay(50);
 408              		.loc 1 173 0
 409 0028 3220     		movs	r0, #50
 410 002a FFF7FEFF 		bl	BeepPlay_Delay
 411              	.LVL40:
 174:Code\UserApp\Voice/voice.c **** 	#endif
 175:Code\UserApp\Voice/voice.c **** }
 412              		.loc 1 175 0
 413              		@ sp needed
 414 002e 10BD     		pop	{r4, pc}
 415              	.L24:
 416              		.align	2
 417              	.L23:
 418 0030 F6020000 		.word	758
 419              		.cfi_endproc
 420              	.LFE70:
 421              		.size	System_PowerOn_Play_TestSer, .-System_PowerOn_Play_TestSer
 422              		.section	.text.Comm_Succes_play,"ax",%progbits
 423              		.align	1
 424              		.global	Comm_Succes_play
 425              		.code	16
 426              		.thumb_func
 427              		.type	Comm_Succes_play, %function
 428              	Comm_Succes_play:
 429              	.LFB71:
 176:Code\UserApp\Voice/voice.c **** 
 177:Code\UserApp\Voice/voice.c **** 
 178:Code\UserApp\Voice/voice.c **** //*************************************************************************************************
 179:Code\UserApp\Voice/voice.c **** // Function name	: Comm_Succes_play
 180:Code\UserApp\Voice/voice.c **** // Description		: 常用成功音
 181:Code\UserApp\Voice/voice.c **** // Parameter		: none
 182:Code\UserApp\Voice/voice.c **** // Return			: none
 183:Code\UserApp\Voice/voice.c **** //-------------------------------------------------------------------------------------------------
 184:Code\UserApp\Voice/voice.c **** // 说明				: 用于录取指纹成功
 185:Code\UserApp\Voice/voice.c **** //*************************************************************************************************
 186:Code\UserApp\Voice/voice.c **** void Comm_Succes_play(void)
 187:Code\UserApp\Voice/voice.c **** {
 430              		.loc 1 187 0
 431              		.cfi_startproc
 432              		@ args = 0, pretend = 0, frame = 0
ARM GAS  C:\Users\Administrator\AppData\Local\Temp\ccNGZ1OQ.s 			page 12


 433              		@ frame_needed = 0, uses_anonymous_args = 0
 188:Code\UserApp\Voice/voice.c **** 	play_single(Sound_DI,600);
 434              		.loc 1 188 0
 435 0000 9621     		movs	r1, #150
 436 0002 4E20     		movs	r0, #78
 187:Code\UserApp\Voice/voice.c **** 	play_single(Sound_DI,600);
 437              		.loc 1 187 0
 438 0004 10B5     		push	{r4, lr}
 439              		.cfi_def_cfa_offset 8
 440              		.cfi_offset 4, -8
 441              		.cfi_offset 14, -4
 442              		.loc 1 188 0
 443 0006 8900     		lsls	r1, r1, #2
 444 0008 FF30     		adds	r0, r0, #255
 445 000a FFF7FEFF 		bl	play_single
 446              	.LVL41:
 189:Code\UserApp\Voice/voice.c **** }
 447              		.loc 1 189 0
 448              		@ sp needed
 449 000e 10BD     		pop	{r4, pc}
 450              		.cfi_endproc
 451              	.LFE71:
 452              		.size	Comm_Succes_play, .-Comm_Succes_play
 453              		.section	.text.Timeout_play,"ax",%progbits
 454              		.align	1
 455              		.global	Timeout_play
 456              		.code	16
 457              		.thumb_func
 458              		.type	Timeout_play, %function
 459              	Timeout_play:
 460              	.LFB72:
 190:Code\UserApp\Voice/voice.c **** 
 191:Code\UserApp\Voice/voice.c **** 
 192:Code\UserApp\Voice/voice.c **** //*************************************************************************************************
 193:Code\UserApp\Voice/voice.c **** // Function name	: Timeout_play
 194:Code\UserApp\Voice/voice.c **** // Description		: 常用超时音
 195:Code\UserApp\Voice/voice.c **** // Parameter		: none
 196:Code\UserApp\Voice/voice.c **** // Return			: none
 197:Code\UserApp\Voice/voice.c **** //-------------------------------------------------------------------------------------------------
 198:Code\UserApp\Voice/voice.c **** // 说明				: 用于录入卡超时
 199:Code\UserApp\Voice/voice.c **** //*************************************************************************************************
 200:Code\UserApp\Voice/voice.c **** void Timeout_play(void)
 201:Code\UserApp\Voice/voice.c **** {
 461              		.loc 1 201 0
 462              		.cfi_startproc
 463              		@ args = 0, pretend = 0, frame = 0
 464              		@ frame_needed = 0, uses_anonymous_args = 0
 465 0000 10B5     		push	{r4, lr}
 466              		.cfi_def_cfa_offset 8
 467              		.cfi_offset 4, -8
 468              		.cfi_offset 14, -4
 202:Code\UserApp\Voice/voice.c **** 	play_single(Sound_DI,50);
 469              		.loc 1 202 0
 470 0002 4E24     		movs	r4, #78
 471 0004 FF34     		adds	r4, r4, #255
 472 0006 3221     		movs	r1, #50
 473 0008 2000     		movs	r0, r4
ARM GAS  C:\Users\Administrator\AppData\Local\Temp\ccNGZ1OQ.s 			page 13


 474 000a FFF7FEFF 		bl	play_single
 475              	.LVL42:
 203:Code\UserApp\Voice/voice.c **** 	BeepPlay_Delay(50);
 476              		.loc 1 203 0
 477 000e 3220     		movs	r0, #50
 478 0010 FFF7FEFF 		bl	BeepPlay_Delay
 479              	.LVL43:
 204:Code\UserApp\Voice/voice.c ****     play_single(Sound_DI,50);						// 按要求 50-50-50ms
 480              		.loc 1 204 0
 481 0014 3221     		movs	r1, #50
 482 0016 2000     		movs	r0, r4
 483 0018 FFF7FEFF 		bl	play_single
 484              	.LVL44:
 205:Code\UserApp\Voice/voice.c **** 	BeepPlay_Delay(50);
 485              		.loc 1 205 0
 486 001c 3220     		movs	r0, #50
 487 001e FFF7FEFF 		bl	BeepPlay_Delay
 488              	.LVL45:
 206:Code\UserApp\Voice/voice.c ****     play_single(Sound_DI,50);
 489              		.loc 1 206 0
 490 0022 3221     		movs	r1, #50
 491 0024 2000     		movs	r0, r4
 492 0026 FFF7FEFF 		bl	play_single
 493              	.LVL46:
 207:Code\UserApp\Voice/voice.c **** 	BeepPlay_Delay(50);
 494              		.loc 1 207 0
 495 002a 3220     		movs	r0, #50
 496 002c FFF7FEFF 		bl	BeepPlay_Delay
 497              	.LVL47:
 208:Code\UserApp\Voice/voice.c ****     play_single(Sound_DI,50);
 498              		.loc 1 208 0
 499 0030 3221     		movs	r1, #50
 500 0032 2000     		movs	r0, r4
 501 0034 FFF7FEFF 		bl	play_single
 502              	.LVL48:
 209:Code\UserApp\Voice/voice.c **** }
 503              		.loc 1 209 0
 504              		@ sp needed
 505 0038 10BD     		pop	{r4, pc}
 506              		.cfi_endproc
 507              	.LFE72:
 508              		.size	Timeout_play, .-Timeout_play
 509              		.section	.text.Comm_Failure_play,"ax",%progbits
 510              		.align	1
 511              		.global	Comm_Failure_play
 512              		.code	16
 513              		.thumb_func
 514              		.type	Comm_Failure_play, %function
 515              	Comm_Failure_play:
 516              	.LFB73:
 210:Code\UserApp\Voice/voice.c **** 
 211:Code\UserApp\Voice/voice.c **** //*************************************************************************************************
 212:Code\UserApp\Voice/voice.c **** // Function name	: Comm_Failure_play
 213:Code\UserApp\Voice/voice.c **** // Description		: 常用失败音
 214:Code\UserApp\Voice/voice.c **** // Parameter		: none
 215:Code\UserApp\Voice/voice.c **** // Return			: none
 216:Code\UserApp\Voice/voice.c **** //-------------------------------------------------------------------------------------------------
ARM GAS  C:\Users\Administrator\AppData\Local\Temp\ccNGZ1OQ.s 			page 14


 217:Code\UserApp\Voice/voice.c **** // 说明				: 用于录取指纹成功
 218:Code\UserApp\Voice/voice.c **** //*************************************************************************************************
 219:Code\UserApp\Voice/voice.c **** void Comm_Failure_play(void)
 220:Code\UserApp\Voice/voice.c **** {
 517              		.loc 1 220 0
 518              		.cfi_startproc
 519              		@ args = 0, pretend = 0, frame = 0
 520              		@ frame_needed = 0, uses_anonymous_args = 0
 521              		@ link register save eliminated.
 221:Code\UserApp\Voice/voice.c **** 	#if 0
 222:Code\UserApp\Voice/voice.c ****     play_single(Sound_DI,300);
 223:Code\UserApp\Voice/voice.c **** 	BeepPlay_Delay(200);
 224:Code\UserApp\Voice/voice.c ****     play_single(Sound_DI,300);
 225:Code\UserApp\Voice/voice.c **** 	BeepPlay_Delay(200);
 226:Code\UserApp\Voice/voice.c ****     play_single(Sound_DI,300);						// 非法ID 不出声
 227:Code\UserApp\Voice/voice.c **** 	#endif
 228:Code\UserApp\Voice/voice.c **** }
 522              		.loc 1 228 0
 523              		@ sp needed
 524 0000 7047     		bx	lr
 525              		.cfi_endproc
 526              	.LFE73:
 527              		.size	Comm_Failure_play, .-Comm_Failure_play
 528              		.section	.text.System_PutCard_play,"ax",%progbits
 529              		.align	1
 530              		.global	System_PutCard_play
 531              		.code	16
 532              		.thumb_func
 533              		.type	System_PutCard_play, %function
 534              	System_PutCard_play:
 535              	.LFB75:
 229:Code\UserApp\Voice/voice.c **** 
 230:Code\UserApp\Voice/voice.c **** //*************************************************************************************************
 231:Code\UserApp\Voice/voice.c **** // Function name	: OpenDoor
 232:Code\UserApp\Voice/voice.c **** // Description		: 开门音
 233:Code\UserApp\Voice/voice.c **** // Parameter		: none
 234:Code\UserApp\Voice/voice.c **** // Return			: none
 235:Code\UserApp\Voice/voice.c **** //-------------------------------------------------------------------------------------------------
 236:Code\UserApp\Voice/voice.c **** // 说明				: 
 237:Code\UserApp\Voice/voice.c **** //*************************************************************************************************
 238:Code\UserApp\Voice/voice.c **** void OpenDoor(void)
 239:Code\UserApp\Voice/voice.c **** {
 240:Code\UserApp\Voice/voice.c **** 	play_single(Sound_DI,50);
 241:Code\UserApp\Voice/voice.c **** 	BeepPlay_Delay(50);
 242:Code\UserApp\Voice/voice.c ****     play_single(Sound_DI,50);						// 按要求 50-50-50ms
 243:Code\UserApp\Voice/voice.c **** 	
 244:Code\UserApp\Voice/voice.c **** 	#if 0
 245:Code\UserApp\Voice/voice.c **** 	play_single(Sound_DO,250);
 246:Code\UserApp\Voice/voice.c **** 	play_single(Sound_RE,250);
 247:Code\UserApp\Voice/voice.c ****     play_single(Sound_MI,250);
 248:Code\UserApp\Voice/voice.c **** 	#endif
 249:Code\UserApp\Voice/voice.c **** }
 250:Code\UserApp\Voice/voice.c **** 
 251:Code\UserApp\Voice/voice.c **** //*************************************************************************************************
 252:Code\UserApp\Voice/voice.c **** // Function name	: System_PutCard_play
 253:Code\UserApp\Voice/voice.c **** // Description		: 请刷身份证
 254:Code\UserApp\Voice/voice.c **** // Parameter		: none
ARM GAS  C:\Users\Administrator\AppData\Local\Temp\ccNGZ1OQ.s 			page 15


 255:Code\UserApp\Voice/voice.c **** // Return			: none
 256:Code\UserApp\Voice/voice.c **** //-------------------------------------------------------------------------------------------------
 257:Code\UserApp\Voice/voice.c **** // 说明				: 
 258:Code\UserApp\Voice/voice.c **** //*************************************************************************************************
 259:Code\UserApp\Voice/voice.c **** void System_PutCard_play(void)
 260:Code\UserApp\Voice/voice.c **** {
 536              		.loc 1 260 0
 537              		.cfi_startproc
 538              		@ args = 0, pretend = 0, frame = 0
 539              		@ frame_needed = 0, uses_anonymous_args = 0
 261:Code\UserApp\Voice/voice.c **** 	play_single(Sound_DI,150);					// 按要求单音 150ms
 540              		.loc 1 261 0
 541 0000 4E20     		movs	r0, #78
 260:Code\UserApp\Voice/voice.c **** 	play_single(Sound_DI,150);					// 按要求单音 150ms
 542              		.loc 1 260 0
 543 0002 10B5     		push	{r4, lr}
 544              		.cfi_def_cfa_offset 8
 545              		.cfi_offset 4, -8
 546              		.cfi_offset 14, -4
 547              		.loc 1 261 0
 548 0004 9621     		movs	r1, #150
 549 0006 FF30     		adds	r0, r0, #255
 550 0008 FFF7FEFF 		bl	play_single
 551              	.LVL49:
 262:Code\UserApp\Voice/voice.c **** }
 552              		.loc 1 262 0
 553              		@ sp needed
 554 000c 10BD     		pop	{r4, pc}
 555              		.cfi_endproc
 556              	.LFE75:
 557              		.size	System_PutCard_play, .-System_PutCard_play
 558              		.section	.text.System_ReadCard_play,"ax",%progbits
 559              		.align	1
 560              		.global	System_ReadCard_play
 561              		.code	16
 562              		.thumb_func
 563              		.type	System_ReadCard_play, %function
 564              	System_ReadCard_play:
 565              	.LFB76:
 263:Code\UserApp\Voice/voice.c **** 
 264:Code\UserApp\Voice/voice.c **** //*************************************************************************************************
 265:Code\UserApp\Voice/voice.c **** // Function name	: System_ReadCard_play
 266:Code\UserApp\Voice/voice.c **** // Description		: 成功读取身份证
 267:Code\UserApp\Voice/voice.c **** // Parameter		: none
 268:Code\UserApp\Voice/voice.c **** // Return			: none
 269:Code\UserApp\Voice/voice.c **** //-------------------------------------------------------------------------------------------------
 270:Code\UserApp\Voice/voice.c **** // 说明				: 
 271:Code\UserApp\Voice/voice.c **** //*************************************************************************************************
 272:Code\UserApp\Voice/voice.c **** void System_ReadCard_play(void)
 273:Code\UserApp\Voice/voice.c **** {
 566              		.loc 1 273 0
 567              		.cfi_startproc
 568              		@ args = 0, pretend = 0, frame = 0
 569              		@ frame_needed = 0, uses_anonymous_args = 0
 570 0000 10B5     		push	{r4, lr}
 571              		.cfi_def_cfa_offset 8
 572              		.cfi_offset 4, -8
ARM GAS  C:\Users\Administrator\AppData\Local\Temp\ccNGZ1OQ.s 			page 16


 573              		.cfi_offset 14, -4
 274:Code\UserApp\Voice/voice.c **** 	play_single(Sound_DI,50);
 574              		.loc 1 274 0
 575 0002 4E24     		movs	r4, #78
 576 0004 FF34     		adds	r4, r4, #255
 577 0006 3221     		movs	r1, #50
 578 0008 2000     		movs	r0, r4
 579 000a FFF7FEFF 		bl	play_single
 580              	.LVL50:
 275:Code\UserApp\Voice/voice.c **** 	BeepPlay_Delay(50);
 581              		.loc 1 275 0
 582 000e 3220     		movs	r0, #50
 583 0010 FFF7FEFF 		bl	BeepPlay_Delay
 584              	.LVL51:
 276:Code\UserApp\Voice/voice.c ****     play_single(Sound_DI,50);						// 按要求 50-50-50ms
 585              		.loc 1 276 0
 586 0014 3221     		movs	r1, #50
 587 0016 2000     		movs	r0, r4
 588 0018 FFF7FEFF 		bl	play_single
 589              	.LVL52:
 277:Code\UserApp\Voice/voice.c **** }
 590              		.loc 1 277 0
 591              		@ sp needed
 592 001c 10BD     		pop	{r4, pc}
 593              		.cfi_endproc
 594              	.LFE76:
 595              		.size	System_ReadCard_play, .-System_ReadCard_play
 596              		.section	.text.OpenDoor,"ax",%progbits
 597              		.align	1
 598              		.global	OpenDoor
 599              		.code	16
 600              		.thumb_func
 601              		.type	OpenDoor, %function
 602              	OpenDoor:
 603              	.LFB81:
 604              		.cfi_startproc
 605              		@ args = 0, pretend = 0, frame = 0
 606              		@ frame_needed = 0, uses_anonymous_args = 0
 607 0000 10B5     		push	{r4, lr}
 608              		.cfi_def_cfa_offset 8
 609              		.cfi_offset 4, -8
 610              		.cfi_offset 14, -4
 611 0002 FFF7FEFF 		bl	System_ReadCard_play
 612              		@ sp needed
 613 0006 10BD     		pop	{r4, pc}
 614              		.cfi_endproc
 615              	.LFE81:
 616              		.size	OpenDoor, .-OpenDoor
 617              		.section	.text.Beep_Play,"ax",%progbits
 618              		.align	1
 619              		.global	Beep_Play
 620              		.code	16
 621              		.thumb_func
 622              		.type	Beep_Play, %function
 623              	Beep_Play:
 624              	.LFB77:
 278:Code\UserApp\Voice/voice.c **** 
ARM GAS  C:\Users\Administrator\AppData\Local\Temp\ccNGZ1OQ.s 			page 17


 279:Code\UserApp\Voice/voice.c **** //*************************************************************************************************
 280:Code\UserApp\Voice/voice.c **** // Function name	: Beep_Play
 281:Code\UserApp\Voice/voice.c **** // Description		: 所有蜂鸣器播放函数
 282:Code\UserApp\Voice/voice.c **** // Parameter		: none
 283:Code\UserApp\Voice/voice.c **** // Return			: none
 284:Code\UserApp\Voice/voice.c **** //-------------------------------------------------------------------------------------------------
 285:Code\UserApp\Voice/voice.c **** // 说明				: --用于替换语音播报函数 VoicePlay_WithJudge和VoicePlay
 286:Code\UserApp\Voice/voice.c **** //*************************************************************************************************
 287:Code\UserApp\Voice/voice.c **** void Beep_Play(uint8_t sound_define)
 288:Code\UserApp\Voice/voice.c **** {
 625              		.loc 1 288 0
 626              		.cfi_startproc
 627              		@ args = 0, pretend = 0, frame = 0
 628              		@ frame_needed = 0, uses_anonymous_args = 0
 629              	.LVL53:
 630              		.loc 1 288 0
 631 0000 10B5     		push	{r4, lr}
 632              		.cfi_def_cfa_offset 8
 633              		.cfi_offset 4, -8
 634              		.cfi_offset 14, -4
 289:Code\UserApp\Voice/voice.c ****     if (sound_define == Sound_SYSTEM_POWER_ON)
 635              		.loc 1 289 0
 636 0002 0C28     		cmp	r0, #12
 637 0004 02D1     		bne	.L32
 290:Code\UserApp\Voice/voice.c ****     {
 291:Code\UserApp\Voice/voice.c ****         System_PowerOn_Play();
 638              		.loc 1 291 0
 639 0006 FFF7FEFF 		bl	System_PowerOn_Play
 640              	.LVL54:
 641 000a 33E0     		b	.L31
 642              	.LVL55:
 643              	.L32:
 292:Code\UserApp\Voice/voice.c ****     }
 293:Code\UserApp\Voice/voice.c **** 	else if(Sound_SYSTEM_POWER_ON_TEST == sound_define)
 644              		.loc 1 293 0
 645 000c 1128     		cmp	r0, #17
 646 000e 02D1     		bne	.L34
 294:Code\UserApp\Voice/voice.c **** 	{
 295:Code\UserApp\Voice/voice.c **** 		System_PowerOn_Play_TestSer();
 647              		.loc 1 295 0
 648 0010 FFF7FEFF 		bl	System_PowerOn_Play_TestSer
 649              	.LVL56:
 650 0014 2EE0     		b	.L31
 651              	.LVL57:
 652              	.L34:
 296:Code\UserApp\Voice/voice.c **** 	}
 297:Code\UserApp\Voice/voice.c **** 	else if (sound_define == Sound_VERIFY_SUCCESS)
 653              		.loc 1 297 0
 654 0016 0A28     		cmp	r0, #10
 655 0018 02D1     		bne	.L35
 656              	.L40:
 298:Code\UserApp\Voice/voice.c ****     {
 299:Code\UserApp\Voice/voice.c ****         OpenDoor();
 657              		.loc 1 299 0
 658 001a FFF7FEFF 		bl	System_ReadCard_play
 659              	.LVL58:
 660 001e 29E0     		b	.L31
ARM GAS  C:\Users\Administrator\AppData\Local\Temp\ccNGZ1OQ.s 			page 18


 661              	.LVL59:
 662              	.L35:
 300:Code\UserApp\Voice/voice.c ****     }
 301:Code\UserApp\Voice/voice.c ****     else if (sound_define == Sound_VERIFY_FAILURE)
 663              		.loc 1 301 0
 664 0020 0B28     		cmp	r0, #11
 665 0022 27D0     		beq	.L31
 302:Code\UserApp\Voice/voice.c ****     {
 303:Code\UserApp\Voice/voice.c ****         Comm_Failure_play();
 304:Code\UserApp\Voice/voice.c ****     }
 305:Code\UserApp\Voice/voice.c **** 	else if (sound_define == Sound_TIMEOUT)
 666              		.loc 1 305 0
 667 0024 1228     		cmp	r0, #18
 668 0026 02D1     		bne	.L36
 306:Code\UserApp\Voice/voice.c ****     {
 307:Code\UserApp\Voice/voice.c ****         Timeout_play();
 669              		.loc 1 307 0
 670 0028 FFF7FEFF 		bl	Timeout_play
 671              	.LVL60:
 672 002c 22E0     		b	.L31
 673              	.LVL61:
 674              	.L36:
 308:Code\UserApp\Voice/voice.c ****     }
 309:Code\UserApp\Voice/voice.c **** 	
 310:Code\UserApp\Voice/voice.c ****     else if ((sound_define == Sound_REG_FAILURE) 	||
 675              		.loc 1 310 0
 676 002e 0223     		movs	r3, #2
 677 0030 0200     		movs	r2, r0
 678 0032 9A43     		bics	r2, r3
 679 0034 052A     		cmp	r2, #5
 680 0036 1DD0     		beq	.L31
 311:Code\UserApp\Voice/voice.c **** 			 (sound_define == Sound_DELETE_FAILURE) ||
 681              		.loc 1 311 0
 682 0038 0928     		cmp	r0, #9
 683 003a 1BD0     		beq	.L31
 312:Code\UserApp\Voice/voice.c **** 			 (sound_define == Sound_EMPTY_FAILURE))
 313:Code\UserApp\Voice/voice.c ****     {
 314:Code\UserApp\Voice/voice.c ****         Comm_Failure_play();
 315:Code\UserApp\Voice/voice.c ****     }
 316:Code\UserApp\Voice/voice.c ****     else if ((sound_define == Sound_REG_SUCCESS) 	||
 684              		.loc 1 316 0
 685 003c 042A     		cmp	r2, #4
 686 003e 01D0     		beq	.L37
 317:Code\UserApp\Voice/voice.c **** 			 (sound_define == Sound_DELETE_SUCCESS) || 
 687              		.loc 1 317 0
 688 0040 0828     		cmp	r0, #8
 689 0042 02D1     		bne	.L38
 690              	.L37:
 318:Code\UserApp\Voice/voice.c **** 			 (sound_define == Sound_EMPTY_SUCCESS))
 319:Code\UserApp\Voice/voice.c ****     {
 320:Code\UserApp\Voice/voice.c ****         Comm_Succes_play();
 691              		.loc 1 320 0
 692 0044 FFF7FEFF 		bl	Comm_Succes_play
 693              	.LVL62:
 694 0048 14E0     		b	.L31
 695              	.LVL63:
 696              	.L38:
ARM GAS  C:\Users\Administrator\AppData\Local\Temp\ccNGZ1OQ.s 			page 19


 321:Code\UserApp\Voice/voice.c ****     }
 322:Code\UserApp\Voice/voice.c **** 	else if (sound_define == Sound_PleasePutCard)
 697              		.loc 1 322 0
 698 004a 0D28     		cmp	r0, #13
 699 004c 02D1     		bne	.L39
 323:Code\UserApp\Voice/voice.c ****     {
 324:Code\UserApp\Voice/voice.c ****     	System_PutCard_play();
 700              		.loc 1 324 0
 701 004e FFF7FEFF 		bl	System_PutCard_play
 702              	.LVL64:
 703 0052 0FE0     		b	.L31
 704              	.LVL65:
 705              	.L39:
 325:Code\UserApp\Voice/voice.c ****     }
 326:Code\UserApp\Voice/voice.c **** 	else if (sound_define == Sound_ReadCardSuccess)
 706              		.loc 1 326 0
 707 0054 0E28     		cmp	r0, #14
 708 0056 E0D0     		beq	.L40
 709              	.LVL66:
 710              	.LBB9:
 711              	.LBB10:
 327:Code\UserApp\Voice/voice.c ****     {
 328:Code\UserApp\Voice/voice.c ****     	System_ReadCard_play();
 329:Code\UserApp\Voice/voice.c ****     }
 330:Code\UserApp\Voice/voice.c **** 	else if (sound_define == Sound_ShortDI)
 712              		.loc 1 330 0
 713 0058 0F28     		cmp	r0, #15
 714 005a 02D1     		bne	.L41
 331:Code\UserApp\Voice/voice.c ****     {
 332:Code\UserApp\Voice/voice.c ****     	System_ShortDI_Play();
 715              		.loc 1 332 0
 716 005c FFF7FEFF 		bl	System_ShortDI_Play
 717              	.LVL67:
 718 0060 08E0     		b	.L31
 719              	.LVL68:
 720              	.L41:
 333:Code\UserApp\Voice/voice.c ****     }
 334:Code\UserApp\Voice/voice.c **** 	else if (sound_define == Sound_LongDI)
 721              		.loc 1 334 0
 722 0062 1028     		cmp	r0, #16
 723 0064 02D1     		bne	.L42
 335:Code\UserApp\Voice/voice.c ****     {
 336:Code\UserApp\Voice/voice.c ****     	System_LongDI_Play();
 724              		.loc 1 336 0
 725 0066 FFF7FEFF 		bl	System_LongDI_Play
 726              	.LVL69:
 727 006a 03E0     		b	.L31
 728              	.LVL70:
 729              	.L42:
 337:Code\UserApp\Voice/voice.c ****     }
 338:Code\UserApp\Voice/voice.c **** 	else if(sound_define == Sound_DEFENDALRM)
 730              		.loc 1 338 0
 731 006c 1328     		cmp	r0, #19
 732 006e 01D1     		bne	.L31
 339:Code\UserApp\Voice/voice.c **** 	{
 340:Code\UserApp\Voice/voice.c **** 		Defendalarm_Play();
 733              		.loc 1 340 0
ARM GAS  C:\Users\Administrator\AppData\Local\Temp\ccNGZ1OQ.s 			page 20


 734 0070 FFF7FEFF 		bl	Defendalarm_Play
 735              	.LVL71:
 736              	.L31:
 737              	.LBE10:
 738              	.LBE9:
 341:Code\UserApp\Voice/voice.c **** 	}
 342:Code\UserApp\Voice/voice.c **** }
 739              		.loc 1 342 0
 740              		@ sp needed
 741 0074 10BD     		pop	{r4, pc}
 742              		.cfi_endproc
 743              	.LFE77:
 744              		.size	Beep_Play, .-Beep_Play
 745              		.section	.text.VoicePlay,"ax",%progbits
 746              		.align	1
 747              		.global	VoicePlay
 748              		.code	16
 749              		.thumb_func
 750              		.type	VoicePlay, %function
 751              	VoicePlay:
 752              	.LFB78:
 343:Code\UserApp\Voice/voice.c **** 
 344:Code\UserApp\Voice/voice.c **** //*************************************************************************************************
 345:Code\UserApp\Voice/voice.c **** // Function name	: VoicePlay
 346:Code\UserApp\Voice/voice.c **** // Description		: 语音播报
 347:Code\UserApp\Voice/voice.c **** // Parameter		: addr
 348:Code\UserApp\Voice/voice.c **** // Return			: none
 349:Code\UserApp\Voice/voice.c **** //-------------------------------------------------------------------------------------------------
 350:Code\UserApp\Voice/voice.c **** // Info				: 
 351:Code\UserApp\Voice/voice.c **** //*************************************************************************************************
 352:Code\UserApp\Voice/voice.c **** void VoicePlay(INT8U addr)
 353:Code\UserApp\Voice/voice.c **** {
 753              		.loc 1 353 0
 754              		.cfi_startproc
 755              		@ args = 0, pretend = 0, frame = 0
 756              		@ frame_needed = 0, uses_anonymous_args = 0
 757              	.LVL72:
 758 0000 10B5     		push	{r4, lr}
 759              		.cfi_def_cfa_offset 8
 760              		.cfi_offset 4, -8
 761              		.cfi_offset 14, -4
 354:Code\UserApp\Voice/voice.c ****     Beep_Play(addr);  
 762              		.loc 1 354 0
 763 0002 FFF7FEFF 		bl	Beep_Play
 764              	.LVL73:
 355:Code\UserApp\Voice/voice.c **** }
 765              		.loc 1 355 0
 766              		@ sp needed
 767 0006 10BD     		pop	{r4, pc}
 768              		.cfi_endproc
 769              	.LFE78:
 770              		.size	VoicePlay, .-VoicePlay
 771              		.comm	BeepDelay_TimeOut,4,4
 772              		.text
 773              	.Letext0:
 774              		.file 2 "c:\\program files (x86)\\cypress\\psoc creator\\4.1\\psoc creator\\import\\gnu\\arm\\5.4.
 775              		.file 3 "c:\\program files (x86)\\cypress\\psoc creator\\4.1\\psoc creator\\import\\gnu\\arm\\5.4.
ARM GAS  C:\Users\Administrator\AppData\Local\Temp\ccNGZ1OQ.s 			page 21


 776              		.file 4 "Generated_Source\\PSoC4/cytypes.h"
 777              		.file 5 ".\\Code\\Common/config.h"
 778              		.file 6 "Generated_Source\\PSoC4/RTC.h"
 779              		.file 7 "Generated_Source\\PSoC4/TIMER.h"